
========================================================================

** ELF Header Information

    File Name: bin\hello_world.axf

    Machine class: ELFCLASS32 (32-bit)
    Data encoding: ELFDATA2LSB (Little endian)
    Header version: EV_CURRENT (Current version)
    Operating System ABI: none
    ABI Version: 0
    File Type: ET_EXEC (Executable) (2)
    Machine: EM_ARM (ARM)

    Image Entry point: 0x00018235
    Flags: EF_ARM_HASENTRY + EF_ARM_ABI_FLOAT_HARD (0x05000402)

    ARM ELF revision: 5 (ABI version 2)

    Conforms to Hard float procedure-call standard

    Built with
    Component: Arm Compiler for Embedded 6.19 Tool: armasm [5e73cb00]
    Component: Arm Compiler for Embedded 6.19 Tool: armlink [5e73cb00]

    Header size: 52 bytes (0x34)
    Program header entry size: 32 bytes (0x20)
    Section header entry size: 40 bytes (0x28)

    Program header entries: 1
    Section header entries: 16

    Program header offset: 134476 (0x00020d4c)
    Section header offset: 134508 (0x00020d6c)

    Section header string table index: 15

========================================================================

** Program header #0 (PT_LOAD) [PF_X + PF_W + PF_R + PF_ARM_ENTRY]
    Size : 34168 bytes (25776 bytes in file)
    Virtual address: 0x00018000 (Alignment 16)


========================================================================

** Section #1 'MCU_MRAM' (SHT_PROGBITS) [SHF_ALLOC + SHF_EXECINSTR]
    Size   : 25412 bytes (alignment 4)
    Address: 0x00018000

    $d
    RESET
    __Vectors
        0x00018000:    100021e8    .!..    DCD    268444136
        0x00018004:    00018201    ....    DCD    98817
        0x00018008:    0001821f    ....    DCD    98847
        0x0001800c:    0001821d    ....    DCD    98845
        0x00018010:    00018221    !...    DCD    98849
        0x00018014:    00018223    #...    DCD    98851
        0x00018018:    00018225    %...    DCD    98853
        0x0001801c:    00000000    ....    DCD    0
        0x00018020:    00000000    ....    DCD    0
        0x00018024:    00000000    ....    DCD    0
        0x00018028:    00000000    ....    DCD    0
        0x0001802c:    00018227    '...    DCD    98855
        0x00018030:    00018229    )...    DCD    98857
        0x00018034:    00000000    ....    DCD    0
        0x00018038:    0001822b    +...    DCD    98859
        0x0001803c:    0001822d    -...    DCD    98861
        0x00018040:    0001822f    /...    DCD    98863
        0x00018044:    0001822f    /...    DCD    98863
        0x00018048:    0001822f    /...    DCD    98863
        0x0001804c:    0001822f    /...    DCD    98863
        0x00018050:    0001822f    /...    DCD    98863
        0x00018054:    0001822f    /...    DCD    98863
        0x00018058:    0001822f    /...    DCD    98863
        0x0001805c:    0001822f    /...    DCD    98863
        0x00018060:    0001822f    /...    DCD    98863
        0x00018064:    0001822f    /...    DCD    98863
        0x00018068:    0001822f    /...    DCD    98863
        0x0001806c:    0001822f    /...    DCD    98863
        0x00018070:    0001822f    /...    DCD    98863
        0x00018074:    0001822f    /...    DCD    98863
        0x00018078:    0001822f    /...    DCD    98863
        0x0001807c:    0001822f    /...    DCD    98863
        0x00018080:    0001822f    /...    DCD    98863
        0x00018084:    0001822f    /...    DCD    98863
        0x00018088:    0001822f    /...    DCD    98863
        0x0001808c:    0001822f    /...    DCD    98863
        0x00018090:    0001822f    /...    DCD    98863
        0x00018094:    0001822f    /...    DCD    98863
        0x00018098:    0001822f    /...    DCD    98863
        0x0001809c:    0001822f    /...    DCD    98863
        0x000180a0:    0001822f    /...    DCD    98863
        0x000180a4:    0001822f    /...    DCD    98863
        0x000180a8:    0001822f    /...    DCD    98863
        0x000180ac:    0001822f    /...    DCD    98863
        0x000180b0:    0001822f    /...    DCD    98863
        0x000180b4:    0001822f    /...    DCD    98863
        0x000180b8:    0001822f    /...    DCD    98863
        0x000180bc:    0001822f    /...    DCD    98863
        0x000180c0:    0001822f    /...    DCD    98863
        0x000180c4:    0001822f    /...    DCD    98863
        0x000180c8:    0001822f    /...    DCD    98863
        0x000180cc:    0001822f    /...    DCD    98863
        0x000180d0:    0001822f    /...    DCD    98863
        0x000180d4:    0001822f    /...    DCD    98863
        0x000180d8:    0001822f    /...    DCD    98863
        0x000180dc:    0001822f    /...    DCD    98863
        0x000180e0:    0001822f    /...    DCD    98863
        0x000180e4:    0001822f    /...    DCD    98863
        0x000180e8:    0001822f    /...    DCD    98863
        0x000180ec:    0001822f    /...    DCD    98863
        0x000180f0:    0001822f    /...    DCD    98863
        0x000180f4:    0001822f    /...    DCD    98863
        0x000180f8:    0001822f    /...    DCD    98863
        0x000180fc:    0001822f    /...    DCD    98863
        0x00018100:    0001822f    /...    DCD    98863
        0x00018104:    0001822f    /...    DCD    98863
        0x00018108:    0001822f    /...    DCD    98863
        0x0001810c:    0001822f    /...    DCD    98863
        0x00018110:    0001822f    /...    DCD    98863
        0x00018114:    0001822f    /...    DCD    98863
        0x00018118:    0001822f    /...    DCD    98863
        0x0001811c:    0001822f    /...    DCD    98863
        0x00018120:    0001822f    /...    DCD    98863
        0x00018124:    0001822f    /...    DCD    98863
        0x00018128:    0001822f    /...    DCD    98863
        0x0001812c:    0001822f    /...    DCD    98863
        0x00018130:    0001822f    /...    DCD    98863
        0x00018134:    0001822f    /...    DCD    98863
        0x00018138:    0001822f    /...    DCD    98863
        0x0001813c:    0001822f    /...    DCD    98863
        0x00018140:    0001822f    /...    DCD    98863
        0x00018144:    0001822f    /...    DCD    98863
        0x00018148:    0001822f    /...    DCD    98863
        0x0001814c:    0001822f    /...    DCD    98863
        0x00018150:    0001822f    /...    DCD    98863
        0x00018154:    0001822f    /...    DCD    98863
        0x00018158:    0001822f    /...    DCD    98863
        0x0001815c:    0001822f    /...    DCD    98863
        0x00018160:    0001822f    /...    DCD    98863
        0x00018164:    0001822f    /...    DCD    98863
        0x00018168:    0001822f    /...    DCD    98863
        0x0001816c:    0001822f    /...    DCD    98863
        0x00018170:    0001822f    /...    DCD    98863
        0x00018174:    0001822f    /...    DCD    98863
        0x00018178:    0001822f    /...    DCD    98863
        0x0001817c:    0001822f    /...    DCD    98863
        0x00018180:    0001822f    /...    DCD    98863
        0x00018184:    0001822f    /...    DCD    98863
        0x00018188:    0001822f    /...    DCD    98863
        0x0001818c:    0001822f    /...    DCD    98863
    __Patchable
        0x00018190:    00000000    ....    DCD    0
        0x00018194:    00000000    ....    DCD    0
        0x00018198:    00000000    ....    DCD    0
        0x0001819c:    00000000    ....    DCD    0
        0x000181a0:    00000000    ....    DCD    0
        0x000181a4:    00000000    ....    DCD    0
        0x000181a8:    00000000    ....    DCD    0
        0x000181ac:    00000000    ....    DCD    0
        0x000181b0:    00000000    ....    DCD    0
        0x000181b4:    00000000    ....    DCD    0
        0x000181b8:    00000000    ....    DCD    0
        0x000181bc:    00000000    ....    DCD    0
        0x000181c0:    00000000    ....    DCD    0
        0x000181c4:    00000000    ....    DCD    0
        0x000181c8:    00000000    ....    DCD    0
        0x000181cc:    00000000    ....    DCD    0
        0x000181d0:    00000000    ....    DCD    0
        0x000181d4:    00000000    ....    DCD    0
        0x000181d8:    00000000    ....    DCD    0
        0x000181dc:    00000000    ....    DCD    0
        0x000181e0:    00000000    ....    DCD    0
        0x000181e4:    00000000    ....    DCD    0
        0x000181e8:    00000000    ....    DCD    0
        0x000181ec:    00000000    ....    DCD    0
        0x000181f0:    00000000    ....    DCD    0
        0x000181f4:    00000000    ....    DCD    0
        0x000181f8:    00000000    ....    DCD    0
        0x000181fc:    00000000    ....    DCD    0
    $t
    $v0
    Reset_Handler
        0x00018200:    f64e5088    N..P    MOV      r0,#0xed88
        0x00018204:    f2ce0000    ....    MOVT     r0,#0xe000
        0x00018208:    6801        .h      LDR      r1,[r0,#0]
        0x0001820a:    f4410170    A.p.    ORR      r1,r1,#0xf00000
        0x0001820e:    6001        .`      STR      r1,[r0,#0]
        0x00018210:    f3bf8f4f    ..O.    DSB      
        0x00018214:    f3bf8f6f    ..o.    ISB      
        0x00018218:    4805        .H      LDR      r0,[pc,#20] ; [0x18230] = 0x18235
        0x0001821a:    4700        .G      BX       r0
    HardFault_Handler
        0x0001821c:    e7fe        ..      B        HardFault_Handler ; 0x1821c
    NMI_Handler
        0x0001821e:    e7fe        ..      B        NMI_Handler ; 0x1821e
    MemManage_Handler
        0x00018220:    e7fe        ..      B        MemManage_Handler ; 0x18220
    BusFault_Handler
        0x00018222:    e7fe        ..      B        BusFault_Handler ; 0x18222
    UsageFault_Handler
        0x00018224:    e7fe        ..      B        UsageFault_Handler ; 0x18224
    SVC_Handler
        0x00018226:    e7fe        ..      B        SVC_Handler ; 0x18226
    DebugMon_Handler
        0x00018228:    e7fe        ..      B        DebugMon_Handler ; 0x18228
    PendSV_Handler
        0x0001822a:    e7fe        ..      B        PendSV_Handler ; 0x1822a
    SysTick_Handler
        0x0001822c:    e7fe        ..      B        SysTick_Handler ; 0x1822c
    am_cryptosec_isr
    am_default_isr
    am_adc_isr
    am_audadc0_isr
    am_brownout_isr
    am_cachecpu_isr
    am_clkgen_isr
    am_ctimer_isr
    am_disp_isr
    am_dsi_isr
    am_dspi2s0_isr
    am_dspi2s1_isr
    am_dspi2s2_isr
    am_dspi2s3_isr
    am_gpio0_001f_isr
    am_gpio0_203f_isr
    am_gpio0_405f_isr
    am_gpio0_607f_isr
    am_gpio1_001f_isr
    am_gpio1_203f_isr
    am_gpio1_405f_isr
    am_gpio1_607f_isr
    am_gpu_isr
    am_iomaster0_isr
    am_iomaster1_isr
    am_iomaster2_isr
    am_iomaster3_isr
    am_iomaster4_isr
    am_iomaster5_isr
    am_iomaster6_isr
    am_iomaster7_isr
    am_ioslave_acc_isr
    am_ioslave_ios_isr
    am_mspi0_isr
    am_mspi1_isr
    am_mspi2_isr
    am_pdm0_isr
    am_pdm1_isr
    am_pdm2_isr
    am_pdm3_isr
    am_rtc_isr
    am_sdio_isr
    am_stimer_cmpr0_isr
    am_stimer_cmpr1_isr
    am_stimer_cmpr2_isr
    am_stimer_cmpr3_isr
    am_stimer_cmpr4_isr
    am_stimer_cmpr5_isr
    am_stimer_cmpr6_isr
    am_stimer_cmpr7_isr
    am_stimerof_isr
    am_timer00_isr
    am_timer01_isr
    am_timer02_isr
    am_timer03_isr
    am_timer04_isr
    am_timer05_isr
    am_timer06_isr
    am_timer07_isr
    am_timer08_isr
    am_timer09_isr
    am_timer10_isr
    am_timer11_isr
    am_timer12_isr
    am_timer13_isr
    am_timer14_isr
    am_timer15_isr
    am_uart1_isr
    am_uart2_isr
    am_uart3_isr
    am_uart_isr
    am_usb_isr
    am_vcomp_isr
    am_watchdog_isr
        0x0001822e:    e7fe        ..      B        am_cryptosec_isr ; 0x1822e
    $d
        0x00018230:    00018235    5...    DCD    98869
    $t
    !!!main
    __main
        0x00018234:    f000f802    ....    BL       __scatterload ; 0x1823c
        0x00018238:    f000f86a    ..j.    BL       __rt_entry ; 0x18310
    !!!scatter
    __scatterload
    __scatterload_rt2
    __scatterload_rt2_thumb_only
        0x0001823c:    a00a        ..      ADR      r0,{pc}+0x2c ; 0x18268
        0x0001823e:    e8900c00    ....    LDM      r0,{r10,r11}
        0x00018242:    4482        .D      ADD      r10,r10,r0
        0x00018244:    4483        .D      ADD      r11,r11,r0
        0x00018246:    f1aa0701    ....    SUB      r7,r10,#1
    __scatterload_null
        0x0001824a:    45da        .E      CMP      r10,r11
        0x0001824c:    d101        ..      BNE      0x18252 ; __scatterload_null + 8
        0x0001824e:    f000f85f    .._.    BL       __rt_entry ; 0x18310
        0x00018252:    f2af0e09    ....    ADR      lr,{pc}-7 ; 0x1824b
        0x00018256:    e8ba000f    ....    LDM      r10!,{r0-r3}
        0x0001825a:    f0130f01    ....    TST      r3,#1
        0x0001825e:    bf18        ..      IT       NE
        0x00018260:    1afb        ..      SUBNE    r3,r7,r3
        0x00018262:    f0430301    C...    ORR      r3,r3,#1
        0x00018266:    4718        .G      BX       r3
    $d
        0x00018268:    000060ac    .`..    DCD    24748
        0x0001826c:    000060dc    .`..    DCD    24796
    $t
    !!dczerorl2
    __decompress
    __decompress1
        0x00018270:    440a        .D      ADD      r2,r2,r1
        0x00018272:    f04f0c00    O...    MOV      r12,#0
        0x00018276:    f8103b01    ...;    LDRB     r3,[r0],#1
        0x0001827a:    f0130407    ....    ANDS     r4,r3,#7
        0x0001827e:    bf08        ..      IT       EQ
        0x00018280:    f8104b01    ...K    LDRBEQ   r4,[r0],#1
        0x00018284:    111d        ..      ASRS     r5,r3,#4
        0x00018286:    bf08        ..      IT       EQ
        0x00018288:    f8105b01    ...[    LDRBEQ   r5,[r0],#1
        0x0001828c:    1e64        d.      SUBS     r4,r4,#1
        0x0001828e:    d005        ..      BEQ      0x1829c ; __decompress + 44
        0x00018290:    f8106b01    ...k    LDRB     r6,[r0],#1
        0x00018294:    1e64        d.      SUBS     r4,r4,#1
        0x00018296:    f8016b01    ...k    STRB     r6,[r1],#1
        0x0001829a:    d1f9        ..      BNE      0x18290 ; __decompress + 32
        0x0001829c:    f0130f08    ....    TST      r3,#8
        0x000182a0:    bf1e        ..      ITTT     NE
        0x000182a2:    f8104b01    ...K    LDRBNE   r4,[r0],#1
        0x000182a6:    1cad        ..      ADDNE    r5,r5,#2
        0x000182a8:    1b0c        ..      SUBNE    r4,r1,r4
        0x000182aa:    d109        ..      BNE      0x182c0 ; __decompress + 80
        0x000182ac:    1e6d        m.      SUBS     r5,r5,#1
        0x000182ae:    bf58        X.      IT       PL
        0x000182b0:    f801cb01    ....    STRBPL   r12,[r1],#1
        0x000182b4:    d5fa        ..      BPL      0x182ac ; __decompress + 60
        0x000182b6:    e005        ..      B        0x182c4 ; __decompress + 84
        0x000182b8:    f8146b01    ...k    LDRB     r6,[r4],#1
        0x000182bc:    f8016b01    ...k    STRB     r6,[r1],#1
        0x000182c0:    1e6d        m.      SUBS     r5,r5,#1
        0x000182c2:    d5f9        ..      BPL      0x182b8 ; __decompress + 72
        0x000182c4:    4291        .B      CMP      r1,r2
        0x000182c6:    d3d6        ..      BCC      0x18276 ; __decompress + 6
        0x000182c8:    4770        pG      BX       lr
        0x000182ca:    0000        ..      MOVS     r0,r0
    !!handler_copy
    __scatterload_copy
        0x000182cc:    3a10        .:      SUBS     r2,r2,#0x10
        0x000182ce:    bf24        $.      ITT      CS
        0x000182d0:    c878        x.      LDMCS    r0!,{r3-r6}
        0x000182d2:    c178        x.      STMCS    r1!,{r3-r6}
        0x000182d4:    d8fa        ..      BHI      __scatterload_copy ; 0x182cc
        0x000182d6:    0752        R.      LSLS     r2,r2,#29
        0x000182d8:    bf24        $.      ITT      CS
        0x000182da:    c830        0.      LDMCS    r0!,{r4,r5}
        0x000182dc:    c130        0.      STMCS    r1!,{r4,r5}
        0x000182de:    bf44        D.      ITT      MI
        0x000182e0:    6804        .h      LDRMI    r4,[r0,#0]
        0x000182e2:    600c        .`      STRMI    r4,[r1,#0]
        0x000182e4:    4770        pG      BX       lr
        0x000182e6:    0000        ..      MOVS     r0,r0
    !!handler_zi
    __scatterload_zeroinit
        0x000182e8:    2300        .#      MOVS     r3,#0
        0x000182ea:    2400        .$      MOVS     r4,#0
        0x000182ec:    2500        .%      MOVS     r5,#0
        0x000182ee:    2600        .&      MOVS     r6,#0
        0x000182f0:    3a10        .:      SUBS     r2,r2,#0x10
        0x000182f2:    bf28        (.      IT       CS
        0x000182f4:    c178        x.      STMCS    r1!,{r3-r6}
        0x000182f6:    d8fb        ..      BHI      0x182f0 ; __scatterload_zeroinit + 8
        0x000182f8:    0752        R.      LSLS     r2,r2,#29
        0x000182fa:    bf28        (.      IT       CS
        0x000182fc:    c130        0.      STMCS    r1!,{r4,r5}
        0x000182fe:    bf48        H.      IT       MI
        0x00018300:    600b        .`      STRMI    r3,[r1,#0]
        0x00018302:    4770        pG      BX       lr
    .ARM.Collect$$libinit$$00000000
    __rt_lib_init
        0x00018304:    b51f        ..      PUSH     {r0-r4,lr}
    .ARM.Collect$$libinit$$00000001
    __rt_lib_init_fp_1
        0x00018306:    f005fb8a    ....    BL       _fp_init ; 0x1da1e
    .ARM.Collect$$libinit$$00000004
    .ARM.Collect$$libinit$$00000006
    .ARM.Collect$$libinit$$0000000C
    .ARM.Collect$$libinit$$0000000E
    .ARM.Collect$$libinit$$00000010
    .ARM.Collect$$libinit$$00000013
    .ARM.Collect$$libinit$$00000015
    .ARM.Collect$$libinit$$00000017
    .ARM.Collect$$libinit$$00000019
    .ARM.Collect$$libinit$$0000001B
    .ARM.Collect$$libinit$$0000001D
    .ARM.Collect$$libinit$$0000001F
    .ARM.Collect$$libinit$$00000021
    .ARM.Collect$$libinit$$00000023
    .ARM.Collect$$libinit$$00000025
    .ARM.Collect$$libinit$$00000027
    .ARM.Collect$$libinit$$0000002E
    .ARM.Collect$$libinit$$00000030
    .ARM.Collect$$libinit$$00000032
    .ARM.Collect$$libinit$$00000034
    .ARM.Collect$$libinit$$00000035
    __rt_lib_init_alloca_1
    __rt_lib_init_argv_1
    __rt_lib_init_atexit_1
    __rt_lib_init_clock_1
    __rt_lib_init_cpp_1
    __rt_lib_init_exceptions_1
    __rt_lib_init_fp_trap_1
    __rt_lib_init_getenv_1
    __rt_lib_init_heap_1
    __rt_lib_init_lc_collate_1
    __rt_lib_init_lc_ctype_1
    __rt_lib_init_lc_monetary_1
    __rt_lib_init_lc_numeric_1
    __rt_lib_init_lc_time_1
    __rt_lib_init_preinit_1
    __rt_lib_init_rand_1
    __rt_lib_init_relocate_pie_1
    __rt_lib_init_return
    __rt_lib_init_signal_1
    __rt_lib_init_stdio_1
    __rt_lib_init_user_alloc_1
        0x0001830a:    bd1f        ..      POP      {r0-r4,pc}
    .ARM.Collect$$libshutdown$$00000000
    __rt_lib_shutdown
        0x0001830c:    b510        ..      PUSH     {r4,lr}
    .ARM.Collect$$libshutdown$$00000002
    .ARM.Collect$$libshutdown$$00000004
    .ARM.Collect$$libshutdown$$00000007
    .ARM.Collect$$libshutdown$$0000000A
    .ARM.Collect$$libshutdown$$0000000C
    .ARM.Collect$$libshutdown$$0000000F
    .ARM.Collect$$libshutdown$$00000010
    __rt_lib_shutdown_cpp_1
    __rt_lib_shutdown_fp_trap_1
    __rt_lib_shutdown_heap_1
    __rt_lib_shutdown_return
    __rt_lib_shutdown_signal_1
    __rt_lib_shutdown_stdio_1
    __rt_lib_shutdown_user_alloc_1
        0x0001830e:    bd10        ..      POP      {r4,pc}
    .ARM.Collect$$rtentry$$00000000
    .ARM.Collect$$rtentry$$00000002
    .ARM.Collect$$rtentry$$00000004
    __rt_entry
    __rt_entry_presh_1
    __rt_entry_sh
        0x00018310:    f000f895    ....    BL       __user_setup_stackheap ; 0x1843e
        0x00018314:    4611        .F      MOV      r1,r2
    .ARM.Collect$$rtentry$$00000009
    .ARM.Collect$$rtentry$$0000000A
    __rt_entry_li
    __rt_entry_postsh_1
        0x00018316:    f7fffff5    ....    BL       __rt_lib_init ; 0x18304
    .ARM.Collect$$rtentry$$0000000C
    .ARM.Collect$$rtentry$$0000000D
    __rt_entry_main
    __rt_entry_postli_1
        0x0001831a:    f004fc55    ..U.    BL       main ; 0x1cbc8
        0x0001831e:    f000f8b3    ....    BL       exit ; 0x18488
    .ARM.Collect$$rtexit$$00000000
    __rt_exit
        0x00018322:    b403        ..      PUSH     {r0,r1}
    .ARM.Collect$$rtexit$$00000002
    .ARM.Collect$$rtexit$$00000003
    __rt_exit_ls
    __rt_exit_prels_1
        0x00018324:    f7fffff2    ....    BL       __rt_lib_shutdown ; 0x1830c
    .ARM.Collect$$rtexit$$00000004
    __rt_exit_exit
        0x00018328:    bc03        ..      POP      {r0,r1}
        0x0001832a:    f000f8bb    ....    BL       _sys_exit ; 0x184a4
        0x0001832e:    0000        ..      MOVS     r0,r0
    .text
    $v0
    __user_initial_stackheap
        0x00018330:    4802        .H      LDR      r0,[pc,#8] ; [0x1833c] = 0x100011e8
        0x00018332:    4903        .I      LDR      r1,[pc,#12] ; [0x18340] = 0x100021e8
        0x00018334:    4a01        .J      LDR      r2,[pc,#4] ; [0x1833c] = 0x100011e8
        0x00018336:    4b03        .K      LDR      r3,[pc,#12] ; [0x18344] = 0x100011e8
        0x00018338:    4770        pG      BX       lr
    $d
        0x0001833a:    0000        ..      DCW    0
        0x0001833c:    100011e8    ....    DCD    268440040
        0x00018340:    100021e8    .!..    DCD    268444136
        0x00018344:    100011e8    ....    DCD    268440040
    $t
    .text
    __aeabi_uldivmod
    _ll_udiv
        0x00018348:    ea530c02    S...    ORRS     r12,r3,r2
        0x0001834c:    f0008069    ..i.    BEQ.W    0x18422 ; __aeabi_uldivmod + 218
        0x00018350:    e92d4bf0    -..K    PUSH     {r4-r9,r11,lr}
        0x00018354:    f04f0600    O...    MOV      r6,#0
        0x00018358:    2b00        .+      CMP      r3,#0
        0x0001835a:    bf1f        ..      ITTTT    NE
        0x0001835c:    fab3f583    ....    CLZNE    r5,r3
        0x00018360:    fa03f405    ....    LSLNE    r4,r3,r5
        0x00018364:    fa24f605    $...    LSRNE    r6,r4,r5
        0x00018368:    405e        ^@      EORNE    r6,r6,r3
        0x0001836a:    bf12        ..      ITEE     NE
        0x0001836c:    4316        .C      ORRNE    r6,r6,r2
        0x0001836e:    fab2f582    ....    CLZEQ    r5,r2
        0x00018372:    fa02f405    ....    LSLEQ    r4,r2,r5
        0x00018376:    f1c50520    .. .    RSB      r5,r5,#0x20
        0x0001837a:    bf1e        ..      ITTT     NE
        0x0001837c:    fa22fc05    "...    LSRNE    r12,r2,r5
        0x00018380:    ea44040c    D...    ORRNE    r4,r4,r12
        0x00018384:    3520         5      ADDNE    r5,r5,#0x20
        0x00018386:    ea564c04    V..L    ORRS     r12,r6,r4,LSL #16
        0x0001838a:    ea4f4414    O..D    LSR      r4,r4,#16
        0x0001838e:    bf18        ..      IT       NE
        0x00018390:    1c64        d.      ADDNE    r4,r4,#1
        0x00018392:    f04f0800    O...    MOV      r8,#0
        0x00018396:    f04f0900    O...    MOV      r9,#0
        0x0001839a:    4290        .B      CMP      r0,r2
        0x0001839c:    eb710c03    q...    SBCS     r12,r1,r3
        0x000183a0:    d339        9.      BCC      0x18416 ; __aeabi_uldivmod + 206
        0x000183a2:    2900        .)      CMP      r1,#0
        0x000183a4:    bf19        ..      ITTEE    NE
        0x000183a6:    fab1f781    ....    CLZNE    r7,r1
        0x000183aa:    fa01f607    ....    LSLNE    r6,r1,r7
        0x000183ae:    fab0f780    ....    CLZEQ    r7,r0
        0x000183b2:    fa00f607    ....    LSLEQ    r6,r0,r7
        0x000183b6:    f1c70720    .. .    RSB      r7,r7,#0x20
        0x000183ba:    bf1e        ..      ITTT     NE
        0x000183bc:    fa20fc07     ...    LSRNE    r12,r0,r7
        0x000183c0:    ea46060c    F...    ORRNE    r6,r6,r12
        0x000183c4:    3720         7      ADDNE    r7,r7,#0x20
        0x000183c6:    fbb6fcf4    ....    UDIV     r12,r6,r4
        0x000183ca:    eba70705    ....    SUB      r7,r7,r5
        0x000183ce:    3f10        .?      SUBS     r7,r7,#0x10
        0x000183d0:    f0070b1f    ....    AND      r11,r7,#0x1f
        0x000183d4:    f1cb0620    .. .    RSB      r6,r11,#0x20
        0x000183d8:    fa2cf606    ,...    LSR      r6,r12,r6
        0x000183dc:    fa0cfb0b    ....    LSL      r11,r12,r11
        0x000183e0:    bf44        D.      ITT      MI
        0x000183e2:    46b3        .F      MOVMI    r11,r6
        0x000183e4:    2600        .&      MOVMI    r6,#0
        0x000183e6:    2f20         /      CMP      r7,#0x20
        0x000183e8:    bfa4        ..      ITT      GE
        0x000183ea:    465e        ^F      MOVGE    r6,r11
        0x000183ec:    f04f0b00    O...    MOVGE    r11,#0
        0x000183f0:    ea5b0c06    [...    ORRS     r12,r11,r6
        0x000183f4:    bf08        ..      IT       EQ
        0x000183f6:    f04f0b01    O...    MOVEQ    r11,#1
        0x000183fa:    eb19090b    ....    ADDS     r9,r9,r11
        0x000183fe:    eb480806    H...    ADC      r8,r8,r6
        0x00018402:    fbab7c02    ...|    UMULL    r7,r12,r11,r2
        0x00018406:    fb06cc02    ....    MLA      r12,r6,r2,r12
        0x0001840a:    fb0bcc03    ....    MLA      r12,r11,r3,r12
        0x0001840e:    1bc0        ..      SUBS     r0,r0,r7
        0x00018410:    eb71010c    q...    SBCS     r1,r1,r12
        0x00018414:    e7c1        ..      B        0x1839a ; __aeabi_uldivmod + 82
        0x00018416:    460b        .F      MOV      r3,r1
        0x00018418:    4602        .F      MOV      r2,r0
        0x0001841a:    4641        AF      MOV      r1,r8
        0x0001841c:    4648        HF      MOV      r0,r9
        0x0001841e:    e8bd8bf0    ....    POP      {r4-r9,r11,pc}
        0x00018422:    b513        ..      PUSH     {r0,r1,r4,lr}
        0x00018424:    4308        .C      ORRS     r0,r0,r1
        0x00018426:    bf18        ..      IT       NE
        0x00018428:    f04f30ff    O..0    MOVNE    r0,#0xffffffff
        0x0001842c:    4601        .F      MOV      r1,r0
        0x0001842e:    f3af8000    ....    NOP.W    
        0x00018432:    e8bd401c    ...@    POP      {r2-r4,lr}
        0x00018436:    4770        pG      BX       lr
    .text
    __use_two_region_memory
        0x00018438:    4770        pG      BX       lr
    __rt_heap_escrow$2region
        0x0001843a:    4770        pG      BX       lr
    __rt_heap_expand$2region
        0x0001843c:    4770        pG      BX       lr
    .text
    __user_setup_stackheap
        0x0001843e:    4675        uF      MOV      r5,lr
        0x00018440:    f000f82c    ..,.    BL       __user_libspace ; 0x1849c
        0x00018444:    46ae        .F      MOV      lr,r5
        0x00018446:    0005        ..      MOVS     r5,r0
        0x00018448:    4669        iF      MOV      r1,sp
        0x0001844a:    4653        SF      MOV      r3,r10
        0x0001844c:    f0200007     ...    BIC      r0,r0,#7
        0x00018450:    4685        .F      MOV      sp,r0
        0x00018452:    b018        ..      ADD      sp,sp,#0x60
        0x00018454:    b520         .      PUSH     {r5,lr}
        0x00018456:    f7ffff6b    ..k.    BL       __user_initial_stackheap ; 0x18330
        0x0001845a:    e8bd4020    .. @    POP      {r5,lr}
        0x0001845e:    f04f0600    O...    MOV      r6,#0
        0x00018462:    f04f0700    O...    MOV      r7,#0
        0x00018466:    f04f0800    O...    MOV      r8,#0
        0x0001846a:    f04f0b00    O...    MOV      r11,#0
        0x0001846e:    46ac        .F      MOV      r12,r5
        0x00018470:    e8ac09c0    ....    STM      r12!,{r6-r8,r11}
        0x00018474:    e8ac09c0    ....    STM      r12!,{r6-r8,r11}
        0x00018478:    e8ac09c0    ....    STM      r12!,{r6-r8,r11}
        0x0001847c:    e8ac09c0    ....    STM      r12!,{r6-r8,r11}
        0x00018480:    f0210107    !...    BIC      r1,r1,#7
        0x00018484:    468d        .F      MOV      sp,r1
        0x00018486:    4770        pG      BX       lr
    .text
    exit
        0x00018488:    b510        ..      PUSH     {r4,lr}
        0x0001848a:    4604        .F      MOV      r4,r0
        0x0001848c:    f3af8000    ....    NOP.W    
        0x00018490:    4620         F      MOV      r0,r4
        0x00018492:    e8bd4010    ...@    POP      {r4,lr}
        0x00018496:    f7ffbf44    ..D.    B.W      __rt_exit ; 0x18322
        0x0001849a:    0000        ..      MOVS     r0,r0
    .text
    __user_libspace
    __user_perproc_libspace
    __user_perthread_libspace
        0x0001849c:    4800        .H      LDR      r0,[pc,#0] ; [0x184a0] = 0x100001e8
        0x0001849e:    4770        pG      BX       lr
    $d
        0x000184a0:    100001e8    ....    DCD    268435944
    $t
    .text
    _sys_exit
        0x000184a4:    4901        .I      LDR      r1,[pc,#4] ; [0x184ac] = 0x20026
        0x000184a6:    2018        .       MOVS     r0,#0x18
        0x000184a8:    beab        ..      BKPT     #0xab
        0x000184aa:    e7fe        ..      B        0x184aa ; _sys_exit + 6
    $d
        0x000184ac:    00020026    &...    DCD    131110
    $t
    .text
    __I$use$semihosting
    __use_no_semihosting_swi
        0x000184b0:    4770        pG      BX       lr
    .text
    __semihosting_library_function
        0x000184b2:    0000        ..      MOVS     r0,r0
    $t.4
    MemLDOActiveTrim_boost
        0x000184b4:    b570        p.      PUSH     {r4-r6,lr}
        0x000184b6:    b082        ..      SUB      sp,sp,#8
        0x000184b8:    2488        .$      MOVS     r4,#0x88
        0x000184ba:    f2400618    @...    MOVW     r6,#0x18
        0x000184be:    f2c40402    ....    MOVT     r4,#0x4002
        0x000184c2:    f2c10600    ....    MOVT     r6,#0x1000
        0x000184c6:    6822        "h      LDR      r2,[r4,#0]
        0x000184c8:    6971        qi      LDR      r1,[r6,#0x14]
        0x000184ca:    f002053f    ..?.    AND      r5,r2,#0x3f
        0x000184ce:    1c4b        K.      ADDS     r3,r1,#1
        0x000184d0:    bf04        ..      ITT      EQ
        0x000184d2:    6175        ua      STREQ    r5,[r6,#0x14]
        0x000184d4:    4629        )F      MOVEQ    r1,r5
        0x000184d6:    b198        ..      CBZ      r0,0x18500 ; MemLDOActiveTrim_boost + 76
        0x000184d8:    6870        ph      LDR      r0,[r6,#4]
        0x000184da:    1c41        A.      ADDS     r1,r0,#1
        0x000184dc:    d10a        ..      BNE      0x184f4 ; MemLDOActiveTrim_boost + 64
        0x000184de:    1d33        3.      ADDS     r3,r6,#4
        0x000184e0:    2001        .       MOVS     r0,#1
        0x000184e2:    f24041c4    @..A    MOV      r1,#0x4c4
        0x000184e6:    2201        ."      MOVS     r2,#1
        0x000184e8:    f001f9fe    ....    BL       am_hal_mram_info_read ; 0x198e8
        0x000184ec:    b980        ..      CBNZ     r0,0x18510 ; MemLDOActiveTrim_boost + 92
        0x000184ee:    6870        ph      LDR      r0,[r6,#4]
        0x000184f0:    1c41        A.      ADDS     r1,r0,#1
        0x000184f2:    d00d        ..      BEQ      0x18510 ; MemLDOActiveTrim_boost + 92
        0x000184f4:    2103        .!      MOVS     r1,#3
        0x000184f6:    2805        .(      CMP      r0,#5
        0x000184f8:    bf88        ..      IT       HI
        0x000184fa:    2107        .!      MOVHI    r1,#7
        0x000184fc:    e00b        ..      B        0x18516 ; MemLDOActiveTrim_boost + 98
        0x000184fe:    bf00        ..      NOP      
        0x00018500:    428d        .B      CMP      r5,r1
        0x00018502:    d01d        ..      BEQ      0x18540 ; MemLDOActiveTrim_boost + 140
        0x00018504:    6820         h      LDR      r0,[r4,#0]
        0x00018506:    f3610005    a...    BFI      r0,r1,#0,#6
        0x0001850a:    6020         `      STR      r0,[r4,#0]
        0x0001850c:    b002        ..      ADD      sp,sp,#8
        0x0001850e:    bd70        p.      POP      {r4-r6,pc}
        0x00018510:    2000        .       MOVS     r0,#0
        0x00018512:    6070        p`      STR      r0,[r6,#4]
        0x00018514:    2103        .!      MOVS     r1,#3
        0x00018516:    f081003f    ..?.    EOR      r0,r1,#0x3f
        0x0001851a:    194e        N.      ADDS     r6,r1,r5
        0x0001851c:    4285        .B      CMP      r5,r0
        0x0001851e:    bf88        ..      IT       HI
        0x00018520:    263f        ?&      MOVHI    r6,#0x3f
        0x00018522:    42b5        .B      CMP      r5,r6
        0x00018524:    d00c        ..      BEQ      0x18540 ; MemLDOActiveTrim_boost + 140
        0x00018526:    f000ff89    ....    BL       am_hal_interrupt_master_disable ; 0x1943c
        0x0001852a:    9001        ..      STR      r0,[sp,#4]
        0x0001852c:    6820         h      LDR      r0,[r4,#0]
        0x0001852e:    f3660005    f...    BFI      r0,r6,#0,#6
        0x00018532:    6020         `      STR      r0,[r4,#0]
        0x00018534:    2014        .       MOVS     r0,#0x14
        0x00018536:    f000fe3b    ..;.    BL       am_hal_delay_us ; 0x191b0
        0x0001853a:    9801        ..      LDR      r0,[sp,#4]
        0x0001853c:    f000ff82    ....    BL       am_hal_interrupt_master_set ; 0x19444
        0x00018540:    b002        ..      ADD      sp,sp,#8
        0x00018542:    bd70        p.      POP      {r4-r6,pc}
    VDDF_simobuck_boost
        0x00018544:    e92d43f0    -..C    PUSH     {r4-r9,lr}
        0x00018548:    b083        ..      SUB      sp,sp,#0xc
        0x0001854a:    f2400718    @...    MOVW     r7,#0x18
        0x0001854e:    f2c10700    ....    MOVT     r7,#0x1000
        0x00018552:    68bd        .h      LDR      r5,[r7,#8]
        0x00018554:    f240396c    @.l9    MOVW     r9,#0x36c
        0x00018558:    4614        .F      MOV      r4,r2
        0x0001855a:    4688        .F      MOV      r8,r1
        0x0001855c:    4606        .F      MOV      r6,r0
        0x0001855e:    1c68        h.      ADDS     r0,r5,#1
        0x00018560:    f2c40902    ....    MOVT     r9,#0x4002
        0x00018564:    d004        ..      BEQ      0x18570 ; VDDF_simobuck_boost + 44
        0x00018566:    6878        xh      LDR      r0,[r7,#4]
        0x00018568:    1c41        A.      ADDS     r1,r0,#1
        0x0001856a:    d114        ..      BNE      0x18596 ; VDDF_simobuck_boost + 82
        0x0001856c:    e008        ..      B        0x18580 ; VDDF_simobuck_boost + 60
        0x0001856e:    bf00        ..      NOP      
        0x00018570:    f8d90000    ....    LDR      r0,[r9,#0]
        0x00018574:    f3c05505    ...U    UBFX     r5,r0,#20,#6
        0x00018578:    60bd        .`      STR      r5,[r7,#8]
        0x0001857a:    6878        xh      LDR      r0,[r7,#4]
        0x0001857c:    1c41        A.      ADDS     r1,r0,#1
        0x0001857e:    d10a        ..      BNE      0x18596 ; VDDF_simobuck_boost + 82
        0x00018580:    1d3b        ;.      ADDS     r3,r7,#4
        0x00018582:    2001        .       MOVS     r0,#1
        0x00018584:    f24041c4    @..A    MOV      r1,#0x4c4
        0x00018588:    2201        ."      MOVS     r2,#1
        0x0001858a:    f001f9ad    ....    BL       am_hal_mram_info_read ; 0x198e8
        0x0001858e:    bb98        ..      CBNZ     r0,0x185f8 ; VDDF_simobuck_boost + 180
        0x00018590:    6878        xh      LDR      r0,[r7,#4]
        0x00018592:    1c41        A.      ADDS     r1,r0,#1
        0x00018594:    d030        0.      BEQ      0x185f8 ; VDDF_simobuck_boost + 180
        0x00018596:    b39e        ..      CBZ      r6,0x18600 ; VDDF_simobuck_boost + 188
        0x00018598:    f64f41a0    O..A    MOV      r1,#0xfca0
        0x0001859c:    f6cf71ff    ...q    MOVT     r1,#0xffff
        0x000185a0:    f8591001    Y...    LDR      r1,[r9,r1]
        0x000185a4:    f00101fe    ....    AND      r1,r1,#0xfe
        0x000185a8:    2922        ")      CMP      r1,#0x22
        0x000185aa:    d332        2.      BCC      0x18612 ; VDDF_simobuck_boost + 206
        0x000185ac:    2805        .(      CMP      r0,#5
        0x000185ae:    bf88        ..      IT       HI
        0x000185b0:    f1080403    ....    ADDHI    r4,r8,#3
        0x000185b4:    f1c4003f    ..?.    RSB      r0,r4,#0x3f
        0x000185b8:    4285        .B      CMP      r5,r0
        0x000185ba:    f8d90000    ....    LDR      r0,[r9,#0]
        0x000185be:    442c        ,D      ADD      r4,r4,r5
        0x000185c0:    f3c05005    ...P    UBFX     r0,r0,#20,#6
        0x000185c4:    bf88        ..      IT       HI
        0x000185c6:    243f        ?$      MOVHI    r4,#0x3f
        0x000185c8:    42a0        .B      CMP      r0,r4
        0x000185ca:    d022        ".      BEQ      0x18612 ; VDDF_simobuck_boost + 206
        0x000185cc:    f000ff36    ..6.    BL       am_hal_interrupt_master_disable ; 0x1943c
        0x000185d0:    9001        ..      STR      r0,[sp,#4]
        0x000185d2:    f8d9000c    ....    LDR      r0,[r9,#0xc]
        0x000185d6:    f0404000    @..@    ORR      r0,r0,#0x80000000
        0x000185da:    f8c9000c    ....    STR      r0,[r9,#0xc]
        0x000185de:    f8d90000    ....    LDR      r0,[r9,#0]
        0x000185e2:    f3645019    d..P    BFI      r0,r4,#20,#6
        0x000185e6:    f8c90000    ....    STR      r0,[r9,#0]
        0x000185ea:    2014        .       MOVS     r0,#0x14
        0x000185ec:    f000fde0    ....    BL       am_hal_delay_us ; 0x191b0
        0x000185f0:    9801        ..      LDR      r0,[sp,#4]
        0x000185f2:    f000ff27    ..'.    BL       am_hal_interrupt_master_set ; 0x19444
        0x000185f6:    e00c        ..      B        0x18612 ; VDDF_simobuck_boost + 206
        0x000185f8:    2000        .       MOVS     r0,#0
        0x000185fa:    6078        x`      STR      r0,[r7,#4]
        0x000185fc:    2e00        ..      CMP      r6,#0
        0x000185fe:    d1cb        ..      BNE      0x18598 ; VDDF_simobuck_boost + 84
        0x00018600:    2805        .(      CMP      r0,#5
        0x00018602:    f8d90000    ....    LDR      r0,[r9,#0]
        0x00018606:    bf88        ..      IT       HI
        0x00018608:    3503        .5      ADDHI    r5,#3
        0x0001860a:    f3c05005    ...P    UBFX     r0,r0,#20,#6
        0x0001860e:    42a8        .B      CMP      r0,r5
        0x00018610:    d102        ..      BNE      0x18618 ; VDDF_simobuck_boost + 212
        0x00018612:    b003        ..      ADD      sp,sp,#0xc
        0x00018614:    e8bd83f0    ....    POP      {r4-r9,pc}
        0x00018618:    f000ff10    ....    BL       am_hal_interrupt_master_disable ; 0x1943c
        0x0001861c:    9002        ..      STR      r0,[sp,#8]
        0x0001861e:    f8d9000c    ....    LDR      r0,[r9,#0xc]
        0x00018622:    f0404000    @..@    ORR      r0,r0,#0x80000000
        0x00018626:    f8c9000c    ....    STR      r0,[r9,#0xc]
        0x0001862a:    f8d90000    ....    LDR      r0,[r9,#0]
        0x0001862e:    f3655019    e..P    BFI      r0,r5,#20,#6
        0x00018632:    f8c90000    ....    STR      r0,[r9,#0]
        0x00018636:    2014        .       MOVS     r0,#0x14
        0x00018638:    f000fdba    ....    BL       am_hal_delay_us ; 0x191b0
        0x0001863c:    9802        ..      LDR      r0,[sp,#8]
        0x0001863e:    f000ff01    ....    BL       am_hal_interrupt_master_set ; 0x19444
        0x00018642:    b003        ..      ADD      sp,sp,#0xc
        0x00018644:    e8bd83f0    ....    POP      {r4-r9,pc}
    am_bsp_buffered_uart_printf_disable
        0x00018648:    b570        p.      PUSH     {r4-r6,lr}
        0x0001864a:    f2402554    @.T%    MOVW     r5,#0x254
        0x0001864e:    f2c10500    ....    MOVT     r5,#0x1000
        0x00018652:    7828        (x      LDRB     r0,[r5,#0]
        0x00018654:    2803        .(      CMP      r0,#3
        0x00018656:    bf18        ..      IT       NE
        0x00018658:    bd70        p.      POPNE    {r4-r6,pc}
        0x0001865a:    6868        hh      LDR      r0,[r5,#4]
        0x0001865c:    f002ff40    ..@.    BL       am_hal_uart_tx_flush ; 0x1b4e0
        0x00018660:    2000        .       MOVS     r0,#0
        0x00018662:    2600        .&      MOVS     r6,#0
        0x00018664:    f003f8d8    ....    BL       am_util_stdio_printf_init ; 0x1b818
        0x00018668:    6868        hh      LDR      r0,[r5,#4]
        0x0001866a:    2102        .!      MOVS     r1,#2
        0x0001866c:    2200        ."      MOVS     r2,#0
        0x0001866e:    f002fe77    ..w.    BL       am_hal_uart_power_control ; 0x1b360
        0x00018672:    6868        hh      LDR      r0,[r5,#4]
        0x00018674:    f002fe28    ..(.    BL       am_hal_uart_deinitialize ; 0x1b2c8
        0x00018678:    f64d2048    M.H     MOV      r0,#0xda48
        0x0001867c:    f2c00001    ....    MOVT     r0,#1
        0x00018680:    6804        .h      LDR      r4,[r0,#0]
        0x00018682:    203c        <       MOVS     r0,#0x3c
        0x00018684:    4621        !F      MOV      r1,r4
        0x00018686:    f000fe27    ..'.    BL       am_hal_gpio_pinconfig ; 0x192d8
        0x0001868a:    202f        /       MOVS     r0,#0x2f
        0x0001868c:    4621        !F      MOV      r1,r4
        0x0001868e:    f000fe23    ..#.    BL       am_hal_gpio_pinconfig ; 0x192d8
        0x00018692:    f24e1080    N...    MOV      r0,#0xe180
        0x00018696:    f2ce0000    ....    MOVT     r0,#0xe000
        0x0001869a:    f44f4100    O..A    MOV      r1,#0x8000
        0x0001869e:    6001        .`      STR      r1,[r0,#0]
        0x000186a0:    f3bf8f4f    ..O.    DSB      
        0x000186a4:    f3bf8f6f    ..o.    ISB      
        0x000186a8:    702e        .p      STRB     r6,[r5,#0]
        0x000186aa:    bd70        p.      POP      {r4-r6,pc}
    am_bsp_buffered_uart_printf_enable
        0x000186ac:    b510        ..      PUSH     {r4,lr}
        0x000186ae:    b082        ..      SUB      sp,sp,#8
        0x000186b0:    f2402454    @.T$    MOVW     r4,#0x254
        0x000186b4:    f2c10400    ....    MOVT     r4,#0x1000
        0x000186b8:    1d21        !.      ADDS     r1,r4,#4
        0x000186ba:    2000        .       MOVS     r0,#0
        0x000186bc:    f002fe18    ....    BL       am_hal_uart_initialize ; 0x1b2f0
        0x000186c0:    bb88        ..      CBNZ     r0,0x18726 ; am_bsp_buffered_uart_printf_enable + 122
        0x000186c2:    6860        `h      LDR      r0,[r4,#4]
        0x000186c4:    2100        .!      MOVS     r1,#0
        0x000186c6:    2200        ."      MOVS     r2,#0
        0x000186c8:    f002fe4a    ..J.    BL       am_hal_uart_power_control ; 0x1b360
        0x000186cc:    bb58        X.      CBNZ     r0,0x18726 ; am_bsp_buffered_uart_printf_enable + 122
        0x000186ce:    6860        `h      LDR      r0,[r4,#4]
        0x000186d0:    f64d51a0    M..Q    MOV      r1,#0xdda0
        0x000186d4:    f2c00101    ....    MOVT     r1,#1
        0x000186d8:    f002fd3c    ..<.    BL       am_hal_uart_configure ; 0x1b154
        0x000186dc:    bb18        ..      CBNZ     r0,0x18726 ; am_bsp_buffered_uart_printf_enable + 122
        0x000186de:    6860        `h      LDR      r0,[r4,#4]
        0x000186e0:    f64051e4    @..Q    MOV      r1,#0xde4
        0x000186e4:    f64013e4    @...    MOV      r3,#0x9e4
        0x000186e8:    f44f6c80    O..l    MOV      r12,#0x400
        0x000186ec:    f2c10100    ....    MOVT     r1,#0x1000
        0x000186f0:    f2c10300    ....    MOVT     r3,#0x1000
        0x000186f4:    f44f6280    O..b    MOV      r2,#0x400
        0x000186f8:    f8cdc000    ....    STR      r12,[sp,#0]
        0x000186fc:    f002fcf6    ....    BL       am_hal_uart_buffer_configure ; 0x1b0ec
        0x00018700:    b988        ..      CBNZ     r0,0x18726 ; am_bsp_buffered_uart_printf_enable + 122
        0x00018702:    f2400038    @.8.    MOVW     r0,#0x38
        0x00018706:    f2c10000    ....    MOVT     r0,#0x1000
        0x0001870a:    6801        .h      LDR      r1,[r0,#0]
        0x0001870c:    203c        <       MOVS     r0,#0x3c
        0x0001870e:    f000fde3    ....    BL       am_hal_gpio_pinconfig ; 0x192d8
        0x00018712:    b940        @.      CBNZ     r0,0x18726 ; am_bsp_buffered_uart_printf_enable + 122
        0x00018714:    f2400034    @.4.    MOVW     r0,#0x34
        0x00018718:    f2c10000    ....    MOVT     r0,#0x1000
        0x0001871c:    6801        .h      LDR      r1,[r0,#0]
        0x0001871e:    202f        /       MOVS     r0,#0x2f
        0x00018720:    f000fdda    ....    BL       am_hal_gpio_pinconfig ; 0x192d8
        0x00018724:    b120         .      CBZ      r0,0x18730 ; am_bsp_buffered_uart_printf_enable + 132
        0x00018726:    f04f30ff    O..0    MOV      r0,#0xffffffff
        0x0001872a:    b002        ..      ADD      sp,sp,#8
        0x0001872c:    bd10        ..      POP      {r4,pc}
        0x0001872e:    bf00        ..      NOP      
        0x00018730:    f648102d    H.-.    MOV      r0,#0x892d
        0x00018734:    f2c00001    ....    MOVT     r0,#1
        0x00018738:    f003f86e    ..n.    BL       am_util_stdio_printf_init ; 0x1b818
        0x0001873c:    f24e400f    N..@    MOV      r0,#0xe40f
        0x00018740:    f2ce0000    ....    MOVT     r0,#0xe000
        0x00018744:    2180        .!      MOVS     r1,#0x80
        0x00018746:    7001        .p      STRB     r1,[r0,#0]
        0x00018748:    f24e1000    N...    MOVW     r0,#0xe100
        0x0001874c:    f2ce0000    ....    MOVT     r0,#0xe000
        0x00018750:    f44f4100    O..A    MOV      r1,#0x8000
        0x00018754:    6001        .`      STR      r1,[r0,#0]
        0x00018756:    2003        .       MOVS     r0,#3
        0x00018758:    7020         p      STRB     r0,[r4,#0]
        0x0001875a:    2000        .       MOVS     r0,#0
        0x0001875c:    b002        ..      ADD      sp,sp,#8
        0x0001875e:    bd10        ..      POP      {r4,pc}
    am_bsp_debug_printf_disable
        0x00018760:    b570        p.      PUSH     {r4-r6,lr}
        0x00018762:    f2402554    @.T%    MOVW     r5,#0x254
        0x00018766:    f2c10500    ....    MOVT     r5,#0x1000
        0x0001876a:    7828        (x      LDRB     r0,[r5,#0]
        0x0001876c:    2803        .(      CMP      r0,#3
        0x0001876e:    d023        #.      BEQ      0x187b8 ; am_bsp_debug_printf_disable + 88
        0x00018770:    2802        .(      CMP      r0,#2
        0x00018772:    d025        %.      BEQ      0x187c0 ; am_bsp_debug_printf_disable + 96
        0x00018774:    2801        .(      CMP      r0,#1
        0x00018776:    bf18        ..      IT       NE
        0x00018778:    bd70        p.      POPNE    {r4-r6,pc}
        0x0001877a:    f000ff65    ..e.    BL       am_hal_itm_not_busy ; 0x19648
        0x0001877e:    201c        .       MOVS     r0,#0x1c
        0x00018780:    2101        .!      MOVS     r1,#1
        0x00018782:    f000fdd5    ....    BL       am_hal_gpio_state_write ; 0x19330
        0x00018786:    f64d204c    M.L     MOV      r0,#0xda4c
        0x0001878a:    f2c00001    ....    MOVT     r0,#1
        0x0001878e:    6801        .h      LDR      r1,[r0,#0]
        0x00018790:    201c        .       MOVS     r0,#0x1c
        0x00018792:    f000fda1    ....    BL       am_hal_gpio_pinconfig ; 0x192d8
        0x00018796:    f000fe59    ..Y.    BL       am_hal_itm_disable ; 0x1944c
        0x0001879a:    2000        .       MOVS     r0,#0
        0x0001879c:    2400        .$      MOVS     r4,#0
        0x0001879e:    f003f83b    ..;.    BL       am_util_stdio_printf_init ; 0x1b818
        0x000187a2:    f64d2050    M.P     MOV      r0,#0xda50
        0x000187a6:    f2c00001    ....    MOVT     r0,#1
        0x000187aa:    6801        .h      LDR      r1,[r0,#0]
        0x000187ac:    201c        .       MOVS     r0,#0x1c
        0x000187ae:    f000fd93    ....    BL       am_hal_gpio_pinconfig ; 0x192d8
        0x000187b2:    702c        ,p      STRB     r4,[r5,#0]
        0x000187b4:    bd70        p.      POP      {r4-r6,pc}
        0x000187b6:    bf00        ..      NOP      
        0x000187b8:    e8bd4070    ..p@    POP      {r4-r6,lr}
        0x000187bc:    f7ffbf44    ..D.    B.W      am_bsp_buffered_uart_printf_disable ; 0x18648
        0x000187c0:    6868        hh      LDR      r0,[r5,#4]
        0x000187c2:    f002fe8d    ....    BL       am_hal_uart_tx_flush ; 0x1b4e0
        0x000187c6:    2000        .       MOVS     r0,#0
        0x000187c8:    2600        .&      MOVS     r6,#0
        0x000187ca:    f003f825    ..%.    BL       am_util_stdio_printf_init ; 0x1b818
        0x000187ce:    6868        hh      LDR      r0,[r5,#4]
        0x000187d0:    2102        .!      MOVS     r1,#2
        0x000187d2:    2200        ."      MOVS     r2,#0
        0x000187d4:    f002fdc4    ....    BL       am_hal_uart_power_control ; 0x1b360
        0x000187d8:    6868        hh      LDR      r0,[r5,#4]
        0x000187da:    f002fd75    ..u.    BL       am_hal_uart_deinitialize ; 0x1b2c8
        0x000187de:    f64d2048    M.H     MOV      r0,#0xda48
        0x000187e2:    f2c00001    ....    MOVT     r0,#1
        0x000187e6:    6804        .h      LDR      r4,[r0,#0]
        0x000187e8:    203c        <       MOVS     r0,#0x3c
        0x000187ea:    4621        !F      MOV      r1,r4
        0x000187ec:    f000fd74    ..t.    BL       am_hal_gpio_pinconfig ; 0x192d8
        0x000187f0:    202f        /       MOVS     r0,#0x2f
        0x000187f2:    4621        !F      MOV      r1,r4
        0x000187f4:    f000fd70    ..p.    BL       am_hal_gpio_pinconfig ; 0x192d8
        0x000187f8:    702e        .p      STRB     r6,[r5,#0]
        0x000187fa:    bd70        p.      POP      {r4-r6,pc}
    am_bsp_debug_printf_enable
        0x000187fc:    f2402054    @.T     MOVW     r0,#0x254
        0x00018800:    f2c10000    ....    MOVT     r0,#0x1000
        0x00018804:    7800        .x      LDRB     r0,[r0,#0]
        0x00018806:    2802        .(      CMP      r0,#2
        0x00018808:    d308        ..      BCC      0x1881c ; am_bsp_debug_printf_enable + 32
        0x0001880a:    d009        ..      BEQ      0x18820 ; am_bsp_debug_printf_enable + 36
        0x0001880c:    2803        .(      CMP      r0,#3
        0x0001880e:    bf1c        ..      ITT      NE
        0x00018810:    f04f30ff    O..0    MOVNE    r0,#0xffffffff
        0x00018814:    4770        pG      BXNE     lr
        0x00018816:    f7ffbf49    ..I.    B.W      am_bsp_buffered_uart_printf_enable ; 0x186ac
        0x0001881a:    bf00        ..      NOP      
        0x0001881c:    f000b802    ....    B.W      am_bsp_itm_printf_enable ; 0x18824
        0x00018820:    f000b84c    ..L.    B.W      am_bsp_uart_printf_enable ; 0x188bc
    am_bsp_itm_printf_enable
        0x00018824:    b580        ..      PUSH     {r7,lr}
        0x00018826:    b082        ..      SUB      sp,sp,#8
        0x00018828:    f2410008    A...    MOV      r0,#0x1008
        0x0001882c:    f2c40002    ....    MOVT     r0,#0x4002
        0x00018830:    6800        .h      LDR      r0,[r0,#0]
        0x00018832:    02c0        ..      LSLS     r0,r0,#11
        0x00018834:    d512        ..      BPL      0x1885c ; am_bsp_itm_printf_enable + 56
        0x00018836:    f640207c    @.|     MOV      r0,#0xa7c
        0x0001883a:    f2c4000c    ....    MOVT     r0,#0x400c
        0x0001883e:    6800        .h      LDR      r0,[r0,#0]
        0x00018840:    07c0        ..      LSLS     r0,r0,#31
        0x00018842:    d00b        ..      BEQ      0x1885c ; am_bsp_itm_printf_enable + 56
        0x00018844:    a801        ..      ADD      r0,sp,#4
        0x00018846:    f000fc21    ..!.    BL       am_hal_dcu_get ; 0x1908c
        0x0001884a:    f89d0004    ....    LDRB     r0,[sp,#4]
        0x0001884e:    06c0        ..      LSLS     r0,r0,#27
        0x00018850:    d408        ..      BMI      0x18864 ; am_bsp_itm_printf_enable + 64
        0x00018852:    2001        .       MOVS     r0,#1
        0x00018854:    2110        .!      MOVS     r1,#0x10
        0x00018856:    f000fc59    ..Y.    BL       am_hal_dcu_update ; 0x1910c
        0x0001885a:    b118        ..      CBZ      r0,0x18864 ; am_bsp_itm_printf_enable + 64
        0x0001885c:    f04f30ff    O..0    MOV      r0,#0xffffffff
        0x00018860:    b002        ..      ADD      sp,sp,#8
        0x00018862:    bd80        ..      POP      {r7,pc}
        0x00018864:    f2402054    @.T     MOVW     r0,#0x254
        0x00018868:    f2c10000    ....    MOVT     r0,#0x1000
        0x0001886c:    2101        .!      MOVS     r1,#1
        0x0001886e:    7001        .p      STRB     r1,[r0,#0]
        0x00018870:    f000febe    ....    BL       am_hal_itm_enable ; 0x195f0
        0x00018874:    f2442040    D.@     MOV      r0,#0x4240
        0x00018878:    f2c0000f    ....    MOVT     r0,#0xf
        0x0001887c:    f002fbe8    ....    BL       am_hal_tpiu_enable ; 0x1b050
        0x00018880:    f240003c    @.<.    MOVW     r0,#0x3c
        0x00018884:    f2c10000    ....    MOVT     r0,#0x1000
        0x00018888:    6801        .h      LDR      r1,[r0,#0]
        0x0001888a:    201c        .       MOVS     r0,#0x1c
        0x0001888c:    f000fd24    ..$.    BL       am_hal_gpio_pinconfig ; 0x192d8
        0x00018890:    f2496071    I.q`    MOV      r0,#0x9671
        0x00018894:    f2c00001    ....    MOVT     r0,#1
        0x00018898:    f002ffbe    ....    BL       am_util_stdio_printf_init ; 0x1b818
        0x0001889c:    2000        .       MOVS     r0,#0
        0x0001889e:    b002        ..      ADD      sp,sp,#8
        0x000188a0:    bd80        ..      POP      {r7,pc}
        0x000188a2:    0000        ..      MOVS     r0,r0
    am_bsp_low_power_init
        0x000188a4:    b580        ..      PUSH     {r7,lr}
        0x000188a6:    f001f999    ....    BL       am_hal_pwrctrl_low_power_init ; 0x19bdc
        0x000188aa:    2000        .       MOVS     r0,#0
        0x000188ac:    2100        .!      MOVS     r1,#0
        0x000188ae:    f001f86b    ..k.    BL       am_hal_pwrctrl_control ; 0x19988
        0x000188b2:    e8bd4080    ...@    POP      {r7,lr}
        0x000188b6:    f001bf2b    ..+.    B.W      am_hal_rtc_osc_disable ; 0x1a710
        0x000188ba:    0000        ..      MOVS     r0,r0
    am_bsp_uart_printf_enable
        0x000188bc:    b510        ..      PUSH     {r4,lr}
        0x000188be:    f2402454    @.T$    MOVW     r4,#0x254
        0x000188c2:    f2c10400    ....    MOVT     r4,#0x1000
        0x000188c6:    1d21        !.      ADDS     r1,r4,#4
        0x000188c8:    2000        .       MOVS     r0,#0
        0x000188ca:    f002fd11    ....    BL       am_hal_uart_initialize ; 0x1b2f0
        0x000188ce:    b9f8        ..      CBNZ     r0,0x18910 ; am_bsp_uart_printf_enable + 84
        0x000188d0:    6860        `h      LDR      r0,[r4,#4]
        0x000188d2:    2100        .!      MOVS     r1,#0
        0x000188d4:    2200        ."      MOVS     r2,#0
        0x000188d6:    f002fd43    ..C.    BL       am_hal_uart_power_control ; 0x1b360
        0x000188da:    b9c8        ..      CBNZ     r0,0x18910 ; am_bsp_uart_printf_enable + 84
        0x000188dc:    6860        `h      LDR      r0,[r4,#4]
        0x000188de:    f64d51a0    M..Q    MOV      r1,#0xdda0
        0x000188e2:    f2c00101    ....    MOVT     r1,#1
        0x000188e6:    f002fc35    ..5.    BL       am_hal_uart_configure ; 0x1b154
        0x000188ea:    b988        ..      CBNZ     r0,0x18910 ; am_bsp_uart_printf_enable + 84
        0x000188ec:    f2400038    @.8.    MOVW     r0,#0x38
        0x000188f0:    f2c10000    ....    MOVT     r0,#0x1000
        0x000188f4:    6801        .h      LDR      r1,[r0,#0]
        0x000188f6:    203c        <       MOVS     r0,#0x3c
        0x000188f8:    f000fcee    ....    BL       am_hal_gpio_pinconfig ; 0x192d8
        0x000188fc:    b940        @.      CBNZ     r0,0x18910 ; am_bsp_uart_printf_enable + 84
        0x000188fe:    f2400034    @.4.    MOVW     r0,#0x34
        0x00018902:    f2c10000    ....    MOVT     r0,#0x1000
        0x00018906:    6801        .h      LDR      r1,[r0,#0]
        0x00018908:    202f        /       MOVS     r0,#0x2f
        0x0001890a:    f000fce5    ....    BL       am_hal_gpio_pinconfig ; 0x192d8
        0x0001890e:    b118        ..      CBZ      r0,0x18918 ; am_bsp_uart_printf_enable + 92
        0x00018910:    f04f30ff    O..0    MOV      r0,#0xffffffff
        0x00018914:    bd10        ..      POP      {r4,pc}
        0x00018916:    bf00        ..      NOP      
        0x00018918:    2002        .       MOVS     r0,#2
        0x0001891a:    7020         p      STRB     r0,[r4,#0]
        0x0001891c:    f648102d    H.-.    MOV      r0,#0x892d
        0x00018920:    f2c00001    ....    MOVT     r0,#1
        0x00018924:    f002ff78    ..x.    BL       am_util_stdio_printf_init ; 0x1b818
        0x00018928:    2000        .       MOVS     r0,#0
        0x0001892a:    bd10        ..      POP      {r4,pc}
    am_bsp_uart_string_print
        0x0001892c:    b510        ..      PUSH     {r4,lr}
        0x0001892e:    b08a        ..      SUB      sp,sp,#0x28
        0x00018930:    2100        .!      MOVS     r1,#0
        0x00018932:    f04f34ff    O..4    MOV      r4,#0xffffffff
        0x00018936:    9109        ..      STR      r1,[sp,#0x24]
        0x00018938:    1901        ..      ADDS     r1,r0,r4
        0x0001893a:    784a        Jx      LDRB     r2,[r1,#1]
        0x0001893c:    b142        B.      CBZ      r2,0x18950 ; am_bsp_uart_string_print + 36
        0x0001893e:    788a        .x      LDRB     r2,[r1,#2]
        0x00018940:    b142        B.      CBZ      r2,0x18954 ; am_bsp_uart_string_print + 40
        0x00018942:    78ca        .x      LDRB     r2,[r1,#3]
        0x00018944:    b142        B.      CBZ      r2,0x18958 ; am_bsp_uart_string_print + 44
        0x00018946:    7909        .y      LDRB     r1,[r1,#4]
        0x00018948:    3404        .4      ADDS     r4,#4
        0x0001894a:    2900        .)      CMP      r1,#0
        0x0001894c:    d1f4        ..      BNE      0x18938 ; am_bsp_uart_string_print + 12
        0x0001894e:    e004        ..      B        0x1895a ; am_bsp_uart_string_print + 46
        0x00018950:    3401        .4      ADDS     r4,#1
        0x00018952:    e002        ..      B        0x1895a ; am_bsp_uart_string_print + 46
        0x00018954:    3402        .4      ADDS     r4,#2
        0x00018956:    e000        ..      B        0x1895a ; am_bsp_uart_string_print + 46
        0x00018958:    3403        .4      ADDS     r4,#3
        0x0001895a:    e9cd0402    ....    STRD     r0,r4,[sp,#8]
        0x0001895e:    a809        ..      ADD      r0,sp,#0x24
        0x00018960:    2100        .!      MOVS     r1,#0
        0x00018962:    9004        ..      STR      r0,[sp,#0x10]
        0x00018964:    f04f30ff    O..0    MOV      r0,#0xffffffff
        0x00018968:    e9cd0105    ....    STRD     r0,r1,[sp,#0x14]
        0x0001896c:    f2402054    @.T     MOVW     r0,#0x254
        0x00018970:    f2c10000    ....    MOVT     r0,#0x1000
        0x00018974:    6840        @h      LDR      r0,[r0,#4]
        0x00018976:    f88d1004    ....    STRB     r1,[sp,#4]
        0x0001897a:    9107        ..      STR      r1,[sp,#0x1c]
        0x0001897c:    9108        ..      STR      r1,[sp,#0x20]
        0x0001897e:    a901        ..      ADD      r1,sp,#4
        0x00018980:    f002fd4e    ..N.    BL       am_hal_uart_transfer ; 0x1b420
        0x00018984:    9809        ..      LDR      r0,[sp,#0x24]
        0x00018986:    42a0        .B      CMP      r0,r4
        0x00018988:    bf04        ..      ITT      EQ
        0x0001898a:    b00a        ..      ADDEQ    sp,sp,#0x28
        0x0001898c:    bd10        ..      POPEQ    {r4,pc}
        0x0001898e:    bf00        ..      NOP      
        0x00018990:    e7fe        ..      B        0x18990 ; am_bsp_uart_string_print + 100
        0x00018992:    0000        ..      MOVS     r0,r0
    am_hal_cachectrl_config
        0x00018994:    b5b0        ..      PUSH     {r4,r5,r7,lr}
        0x00018996:    b082        ..      SUB      sp,sp,#8
        0x00018998:    4604        .F      MOV      r4,r0
        0x0001899a:    f000fd4f    ..O.    BL       am_hal_interrupt_master_disable ; 0x1943c
        0x0001899e:    9001        ..      STR      r0,[sp,#4]
        0x000189a0:    f04f4590    O..E    MOV      r5,#0x48000000
        0x000189a4:    6828        (h      LDR      r0,[r5,#0]
        0x000189a6:    f4207040     .@p    BIC      r0,r0,#0x300
        0x000189aa:    6028        (`      STR      r0,[r5,#0]
        0x000189ac:    9801        ..      LDR      r0,[sp,#4]
        0x000189ae:    f000fd49    ..I.    BL       am_hal_interrupt_master_set ; 0x19444
        0x000189b2:    78a1        .x      LDRB     r1,[r4,#2]
        0x000189b4:    7820         x      LDRB     r0,[r4,#0]
        0x000189b6:    7862        bx      LDRB     r2,[r4,#1]
        0x000189b8:    0049        I.      LSLS     r1,r1,#1
        0x000189ba:    b2c9        ..      UXTB     r1,r1
        0x000189bc:    f0020203    ....    AND      r2,r2,#3
        0x000189c0:    f3601107    `...    BFI      r1,r0,#4,#4
        0x000189c4:    ea412002    A..     ORR      r0,r1,r2,LSL #8
        0x000189c8:    f4401080    @...    ORR      r0,r0,#0x100000
        0x000189cc:    f4406180    @..a    ORR      r1,r0,#0x400
        0x000189d0:    2000        .       MOVS     r0,#0
        0x000189d2:    6029        )`      STR      r1,[r5,#0]
        0x000189d4:    b002        ..      ADD      sp,sp,#8
        0x000189d6:    bdb0        ..      POP      {r4,r5,r7,pc}
    am_hal_cachectrl_enable
        0x000189d8:    f04f4090    O..@    MOV      r0,#0x48000000
        0x000189dc:    6801        .h      LDR      r1,[r0,#0]
        0x000189de:    f0410101    A...    ORR      r1,r1,#1
        0x000189e2:    6001        .`      STR      r1,[r0,#0]
        0x000189e4:    2108        .!      MOVS     r1,#8
        0x000189e6:    f6c40100    ....    MOVT     r1,#0x4800
        0x000189ea:    6808        .h      LDR      r0,[r1,#0]
        0x000189ec:    f0400201    @...    ORR      r2,r0,#1
        0x000189f0:    2000        .       MOVS     r0,#0
        0x000189f2:    600a        .`      STR      r2,[r1,#0]
        0x000189f4:    4770        pG      BX       lr
        0x000189f6:    0000        ..      MOVS     r0,r0
    am_hal_clkgen_control
        0x000189f8:    b5b0        ..      PUSH     {r4,r5,r7,lr}
        0x000189fa:    2814        .(      CMP      r0,#0x14
        0x000189fc:    f20080ba    ....    BHI.W    0x18b74 ; am_hal_clkgen_control + 380
        0x00018a00:    460c        .F      MOV      r4,r1
        0x00018a02:    e8dff010    ....    TBH      [pc,r0,LSL #1]
    $d.2
        0x00018a06:    0015        ..      DCW    21
        0x00018a08:    002d0021    !.-.    DCD    2949153
        0x00018a0c:    0049003d    =.I.    DCD    4784189
        0x00018a10:    00850079    y...    DCD    8716409
        0x00018a14:    00cd00b9    ....    DCD    13435065
        0x00018a18:    00e300d9    ....    DCD    14876889
        0x00018a1c:    00f700ed    ....    DCD    16187629
        0x00018a20:    010f0103    ....    DCD    17760515
        0x00018a24:    01230119    ..#.    DCD    19071257
        0x00018a28:    0137012d    -.7.    DCD    20381997
        0x00018a2c:    014f0143    C.O.    DCD    21954883
    $t.3
        0x00018a30:    f2440084    D...    MOV      r0,#0x4084
        0x00018a34:    f2c40000    ....    MOVT     r0,#0x4000
        0x00018a38:    f8501c78    P.x.    LDR      r1,[r0,#-0x78]
        0x00018a3c:    f0210180    !...    BIC      r1,r1,#0x80
        0x00018a40:    f8401c78    @.x.    STR      r1,[r0,#-0x78]
        0x00018a44:    2000        .       MOVS     r0,#0
        0x00018a46:    bdb0        ..      POP      {r4,r5,r7,pc}
        0x00018a48:    f2440084    D...    MOV      r0,#0x4084
        0x00018a4c:    f2c40000    ....    MOVT     r0,#0x4000
        0x00018a50:    f8501c78    P.x.    LDR      r1,[r0,#-0x78]
        0x00018a54:    f0410180    A...    ORR      r1,r1,#0x80
        0x00018a58:    f8401c78    @.x.    STR      r1,[r0,#-0x78]
        0x00018a5c:    2000        .       MOVS     r0,#0
        0x00018a5e:    bdb0        ..      POP      {r4,r5,r7,pc}
        0x00018a60:    f2410008    A...    MOV      r0,#0x1008
        0x00018a64:    f2c40002    ....    MOVT     r0,#0x4002
        0x00018a68:    6800        .h      LDR      r0,[r0,#0]
        0x00018a6a:    2800        .(      CMP      r0,#0
        0x00018a6c:    f000812c    ..,.    BEQ.W    0x18cc8 ; am_hal_clkgen_control + 720
        0x00018a70:    2c00        .,      CMP      r4,#0
        0x00018a72:    f000812b    ..+.    BEQ.W    0x18ccc ; am_hal_clkgen_control + 724
        0x00018a76:    6820         h      LDR      r0,[r4,#0]
        0x00018a78:    f0400001    @...    ORR      r0,r0,#1
        0x00018a7c:    e12a        *.      B        0x18cd4 ; am_hal_clkgen_control + 732
        0x00018a7e:    bf00        ..      NOP      
        0x00018a80:    f2440084    D...    MOV      r0,#0x4084
        0x00018a84:    f2c40000    ....    MOVT     r0,#0x4000
        0x00018a88:    f8501c64    P.d.    LDR      r1,[r0,#-0x64]
        0x00018a8c:    f0210101    !...    BIC      r1,r1,#1
        0x00018a90:    f8401c64    @.d.    STR      r1,[r0,#-0x64]
        0x00018a94:    2000        .       MOVS     r0,#0
        0x00018a96:    bdb0        ..      POP      {r4,r5,r7,pc}
        0x00018a98:    f2440084    D...    MOV      r0,#0x4084
        0x00018a9c:    f2c40000    ....    MOVT     r0,#0x4000
        0x00018aa0:    f8501c3c    P.<.    LDR      r1,[r0,#-0x3c]
        0x00018aa4:    2302        .#      MOVS     r3,#2
        0x00018aa6:    f0210101    !...    BIC      r1,r1,#1
        0x00018aaa:    f8401c3c    @.<.    STR      r1,[r0,#-0x3c]
        0x00018aae:    f8502c38    P.8,    LDR      r2,[r0,#-0x38]
        0x00018ab2:    f64451d0    D..Q    MOV      r1,#0x4dd0
        0x00018ab6:    f0420207    B...    ORR      r2,r2,#7
        0x00018aba:    f8402c38    @.8,    STR      r2,[r0,#-0x38]
        0x00018abe:    f8502c34    P.4,    LDR      r2,[r0,#-0x34]
        0x00018ac2:    f2c00162    ..b.    MOVT     r1,#0x62
        0x00018ac6:    f3630201    c...    BFI      r2,r3,#0,#2
        0x00018aca:    f8402c34    @.4,    STR      r2,[r0,#-0x34]
        0x00018ace:    b124        $.      CBZ      r4,0x18ada ; am_hal_clkgen_control + 226
        0x00018ad0:    6822        "h      LDR      r2,[r4,#0]
        0x00018ad2:    2a00        .*      CMP      r2,#0
        0x00018ad4:    bf18        ..      IT       NE
        0x00018ad6:    f44f0100    O...    MOVNE    r1,#0x800000
        0x00018ada:    f8502c34    P.4,    LDR      r2,[r0,#-0x34]
        0x00018ade:    f36f029e    o...    BFC      r2,#2,#29
        0x00018ae2:    4311        .C      ORRS     r1,r1,r2
        0x00018ae4:    f8401c34    @.4.    STR      r1,[r0,#-0x34]
        0x00018ae8:    f8501c3c    P.<.    LDR      r1,[r0,#-0x3c]
        0x00018aec:    f0410101    A...    ORR      r1,r1,#1
        0x00018af0:    f8401c3c    @.<.    STR      r1,[r0,#-0x3c]
        0x00018af4:    2000        .       MOVS     r0,#0
        0x00018af6:    bdb0        ..      POP      {r4,r5,r7,pc}
        0x00018af8:    f2440084    D...    MOV      r0,#0x4084
        0x00018afc:    f2c40000    ....    MOVT     r0,#0x4000
        0x00018b00:    f8501c3c    P.<.    LDR      r1,[r0,#-0x3c]
        0x00018b04:    f0210101    !...    BIC      r1,r1,#1
        0x00018b08:    f8401c3c    @.<.    STR      r1,[r0,#-0x3c]
        0x00018b0c:    2000        .       MOVS     r0,#0
        0x00018b0e:    bdb0        ..      POP      {r4,r5,r7,pc}
        0x00018b10:    b384        ..      CBZ      r4,0x18b74 ; am_hal_clkgen_control + 380
        0x00018b12:    6820         h      LDR      r0,[r4,#0]
        0x00018b14:    2801        .(      CMP      r0,#1
        0x00018b16:    d12d        -.      BNE      0x18b74 ; am_hal_clkgen_control + 380
        0x00018b18:    f2440584    D...    MOV      r5,#0x4084
        0x00018b1c:    f2c40500    ....    MOVT     r5,#0x4000
        0x00018b20:    f8550c3c    U.<.    LDR      r0,[r5,#-0x3c]
        0x00018b24:    f0200001     ...    BIC      r0,r0,#1
        0x00018b28:    f8450c3c    E.<.    STR      r0,[r5,#-0x3c]
        0x00018b2c:    7c20         |      LDRB     r0,[r4,#0x10]
        0x00018b2e:    68e1        .h      LDR      r1,[r4,#0xc]
        0x00018b30:    f0100201    ....    ANDS     r2,r0,#1
        0x00018b34:    f1c20200    ....    RSB      r2,r2,#0
        0x00018b38:    ea020201    ....    AND      r2,r2,r1
        0x00018b3c:    f0000007    ....    AND      r0,r0,#7
        0x00018b40:    f64371f8    C..q    MOV      r1,#0x3ff8
        0x00018b44:    bf08        ..      IT       EQ
        0x00018b46:    2007        .       MOVEQ    r0,#7
        0x00018b48:    ea0103c2    ....    AND      r3,r1,r2,LSL #3
        0x00018b4c:    2100        .!      MOVS     r1,#0
        0x00018b4e:    ebb12fd2    .../    CMP      r1,r2,LSR #11
        0x00018b52:    bf08        ..      IT       EQ
        0x00018b54:    4418        .D      ADDEQ    r0,r3
        0x00018b56:    f8450c38    E.8.    STR      r0,[r5,#-0x38]
        0x00018b5a:    6862        bh      LDR      r2,[r4,#4]
        0x00018b5c:    f6464300    F..C    MOVW     r3,#0x6c00
        0x00018b60:    1e50        P.      SUBS     r0,r2,#1
        0x00018b62:    f2c023dc    ...#    MOVT     r3,#0x2dc
        0x00018b66:    4298        .B      CMP      r0,r3
        0x00018b68:    f08080bc    ....    BCS.W    0x18ce4 ; am_hal_clkgen_control + 748
        0x00018b6c:    f44f1c00    O...    MOV      r12,#0x200000
        0x00018b70:    2002        .       MOVS     r0,#2
        0x00018b72:    e0c0        ..      B        0x18cf6 ; am_hal_clkgen_control + 766
        0x00018b74:    2006        .       MOVS     r0,#6
        0x00018b76:    bdb0        ..      POP      {r4,r5,r7,pc}
        0x00018b78:    f2440084    D...    MOV      r0,#0x4084
        0x00018b7c:    f2c40000    ....    MOVT     r0,#0x4000
        0x00018b80:    f8501c40    P.@.    LDR      r1,[r0,#-0x40]
        0x00018b84:    0689        ..      LSLS     r1,r1,#26
        0x00018b86:    d414        ..      BMI      0x18bb2 ; am_hal_clkgen_control + 442
        0x00018b88:    f8501c40    P.@.    LDR      r1,[r0,#-0x40]
        0x00018b8c:    f0410120    A. .    ORR      r1,r1,#0x20
        0x00018b90:    f8401c40    @.@.    STR      r1,[r0,#-0x40]
        0x00018b94:    200a        .       MOVS     r0,#0xa
        0x00018b96:    f000fb0b    ....    BL       am_hal_delay_us ; 0x191b0
        0x00018b9a:    2000        .       MOVS     r0,#0
        0x00018b9c:    bdb0        ..      POP      {r4,r5,r7,pc}
        0x00018b9e:    bf00        ..      NOP      
        0x00018ba0:    f2440084    D...    MOV      r0,#0x4084
        0x00018ba4:    f2c40000    ....    MOVT     r0,#0x4000
        0x00018ba8:    f8501c40    P.@.    LDR      r1,[r0,#-0x40]
        0x00018bac:    0689        ..      LSLS     r1,r1,#26
        0x00018bae:    f1008083    ....    BMI.W    0x18cb8 ; am_hal_clkgen_control + 704
        0x00018bb2:    2000        .       MOVS     r0,#0
        0x00018bb4:    bdb0        ..      POP      {r4,r5,r7,pc}
        0x00018bb6:    bf00        ..      NOP      
        0x00018bb8:    f2440084    D...    MOV      r0,#0x4084
        0x00018bbc:    f2c40000    ....    MOVT     r0,#0x4000
        0x00018bc0:    6801        .h      LDR      r1,[r0,#0]
        0x00018bc2:    f0410180    A...    ORR      r1,r1,#0x80
        0x00018bc6:    6001        .`      STR      r1,[r0,#0]
        0x00018bc8:    2000        .       MOVS     r0,#0
        0x00018bca:    bdb0        ..      POP      {r4,r5,r7,pc}
        0x00018bcc:    f2440084    D...    MOV      r0,#0x4084
        0x00018bd0:    f2c40000    ....    MOVT     r0,#0x4000
        0x00018bd4:    6801        .h      LDR      r1,[r0,#0]
        0x00018bd6:    f0210180    !...    BIC      r1,r1,#0x80
        0x00018bda:    6001        .`      STR      r1,[r0,#0]
        0x00018bdc:    2000        .       MOVS     r0,#0
        0x00018bde:    bdb0        ..      POP      {r4,r5,r7,pc}
        0x00018be0:    f2440084    D...    MOV      r0,#0x4084
        0x00018be4:    f2c40000    ....    MOVT     r0,#0x4000
        0x00018be8:    6801        .h      LDR      r1,[r0,#0]
        0x00018bea:    f0210130    !.0.    BIC      r1,r1,#0x30
        0x00018bee:    6001        .`      STR      r1,[r0,#0]
        0x00018bf0:    2000        .       MOVS     r0,#0
        0x00018bf2:    bdb0        ..      POP      {r4,r5,r7,pc}
        0x00018bf4:    f2440084    D...    MOV      r0,#0x4084
        0x00018bf8:    f2c40000    ....    MOVT     r0,#0x4000
        0x00018bfc:    6801        .h      LDR      r1,[r0,#0]
        0x00018bfe:    2201        ."      MOVS     r2,#1
        0x00018c00:    f3621105    b...    BFI      r1,r2,#4,#2
        0x00018c04:    6001        .`      STR      r1,[r0,#0]
        0x00018c06:    2000        .       MOVS     r0,#0
        0x00018c08:    bdb0        ..      POP      {r4,r5,r7,pc}
        0x00018c0a:    bf00        ..      NOP      
        0x00018c0c:    f2440084    D...    MOV      r0,#0x4084
        0x00018c10:    f2c40000    ....    MOVT     r0,#0x4000
        0x00018c14:    6801        .h      LDR      r1,[r0,#0]
        0x00018c16:    2202        ."      MOVS     r2,#2
        0x00018c18:    f3621105    b...    BFI      r1,r2,#4,#2
        0x00018c1c:    6001        .`      STR      r1,[r0,#0]
        0x00018c1e:    2000        .       MOVS     r0,#0
        0x00018c20:    bdb0        ..      POP      {r4,r5,r7,pc}
        0x00018c22:    bf00        ..      NOP      
        0x00018c24:    f2440084    D...    MOV      r0,#0x4084
        0x00018c28:    f2c40000    ....    MOVT     r0,#0x4000
        0x00018c2c:    6801        .h      LDR      r1,[r0,#0]
        0x00018c2e:    f0410130    A.0.    ORR      r1,r1,#0x30
        0x00018c32:    6001        .`      STR      r1,[r0,#0]
        0x00018c34:    2000        .       MOVS     r0,#0
        0x00018c36:    bdb0        ..      POP      {r4,r5,r7,pc}
        0x00018c38:    f2440084    D...    MOV      r0,#0x4084
        0x00018c3c:    f2c40000    ....    MOVT     r0,#0x4000
        0x00018c40:    6801        .h      LDR      r1,[r0,#0]
        0x00018c42:    f0410108    A...    ORR      r1,r1,#8
        0x00018c46:    6001        .`      STR      r1,[r0,#0]
        0x00018c48:    2000        .       MOVS     r0,#0
        0x00018c4a:    bdb0        ..      POP      {r4,r5,r7,pc}
        0x00018c4c:    f2440084    D...    MOV      r0,#0x4084
        0x00018c50:    f2c40000    ....    MOVT     r0,#0x4000
        0x00018c54:    6801        .h      LDR      r1,[r0,#0]
        0x00018c56:    f0210108    !...    BIC      r1,r1,#8
        0x00018c5a:    6001        .`      STR      r1,[r0,#0]
        0x00018c5c:    2000        .       MOVS     r0,#0
        0x00018c5e:    bdb0        ..      POP      {r4,r5,r7,pc}
        0x00018c60:    f2440084    D...    MOV      r0,#0x4084
        0x00018c64:    f2c40000    ....    MOVT     r0,#0x4000
        0x00018c68:    6801        .h      LDR      r1,[r0,#0]
        0x00018c6a:    f0210103    !...    BIC      r1,r1,#3
        0x00018c6e:    6001        .`      STR      r1,[r0,#0]
        0x00018c70:    2000        .       MOVS     r0,#0
        0x00018c72:    bdb0        ..      POP      {r4,r5,r7,pc}
        0x00018c74:    f2440084    D...    MOV      r0,#0x4084
        0x00018c78:    f2c40000    ....    MOVT     r0,#0x4000
        0x00018c7c:    6801        .h      LDR      r1,[r0,#0]
        0x00018c7e:    2201        ."      MOVS     r2,#1
        0x00018c80:    f3620101    b...    BFI      r1,r2,#0,#2
        0x00018c84:    6001        .`      STR      r1,[r0,#0]
        0x00018c86:    2000        .       MOVS     r0,#0
        0x00018c88:    bdb0        ..      POP      {r4,r5,r7,pc}
        0x00018c8a:    bf00        ..      NOP      
        0x00018c8c:    f2440084    D...    MOV      r0,#0x4084
        0x00018c90:    f2c40000    ....    MOVT     r0,#0x4000
        0x00018c94:    6801        .h      LDR      r1,[r0,#0]
        0x00018c96:    2202        ."      MOVS     r2,#2
        0x00018c98:    f3620101    b...    BFI      r1,r2,#0,#2
        0x00018c9c:    6001        .`      STR      r1,[r0,#0]
        0x00018c9e:    2000        .       MOVS     r0,#0
        0x00018ca0:    bdb0        ..      POP      {r4,r5,r7,pc}
        0x00018ca2:    bf00        ..      NOP      
        0x00018ca4:    f2440084    D...    MOV      r0,#0x4084
        0x00018ca8:    f2c40000    ....    MOVT     r0,#0x4000
        0x00018cac:    6801        .h      LDR      r1,[r0,#0]
        0x00018cae:    f0410103    A...    ORR      r1,r1,#3
        0x00018cb2:    6001        .`      STR      r1,[r0,#0]
        0x00018cb4:    2000        .       MOVS     r0,#0
        0x00018cb6:    bdb0        ..      POP      {r4,r5,r7,pc}
        0x00018cb8:    f8501c40    P.@.    LDR      r1,[r0,#-0x40]
        0x00018cbc:    f0210120    !. .    BIC      r1,r1,#0x20
        0x00018cc0:    f8401c40    @.@.    STR      r1,[r0,#-0x40]
        0x00018cc4:    2000        .       MOVS     r0,#0
        0x00018cc6:    bdb0        ..      POP      {r4,r5,r7,pc}
        0x00018cc8:    2001        .       MOVS     r0,#1
        0x00018cca:    bdb0        ..      POP      {r4,r5,r7,pc}
        0x00018ccc:    f64b0001    K...    MOV      r0,#0xb801
        0x00018cd0:    f2c000a5    ....    MOVT     r0,#0xa5
        0x00018cd4:    f2440184    D...    MOV      r1,#0x4084
        0x00018cd8:    f2c40100    ....    MOVT     r1,#0x4000
        0x00018cdc:    f8410c64    A.d.    STR      r0,[r1,#-0x64]
        0x00018ce0:    2000        .       MOVS     r0,#0
        0x00018ce2:    bdb0        ..      POP      {r4,r5,r7,pc}
        0x00018ce4:    f24d73ff    M..s    MOV      r3,#0xd7ff
        0x00018ce8:    f2c053b8    ...S    MOVT     r3,#0x5b8
        0x00018cec:    4298        .B      CMP      r0,r3
        0x00018cee:    d813        ..      BHI      0x18d18 ; am_hal_clkgen_control + 800
        0x00018cf0:    f44f0c80    O...    MOV      r12,#0x400000
        0x00018cf4:    2003        .       MOVS     r0,#3
        0x00018cf6:    f8553c34    U.4<    LDR      r3,[r5,#-0x34]
        0x00018cfa:    f0230303    #...    BIC      r3,r3,#3
        0x00018cfe:    4418        .D      ADD      r0,r0,r3
        0x00018d00:    f8450c34    E.4.    STR      r0,[r5,#-0x34]
        0x00018d04:    68a3        .h      LDR      r3,[r4,#8]
        0x00018d06:    0850        P.      LSRS     r0,r2,#1
        0x00018d08:    fbe3010c    ....    UMLAL    r0,r1,r3,r12
        0x00018d0c:    2300        .#      MOVS     r3,#0
        0x00018d0e:    f7fffb1b    ....    BL       __aeabi_uldivmod ; 0x18348
        0x00018d12:    ea417150    A.Pq    ORR      r1,r1,r0,LSR #29
        0x00018d16:    b109        ..      CBZ      r1,0x18d1c ; am_hal_clkgen_control + 804
        0x00018d18:    2005        .       MOVS     r0,#5
        0x00018d1a:    bdb0        ..      POP      {r4,r5,r7,pc}
        0x00018d1c:    2203        ."      MOVS     r2,#3
        0x00018d1e:    f8551c34    U.4.    LDR      r1,[r5,#-0x34]
        0x00018d22:    f2c80200    ....    MOVT     r2,#0x8000
        0x00018d26:    3a07        .:      SUBS     r2,#7
        0x00018d28:    ea020080    ....    AND      r0,r2,r0,LSL #2
        0x00018d2c:    f36f019e    o...    BFC      r1,#2,#29
        0x00018d30:    4408        .D      ADD      r0,r0,r1
        0x00018d32:    f8450c34    E.4.    STR      r0,[r5,#-0x34]
        0x00018d36:    7c60        `|      LDRB     r0,[r4,#0x11]
        0x00018d38:    2800        .(      CMP      r0,#0
        0x00018d3a:    bf1c        ..      ITT      NE
        0x00018d3c:    2000        .       MOVNE    r0,#0
        0x00018d3e:    bdb0        ..      POPNE    {r4,r5,r7,pc}
        0x00018d40:    f8550c3c    U.<.    LDR      r0,[r5,#-0x3c]
        0x00018d44:    f0400001    @...    ORR      r0,r0,#1
        0x00018d48:    f8450c3c    E.<.    STR      r0,[r5,#-0x3c]
        0x00018d4c:    2000        .       MOVS     r0,#0
        0x00018d4e:    bdb0        ..      POP      {r4,r5,r7,pc}
    am_hal_daxi_config
        0x00018d50:    b5b0        ..      PUSH     {r4,r5,r7,lr}
        0x00018d52:    b082        ..      SUB      sp,sp,#8
        0x00018d54:    b128        (.      CBZ      r0,0x18d62 ; am_hal_daxi_config + 18
        0x00018d56:    4605        .F      MOV      r5,r0
        0x00018d58:    7880        .x      LDRB     r0,[r0,#2]
        0x00018d5a:    b910        ..      CBNZ     r0,0x18d62 ; am_hal_daxi_config + 18
        0x00018d5c:    7868        hx      LDRB     r0,[r5,#1]
        0x00018d5e:    2801        .(      CMP      r0,#1
        0x00018d60:    d904        ..      BLS      0x18d6c ; am_hal_daxi_config + 28
        0x00018d62:    2406        .$      MOVS     r4,#6
        0x00018d64:    4620         F      MOV      r0,r4
        0x00018d66:    b002        ..      ADD      sp,sp,#8
        0x00018d68:    bdb0        ..      POP      {r4,r5,r7,pc}
        0x00018d6a:    bf00        ..      NOP      
        0x00018d6c:    f000fb66    ..f.    BL       am_hal_interrupt_master_disable ; 0x1943c
        0x00018d70:    9001        ..      STR      r0,[sp,#4]
        0x00018d72:    2002        .       MOVS     r0,#2
        0x00018d74:    2100        .!      MOVS     r1,#0
        0x00018d76:    2400        .$      MOVS     r4,#0
        0x00018d78:    f000f818    ....    BL       am_hal_daxi_control ; 0x18dac
        0x00018d7c:    78a9        .x      LDRB     r1,[r5,#2]
        0x00018d7e:    786a        jx      LDRB     r2,[r5,#1]
        0x00018d80:    7828        (x      LDRB     r0,[r5,#0]
        0x00018d82:    f0010101    ....    AND      r1,r1,#1
        0x00018d86:    f3622109    b..!    BFI      r1,r2,#8,#2
        0x00018d8a:    ea414000    A..@    ORR      r0,r1,r0,LSL #16
        0x00018d8e:    2150        P!      MOVS     r1,#0x50
        0x00018d90:    f6c40100    ....    MOVT     r1,#0x4800
        0x00018d94:    6008        .`      STR      r0,[r1,#0]
        0x00018d96:    2000        .       MOVS     r0,#0
        0x00018d98:    f2c470ff    ...p    MOVT     r0,#0x47ff
        0x00018d9c:    6800        .h      LDR      r0,[r0,#0]
        0x00018d9e:    9801        ..      LDR      r0,[sp,#4]
        0x00018da0:    f000fb50    ..P.    BL       am_hal_interrupt_master_set ; 0x19444
        0x00018da4:    4620         F      MOV      r0,r4
        0x00018da6:    b002        ..      ADD      sp,sp,#8
        0x00018da8:    bdb0        ..      POP      {r4,r5,r7,pc}
        0x00018daa:    0000        ..      MOVS     r0,r0
    am_hal_daxi_control
        0x00018dac:    b5b0        ..      PUSH     {r4,r5,r7,lr}
        0x00018dae:    b082        ..      SUB      sp,sp,#8
        0x00018db0:    2801        .(      CMP      r0,#1
        0x00018db2:    f0008107    ....    BEQ.W    0x18fc4 ; am_hal_daxi_control + 536
        0x00018db6:    2803        .(      CMP      r0,#3
        0x00018db8:    f0008114    ....    BEQ.W    0x18fe4 ; am_hal_daxi_control + 568
        0x00018dbc:    2802        .(      CMP      r0,#2
        0x00018dbe:    f0408125    @.%.    BNE.W    0x1900c ; am_hal_daxi_control + 608
        0x00018dc2:    2454        T$      MOVS     r4,#0x54
        0x00018dc4:    2500        .%      MOVS     r5,#0
        0x00018dc6:    f6c40400    ....    MOVT     r4,#0x4800
        0x00018dca:    f2c475ff    ...u    MOVT     r5,#0x47ff
        0x00018dce:    f000fb35    ..5.    BL       am_hal_interrupt_master_disable ; 0x1943c
        0x00018dd2:    9001        ..      STR      r0,[sp,#4]
        0x00018dd4:    f3bf8f4f    ..O.    DSB      
        0x00018dd8:    6820         h      LDR      r0,[r4,#0]
        0x00018dda:    f2402148    @.H!    MOVW     r1,#0x248
        0x00018dde:    f0400001    @...    ORR      r0,r0,#1
        0x00018de2:    6020         `      STR      r0,[r4,#0]
        0x00018de4:    6828        (h      LDR      r0,[r5,#0]
        0x00018de6:    6820         h      LDR      r0,[r4,#0]
        0x00018de8:    f2c10100    ....    MOVT     r1,#0x1000
        0x00018dec:    f0400002    @...    ORR      r0,r0,#2
        0x00018df0:    6020         `      STR      r0,[r4,#0]
        0x00018df2:    6828        (h      LDR      r0,[r5,#0]
        0x00018df4:    6888        .h      LDR      r0,[r1,#8]
        0x00018df6:    2800        .(      CMP      r0,#0
        0x00018df8:    f00080de    ....    BEQ.W    0x18fb8 ; am_hal_daxi_control + 524
        0x00018dfc:    e9d12300    ...#    LDRD     r2,r3,[r1,#0]
        0x00018e00:    6812        .h      LDR      r2,[r2,#0]
        0x00018e02:    401a        .@      ANDS     r2,r2,r3
        0x00018e04:    429a        .B      CMP      r2,r3
        0x00018e06:    f04080d7    @...    BNE.W    0x18fb8 ; am_hal_daxi_control + 524
        0x00018e0a:    f24022a0    @.."    MOVW     r2,#0x2a0
        0x00018e0e:    f2c10200    ....    MOVT     r2,#0x1000
        0x00018e12:    6812        .h      LDR      r2,[r2,#0]
        0x00018e14:    b1aa        ..      CBZ      r2,0x18e42 ; am_hal_daxi_control + 150
        0x00018e16:    2200        ."      MOVS     r2,#0
        0x00018e18:    6002        .`      STR      r2,[r0,#0]
        0x00018e1a:    6102        .a      STR      r2,[r0,#0x10]
        0x00018e1c:    6202        .b      STR      r2,[r0,#0x20]
        0x00018e1e:    6302        .c      STR      r2,[r0,#0x30]
        0x00018e20:    f3bf8f4f    ..O.    DSB      
        0x00018e24:    6820         h      LDR      r0,[r4,#0]
        0x00018e26:    f0400001    @...    ORR      r0,r0,#1
        0x00018e2a:    6020         `      STR      r0,[r4,#0]
        0x00018e2c:    6828        (h      LDR      r0,[r5,#0]
        0x00018e2e:    6820         h      LDR      r0,[r4,#0]
        0x00018e30:    f0400002    @...    ORR      r0,r0,#2
        0x00018e34:    6020         `      STR      r0,[r4,#0]
        0x00018e36:    6828        (h      LDR      r0,[r5,#0]
        0x00018e38:    6888        .h      LDR      r0,[r1,#8]
        0x00018e3a:    6801        .h      LDR      r1,[r0,#0]
        0x00018e3c:    6901        .i      LDR      r1,[r0,#0x10]
        0x00018e3e:    6a01        .j      LDR      r1,[r0,#0x20]
        0x00018e40:    6b01        .k      LDR      r1,[r0,#0x30]
        0x00018e42:    6801        .h      LDR      r1,[r0,#0]
        0x00018e44:    6801        .h      LDR      r1,[r0,#0]
        0x00018e46:    6801        .h      LDR      r1,[r0,#0]
        0x00018e48:    6801        .h      LDR      r1,[r0,#0]
        0x00018e4a:    6801        .h      LDR      r1,[r0,#0]
        0x00018e4c:    6801        .h      LDR      r1,[r0,#0]
        0x00018e4e:    6801        .h      LDR      r1,[r0,#0]
        0x00018e50:    6801        .h      LDR      r1,[r0,#0]
        0x00018e52:    6801        .h      LDR      r1,[r0,#0]
        0x00018e54:    6801        .h      LDR      r1,[r0,#0]
        0x00018e56:    6801        .h      LDR      r1,[r0,#0]
        0x00018e58:    6801        .h      LDR      r1,[r0,#0]
        0x00018e5a:    6801        .h      LDR      r1,[r0,#0]
        0x00018e5c:    6801        .h      LDR      r1,[r0,#0]
        0x00018e5e:    6801        .h      LDR      r1,[r0,#0]
        0x00018e60:    6801        .h      LDR      r1,[r0,#0]
        0x00018e62:    6801        .h      LDR      r1,[r0,#0]
        0x00018e64:    6801        .h      LDR      r1,[r0,#0]
        0x00018e66:    6801        .h      LDR      r1,[r0,#0]
        0x00018e68:    6801        .h      LDR      r1,[r0,#0]
        0x00018e6a:    6801        .h      LDR      r1,[r0,#0]
        0x00018e6c:    6801        .h      LDR      r1,[r0,#0]
        0x00018e6e:    6801        .h      LDR      r1,[r0,#0]
        0x00018e70:    6801        .h      LDR      r1,[r0,#0]
        0x00018e72:    6801        .h      LDR      r1,[r0,#0]
        0x00018e74:    6801        .h      LDR      r1,[r0,#0]
        0x00018e76:    6801        .h      LDR      r1,[r0,#0]
        0x00018e78:    6801        .h      LDR      r1,[r0,#0]
        0x00018e7a:    6801        .h      LDR      r1,[r0,#0]
        0x00018e7c:    6801        .h      LDR      r1,[r0,#0]
        0x00018e7e:    6801        .h      LDR      r1,[r0,#0]
        0x00018e80:    6801        .h      LDR      r1,[r0,#0]
        0x00018e82:    6801        .h      LDR      r1,[r0,#0]
        0x00018e84:    6801        .h      LDR      r1,[r0,#0]
        0x00018e86:    6801        .h      LDR      r1,[r0,#0]
        0x00018e88:    6801        .h      LDR      r1,[r0,#0]
        0x00018e8a:    6801        .h      LDR      r1,[r0,#0]
        0x00018e8c:    6801        .h      LDR      r1,[r0,#0]
        0x00018e8e:    6801        .h      LDR      r1,[r0,#0]
        0x00018e90:    6801        .h      LDR      r1,[r0,#0]
        0x00018e92:    6801        .h      LDR      r1,[r0,#0]
        0x00018e94:    6801        .h      LDR      r1,[r0,#0]
        0x00018e96:    6801        .h      LDR      r1,[r0,#0]
        0x00018e98:    6801        .h      LDR      r1,[r0,#0]
        0x00018e9a:    6801        .h      LDR      r1,[r0,#0]
        0x00018e9c:    6801        .h      LDR      r1,[r0,#0]
        0x00018e9e:    6801        .h      LDR      r1,[r0,#0]
        0x00018ea0:    6801        .h      LDR      r1,[r0,#0]
        0x00018ea2:    6801        .h      LDR      r1,[r0,#0]
        0x00018ea4:    6801        .h      LDR      r1,[r0,#0]
        0x00018ea6:    6801        .h      LDR      r1,[r0,#0]
        0x00018ea8:    6801        .h      LDR      r1,[r0,#0]
        0x00018eaa:    6801        .h      LDR      r1,[r0,#0]
        0x00018eac:    6801        .h      LDR      r1,[r0,#0]
        0x00018eae:    6801        .h      LDR      r1,[r0,#0]
        0x00018eb0:    6801        .h      LDR      r1,[r0,#0]
        0x00018eb2:    6801        .h      LDR      r1,[r0,#0]
        0x00018eb4:    6801        .h      LDR      r1,[r0,#0]
        0x00018eb6:    6801        .h      LDR      r1,[r0,#0]
        0x00018eb8:    6801        .h      LDR      r1,[r0,#0]
        0x00018eba:    6801        .h      LDR      r1,[r0,#0]
        0x00018ebc:    6801        .h      LDR      r1,[r0,#0]
        0x00018ebe:    6801        .h      LDR      r1,[r0,#0]
        0x00018ec0:    6801        .h      LDR      r1,[r0,#0]
        0x00018ec2:    6801        .h      LDR      r1,[r0,#0]
        0x00018ec4:    6801        .h      LDR      r1,[r0,#0]
        0x00018ec6:    6801        .h      LDR      r1,[r0,#0]
        0x00018ec8:    6801        .h      LDR      r1,[r0,#0]
        0x00018eca:    6801        .h      LDR      r1,[r0,#0]
        0x00018ecc:    6801        .h      LDR      r1,[r0,#0]
        0x00018ece:    6801        .h      LDR      r1,[r0,#0]
        0x00018ed0:    6801        .h      LDR      r1,[r0,#0]
        0x00018ed2:    6801        .h      LDR      r1,[r0,#0]
        0x00018ed4:    6801        .h      LDR      r1,[r0,#0]
        0x00018ed6:    6801        .h      LDR      r1,[r0,#0]
        0x00018ed8:    6801        .h      LDR      r1,[r0,#0]
        0x00018eda:    6801        .h      LDR      r1,[r0,#0]
        0x00018edc:    6801        .h      LDR      r1,[r0,#0]
        0x00018ede:    6801        .h      LDR      r1,[r0,#0]
        0x00018ee0:    6801        .h      LDR      r1,[r0,#0]
        0x00018ee2:    6801        .h      LDR      r1,[r0,#0]
        0x00018ee4:    6801        .h      LDR      r1,[r0,#0]
        0x00018ee6:    6801        .h      LDR      r1,[r0,#0]
        0x00018ee8:    6801        .h      LDR      r1,[r0,#0]
        0x00018eea:    6801        .h      LDR      r1,[r0,#0]
        0x00018eec:    6801        .h      LDR      r1,[r0,#0]
        0x00018eee:    6801        .h      LDR      r1,[r0,#0]
        0x00018ef0:    6801        .h      LDR      r1,[r0,#0]
        0x00018ef2:    6801        .h      LDR      r1,[r0,#0]
        0x00018ef4:    6801        .h      LDR      r1,[r0,#0]
        0x00018ef6:    6801        .h      LDR      r1,[r0,#0]
        0x00018ef8:    6801        .h      LDR      r1,[r0,#0]
        0x00018efa:    6801        .h      LDR      r1,[r0,#0]
        0x00018efc:    6801        .h      LDR      r1,[r0,#0]
        0x00018efe:    6801        .h      LDR      r1,[r0,#0]
        0x00018f00:    6801        .h      LDR      r1,[r0,#0]
        0x00018f02:    6801        .h      LDR      r1,[r0,#0]
        0x00018f04:    6801        .h      LDR      r1,[r0,#0]
        0x00018f06:    6801        .h      LDR      r1,[r0,#0]
        0x00018f08:    6801        .h      LDR      r1,[r0,#0]
        0x00018f0a:    6801        .h      LDR      r1,[r0,#0]
        0x00018f0c:    6801        .h      LDR      r1,[r0,#0]
        0x00018f0e:    6801        .h      LDR      r1,[r0,#0]
        0x00018f10:    6801        .h      LDR      r1,[r0,#0]
        0x00018f12:    6801        .h      LDR      r1,[r0,#0]
        0x00018f14:    6801        .h      LDR      r1,[r0,#0]
        0x00018f16:    6801        .h      LDR      r1,[r0,#0]
        0x00018f18:    6801        .h      LDR      r1,[r0,#0]
        0x00018f1a:    6801        .h      LDR      r1,[r0,#0]
        0x00018f1c:    6801        .h      LDR      r1,[r0,#0]
        0x00018f1e:    6801        .h      LDR      r1,[r0,#0]
        0x00018f20:    6801        .h      LDR      r1,[r0,#0]
        0x00018f22:    6801        .h      LDR      r1,[r0,#0]
        0x00018f24:    6801        .h      LDR      r1,[r0,#0]
        0x00018f26:    6801        .h      LDR      r1,[r0,#0]
        0x00018f28:    6801        .h      LDR      r1,[r0,#0]
        0x00018f2a:    6801        .h      LDR      r1,[r0,#0]
        0x00018f2c:    6801        .h      LDR      r1,[r0,#0]
        0x00018f2e:    6801        .h      LDR      r1,[r0,#0]
        0x00018f30:    6801        .h      LDR      r1,[r0,#0]
        0x00018f32:    6801        .h      LDR      r1,[r0,#0]
        0x00018f34:    6801        .h      LDR      r1,[r0,#0]
        0x00018f36:    6801        .h      LDR      r1,[r0,#0]
        0x00018f38:    6801        .h      LDR      r1,[r0,#0]
        0x00018f3a:    6801        .h      LDR      r1,[r0,#0]
        0x00018f3c:    6801        .h      LDR      r1,[r0,#0]
        0x00018f3e:    6801        .h      LDR      r1,[r0,#0]
        0x00018f40:    6801        .h      LDR      r1,[r0,#0]
        0x00018f42:    6801        .h      LDR      r1,[r0,#0]
        0x00018f44:    6801        .h      LDR      r1,[r0,#0]
        0x00018f46:    6801        .h      LDR      r1,[r0,#0]
        0x00018f48:    6801        .h      LDR      r1,[r0,#0]
        0x00018f4a:    6801        .h      LDR      r1,[r0,#0]
        0x00018f4c:    6801        .h      LDR      r1,[r0,#0]
        0x00018f4e:    6801        .h      LDR      r1,[r0,#0]
        0x00018f50:    6801        .h      LDR      r1,[r0,#0]
        0x00018f52:    6801        .h      LDR      r1,[r0,#0]
        0x00018f54:    6801        .h      LDR      r1,[r0,#0]
        0x00018f56:    6801        .h      LDR      r1,[r0,#0]
        0x00018f58:    6801        .h      LDR      r1,[r0,#0]
        0x00018f5a:    6801        .h      LDR      r1,[r0,#0]
        0x00018f5c:    6801        .h      LDR      r1,[r0,#0]
        0x00018f5e:    6801        .h      LDR      r1,[r0,#0]
        0x00018f60:    6801        .h      LDR      r1,[r0,#0]
        0x00018f62:    6801        .h      LDR      r1,[r0,#0]
        0x00018f64:    6801        .h      LDR      r1,[r0,#0]
        0x00018f66:    6801        .h      LDR      r1,[r0,#0]
        0x00018f68:    6801        .h      LDR      r1,[r0,#0]
        0x00018f6a:    6801        .h      LDR      r1,[r0,#0]
        0x00018f6c:    6801        .h      LDR      r1,[r0,#0]
        0x00018f6e:    6801        .h      LDR      r1,[r0,#0]
        0x00018f70:    6801        .h      LDR      r1,[r0,#0]
        0x00018f72:    6801        .h      LDR      r1,[r0,#0]
        0x00018f74:    6801        .h      LDR      r1,[r0,#0]
        0x00018f76:    6801        .h      LDR      r1,[r0,#0]
        0x00018f78:    6801        .h      LDR      r1,[r0,#0]
        0x00018f7a:    6801        .h      LDR      r1,[r0,#0]
        0x00018f7c:    6801        .h      LDR      r1,[r0,#0]
        0x00018f7e:    6801        .h      LDR      r1,[r0,#0]
        0x00018f80:    6801        .h      LDR      r1,[r0,#0]
        0x00018f82:    6801        .h      LDR      r1,[r0,#0]
        0x00018f84:    6801        .h      LDR      r1,[r0,#0]
        0x00018f86:    6801        .h      LDR      r1,[r0,#0]
        0x00018f88:    6801        .h      LDR      r1,[r0,#0]
        0x00018f8a:    6801        .h      LDR      r1,[r0,#0]
        0x00018f8c:    6801        .h      LDR      r1,[r0,#0]
        0x00018f8e:    6801        .h      LDR      r1,[r0,#0]
        0x00018f90:    6801        .h      LDR      r1,[r0,#0]
        0x00018f92:    6801        .h      LDR      r1,[r0,#0]
        0x00018f94:    6801        .h      LDR      r1,[r0,#0]
        0x00018f96:    6801        .h      LDR      r1,[r0,#0]
        0x00018f98:    6801        .h      LDR      r1,[r0,#0]
        0x00018f9a:    6801        .h      LDR      r1,[r0,#0]
        0x00018f9c:    6801        .h      LDR      r1,[r0,#0]
        0x00018f9e:    6801        .h      LDR      r1,[r0,#0]
        0x00018fa0:    6801        .h      LDR      r1,[r0,#0]
        0x00018fa2:    6801        .h      LDR      r1,[r0,#0]
        0x00018fa4:    6801        .h      LDR      r1,[r0,#0]
        0x00018fa6:    6801        .h      LDR      r1,[r0,#0]
        0x00018fa8:    6800        .h      LDR      r0,[r0,#0]
        0x00018faa:    f3bf8f4f    ..O.    DSB      
        0x00018fae:    6820         h      LDR      r0,[r4,#0]
        0x00018fb0:    f0400002    @...    ORR      r0,r0,#2
        0x00018fb4:    6020         `      STR      r0,[r4,#0]
        0x00018fb6:    6828        (h      LDR      r0,[r5,#0]
        0x00018fb8:    9801        ..      LDR      r0,[sp,#4]
        0x00018fba:    f000fa43    ..C.    BL       am_hal_interrupt_master_set ; 0x19444
        0x00018fbe:    2000        .       MOVS     r0,#0
        0x00018fc0:    b002        ..      ADD      sp,sp,#8
        0x00018fc2:    bdb0        ..      POP      {r4,r5,r7,pc}
        0x00018fc4:    2054        T       MOVS     r0,#0x54
        0x00018fc6:    f3bf8f4f    ..O.    DSB      
        0x00018fca:    f6c40000    ....    MOVT     r0,#0x4800
        0x00018fce:    6801        .h      LDR      r1,[r0,#0]
        0x00018fd0:    f0410102    A...    ORR      r1,r1,#2
        0x00018fd4:    6001        .`      STR      r1,[r0,#0]
        0x00018fd6:    2000        .       MOVS     r0,#0
        0x00018fd8:    f2c470ff    ...p    MOVT     r0,#0x47ff
        0x00018fdc:    6800        .h      LDR      r0,[r0,#0]
        0x00018fde:    2000        .       MOVS     r0,#0
        0x00018fe0:    b002        ..      ADD      sp,sp,#8
        0x00018fe2:    bdb0        ..      POP      {r4,r5,r7,pc}
        0x00018fe4:    2900        .)      CMP      r1,#0
        0x00018fe6:    f04f0006    O...    MOV      r0,#6
        0x00018fea:    d0f9        ..      BEQ      0x18fe0 ; am_hal_daxi_control + 564
        0x00018fec:    f011020f    ....    ANDS     r2,r1,#0xf
        0x00018ff0:    d1f6        ..      BNE      0x18fe0 ; am_hal_daxi_control + 564
        0x00018ff2:    2000        .       MOVS     r0,#0
        0x00018ff4:    f2c1000e    ....    MOVT     r0,#0x100e
        0x00018ff8:    f5a02200    ..."    SUB      r2,r0,#0x80000
        0x00018ffc:    4291        .B      CMP      r1,r2
        0x00018ffe:    f1010240    ..@.    ADD      r2,r1,#0x40
        0x00019002:    d307        ..      BCC      0x19014 ; am_hal_daxi_control + 616
        0x00019004:    4282        .B      CMP      r2,r0
        0x00019006:    d205        ..      BCS      0x19014 ; am_hal_daxi_control + 616
        0x00019008:    2000        .       MOVS     r0,#0
        0x0001900a:    e02c        ,.      B        0x19066 ; am_hal_daxi_control + 698
        0x0001900c:    2006        .       MOVS     r0,#6
        0x0001900e:    b002        ..      ADD      sp,sp,#8
        0x00019010:    bdb0        ..      POP      {r4,r5,r7,pc}
        0x00019012:    bf00        ..      NOP      
        0x00019014:    4281        .B      CMP      r1,r0
        0x00019016:    f5002300    ...#    ADD      r3,r0,#0x80000
        0x0001901a:    d303        ..      BCC      0x19024 ; am_hal_daxi_control + 632
        0x0001901c:    429a        .B      CMP      r2,r3
        0x0001901e:    d201        ..      BCS      0x19024 ; am_hal_daxi_control + 632
        0x00019020:    2001        .       MOVS     r0,#1
        0x00019022:    e020         .      B        0x19066 ; am_hal_daxi_control + 698
        0x00019024:    4299        .B      CMP      r1,r3
        0x00019026:    f5002320    .. #    ADD      r3,r0,#0xa0000
        0x0001902a:    d303        ..      BCC      0x19034 ; am_hal_daxi_control + 648
        0x0001902c:    429a        .B      CMP      r2,r3
        0x0001902e:    d201        ..      BCS      0x19034 ; am_hal_daxi_control + 648
        0x00019030:    2002        .       MOVS     r0,#2
        0x00019032:    e018        ..      B        0x19066 ; am_hal_daxi_control + 698
        0x00019034:    4299        .B      CMP      r1,r3
        0x00019036:    f5002360    ..`#    ADD      r3,r0,#0xe0000
        0x0001903a:    d303        ..      BCC      0x19044 ; am_hal_daxi_control + 664
        0x0001903c:    429a        .B      CMP      r2,r3
        0x0001903e:    d201        ..      BCS      0x19044 ; am_hal_daxi_control + 664
        0x00019040:    2003        .       MOVS     r0,#3
        0x00019042:    e010        ..      B        0x19066 ; am_hal_daxi_control + 698
        0x00019044:    f5002570    ..p%    ADD      r5,r0,#0xf0000
        0x00019048:    42a9        .B      CMP      r1,r5
        0x0001904a:    d305        ..      BCC      0x19058 ; am_hal_daxi_control + 684
        0x0001904c:    f5002078    ..x     ADD      r0,r0,#0xf8000
        0x00019050:    4282        .B      CMP      r2,r0
        0x00019052:    d201        ..      BCS      0x19058 ; am_hal_daxi_control + 684
        0x00019054:    2004        .       MOVS     r0,#4
        0x00019056:    e006        ..      B        0x19066 ; am_hal_daxi_control + 698
        0x00019058:    4299        .B      CMP      r1,r3
        0x0001905a:    f04f0006    O...    MOV      r0,#6
        0x0001905e:    d3bf        ..      BCC      0x18fe0 ; am_hal_daxi_control + 564
        0x00019060:    42aa        .B      CMP      r2,r5
        0x00019062:    d2bd        ..      BCS      0x18fe0 ; am_hal_daxi_control + 564
        0x00019064:    2005        .       MOVS     r0,#5
        0x00019066:    f64d4274    M.tB    MOV      r2,#0xdc74
        0x0001906a:    f2c00201    ....    MOVT     r2,#1
        0x0001906e:    eb021000    ....    ADD      r0,r2,r0,LSL #4
        0x00019072:    f2402248    @.H"    MOVW     r2,#0x248
        0x00019076:    e9d03002    ...0    LDRD     r3,r0,[r0,#8]
        0x0001907a:    f2c10200    ....    MOVT     r2,#0x1000
        0x0001907e:    e9c23000    ...0    STRD     r3,r0,[r2,#0]
        0x00019082:    6091        .`      STR      r1,[r2,#8]
        0x00019084:    2000        .       MOVS     r0,#0
        0x00019086:    b002        ..      ADD      sp,sp,#8
        0x00019088:    bdb0        ..      POP      {r4,r5,r7,pc}
        0x0001908a:    0000        ..      MOVS     r0,r0
    am_hal_dcu_get
        0x0001908c:    b510        ..      PUSH     {r4,lr}
        0x0001908e:    f2410108    A...    MOV      r1,#0x1008
        0x00019092:    f2c40102    ....    MOVT     r1,#0x4002
        0x00019096:    6809        .h      LDR      r1,[r1,#0]
        0x00019098:    02c9        ..      LSLS     r1,r1,#11
        0x0001909a:    d507        ..      BPL      0x190ac ; am_hal_dcu_get + 32
        0x0001909c:    4604        .F      MOV      r4,r0
        0x0001909e:    f640207c    @.|     MOV      r0,#0xa7c
        0x000190a2:    f2c4000c    ....    MOVT     r0,#0x400c
        0x000190a6:    6800        .h      LDR      r0,[r0,#0]
        0x000190a8:    07c0        ..      LSLS     r0,r0,#31
        0x000190aa:    d101        ..      BNE      0x190b0 ; am_hal_dcu_get + 36
        0x000190ac:    2007        .       MOVS     r0,#7
        0x000190ae:    bd10        ..      POP      {r4,pc}
        0x000190b0:    f2400000    @...    MOVW     r0,#0
        0x000190b4:    f2c10000    ....    MOVT     r0,#0x1000
        0x000190b8:    6801        .h      LDR      r1,[r0,#0]
        0x000190ba:    2205        ."      MOVS     r2,#5
        0x000190bc:    6808        .h      LDR      r0,[r1,#0]
        0x000190be:    6849        Ih      LDR      r1,[r1,#4]
        0x000190c0:    f003fc90    ....    BL       get_ui32_dcu_mask ; 0x1c9e4
        0x000190c4:    6020         `      STR      r0,[r4,#0]
        0x000190c6:    2000        .       MOVS     r0,#0
        0x000190c8:    bd10        ..      POP      {r4,pc}
        0x000190ca:    0000        ..      MOVS     r0,r0
    am_hal_dcu_lock_status_get
        0x000190cc:    b510        ..      PUSH     {r4,lr}
        0x000190ce:    f2410108    A...    MOV      r1,#0x1008
        0x000190d2:    f2c40102    ....    MOVT     r1,#0x4002
        0x000190d6:    6809        .h      LDR      r1,[r1,#0]
        0x000190d8:    02c9        ..      LSLS     r1,r1,#11
        0x000190da:    d507        ..      BPL      0x190ec ; am_hal_dcu_lock_status_get + 32
        0x000190dc:    4604        .F      MOV      r4,r0
        0x000190de:    f640207c    @.|     MOV      r0,#0xa7c
        0x000190e2:    f2c4000c    ....    MOVT     r0,#0x400c
        0x000190e6:    6800        .h      LDR      r0,[r0,#0]
        0x000190e8:    07c0        ..      LSLS     r0,r0,#31
        0x000190ea:    d101        ..      BNE      0x190f0 ; am_hal_dcu_lock_status_get + 36
        0x000190ec:    2007        .       MOVS     r0,#7
        0x000190ee:    bd10        ..      POP      {r4,pc}
        0x000190f0:    f2400000    @...    MOVW     r0,#0
        0x000190f4:    f2c10000    ....    MOVT     r0,#0x1000
        0x000190f8:    6841        Ah      LDR      r1,[r0,#4]
        0x000190fa:    2207        ."      MOVS     r2,#7
        0x000190fc:    6808        .h      LDR      r0,[r1,#0]
        0x000190fe:    6849        Ih      LDR      r1,[r1,#4]
        0x00019100:    f003fc70    ..p.    BL       get_ui32_dcu_mask ; 0x1c9e4
        0x00019104:    6020         `      STR      r0,[r4,#0]
        0x00019106:    2000        .       MOVS     r0,#0
        0x00019108:    bd10        ..      POP      {r4,pc}
        0x0001910a:    0000        ..      MOVS     r0,r0
    am_hal_dcu_update
        0x0001910c:    b5f0        ..      PUSH     {r4-r7,lr}
        0x0001910e:    b081        ..      SUB      sp,sp,#4
        0x00019110:    f2410208    A...    MOV      r2,#0x1008
        0x00019114:    f2c40202    ....    MOVT     r2,#0x4002
        0x00019118:    6812        .h      LDR      r2,[r2,#0]
        0x0001911a:    02d2        ..      LSLS     r2,r2,#11
        0x0001911c:    d516        ..      BPL      0x1914c ; am_hal_dcu_update + 64
        0x0001911e:    f640257c    @.|%    MOV      r5,#0xa7c
        0x00019122:    f2c4050c    ....    MOVT     r5,#0x400c
        0x00019126:    4604        .F      MOV      r4,r0
        0x00019128:    6828        (h      LDR      r0,[r5,#0]
        0x0001912a:    07c0        ..      LSLS     r0,r0,#31
        0x0001912c:    d00e        ..      BEQ      0x1914c ; am_hal_dcu_update + 64
        0x0001912e:    4608        .F      MOV      r0,r1
        0x00019130:    f003fa46    ..F.    BL       get_raw_dcu_mask ; 0x1c5c0
        0x00019134:    f2400c00    @...    MOVW     r12,#0
        0x00019138:    f2c10c00    ....    MOVT     r12,#0x1000
        0x0001913c:    f8dc3004    ...0    LDR      r3,[r12,#4]
        0x00019140:    681a        .h      LDR      r2,[r3,#0]
        0x00019142:    685b        [h      LDR      r3,[r3,#4]
        0x00019144:    4002        .@      ANDS     r2,r2,r0
        0x00019146:    400b        .@      ANDS     r3,r3,r1
        0x00019148:    431a        .C      ORRS     r2,r2,r3
        0x0001914a:    d003        ..      BEQ      0x19154 ; am_hal_dcu_update + 72
        0x0001914c:    2007        .       MOVS     r0,#7
        0x0001914e:    b001        ..      ADD      sp,sp,#4
        0x00019150:    bdf0        ..      POP      {r4-r7,pc}
        0x00019152:    bf00        ..      NOP      
        0x00019154:    f8dc2000    ...     LDR      r2,[r12,#0]
        0x00019158:    2610        .&      MOVS     r6,#0x10
        0x0001915a:    6813        .h      LDR      r3,[r2,#0]
        0x0001915c:    f8d2e004    ....    LDR      lr,[r2,#4]
        0x00019160:    2c00        .,      CMP      r4,#0
        0x00019162:    bf18        ..      IT       NE
        0x00019164:    2608        .&      MOVNE    r6,#8
        0x00019166:    eb0c0406    ....    ADD      r4,r12,r6
        0x0001916a:    f85c6006    \..`    LDR      r6,[r12,r6]
        0x0001916e:    6864        dh      LDR      r4,[r4,#4]
        0x00019170:    ea230700    #...    BIC      r7,r3,r0
        0x00019174:    ea2e0301    ....    BIC      r3,lr,r1
        0x00019178:    4030        0@      ANDS     r0,r0,r6
        0x0001917a:    4021        !@      ANDS     r1,r1,r4
        0x0001917c:    4419        .D      ADD      r1,r1,r3
        0x0001917e:    4438        8D      ADD      r0,r0,r7
        0x00019180:    6010        .`      STR      r0,[r2,#0]
        0x00019182:    6051        Q`      STR      r1,[r2,#4]
        0x00019184:    6828        (h      LDR      r0,[r5,#0]
        0x00019186:    07c0        ..      LSLS     r0,r0,#31
        0x00019188:    d10e        ..      BNE      0x191a8 ; am_hal_dcu_update + 156
        0x0001918a:    6828        (h      LDR      r0,[r5,#0]
        0x0001918c:    07c0        ..      LSLS     r0,r0,#31
        0x0001918e:    bf04        ..      ITT      EQ
        0x00019190:    6828        (h      LDREQ    r0,[r5,#0]
        0x00019192:    ea5f70c0    _..p    LSLSEQ   r0,r0,#31
        0x00019196:    d107        ..      BNE      0x191a8 ; am_hal_dcu_update + 156
        0x00019198:    6828        (h      LDR      r0,[r5,#0]
        0x0001919a:    07c0        ..      LSLS     r0,r0,#31
        0x0001919c:    f04f0000    O...    MOV      r0,#0
        0x000191a0:    d0f0        ..      BEQ      0x19184 ; am_hal_dcu_update + 120
        0x000191a2:    b001        ..      ADD      sp,sp,#4
        0x000191a4:    bdf0        ..      POP      {r4-r7,pc}
        0x000191a6:    bf00        ..      NOP      
        0x000191a8:    2000        .       MOVS     r0,#0
        0x000191aa:    b001        ..      ADD      sp,sp,#4
        0x000191ac:    bdf0        ..      POP      {r4-r7,pc}
        0x000191ae:    0000        ..      MOVS     r0,r0
    am_hal_delay_us
        0x000191b0:    f2410100    A...    MOVW     r1,#0x1000
        0x000191b4:    f2c40102    ....    MOVT     r1,#0x4002
        0x000191b8:    6809        .h      LDR      r1,[r1,#0]
        0x000191ba:    2205        ."      MOVS     r2,#5
        0x000191bc:    f0010118    ....    AND      r1,r1,#0x18
        0x000191c0:    2910        .)      CMP      r1,#0x10
        0x000191c2:    bf08        ..      IT       EQ
        0x000191c4:    2206        ."      MOVEQ    r2,#6
        0x000191c6:    fa00f002    ....    LSL      r0,r0,r2
        0x000191ca:    f04f010f    O...    MOV      r1,#0xf
        0x000191ce:    bf08        ..      IT       EQ
        0x000191d0:    2115        .!      MOVEQ    r1,#0x15
        0x000191d2:    4281        .B      CMP      r1,r0
        0x000191d4:    bf28        (.      IT       CS
        0x000191d6:    4770        pG      BXCS     lr
        0x000191d8:    1a40        @.      SUBS     r0,r0,r1
        0x000191da:    f64d5118    M..Q    MOV      r1,#0xdd18
        0x000191de:    f2c00101    ....    MOVT     r1,#1
        0x000191e2:    6a49        Ij      LDR      r1,[r1,#0x24]
        0x000191e4:    4708        .G      BX       r1
        0x000191e6:    0000        ..      MOVS     r0,r0
    am_hal_delay_us_status_change
        0x000191e8:    e92d43f0    -..C    PUSH     {r4-r9,lr}
        0x000191ec:    b081        ..      SUB      sp,sp,#4
        0x000191ee:    460d        .F      MOV      r5,r1
        0x000191f0:    6809        .h      LDR      r1,[r1,#0]
        0x000191f2:    4011        .@      ANDS     r1,r1,r2
        0x000191f4:    4299        .B      CMP      r1,r3
        0x000191f6:    d01b        ..      BEQ      0x19230 ; am_hal_delay_us_status_change + 72
        0x000191f8:    f64d5118    M..Q    MOV      r1,#0xdd18
        0x000191fc:    f2c00101    ....    MOVT     r1,#1
        0x00019200:    6a4f        Oj      LDR      r7,[r1,#0x24]
        0x00019202:    f2410900    A...    MOVW     r9,#0x1000
        0x00019206:    4698        .F      MOV      r8,r3
        0x00019208:    4616        .F      MOV      r6,r2
        0x0001920a:    1c44        D.      ADDS     r4,r0,#1
        0x0001920c:    f2c40902    ....    MOVT     r9,#0x4002
        0x00019210:    3c01        .<      SUBS     r4,#1
        0x00019212:    d011        ..      BEQ      0x19238 ; am_hal_delay_us_status_change + 80
        0x00019214:    f8d90000    ....    LDR      r0,[r9,#0]
        0x00019218:    f0000018    ....    AND      r0,r0,#0x18
        0x0001921c:    2810        .(      CMP      r0,#0x10
        0x0001921e:    f04f0011    O...    MOV      r0,#0x11
        0x00019222:    bf08        ..      IT       EQ
        0x00019224:    202b        +       MOVEQ    r0,#0x2b
        0x00019226:    47b8        .G      BLX      r7
        0x00019228:    6828        (h      LDR      r0,[r5,#0]
        0x0001922a:    4030        0@      ANDS     r0,r0,r6
        0x0001922c:    4540        @E      CMP      r0,r8
        0x0001922e:    d1ef        ..      BNE      0x19210 ; am_hal_delay_us_status_change + 40
        0x00019230:    2000        .       MOVS     r0,#0
        0x00019232:    b001        ..      ADD      sp,sp,#4
        0x00019234:    e8bd83f0    ....    POP      {r4-r9,pc}
        0x00019238:    2004        .       MOVS     r0,#4
        0x0001923a:    b001        ..      ADD      sp,sp,#4
        0x0001923c:    e8bd83f0    ....    POP      {r4-r9,pc}
    am_hal_delay_us_status_check
        0x00019240:    e92d43f0    -..C    PUSH     {r4-r9,lr}
        0x00019244:    b081        ..      SUB      sp,sp,#4
        0x00019246:    4615        .F      MOV      r5,r2
        0x00019248:    f64d5218    M..R    MOV      r2,#0xdd18
        0x0001924c:    460e        .F      MOV      r6,r1
        0x0001924e:    f2c00201    ....    MOVT     r2,#1
        0x00019252:    9908        ..      LDR      r1,[sp,#0x20]
        0x00019254:    f8d29024    ..$.    LDR      r9,[r2,#0x24]
        0x00019258:    6832        2h      LDR      r2,[r6,#0]
        0x0001925a:    461c        .F      MOV      r4,r3
        0x0001925c:    2900        .)      CMP      r1,#0
        0x0001925e:    ea020105    ....    AND      r1,r2,r5
        0x00019262:    d019        ..      BEQ      0x19298 ; am_hal_delay_us_status_check + 88
        0x00019264:    42a1        .B      CMP      r1,r4
        0x00019266:    d02f        /.      BEQ      0x192c8 ; am_hal_delay_us_status_check + 136
        0x00019268:    f2410800    A...    MOVW     r8,#0x1000
        0x0001926c:    f2c40802    ....    MOVT     r8,#0x4002
        0x00019270:    1c47        G.      ADDS     r7,r0,#1
        0x00019272:    bf00        ..      NOP      
        0x00019274:    3f01        .?      SUBS     r7,#1
        0x00019276:    d02b        +.      BEQ      0x192d0 ; am_hal_delay_us_status_check + 144
        0x00019278:    f8d80000    ....    LDR      r0,[r8,#0]
        0x0001927c:    f0000018    ....    AND      r0,r0,#0x18
        0x00019280:    2810        .(      CMP      r0,#0x10
        0x00019282:    f04f0011    O...    MOV      r0,#0x11
        0x00019286:    bf08        ..      IT       EQ
        0x00019288:    202b        +       MOVEQ    r0,#0x2b
        0x0001928a:    47c8        .G      BLX      r9
        0x0001928c:    6830        0h      LDR      r0,[r6,#0]
        0x0001928e:    4028        (@      ANDS     r0,r0,r5
        0x00019290:    42a0        .B      CMP      r0,r4
        0x00019292:    d1ef        ..      BNE      0x19274 ; am_hal_delay_us_status_check + 52
        0x00019294:    e018        ..      B        0x192c8 ; am_hal_delay_us_status_check + 136
        0x00019296:    bf00        ..      NOP      
        0x00019298:    42a1        .B      CMP      r1,r4
        0x0001929a:    d115        ..      BNE      0x192c8 ; am_hal_delay_us_status_check + 136
        0x0001929c:    f2410800    A...    MOVW     r8,#0x1000
        0x000192a0:    f2c40802    ....    MOVT     r8,#0x4002
        0x000192a4:    1c47        G.      ADDS     r7,r0,#1
        0x000192a6:    bf00        ..      NOP      
        0x000192a8:    3f01        .?      SUBS     r7,#1
        0x000192aa:    d011        ..      BEQ      0x192d0 ; am_hal_delay_us_status_check + 144
        0x000192ac:    f8d80000    ....    LDR      r0,[r8,#0]
        0x000192b0:    f0000018    ....    AND      r0,r0,#0x18
        0x000192b4:    2810        .(      CMP      r0,#0x10
        0x000192b6:    f04f0011    O...    MOV      r0,#0x11
        0x000192ba:    bf08        ..      IT       EQ
        0x000192bc:    202b        +       MOVEQ    r0,#0x2b
        0x000192be:    47c8        .G      BLX      r9
        0x000192c0:    6830        0h      LDR      r0,[r6,#0]
        0x000192c2:    4028        (@      ANDS     r0,r0,r5
        0x000192c4:    42a0        .B      CMP      r0,r4
        0x000192c6:    d0ef        ..      BEQ      0x192a8 ; am_hal_delay_us_status_check + 104
        0x000192c8:    2000        .       MOVS     r0,#0
        0x000192ca:    b001        ..      ADD      sp,sp,#4
        0x000192cc:    e8bd83f0    ....    POP      {r4-r9,pc}
        0x000192d0:    2004        .       MOVS     r0,#4
        0x000192d2:    b001        ..      ADD      sp,sp,#4
        0x000192d4:    e8bd83f0    ....    POP      {r4-r9,pc}
    am_hal_gpio_pinconfig
        0x000192d8:    b081        ..      SUB      sp,sp,#4
        0x000192da:    287f        .(      CMP      r0,#0x7f
        0x000192dc:    9100        ..      STR      r1,[sp,#0]
        0x000192de:    bf82        ..      ITTT     HI
        0x000192e0:    2005        .       MOVHI    r0,#5
        0x000192e2:    b001        ..      ADDHI    sp,sp,#4
        0x000192e4:    4770        pG      BXHI     lr
        0x000192e6:    0509        ..      LSLS     r1,r1,#20
        0x000192e8:    d50b        ..      BPL      0x19302 ; am_hal_gpio_pinconfig + 42
        0x000192ea:    f24e22b4    N.."    MOV      r2,#0xe2b4
        0x000192ee:    0941        A.      LSRS     r1,r0,#5
        0x000192f0:    f2c00201    ....    MOVT     r2,#1
        0x000192f4:    f8521021    R.!.    LDR      r1,[r2,r1,LSL #2]
        0x000192f8:    f000021f    ....    AND      r2,r0,#0x1f
        0x000192fc:    40d1        .@      LSRS     r1,r1,r2
        0x000192fe:    07c9        ..      LSLS     r1,r1,#31
        0x00019300:    d012        ..      BEQ      0x19328 ; am_hal_gpio_pinconfig + 80
        0x00019302:    f2402100    @..!    MOVW     r1,#0x200
        0x00019306:    f2c40101    ....    MOVT     r1,#0x4001
        0x0001930a:    2273        s"      MOVS     r2,#0x73
        0x0001930c:    600a        .`      STR      r2,[r1,#0]
        0x0001930e:    9a00        ..      LDR      r2,[sp,#0]
        0x00019310:    f64f6300    O..c    MOVW     r3,#0xfe00
        0x00019314:    eb010080    ....    ADD      r0,r1,r0,LSL #2
        0x00019318:    f6cf73ff    ...s    MOVT     r3,#0xffff
        0x0001931c:    50c2        .P      STR      r2,[r0,r3]
        0x0001931e:    2000        .       MOVS     r0,#0
        0x00019320:    6008        .`      STR      r0,[r1,#0]
        0x00019322:    b001        ..      ADD      sp,sp,#4
        0x00019324:    4770        pG      BX       lr
        0x00019326:    bf00        ..      NOP      
        0x00019328:    2007        .       MOVS     r0,#7
        0x0001932a:    b001        ..      ADD      sp,sp,#4
        0x0001932c:    4770        pG      BX       lr
        0x0001932e:    0000        ..      MOVS     r0,r0
    am_hal_gpio_state_write
        0x00019330:    b510        ..      PUSH     {r4,lr}
        0x00019332:    b082        ..      SUB      sp,sp,#8
        0x00019334:    2905        .)      CMP      r1,#5
        0x00019336:    d813        ..      BHI      0x19360 ; am_hal_gpio_state_write + 48
        0x00019338:    4604        .F      MOV      r4,r0
        0x0001933a:    e8dff001    ....    TBB      [pc,r1]
    $d.5
        0x0001933e:    1503        ..      DCW    5379
        0x00019340:    65534127    'ASe    DCD    1699954983
    $t.6
        0x00019344:    f004001f    ....    AND      r0,r4,#0x1f
        0x00019348:    2101        .!      MOVS     r1,#1
        0x0001934a:    f2402214    @.."    MOVW     r2,#0x214
        0x0001934e:    fa01f000    ....    LSL      r0,r1,r0
        0x00019352:    f3c41141    ..A.    UBFX     r1,r4,#5,#2
        0x00019356:    f2c40201    ....    MOVT     r2,#0x4001
        0x0001935a:    eb020181    ....    ADD      r1,r2,r1,LSL #2
        0x0001935e:    6208        .b      STR      r0,[r1,#0x20]
        0x00019360:    2000        .       MOVS     r0,#0
        0x00019362:    b002        ..      ADD      sp,sp,#8
        0x00019364:    bd10        ..      POP      {r4,pc}
        0x00019366:    bf00        ..      NOP      
        0x00019368:    f004001f    ....    AND      r0,r4,#0x1f
        0x0001936c:    2101        .!      MOVS     r1,#1
        0x0001936e:    f2402214    @.."    MOVW     r2,#0x214
        0x00019372:    fa01f000    ....    LSL      r0,r1,r0
        0x00019376:    f3c41141    ..A.    UBFX     r1,r4,#5,#2
        0x0001937a:    f2c40201    ....    MOVT     r2,#0x4001
        0x0001937e:    eb020181    ....    ADD      r1,r2,r1,LSL #2
        0x00019382:    6108        .a      STR      r0,[r1,#0x10]
        0x00019384:    2000        .       MOVS     r0,#0
        0x00019386:    b002        ..      ADD      sp,sp,#8
        0x00019388:    bd10        ..      POP      {r4,pc}
        0x0001938a:    bf00        ..      NOP      
        0x0001938c:    f000f856    ..V.    BL       am_hal_interrupt_master_disable ; 0x1943c
        0x00019390:    f2402314    @..#    MOVW     r3,#0x214
        0x00019394:    9001        ..      STR      r0,[sp,#4]
        0x00019396:    f3c41241    ..A.    UBFX     r2,r4,#5,#2
        0x0001939a:    f2c40301    ....    MOVT     r3,#0x4001
        0x0001939e:    f004001f    ....    AND      r0,r4,#0x1f
        0x000193a2:    2101        .!      MOVS     r1,#1
        0x000193a4:    f8534022    S."@    LDR      r4,[r3,r2,LSL #2]
        0x000193a8:    fa01f000    ....    LSL      r0,r1,r0
        0x000193ac:    4060        `@      EORS     r0,r0,r4
        0x000193ae:    f8430022    C.".    STR      r0,[r3,r2,LSL #2]
        0x000193b2:    9801        ..      LDR      r0,[sp,#4]
        0x000193b4:    f000f846    ..F.    BL       am_hal_interrupt_master_set ; 0x19444
        0x000193b8:    2000        .       MOVS     r0,#0
        0x000193ba:    b002        ..      ADD      sp,sp,#8
        0x000193bc:    bd10        ..      POP      {r4,pc}
        0x000193be:    bf00        ..      NOP      
        0x000193c0:    f004001f    ....    AND      r0,r4,#0x1f
        0x000193c4:    2101        .!      MOVS     r1,#1
        0x000193c6:    f2402214    @.."    MOVW     r2,#0x214
        0x000193ca:    fa01f000    ....    LSL      r0,r1,r0
        0x000193ce:    f3c41141    ..A.    UBFX     r1,r4,#5,#2
        0x000193d2:    f2c40201    ....    MOVT     r2,#0x4001
        0x000193d6:    eb020181    ....    ADD      r1,r2,r1,LSL #2
        0x000193da:    6508        .e      STR      r0,[r1,#0x50]
        0x000193dc:    2000        .       MOVS     r0,#0
        0x000193de:    b002        ..      ADD      sp,sp,#8
        0x000193e0:    bd10        ..      POP      {r4,pc}
        0x000193e2:    bf00        ..      NOP      
        0x000193e4:    f004001f    ....    AND      r0,r4,#0x1f
        0x000193e8:    2101        .!      MOVS     r1,#1
        0x000193ea:    f2402214    @.."    MOVW     r2,#0x214
        0x000193ee:    fa01f000    ....    LSL      r0,r1,r0
        0x000193f2:    f3c41141    ..A.    UBFX     r1,r4,#5,#2
        0x000193f6:    f2c40201    ....    MOVT     r2,#0x4001
        0x000193fa:    eb020181    ....    ADD      r1,r2,r1,LSL #2
        0x000193fe:    6408        .d      STR      r0,[r1,#0x40]
        0x00019400:    2000        .       MOVS     r0,#0
        0x00019402:    b002        ..      ADD      sp,sp,#8
        0x00019404:    bd10        ..      POP      {r4,pc}
        0x00019406:    bf00        ..      NOP      
        0x00019408:    f000f818    ....    BL       am_hal_interrupt_master_disable ; 0x1943c
        0x0001940c:    f2402314    @..#    MOVW     r3,#0x214
        0x00019410:    f3c41241    ..A.    UBFX     r2,r4,#5,#2
        0x00019414:    f2c40301    ....    MOVT     r3,#0x4001
        0x00019418:    9000        ..      STR      r0,[sp,#0]
        0x0001941a:    eb030282    ....    ADD      r2,r3,r2,LSL #2
        0x0001941e:    f004001f    ....    AND      r0,r4,#0x1f
        0x00019422:    2101        .!      MOVS     r1,#1
        0x00019424:    6b13        .k      LDR      r3,[r2,#0x30]
        0x00019426:    fa01f000    ....    LSL      r0,r1,r0
        0x0001942a:    4058        X@      EORS     r0,r0,r3
        0x0001942c:    6310        .c      STR      r0,[r2,#0x30]
        0x0001942e:    9800        ..      LDR      r0,[sp,#0]
        0x00019430:    f000f808    ....    BL       am_hal_interrupt_master_set ; 0x19444
        0x00019434:    2000        .       MOVS     r0,#0
        0x00019436:    b002        ..      ADD      sp,sp,#8
        0x00019438:    bd10        ..      POP      {r4,pc}
        0x0001943a:    0000        ..      MOVS     r0,r0
    am_hal_interrupt_master_disable
        0x0001943c:    f3ef8010    ....    MRS      r0,PRIMASK
        0x00019440:    b672        r.      CPSID    i
        0x00019442:    4770        pG      BX       lr
    am_hal_interrupt_master_set
        0x00019444:    f3808810    ....    MSR      PRIMASK,r0
        0x00019448:    4770        pG      BX       lr
        0x0001944a:    0000        ..      MOVS     r0,r0
    am_hal_itm_disable
        0x0001944c:    e92d41f0    -..A    PUSH     {r4-r8,lr}
        0x00019450:    f2402450    @.P$    MOVW     r4,#0x250
        0x00019454:    f2c40402    ....    MOVT     r4,#0x4002
        0x00019458:    6820         h      LDR      r0,[r4,#0]
        0x0001945a:    f64e55fc    N..U    MOV      r5,#0xedfc
        0x0001945e:    f6406680    @..f    MOVW     r6,#0xe80
        0x00019462:    f64c6855    L.Uh    MOV      r8,#0xce55
        0x00019466:    f2ce0500    ....    MOVT     r5,#0xe000
        0x0001946a:    f2ce0600    ....    MOVT     r6,#0xe000
        0x0001946e:    f2cc58ac    ...X    MOVT     r8,#0xc5ac
        0x00019472:    b9f8        ..      CBNZ     r0,0x194b4 ; am_hal_itm_disable + 104
        0x00019474:    6828        (h      LDR      r0,[r5,#0]
        0x00019476:    f0407080    @..p    ORR      r0,r0,#0x1000000
        0x0001947a:    6028        (`      STR      r0,[r5,#0]
        0x0001947c:    6828        (h      LDR      r0,[r5,#0]
        0x0001947e:    01c0        ..      LSLS     r0,r0,#7
        0x00019480:    d409        ..      BMI      0x19496 ; am_hal_itm_disable + 74
        0x00019482:    6828        (h      LDR      r0,[r5,#0]
        0x00019484:    01c0        ..      LSLS     r0,r0,#7
        0x00019486:    bf5c        \.      ITT      PL
        0x00019488:    6828        (h      LDRPL    r0,[r5,#0]
        0x0001948a:    ea5f10c0    _...    LSLSPL   r0,r0,#7
        0x0001948e:    d402        ..      BMI      0x19496 ; am_hal_itm_disable + 74
        0x00019490:    6828        (h      LDR      r0,[r5,#0]
        0x00019492:    01c0        ..      LSLS     r0,r0,#7
        0x00019494:    d5f2        ..      BPL      0x1947c ; am_hal_itm_disable + 48
        0x00019496:    200f        .       MOVS     r0,#0xf
        0x00019498:    f8c68130    ..0.    STR      r8,[r6,#0x130]
        0x0001949c:    f8460c40    F.@.    STR      r0,[r6,#-0x40]
        0x000194a0:    f04f30ff    O..0    MOV      r0,#0xffffffff
        0x000194a4:    f8460c80    F...    STR      r0,[r6,#-0x80]
        0x000194a8:    f2405011    @..P    MOV      r0,#0x511
        0x000194ac:    f2c00015    ....    MOVT     r0,#0x15
        0x000194b0:    6030        0`      STR      r0,[r6,#0]
        0x000194b2:    bf00        ..      NOP      
        0x000194b4:    6830        0h      LDR      r0,[r6,#0]
        0x000194b6:    0200        ..      LSLS     r0,r0,#8
        0x000194b8:    d509        ..      BPL      0x194ce ; am_hal_itm_disable + 130
        0x000194ba:    6830        0h      LDR      r0,[r6,#0]
        0x000194bc:    0200        ..      LSLS     r0,r0,#8
        0x000194be:    bf44        D.      ITT      MI
        0x000194c0:    6830        0h      LDRMI    r0,[r6,#0]
        0x000194c2:    ea5f2000    _..     LSLSMI   r0,r0,#8
        0x000194c6:    d502        ..      BPL      0x194ce ; am_hal_itm_disable + 130
        0x000194c8:    6830        0h      LDR      r0,[r6,#0]
        0x000194ca:    0200        ..      LSLS     r0,r0,#8
        0x000194cc:    d4f2        ..      BMI      0x194b4 ; am_hal_itm_disable + 104
        0x000194ce:    2701        .'      MOVS     r7,#1
        0x000194d0:    2032        2       MOVS     r0,#0x32
        0x000194d2:    f2c00780    ....    MOVT     r7,#0x80
        0x000194d6:    f7fffe6b    ..k.    BL       am_hal_delay_us ; 0x191b0
        0x000194da:    2000        .       MOVS     r0,#0
        0x000194dc:    f8c68130    ..0.    STR      r8,[r6,#0x130]
        0x000194e0:    e003        ..      B        0x194ea ; am_hal_itm_disable + 158
        0x000194e2:    bf00        ..      NOP      
        0x000194e4:    3005        .0      ADDS     r0,#5
        0x000194e6:    2864        d(      CMP      r0,#0x64
        0x000194e8:    d052        R.      BEQ      0x19590 ; am_hal_itm_disable + 324
        0x000194ea:    6831        1h      LDR      r1,[r6,#0]
        0x000194ec:    f0210101    !...    BIC      r1,r1,#1
        0x000194f0:    6031        1`      STR      r1,[r6,#0]
        0x000194f2:    bf00        ..      NOP      
        0x000194f4:    6831        1h      LDR      r1,[r6,#0]
        0x000194f6:    4239        9B      TST      r1,r7
        0x000194f8:    d008        ..      BEQ      0x1950c ; am_hal_itm_disable + 192
        0x000194fa:    6831        1h      LDR      r1,[r6,#0]
        0x000194fc:    4239        9B      TST      r1,r7
        0x000194fe:    d005        ..      BEQ      0x1950c ; am_hal_itm_disable + 192
        0x00019500:    6831        1h      LDR      r1,[r6,#0]
        0x00019502:    4239        9B      TST      r1,r7
        0x00019504:    d002        ..      BEQ      0x1950c ; am_hal_itm_disable + 192
        0x00019506:    6831        1h      LDR      r1,[r6,#0]
        0x00019508:    4239        9B      TST      r1,r7
        0x0001950a:    d1f3        ..      BNE      0x194f4 ; am_hal_itm_disable + 168
        0x0001950c:    6831        1h      LDR      r1,[r6,#0]
        0x0001950e:    f0210101    !...    BIC      r1,r1,#1
        0x00019512:    6031        1`      STR      r1,[r6,#0]
        0x00019514:    6831        1h      LDR      r1,[r6,#0]
        0x00019516:    4239        9B      TST      r1,r7
        0x00019518:    d008        ..      BEQ      0x1952c ; am_hal_itm_disable + 224
        0x0001951a:    6831        1h      LDR      r1,[r6,#0]
        0x0001951c:    4239        9B      TST      r1,r7
        0x0001951e:    d005        ..      BEQ      0x1952c ; am_hal_itm_disable + 224
        0x00019520:    6831        1h      LDR      r1,[r6,#0]
        0x00019522:    4239        9B      TST      r1,r7
        0x00019524:    d002        ..      BEQ      0x1952c ; am_hal_itm_disable + 224
        0x00019526:    6831        1h      LDR      r1,[r6,#0]
        0x00019528:    4239        9B      TST      r1,r7
        0x0001952a:    d1f3        ..      BNE      0x19514 ; am_hal_itm_disable + 200
        0x0001952c:    6831        1h      LDR      r1,[r6,#0]
        0x0001952e:    f0210101    !...    BIC      r1,r1,#1
        0x00019532:    6031        1`      STR      r1,[r6,#0]
        0x00019534:    6831        1h      LDR      r1,[r6,#0]
        0x00019536:    4239        9B      TST      r1,r7
        0x00019538:    d008        ..      BEQ      0x1954c ; am_hal_itm_disable + 256
        0x0001953a:    6831        1h      LDR      r1,[r6,#0]
        0x0001953c:    4239        9B      TST      r1,r7
        0x0001953e:    d005        ..      BEQ      0x1954c ; am_hal_itm_disable + 256
        0x00019540:    6831        1h      LDR      r1,[r6,#0]
        0x00019542:    4239        9B      TST      r1,r7
        0x00019544:    d002        ..      BEQ      0x1954c ; am_hal_itm_disable + 256
        0x00019546:    6831        1h      LDR      r1,[r6,#0]
        0x00019548:    4239        9B      TST      r1,r7
        0x0001954a:    d1f3        ..      BNE      0x19534 ; am_hal_itm_disable + 232
        0x0001954c:    6831        1h      LDR      r1,[r6,#0]
        0x0001954e:    f0210101    !...    BIC      r1,r1,#1
        0x00019552:    6031        1`      STR      r1,[r6,#0]
        0x00019554:    6831        1h      LDR      r1,[r6,#0]
        0x00019556:    4239        9B      TST      r1,r7
        0x00019558:    d008        ..      BEQ      0x1956c ; am_hal_itm_disable + 288
        0x0001955a:    6831        1h      LDR      r1,[r6,#0]
        0x0001955c:    4239        9B      TST      r1,r7
        0x0001955e:    d005        ..      BEQ      0x1956c ; am_hal_itm_disable + 288
        0x00019560:    6831        1h      LDR      r1,[r6,#0]
        0x00019562:    4239        9B      TST      r1,r7
        0x00019564:    d002        ..      BEQ      0x1956c ; am_hal_itm_disable + 288
        0x00019566:    6831        1h      LDR      r1,[r6,#0]
        0x00019568:    4239        9B      TST      r1,r7
        0x0001956a:    d1f3        ..      BNE      0x19554 ; am_hal_itm_disable + 264
        0x0001956c:    6831        1h      LDR      r1,[r6,#0]
        0x0001956e:    f0210101    !...    BIC      r1,r1,#1
        0x00019572:    6031        1`      STR      r1,[r6,#0]
        0x00019574:    6831        1h      LDR      r1,[r6,#0]
        0x00019576:    4239        9B      TST      r1,r7
        0x00019578:    d0b4        ..      BEQ      0x194e4 ; am_hal_itm_disable + 152
        0x0001957a:    6831        1h      LDR      r1,[r6,#0]
        0x0001957c:    4239        9B      TST      r1,r7
        0x0001957e:    d0b1        ..      BEQ      0x194e4 ; am_hal_itm_disable + 152
        0x00019580:    6831        1h      LDR      r1,[r6,#0]
        0x00019582:    4239        9B      TST      r1,r7
        0x00019584:    d0ae        ..      BEQ      0x194e4 ; am_hal_itm_disable + 152
        0x00019586:    6831        1h      LDR      r1,[r6,#0]
        0x00019588:    4239        9B      TST      r1,r7
        0x0001958a:    d1f3        ..      BNE      0x19574 ; am_hal_itm_disable + 296
        0x0001958c:    e7aa        ..      B        0x194e4 ; am_hal_itm_disable + 152
        0x0001958e:    bf00        ..      NOP      
        0x00019590:    6828        (h      LDR      r0,[r5,#0]
        0x00019592:    f0207080     ..p    BIC      r0,r0,#0x1000000
        0x00019596:    6028        (`      STR      r0,[r5,#0]
        0x00019598:    6828        (h      LDR      r0,[r5,#0]
        0x0001959a:    01c0        ..      LSLS     r0,r0,#7
        0x0001959c:    d509        ..      BPL      0x195b2 ; am_hal_itm_disable + 358
        0x0001959e:    6828        (h      LDR      r0,[r5,#0]
        0x000195a0:    01c0        ..      LSLS     r0,r0,#7
        0x000195a2:    bf44        D.      ITT      MI
        0x000195a4:    6828        (h      LDRMI    r0,[r5,#0]
        0x000195a6:    ea5f10c0    _...    LSLSMI   r0,r0,#7
        0x000195aa:    d502        ..      BPL      0x195b2 ; am_hal_itm_disable + 358
        0x000195ac:    6828        (h      LDR      r0,[r5,#0]
        0x000195ae:    01c0        ..      LSLS     r0,r0,#7
        0x000195b0:    d4f2        ..      BMI      0x19598 ; am_hal_itm_disable + 332
        0x000195b2:    6820         h      LDR      r0,[r4,#0]
        0x000195b4:    f020000e     ...    BIC      r0,r0,#0xe
        0x000195b8:    6020         `      STR      r0,[r4,#0]
        0x000195ba:    6820         h      LDR      r0,[r4,#0]
        0x000195bc:    f0200001     ...    BIC      r0,r0,#1
        0x000195c0:    6020         `      STR      r0,[r4,#0]
        0x000195c2:    6820         h      LDR      r0,[r4,#0]
        0x000195c4:    f42040e0     ..@    BIC      r0,r0,#0x7000
        0x000195c8:    6020         `      STR      r0,[r4,#0]
        0x000195ca:    6820         h      LDR      r0,[r4,#0]
        0x000195cc:    f0200010     ...    BIC      r0,r0,#0x10
        0x000195d0:    6020         `      STR      r0,[r4,#0]
        0x000195d2:    e006        ..      B        0x195e2 ; am_hal_itm_disable + 406
        0x000195d4:    6820         h      LDR      r0,[r4,#0]
        0x000195d6:    2800        .(      CMP      r0,#0
        0x000195d8:    bf08        ..      IT       EQ
        0x000195da:    e8bd81f0    ....    POPEQ    {r4-r8,pc}
        0x000195de:    6820         h      LDR      r0,[r4,#0]
        0x000195e0:    b120         .      CBZ      r0,0x195ec ; am_hal_itm_disable + 416
        0x000195e2:    6820         h      LDR      r0,[r4,#0]
        0x000195e4:    b110        ..      CBZ      r0,0x195ec ; am_hal_itm_disable + 416
        0x000195e6:    6820         h      LDR      r0,[r4,#0]
        0x000195e8:    2800        .(      CMP      r0,#0
        0x000195ea:    d1f3        ..      BNE      0x195d4 ; am_hal_itm_disable + 392
        0x000195ec:    e8bd81f0    ....    POP      {r4-r8,pc}
    am_hal_itm_enable
        0x000195f0:    f64e50fc    N..P    MOV      r0,#0xedfc
        0x000195f4:    f2ce0000    ....    MOVT     r0,#0xe000
        0x000195f8:    6801        .h      LDR      r1,[r0,#0]
        0x000195fa:    f0417180    A..q    ORR      r1,r1,#0x1000000
        0x000195fe:    6001        .`      STR      r1,[r0,#0]
        0x00019600:    6801        .h      LDR      r1,[r0,#0]
        0x00019602:    01c9        ..      LSLS     r1,r1,#7
        0x00019604:    d409        ..      BMI      0x1961a ; am_hal_itm_enable + 42
        0x00019606:    6801        .h      LDR      r1,[r0,#0]
        0x00019608:    01c9        ..      LSLS     r1,r1,#7
        0x0001960a:    bf5c        \.      ITT      PL
        0x0001960c:    6801        .h      LDRPL    r1,[r0,#0]
        0x0001960e:    ea5f11c1    _...    LSLSPL   r1,r1,#7
        0x00019612:    d402        ..      BMI      0x1961a ; am_hal_itm_enable + 42
        0x00019614:    6801        .h      LDR      r1,[r0,#0]
        0x00019616:    01c9        ..      LSLS     r1,r1,#7
        0x00019618:    d5f2        ..      BPL      0x19600 ; am_hal_itm_enable + 16
        0x0001961a:    f6406000    @..`    MOVW     r0,#0xe00
        0x0001961e:    f64c6155    L.Ua    MOV      r1,#0xce55
        0x00019622:    f2ce0000    ....    MOVT     r0,#0xe000
        0x00019626:    f2cc51ac    ...Q    MOVT     r1,#0xc5ac
        0x0001962a:    f8c011b0    ....    STR      r1,[r0,#0x1b0]
        0x0001962e:    210f        .!      MOVS     r1,#0xf
        0x00019630:    6401        .d      STR      r1,[r0,#0x40]
        0x00019632:    f04f31ff    O..1    MOV      r1,#0xffffffff
        0x00019636:    6001        .`      STR      r1,[r0,#0]
        0x00019638:    f2405111    @..Q    MOV      r1,#0x511
        0x0001963c:    f2c00115    ....    MOVT     r1,#0x15
        0x00019640:    f8c01080    ....    STR      r1,[r0,#0x80]
        0x00019644:    4770        pG      BX       lr
        0x00019646:    0000        ..      MOVS     r0,r0
    am_hal_itm_not_busy
        0x00019648:    f6406080    @..`    MOVW     r0,#0xe80
        0x0001964c:    f2ce0000    ....    MOVT     r0,#0xe000
        0x00019650:    6801        .h      LDR      r1,[r0,#0]
        0x00019652:    0209        ..      LSLS     r1,r1,#8
        0x00019654:    d509        ..      BPL      0x1966a ; am_hal_itm_not_busy + 34
        0x00019656:    6801        .h      LDR      r1,[r0,#0]
        0x00019658:    0209        ..      LSLS     r1,r1,#8
        0x0001965a:    bf44        D.      ITT      MI
        0x0001965c:    6801        .h      LDRMI    r1,[r0,#0]
        0x0001965e:    ea5f2101    _..!    LSLSMI   r1,r1,#8
        0x00019662:    d502        ..      BPL      0x1966a ; am_hal_itm_not_busy + 34
        0x00019664:    6801        .h      LDR      r1,[r0,#0]
        0x00019666:    0209        ..      LSLS     r1,r1,#8
        0x00019668:    d4f2        ..      BMI      0x19650 ; am_hal_itm_not_busy + 8
        0x0001966a:    2032        2       MOVS     r0,#0x32
        0x0001966c:    f7ffbda0    ....    B.W      am_hal_delay_us ; 0x191b0
    am_hal_itm_print
        0x00019670:    b510        ..      PUSH     {r4,lr}
        0x00019672:    f04f31ff    O..1    MOV      r1,#0xffffffff
        0x00019676:    bf00        ..      NOP      
        0x00019678:    1842        B.      ADDS     r2,r0,r1
        0x0001967a:    7853        Sx      LDRB     r3,[r2,#1]
        0x0001967c:    b143        C.      CBZ      r3,0x19690 ; am_hal_itm_print + 32
        0x0001967e:    7893        .x      LDRB     r3,[r2,#2]
        0x00019680:    b153        S.      CBZ      r3,0x19698 ; am_hal_itm_print + 40
        0x00019682:    78d3        .x      LDRB     r3,[r2,#3]
        0x00019684:    b333        3.      CBZ      r3,0x196d4 ; am_hal_itm_print + 100
        0x00019686:    7912        .y      LDRB     r2,[r2,#4]
        0x00019688:    3104        .1      ADDS     r1,#4
        0x0001968a:    2a00        .*      CMP      r2,#0
        0x0001968c:    d1f4        ..      BNE      0x19678 ; am_hal_itm_print + 8
        0x0001968e:    e004        ..      B        0x1969a ; am_hal_itm_print + 42
        0x00019690:    3101        .1      ADDS     r1,#1
        0x00019692:    b919        ..      CBNZ     r1,0x1969c ; am_hal_itm_print + 44
        0x00019694:    e021        !.      B        0x196da ; am_hal_itm_print + 106
        0x00019696:    bf00        ..      NOP      
        0x00019698:    3102        .1      ADDS     r1,#2
        0x0001969a:    b1f1        ..      CBZ      r1,0x196da ; am_hal_itm_print + 106
        0x0001969c:    f0110e03    ....    ANDS     lr,r1,#3
        0x000196a0:    f1a10c01    ....    SUB      r12,r1,#1
        0x000196a4:    d040        @.      BEQ      0x19728 ; am_hal_itm_print + 184
        0x000196a6:    7802        .x      LDRB     r2,[r0,#0]
        0x000196a8:    f04f4360    O.`C    MOV      r3,#0xe0000000
        0x000196ac:    681c        .h      LDR      r4,[r3,#0]
        0x000196ae:    b934        4.      CBNZ     r4,0x196be ; am_hal_itm_print + 78
        0x000196b0:    681c        .h      LDR      r4,[r3,#0]
        0x000196b2:    b924        $.      CBNZ     r4,0x196be ; am_hal_itm_print + 78
        0x000196b4:    681c        .h      LDR      r4,[r3,#0]
        0x000196b6:    b914        ..      CBNZ     r4,0x196be ; am_hal_itm_print + 78
        0x000196b8:    681c        .h      LDR      r4,[r3,#0]
        0x000196ba:    2c00        .,      CMP      r4,#0
        0x000196bc:    d0f6        ..      BEQ      0x196ac ; am_hal_itm_print + 60
        0x000196be:    1c44        D.      ADDS     r4,r0,#1
        0x000196c0:    f04f4360    O.`C    MOV      r3,#0xe0000000
        0x000196c4:    f1be0f01    ....    CMP      lr,#1
        0x000196c8:    701a        .p      STRB     r2,[r3,#0]
        0x000196ca:    d107        ..      BNE      0x196dc ; am_hal_itm_print + 108
        0x000196cc:    4661        aF      MOV      r1,r12
        0x000196ce:    4620         F      MOV      r0,r4
        0x000196d0:    e02a        *.      B        0x19728 ; am_hal_itm_print + 184
        0x000196d2:    bf00        ..      NOP      
        0x000196d4:    3103        .1      ADDS     r1,#3
        0x000196d6:    2900        .)      CMP      r1,#0
        0x000196d8:    d1e0        ..      BNE      0x1969c ; am_hal_itm_print + 44
        0x000196da:    bd10        ..      POP      {r4,pc}
        0x000196dc:    7822        "x      LDRB     r2,[r4,#0]
        0x000196de:    bf00        ..      NOP      
        0x000196e0:    681c        .h      LDR      r4,[r3,#0]
        0x000196e2:    b934        4.      CBNZ     r4,0x196f2 ; am_hal_itm_print + 130
        0x000196e4:    681c        .h      LDR      r4,[r3,#0]
        0x000196e6:    b924        $.      CBNZ     r4,0x196f2 ; am_hal_itm_print + 130
        0x000196e8:    681c        .h      LDR      r4,[r3,#0]
        0x000196ea:    b914        ..      CBNZ     r4,0x196f2 ; am_hal_itm_print + 130
        0x000196ec:    681c        .h      LDR      r4,[r3,#0]
        0x000196ee:    2c00        .,      CMP      r4,#0
        0x000196f0:    d0f6        ..      BEQ      0x196e0 ; am_hal_itm_print + 112
        0x000196f2:    1c84        ..      ADDS     r4,r0,#2
        0x000196f4:    f04f4360    O.`C    MOV      r3,#0xe0000000
        0x000196f8:    f1be0f02    ....    CMP      lr,#2
        0x000196fc:    701a        .p      STRB     r2,[r3,#0]
        0x000196fe:    d103        ..      BNE      0x19708 ; am_hal_itm_print + 152
        0x00019700:    3902        .9      SUBS     r1,#2
        0x00019702:    4620         F      MOV      r0,r4
        0x00019704:    e010        ..      B        0x19728 ; am_hal_itm_print + 184
        0x00019706:    bf00        ..      NOP      
        0x00019708:    7822        "x      LDRB     r2,[r4,#0]
        0x0001970a:    bf00        ..      NOP      
        0x0001970c:    681c        .h      LDR      r4,[r3,#0]
        0x0001970e:    b934        4.      CBNZ     r4,0x1971e ; am_hal_itm_print + 174
        0x00019710:    681c        .h      LDR      r4,[r3,#0]
        0x00019712:    b924        $.      CBNZ     r4,0x1971e ; am_hal_itm_print + 174
        0x00019714:    681c        .h      LDR      r4,[r3,#0]
        0x00019716:    b914        ..      CBNZ     r4,0x1971e ; am_hal_itm_print + 174
        0x00019718:    681c        .h      LDR      r4,[r3,#0]
        0x0001971a:    2c00        .,      CMP      r4,#0
        0x0001971c:    d0f6        ..      BEQ      0x1970c ; am_hal_itm_print + 156
        0x0001971e:    3003        .0      ADDS     r0,#3
        0x00019720:    f04f4360    O.`C    MOV      r3,#0xe0000000
        0x00019724:    3903        .9      SUBS     r1,#3
        0x00019726:    701a        .p      STRB     r2,[r3,#0]
        0x00019728:    f1bc0f03    ....    CMP      r12,#3
        0x0001972c:    bf38        8.      IT       CC
        0x0001972e:    bd10        ..      POPCC    {r4,pc}
        0x00019730:    f04f4260    O.`B    MOV      r2,#0xe0000000
        0x00019734:    e004        ..      B        0x19740 ; am_hal_itm_print + 208
        0x00019736:    bf00        ..      NOP      
        0x00019738:    3004        .0      ADDS     r0,#4
        0x0001973a:    3904        .9      SUBS     r1,#4
        0x0001973c:    7013        .p      STRB     r3,[r2,#0]
        0x0001973e:    d0cc        ..      BEQ      0x196da ; am_hal_itm_print + 106
        0x00019740:    7803        .x      LDRB     r3,[r0,#0]
        0x00019742:    bf00        ..      NOP      
        0x00019744:    6814        .h      LDR      r4,[r2,#0]
        0x00019746:    b934        4.      CBNZ     r4,0x19756 ; am_hal_itm_print + 230
        0x00019748:    6814        .h      LDR      r4,[r2,#0]
        0x0001974a:    b924        $.      CBNZ     r4,0x19756 ; am_hal_itm_print + 230
        0x0001974c:    6814        .h      LDR      r4,[r2,#0]
        0x0001974e:    b914        ..      CBNZ     r4,0x19756 ; am_hal_itm_print + 230
        0x00019750:    6814        .h      LDR      r4,[r2,#0]
        0x00019752:    2c00        .,      CMP      r4,#0
        0x00019754:    d0f6        ..      BEQ      0x19744 ; am_hal_itm_print + 212
        0x00019756:    7013        .p      STRB     r3,[r2,#0]
        0x00019758:    7843        Cx      LDRB     r3,[r0,#1]
        0x0001975a:    bf00        ..      NOP      
        0x0001975c:    6814        .h      LDR      r4,[r2,#0]
        0x0001975e:    b934        4.      CBNZ     r4,0x1976e ; am_hal_itm_print + 254
        0x00019760:    6814        .h      LDR      r4,[r2,#0]
        0x00019762:    b924        $.      CBNZ     r4,0x1976e ; am_hal_itm_print + 254
        0x00019764:    6814        .h      LDR      r4,[r2,#0]
        0x00019766:    b914        ..      CBNZ     r4,0x1976e ; am_hal_itm_print + 254
        0x00019768:    6814        .h      LDR      r4,[r2,#0]
        0x0001976a:    2c00        .,      CMP      r4,#0
        0x0001976c:    d0f6        ..      BEQ      0x1975c ; am_hal_itm_print + 236
        0x0001976e:    7013        .p      STRB     r3,[r2,#0]
        0x00019770:    7883        .x      LDRB     r3,[r0,#2]
        0x00019772:    bf00        ..      NOP      
        0x00019774:    6814        .h      LDR      r4,[r2,#0]
        0x00019776:    b934        4.      CBNZ     r4,0x19786 ; am_hal_itm_print + 278
        0x00019778:    6814        .h      LDR      r4,[r2,#0]
        0x0001977a:    b924        $.      CBNZ     r4,0x19786 ; am_hal_itm_print + 278
        0x0001977c:    6814        .h      LDR      r4,[r2,#0]
        0x0001977e:    b914        ..      CBNZ     r4,0x19786 ; am_hal_itm_print + 278
        0x00019780:    6814        .h      LDR      r4,[r2,#0]
        0x00019782:    2c00        .,      CMP      r4,#0
        0x00019784:    d0f6        ..      BEQ      0x19774 ; am_hal_itm_print + 260
        0x00019786:    7013        .p      STRB     r3,[r2,#0]
        0x00019788:    78c3        .x      LDRB     r3,[r0,#3]
        0x0001978a:    bf00        ..      NOP      
        0x0001978c:    6814        .h      LDR      r4,[r2,#0]
        0x0001978e:    2c00        .,      CMP      r4,#0
        0x00019790:    d1d2        ..      BNE      0x19738 ; am_hal_itm_print + 200
        0x00019792:    6814        .h      LDR      r4,[r2,#0]
        0x00019794:    2c00        .,      CMP      r4,#0
        0x00019796:    d1cf        ..      BNE      0x19738 ; am_hal_itm_print + 200
        0x00019798:    6814        .h      LDR      r4,[r2,#0]
        0x0001979a:    2c00        .,      CMP      r4,#0
        0x0001979c:    d1cc        ..      BNE      0x19738 ; am_hal_itm_print + 200
        0x0001979e:    6814        .h      LDR      r4,[r2,#0]
        0x000197a0:    2c00        .,      CMP      r4,#0
        0x000197a2:    d0f3        ..      BEQ      0x1978c ; am_hal_itm_print + 284
        0x000197a4:    e7c8        ..      B        0x19738 ; am_hal_itm_print + 200
        0x000197a6:    0000        ..      MOVS     r0,r0
    am_hal_load_ui32
        0x000197a8:    f64d5118    M..Q    MOV      r1,#0xdd18
        0x000197ac:    f2c00101    ....    MOVT     r1,#1
        0x000197b0:    6949        Ii      LDR      r1,[r1,#0x14]
        0x000197b2:    4708        .G      BX       r1
    am_hal_mcuctrl_info_get
        0x000197b4:    b321        !.      CBZ      r1,0x19800 ; am_hal_mcuctrl_info_get + 76
        0x000197b6:    2801        .(      CMP      r0,#1
        0x000197b8:    d024        $.      BEQ      0x19804 ; am_hal_mcuctrl_info_get + 80
        0x000197ba:    bb08        ..      CBNZ     r0,0x19800 ; am_hal_mcuctrl_info_get + 76
        0x000197bc:    2000        .       MOVS     r0,#0
        0x000197be:    2214        ."      MOVS     r2,#0x14
        0x000197c0:    7008        .p      STRB     r0,[r1,#0]
        0x000197c2:    f2c40202    ....    MOVT     r2,#0x4002
        0x000197c6:    6813        .h      LDR      r3,[r2,#0]
        0x000197c8:    f0030303    ....    AND      r3,r3,#3
        0x000197cc:    704b        Kp      STRB     r3,[r1,#1]
        0x000197ce:    6813        .h      LDR      r3,[r2,#0]
        0x000197d0:    f3c30381    ....    UBFX     r3,r3,#2,#2
        0x000197d4:    708b        .p      STRB     r3,[r1,#2]
        0x000197d6:    6813        .h      LDR      r3,[r2,#0]
        0x000197d8:    f3c31380    ....    UBFX     r3,r3,#6,#1
        0x000197dc:    70cb        .p      STRB     r3,[r1,#3]
        0x000197de:    6813        .h      LDR      r3,[r2,#0]
        0x000197e0:    b2db        ..      UXTB     r3,r3
        0x000197e2:    09db        ..      LSRS     r3,r3,#7
        0x000197e4:    710b        .q      STRB     r3,[r1,#4]
        0x000197e6:    6813        .h      LDR      r3,[r2,#0]
        0x000197e8:    f3c32300    ...#    UBFX     r3,r3,#8,#1
        0x000197ec:    714b        Kq      STRB     r3,[r1,#5]
        0x000197ee:    6813        .h      LDR      r3,[r2,#0]
        0x000197f0:    f3c32340    ..@#    UBFX     r3,r3,#9,#1
        0x000197f4:    718b        .q      STRB     r3,[r1,#6]
        0x000197f6:    6812        .h      LDR      r2,[r2,#0]
        0x000197f8:    f3c22280    ..."    UBFX     r2,r2,#10,#1
        0x000197fc:    71ca        .q      STRB     r2,[r1,#7]
        0x000197fe:    4770        pG      BX       lr
        0x00019800:    2006        .       MOVS     r0,#6
        0x00019802:    4770        pG      BX       lr
        0x00019804:    2014        .       MOVS     r0,#0x14
        0x00019806:    f2c40002    ....    MOVT     r0,#0x4002
        0x0001980a:    f8502c14    P..,    LDR      r2,[r0,#-0x14]
        0x0001980e:    f64d5c40    M.@\    MOV      r12,#0xdd40
        0x00019812:    600a        .`      STR      r2,[r1,#0]
        0x00019814:    f8503c10    P..<    LDR      r3,[r0,#-0x10]
        0x00019818:    f3c24203    ...B    UBFX     r2,r2,#16,#4
        0x0001981c:    604b        K`      STR      r3,[r1,#4]
        0x0001981e:    f8503c0c    P..<    LDR      r3,[r0,#-0xc]
        0x00019822:    eb020242    ..B.    ADD      r2,r2,r2,LSL #1
        0x00019826:    608b        .`      STR      r3,[r1,#8]
        0x00019828:    f8503c08    P..<    LDR      r3,[r0,#-8]
        0x0001982c:    f2c00c01    ....    MOVT     r12,#1
        0x00019830:    60cb        .`      STR      r3,[r1,#0xc]
        0x00019832:    f8503c04    P..<    LDR      r3,[r0,#-4]
        0x00019836:    610b        .a      STR      r3,[r1,#0x10]
        0x00019838:    6803        .h      LDR      r3,[r0,#0]
        0x0001983a:    614b        Ka      STR      r3,[r1,#0x14]
        0x0001983c:    2301        .#      MOVS     r3,#1
        0x0001983e:    618b        .a      STR      r3,[r1,#0x18]
        0x00019840:    f83c3012    <..0    LDRH     r3,[r12,r2,LSL #1]
        0x00019844:    eb0c0242    ..B.    ADD      r2,r12,r2,LSL #1
        0x00019848:    ea4f2c83    O..,    LSL      r12,r3,#10
        0x0001984c:    8853        S.      LDRH     r3,[r2,#2]
        0x0001984e:    8892        ..      LDRH     r2,[r2,#4]
        0x00019850:    f8c1c020    .. .    STR      r12,[r1,#0x20]
        0x00019854:    441a        .D      ADD      r2,r2,r3
        0x00019856:    0292        ..      LSLS     r2,r2,#10
        0x00019858:    624a        Jb      STR      r2,[r1,#0x24]
        0x0001985a:    6800        .h      LDR      r0,[r0,#0]
        0x0001985c:    a219        ..      ADR      r2,{pc}+0x68 ; 0x198c4
        0x0001985e:    f000000c    ....    AND      r0,r0,#0xc
        0x00019862:    5810        .X      LDR      r0,[r2,r0]
        0x00019864:    6288        .b      STR      r0,[r1,#0x28]
        0x00019866:    f64070e4    @..p    MOV      r0,#0xfe4
        0x0001986a:    f2cf0000    ....    MOVT     r0,#0xf000
        0x0001986e:    f8502c04    P..,    LDR      r2,[r0,#-4]
        0x00019872:    b2d2        ..      UXTB     r2,r2
        0x00019874:    62ca        .b      STR      r2,[r1,#0x2c]
        0x00019876:    6803        .h      LDR      r3,[r0,#0]
        0x00019878:    f363220b    c.."    BFI      r2,r3,#8,#4
        0x0001987c:    62ca        .b      STR      r2,[r1,#0x2c]
        0x0001987e:    6802        .h      LDR      r2,[r0,#0]
        0x00019880:    f3c21203    ....    UBFX     r2,r2,#4,#4
        0x00019884:    630a        .c      STR      r2,[r1,#0x30]
        0x00019886:    6843        Ch      LDR      r3,[r0,#4]
        0x00019888:    f3631207    c...    BFI      r2,r3,#4,#4
        0x0001988c:    630a        .c      STR      r2,[r1,#0x30]
        0x0001988e:    6842        Bh      LDR      r2,[r0,#4]
        0x00019890:    f00202f0    ....    AND      r2,r2,#0xf0
        0x00019894:    634a        Jc      STR      r2,[r1,#0x34]
        0x00019896:    6883        .h      LDR      r3,[r0,#8]
        0x00019898:    f3c31303    ....    UBFX     r3,r3,#4,#4
        0x0001989c:    441a        .D      ADD      r2,r2,r3
        0x0001989e:    634a        Jc      STR      r2,[r1,#0x34]
        0x000198a0:    6982        .i      LDR      r2,[r0,#0x18]
        0x000198a2:    0612        ..      LSLS     r2,r2,#24
        0x000198a4:    638a        .c      STR      r2,[r1,#0x38]
        0x000198a6:    6943        Ci      LDR      r3,[r0,#0x14]
        0x000198a8:    f3634217    c..B    BFI      r2,r3,#16,#8
        0x000198ac:    638a        .c      STR      r2,[r1,#0x38]
        0x000198ae:    6903        .i      LDR      r3,[r0,#0x10]
        0x000198b0:    f363220f    c.."    BFI      r2,r3,#8,#8
        0x000198b4:    638a        .c      STR      r2,[r1,#0x38]
        0x000198b6:    68c0        .h      LDR      r0,[r0,#0xc]
        0x000198b8:    b2c0        ..      UXTB     r0,r0
        0x000198ba:    4410        .D      ADD      r0,r0,r2
        0x000198bc:    6388        .c      STR      r0,[r1,#0x38]
        0x000198be:    2000        .       MOVS     r0,#0
        0x000198c0:    4770        pG      BX       lr
        0x000198c2:    bf00        ..      NOP      
    $d.6
    g_am_hal_mcuctrl_mram_size
        0x000198c4:    00080000    ....    DCD    524288
        0x000198c8:    00100000    ....    DCD    1048576
        0x000198cc:    00180000    ....    DCD    1572864
        0x000198d0:    00200000    .. .    DCD    2097152
    $t.6
    am_hal_mram_ds_init
        0x000198d4:    b580        ..      PUSH     {r7,lr}
        0x000198d6:    f24010bc    @...    MOVW     r0,#0x1bc
        0x000198da:    f2c10000    ....    MOVT     r0,#0x1000
        0x000198de:    6800        .h      LDR      r0,[r0,#0]
        0x000198e0:    4780        .G      BLX      r0
        0x000198e2:    2000        .       MOVS     r0,#0
        0x000198e4:    bd80        ..      POP      {r7,pc}
        0x000198e6:    0000        ..      MOVS     r0,r0
    am_hal_mram_info_read
        0x000198e8:    e92d41f0    -..A    PUSH     {r4-r8,lr}
        0x000198ec:    b082        ..      SUB      sp,sp,#8
        0x000198ee:    461d        .F      MOV      r5,r3
        0x000198f0:    4614        .F      MOV      r4,r2
        0x000198f2:    2801        .(      CMP      r0,#1
        0x000198f4:    460e        .F      MOV      r6,r1
        0x000198f6:    d00f        ..      BEQ      0x19918 ; am_hal_mram_info_read + 48
        0x000198f8:    2800        .(      CMP      r0,#0
        0x000198fa:    d13f        ?.      BNE      0x1997c ; am_hal_mram_info_read + 148
        0x000198fc:    2000        .       MOVS     r0,#0
        0x000198fe:    ebb02f56    ..V/    CMP      r0,r6,LSR #9
        0x00019902:    f04f0702    O...    MOV      r7,#2
        0x00019906:    d135        5.      BNE      0x19974 ; am_hal_mram_info_read + 140
        0x00019908:    19a0        ..      ADDS     r0,r4,r6
        0x0001990a:    f5b07f00    ....    CMP      r0,#0x200
        0x0001990e:    d831        1.      BHI      0x19974 ; am_hal_mram_info_read + 140
        0x00019910:    f04f4784    O..G    MOV      r7,#0x42000000
        0x00019914:    e00f        ..      B        0x19936 ; am_hal_mram_info_read + 78
        0x00019916:    bf00        ..      NOP      
        0x00019918:    f5a660c0    ...`    SUB      r0,r6,#0x600
        0x0001991c:    f5107fc0    ....    CMN      r0,#0x180
        0x00019920:    f04f0702    O...    MOV      r7,#2
        0x00019924:    d326        &.      BCC      0x19974 ; am_hal_mram_info_read + 140
        0x00019926:    19a0        ..      ADDS     r0,r4,r6
        0x00019928:    f5b06fc0    ...o    CMP      r0,#0x600
        0x0001992c:    d822        ".      BHI      0x19974 ; am_hal_mram_info_read + 140
        0x0001992e:    f2420700    B...    MOVW     r7,#0x2000
        0x00019932:    f2c42700    ...'    MOVT     r7,#0x4200
        0x00019936:    f24018b8    @...    MOVW     r8,#0x1b8
        0x0001993a:    f2c10800    ....    MOVT     r8,#0x1000
        0x0001993e:    f8d81000    ....    LDR      r1,[r8,#0]
        0x00019942:    2001        .       MOVS     r0,#1
        0x00019944:    4788        .G      BLX      r1
        0x00019946:    f7fffd79    ..y.    BL       am_hal_interrupt_master_disable ; 0x1943c
        0x0001994a:    9001        ..      STR      r0,[sp,#4]
        0x0001994c:    b154        T.      CBZ      r4,0x19964 ; am_hal_mram_info_read + 124
        0x0001994e:    eb070086    ....    ADD      r0,r7,r6,LSL #2
        0x00019952:    3d04        .=      SUBS     r5,#4
        0x00019954:    1d06        ..      ADDS     r6,r0,#4
        0x00019956:    f7ffff27    ..'.    BL       am_hal_load_ui32 ; 0x197a8
        0x0001995a:    f8450f04    E...    STR      r0,[r5,#4]!
        0x0001995e:    3c01        .<      SUBS     r4,#1
        0x00019960:    4630        0F      MOV      r0,r6
        0x00019962:    d1f7        ..      BNE      0x19954 ; am_hal_mram_info_read + 108
        0x00019964:    9801        ..      LDR      r0,[sp,#4]
        0x00019966:    f7fffd6d    ..m.    BL       am_hal_interrupt_master_set ; 0x19444
        0x0001996a:    f8d81000    ....    LDR      r1,[r8,#0]
        0x0001996e:    2000        .       MOVS     r0,#0
        0x00019970:    2700        .'      MOVS     r7,#0
        0x00019972:    4788        .G      BLX      r1
        0x00019974:    4638        8F      MOV      r0,r7
        0x00019976:    b002        ..      ADD      sp,sp,#8
        0x00019978:    e8bd81f0    ....    POP      {r4-r8,pc}
        0x0001997c:    2701        .'      MOVS     r7,#1
        0x0001997e:    4638        8F      MOV      r0,r7
        0x00019980:    b002        ..      ADD      sp,sp,#8
        0x00019982:    e8bd81f0    ....    POP      {r4-r8,pc}
        0x00019986:    0000        ..      MOVS     r0,r0
    am_hal_pwrctrl_control
        0x00019988:    b570        p.      PUSH     {r4-r6,lr}
        0x0001998a:    b084        ..      SUB      sp,sp,#0x10
        0x0001998c:    2100        .!      MOVS     r1,#0
        0x0001998e:    2803        .(      CMP      r0,#3
        0x00019990:    9102        ..      STR      r1,[sp,#8]
        0x00019992:    9101        ..      STR      r1,[sp,#4]
        0x00019994:    f20080ae    ....    BHI.W    0x19af4 ; am_hal_pwrctrl_control + 364
        0x00019998:    e8dff000    ....    TBB      [pc,r0]
    $d.24
        0x0001999c:    d4bcb002    ....    DCD    3569135618
    $t.25
        0x000199a0:    f2403578    @.x5    MOVW     r5,#0x378
        0x000199a4:    f2c40502    ....    MOVT     r5,#0x4002
        0x000199a8:    6828        (h      LDR      r0,[r5,#0]
        0x000199aa:    210a        .!      MOVS     r1,#0xa
        0x000199ac:    f02050f8     ..P    BIC      r0,r0,#0x1f000000
        0x000199b0:    6028        (`      STR      r0,[r5,#0]
        0x000199b2:    f8550c20    U. .    LDR      r0,[r5,#-0x20]
        0x000199b6:    f2400418    @...    MOVW     r4,#0x18
        0x000199ba:    f42000f8     ...    BIC      r0,r0,#0x7c0000
        0x000199be:    f8450c20    E. .    STR      r0,[r5,#-0x20]
        0x000199c2:    f8550c34    U.4.    LDR      r0,[r5,#-0x34]
        0x000199c6:    f2c10400    ....    MOVT     r4,#0x1000
        0x000199ca:    f361601b    a..`    BFI      r0,r1,#24,#4
        0x000199ce:    f8450c34    E.4.    STR      r0,[r5,#-0x34]
        0x000199d2:    f8550c34    U.4.    LDR      r0,[r5,#-0x34]
        0x000199d6:    f36120ce    a..     BFI      r0,r1,#11,#4
        0x000199da:    f8450c34    E.4.    STR      r0,[r5,#-0x34]
        0x000199de:    f8550c20    U. .    LDR      r0,[r5,#-0x20]
        0x000199e2:    f44050f0    @..P    ORR      r0,r0,#0x1e00
        0x000199e6:    f8450c20    E. .    STR      r0,[r5,#-0x20]
        0x000199ea:    f8550c24    U.$.    LDR      r0,[r5,#-0x24]
        0x000199ee:    f44010f0    @...    ORR      r0,r0,#0x1e0000
        0x000199f2:    f8450c24    E.$.    STR      r0,[r5,#-0x24]
        0x000199f6:    f8550c18    U...    LDR      r0,[r5,#-0x18]
        0x000199fa:    f0407070    @.pp    ORR      r0,r0,#0x3c00000
        0x000199fe:    f8450c18    E...    STR      r0,[r5,#-0x18]
        0x00019a02:    f8550c18    U...    LDR      r0,[r5,#-0x18]
        0x00019a06:    f44010f0    @...    ORR      r0,r0,#0x1e0000
        0x00019a0a:    f8450c18    E...    STR      r0,[r5,#-0x18]
        0x00019a0e:    f8550c0c    U...    LDR      r0,[r5,#-0xc]
        0x00019a12:    f8551c08    U...    LDR      r1,[r5,#-8]
        0x00019a16:    0e80        ..      LSRS     r0,r0,#26
        0x00019a18:    f360619f    `..a    BFI      r1,r0,#26,#6
        0x00019a1c:    f8451c08    E...    STR      r1,[r5,#-8]
        0x00019a20:    68a8        .h      LDR      r0,[r5,#8]
        0x00019a22:    2101        .!      MOVS     r1,#1
        0x00019a24:    f0404000    @..@    ORR      r0,r0,#0x80000000
        0x00019a28:    60a8        .`      STR      r0,[r5,#8]
        0x00019a2a:    68a8        .h      LDR      r0,[r5,#8]
        0x00019a2c:    f0404080    @..@    ORR      r0,r0,#0x40000000
        0x00019a30:    60a8        .`      STR      r0,[r5,#8]
        0x00019a32:    f8550c08    U...    LDR      r0,[r5,#-8]
        0x00019a36:    f3c05005    ...P    UBFX     r0,r0,#20,#6
        0x00019a3a:    61a0        .a      STR      r0,[r4,#0x18]
        0x00019a3c:    f8550c08    U...    LDR      r0,[r5,#-8]
        0x00019a40:    f020707c     .|p    BIC      r0,r0,#0x3f00000
        0x00019a44:    f8450c08    E...    STR      r0,[r5,#-8]
        0x00019a48:    2007        .       MOVS     r0,#7
        0x00019a4a:    f8450c3c    E.<.    STR      r0,[r5,#-0x3c]
        0x00019a4e:    f8550c38    U.8.    LDR      r0,[r5,#-0x38]
        0x00019a52:    f0207070     .pp    BIC      r0,r0,#0x3c00000
        0x00019a56:    f8450c38    E.8.    STR      r0,[r5,#-0x38]
        0x00019a5a:    f8550c38    U.8.    LDR      r0,[r5,#-0x38]
        0x00019a5e:    f361108a    a...    BFI      r0,r1,#6,#5
        0x00019a62:    f8450c38    E.8.    STR      r0,[r5,#-0x38]
        0x00019a66:    6861        ah      LDR      r1,[r4,#4]
        0x00019a68:    1c48        H.      ADDS     r0,r1,#1
        0x00019a6a:    d10b        ..      BNE      0x19a84 ; am_hal_pwrctrl_control + 252
        0x00019a6c:    1d23        #.      ADDS     r3,r4,#4
        0x00019a6e:    2001        .       MOVS     r0,#1
        0x00019a70:    f24041c4    @..A    MOV      r1,#0x4c4
        0x00019a74:    2201        ."      MOVS     r2,#1
        0x00019a76:    f7ffff37    ..7.    BL       am_hal_mram_info_read ; 0x198e8
        0x00019a7a:    2800        .(      CMP      r0,#0
        0x00019a7c:    d176        v.      BNE      0x19b6c ; am_hal_pwrctrl_control + 484
        0x00019a7e:    6861        ah      LDR      r1,[r4,#4]
        0x00019a80:    1c48        H.      ADDS     r0,r1,#1
        0x00019a82:    d073        s.      BEQ      0x19b6c ; am_hal_pwrctrl_control + 484
        0x00019a84:    2000        .       MOVS     r0,#0
        0x00019a86:    2905        .)      CMP      r1,#5
        0x00019a88:    bf88        ..      IT       HI
        0x00019a8a:    2016        .       MOVHI    r0,#0x16
        0x00019a8c:    2906        .)      CMP      r1,#6
        0x00019a8e:    d36f        o.      BCC      0x19b70 ; am_hal_pwrctrl_control + 488
        0x00019a90:    68e1        .h      LDR      r1,[r4,#0xc]
        0x00019a92:    3101        .1      ADDS     r1,#1
        0x00019a94:    d16c        l.      BNE      0x19b70 ; am_hal_pwrctrl_control + 488
        0x00019a96:    f2405189    @..Q    MOV      r1,#0x589
        0x00019a9a:    f2c10100    ....    MOVT     r1,#0x1000
        0x00019a9e:    780a        .x      LDRB     r2,[r1,#0]
        0x00019aa0:    f64f46cc    O..F    MOV      r6,#0xfccc
        0x00019aa4:    2a00        .*      CMP      r2,#0
        0x00019aa6:    bf04        ..      ITT      EQ
        0x00019aa8:    2201        ."      MOVEQ    r2,#1
        0x00019aaa:    700a        .p      STRBEQ   r2,[r1,#0]
        0x00019aac:    f6cf76ff    ...v    MOVT     r6,#0xffff
        0x00019ab0:    59a9        .Y      LDR      r1,[r5,r6]
        0x00019ab2:    f080027f    ....    EOR      r2,r0,#0x7f
        0x00019ab6:    f3c111c6    ....    UBFX     r1,r1,#7,#7
        0x00019aba:    60e1        .`      STR      r1,[r4,#0xc]
        0x00019abc:    6829        )h      LDR      r1,[r5,#0]
        0x00019abe:    f0414100    A..A    ORR      r1,r1,#0x80000000
        0x00019ac2:    6029        )`      STR      r1,[r5,#0]
        0x00019ac4:    68e1        .h      LDR      r1,[r4,#0xc]
        0x00019ac6:    180c        ..      ADDS     r4,r1,r0
        0x00019ac8:    59a8        .Y      LDR      r0,[r5,r6]
        0x00019aca:    4291        .B      CMP      r1,r2
        0x00019acc:    f3c010c6    ....    UBFX     r0,r0,#7,#7
        0x00019ad0:    bf88        ..      IT       HI
        0x00019ad2:    247f        .$      MOVHI    r4,#0x7f
        0x00019ad4:    42a0        .B      CMP      r0,r4
        0x00019ad6:    d04b        K.      BEQ      0x19b70 ; am_hal_pwrctrl_control + 488
        0x00019ad8:    f7fffcb0    ....    BL       am_hal_interrupt_master_disable ; 0x1943c
        0x00019adc:    9003        ..      STR      r0,[sp,#0xc]
        0x00019ade:    59a8        .Y      LDR      r0,[r5,r6]
        0x00019ae0:    f36410cd    d...    BFI      r0,r4,#7,#7
        0x00019ae4:    51a8        .Q      STR      r0,[r5,r6]
        0x00019ae6:    2014        .       MOVS     r0,#0x14
        0x00019ae8:    f7fffb62    ..b.    BL       am_hal_delay_us ; 0x191b0
        0x00019aec:    9803        ..      LDR      r0,[sp,#0xc]
        0x00019aee:    f7fffca9    ....    BL       am_hal_interrupt_master_set ; 0x19444
        0x00019af2:    e03d        =.      B        0x19b70 ; am_hal_pwrctrl_control + 488
        0x00019af4:    2406        .$      MOVS     r4,#6
        0x00019af6:    4620         F      MOV      r0,r4
        0x00019af8:    b004        ..      ADD      sp,sp,#0x10
        0x00019afa:    bd70        p.      POP      {r4-r6,pc}
        0x00019afc:    f2411000    A...    MOVW     r0,#0x1100
        0x00019b00:    f2c40002    ....    MOVT     r0,#0x4002
        0x00019b04:    f8500cf8    P...    LDR      r0,[r0,#-0xf8]
        0x00019b08:    02c0        ..      LSLS     r0,r0,#11
        0x00019b0a:    d425        %.      BMI      0x19b58 ; am_hal_pwrctrl_control + 464
        0x00019b0c:    2400        .$      MOVS     r4,#0
        0x00019b0e:    4620         F      MOV      r0,r4
        0x00019b10:    b004        ..      ADD      sp,sp,#0x10
        0x00019b12:    bd70        p.      POP      {r4-r6,pc}
        0x00019b14:    f64f50ac    O..P    MOV      r0,#0xfdac
        0x00019b18:    f2403178    @.x1    MOVW     r1,#0x378
        0x00019b1c:    f6cf70ff    ...p    MOVT     r0,#0xffff
        0x00019b20:    f2c40102    ....    MOVT     r1,#0x4002
        0x00019b24:    580a        .X      LDR      r2,[r1,r0]
        0x00019b26:    2320         #      MOVS     r3,#0x20
        0x00019b28:    f3630287    c...    BFI      r2,r3,#2,#6
        0x00019b2c:    500a        .P      STR      r2,[r1,r0]
        0x00019b2e:    f64f50a8    O..P    MOV      r0,#0xfda8
        0x00019b32:    f6cf70ff    ...p    MOVT     r0,#0xffff
        0x00019b36:    2201        ."      MOVS     r2,#1
        0x00019b38:    500a        .P      STR      r2,[r1,r0]
        0x00019b3a:    2400        .$      MOVS     r4,#0
        0x00019b3c:    4620         F      MOV      r0,r4
        0x00019b3e:    b004        ..      ADD      sp,sp,#0x10
        0x00019b40:    bd70        p.      POP      {r4-r6,pc}
        0x00019b42:    bf00        ..      NOP      
        0x00019b44:    f2403078    @.x0    MOVW     r0,#0x378
        0x00019b48:    f2c40002    ....    MOVT     r0,#0x4002
        0x00019b4c:    2400        .$      MOVS     r4,#0
        0x00019b4e:    f8c04c8c    ...L    STR      r4,[r0,#0xc8c]
        0x00019b52:    4620         F      MOV      r0,r4
        0x00019b54:    b004        ..      ADD      sp,sp,#0x10
        0x00019b56:    bd70        p.      POP      {r4-r6,pc}
        0x00019b58:    2014        .       MOVS     r0,#0x14
        0x00019b5a:    f000fa1f    ....    BL       am_hal_pwrctrl_periph_disable ; 0x19f9c
        0x00019b5e:    4604        .F      MOV      r4,r0
        0x00019b60:    2800        .(      CMP      r0,#0
        0x00019b62:    bf08        ..      IT       EQ
        0x00019b64:    2400        .$      MOVEQ    r4,#0
        0x00019b66:    4620         F      MOV      r0,r4
        0x00019b68:    b004        ..      ADD      sp,sp,#0x10
        0x00019b6a:    bd70        p.      POP      {r4-r6,pc}
        0x00019b6c:    2000        .       MOVS     r0,#0
        0x00019b6e:    6060        ``      STR      r0,[r4,#4]
        0x00019b70:    2001        .       MOVS     r0,#1
        0x00019b72:    2100        .!      MOVS     r1,#0
        0x00019b74:    2200        ."      MOVS     r2,#0
        0x00019b76:    2400        .$      MOVS     r4,#0
        0x00019b78:    f7fefce4    ....    BL       VDDF_simobuck_boost ; 0x18544
        0x00019b7c:    f2411000    A...    MOVW     r0,#0x1100
        0x00019b80:    f2c40002    ....    MOVT     r0,#0x4002
        0x00019b84:    6801        .h      LDR      r1,[r0,#0]
        0x00019b86:    f0410101    A...    ORR      r1,r1,#1
        0x00019b8a:    6001        .`      STR      r1,[r0,#0]
        0x00019b8c:    6828        (h      LDR      r0,[r5,#0]
        0x00019b8e:    f0404000    @..@    ORR      r0,r0,#0x80000000
        0x00019b92:    6028        (`      STR      r0,[r5,#0]
        0x00019b94:    f2413088    A..0    MOV      r0,#0x1388
        0x00019b98:    f7fffb0a    ....    BL       am_hal_delay_us ; 0x191b0
        0x00019b9c:    a802        ..      ADD      r0,sp,#8
        0x00019b9e:    2100        .!      MOVS     r1,#0
        0x00019ba0:    f002f98c    ....    BL       buck_interval_check ; 0x1bebc
        0x00019ba4:    2800        .(      CMP      r0,#0
        0x00019ba6:    d1a6        ..      BNE      0x19af6 ; am_hal_pwrctrl_control + 366
        0x00019ba8:    a801        ..      ADD      r0,sp,#4
        0x00019baa:    2101        .!      MOVS     r1,#1
        0x00019bac:    f002f986    ....    BL       buck_interval_check ; 0x1bebc
        0x00019bb0:    b120         .      CBZ      r0,0x19bbc ; am_hal_pwrctrl_control + 564
        0x00019bb2:    2400        .$      MOVS     r4,#0
        0x00019bb4:    4620         F      MOV      r0,r4
        0x00019bb6:    b004        ..      ADD      sp,sp,#0x10
        0x00019bb8:    bd70        p.      POP      {r4-r6,pc}
        0x00019bba:    bf00        ..      NOP      
        0x00019bbc:    f002fa22    ..".    BL       buck_ldo_override_init ; 0x1c004
        0x00019bc0:    f64010c4    @...    MOV      r0,#0x9c4
        0x00019bc4:    f7fffaf4    ....    BL       am_hal_delay_us ; 0x191b0
        0x00019bc8:    9802        ..      LDR      r0,[sp,#8]
        0x00019bca:    f002fa7d    ..}.    BL       coreldo_vddc_parallel_set ; 0x1c0c8
        0x00019bce:    9801        ..      LDR      r0,[sp,#4]
        0x00019bd0:    f003fa5e    ..^.    BL       memldo_vddf_parallel_set ; 0x1d090
        0x00019bd4:    2400        .$      MOVS     r4,#0
        0x00019bd6:    4620         F      MOV      r0,r4
        0x00019bd8:    b004        ..      ADD      sp,sp,#0x10
        0x00019bda:    bd70        p.      POP      {r4-r6,pc}
    am_hal_pwrctrl_low_power_init
        0x00019bdc:    b5b0        ..      PUSH     {r4,r5,r7,lr}
        0x00019bde:    f6452503    E..%    MOV      r5,#0x5a03
        0x00019be2:    f240347c    @.|4    MOVW     r4,#0x37c
        0x00019be6:    f6cc5573    ..sU    MOVT     r5,#0xcd73
        0x00019bea:    f2c40402    ....    MOVT     r4,#0x4002
        0x00019bee:    f7fffe71    ..q.    BL       am_hal_mram_ds_init ; 0x198d4
        0x00019bf2:    f64d40d4    M..@    MOV      r0,#0xdcd4
        0x00019bf6:    f2c00001    ....    MOVT     r0,#1
        0x00019bfa:    f000f897    ....    BL       am_hal_pwrctrl_mcu_memory_config ; 0x19d2c
        0x00019bfe:    f64d40da    M..@    MOV      r0,#0xdcda
        0x00019c02:    f2c00001    ....    MOVT     r0,#1
        0x00019c06:    f000faed    ....    BL       am_hal_pwrctrl_sram_config ; 0x1a1e4
        0x00019c0a:    f6401090    @...    MOVW     r0,#0x990
        0x00019c0e:    f2c10000    ....    MOVT     r0,#0x1000
        0x00019c12:    6801        .h      LDR      r1,[r0,#0]
        0x00019c14:    42a9        .B      CMP      r1,r5
        0x00019c16:    d052        R.      BEQ      0x19cbe ; am_hal_pwrctrl_low_power_init + 226
        0x00019c18:    f8541c40    T.@.    LDR      r1,[r4,#-0x40]
        0x00019c1c:    6041        A`      STR      r1,[r0,#4]
        0x00019c1e:    f8541c3c    T.<.    LDR      r1,[r4,#-0x3c]
        0x00019c22:    6081        .`      STR      r1,[r0,#8]
        0x00019c24:    f8541c38    T.8.    LDR      r1,[r4,#-0x38]
        0x00019c28:    60c1        .`      STR      r1,[r0,#0xc]
        0x00019c2a:    f8541c30    T.0.    LDR      r1,[r4,#-0x30]
        0x00019c2e:    6101        .a      STR      r1,[r0,#0x10]
        0x00019c30:    f8541c28    T.(.    LDR      r1,[r4,#-0x28]
        0x00019c34:    6141        Aa      STR      r1,[r0,#0x14]
        0x00019c36:    f8541c24    T.$.    LDR      r1,[r4,#-0x24]
        0x00019c3a:    6181        .a      STR      r1,[r0,#0x18]
        0x00019c3c:    f8541c1c    T...    LDR      r1,[r4,#-0x1c]
        0x00019c40:    61c1        .a      STR      r1,[r0,#0x1c]
        0x00019c42:    f8541c10    T...    LDR      r1,[r4,#-0x10]
        0x00019c46:    6201        .b      STR      r1,[r0,#0x20]
        0x00019c48:    f8541c0c    T...    LDR      r1,[r4,#-0xc]
        0x00019c4c:    6241        Ab      STR      r1,[r0,#0x24]
        0x00019c4e:    f8541c04    T...    LDR      r1,[r4,#-4]
        0x00019c52:    6281        .b      STR      r1,[r0,#0x28]
        0x00019c54:    f64f5104    O..Q    MOV      r1,#0xfd04
        0x00019c58:    f6cf71ff    ...q    MOVT     r1,#0xffff
        0x00019c5c:    5861        aX      LDR      r1,[r4,r1]
        0x00019c5e:    62c1        .b      STR      r1,[r0,#0x2c]
        0x00019c60:    f64f510c    O..Q    MOV      r1,#0xfd0c
        0x00019c64:    f6cf71ff    ...q    MOVT     r1,#0xffff
        0x00019c68:    5861        aX      LDR      r1,[r4,r1]
        0x00019c6a:    6301        .c      STR      r1,[r0,#0x30]
        0x00019c6c:    f64f41c8    O..A    MOV      r1,#0xfcc8
        0x00019c70:    f6cf71ff    ...q    MOVT     r1,#0xffff
        0x00019c74:    5861        aX      LDR      r1,[r4,r1]
        0x00019c76:    6341        Ac      STR      r1,[r0,#0x34]
        0x00019c78:    6821        !h      LDR      r1,[r4,#0]
        0x00019c7a:    6381        .c      STR      r1,[r0,#0x38]
        0x00019c7c:    6861        ah      LDR      r1,[r4,#4]
        0x00019c7e:    63c1        .c      STR      r1,[r0,#0x3c]
        0x00019c80:    f64f41e4    O..A    MOV      r1,#0xfce4
        0x00019c84:    f6cf71ff    ...q    MOVT     r1,#0xffff
        0x00019c88:    5861        aX      LDR      r1,[r4,r1]
        0x00019c8a:    6401        .d      STR      r1,[r0,#0x40]
        0x00019c8c:    f64f41ac    O..A    MOV      r1,#0xfcac
        0x00019c90:    f6cf71ff    ...q    MOVT     r1,#0xffff
        0x00019c94:    5861        aX      LDR      r1,[r4,r1]
        0x00019c96:    6441        Ad      STR      r1,[r0,#0x44]
        0x00019c98:    f64f51a8    O..Q    MOV      r1,#0xfda8
        0x00019c9c:    f6cf71ff    ...q    MOVT     r1,#0xffff
        0x00019ca0:    5861        aX      LDR      r1,[r4,r1]
        0x00019ca2:    6481        .d      STR      r1,[r0,#0x48]
        0x00019ca4:    f64f518c    O..Q    MOV      r1,#0xfd8c
        0x00019ca8:    f6cf71ff    ...q    MOVT     r1,#0xffff
        0x00019cac:    5861        aX      LDR      r1,[r4,r1]
        0x00019cae:    64c1        .d      STR      r1,[r0,#0x4c]
        0x00019cb0:    f240412c    @.,A    MOV      r1,#0x42c
        0x00019cb4:    f2c40102    ....    MOVT     r1,#0x4002
        0x00019cb8:    6809        .h      LDR      r1,[r1,#0]
        0x00019cba:    6005        .`      STR      r5,[r0,#0]
        0x00019cbc:    6501        .e      STR      r1,[r0,#0x50]
        0x00019cbe:    f2440544    D.D.    MOV      r5,#0x4044
        0x00019cc2:    f2c40500    ....    MOVT     r5,#0x4000
        0x00019cc6:    6828        (h      LDR      r0,[r5,#0]
        0x00019cc8:    213e        >!      MOVS     r1,#0x3e
        0x00019cca:    f3614099    a..@    BFI      r0,r1,#18,#8
        0x00019cce:    6028        (`      STR      r0,[r5,#0]
        0x00019cd0:    f2411040    A.@.    MOVW     r0,#0x1140
        0x00019cd4:    f2c40002    ....    MOVT     r0,#0x4002
        0x00019cd8:    2100        .!      MOVS     r1,#0
        0x00019cda:    6001        .`      STR      r1,[r0,#0]
        0x00019cdc:    6041        A`      STR      r1,[r0,#4]
        0x00019cde:    6081        .`      STR      r1,[r0,#8]
        0x00019ce0:    60c1        .`      STR      r1,[r0,#0xc]
        0x00019ce2:    6101        .a      STR      r1,[r0,#0x10]
        0x00019ce4:    6141        Aa      STR      r1,[r0,#0x14]
        0x00019ce6:    6181        .a      STR      r1,[r0,#0x18]
        0x00019ce8:    61c1        .a      STR      r1,[r0,#0x1c]
        0x00019cea:    6201        .b      STR      r1,[r0,#0x20]
        0x00019cec:    6241        Ab      STR      r1,[r0,#0x24]
        0x00019cee:    6281        .b      STR      r1,[r0,#0x28]
        0x00019cf0:    62c1        .b      STR      r1,[r0,#0x2c]
        0x00019cf2:    6301        .c      STR      r1,[r0,#0x30]
        0x00019cf4:    6341        Ac      STR      r1,[r0,#0x34]
        0x00019cf6:    6381        .c      STR      r1,[r0,#0x38]
        0x00019cf8:    63c1        .c      STR      r1,[r0,#0x3c]
        0x00019cfa:    6401        .d      STR      r1,[r0,#0x40]
        0x00019cfc:    6441        Ad      STR      r1,[r0,#0x44]
        0x00019cfe:    6481        .d      STR      r1,[r0,#0x48]
        0x00019d00:    f64d2045    M.E     MOV      r0,#0xda45
        0x00019d04:    f2c00001    ....    MOVT     r0,#1
        0x00019d08:    f7fff822    ..".    BL       am_hal_daxi_config ; 0x18d50
        0x00019d0c:    2064        d       MOVS     r0,#0x64
        0x00019d0e:    f7fffa4f    ..O.    BL       am_hal_delay_us ; 0x191b0
        0x00019d12:    6828        (h      LDR      r0,[r5,#0]
        0x00019d14:    f0400040    @.@.    ORR      r0,r0,#0x40
        0x00019d18:    6028        (`      STR      r0,[r5,#0]
        0x00019d1a:    6820         h      LDR      r0,[r4,#0]
        0x00019d1c:    f04060b0    @..`    ORR      r0,r0,#0x5800000
        0x00019d20:    f44001fd    @...    ORR      r1,r0,#0x7e8000
        0x00019d24:    2000        .       MOVS     r0,#0
        0x00019d26:    6021        !`      STR      r1,[r4,#0]
        0x00019d28:    bdb0        ..      POP      {r4,r5,r7,pc}
        0x00019d2a:    0000        ..      MOVS     r0,r0
    am_hal_pwrctrl_mcu_memory_config
        0x00019d2c:    b570        p.      PUSH     {r4-r6,lr}
        0x00019d2e:    b082        ..      SUB      sp,sp,#8
        0x00019d30:    4606        .F      MOV      r6,r0
        0x00019d32:    7800        .x      LDRB     r0,[r0,#0]
        0x00019d34:    f2410514    A...    MOV      r5,#0x1014
        0x00019d38:    2802        .(      CMP      r0,#2
        0x00019d3a:    f2c40502    ....    MOVT     r5,#0x4002
        0x00019d3e:    d007        ..      BEQ      0x19d50 ; am_hal_pwrctrl_mcu_memory_config + 36
        0x00019d40:    2801        .(      CMP      r0,#1
        0x00019d42:    d00d        ..      BEQ      0x19d60 ; am_hal_pwrctrl_mcu_memory_config + 52
        0x00019d44:    b9a0        ..      CBNZ     r0,0x19d70 ; am_hal_pwrctrl_mcu_memory_config + 68
        0x00019d46:    6828        (h      LDR      r0,[r5,#0]
        0x00019d48:    f0200010     ...    BIC      r0,r0,#0x10
        0x00019d4c:    e00b        ..      B        0x19d66 ; am_hal_pwrctrl_mcu_memory_config + 58
        0x00019d4e:    bf00        ..      NOP      
        0x00019d50:    6828        (h      LDR      r0,[r5,#0]
        0x00019d52:    f0400010    @...    ORR      r0,r0,#0x10
        0x00019d56:    6028        (`      STR      r0,[r5,#0]
        0x00019d58:    6828        (h      LDR      r0,[r5,#0]
        0x00019d5a:    f0400020    @. .    ORR      r0,r0,#0x20
        0x00019d5e:    e006        ..      B        0x19d6e ; am_hal_pwrctrl_mcu_memory_config + 66
        0x00019d60:    6828        (h      LDR      r0,[r5,#0]
        0x00019d62:    f0400010    @...    ORR      r0,r0,#0x10
        0x00019d66:    6028        (`      STR      r0,[r5,#0]
        0x00019d68:    6828        (h      LDR      r0,[r5,#0]
        0x00019d6a:    f0200020     . .    BIC      r0,r0,#0x20
        0x00019d6e:    6028        (`      STR      r0,[r5,#0]
        0x00019d70:    78b0        .x      LDRB     r0,[r6,#2]
        0x00019d72:    6829        )h      LDR      r1,[r5,#0]
        0x00019d74:    2401        .$      MOVS     r4,#1
        0x00019d76:    f3600102    `...    BFI      r1,r0,#0,#3
        0x00019d7a:    6029        )`      STR      r1,[r5,#0]
        0x00019d7c:    7930        0y      LDRB     r0,[r6,#4]
        0x00019d7e:    6829        )h      LDR      r1,[r5,#0]
        0x00019d80:    f000001f    ....    AND      r0,r0,#0x1f
        0x00019d84:    f0210108    !...    BIC      r1,r1,#8
        0x00019d88:    ea4100c0    A...    ORR      r0,r1,r0,LSL #3
        0x00019d8c:    6028        (`      STR      r0,[r5,#0]
        0x00019d8e:    4629        )F      MOV      r1,r5
        0x00019d90:    f8513b04    Q..;    LDR      r3,[r1],#4
        0x00019d94:    2005        .       MOVS     r0,#5
        0x00019d96:    223f        ?"      MOVS     r2,#0x3f
        0x00019d98:    9400        ..      STR      r4,[sp,#0]
        0x00019d9a:    f7fffa51    ..Q.    BL       am_hal_delay_us_status_check ; 0x19240
        0x00019d9e:    b108        ..      CBZ      r0,0x19da4 ; am_hal_pwrctrl_mcu_memory_config + 120
        0x00019da0:    b002        ..      ADD      sp,sp,#8
        0x00019da2:    bd70        p.      POP      {r4-r6,pc}
        0x00019da4:    6868        hh      LDR      r0,[r5,#4]
        0x00019da6:    6829        )h      LDR      r1,[r5,#0]
        0x00019da8:    4048        H@      EORS     r0,r0,r1
        0x00019daa:    06c0        ..      LSLS     r0,r0,#27
        0x00019dac:    d42e        ..      BMI      0x19e0c ; am_hal_pwrctrl_mcu_memory_config + 224
        0x00019dae:    6868        hh      LDR      r0,[r5,#4]
        0x00019db0:    6829        )h      LDR      r1,[r5,#0]
        0x00019db2:    4048        H@      EORS     r0,r0,r1
        0x00019db4:    0680        ..      LSLS     r0,r0,#26
        0x00019db6:    d429        ).      BMI      0x19e0c ; am_hal_pwrctrl_mcu_memory_config + 224
        0x00019db8:    6868        hh      LDR      r0,[r5,#4]
        0x00019dba:    6829        )h      LDR      r1,[r5,#0]
        0x00019dbc:    4048        H@      EORS     r0,r0,r1
        0x00019dbe:    0740        @.      LSLS     r0,r0,#29
        0x00019dc0:    d124        $.      BNE      0x19e0c ; am_hal_pwrctrl_mcu_memory_config + 224
        0x00019dc2:    6868        hh      LDR      r0,[r5,#4]
        0x00019dc4:    6829        )h      LDR      r1,[r5,#0]
        0x00019dc6:    4048        H@      EORS     r0,r0,r1
        0x00019dc8:    0700        ..      LSLS     r0,r0,#28
        0x00019dca:    d41f        ..      BMI      0x19e0c ; am_hal_pwrctrl_mcu_memory_config + 224
        0x00019dcc:    7870        px      LDRB     r0,[r6,#1]
        0x00019dce:    68a9        .h      LDR      r1,[r5,#8]
        0x00019dd0:    2800        .(      CMP      r0,#0
        0x00019dd2:    f0210110    !...    BIC      r1,r1,#0x10
        0x00019dd6:    bf08        ..      IT       EQ
        0x00019dd8:    3110        .1      ADDEQ    r1,r1,#0x10
        0x00019dda:    60a9        .`      STR      r1,[r5,#8]
        0x00019ddc:    7970        py      LDRB     r0,[r6,#5]
        0x00019dde:    68a9        .h      LDR      r1,[r5,#8]
        0x00019de0:    2800        .(      CMP      r0,#0
        0x00019de2:    f0210108    !...    BIC      r1,r1,#8
        0x00019de6:    bf08        ..      IT       EQ
        0x00019de8:    3108        .1      ADDEQ    r1,r1,#8
        0x00019dea:    60a9        .`      STR      r1,[r5,#8]
        0x00019dec:    78f1        .x      LDRB     r1,[r6,#3]
        0x00019dee:    2000        .       MOVS     r0,#0
        0x00019df0:    2907        .)      CMP      r1,#7
        0x00019df2:    d8d5        ..      BHI      0x19da0 ; am_hal_pwrctrl_mcu_memory_config + 116
        0x00019df4:    e8dff001    ....    TBB      [pc,r1]
    $d.6
        0x00019df8:    14040e06    ....    DCD    335810054
        0x00019dfc:    1a040404    ....    DCD    436470788
    $t.7
        0x00019e00:    e7ce        ..      B        0x19da0 ; am_hal_pwrctrl_mcu_memory_config + 116
        0x00019e02:    bf00        ..      NOP      
        0x00019e04:    68a8        .h      LDR      r0,[r5,#8]
        0x00019e06:    f0400007    @...    ORR      r0,r0,#7
        0x00019e0a:    e012        ..      B        0x19e32 ; am_hal_pwrctrl_mcu_memory_config + 262
        0x00019e0c:    2001        .       MOVS     r0,#1
        0x00019e0e:    b002        ..      ADD      sp,sp,#8
        0x00019e10:    bd70        p.      POP      {r4-r6,pc}
        0x00019e12:    bf00        ..      NOP      
        0x00019e14:    68a8        .h      LDR      r0,[r5,#8]
        0x00019e16:    2106        .!      MOVS     r1,#6
        0x00019e18:    f3610002    a...    BFI      r0,r1,#0,#3
        0x00019e1c:    e009        ..      B        0x19e32 ; am_hal_pwrctrl_mcu_memory_config + 262
        0x00019e1e:    bf00        ..      NOP      
        0x00019e20:    68a8        .h      LDR      r0,[r5,#8]
        0x00019e22:    2104        .!      MOVS     r1,#4
        0x00019e24:    f3610002    a...    BFI      r0,r1,#0,#3
        0x00019e28:    e003        ..      B        0x19e32 ; am_hal_pwrctrl_mcu_memory_config + 262
        0x00019e2a:    bf00        ..      NOP      
        0x00019e2c:    68a8        .h      LDR      r0,[r5,#8]
        0x00019e2e:    f0200007     ...    BIC      r0,r0,#7
        0x00019e32:    60a8        .`      STR      r0,[r5,#8]
        0x00019e34:    2000        .       MOVS     r0,#0
        0x00019e36:    b002        ..      ADD      sp,sp,#8
        0x00019e38:    bd70        p.      POP      {r4-r6,pc}
        0x00019e3a:    0000        ..      MOVS     r0,r0
    am_hal_pwrctrl_mcu_mode_select
        0x00019e3c:    e92d41f0    -..A    PUSH     {r4-r8,lr}
        0x00019e40:    4604        .F      MOV      r4,r0
        0x00019e42:    3803        .8      SUBS     r0,#3
        0x00019e44:    f1100f02    ....    CMN      r0,#2
        0x00019e48:    bf3c        <.      ITT      CC
        0x00019e4a:    2006        .       MOVCC    r0,#6
        0x00019e4c:    e8bd81f0    ....    POPCC    {r4-r8,pc}
        0x00019e50:    2c02        .,      CMP      r4,#2
        0x00019e52:    d10c        ..      BNE      0x19e6e ; am_hal_pwrctrl_mcu_mode_select + 50
        0x00019e54:    f2410000    A...    MOVW     r0,#0x1000
        0x00019e58:    f2c40002    ....    MOVT     r0,#0x4002
        0x00019e5c:    f8d00108    ....    LDR      r0,[r0,#0x108]
        0x00019e60:    f0000030    ..0.    AND      r0,r0,#0x30
        0x00019e64:    2830        0(      CMP      r0,#0x30
        0x00019e66:    bf1c        ..      ITT      NE
        0x00019e68:    2007        .       MOVNE    r0,#7
        0x00019e6a:    e8bd81f0    ....    POPNE    {r4-r8,pc}
        0x00019e6e:    f2400718    @...    MOVW     r7,#0x18
        0x00019e72:    f2c10700    ....    MOVT     r7,#0x1000
        0x00019e76:    7838        8x      LDRB     r0,[r7,#0]
        0x00019e78:    42a0        .B      CMP      r0,r4
        0x00019e7a:    bf04        ..      ITT      EQ
        0x00019e7c:    2000        .       MOVEQ    r0,#0
        0x00019e7e:    e8bd81f0    ....    POPEQ    {r4-r8,pc}
        0x00019e82:    f2400888    @...    MOVW     r8,#0x88
        0x00019e86:    f2c40802    ....    MOVT     r8,#0x4002
        0x00019e8a:    703c        <p      STRB     r4,[r7,#0]
        0x00019e8c:    f8580c7c    X.|.    LDR      r0,[r8,#-0x7c]
        0x00019e90:    b2c6        ..      UXTB     r6,r0
        0x00019e92:    2e21        !.      CMP      r6,#0x21
        0x00019e94:    d116        ..      BNE      0x19ec4 ; am_hal_pwrctrl_mcu_mode_select + 136
        0x00019e96:    f2440044    D.D.    MOV      r0,#0x4044
        0x00019e9a:    f2c40000    ....    MOVT     r0,#0x4000
        0x00019e9e:    6801        .h      LDR      r1,[r0,#0]
        0x00019ea0:    2c02        .,      CMP      r4,#2
        0x00019ea2:    d109        ..      BNE      0x19eb8 ; am_hal_pwrctrl_mcu_mode_select + 124
        0x00019ea4:    f0410110    A...    ORR      r1,r1,#0x10
        0x00019ea8:    6001        .`      STR      r1,[r0,#0]
        0x00019eaa:    f8d802f8    ....    LDR      r0,[r8,#0x2f8]
        0x00019eae:    f0407000    @..p    ORR      r0,r0,#0x2000000
        0x00019eb2:    f8c802f8    ....    STR      r0,[r8,#0x2f8]
        0x00019eb6:    e002        ..      B        0x19ebe ; am_hal_pwrctrl_mcu_mode_select + 130
        0x00019eb8:    f0410108    A...    ORR      r1,r1,#8
        0x00019ebc:    6001        .`      STR      r1,[r0,#0]
        0x00019ebe:    200a        .       MOVS     r0,#0xa
        0x00019ec0:    f7fff976    ..v.    BL       am_hal_delay_us ; 0x191b0
        0x00019ec4:    2c02        .,      CMP      r4,#2
        0x00019ec6:    d107        ..      BNE      0x19ed8 ; am_hal_pwrctrl_mcu_mode_select + 156
        0x00019ec8:    2001        .       MOVS     r0,#1
        0x00019eca:    2107        .!      MOVS     r1,#7
        0x00019ecc:    2203        ."      MOVS     r2,#3
        0x00019ece:    f7fefb39    ..9.    BL       VDDF_simobuck_boost ; 0x18544
        0x00019ed2:    2001        .       MOVS     r0,#1
        0x00019ed4:    f7fefaee    ....    BL       MemLDOActiveTrim_boost ; 0x184b4
        0x00019ed8:    f2410500    A...    MOVW     r5,#0x1000
        0x00019edc:    f2c40502    ....    MOVT     r5,#0x4002
        0x00019ee0:    4628        (F      MOV      r0,r5
        0x00019ee2:    f04f31ff    O..1    MOV      r1,#0xffffffff
        0x00019ee6:    4622        "F      MOV      r2,r4
        0x00019ee8:    230a        .#      MOVS     r3,#0xa
        0x00019eea:    f001fb53    ..S.    BL       am_hal_util_write_and_wait ; 0x1b594
        0x00019eee:    2800        .(      CMP      r0,#0
        0x00019ef0:    bf18        ..      IT       NE
        0x00019ef2:    e8bd81f0    ....    POPNE    {r4-r8,pc}
        0x00019ef6:    6828        (h      LDR      r0,[r5,#0]
        0x00019ef8:    0740        @.      LSLS     r0,r0,#29
        0x00019efa:    d41d        ..      BMI      0x19f38 ; am_hal_pwrctrl_mcu_mode_select + 252
        0x00019efc:    2001        .       MOVS     r0,#1
        0x00019efe:    f7fff957    ..W.    BL       am_hal_delay_us ; 0x191b0
        0x00019f02:    6828        (h      LDR      r0,[r5,#0]
        0x00019f04:    0740        @.      LSLS     r0,r0,#29
        0x00019f06:    d417        ..      BMI      0x19f38 ; am_hal_pwrctrl_mcu_mode_select + 252
        0x00019f08:    2001        .       MOVS     r0,#1
        0x00019f0a:    f7fff951    ..Q.    BL       am_hal_delay_us ; 0x191b0
        0x00019f0e:    6828        (h      LDR      r0,[r5,#0]
        0x00019f10:    0740        @.      LSLS     r0,r0,#29
        0x00019f12:    d411        ..      BMI      0x19f38 ; am_hal_pwrctrl_mcu_mode_select + 252
        0x00019f14:    2001        .       MOVS     r0,#1
        0x00019f16:    f7fff94b    ..K.    BL       am_hal_delay_us ; 0x191b0
        0x00019f1a:    6828        (h      LDR      r0,[r5,#0]
        0x00019f1c:    0740        @.      LSLS     r0,r0,#29
        0x00019f1e:    d40b        ..      BMI      0x19f38 ; am_hal_pwrctrl_mcu_mode_select + 252
        0x00019f20:    2001        .       MOVS     r0,#1
        0x00019f22:    f7fff945    ..E.    BL       am_hal_delay_us ; 0x191b0
        0x00019f26:    6828        (h      LDR      r0,[r5,#0]
        0x00019f28:    0740        @.      LSLS     r0,r0,#29
        0x00019f2a:    d405        ..      BMI      0x19f38 ; am_hal_pwrctrl_mcu_mode_select + 252
        0x00019f2c:    2001        .       MOVS     r0,#1
        0x00019f2e:    f7fff93f    ..?.    BL       am_hal_delay_us ; 0x191b0
        0x00019f32:    2004        .       MOVS     r0,#4
        0x00019f34:    e8bd81f0    ....    POP      {r4-r8,pc}
        0x00019f38:    2c01        .,      CMP      r4,#1
        0x00019f3a:    d115        ..      BNE      0x19f68 ; am_hal_pwrctrl_mcu_mode_select + 300
        0x00019f3c:    f8d81000    ....    LDR      r1,[r8,#0]
        0x00019f40:    6978        xi      LDR      r0,[r7,#0x14]
        0x00019f42:    f001013f    ..?.    AND      r1,r1,#0x3f
        0x00019f46:    1c42        B.      ADDS     r2,r0,#1
        0x00019f48:    d008        ..      BEQ      0x19f5c ; am_hal_pwrctrl_mcu_mode_select + 288
        0x00019f4a:    4281        .B      CMP      r1,r0
        0x00019f4c:    d007        ..      BEQ      0x19f5e ; am_hal_pwrctrl_mcu_mode_select + 290
        0x00019f4e:    f8d81000    ....    LDR      r1,[r8,#0]
        0x00019f52:    f3600105    `...    BFI      r1,r0,#0,#6
        0x00019f56:    f8c81000    ....    STR      r1,[r8,#0]
        0x00019f5a:    e000        ..      B        0x19f5e ; am_hal_pwrctrl_mcu_mode_select + 290
        0x00019f5c:    6179        ya      STR      r1,[r7,#0x14]
        0x00019f5e:    2000        .       MOVS     r0,#0
        0x00019f60:    2100        .!      MOVS     r1,#0
        0x00019f62:    2200        ."      MOVS     r2,#0
        0x00019f64:    f7fefaee    ....    BL       VDDF_simobuck_boost ; 0x18544
        0x00019f68:    2e21        !.      CMP      r6,#0x21
        0x00019f6a:    d10f        ..      BNE      0x19f8c ; am_hal_pwrctrl_mcu_mode_select + 336
        0x00019f6c:    f2440044    D.D.    MOV      r0,#0x4044
        0x00019f70:    f2c40000    ....    MOVT     r0,#0x4000
        0x00019f74:    6801        .h      LDR      r1,[r0,#0]
        0x00019f76:    f06f0208    o...    MVN      r2,#8
        0x00019f7a:    2c02        .,      CMP      r4,#2
        0x00019f7c:    bf08        ..      IT       EQ
        0x00019f7e:    f06f0210    o...    MVNEQ    r2,#0x10
        0x00019f82:    4011        .@      ANDS     r1,r1,r2
        0x00019f84:    6001        .`      STR      r1,[r0,#0]
        0x00019f86:    200a        .       MOVS     r0,#0xa
        0x00019f88:    f7fff912    ....    BL       am_hal_delay_us ; 0x191b0
        0x00019f8c:    6828        (h      LDR      r0,[r5,#0]
        0x00019f8e:    f3c000c1    ....    UBFX     r0,r0,#3,#2
        0x00019f92:    1b00        ..      SUBS     r0,r0,r4
        0x00019f94:    bf18        ..      IT       NE
        0x00019f96:    2001        .       MOVNE    r0,#1
        0x00019f98:    e8bd81f0    ....    POP      {r4-r8,pc}
    am_hal_pwrctrl_periph_disable
        0x00019f9c:    e92d41f0    -..A    PUSH     {r4-r8,lr}
        0x00019fa0:    b082        ..      SUB      sp,sp,#8
        0x00019fa2:    2821        !(      CMP      r0,#0x21
        0x00019fa4:    d904        ..      BLS      0x19fb0 ; am_hal_pwrctrl_periph_disable + 20
        0x00019fa6:    2406        .$      MOVS     r4,#6
        0x00019fa8:    4620         F      MOV      r0,r4
        0x00019faa:    b002        ..      ADD      sp,sp,#8
        0x00019fac:    e8bd81f0    ....    POP      {r4-r8,pc}
        0x00019fb0:    f64d2154    M.T!    MOV      r1,#0xda54
        0x00019fb4:    f2c00101    ....    MOVT     r1,#1
        0x00019fb8:    eb011100    ....    ADD      r1,r1,r0,LSL #4
        0x00019fbc:    e9d16502    ...e    LDRD     r6,r5,[r1,#8]
        0x00019fc0:    2814        .(      CMP      r0,#0x14
        0x00019fc2:    d139        9.      BNE      0x1a038 ; am_hal_pwrctrl_periph_disable + 156
        0x00019fc4:    f64077e0    @..w    MOVW     r7,#0xfe0
        0x00019fc8:    f2c4070c    ....    MOVT     r7,#0x400c
        0x00019fcc:    6838        8h      LDR      r0,[r7,#0]
        0x00019fce:    28c0        .(      CMP      r0,#0xc0
        0x00019fd0:    d120         .      BNE      0x1a014 ; am_hal_pwrctrl_periph_disable + 120
        0x00019fd2:    f6402880    @..(    MOVW     r8,#0xa80
        0x00019fd6:    f2c4080c    ....    MOVT     r8,#0x400c
        0x00019fda:    f1a80104    ....    SUB      r1,r8,#4
        0x00019fde:    2064        d       MOVS     r0,#0x64
        0x00019fe0:    2201        ."      MOVS     r2,#1
        0x00019fe2:    2301        .#      MOVS     r3,#1
        0x00019fe4:    f7fff900    ....    BL       am_hal_delay_us_status_change ; 0x191e8
        0x00019fe8:    4604        .F      MOV      r4,r0
        0x00019fea:    2800        .(      CMP      r0,#0
        0x00019fec:    d15e        ^.      BNE      0x1a0ac ; am_hal_pwrctrl_periph_disable + 272
        0x00019fee:    f5076173    ..sa    ADD      r1,r7,#0xf30
        0x00019ff2:    2064        d       MOVS     r0,#0x64
        0x00019ff4:    2201        ."      MOVS     r2,#1
        0x00019ff6:    2301        .#      MOVS     r3,#1
        0x00019ff8:    f7fff8f6    ....    BL       am_hal_delay_us_status_change ; 0x191e8
        0x00019ffc:    4604        .F      MOV      r4,r0
        0x00019ffe:    2800        .(      CMP      r0,#0
        0x0001a000:    d154        T.      BNE      0x1a0ac ; am_hal_pwrctrl_periph_disable + 272
        0x0001a002:    f8d80000    ....    LDR      r0,[r8,#0]
        0x0001a006:    f0400001    @...    ORR      r0,r0,#1
        0x0001a00a:    f8c80000    ....    STR      r0,[r8,#0]
        0x0001a00e:    200f        .       MOVS     r0,#0xf
        0x0001a010:    f7fff8ce    ....    BL       am_hal_delay_us ; 0x191b0
        0x0001a014:    f2410008    A...    MOV      r0,#0x1008
        0x0001a018:    f2c40002    ....    MOVT     r0,#0x4002
        0x0001a01c:    3804        .8      SUBS     r0,#4
        0x0001a01e:    f44f1180    O...    MOV      r1,#0x100000
        0x0001a022:    2200        ."      MOVS     r2,#0
        0x0001a024:    2310        .#      MOVS     r3,#0x10
        0x0001a026:    f001fab5    ....    BL       am_hal_util_write_and_wait ; 0x1b594
        0x0001a02a:    6830        0h      LDR      r0,[r6,#0]
        0x0001a02c:    ea100405    ....    ANDS     r4,r0,r5
        0x0001a030:    bf18        ..      IT       NE
        0x0001a032:    2401        .$      MOVNE    r4,#1
        0x0001a034:    e03a        :.      B        0x1a0ac ; am_hal_pwrctrl_periph_disable + 272
        0x0001a036:    bf00        ..      NOP      
        0x0001a038:    e9d17400    ...t    LDRD     r7,r4,[r1,#0]
        0x0001a03c:    f7fff9fe    ....    BL       am_hal_interrupt_master_disable ; 0x1943c
        0x0001a040:    9001        ..      STR      r0,[sp,#4]
        0x0001a042:    6838        8h      LDR      r0,[r7,#0]
        0x0001a044:    43a0        .C      BICS     r0,r0,r4
        0x0001a046:    6038        8`      STR      r0,[r7,#0]
        0x0001a048:    9801        ..      LDR      r0,[sp,#4]
        0x0001a04a:    f7fff9fb    ....    BL       am_hal_interrupt_master_set ; 0x19444
        0x0001a04e:    2400        .$      MOVS     r4,#0
        0x0001a050:    2005        .       MOVS     r0,#5
        0x0001a052:    4631        1F      MOV      r1,r6
        0x0001a054:    462a        *F      MOV      r2,r5
        0x0001a056:    462b        +F      MOV      r3,r5
        0x0001a058:    9400        ..      STR      r4,[sp,#0]
        0x0001a05a:    f7fff8f1    ....    BL       am_hal_delay_us_status_check ; 0x19240
        0x0001a05e:    b328        (.      CBZ      r0,0x1a0ac ; am_hal_pwrctrl_periph_disable + 272
        0x0001a060:    f5b57ff0    ....    CMP      r5,#0x1e0
        0x0001a064:    f04f0400    O...    MOV      r4,#0
        0x0001a068:    db0c        ..      BLT      0x1a084 ; am_hal_pwrctrl_periph_disable + 232
        0x0001a06a:    d013        ..      BEQ      0x1a094 ; am_hal_pwrctrl_periph_disable + 248
        0x0001a06c:    f5b53fe0    ...?    CMP      r5,#0x1c000
        0x0001a070:    d016        ..      BEQ      0x1a0a0 ; am_hal_pwrctrl_periph_disable + 260
        0x0001a072:    f5b55ff0    ..._    CMP      r5,#0x1e00
        0x0001a076:    d119        ..      BNE      0x1a0ac ; am_hal_pwrctrl_periph_disable + 272
        0x0001a078:    6838        8h      LDR      r0,[r7,#0]
        0x0001a07a:    f4105ff0    ..._    TST      r0,#0x1e00
        0x0001a07e:    d113        ..      BNE      0x1a0a8 ; am_hal_pwrctrl_periph_disable + 268
        0x0001a080:    e013        ..      B        0x1a0aa ; am_hal_pwrctrl_periph_disable + 270
        0x0001a082:    bf00        ..      NOP      
        0x0001a084:    2d1e        .-      CMP      r5,#0x1e
        0x0001a086:    d029        ).      BEQ      0x1a0dc ; am_hal_pwrctrl_periph_disable + 320
        0x0001a088:    2dff        .-      CMP      r5,#0xff
        0x0001a08a:    d10f        ..      BNE      0x1a0ac ; am_hal_pwrctrl_periph_disable + 272
        0x0001a08c:    6838        8h      LDR      r0,[r7,#0]
        0x0001a08e:    0600        ..      LSLS     r0,r0,#24
        0x0001a090:    d10a        ..      BNE      0x1a0a8 ; am_hal_pwrctrl_periph_disable + 268
        0x0001a092:    e00a        ..      B        0x1a0aa ; am_hal_pwrctrl_periph_disable + 270
        0x0001a094:    6838        8h      LDR      r0,[r7,#0]
        0x0001a096:    f4107ff0    ....    TST      r0,#0x1e0
        0x0001a09a:    bf18        ..      IT       NE
        0x0001a09c:    6838        8h      LDRNE    r0,[r7,#0]
        0x0001a09e:    e004        ..      B        0x1a0aa ; am_hal_pwrctrl_periph_disable + 270
        0x0001a0a0:    6838        8h      LDR      r0,[r7,#0]
        0x0001a0a2:    f4103fe0    ...?    TST      r0,#0x1c000
        0x0001a0a6:    d000        ..      BEQ      0x1a0aa ; am_hal_pwrctrl_periph_disable + 270
        0x0001a0a8:    6838        8h      LDR      r0,[r7,#0]
        0x0001a0aa:    2400        .$      MOVS     r4,#0
        0x0001a0ac:    f2440020    D. .    MOV      r0,#0x4020
        0x0001a0b0:    f2c40000    ....    MOVT     r0,#0x4000
        0x0001a0b4:    6800        .h      LDR      r0,[r0,#0]
        0x0001a0b6:    07c0        ..      LSLS     r0,r0,#31
        0x0001a0b8:    f43faf76    ?.v.    BEQ      0x19fa8 ; am_hal_pwrctrl_periph_disable + 12
        0x0001a0bc:    f2410008    A...    MOV      r0,#0x1008
        0x0001a0c0:    f2c40002    ....    MOVT     r0,#0x4002
        0x0001a0c4:    6800        .h      LDR      r0,[r0,#0]
        0x0001a0c6:    2800        .(      CMP      r0,#0
        0x0001a0c8:    f47faf6e    ..n.    BNE      0x19fa8 ; am_hal_pwrctrl_periph_disable + 12
        0x0001a0cc:    2003        .       MOVS     r0,#3
        0x0001a0ce:    2100        .!      MOVS     r1,#0
        0x0001a0d0:    f7fefc92    ....    BL       am_hal_clkgen_control ; 0x189f8
        0x0001a0d4:    4620         F      MOV      r0,r4
        0x0001a0d6:    b002        ..      ADD      sp,sp,#8
        0x0001a0d8:    e8bd81f0    ....    POP      {r4-r8,pc}
        0x0001a0dc:    6838        8h      LDR      r0,[r7,#0]
        0x0001a0de:    f0100f1e    ....    TST      r0,#0x1e
        0x0001a0e2:    d1e1        ..      BNE      0x1a0a8 ; am_hal_pwrctrl_periph_disable + 268
        0x0001a0e4:    e7e1        ..      B        0x1a0aa ; am_hal_pwrctrl_periph_disable + 270
        0x0001a0e6:    0000        ..      MOVS     r0,r0
    am_hal_pwrctrl_periph_enable
        0x0001a0e8:    e92d47f0    -..G    PUSH     {r4-r10,lr}
        0x0001a0ec:    b082        ..      SUB      sp,sp,#8
        0x0001a0ee:    2821        !(      CMP      r0,#0x21
        0x0001a0f0:    d902        ..      BLS      0x1a0f8 ; am_hal_pwrctrl_periph_enable + 16
        0x0001a0f2:    2406        .$      MOVS     r4,#6
        0x0001a0f4:    e072        r.      B        0x1a1dc ; am_hal_pwrctrl_periph_enable + 244
        0x0001a0f6:    bf00        ..      NOP      
        0x0001a0f8:    4604        .F      MOV      r4,r0
        0x0001a0fa:    f2440020    D. .    MOV      r0,#0x4020
        0x0001a0fe:    f2c40000    ....    MOVT     r0,#0x4000
        0x0001a102:    6800        .h      LDR      r0,[r0,#0]
        0x0001a104:    f64d2a54    M.T*    MOV      r10,#0xda54
        0x0001a108:    f2410808    A...    MOV      r8,#0x1008
        0x0001a10c:    f2c00a01    ....    MOVT     r10,#1
        0x0001a110:    f2c40802    ....    MOVT     r8,#0x4002
        0x0001a114:    07c0        ..      LSLS     r0,r0,#31
        0x0001a116:    eb0a1704    ....    ADD      r7,r10,r4,LSL #4
        0x0001a11a:    d002        ..      BEQ      0x1a122 ; am_hal_pwrctrl_periph_enable + 58
        0x0001a11c:    f8d80000    ....    LDR      r0,[r8,#0]
        0x0001a120:    b1e0        ..      CBZ      r0,0x1a15c ; am_hal_pwrctrl_periph_enable + 116
        0x0001a122:    f04f0901    O...    MOV      r9,#1
        0x0001a126:    e9d76502    ...e    LDRD     r6,r5,[r7,#8]
        0x0001a12a:    2c14        .,      CMP      r4,#0x14
        0x0001a12c:    d120         .      BNE      0x1a170 ; am_hal_pwrctrl_periph_enable + 136
        0x0001a12e:    f1a80004    ....    SUB      r0,r8,#4
        0x0001a132:    f44f1180    O...    MOV      r1,#0x100000
        0x0001a136:    f44f1280    O...    MOV      r2,#0x100000
        0x0001a13a:    2310        .#      MOVS     r3,#0x10
        0x0001a13c:    f001fa2a    ..*.    BL       am_hal_util_write_and_wait ; 0x1b594
        0x0001a140:    6830        0h      LDR      r0,[r6,#0]
        0x0001a142:    4228        (B      TST      r0,r5
        0x0001a144:    d030        0.      BEQ      0x1a1a8 ; am_hal_pwrctrl_periph_enable + 192
        0x0001a146:    f6417110    A..q    MOV      r1,#0x1f10
        0x0001a14a:    f2c4010c    ....    MOVT     r1,#0x400c
        0x0001a14e:    2064        d       MOVS     r0,#0x64
        0x0001a150:    2201        ."      MOVS     r2,#1
        0x0001a152:    2301        .#      MOVS     r3,#1
        0x0001a154:    f7fff848    ..H.    BL       am_hal_delay_us_status_change ; 0x191e8
        0x0001a158:    e020         .      B        0x1a19c ; am_hal_pwrctrl_periph_enable + 180
        0x0001a15a:    bf00        ..      NOP      
        0x0001a15c:    2003        .       MOVS     r0,#3
        0x0001a15e:    2100        .!      MOVS     r1,#0
        0x0001a160:    f04f0900    O...    MOV      r9,#0
        0x0001a164:    f7fefc48    ..H.    BL       am_hal_clkgen_control ; 0x189f8
        0x0001a168:    e9d76502    ...e    LDRD     r6,r5,[r7,#8]
        0x0001a16c:    2c14        .,      CMP      r4,#0x14
        0x0001a16e:    d0de        ..      BEQ      0x1a12e ; am_hal_pwrctrl_periph_enable + 70
        0x0001a170:    0120         .      LSLS     r0,r4,#4
        0x0001a172:    f85a4000    Z..@    LDR      r4,[r10,r0]
        0x0001a176:    687f        .h      LDR      r7,[r7,#4]
        0x0001a178:    f7fff960    ..`.    BL       am_hal_interrupt_master_disable ; 0x1943c
        0x0001a17c:    9001        ..      STR      r0,[sp,#4]
        0x0001a17e:    6820         h      LDR      r0,[r4,#0]
        0x0001a180:    4338        8C      ORRS     r0,r0,r7
        0x0001a182:    6020         `      STR      r0,[r4,#0]
        0x0001a184:    9801        ..      LDR      r0,[sp,#4]
        0x0001a186:    f7fff95d    ..].    BL       am_hal_interrupt_master_set ; 0x19444
        0x0001a18a:    2701        .'      MOVS     r7,#1
        0x0001a18c:    2005        .       MOVS     r0,#5
        0x0001a18e:    4631        1F      MOV      r1,r6
        0x0001a190:    462a        *F      MOV      r2,r5
        0x0001a192:    462b        +F      MOV      r3,r5
        0x0001a194:    9700        ..      STR      r7,[sp,#0]
        0x0001a196:    f7fff853    ..S.    BL       am_hal_delay_us_status_check ; 0x19240
        0x0001a19a:    b158        X.      CBZ      r0,0x1a1b4 ; am_hal_pwrctrl_periph_enable + 204
        0x0001a19c:    4604        .F      MOV      r4,r0
        0x0001a19e:    f1b90f00    ....    CMP      r9,#0
        0x0001a1a2:    d11b        ..      BNE      0x1a1dc ; am_hal_pwrctrl_periph_enable + 244
        0x0001a1a4:    e00e        ..      B        0x1a1c4 ; am_hal_pwrctrl_periph_enable + 220
        0x0001a1a6:    bf00        ..      NOP      
        0x0001a1a8:    2401        .$      MOVS     r4,#1
        0x0001a1aa:    f1b90f00    ....    CMP      r9,#0
        0x0001a1ae:    d115        ..      BNE      0x1a1dc ; am_hal_pwrctrl_periph_enable + 244
        0x0001a1b0:    e008        ..      B        0x1a1c4 ; am_hal_pwrctrl_periph_enable + 220
        0x0001a1b2:    bf00        ..      NOP      
        0x0001a1b4:    6830        0h      LDR      r0,[r6,#0]
        0x0001a1b6:    4028        (@      ANDS     r0,r0,r5
        0x0001a1b8:    fab0f080    ....    CLZ      r0,r0
        0x0001a1bc:    0944        D.      LSRS     r4,r0,#5
        0x0001a1be:    f1b90f00    ....    CMP      r9,#0
        0x0001a1c2:    d10b        ..      BNE      0x1a1dc ; am_hal_pwrctrl_periph_enable + 244
        0x0001a1c4:    f8d80000    ....    LDR      r0,[r8,#0]
        0x0001a1c8:    b140        @.      CBZ      r0,0x1a1dc ; am_hal_pwrctrl_periph_enable + 244
        0x0001a1ca:    2002        .       MOVS     r0,#2
        0x0001a1cc:    2100        .!      MOVS     r1,#0
        0x0001a1ce:    f7fefc13    ....    BL       am_hal_clkgen_control ; 0x189f8
        0x0001a1d2:    4620         F      MOV      r0,r4
        0x0001a1d4:    b002        ..      ADD      sp,sp,#8
        0x0001a1d6:    e8bd87f0    ....    POP      {r4-r10,pc}
        0x0001a1da:    bf00        ..      NOP      
        0x0001a1dc:    4620         F      MOV      r0,r4
        0x0001a1de:    b002        ..      ADD      sp,sp,#8
        0x0001a1e0:    e8bd87f0    ....    POP      {r4-r10,pc}
    am_hal_pwrctrl_sram_config
        0x0001a1e4:    b570        p.      PUSH     {r4-r6,lr}
        0x0001a1e6:    b082        ..      SUB      sp,sp,#8
        0x0001a1e8:    f241062c    A.,.    MOV      r6,#0x102c
        0x0001a1ec:    f2c40602    ....    MOVT     r6,#0x4002
        0x0001a1f0:    4604        .F      MOV      r4,r0
        0x0001a1f2:    7800        .x      LDRB     r0,[r0,#0]
        0x0001a1f4:    f8561c08    V...    LDR      r1,[r6,#-8]
        0x0001a1f8:    2501        .%      MOVS     r5,#1
        0x0001a1fa:    f3600101    `...    BFI      r1,r0,#0,#2
        0x0001a1fe:    f8461c08    F...    STR      r1,[r6,#-8]
        0x0001a202:    f8563c08    V..<    LDR      r3,[r6,#-8]
        0x0001a206:    1f31        1.      SUBS     r1,r6,#4
        0x0001a208:    2005        .       MOVS     r0,#5
        0x0001a20a:    2203        ."      MOVS     r2,#3
        0x0001a20c:    9500        ..      STR      r5,[sp,#0]
        0x0001a20e:    f7fff817    ....    BL       am_hal_delay_us_status_check ; 0x19240
        0x0001a212:    b108        ..      CBZ      r0,0x1a218 ; am_hal_pwrctrl_sram_config + 52
        0x0001a214:    b002        ..      ADD      sp,sp,#8
        0x0001a216:    bd70        p.      POP      {r4-r6,pc}
        0x0001a218:    f8560c04    V...    LDR      r0,[r6,#-4]
        0x0001a21c:    f8561c08    V...    LDR      r1,[r6,#-8]
        0x0001a220:    4048        H@      EORS     r0,r0,r1
        0x0001a222:    0780        ..      LSLS     r0,r0,#30
        0x0001a224:    d002        ..      BEQ      0x1a22c ; am_hal_pwrctrl_sram_config + 72
        0x0001a226:    2001        .       MOVS     r0,#1
        0x0001a228:    b002        ..      ADD      sp,sp,#8
        0x0001a22a:    bd70        p.      POP      {r4-r6,pc}
        0x0001a22c:    7860        `x      LDRB     r0,[r4,#1]
        0x0001a22e:    6831        1h      LDR      r1,[r6,#0]
        0x0001a230:    f3600183    `...    BFI      r1,r0,#2,#2
        0x0001a234:    6031        1`      STR      r1,[r6,#0]
        0x0001a236:    78a0        .x      LDRB     r0,[r4,#2]
        0x0001a238:    6831        1h      LDR      r1,[r6,#0]
        0x0001a23a:    f0000003    ....    AND      r0,r0,#3
        0x0001a23e:    f02101c0    !...    BIC      r1,r1,#0xc0
        0x0001a242:    ea411080    A...    ORR      r0,r1,r0,LSL #6
        0x0001a246:    6030        0`      STR      r0,[r6,#0]
        0x0001a248:    78e0        .x      LDRB     r0,[r4,#3]
        0x0001a24a:    6831        1h      LDR      r1,[r6,#0]
        0x0001a24c:    f0000003    ....    AND      r0,r0,#3
        0x0001a250:    f4217140    !.@q    BIC      r1,r1,#0x300
        0x0001a254:    ea412000    A..     ORR      r0,r1,r0,LSL #8
        0x0001a258:    6030        0`      STR      r0,[r6,#0]
        0x0001a25a:    7920         y      LDRB     r0,[r4,#4]
        0x0001a25c:    6831        1h      LDR      r1,[r6,#0]
        0x0001a25e:    f3601105    `...    BFI      r1,r0,#4,#2
        0x0001a262:    6031        1`      STR      r1,[r6,#0]
        0x0001a264:    7960        `y      LDRB     r0,[r4,#5]
        0x0001a266:    2803        .(      CMP      r0,#3
        0x0001a268:    d808        ..      BHI      0x1a27c ; am_hal_pwrctrl_sram_config + 152
        0x0001a26a:    e8dff000    ....    TBB      [pc,r0]
    $d.10
        0x0001a26e:    0b03        ..      DCW    2819
        0x0001a270:    bf00170f    ....    DCD    3204454159
    $t.11
        0x0001a274:    6830        0h      LDR      r0,[r6,#0]
        0x0001a276:    f0400003    @...    ORR      r0,r0,#3
        0x0001a27a:    6030        0`      STR      r0,[r6,#0]
        0x0001a27c:    2000        .       MOVS     r0,#0
        0x0001a27e:    b002        ..      ADD      sp,sp,#8
        0x0001a280:    bd70        p.      POP      {r4-r6,pc}
        0x0001a282:    bf00        ..      NOP      
        0x0001a284:    6830        0h      LDR      r0,[r6,#0]
        0x0001a286:    2102        .!      MOVS     r1,#2
        0x0001a288:    e002        ..      B        0x1a290 ; am_hal_pwrctrl_sram_config + 172
        0x0001a28a:    bf00        ..      NOP      
        0x0001a28c:    6830        0h      LDR      r0,[r6,#0]
        0x0001a28e:    2101        .!      MOVS     r1,#1
        0x0001a290:    f3610001    a...    BFI      r0,r1,#0,#2
        0x0001a294:    6030        0`      STR      r0,[r6,#0]
        0x0001a296:    2000        .       MOVS     r0,#0
        0x0001a298:    b002        ..      ADD      sp,sp,#8
        0x0001a29a:    bd70        p.      POP      {r4-r6,pc}
        0x0001a29c:    6830        0h      LDR      r0,[r6,#0]
        0x0001a29e:    f0200003     ...    BIC      r0,r0,#3
        0x0001a2a2:    6030        0`      STR      r0,[r6,#0]
        0x0001a2a4:    2000        .       MOVS     r0,#0
        0x0001a2a6:    b002        ..      ADD      sp,sp,#8
        0x0001a2a8:    bd70        p.      POP      {r4-r6,pc}
        0x0001a2aa:    0000        ..      MOVS     r0,r0
    am_hal_queue_init
        0x0001a2ac:    f04f0c00    O...    MOV      r12,#0
        0x0001a2b0:    f8c0c000    ....    STR      r12,[r0,#0]
        0x0001a2b4:    f8c0c004    ....    STR      r12,[r0,#4]
        0x0001a2b8:    f8c0c008    ....    STR      r12,[r0,#8]
        0x0001a2bc:    e9c03203    ...2    STRD     r3,r2,[r0,#0xc]
        0x0001a2c0:    6141        Aa      STR      r1,[r0,#0x14]
        0x0001a2c2:    4770        pG      BX       lr
    am_hal_queue_item_add
        0x0001a2c4:    e92d43f0    -..C    PUSH     {r4-r9,lr}
        0x0001a2c8:    b081        ..      SUB      sp,sp,#4
        0x0001a2ca:    4604        .F      MOV      r4,r0
        0x0001a2cc:    6900        .i      LDR      r0,[r0,#0x10]
        0x0001a2ce:    4688        .F      MOV      r8,r1
        0x0001a2d0:    fb00f902    ....    MUL      r9,r0,r2
        0x0001a2d4:    f7fff8b2    ....    BL       am_hal_interrupt_master_disable ; 0x1943c
        0x0001a2d8:    9000        ..      STR      r0,[sp,#0]
        0x0001a2da:    68e2        .h      LDR      r2,[r4,#0xc]
        0x0001a2dc:    68a0        .h      LDR      r0,[r4,#8]
        0x0001a2de:    eba20e00    ....    SUB      lr,r2,r0
        0x0001a2e2:    45ce        .E      CMP      lr,r9
        0x0001a2e4:    f0c080c8    ....    BCC.W    0x1a478 ; am_hal_queue_item_add + 436
        0x0001a2e8:    f1b90f00    ....    CMP      r9,#0
        0x0001a2ec:    f00080c1    ....    BEQ.W    0x1a472 ; am_hal_queue_item_add + 430
        0x0001a2f0:    f1a90101    ....    SUB      r1,r9,#1
        0x0001a2f4:    f1b80f00    ....    CMP      r8,#0
        0x0001a2f8:    f0090c03    ....    AND      r12,r9,#3
        0x0001a2fc:    d008        ..      BEQ      0x1a310 ; am_hal_queue_item_add + 76
        0x0001a2fe:    2903        .)      CMP      r1,#3
        0x0001a300:    d248        H.      BCS      0x1a394 ; am_hal_queue_item_add + 208
        0x0001a302:    2100        .!      MOVS     r1,#0
        0x0001a304:    f1bc0f00    ....    CMP      r12,#0
        0x0001a308:    f0408085    @...    BNE.W    0x1a416 ; am_hal_queue_item_add + 338
        0x0001a30c:    e0b1        ..      B        0x1a472 ; am_hal_queue_item_add + 430
        0x0001a30e:    bf00        ..      NOP      
        0x0001a310:    2903        .)      CMP      r1,#3
        0x0001a312:    d323        #.      BCC      0x1a35c ; am_hal_queue_item_add + 152
        0x0001a314:    f0290103    )...    BIC      r1,r9,#3
        0x0001a318:    6823        #h      LDR      r3,[r4,#0]
        0x0001a31a:    3904        .9      SUBS     r1,#4
        0x0001a31c:    f1030301    ....    ADD      r3,r3,#1
        0x0001a320:    fbb3f7f2    ....    UDIV     r7,r3,r2
        0x0001a324:    fb073312    ...3    MLS      r3,r7,r2,r3
        0x0001a328:    6023        #`      STR      r3,[r4,#0]
        0x0001a32a:    6823        #h      LDR      r3,[r4,#0]
        0x0001a32c:    f1030301    ....    ADD      r3,r3,#1
        0x0001a330:    fbb3f7f2    ....    UDIV     r7,r3,r2
        0x0001a334:    fb073312    ...3    MLS      r3,r7,r2,r3
        0x0001a338:    6023        #`      STR      r3,[r4,#0]
        0x0001a33a:    6823        #h      LDR      r3,[r4,#0]
        0x0001a33c:    f1030301    ....    ADD      r3,r3,#1
        0x0001a340:    fbb3f7f2    ....    UDIV     r7,r3,r2
        0x0001a344:    fb073312    ...3    MLS      r3,r7,r2,r3
        0x0001a348:    6023        #`      STR      r3,[r4,#0]
        0x0001a34a:    6823        #h      LDR      r3,[r4,#0]
        0x0001a34c:    f1030301    ....    ADD      r3,r3,#1
        0x0001a350:    fbb3f7f2    ....    UDIV     r7,r3,r2
        0x0001a354:    fb073312    ...3    MLS      r3,r7,r2,r3
        0x0001a358:    6023        #`      STR      r3,[r4,#0]
        0x0001a35a:    d1dd        ..      BNE      0x1a318 ; am_hal_queue_item_add + 84
        0x0001a35c:    f1bc0f00    ....    CMP      r12,#0
        0x0001a360:    f0008087    ....    BEQ.W    0x1a472 ; am_hal_queue_item_add + 430
        0x0001a364:    6821        !h      LDR      r1,[r4,#0]
        0x0001a366:    f1bc0f01    ....    CMP      r12,#1
        0x0001a36a:    f1010101    ....    ADD      r1,r1,#1
        0x0001a36e:    fbb1f3f2    ....    UDIV     r3,r1,r2
        0x0001a372:    fb031112    ....    MLS      r1,r3,r2,r1
        0x0001a376:    6021        !`      STR      r1,[r4,#0]
        0x0001a378:    d07b        {.      BEQ      0x1a472 ; am_hal_queue_item_add + 430
        0x0001a37a:    6821        !h      LDR      r1,[r4,#0]
        0x0001a37c:    f1bc0f02    ....    CMP      r12,#2
        0x0001a380:    f1010101    ....    ADD      r1,r1,#1
        0x0001a384:    fbb1f3f2    ....    UDIV     r3,r1,r2
        0x0001a388:    fb031112    ....    MLS      r1,r3,r2,r1
        0x0001a38c:    6021        !`      STR      r1,[r4,#0]
        0x0001a38e:    d070        p.      BEQ      0x1a472 ; am_hal_queue_item_add + 430
        0x0001a390:    6821        !h      LDR      r1,[r4,#0]
        0x0001a392:    e068        h.      B        0x1a466 ; am_hal_queue_item_add + 418
        0x0001a394:    f0290103    )...    BIC      r1,r9,#3
        0x0001a398:    424a        JB      RSBS     r2,r1,#0
        0x0001a39a:    f1080101    ....    ADD      r1,r8,#1
        0x0001a39e:    f06f0303    o...    MVN      r3,#3
        0x0001a3a2:    bf00        ..      NOP      
        0x0001a3a4:    18cd        ..      ADDS     r5,r1,r3
        0x0001a3a6:    78ef        .x      LDRB     r7,[r5,#3]
        0x0001a3a8:    6960        `i      LDR      r0,[r4,#0x14]
        0x0001a3aa:    6826        &h      LDR      r6,[r4,#0]
        0x0001a3ac:    3304        .3      ADDS     r3,#4
        0x0001a3ae:    5587        .U      STRB     r7,[r0,r6]
        0x0001a3b0:    6820         h      LDR      r0,[r4,#0]
        0x0001a3b2:    68e6        .h      LDR      r6,[r4,#0xc]
        0x0001a3b4:    3001        .0      ADDS     r0,#1
        0x0001a3b6:    fbb0f7f6    ....    UDIV     r7,r0,r6
        0x0001a3ba:    fb070016    ....    MLS      r0,r7,r6,r0
        0x0001a3be:    6966        fi      LDR      r6,[r4,#0x14]
        0x0001a3c0:    6020         `      STR      r0,[r4,#0]
        0x0001a3c2:    7928        (y      LDRB     r0,[r5,#4]
        0x0001a3c4:    6827        'h      LDR      r7,[r4,#0]
        0x0001a3c6:    55f0        .U      STRB     r0,[r6,r7]
        0x0001a3c8:    6820         h      LDR      r0,[r4,#0]
        0x0001a3ca:    68e6        .h      LDR      r6,[r4,#0xc]
        0x0001a3cc:    3001        .0      ADDS     r0,#1
        0x0001a3ce:    fbb0f7f6    ....    UDIV     r7,r0,r6
        0x0001a3d2:    fb070016    ....    MLS      r0,r7,r6,r0
        0x0001a3d6:    6966        fi      LDR      r6,[r4,#0x14]
        0x0001a3d8:    6020         `      STR      r0,[r4,#0]
        0x0001a3da:    7968        hy      LDRB     r0,[r5,#5]
        0x0001a3dc:    6827        'h      LDR      r7,[r4,#0]
        0x0001a3de:    55f0        .U      STRB     r0,[r6,r7]
        0x0001a3e0:    6820         h      LDR      r0,[r4,#0]
        0x0001a3e2:    68e6        .h      LDR      r6,[r4,#0xc]
        0x0001a3e4:    3001        .0      ADDS     r0,#1
        0x0001a3e6:    fbb0f7f6    ....    UDIV     r7,r0,r6
        0x0001a3ea:    fb070016    ....    MLS      r0,r7,r6,r0
        0x0001a3ee:    6966        fi      LDR      r6,[r4,#0x14]
        0x0001a3f0:    6020         `      STR      r0,[r4,#0]
        0x0001a3f2:    79a8        .y      LDRB     r0,[r5,#6]
        0x0001a3f4:    6825        %h      LDR      r5,[r4,#0]
        0x0001a3f6:    5570        pU      STRB     r0,[r6,r5]
        0x0001a3f8:    6820         h      LDR      r0,[r4,#0]
        0x0001a3fa:    68e5        .h      LDR      r5,[r4,#0xc]
        0x0001a3fc:    3001        .0      ADDS     r0,#1
        0x0001a3fe:    fbb0f6f5    ....    UDIV     r6,r0,r5
        0x0001a402:    fb060015    ....    MLS      r0,r6,r5,r0
        0x0001a406:    18d5        ..      ADDS     r5,r2,r3
        0x0001a408:    3504        .5      ADDS     r5,#4
        0x0001a40a:    6020         `      STR      r0,[r4,#0]
        0x0001a40c:    d1ca        ..      BNE      0x1a3a4 ; am_hal_queue_item_add + 224
        0x0001a40e:    1d19        ..      ADDS     r1,r3,#4
        0x0001a410:    f1bc0f00    ....    CMP      r12,#0
        0x0001a414:    d02d        -.      BEQ      0x1a472 ; am_hal_queue_item_add + 430
        0x0001a416:    f8182001    ...     LDRB     r2,[r8,r1]
        0x0001a41a:    6963        ci      LDR      r3,[r4,#0x14]
        0x0001a41c:    6825        %h      LDR      r5,[r4,#0]
        0x0001a41e:    f1bc0f01    ....    CMP      r12,#1
        0x0001a422:    555a        ZU      STRB     r2,[r3,r5]
        0x0001a424:    6822        "h      LDR      r2,[r4,#0]
        0x0001a426:    68e3        .h      LDR      r3,[r4,#0xc]
        0x0001a428:    f1020201    ....    ADD      r2,r2,#1
        0x0001a42c:    fbb2f5f3    ....    UDIV     r5,r2,r3
        0x0001a430:    fb052213    ..."    MLS      r2,r5,r3,r2
        0x0001a434:    6022        "`      STR      r2,[r4,#0]
        0x0001a436:    d01c        ..      BEQ      0x1a472 ; am_hal_queue_item_add + 430
        0x0001a438:    4441        AD      ADD      r1,r1,r8
        0x0001a43a:    784a        Jx      LDRB     r2,[r1,#1]
        0x0001a43c:    6963        ci      LDR      r3,[r4,#0x14]
        0x0001a43e:    6827        'h      LDR      r7,[r4,#0]
        0x0001a440:    f1bc0f02    ....    CMP      r12,#2
        0x0001a444:    55da        .U      STRB     r2,[r3,r7]
        0x0001a446:    6822        "h      LDR      r2,[r4,#0]
        0x0001a448:    68e3        .h      LDR      r3,[r4,#0xc]
        0x0001a44a:    f1020201    ....    ADD      r2,r2,#1
        0x0001a44e:    fbb2f7f3    ....    UDIV     r7,r2,r3
        0x0001a452:    fb072213    ..."    MLS      r2,r7,r3,r2
        0x0001a456:    6022        "`      STR      r2,[r4,#0]
        0x0001a458:    d00b        ..      BEQ      0x1a472 ; am_hal_queue_item_add + 430
        0x0001a45a:    7889        .x      LDRB     r1,[r1,#2]
        0x0001a45c:    6962        bi      LDR      r2,[r4,#0x14]
        0x0001a45e:    6823        #h      LDR      r3,[r4,#0]
        0x0001a460:    54d1        .T      STRB     r1,[r2,r3]
        0x0001a462:    6821        !h      LDR      r1,[r4,#0]
        0x0001a464:    68e2        .h      LDR      r2,[r4,#0xc]
        0x0001a466:    3101        .1      ADDS     r1,#1
        0x0001a468:    fbb1f3f2    ....    UDIV     r3,r1,r2
        0x0001a46c:    fb031112    ....    MLS      r1,r3,r2,r1
        0x0001a470:    6021        !`      STR      r1,[r4,#0]
        0x0001a472:    68a1        .h      LDR      r1,[r4,#8]
        0x0001a474:    4449        ID      ADD      r1,r1,r9
        0x0001a476:    60a1        .`      STR      r1,[r4,#8]
        0x0001a478:    9800        ..      LDR      r0,[sp,#0]
        0x0001a47a:    2400        .$      MOVS     r4,#0
        0x0001a47c:    45ce        .E      CMP      lr,r9
        0x0001a47e:    bf28        (.      IT       CS
        0x0001a480:    2401        .$      MOVCS    r4,#1
        0x0001a482:    f7feffdf    ....    BL       am_hal_interrupt_master_set ; 0x19444
        0x0001a486:    4620         F      MOV      r0,r4
        0x0001a488:    b001        ..      ADD      sp,sp,#4
        0x0001a48a:    e8bd83f0    ....    POP      {r4-r9,pc}
        0x0001a48e:    0000        ..      MOVS     r0,r0
    am_hal_queue_item_get
        0x0001a490:    e92d43f0    -..C    PUSH     {r4-r9,lr}
        0x0001a494:    b081        ..      SUB      sp,sp,#4
        0x0001a496:    4604        .F      MOV      r4,r0
        0x0001a498:    6900        .i      LDR      r0,[r0,#0x10]
        0x0001a49a:    4688        .F      MOV      r8,r1
        0x0001a49c:    fb00f902    ....    MUL      r9,r0,r2
        0x0001a4a0:    f7feffcc    ....    BL       am_hal_interrupt_master_disable ; 0x1943c
        0x0001a4a4:    9000        ..      STR      r0,[sp,#0]
        0x0001a4a6:    f8d4e008    ....    LDR      lr,[r4,#8]
        0x0001a4aa:    45ce        .E      CMP      lr,r9
        0x0001a4ac:    f0c080d3    ....    BCC.W    0x1a656 ; am_hal_queue_item_get + 454
        0x0001a4b0:    f1b90f00    ....    CMP      r9,#0
        0x0001a4b4:    f00080cb    ....    BEQ.W    0x1a64e ; am_hal_queue_item_get + 446
        0x0001a4b8:    f1b80f00    ....    CMP      r8,#0
        0x0001a4bc:    d00c        ..      BEQ      0x1a4d8 ; am_hal_queue_item_get + 72
        0x0001a4be:    f1a90101    ....    SUB      r1,r9,#1
        0x0001a4c2:    2903        .)      CMP      r1,#3
        0x0001a4c4:    f0090c03    ....    AND      r12,r9,#3
        0x0001a4c8:    d252        R.      BCS      0x1a570 ; am_hal_queue_item_get + 224
        0x0001a4ca:    2100        .!      MOVS     r1,#0
        0x0001a4cc:    f1bc0f00    ....    CMP      r12,#0
        0x0001a4d0:    f040808f    @...    BNE.W    0x1a5f2 ; am_hal_queue_item_get + 354
        0x0001a4d4:    e0bb        ..      B        0x1a64e ; am_hal_queue_item_get + 446
        0x0001a4d6:    bf00        ..      NOP      
        0x0001a4d8:    68e1        .h      LDR      r1,[r4,#0xc]
        0x0001a4da:    f1a90201    ....    SUB      r2,r9,#1
        0x0001a4de:    2a03        .*      CMP      r2,#3
        0x0001a4e0:    f0090203    ....    AND      r2,r9,#3
        0x0001a4e4:    d324        $.      BCC      0x1a530 ; am_hal_queue_item_get + 160
        0x0001a4e6:    f0290303    )...    BIC      r3,r9,#3
        0x0001a4ea:    bf00        ..      NOP      
        0x0001a4ec:    6867        gh      LDR      r7,[r4,#4]
        0x0001a4ee:    3b04        .;      SUBS     r3,#4
        0x0001a4f0:    f1070701    ....    ADD      r7,r7,#1
        0x0001a4f4:    fbb7f5f1    ....    UDIV     r5,r7,r1
        0x0001a4f8:    fb057711    ...w    MLS      r7,r5,r1,r7
        0x0001a4fc:    6067        g`      STR      r7,[r4,#4]
        0x0001a4fe:    6867        gh      LDR      r7,[r4,#4]
        0x0001a500:    f1070701    ....    ADD      r7,r7,#1
        0x0001a504:    fbb7f5f1    ....    UDIV     r5,r7,r1
        0x0001a508:    fb057711    ...w    MLS      r7,r5,r1,r7
        0x0001a50c:    6067        g`      STR      r7,[r4,#4]
        0x0001a50e:    6867        gh      LDR      r7,[r4,#4]
        0x0001a510:    f1070701    ....    ADD      r7,r7,#1
        0x0001a514:    fbb7f5f1    ....    UDIV     r5,r7,r1
        0x0001a518:    fb057711    ...w    MLS      r7,r5,r1,r7
        0x0001a51c:    6067        g`      STR      r7,[r4,#4]
        0x0001a51e:    6867        gh      LDR      r7,[r4,#4]
        0x0001a520:    f1070701    ....    ADD      r7,r7,#1
        0x0001a524:    fbb7f5f1    ....    UDIV     r5,r7,r1
        0x0001a528:    fb057711    ...w    MLS      r7,r5,r1,r7
        0x0001a52c:    6067        g`      STR      r7,[r4,#4]
        0x0001a52e:    d1dd        ..      BNE      0x1a4ec ; am_hal_queue_item_get + 92
        0x0001a530:    2a00        .*      CMP      r2,#0
        0x0001a532:    f000808c    ....    BEQ.W    0x1a64e ; am_hal_queue_item_get + 446
        0x0001a536:    6863        ch      LDR      r3,[r4,#4]
        0x0001a538:    2a01        .*      CMP      r2,#1
        0x0001a53a:    f1030301    ....    ADD      r3,r3,#1
        0x0001a53e:    fbb3f7f1    ....    UDIV     r7,r3,r1
        0x0001a542:    fb073311    ...3    MLS      r3,r7,r1,r3
        0x0001a546:    6063        c`      STR      r3,[r4,#4]
        0x0001a548:    f0008081    ....    BEQ.W    0x1a64e ; am_hal_queue_item_get + 446
        0x0001a54c:    6863        ch      LDR      r3,[r4,#4]
        0x0001a54e:    2a02        .*      CMP      r2,#2
        0x0001a550:    f1030301    ....    ADD      r3,r3,#1
        0x0001a554:    fbb3f7f1    ....    UDIV     r7,r3,r1
        0x0001a558:    fb073311    ...3    MLS      r3,r7,r1,r3
        0x0001a55c:    6063        c`      STR      r3,[r4,#4]
        0x0001a55e:    d076        v.      BEQ      0x1a64e ; am_hal_queue_item_get + 446
        0x0001a560:    6862        bh      LDR      r2,[r4,#4]
        0x0001a562:    3201        .2      ADDS     r2,#1
        0x0001a564:    fbb2f3f1    ....    UDIV     r3,r2,r1
        0x0001a568:    fb032111    ...!    MLS      r1,r3,r1,r2
        0x0001a56c:    e06e        n.      B        0x1a64c ; am_hal_queue_item_get + 444
        0x0001a56e:    bf00        ..      NOP      
        0x0001a570:    f0290103    )...    BIC      r1,r9,#3
        0x0001a574:    424a        JB      RSBS     r2,r1,#0
        0x0001a576:    f1080101    ....    ADD      r1,r8,#1
        0x0001a57a:    f06f0303    o...    MVN      r3,#3
        0x0001a57e:    bf00        ..      NOP      
        0x0001a580:    6865        eh      LDR      r5,[r4,#4]
        0x0001a582:    6967        gi      LDR      r7,[r4,#0x14]
        0x0001a584:    5d7f        .]      LDRB     r7,[r7,r5]
        0x0001a586:    18cd        ..      ADDS     r5,r1,r3
        0x0001a588:    70ef        .p      STRB     r7,[r5,#3]
        0x0001a58a:    6867        gh      LDR      r7,[r4,#4]
        0x0001a58c:    68e0        .h      LDR      r0,[r4,#0xc]
        0x0001a58e:    3701        .7      ADDS     r7,#1
        0x0001a590:    fbb7f6f0    ....    UDIV     r6,r7,r0
        0x0001a594:    3304        .3      ADDS     r3,#4
        0x0001a596:    fb067010    ...p    MLS      r0,r6,r0,r7
        0x0001a59a:    6966        fi      LDR      r6,[r4,#0x14]
        0x0001a59c:    6060        ``      STR      r0,[r4,#4]
        0x0001a59e:    6860        `h      LDR      r0,[r4,#4]
        0x0001a5a0:    5c30        0\      LDRB     r0,[r6,r0]
        0x0001a5a2:    7128        (q      STRB     r0,[r5,#4]
        0x0001a5a4:    6860        `h      LDR      r0,[r4,#4]
        0x0001a5a6:    68e6        .h      LDR      r6,[r4,#0xc]
        0x0001a5a8:    3001        .0      ADDS     r0,#1
        0x0001a5aa:    fbb0f7f6    ....    UDIV     r7,r0,r6
        0x0001a5ae:    fb070016    ....    MLS      r0,r7,r6,r0
        0x0001a5b2:    6966        fi      LDR      r6,[r4,#0x14]
        0x0001a5b4:    6060        ``      STR      r0,[r4,#4]
        0x0001a5b6:    6860        `h      LDR      r0,[r4,#4]
        0x0001a5b8:    5c30        0\      LDRB     r0,[r6,r0]
        0x0001a5ba:    7168        hq      STRB     r0,[r5,#5]
        0x0001a5bc:    6860        `h      LDR      r0,[r4,#4]
        0x0001a5be:    68e6        .h      LDR      r6,[r4,#0xc]
        0x0001a5c0:    3001        .0      ADDS     r0,#1
        0x0001a5c2:    fbb0f7f6    ....    UDIV     r7,r0,r6
        0x0001a5c6:    fb070016    ....    MLS      r0,r7,r6,r0
        0x0001a5ca:    6966        fi      LDR      r6,[r4,#0x14]
        0x0001a5cc:    6060        ``      STR      r0,[r4,#4]
        0x0001a5ce:    6860        `h      LDR      r0,[r4,#4]
        0x0001a5d0:    5c30        0\      LDRB     r0,[r6,r0]
        0x0001a5d2:    71a8        .q      STRB     r0,[r5,#6]
        0x0001a5d4:    6860        `h      LDR      r0,[r4,#4]
        0x0001a5d6:    68e5        .h      LDR      r5,[r4,#0xc]
        0x0001a5d8:    3001        .0      ADDS     r0,#1
        0x0001a5da:    fbb0f6f5    ....    UDIV     r6,r0,r5
        0x0001a5de:    fb060015    ....    MLS      r0,r6,r5,r0
        0x0001a5e2:    18d5        ..      ADDS     r5,r2,r3
        0x0001a5e4:    3504        .5      ADDS     r5,#4
        0x0001a5e6:    6060        ``      STR      r0,[r4,#4]
        0x0001a5e8:    d1ca        ..      BNE      0x1a580 ; am_hal_queue_item_get + 240
        0x0001a5ea:    1d19        ..      ADDS     r1,r3,#4
        0x0001a5ec:    f1bc0f00    ....    CMP      r12,#0
        0x0001a5f0:    d02d        -.      BEQ      0x1a64e ; am_hal_queue_item_get + 446
        0x0001a5f2:    6862        bh      LDR      r2,[r4,#4]
        0x0001a5f4:    6963        ci      LDR      r3,[r4,#0x14]
        0x0001a5f6:    f1bc0f01    ....    CMP      r12,#1
        0x0001a5fa:    5c9a        .\      LDRB     r2,[r3,r2]
        0x0001a5fc:    f8082001    ...     STRB     r2,[r8,r1]
        0x0001a600:    6862        bh      LDR      r2,[r4,#4]
        0x0001a602:    68e3        .h      LDR      r3,[r4,#0xc]
        0x0001a604:    f1020201    ....    ADD      r2,r2,#1
        0x0001a608:    fbb2f5f3    ....    UDIV     r5,r2,r3
        0x0001a60c:    fb052213    ..."    MLS      r2,r5,r3,r2
        0x0001a610:    6062        b`      STR      r2,[r4,#4]
        0x0001a612:    d01c        ..      BEQ      0x1a64e ; am_hal_queue_item_get + 446
        0x0001a614:    6862        bh      LDR      r2,[r4,#4]
        0x0001a616:    6963        ci      LDR      r3,[r4,#0x14]
        0x0001a618:    4441        AD      ADD      r1,r1,r8
        0x0001a61a:    5c9a        .\      LDRB     r2,[r3,r2]
        0x0001a61c:    f1bc0f02    ....    CMP      r12,#2
        0x0001a620:    704a        Jp      STRB     r2,[r1,#1]
        0x0001a622:    6862        bh      LDR      r2,[r4,#4]
        0x0001a624:    68e3        .h      LDR      r3,[r4,#0xc]
        0x0001a626:    f1020201    ....    ADD      r2,r2,#1
        0x0001a62a:    fbb2f7f3    ....    UDIV     r7,r2,r3
        0x0001a62e:    fb072213    ..."    MLS      r2,r7,r3,r2
        0x0001a632:    6062        b`      STR      r2,[r4,#4]
        0x0001a634:    d00b        ..      BEQ      0x1a64e ; am_hal_queue_item_get + 446
        0x0001a636:    6862        bh      LDR      r2,[r4,#4]
        0x0001a638:    6963        ci      LDR      r3,[r4,#0x14]
        0x0001a63a:    5c9a        .\      LDRB     r2,[r3,r2]
        0x0001a63c:    708a        .p      STRB     r2,[r1,#2]
        0x0001a63e:    6861        ah      LDR      r1,[r4,#4]
        0x0001a640:    68e2        .h      LDR      r2,[r4,#0xc]
        0x0001a642:    3101        .1      ADDS     r1,#1
        0x0001a644:    fbb1f3f2    ....    UDIV     r3,r1,r2
        0x0001a648:    fb031112    ....    MLS      r1,r3,r2,r1
        0x0001a64c:    6061        a`      STR      r1,[r4,#4]
        0x0001a64e:    68a1        .h      LDR      r1,[r4,#8]
        0x0001a650:    eba10109    ....    SUB      r1,r1,r9
        0x0001a654:    60a1        .`      STR      r1,[r4,#8]
        0x0001a656:    9800        ..      LDR      r0,[sp,#0]
        0x0001a658:    2400        .$      MOVS     r4,#0
        0x0001a65a:    45ce        .E      CMP      lr,r9
        0x0001a65c:    bf28        (.      IT       CS
        0x0001a65e:    2401        .$      MOVCS    r4,#1
        0x0001a660:    f7fefef0    ....    BL       am_hal_interrupt_master_set ; 0x19444
        0x0001a664:    4620         F      MOV      r0,r4
        0x0001a666:    b001        ..      ADD      sp,sp,#4
        0x0001a668:    e8bd83f0    ....    POP      {r4-r9,pc}
    am_hal_reset_status_get
        0x0001a66c:    2800        .(      CMP      r0,#0
        0x0001a66e:    bf04        ..      ITT      EQ
        0x0001a670:    2006        .       MOVEQ    r0,#6
        0x0001a672:    4770        pG      BXEQ     lr
        0x0001a674:    b5b0        ..      PUSH     {r4,r5,r7,lr}
        0x0001a676:    b082        ..      SUB      sp,sp,#8
        0x0001a678:    f240259c    @..%    MOVW     r5,#0x29c
        0x0001a67c:    f2c10500    ....    MOVT     r5,#0x1000
        0x0001a680:    4604        .F      MOV      r4,r0
        0x0001a682:    6828        (h      LDR      r0,[r5,#0]
        0x0001a684:    b9b8        ..      CBNZ     r0,0x1a6b6 ; am_hal_reset_status_get + 74
        0x0001a686:    ab01        ..      ADD      r3,sp,#4
        0x0001a688:    2001        .       MOVS     r0,#1
        0x0001a68a:    f44f6190    O..a    MOV      r1,#0x480
        0x0001a68e:    2201        ."      MOVS     r2,#1
        0x0001a690:    f7fff92a    ..*.    BL       am_hal_mram_info_read ; 0x198e8
        0x0001a694:    9801        ..      LDR      r0,[sp,#4]
        0x0001a696:    2805        .(      CMP      r0,#5
        0x0001a698:    d808        ..      BHI      0x1a6ac ; am_hal_reset_status_get + 64
        0x0001a69a:    2001        .       MOVS     r0,#1
        0x0001a69c:    f2404185    @..A    MOV      r1,#0x485
        0x0001a6a0:    2201        ."      MOVS     r2,#1
        0x0001a6a2:    462b        +F      MOV      r3,r5
        0x0001a6a4:    f7fff920    .. .    BL       am_hal_mram_info_read ; 0x198e8
        0x0001a6a8:    6828        (h      LDR      r0,[r5,#0]
        0x0001a6aa:    e004        ..      B        0x1a6b6 ; am_hal_reset_status_get + 74
        0x0001a6ac:    f648005c    H.\.    MOV      r0,#0x885c
        0x0001a6b0:    f2c40000    ....    MOVT     r0,#0x4000
        0x0001a6b4:    6800        .h      LDR      r0,[r0,#0]
        0x0001a6b6:    f0000301    ....    AND      r3,r0,#1
        0x0001a6ba:    70a3        .p      STRB     r3,[r4,#2]
        0x0001a6bc:    f3c00340    ..@.    UBFX     r3,r0,#1,#1
        0x0001a6c0:    70e3        .p      STRB     r3,[r4,#3]
        0x0001a6c2:    f3c00380    ....    UBFX     r3,r0,#2,#1
        0x0001a6c6:    7123        #q      STRB     r3,[r4,#4]
        0x0001a6c8:    f3c003c0    ....    UBFX     r3,r0,#3,#1
        0x0001a6cc:    b2c2        ..      UXTB     r2,r0
        0x0001a6ce:    7163        cq      STRB     r3,[r4,#5]
        0x0001a6d0:    f3c01300    ....    UBFX     r3,r0,#4,#1
        0x0001a6d4:    4601        .F      MOV      r1,r0
        0x0001a6d6:    71a3        .q      STRB     r3,[r4,#6]
        0x0001a6d8:    f3c01340    ..@.    UBFX     r3,r0,#5,#1
        0x0001a6dc:    09d2        ..      LSRS     r2,r2,#7
        0x0001a6de:    f36f21df    o..!    BFC      r1,#11,#21
        0x0001a6e2:    71e3        .q      STRB     r3,[r4,#7]
        0x0001a6e4:    f3c01380    ....    UBFX     r3,r0,#6,#1
        0x0001a6e8:    7262        br      STRB     r2,[r4,#9]
        0x0001a6ea:    f3c02200    ..."    UBFX     r2,r0,#8,#1
        0x0001a6ee:    f3c02040    ..@     UBFX     r0,r0,#9,#1
        0x0001a6f2:    72e0        .r      STRB     r0,[r4,#0xb]
        0x0001a6f4:    0a88        ..      LSRS     r0,r1,#10
        0x0001a6f6:    7320         s      STRB     r0,[r4,#0xc]
        0x0001a6f8:    2000        .       MOVS     r0,#0
        0x0001a6fa:    7360        `s      STRB     r0,[r4,#0xd]
        0x0001a6fc:    fab1f081    ....    CLZ      r0,r1
        0x0001a700:    6029        )`      STR      r1,[r5,#0]
        0x0001a702:    8021        !.      STRH     r1,[r4,#0]
        0x0001a704:    7223        #r      STRB     r3,[r4,#8]
        0x0001a706:    72a2        .r      STRB     r2,[r4,#0xa]
        0x0001a708:    0940        @.      LSRS     r0,r0,#5
        0x0001a70a:    b002        ..      ADD      sp,sp,#8
        0x0001a70c:    bdb0        ..      POP      {r4,r5,r7,pc}
        0x0001a70e:    0000        ..      MOVS     r0,r0
    am_hal_rtc_osc_disable
        0x0001a710:    f6440100    D...    MOVW     r1,#0x4800
        0x0001a714:    f2c40100    ....    MOVT     r1,#0x4000
        0x0001a718:    6808        .h      LDR      r0,[r1,#0]
        0x0001a71a:    f0400210    @...    ORR      r2,r0,#0x10
        0x0001a71e:    2000        .       MOVS     r0,#0
        0x0001a720:    600a        .`      STR      r2,[r1,#0]
        0x0001a722:    4770        pG      BX       lr
    am_hal_security_get_info
        0x0001a724:    b570        p.      PUSH     {r4-r6,lr}
        0x0001a726:    b1f8        ..      CBZ      r0,0x1a768 ; am_hal_security_get_info + 68
        0x0001a728:    4604        .F      MOV      r4,r0
        0x0001a72a:    f1000308    ....    ADD      r3,r0,#8
        0x0001a72e:    2000        .       MOVS     r0,#0
        0x0001a730:    2110        .!      MOVS     r1,#0x10
        0x0001a732:    2201        ."      MOVS     r2,#1
        0x0001a734:    f7fff8d8    ....    BL       am_hal_mram_info_read ; 0x198e8
        0x0001a738:    f24010b8    @...    MOVW     r0,#0x1b8
        0x0001a73c:    f2c40002    ....    MOVT     r0,#0x4002
        0x0001a740:    6841        Ah      LDR      r1,[r0,#4]
        0x0001a742:    f3c10180    ....    UBFX     r1,r1,#2,#1
        0x0001a746:    7021        !p      STRB     r1,[r4,#0]
        0x0001a748:    6801        .h      LDR      r1,[r0,#0]
        0x0001a74a:    f8d00e50    ..P.    LDR      r0,[r0,#0xe50]
        0x0001a74e:    02c0        ..      LSLS     r0,r0,#11
        0x0001a750:    f0016040    ..@`    AND      r0,r1,#0xc000000
        0x0001a754:    d506        ..      BPL      0x1a764 ; am_hal_security_get_info + 64
        0x0001a756:    f640217c    @.|!    MOV      r1,#0xa7c
        0x0001a75a:    f2c4010c    ....    MOVT     r1,#0x400c
        0x0001a75e:    6809        .h      LDR      r1,[r1,#0]
        0x0001a760:    07c9        ..      LSLS     r1,r1,#31
        0x0001a762:    d103        ..      BNE      0x1a76c ; am_hal_security_get_info + 72
        0x0001a764:    21ff        .!      MOVS     r1,#0xff
        0x0001a766:    e008        ..      B        0x1a77a ; am_hal_security_get_info + 86
        0x0001a768:    2006        .       MOVS     r0,#6
        0x0001a76a:    bd70        p.      POP      {r4-r6,pc}
        0x0001a76c:    f6417114    A..q    MOV      r1,#0x1f14
        0x0001a770:    f2c4010c    ....    MOVT     r1,#0x400c
        0x0001a774:    6809        .h      LDR      r1,[r1,#0]
        0x0001a776:    f0010107    ....    AND      r1,r1,#7
        0x0001a77a:    7061        ap      STRB     r1,[r4,#1]
        0x0001a77c:    1d23        #.      ADDS     r3,r4,#4
        0x0001a77e:    f104060c    ....    ADD      r6,r4,#0xc
        0x0001a782:    f1040510    ....    ADD      r5,r4,#0x10
        0x0001a786:    f1b06f80    ...o    CMP      r0,#0x4000000
        0x0001a78a:    f1040414    ....    ADD      r4,r4,#0x14
        0x0001a78e:    d11d        ..      BNE      0x1a7cc ; am_hal_security_get_info + 168
        0x0001a790:    2001        .       MOVS     r0,#1
        0x0001a792:    f2404182    @..A    MOV      r1,#0x482
        0x0001a796:    2201        ."      MOVS     r2,#1
        0x0001a798:    f7fff8a6    ....    BL       am_hal_mram_info_read ; 0x198e8
        0x0001a79c:    2001        .       MOVS     r0,#1
        0x0001a79e:    f44f6190    O..a    MOV      r1,#0x480
        0x0001a7a2:    2201        ."      MOVS     r2,#1
        0x0001a7a4:    4633        3F      MOV      r3,r6
        0x0001a7a6:    f7fff89f    ....    BL       am_hal_mram_info_read ; 0x198e8
        0x0001a7aa:    2001        .       MOVS     r0,#1
        0x0001a7ac:    f2404181    @..A    MOV      r1,#0x481
        0x0001a7b0:    2201        ."      MOVS     r2,#1
        0x0001a7b2:    462b        +F      MOV      r3,r5
        0x0001a7b4:    f7fff898    ....    BL       am_hal_mram_info_read ; 0x198e8
        0x0001a7b8:    2001        .       MOVS     r0,#1
        0x0001a7ba:    f2404186    @..A    MOV      r1,#0x486
        0x0001a7be:    2201        ."      MOVS     r2,#1
        0x0001a7c0:    4623        #F      MOV      r3,r4
        0x0001a7c2:    f7fff891    ....    BL       am_hal_mram_info_read ; 0x198e8
        0x0001a7c6:    2000        .       MOVS     r0,#0
        0x0001a7c8:    bd70        p.      POP      {r4-r6,pc}
        0x0001a7ca:    bf00        ..      NOP      
        0x0001a7cc:    f04f30ff    O..0    MOV      r0,#0xffffffff
        0x0001a7d0:    6018        .`      STR      r0,[r3,#0]
        0x0001a7d2:    6030        0`      STR      r0,[r6,#0]
        0x0001a7d4:    6028        (`      STR      r0,[r5,#0]
        0x0001a7d6:    6020         `      STR      r0,[r4,#0]
        0x0001a7d8:    2000        .       MOVS     r0,#0
        0x0001a7da:    bd70        p.      POP      {r4-r6,pc}
    am_hal_security_get_socid
        0x0001a7dc:    4603        .F      MOV      r3,r0
        0x0001a7de:    2001        .       MOVS     r0,#1
        0x0001a7e0:    f44f6191    O..a    MOV      r1,#0x488
        0x0001a7e4:    2208        ."      MOVS     r2,#8
        0x0001a7e6:    f7ffb87f    ....    B        am_hal_mram_info_read ; 0x198e8
        0x0001a7ea:    0000        ..      MOVS     r0,r0
    am_hal_sysctrl_sleep
        0x0001a7ec:    e92d47f0    -..G    PUSH     {r4-r10,lr}
        0x0001a7f0:    b082        ..      SUB      sp,sp,#8
        0x0001a7f2:    a901        ..      ADD      r1,sp,#4
        0x0001a7f4:    f1b15f80    ..._    CMP      r1,#0x10000000
        0x0001a7f8:    d348        H.      BCC      0x1a88c ; am_hal_sysctrl_sleep + 160
        0x0001a7fa:    4604        .F      MOV      r4,r0
        0x0001a7fc:    2000        .       MOVS     r0,#0
        0x0001a7fe:    f2c10006    ....    MOVT     r0,#0x1006
        0x0001a802:    4281        .B      CMP      r1,r0
        0x0001a804:    d242        B.      BCS      0x1a88c ; am_hal_sysctrl_sleep + 160
        0x0001a806:    f64e5810    N..X    MOV      r8,#0xed10
        0x0001a80a:    f241051c    A...    MOV      r5,#0x101c
        0x0001a80e:    f2403680    @..6    MOVW     r6,#0x380
        0x0001a812:    f2ce0800    ....    MOVT     r8,#0xe000
        0x0001a816:    f2c40502    ....    MOVT     r5,#0x4002
        0x0001a81a:    f2c40602    ....    MOVT     r6,#0x4002
        0x0001a81e:    f7fefe0d    ....    BL       am_hal_interrupt_master_disable ; 0x1943c
        0x0001a822:    9000        ..      STR      r0,[sp,#0]
        0x0001a824:    f8551c1c    U...    LDR      r1,[r5,#-0x1c]
        0x0001a828:    f8d500ec    ....    LDR      r0,[r5,#0xec]
        0x0001a82c:    f0010903    ....    AND      r9,r1,#3
        0x0001a830:    b374        t.      CBZ      r4,0x1a890 ; am_hal_sysctrl_sleep + 164
        0x0001a832:    f64f61d0    O..a    MOV      r1,#0xfed0
        0x0001a836:    f6cf71ff    ...q    MOVT     r1,#0xffff
        0x0001a83a:    5871        qX      LDR      r1,[r6,r1]
        0x0001a83c:    06c9        ..      LSLS     r1,r1,#27
        0x0001a83e:    d427        '.      BMI      0x1a890 ; am_hal_sysctrl_sleep + 164
        0x0001a840:    f8551c14    U...    LDR      r1,[r5,#-0x14]
        0x0001a844:    02c9        ..      LSLS     r1,r1,#11
        0x0001a846:    d503        ..      BPL      0x1a850 ; am_hal_sysctrl_sleep + 100
        0x0001a848:    6829        )h      LDR      r1,[r5,#0]
        0x0001a84a:    0709        ..      LSLS     r1,r1,#28
        0x0001a84c:    f100808c    ....    BMI.W    0x1a968 ; am_hal_sysctrl_sleep + 380
        0x0001a850:    f04f0a00    O...    MOV      r10,#0
        0x0001a854:    f1b90f02    ....    CMP      r9,#2
        0x0001a858:    f0000430    ..0.    AND      r4,r0,#0x30
        0x0001a85c:    d102        ..      BNE      0x1a864 ; am_hal_sysctrl_sleep + 120
        0x0001a85e:    2001        .       MOVS     r0,#1
        0x0001a860:    f7fffaec    ....    BL       am_hal_pwrctrl_mcu_mode_select ; 0x19e3c
        0x0001a864:    2c30        0,      CMP      r4,#0x30
        0x0001a866:    d108        ..      BNE      0x1a87a ; am_hal_sysctrl_sleep + 142
        0x0001a868:    f8550c0c    U...    LDR      r0,[r5,#-0xc]
        0x0001a86c:    0540        @.      LSLS     r0,r0,#21
        0x0001a86e:    d404        ..      BMI      0x1a87a ; am_hal_sysctrl_sleep + 142
        0x0001a870:    f8550c14    U...    LDR      r0,[r5,#-0x14]
        0x0001a874:    01c0        ..      LSLS     r0,r0,#7
        0x0001a876:    f0008085    ....    BEQ.W    0x1a984 ; am_hal_sysctrl_sleep + 408
        0x0001a87a:    2700        .'      MOVS     r7,#0
        0x0001a87c:    f04f34ff    O..4    MOV      r4,#0xffffffff
        0x0001a880:    f8d80000    ....    LDR      r0,[r8,#0]
        0x0001a884:    f0400004    @...    ORR      r0,r0,#4
        0x0001a888:    e00b        ..      B        0x1a8a2 ; am_hal_sysctrl_sleep + 182
        0x0001a88a:    bf00        ..      NOP      
        0x0001a88c:    e7fe        ..      B        0x1a88c ; am_hal_sysctrl_sleep + 160
        0x0001a88e:    bf00        ..      NOP      
        0x0001a890:    f8d80000    ....    LDR      r0,[r8,#0]
        0x0001a894:    f04f34ff    O..4    MOV      r4,#0xffffffff
        0x0001a898:    f0200004     ...    BIC      r0,r0,#4
        0x0001a89c:    f04f0a00    O...    MOV      r10,#0
        0x0001a8a0:    2700        .'      MOVS     r7,#0
        0x0001a8a2:    f8c80000    ....    STR      r0,[r8,#0]
        0x0001a8a6:    2002        .       MOVS     r0,#2
        0x0001a8a8:    2100        .!      MOVS     r1,#0
        0x0001a8aa:    f7fefa7f    ....    BL       am_hal_daxi_control ; 0x18dac
        0x0001a8ae:    bf30        0.      WFI      
        0x0001a8b0:    2f00        ./      CMP      r7,#0
        0x0001a8b2:    f3bf8f6f    ..o.    ISB      
        0x0001a8b6:    d047        G.      BEQ      0x1a948 ; am_hal_sysctrl_sleep + 348
        0x0001a8b8:    2001        .       MOVS     r0,#1
        0x0001a8ba:    f001fbd5    ....    BL       buck_ldo_update_override ; 0x1c068
        0x0001a8be:    f8d500e4    ....    LDR      r0,[r5,#0xe4]
        0x0001a8c2:    f0200001     ...    BIC      r0,r0,#1
        0x0001a8c6:    f8c500e4    ....    STR      r0,[r5,#0xe4]
        0x0001a8ca:    2000        .       MOVS     r0,#0
        0x0001a8cc:    f001fbcc    ....    BL       buck_ldo_update_override ; 0x1c068
        0x0001a8d0:    2014        .       MOVS     r0,#0x14
        0x0001a8d2:    f7fefc6d    ..m.    BL       am_hal_delay_us ; 0x191b0
        0x0001a8d6:    1c60        `.      ADDS     r0,r4,#1
        0x0001a8d8:    d007        ..      BEQ      0x1a8ea ; am_hal_sysctrl_sleep + 254
        0x0001a8da:    f64f40c4    O..@    MOV      r0,#0xfcc4
        0x0001a8de:    f6cf70ff    ...p    MOVT     r0,#0xffff
        0x0001a8e2:    5831        1X      LDR      r1,[r6,r0]
        0x0001a8e4:    f36411cd    d...    BFI      r1,r4,#7,#7
        0x0001a8e8:    5031        1P      STR      r1,[r6,r0]
        0x0001a8ea:    f8d500e4    ....    LDR      r0,[r5,#0xe4]
        0x0001a8ee:    f0400001    @...    ORR      r0,r0,#1
        0x0001a8f2:    f8c500e4    ....    STR      r0,[r5,#0xe4]
        0x0001a8f6:    2001        .       MOVS     r0,#1
        0x0001a8f8:    f001fbb6    ....    BL       buck_ldo_update_override ; 0x1c068
        0x0001a8fc:    6830        0h      LDR      r0,[r6,#0]
        0x0001a8fe:    f2400130    @.0.    MOVW     r1,#0x30
        0x0001a902:    f0404000    @..@    ORR      r0,r0,#0x80000000
        0x0001a906:    6030        0`      STR      r0,[r6,#0]
        0x0001a908:    6830        0h      LDR      r0,[r6,#0]
        0x0001a90a:    f2c10100    ....    MOVT     r1,#0x1000
        0x0001a90e:    f0404080    @..@    ORR      r0,r0,#0x40000000
        0x0001a912:    6030        0`      STR      r0,[r6,#0]
        0x0001a914:    f8560c10    V...    LDR      r0,[r6,#-0x10]
        0x0001a918:    f3c05005    ...P    UBFX     r0,r0,#20,#6
        0x0001a91c:    6008        .`      STR      r0,[r1,#0]
        0x0001a91e:    f8560c10    V...    LDR      r0,[r6,#-0x10]
        0x0001a922:    f020707c     .|p    BIC      r0,r0,#0x3f00000
        0x0001a926:    f8460c10    F...    STR      r0,[r6,#-0x10]
        0x0001a92a:    f1ba0f00    ....    CMP      r10,#0
        0x0001a92e:    d10e        ..      BNE      0x1a94e ; am_hal_sysctrl_sleep + 354
        0x0001a930:    f1b90f02    ....    CMP      r9,#2
        0x0001a934:    d112        ..      BNE      0x1a95c ; am_hal_sysctrl_sleep + 368
        0x0001a936:    2002        .       MOVS     r0,#2
        0x0001a938:    f7fffa80    ....    BL       am_hal_pwrctrl_mcu_mode_select ; 0x19e3c
        0x0001a93c:    9800        ..      LDR      r0,[sp,#0]
        0x0001a93e:    f7fefd81    ....    BL       am_hal_interrupt_master_set ; 0x19444
        0x0001a942:    b002        ..      ADD      sp,sp,#8
        0x0001a944:    e8bd87f0    ....    POP      {r4-r10,pc}
        0x0001a948:    f1ba0f00    ....    CMP      r10,#0
        0x0001a94c:    d0f0        ..      BEQ      0x1a930 ; am_hal_sysctrl_sleep + 324
        0x0001a94e:    6828        (h      LDR      r0,[r5,#0]
        0x0001a950:    f0400008    @...    ORR      r0,r0,#8
        0x0001a954:    6028        (`      STR      r0,[r5,#0]
        0x0001a956:    f1b90f02    ....    CMP      r9,#2
        0x0001a95a:    d0ec        ..      BEQ      0x1a936 ; am_hal_sysctrl_sleep + 330
        0x0001a95c:    9800        ..      LDR      r0,[sp,#0]
        0x0001a95e:    f7fefd71    ..q.    BL       am_hal_interrupt_master_set ; 0x19444
        0x0001a962:    b002        ..      ADD      sp,sp,#8
        0x0001a964:    e8bd87f0    ....    POP      {r4-r10,pc}
        0x0001a968:    6829        )h      LDR      r1,[r5,#0]
        0x0001a96a:    f04f0a01    O...    MOV      r10,#1
        0x0001a96e:    f0210108    !...    BIC      r1,r1,#8
        0x0001a972:    6029        )`      STR      r1,[r5,#0]
        0x0001a974:    f1b90f02    ....    CMP      r9,#2
        0x0001a978:    f0000430    ..0.    AND      r4,r0,#0x30
        0x0001a97c:    f47faf72    ..r.    BNE      0x1a864 ; am_hal_sysctrl_sleep + 120
        0x0001a980:    e76d        m.      B        0x1a85e ; am_hal_sysctrl_sleep + 114
        0x0001a982:    bf00        ..      NOP      
        0x0001a984:    f2405089    @..P    MOV      r0,#0x589
        0x0001a988:    f2c10000    ....    MOVT     r0,#0x1000
        0x0001a98c:    7800        .x      LDRB     r0,[r0,#0]
        0x0001a98e:    b1c8        ..      CBZ      r0,0x1a9c4 ; am_hal_sysctrl_sleep + 472
        0x0001a990:    f8560c08    V...    LDR      r0,[r6,#-8]
        0x0001a994:    f2400224    @.$.    MOVW     r2,#0x24
        0x0001a998:    f0404000    @..@    ORR      r0,r0,#0x80000000
        0x0001a99c:    f8460c08    F...    STR      r0,[r6,#-8]
        0x0001a9a0:    f64f40c4    O..@    MOV      r0,#0xfcc4
        0x0001a9a4:    f6cf70ff    ...p    MOVT     r0,#0xffff
        0x0001a9a8:    f2c10200    ....    MOVT     r2,#0x1000
        0x0001a9ac:    5831        1X      LDR      r1,[r6,r0]
        0x0001a9ae:    6812        .h      LDR      r2,[r2,#0]
        0x0001a9b0:    5833        3X      LDR      r3,[r6,r0]
        0x0001a9b2:    f3c114c6    ....    UBFX     r4,r1,#7,#7
        0x0001a9b6:    f36213cd    b...    BFI      r3,r2,#7,#7
        0x0001a9ba:    5033        3P      STR      r3,[r6,r0]
        0x0001a9bc:    2001        .       MOVS     r0,#1
        0x0001a9be:    f7fefbf7    ....    BL       am_hal_delay_us ; 0x191b0
        0x0001a9c2:    e001        ..      B        0x1a9c8 ; am_hal_sysctrl_sleep + 476
        0x0001a9c4:    f04f34ff    O..4    MOV      r4,#0xffffffff
        0x0001a9c8:    f2400030    @.0.    MOVW     r0,#0x30
        0x0001a9cc:    f2c10000    ....    MOVT     r0,#0x1000
        0x0001a9d0:    6800        .h      LDR      r0,[r0,#0]
        0x0001a9d2:    f8561c10    V...    LDR      r1,[r6,#-0x10]
        0x0001a9d6:    f3605119    `..Q    BFI      r1,r0,#20,#6
        0x0001a9da:    f8461c10    F...    STR      r1,[r6,#-0x10]
        0x0001a9de:    6830        0h      LDR      r0,[r6,#0]
        0x0001a9e0:    f0204000     ..@    BIC      r0,r0,#0x80000000
        0x0001a9e4:    6030        0`      STR      r0,[r6,#0]
        0x0001a9e6:    6830        0h      LDR      r0,[r6,#0]
        0x0001a9e8:    f0204080     ..@    BIC      r0,r0,#0x40000000
        0x0001a9ec:    6030        0`      STR      r0,[r6,#0]
        0x0001a9ee:    2000        .       MOVS     r0,#0
        0x0001a9f0:    f001fb3a    ..:.    BL       buck_ldo_update_override ; 0x1c068
        0x0001a9f4:    2701        .'      MOVS     r7,#1
        0x0001a9f6:    e743        C.      B        0x1a880 ; am_hal_sysctrl_sleep + 148
    am_hal_timer_clear
        0x0001a9f8:    b510        ..      PUSH     {r4,lr}
        0x0001a9fa:    b082        ..      SUB      sp,sp,#8
        0x0001a9fc:    4604        .F      MOV      r4,r0
        0x0001a9fe:    f7fefd1d    ....    BL       am_hal_interrupt_master_disable ; 0x1943c
        0x0001aa02:    f2481104    H...    MOV      r1,#0x8104
        0x0001aa06:    9001        ..      STR      r0,[sp,#4]
        0x0001aa08:    f2c40100    ....    MOVT     r1,#0x4000
        0x0001aa0c:    2001        .       MOVS     r0,#1
        0x0001aa0e:    680a        .h      LDR      r2,[r1,#0]
        0x0001aa10:    40a0        .@      LSLS     r0,r0,r4
        0x0001aa12:    4382        .C      BICS     r2,r2,r0
        0x0001aa14:    600a        .`      STR      r2,[r1,#0]
        0x0001aa16:    eb011244    ..D.    ADD      r2,r1,r4,LSL #5
        0x0001aa1a:    f8d230fc    ...0    LDR      r3,[r2,#0xfc]
        0x0001aa1e:    f0230301    #...    BIC      r3,r3,#1
        0x0001aa22:    f8c230fc    ...0    STR      r3,[r2,#0xfc]
        0x0001aa26:    f8d230fc    ...0    LDR      r3,[r2,#0xfc]
        0x0001aa2a:    f0430302    C...    ORR      r3,r3,#2
        0x0001aa2e:    f8c230fc    ...0    STR      r3,[r2,#0xfc]
        0x0001aa32:    f8d230fc    ...0    LDR      r3,[r2,#0xfc]
        0x0001aa36:    f0430301    C...    ORR      r3,r3,#1
        0x0001aa3a:    f8c230fc    ...0    STR      r3,[r2,#0xfc]
        0x0001aa3e:    680a        .h      LDR      r2,[r1,#0]
        0x0001aa40:    4310        .C      ORRS     r0,r0,r2
        0x0001aa42:    6008        .`      STR      r0,[r1,#0]
        0x0001aa44:    9801        ..      LDR      r0,[sp,#4]
        0x0001aa46:    f7fefcfd    ....    BL       am_hal_interrupt_master_set ; 0x19444
        0x0001aa4a:    2000        .       MOVS     r0,#0
        0x0001aa4c:    b002        ..      ADD      sp,sp,#8
        0x0001aa4e:    bd10        ..      POP      {r4,pc}
    am_hal_timer_clear_stop
        0x0001aa50:    b510        ..      PUSH     {r4,lr}
        0x0001aa52:    b082        ..      SUB      sp,sp,#8
        0x0001aa54:    4604        .F      MOV      r4,r0
        0x0001aa56:    f7fefcf1    ....    BL       am_hal_interrupt_master_disable ; 0x1943c
        0x0001aa5a:    f2481104    H...    MOV      r1,#0x8104
        0x0001aa5e:    9001        ..      STR      r0,[sp,#4]
        0x0001aa60:    f2c40100    ....    MOVT     r1,#0x4000
        0x0001aa64:    2001        .       MOVS     r0,#1
        0x0001aa66:    680a        .h      LDR      r2,[r1,#0]
        0x0001aa68:    40a0        .@      LSLS     r0,r0,r4
        0x0001aa6a:    ea220000    "...    BIC      r0,r2,r0
        0x0001aa6e:    6008        .`      STR      r0,[r1,#0]
        0x0001aa70:    eb011044    ..D.    ADD      r0,r1,r4,LSL #5
        0x0001aa74:    f8d010fc    ....    LDR      r1,[r0,#0xfc]
        0x0001aa78:    f0210101    !...    BIC      r1,r1,#1
        0x0001aa7c:    f8c010fc    ....    STR      r1,[r0,#0xfc]
        0x0001aa80:    f8d010fc    ....    LDR      r1,[r0,#0xfc]
        0x0001aa84:    f0410102    A...    ORR      r1,r1,#2
        0x0001aa88:    f8c010fc    ....    STR      r1,[r0,#0xfc]
        0x0001aa8c:    f8d010fc    ....    LDR      r1,[r0,#0xfc]
        0x0001aa90:    f0410101    A...    ORR      r1,r1,#1
        0x0001aa94:    f8c010fc    ....    STR      r1,[r0,#0xfc]
        0x0001aa98:    9801        ..      LDR      r0,[sp,#4]
        0x0001aa9a:    f7fefcd3    ....    BL       am_hal_interrupt_master_set ; 0x19444
        0x0001aa9e:    2000        .       MOVS     r0,#0
        0x0001aaa0:    b002        ..      ADD      sp,sp,#8
        0x0001aaa2:    bd10        ..      POP      {r4,pc}
    am_hal_timer_default_config_set
        0x0001aaa4:    4601        .F      MOV      r1,r0
        0x0001aaa6:    f2401001    @...    MOV      r0,#0x101
        0x0001aaaa:    8008        ..      STRH     r0,[r1,#0]
        0x0001aaac:    f04f7080    O..p    MOV      r0,#0x1000000
        0x0001aab0:    f04f32ff    O..2    MOV      r2,#0xffffffff
        0x0001aab4:    f8c10002    ....    STR      r0,[r1,#2]
        0x0001aab8:    2000        .       MOVS     r0,#0
        0x0001aaba:    e9c10202    ....    STRD     r0,r2,[r1,#8]
        0x0001aabe:    2000        .       MOVS     r0,#0
        0x0001aac0:    610a        .a      STR      r2,[r1,#0x10]
        0x0001aac2:    4770        pG      BX       lr
    am_hal_timer_disable
        0x0001aac4:    b510        ..      PUSH     {r4,lr}
        0x0001aac6:    b082        ..      SUB      sp,sp,#8
        0x0001aac8:    4604        .F      MOV      r4,r0
        0x0001aaca:    f7fefcb7    ....    BL       am_hal_interrupt_master_disable ; 0x1943c
        0x0001aace:    f2481104    H...    MOV      r1,#0x8104
        0x0001aad2:    9001        ..      STR      r0,[sp,#4]
        0x0001aad4:    f2c40100    ....    MOVT     r1,#0x4000
        0x0001aad8:    2001        .       MOVS     r0,#1
        0x0001aada:    680a        .h      LDR      r2,[r1,#0]
        0x0001aadc:    40a0        .@      LSLS     r0,r0,r4
        0x0001aade:    ea220000    "...    BIC      r0,r2,r0
        0x0001aae2:    6008        .`      STR      r0,[r1,#0]
        0x0001aae4:    eb011044    ..D.    ADD      r0,r1,r4,LSL #5
        0x0001aae8:    f8d010fc    ....    LDR      r1,[r0,#0xfc]
        0x0001aaec:    f0210101    !...    BIC      r1,r1,#1
        0x0001aaf0:    f8c010fc    ....    STR      r1,[r0,#0xfc]
        0x0001aaf4:    9801        ..      LDR      r0,[sp,#4]
        0x0001aaf6:    f7fefca5    ....    BL       am_hal_interrupt_master_set ; 0x19444
        0x0001aafa:    2000        .       MOVS     r0,#0
        0x0001aafc:    b002        ..      ADD      sp,sp,#8
        0x0001aafe:    bd10        ..      POP      {r4,pc}
    am_hal_timer_enable
        0x0001ab00:    b510        ..      PUSH     {r4,lr}
        0x0001ab02:    b082        ..      SUB      sp,sp,#8
        0x0001ab04:    4604        .F      MOV      r4,r0
        0x0001ab06:    f7fefc99    ....    BL       am_hal_interrupt_master_disable ; 0x1943c
        0x0001ab0a:    f2481104    H...    MOV      r1,#0x8104
        0x0001ab0e:    9001        ..      STR      r0,[sp,#4]
        0x0001ab10:    f2c40100    ....    MOVT     r1,#0x4000
        0x0001ab14:    2001        .       MOVS     r0,#1
        0x0001ab16:    680a        .h      LDR      r2,[r1,#0]
        0x0001ab18:    40a0        .@      LSLS     r0,r0,r4
        0x0001ab1a:    4382        .C      BICS     r2,r2,r0
        0x0001ab1c:    600a        .`      STR      r2,[r1,#0]
        0x0001ab1e:    f8512cf4    Q..,    LDR      r2,[r1,#-0xf4]
        0x0001ab22:    4302        .C      ORRS     r2,r2,r0
        0x0001ab24:    f8412cf4    A..,    STR      r2,[r1,#-0xf4]
        0x0001ab28:    eb011244    ..D.    ADD      r2,r1,r4,LSL #5
        0x0001ab2c:    f8d230fc    ...0    LDR      r3,[r2,#0xfc]
        0x0001ab30:    f0430301    C...    ORR      r3,r3,#1
        0x0001ab34:    f8c230fc    ...0    STR      r3,[r2,#0xfc]
        0x0001ab38:    680a        .h      LDR      r2,[r1,#0]
        0x0001ab3a:    4310        .C      ORRS     r0,r0,r2
        0x0001ab3c:    6008        .`      STR      r0,[r1,#0]
        0x0001ab3e:    9801        ..      LDR      r0,[sp,#4]
        0x0001ab40:    f7fefc80    ....    BL       am_hal_interrupt_master_set ; 0x19444
        0x0001ab44:    2000        .       MOVS     r0,#0
        0x0001ab46:    b002        ..      ADD      sp,sp,#8
        0x0001ab48:    bd10        ..      POP      {r4,pc}
        0x0001ab4a:    0000        ..      MOVS     r0,r0
    am_hal_timer_enable_sync
        0x0001ab4c:    b5b0        ..      PUSH     {r4,r5,r7,lr}
        0x0001ab4e:    b082        ..      SUB      sp,sp,#8
        0x0001ab50:    f2481504    H...    MOV      r5,#0x8104
        0x0001ab54:    4604        .F      MOV      r4,r0
        0x0001ab56:    f2c40500    ....    MOVT     r5,#0x4000
        0x0001ab5a:    f7fefc6f    ..o.    BL       am_hal_interrupt_master_disable ; 0x1943c
        0x0001ab5e:    9001        ..      STR      r0,[sp,#4]
        0x0001ab60:    f8550cf4    U...    LDR      r0,[r5,#-0xf4]
        0x0001ab64:    07e1        ..      LSLS     r1,r4,#31
        0x0001ab66:    ea200004     ...    BIC      r0,r0,r4
        0x0001ab6a:    f8450cf4    E...    STR      r0,[r5,#-0xf4]
        0x0001ab6e:    d141        A.      BNE      0x1abf4 ; am_hal_timer_enable_sync + 168
        0x0001ab70:    07a0        ..      LSLS     r0,r4,#30
        0x0001ab72:    d44f        O.      BMI      0x1ac14 ; am_hal_timer_enable_sync + 200
        0x0001ab74:    0760        `.      LSLS     r0,r4,#29
        0x0001ab76:    d45d        ].      BMI      0x1ac34 ; am_hal_timer_enable_sync + 232
        0x0001ab78:    0720         .      LSLS     r0,r4,#28
        0x0001ab7a:    d46b        k.      BMI      0x1ac54 ; am_hal_timer_enable_sync + 264
        0x0001ab7c:    06e0        ..      LSLS     r0,r4,#27
        0x0001ab7e:    d479        y.      BMI      0x1ac74 ; am_hal_timer_enable_sync + 296
        0x0001ab80:    06a0        ..      LSLS     r0,r4,#26
        0x0001ab82:    f1008088    ....    BMI.W    0x1ac96 ; am_hal_timer_enable_sync + 330
        0x0001ab86:    0660        `.      LSLS     r0,r4,#25
        0x0001ab88:    f1008096    ....    BMI.W    0x1acb8 ; am_hal_timer_enable_sync + 364
        0x0001ab8c:    0620         .      LSLS     r0,r4,#24
        0x0001ab8e:    f10080a4    ....    BMI.W    0x1acda ; am_hal_timer_enable_sync + 398
        0x0001ab92:    05e0        ..      LSLS     r0,r4,#23
        0x0001ab94:    f10080b2    ....    BMI.W    0x1acfc ; am_hal_timer_enable_sync + 432
        0x0001ab98:    05a0        ..      LSLS     r0,r4,#22
        0x0001ab9a:    f10080c0    ....    BMI.W    0x1ad1e ; am_hal_timer_enable_sync + 466
        0x0001ab9e:    0560        `.      LSLS     r0,r4,#21
        0x0001aba0:    f10080ce    ....    BMI.W    0x1ad40 ; am_hal_timer_enable_sync + 500
        0x0001aba4:    0520         .      LSLS     r0,r4,#20
        0x0001aba6:    f10080dc    ....    BMI.W    0x1ad62 ; am_hal_timer_enable_sync + 534
        0x0001abaa:    04e0        ..      LSLS     r0,r4,#19
        0x0001abac:    f10080ea    ....    BMI.W    0x1ad84 ; am_hal_timer_enable_sync + 568
        0x0001abb0:    04a0        ..      LSLS     r0,r4,#18
        0x0001abb2:    f10080f8    ....    BMI.W    0x1ada6 ; am_hal_timer_enable_sync + 602
        0x0001abb6:    0460        `.      LSLS     r0,r4,#17
        0x0001abb8:    f1008106    ....    BMI.W    0x1adc8 ; am_hal_timer_enable_sync + 636
        0x0001abbc:    0420         .      LSLS     r0,r4,#16
        0x0001abbe:    d50d        ..      BPL      0x1abdc ; am_hal_timer_enable_sync + 144
        0x0001abc0:    6828        (h      LDR      r0,[r5,#0]
        0x0001abc2:    f4204000     ..@    BIC      r0,r0,#0x8000
        0x0001abc6:    6028        (`      STR      r0,[r5,#0]
        0x0001abc8:    f8d502dc    ....    LDR      r0,[r5,#0x2dc]
        0x0001abcc:    f0400001    @...    ORR      r0,r0,#1
        0x0001abd0:    f8c502dc    ....    STR      r0,[r5,#0x2dc]
        0x0001abd4:    6828        (h      LDR      r0,[r5,#0]
        0x0001abd6:    f4404000    @..@    ORR      r0,r0,#0x8000
        0x0001abda:    6028        (`      STR      r0,[r5,#0]
        0x0001abdc:    f8550cf4    U...    LDR      r0,[r5,#-0xf4]
        0x0001abe0:    4320         C      ORRS     r0,r0,r4
        0x0001abe2:    f8450cf4    E...    STR      r0,[r5,#-0xf4]
        0x0001abe6:    9801        ..      LDR      r0,[sp,#4]
        0x0001abe8:    f7fefc2c    ..,.    BL       am_hal_interrupt_master_set ; 0x19444
        0x0001abec:    2000        .       MOVS     r0,#0
        0x0001abee:    b002        ..      ADD      sp,sp,#8
        0x0001abf0:    bdb0        ..      POP      {r4,r5,r7,pc}
        0x0001abf2:    bf00        ..      NOP      
        0x0001abf4:    6828        (h      LDR      r0,[r5,#0]
        0x0001abf6:    f0200001     ...    BIC      r0,r0,#1
        0x0001abfa:    6028        (`      STR      r0,[r5,#0]
        0x0001abfc:    f8d500fc    ....    LDR      r0,[r5,#0xfc]
        0x0001ac00:    f0400001    @...    ORR      r0,r0,#1
        0x0001ac04:    f8c500fc    ....    STR      r0,[r5,#0xfc]
        0x0001ac08:    6828        (h      LDR      r0,[r5,#0]
        0x0001ac0a:    f0400001    @...    ORR      r0,r0,#1
        0x0001ac0e:    6028        (`      STR      r0,[r5,#0]
        0x0001ac10:    07a0        ..      LSLS     r0,r4,#30
        0x0001ac12:    d5af        ..      BPL      0x1ab74 ; am_hal_timer_enable_sync + 40
        0x0001ac14:    6828        (h      LDR      r0,[r5,#0]
        0x0001ac16:    f0200002     ...    BIC      r0,r0,#2
        0x0001ac1a:    6028        (`      STR      r0,[r5,#0]
        0x0001ac1c:    f8d5011c    ....    LDR      r0,[r5,#0x11c]
        0x0001ac20:    f0400001    @...    ORR      r0,r0,#1
        0x0001ac24:    f8c5011c    ....    STR      r0,[r5,#0x11c]
        0x0001ac28:    6828        (h      LDR      r0,[r5,#0]
        0x0001ac2a:    f0400002    @...    ORR      r0,r0,#2
        0x0001ac2e:    6028        (`      STR      r0,[r5,#0]
        0x0001ac30:    0760        `.      LSLS     r0,r4,#29
        0x0001ac32:    d5a1        ..      BPL      0x1ab78 ; am_hal_timer_enable_sync + 44
        0x0001ac34:    6828        (h      LDR      r0,[r5,#0]
        0x0001ac36:    f0200004     ...    BIC      r0,r0,#4
        0x0001ac3a:    6028        (`      STR      r0,[r5,#0]
        0x0001ac3c:    f8d5013c    ..<.    LDR      r0,[r5,#0x13c]
        0x0001ac40:    f0400001    @...    ORR      r0,r0,#1
        0x0001ac44:    f8c5013c    ..<.    STR      r0,[r5,#0x13c]
        0x0001ac48:    6828        (h      LDR      r0,[r5,#0]
        0x0001ac4a:    f0400004    @...    ORR      r0,r0,#4
        0x0001ac4e:    6028        (`      STR      r0,[r5,#0]
        0x0001ac50:    0720         .      LSLS     r0,r4,#28
        0x0001ac52:    d593        ..      BPL      0x1ab7c ; am_hal_timer_enable_sync + 48
        0x0001ac54:    6828        (h      LDR      r0,[r5,#0]
        0x0001ac56:    f0200008     ...    BIC      r0,r0,#8
        0x0001ac5a:    6028        (`      STR      r0,[r5,#0]
        0x0001ac5c:    f8d5015c    ..\.    LDR      r0,[r5,#0x15c]
        0x0001ac60:    f0400001    @...    ORR      r0,r0,#1
        0x0001ac64:    f8c5015c    ..\.    STR      r0,[r5,#0x15c]
        0x0001ac68:    6828        (h      LDR      r0,[r5,#0]
        0x0001ac6a:    f0400008    @...    ORR      r0,r0,#8
        0x0001ac6e:    6028        (`      STR      r0,[r5,#0]
        0x0001ac70:    06e0        ..      LSLS     r0,r4,#27
        0x0001ac72:    d585        ..      BPL      0x1ab80 ; am_hal_timer_enable_sync + 52
        0x0001ac74:    6828        (h      LDR      r0,[r5,#0]
        0x0001ac76:    f0200010     ...    BIC      r0,r0,#0x10
        0x0001ac7a:    6028        (`      STR      r0,[r5,#0]
        0x0001ac7c:    f8d5017c    ..|.    LDR      r0,[r5,#0x17c]
        0x0001ac80:    f0400001    @...    ORR      r0,r0,#1
        0x0001ac84:    f8c5017c    ..|.    STR      r0,[r5,#0x17c]
        0x0001ac88:    6828        (h      LDR      r0,[r5,#0]
        0x0001ac8a:    f0400010    @...    ORR      r0,r0,#0x10
        0x0001ac8e:    6028        (`      STR      r0,[r5,#0]
        0x0001ac90:    06a0        ..      LSLS     r0,r4,#26
        0x0001ac92:    f57faf78    ..x.    BPL      0x1ab86 ; am_hal_timer_enable_sync + 58
        0x0001ac96:    6828        (h      LDR      r0,[r5,#0]
        0x0001ac98:    f0200020     . .    BIC      r0,r0,#0x20
        0x0001ac9c:    6028        (`      STR      r0,[r5,#0]
        0x0001ac9e:    f8d5019c    ....    LDR      r0,[r5,#0x19c]
        0x0001aca2:    f0400001    @...    ORR      r0,r0,#1
        0x0001aca6:    f8c5019c    ....    STR      r0,[r5,#0x19c]
        0x0001acaa:    6828        (h      LDR      r0,[r5,#0]
        0x0001acac:    f0400020    @. .    ORR      r0,r0,#0x20
        0x0001acb0:    6028        (`      STR      r0,[r5,#0]
        0x0001acb2:    0660        `.      LSLS     r0,r4,#25
        0x0001acb4:    f57faf6a    ..j.    BPL      0x1ab8c ; am_hal_timer_enable_sync + 64
        0x0001acb8:    6828        (h      LDR      r0,[r5,#0]
        0x0001acba:    f0200040     .@.    BIC      r0,r0,#0x40
        0x0001acbe:    6028        (`      STR      r0,[r5,#0]
        0x0001acc0:    f8d501bc    ....    LDR      r0,[r5,#0x1bc]
        0x0001acc4:    f0400001    @...    ORR      r0,r0,#1
        0x0001acc8:    f8c501bc    ....    STR      r0,[r5,#0x1bc]
        0x0001accc:    6828        (h      LDR      r0,[r5,#0]
        0x0001acce:    f0400040    @.@.    ORR      r0,r0,#0x40
        0x0001acd2:    6028        (`      STR      r0,[r5,#0]
        0x0001acd4:    0620         .      LSLS     r0,r4,#24
        0x0001acd6:    f57faf5c    ..\.    BPL      0x1ab92 ; am_hal_timer_enable_sync + 70
        0x0001acda:    6828        (h      LDR      r0,[r5,#0]
        0x0001acdc:    f0200080     ...    BIC      r0,r0,#0x80
        0x0001ace0:    6028        (`      STR      r0,[r5,#0]
        0x0001ace2:    f8d501dc    ....    LDR      r0,[r5,#0x1dc]
        0x0001ace6:    f0400001    @...    ORR      r0,r0,#1
        0x0001acea:    f8c501dc    ....    STR      r0,[r5,#0x1dc]
        0x0001acee:    6828        (h      LDR      r0,[r5,#0]
        0x0001acf0:    f0400080    @...    ORR      r0,r0,#0x80
        0x0001acf4:    6028        (`      STR      r0,[r5,#0]
        0x0001acf6:    05e0        ..      LSLS     r0,r4,#23
        0x0001acf8:    f57faf4e    ..N.    BPL      0x1ab98 ; am_hal_timer_enable_sync + 76
        0x0001acfc:    6828        (h      LDR      r0,[r5,#0]
        0x0001acfe:    f4207080     ..p    BIC      r0,r0,#0x100
        0x0001ad02:    6028        (`      STR      r0,[r5,#0]
        0x0001ad04:    f8d501fc    ....    LDR      r0,[r5,#0x1fc]
        0x0001ad08:    f0400001    @...    ORR      r0,r0,#1
        0x0001ad0c:    f8c501fc    ....    STR      r0,[r5,#0x1fc]
        0x0001ad10:    6828        (h      LDR      r0,[r5,#0]
        0x0001ad12:    f4407080    @..p    ORR      r0,r0,#0x100
        0x0001ad16:    6028        (`      STR      r0,[r5,#0]
        0x0001ad18:    05a0        ..      LSLS     r0,r4,#22
        0x0001ad1a:    f57faf40    ..@.    BPL      0x1ab9e ; am_hal_timer_enable_sync + 82
        0x0001ad1e:    6828        (h      LDR      r0,[r5,#0]
        0x0001ad20:    f4207000     ..p    BIC      r0,r0,#0x200
        0x0001ad24:    6028        (`      STR      r0,[r5,#0]
        0x0001ad26:    f8d5021c    ....    LDR      r0,[r5,#0x21c]
        0x0001ad2a:    f0400001    @...    ORR      r0,r0,#1
        0x0001ad2e:    f8c5021c    ....    STR      r0,[r5,#0x21c]
        0x0001ad32:    6828        (h      LDR      r0,[r5,#0]
        0x0001ad34:    f4407000    @..p    ORR      r0,r0,#0x200
        0x0001ad38:    6028        (`      STR      r0,[r5,#0]
        0x0001ad3a:    0560        `.      LSLS     r0,r4,#21
        0x0001ad3c:    f57faf32    ..2.    BPL      0x1aba4 ; am_hal_timer_enable_sync + 88
        0x0001ad40:    6828        (h      LDR      r0,[r5,#0]
        0x0001ad42:    f4206080     ..`    BIC      r0,r0,#0x400
        0x0001ad46:    6028        (`      STR      r0,[r5,#0]
        0x0001ad48:    f8d5023c    ..<.    LDR      r0,[r5,#0x23c]
        0x0001ad4c:    f0400001    @...    ORR      r0,r0,#1
        0x0001ad50:    f8c5023c    ..<.    STR      r0,[r5,#0x23c]
        0x0001ad54:    6828        (h      LDR      r0,[r5,#0]
        0x0001ad56:    f4406080    @..`    ORR      r0,r0,#0x400
        0x0001ad5a:    6028        (`      STR      r0,[r5,#0]
        0x0001ad5c:    0520         .      LSLS     r0,r4,#20
        0x0001ad5e:    f57faf24    ..$.    BPL      0x1abaa ; am_hal_timer_enable_sync + 94
        0x0001ad62:    6828        (h      LDR      r0,[r5,#0]
        0x0001ad64:    f4206000     ..`    BIC      r0,r0,#0x800
        0x0001ad68:    6028        (`      STR      r0,[r5,#0]
        0x0001ad6a:    f8d5025c    ..\.    LDR      r0,[r5,#0x25c]
        0x0001ad6e:    f0400001    @...    ORR      r0,r0,#1
        0x0001ad72:    f8c5025c    ..\.    STR      r0,[r5,#0x25c]
        0x0001ad76:    6828        (h      LDR      r0,[r5,#0]
        0x0001ad78:    f4406000    @..`    ORR      r0,r0,#0x800
        0x0001ad7c:    6028        (`      STR      r0,[r5,#0]
        0x0001ad7e:    04e0        ..      LSLS     r0,r4,#19
        0x0001ad80:    f57faf16    ....    BPL      0x1abb0 ; am_hal_timer_enable_sync + 100
        0x0001ad84:    6828        (h      LDR      r0,[r5,#0]
        0x0001ad86:    f4205080     ..P    BIC      r0,r0,#0x1000
        0x0001ad8a:    6028        (`      STR      r0,[r5,#0]
        0x0001ad8c:    f8d5027c    ..|.    LDR      r0,[r5,#0x27c]
        0x0001ad90:    f0400001    @...    ORR      r0,r0,#1
        0x0001ad94:    f8c5027c    ..|.    STR      r0,[r5,#0x27c]
        0x0001ad98:    6828        (h      LDR      r0,[r5,#0]
        0x0001ad9a:    f4405080    @..P    ORR      r0,r0,#0x1000
        0x0001ad9e:    6028        (`      STR      r0,[r5,#0]
        0x0001ada0:    04a0        ..      LSLS     r0,r4,#18
        0x0001ada2:    f57faf08    ....    BPL      0x1abb6 ; am_hal_timer_enable_sync + 106
        0x0001ada6:    6828        (h      LDR      r0,[r5,#0]
        0x0001ada8:    f4205000     ..P    BIC      r0,r0,#0x2000
        0x0001adac:    6028        (`      STR      r0,[r5,#0]
        0x0001adae:    f8d5029c    ....    LDR      r0,[r5,#0x29c]
        0x0001adb2:    f0400001    @...    ORR      r0,r0,#1
        0x0001adb6:    f8c5029c    ....    STR      r0,[r5,#0x29c]
        0x0001adba:    6828        (h      LDR      r0,[r5,#0]
        0x0001adbc:    f4405000    @..P    ORR      r0,r0,#0x2000
        0x0001adc0:    6028        (`      STR      r0,[r5,#0]
        0x0001adc2:    0460        `.      LSLS     r0,r4,#17
        0x0001adc4:    f57faefa    ....    BPL      0x1abbc ; am_hal_timer_enable_sync + 112
        0x0001adc8:    6828        (h      LDR      r0,[r5,#0]
        0x0001adca:    f4204080     ..@    BIC      r0,r0,#0x4000
        0x0001adce:    6028        (`      STR      r0,[r5,#0]
        0x0001add0:    f8d502bc    ....    LDR      r0,[r5,#0x2bc]
        0x0001add4:    f0400001    @...    ORR      r0,r0,#1
        0x0001add8:    f8c502bc    ....    STR      r0,[r5,#0x2bc]
        0x0001addc:    6828        (h      LDR      r0,[r5,#0]
        0x0001adde:    f4404080    @..@    ORR      r0,r0,#0x4000
        0x0001ade2:    6028        (`      STR      r0,[r5,#0]
        0x0001ade4:    0420         .      LSLS     r0,r4,#16
        0x0001ade6:    f57faef9    ....    BPL      0x1abdc ; am_hal_timer_enable_sync + 144
        0x0001adea:    e6e9        ..      B        0x1abc0 ; am_hal_timer_enable_sync + 116
    am_hal_timer_interrupt_clear
        0x0001adec:    f2480268    H.h.    MOV      r2,#0x8068
        0x0001adf0:    4601        .F      MOV      r1,r0
        0x0001adf2:    f2c40200    ....    MOVT     r2,#0x4000
        0x0001adf6:    2000        .       MOVS     r0,#0
        0x0001adf8:    6011        .`      STR      r1,[r2,#0]
        0x0001adfa:    4770        pG      BX       lr
    am_hal_timer_interrupt_enable
        0x0001adfc:    210c        .!      MOVS     r1,#0xc
        0x0001adfe:    f2c40102    ....    MOVT     r1,#0x4002
        0x0001ae02:    6809        .h      LDR      r1,[r1,#0]
        0x0001ae04:    f00101fe    ....    AND      r1,r1,#0xfe
        0x0001ae08:    2922        ")      CMP      r1,#0x22
        0x0001ae0a:    f0c080b1    ....    BCC.W    0x1af70 ; am_hal_timer_interrupt_enable + 372
        0x0001ae0e:    07c1        ..      LSLS     r1,r0,#31
        0x0001ae10:    f240215c    @.\!    MOVW     r1,#0x25c
        0x0001ae14:    f2c10100    ....    MOVT     r1,#0x1000
        0x0001ae18:    d003        ..      BEQ      0x1ae22 ; am_hal_timer_interrupt_enable + 38
        0x0001ae1a:    784a        Jx      LDRB     r2,[r1,#1]
        0x0001ae1c:    2a00        .*      CMP      r2,#0
        0x0001ae1e:    f00080a5    ....    BEQ.W    0x1af6c ; am_hal_timer_interrupt_enable + 368
        0x0001ae22:    0782        ..      LSLS     r2,r0,#30
        0x0001ae24:    d503        ..      BPL      0x1ae2e ; am_hal_timer_interrupt_enable + 50
        0x0001ae26:    78ca        .x      LDRB     r2,[r1,#3]
        0x0001ae28:    2a00        .*      CMP      r2,#0
        0x0001ae2a:    f000809f    ....    BEQ.W    0x1af6c ; am_hal_timer_interrupt_enable + 368
        0x0001ae2e:    0742        B.      LSLS     r2,r0,#29
        0x0001ae30:    d503        ..      BPL      0x1ae3a ; am_hal_timer_interrupt_enable + 62
        0x0001ae32:    794a        Jy      LDRB     r2,[r1,#5]
        0x0001ae34:    2a00        .*      CMP      r2,#0
        0x0001ae36:    f0008099    ....    BEQ.W    0x1af6c ; am_hal_timer_interrupt_enable + 368
        0x0001ae3a:    0702        ..      LSLS     r2,r0,#28
        0x0001ae3c:    d503        ..      BPL      0x1ae46 ; am_hal_timer_interrupt_enable + 74
        0x0001ae3e:    79ca        .y      LDRB     r2,[r1,#7]
        0x0001ae40:    2a00        .*      CMP      r2,#0
        0x0001ae42:    f0008093    ....    BEQ.W    0x1af6c ; am_hal_timer_interrupt_enable + 368
        0x0001ae46:    06c2        ..      LSLS     r2,r0,#27
        0x0001ae48:    d503        ..      BPL      0x1ae52 ; am_hal_timer_interrupt_enable + 86
        0x0001ae4a:    7a4a        Jz      LDRB     r2,[r1,#9]
        0x0001ae4c:    2a00        .*      CMP      r2,#0
        0x0001ae4e:    f000808d    ....    BEQ.W    0x1af6c ; am_hal_timer_interrupt_enable + 368
        0x0001ae52:    0682        ..      LSLS     r2,r0,#26
        0x0001ae54:    d503        ..      BPL      0x1ae5e ; am_hal_timer_interrupt_enable + 98
        0x0001ae56:    7aca        .z      LDRB     r2,[r1,#0xb]
        0x0001ae58:    2a00        .*      CMP      r2,#0
        0x0001ae5a:    f0008087    ....    BEQ.W    0x1af6c ; am_hal_timer_interrupt_enable + 368
        0x0001ae5e:    0642        B.      LSLS     r2,r0,#25
        0x0001ae60:    d503        ..      BPL      0x1ae6a ; am_hal_timer_interrupt_enable + 110
        0x0001ae62:    7b4a        J{      LDRB     r2,[r1,#0xd]
        0x0001ae64:    2a00        .*      CMP      r2,#0
        0x0001ae66:    f0008081    ....    BEQ.W    0x1af6c ; am_hal_timer_interrupt_enable + 368
        0x0001ae6a:    0602        ..      LSLS     r2,r0,#24
        0x0001ae6c:    d502        ..      BPL      0x1ae74 ; am_hal_timer_interrupt_enable + 120
        0x0001ae6e:    7bca        .{      LDRB     r2,[r1,#0xf]
        0x0001ae70:    2a00        .*      CMP      r2,#0
        0x0001ae72:    d07b        {.      BEQ      0x1af6c ; am_hal_timer_interrupt_enable + 368
        0x0001ae74:    05c2        ..      LSLS     r2,r0,#23
        0x0001ae76:    d502        ..      BPL      0x1ae7e ; am_hal_timer_interrupt_enable + 130
        0x0001ae78:    7c4a        J|      LDRB     r2,[r1,#0x11]
        0x0001ae7a:    2a00        .*      CMP      r2,#0
        0x0001ae7c:    d076        v.      BEQ      0x1af6c ; am_hal_timer_interrupt_enable + 368
        0x0001ae7e:    0582        ..      LSLS     r2,r0,#22
        0x0001ae80:    d502        ..      BPL      0x1ae88 ; am_hal_timer_interrupt_enable + 140
        0x0001ae82:    7cca        .|      LDRB     r2,[r1,#0x13]
        0x0001ae84:    2a00        .*      CMP      r2,#0
        0x0001ae86:    d071        q.      BEQ      0x1af6c ; am_hal_timer_interrupt_enable + 368
        0x0001ae88:    0542        B.      LSLS     r2,r0,#21
        0x0001ae8a:    d502        ..      BPL      0x1ae92 ; am_hal_timer_interrupt_enable + 150
        0x0001ae8c:    7d4a        J}      LDRB     r2,[r1,#0x15]
        0x0001ae8e:    2a00        .*      CMP      r2,#0
        0x0001ae90:    d06c        l.      BEQ      0x1af6c ; am_hal_timer_interrupt_enable + 368
        0x0001ae92:    0502        ..      LSLS     r2,r0,#20
        0x0001ae94:    d502        ..      BPL      0x1ae9c ; am_hal_timer_interrupt_enable + 160
        0x0001ae96:    7dca        .}      LDRB     r2,[r1,#0x17]
        0x0001ae98:    2a00        .*      CMP      r2,#0
        0x0001ae9a:    d067        g.      BEQ      0x1af6c ; am_hal_timer_interrupt_enable + 368
        0x0001ae9c:    04c2        ..      LSLS     r2,r0,#19
        0x0001ae9e:    d502        ..      BPL      0x1aea6 ; am_hal_timer_interrupt_enable + 170
        0x0001aea0:    7e4a        J~      LDRB     r2,[r1,#0x19]
        0x0001aea2:    2a00        .*      CMP      r2,#0
        0x0001aea4:    d062        b.      BEQ      0x1af6c ; am_hal_timer_interrupt_enable + 368
        0x0001aea6:    0482        ..      LSLS     r2,r0,#18
        0x0001aea8:    d502        ..      BPL      0x1aeb0 ; am_hal_timer_interrupt_enable + 180
        0x0001aeaa:    7eca        .~      LDRB     r2,[r1,#0x1b]
        0x0001aeac:    2a00        .*      CMP      r2,#0
        0x0001aeae:    d05d        ].      BEQ      0x1af6c ; am_hal_timer_interrupt_enable + 368
        0x0001aeb0:    0442        B.      LSLS     r2,r0,#17
        0x0001aeb2:    d502        ..      BPL      0x1aeba ; am_hal_timer_interrupt_enable + 190
        0x0001aeb4:    7f4a        J.      LDRB     r2,[r1,#0x1d]
        0x0001aeb6:    2a00        .*      CMP      r2,#0
        0x0001aeb8:    d058        X.      BEQ      0x1af6c ; am_hal_timer_interrupt_enable + 368
        0x0001aeba:    0402        ..      LSLS     r2,r0,#16
        0x0001aebc:    d502        ..      BPL      0x1aec4 ; am_hal_timer_interrupt_enable + 200
        0x0001aebe:    7fca        ..      LDRB     r2,[r1,#0x1f]
        0x0001aec0:    2a00        .*      CMP      r2,#0
        0x0001aec2:    d053        S.      BEQ      0x1af6c ; am_hal_timer_interrupt_enable + 368
        0x0001aec4:    03c2        ..      LSLS     r2,r0,#15
        0x0001aec6:    d503        ..      BPL      0x1aed0 ; am_hal_timer_interrupt_enable + 212
        0x0001aec8:    f8912021    ..!     LDRB     r2,[r1,#0x21]
        0x0001aecc:    2a00        .*      CMP      r2,#0
        0x0001aece:    d04d        M.      BEQ      0x1af6c ; am_hal_timer_interrupt_enable + 368
        0x0001aed0:    0382        ..      LSLS     r2,r0,#14
        0x0001aed2:    d503        ..      BPL      0x1aedc ; am_hal_timer_interrupt_enable + 224
        0x0001aed4:    f8912023    ..#     LDRB     r2,[r1,#0x23]
        0x0001aed8:    2a00        .*      CMP      r2,#0
        0x0001aeda:    d047        G.      BEQ      0x1af6c ; am_hal_timer_interrupt_enable + 368
        0x0001aedc:    0342        B.      LSLS     r2,r0,#13
        0x0001aede:    d503        ..      BPL      0x1aee8 ; am_hal_timer_interrupt_enable + 236
        0x0001aee0:    f8912025    ..%     LDRB     r2,[r1,#0x25]
        0x0001aee4:    2a00        .*      CMP      r2,#0
        0x0001aee6:    d041        A.      BEQ      0x1af6c ; am_hal_timer_interrupt_enable + 368
        0x0001aee8:    0302        ..      LSLS     r2,r0,#12
        0x0001aeea:    d502        ..      BPL      0x1aef2 ; am_hal_timer_interrupt_enable + 246
        0x0001aeec:    f8912027    ..'     LDRB     r2,[r1,#0x27]
        0x0001aef0:    b3e2        ..      CBZ      r2,0x1af6c ; am_hal_timer_interrupt_enable + 368
        0x0001aef2:    02c2        ..      LSLS     r2,r0,#11
        0x0001aef4:    d502        ..      BPL      0x1aefc ; am_hal_timer_interrupt_enable + 256
        0x0001aef6:    f8912029    ..)     LDRB     r2,[r1,#0x29]
        0x0001aefa:    b3ba        ..      CBZ      r2,0x1af6c ; am_hal_timer_interrupt_enable + 368
        0x0001aefc:    0282        ..      LSLS     r2,r0,#10
        0x0001aefe:    d502        ..      BPL      0x1af06 ; am_hal_timer_interrupt_enable + 266
        0x0001af00:    f891202b    ..+     LDRB     r2,[r1,#0x2b]
        0x0001af04:    b392        ..      CBZ      r2,0x1af6c ; am_hal_timer_interrupt_enable + 368
        0x0001af06:    0242        B.      LSLS     r2,r0,#9
        0x0001af08:    d502        ..      BPL      0x1af10 ; am_hal_timer_interrupt_enable + 276
        0x0001af0a:    f891202d    ..-     LDRB     r2,[r1,#0x2d]
        0x0001af0e:    b36a        j.      CBZ      r2,0x1af6c ; am_hal_timer_interrupt_enable + 368
        0x0001af10:    0202        ..      LSLS     r2,r0,#8
        0x0001af12:    d502        ..      BPL      0x1af1a ; am_hal_timer_interrupt_enable + 286
        0x0001af14:    f891202f    ../     LDRB     r2,[r1,#0x2f]
        0x0001af18:    b342        B.      CBZ      r2,0x1af6c ; am_hal_timer_interrupt_enable + 368
        0x0001af1a:    01c2        ..      LSLS     r2,r0,#7
        0x0001af1c:    d502        ..      BPL      0x1af24 ; am_hal_timer_interrupt_enable + 296
        0x0001af1e:    f8912031    ..1     LDRB     r2,[r1,#0x31]
        0x0001af22:    b31a        ..      CBZ      r2,0x1af6c ; am_hal_timer_interrupt_enable + 368
        0x0001af24:    0182        ..      LSLS     r2,r0,#6
        0x0001af26:    d502        ..      BPL      0x1af2e ; am_hal_timer_interrupt_enable + 306
        0x0001af28:    f8912033    ..3     LDRB     r2,[r1,#0x33]
        0x0001af2c:    b1f2        ..      CBZ      r2,0x1af6c ; am_hal_timer_interrupt_enable + 368
        0x0001af2e:    0142        B.      LSLS     r2,r0,#5
        0x0001af30:    d502        ..      BPL      0x1af38 ; am_hal_timer_interrupt_enable + 316
        0x0001af32:    f8912035    ..5     LDRB     r2,[r1,#0x35]
        0x0001af36:    b1ca        ..      CBZ      r2,0x1af6c ; am_hal_timer_interrupt_enable + 368
        0x0001af38:    0102        ..      LSLS     r2,r0,#4
        0x0001af3a:    d502        ..      BPL      0x1af42 ; am_hal_timer_interrupt_enable + 326
        0x0001af3c:    f8912037    ..7     LDRB     r2,[r1,#0x37]
        0x0001af40:    b1a2        ..      CBZ      r2,0x1af6c ; am_hal_timer_interrupt_enable + 368
        0x0001af42:    00c2        ..      LSLS     r2,r0,#3
        0x0001af44:    d502        ..      BPL      0x1af4c ; am_hal_timer_interrupt_enable + 336
        0x0001af46:    f8912039    ..9     LDRB     r2,[r1,#0x39]
        0x0001af4a:    b17a        z.      CBZ      r2,0x1af6c ; am_hal_timer_interrupt_enable + 368
        0x0001af4c:    0082        ..      LSLS     r2,r0,#2
        0x0001af4e:    d502        ..      BPL      0x1af56 ; am_hal_timer_interrupt_enable + 346
        0x0001af50:    f891203b    ..;     LDRB     r2,[r1,#0x3b]
        0x0001af54:    b152        R.      CBZ      r2,0x1af6c ; am_hal_timer_interrupt_enable + 368
        0x0001af56:    0042        B.      LSLS     r2,r0,#1
        0x0001af58:    d502        ..      BPL      0x1af60 ; am_hal_timer_interrupt_enable + 356
        0x0001af5a:    f891203d    ..=     LDRB     r2,[r1,#0x3d]
        0x0001af5e:    b12a        *.      CBZ      r2,0x1af6c ; am_hal_timer_interrupt_enable + 368
        0x0001af60:    f1b03fff    ...?    CMP      r0,#0xffffffff
        0x0001af64:    dc04        ..      BGT      0x1af70 ; am_hal_timer_interrupt_enable + 372
        0x0001af66:    f891103f    ..?.    LDRB     r1,[r1,#0x3f]
        0x0001af6a:    b909        ..      CBNZ     r1,0x1af70 ; am_hal_timer_interrupt_enable + 372
        0x0001af6c:    2006        .       MOVS     r0,#6
        0x0001af6e:    4770        pG      BX       lr
        0x0001af70:    f2480160    H.`.    MOV      r1,#0x8060
        0x0001af74:    f2c40100    ....    MOVT     r1,#0x4000
        0x0001af78:    680a        .h      LDR      r2,[r1,#0]
        0x0001af7a:    4310        .C      ORRS     r0,r0,r2
        0x0001af7c:    6008        .`      STR      r0,[r1,#0]
        0x0001af7e:    2000        .       MOVS     r0,#0
        0x0001af80:    4770        pG      BX       lr
        0x0001af82:    0000        ..      MOVS     r0,r0
    am_hal_timer_interrupt_status_get
        0x0001af84:    f2480360    H.`.    MOV      r3,#0x8060
        0x0001af88:    f2c40300    ....    MOVT     r3,#0x4000
        0x0001af8c:    685a        Zh      LDR      r2,[r3,#4]
        0x0001af8e:    2800        .(      CMP      r0,#0
        0x0001af90:    bf1c        ..      ITT      NE
        0x0001af92:    6818        .h      LDRNE    r0,[r3,#0]
        0x0001af94:    4002        .@      ANDNE    r2,r2,r0
        0x0001af96:    2000        .       MOVS     r0,#0
        0x0001af98:    600a        .`      STR      r2,[r1,#0]
        0x0001af9a:    4770        pG      BX       lr
    am_hal_timer_read
        0x0001af9c:    b580        ..      PUSH     {r7,lr}
        0x0001af9e:    b084        ..      SUB      sp,sp,#0x10
        0x0001afa0:    f2482104    H..!    MOV      r1,#0x8204
        0x0001afa4:    f2c40100    ....    MOVT     r1,#0x4000
        0x0001afa8:    eb011040    ..@.    ADD      r0,r1,r0,LSL #5
        0x0001afac:    a901        ..      ADD      r1,sp,#4
        0x0001afae:    f000f88b    ....    BL       am_hal_triple_read ; 0x1b0c8
        0x0001afb2:    e9dd1201    ....    LDRD     r1,r2,[sp,#4]
        0x0001afb6:    9803        ..      LDR      r0,[sp,#0xc]
        0x0001afb8:    4291        .B      CMP      r1,r2
        0x0001afba:    bf08        ..      IT       EQ
        0x0001afbc:    4608        .F      MOVEQ    r0,r1
        0x0001afbe:    b004        ..      ADD      sp,sp,#0x10
        0x0001afc0:    bd80        ..      POP      {r7,pc}
        0x0001afc2:    0000        ..      MOVS     r0,r0
    am_hal_timer_reset_config
        0x0001afc4:    e92d41f0    -..A    PUSH     {r4-r8,lr}
        0x0001afc8:    b082        ..      SUB      sp,sp,#8
        0x0001afca:    f2481604    H...    MOV      r6,#0x8104
        0x0001afce:    f2c40600    ....    MOVT     r6,#0x4000
        0x0001afd2:    4604        .F      MOV      r4,r0
        0x0001afd4:    0040        @.      LSLS     r0,r0,#1
        0x0001afd6:    2103        .!      MOVS     r1,#3
        0x0001afd8:    f8562ca4    V..,    LDR      r2,[r6,#-0xa4]
        0x0001afdc:    fa01f800    ....    LSL      r8,r1,r0
        0x0001afe0:    ea220008    "...    BIC      r0,r2,r8
        0x0001afe4:    f8460ca4    F...    STR      r0,[r6,#-0xa4]
        0x0001afe8:    2001        .       MOVS     r0,#1
        0x0001afea:    fa00f504    ....    LSL      r5,r0,r4
        0x0001afee:    4628        (F      MOV      r0,r5
        0x0001aff0:    f7fffdac    ....    BL       am_hal_timer_enable_sync ; 0x1ab4c
        0x0001aff4:    f7fefa22    ..".    BL       am_hal_interrupt_master_disable ; 0x1943c
        0x0001aff8:    9001        ..      STR      r0,[sp,#4]
        0x0001affa:    6830        0h      LDR      r0,[r6,#0]
        0x0001affc:    eb061744    ..D.    ADD      r7,r6,r4,LSL #5
        0x0001b000:    43a8        .C      BICS     r0,r0,r5
        0x0001b002:    6030        0`      STR      r0,[r6,#0]
        0x0001b004:    f8d700fc    ....    LDR      r0,[r7,#0xfc]
        0x0001b008:    f0200001     ...    BIC      r0,r0,#1
        0x0001b00c:    f8c700fc    ....    STR      r0,[r7,#0xfc]
        0x0001b010:    9801        ..      LDR      r0,[sp,#4]
        0x0001b012:    f7fefa17    ....    BL       am_hal_interrupt_master_set ; 0x19444
        0x0001b016:    6830        0h      LDR      r0,[r6,#0]
        0x0001b018:    2100        .!      MOVS     r1,#0
        0x0001b01a:    43a8        .C      BICS     r0,r0,r5
        0x0001b01c:    6030        0`      STR      r0,[r6,#0]
        0x0001b01e:    f8c710fc    ....    STR      r1,[r7,#0xfc]
        0x0001b022:    f8c71100    ....    STR      r1,[r7,#0x100]
        0x0001b026:    f8c71104    ....    STR      r1,[r7,#0x104]
        0x0001b02a:    f8c71108    ....    STR      r1,[r7,#0x108]
        0x0001b02e:    f8c7110c    ....    STR      r1,[r7,#0x10c]
        0x0001b032:    6830        0h      LDR      r0,[r6,#0]
        0x0001b034:    f240225c    @.\"    MOVW     r2,#0x25c
        0x0001b038:    4328        (C      ORRS     r0,r0,r5
        0x0001b03a:    f2c10200    ....    MOVT     r2,#0x1000
        0x0001b03e:    6030        0`      STR      r0,[r6,#0]
        0x0001b040:    f8468c9c    F...    STR      r8,[r6,#-0x9c]
        0x0001b044:    2000        .       MOVS     r0,#0
        0x0001b046:    f8421024    B.$.    STR      r1,[r2,r4,LSL #2]
        0x0001b04a:    b002        ..      ADD      sp,sp,#8
        0x0001b04c:    e8bd81f0    ....    POP      {r4-r8,pc}
    am_hal_tpiu_enable
        0x0001b050:    b580        ..      PUSH     {r7,lr}
        0x0001b052:    f647337f    G..3    MOV      r3,#0x7b7f
        0x0001b056:    f6cf73e1    ...s    MOVT     r3,#0xffe1
        0x0001b05a:    2104        .!      MOVS     r1,#4
        0x0001b05c:    18c2        ..      ADDS     r2,r0,r3
        0x0001b05e:    f5034361    ..aC    ADD      r3,r3,#0xe100
        0x0001b062:    f2ce0104    ....    MOVT     r1,#0xe004
        0x0001b066:    f04f0e00    O...    MOV      lr,#0
        0x0001b06a:    429a        .B      CMP      r2,r3
        0x0001b06c:    f2436200    C..b    MOVW     r2,#0x3600
        0x0001b070:    f8c1e300    ....    STR      lr,[r1,#0x300]
        0x0001b074:    bf3c        <.      ITT      CC
        0x0001b076:    f2442040    D.@     MOVCC    r0,#0x4240
        0x0001b07a:    f2c0000f    ....    MOVTCC   r0,#0xf
        0x0001b07e:    f2c0126e    ..n.    MOVT     r2,#0x16e
        0x0001b082:    fbb2f0f0    ....    UDIV     r0,r2,r0
        0x0001b086:    f04f0c01    O...    MOV      r12,#1
        0x0001b08a:    3801        .8      SUBS     r0,#1
        0x0001b08c:    b280        ..      UXTH     r0,r0
        0x0001b08e:    f8c1c000    ....    STR      r12,[r1,#0]
        0x0001b092:    60c8        .`      STR      r0,[r1,#0xc]
        0x0001b094:    2002        .       MOVS     r0,#2
        0x0001b096:    f8c100ec    ....    STR      r0,[r1,#0xec]
        0x0001b09a:    f6407000    @..p    MOVW     r0,#0xf00
        0x0001b09e:    f2ce0004    ....    MOVT     r0,#0xe004
        0x0001b0a2:    f2402150    @.P!    MOVW     r1,#0x250
        0x0001b0a6:    f8c0e000    ....    STR      lr,[r0,#0]
        0x0001b0aa:    f2c40102    ....    MOVT     r1,#0x4002
        0x0001b0ae:    6808        .h      LDR      r0,[r1,#0]
        0x0001b0b0:    f36c0043    l.C.    BFI      r0,r12,#1,#3
        0x0001b0b4:    6008        .`      STR      r0,[r1,#0]
        0x0001b0b6:    6808        .h      LDR      r0,[r1,#0]
        0x0001b0b8:    f0400201    @...    ORR      r2,r0,#1
        0x0001b0bc:    2064        d       MOVS     r0,#0x64
        0x0001b0be:    600a        .`      STR      r2,[r1,#0]
        0x0001b0c0:    e8bd4080    ...@    POP      {r7,lr}
        0x0001b0c4:    f7feb874    ..t.    B        am_hal_delay_us ; 0x191b0
    am_hal_triple_read
        0x0001b0c8:    b510        ..      PUSH     {r4,lr}
        0x0001b0ca:    468c        .F      MOV      r12,r1
        0x0001b0cc:    4686        .F      MOV      lr,r0
        0x0001b0ce:    b412        ..      PUSH     {r1,r4}
        0x0001b0d0:    f3ef8410    ....    MRS      r4,PRIMASK
        0x0001b0d4:    b672        r.      CPSID    i
        0x0001b0d6:    bf00        ..      NOP      
        0x0001b0d8:    6801        .h      LDR      r1,[r0,#0]
        0x0001b0da:    6802        .h      LDR      r2,[r0,#0]
        0x0001b0dc:    6803        .h      LDR      r3,[r0,#0]
        0x0001b0de:    f3848810    ....    MSR      PRIMASK,r4
        0x0001b0e2:    bc11        ..      POP      {r0,r4}
        0x0001b0e4:    6001        .`      STR      r1,[r0,#0]
        0x0001b0e6:    6042        B`      STR      r2,[r0,#4]
        0x0001b0e8:    6083        .`      STR      r3,[r0,#8]
        0x0001b0ea:    bd10        ..      POP      {r4,pc}
    am_hal_uart_buffer_configure
        0x0001b0ec:    b5b0        ..      PUSH     {r4,r5,r7,lr}
        0x0001b0ee:    b1a8        ..      CBZ      r0,0x1b11c ; am_hal_uart_buffer_configure + 48
        0x0001b0f0:    4605        .F      MOV      r5,r0
        0x0001b0f2:    6800        .h      LDR      r0,[r0,#0]
        0x0001b0f4:    461c        .F      MOV      r4,r3
        0x0001b0f6:    4613        .F      MOV      r3,r2
        0x0001b0f8:    f6496206    I..b    MOV      r2,#0x9e06
        0x0001b0fc:    f020407e     .~@    BIC      r0,r0,#0xfe000000
        0x0001b100:    f2c012ea    ....    MOVT     r2,#0x1ea
        0x0001b104:    4290        .B      CMP      r0,r2
        0x0001b106:    d109        ..      BNE      0x1b11c ; am_hal_uart_buffer_configure + 48
        0x0001b108:    2900        .)      CMP      r1,#0
        0x0001b10a:    bf18        ..      IT       NE
        0x0001b10c:    2b00        .+      CMPNE    r3,#0
        0x0001b10e:    d107        ..      BNE      0x1b120 ; am_hal_uart_buffer_configure + 52
        0x0001b110:    2000        .       MOVS     r0,#0
        0x0001b112:    f885007c    ..|.    STRB     r0,[r5,#0x7c]
        0x0001b116:    b964        d.      CBNZ     r4,0x1b132 ; am_hal_uart_buffer_configure + 70
        0x0001b118:    e018        ..      B        0x1b14c ; am_hal_uart_buffer_configure + 96
        0x0001b11a:    bf00        ..      NOP      
        0x0001b11c:    2002        .       MOVS     r0,#2
        0x0001b11e:    bdb0        ..      POP      {r4,r5,r7,pc}
        0x0001b120:    2001        .       MOVS     r0,#1
        0x0001b122:    f885007c    ..|.    STRB     r0,[r5,#0x7c]
        0x0001b126:    f1050080    ....    ADD      r0,r5,#0x80
        0x0001b12a:    2201        ."      MOVS     r2,#1
        0x0001b12c:    f7fff8be    ....    BL       am_hal_queue_init ; 0x1a2ac
        0x0001b130:    b164        d.      CBZ      r4,0x1b14c ; am_hal_uart_buffer_configure + 96
        0x0001b132:    9b04        ..      LDR      r3,[sp,#0x10]
        0x0001b134:    b153        S.      CBZ      r3,0x1b14c ; am_hal_uart_buffer_configure + 96
        0x0001b136:    2001        .       MOVS     r0,#1
        0x0001b138:    f8850098    ....    STRB     r0,[r5,#0x98]
        0x0001b13c:    f105009c    ....    ADD      r0,r5,#0x9c
        0x0001b140:    4621        !F      MOV      r1,r4
        0x0001b142:    2201        ."      MOVS     r2,#1
        0x0001b144:    f7fff8b2    ....    BL       am_hal_queue_init ; 0x1a2ac
        0x0001b148:    2000        .       MOVS     r0,#0
        0x0001b14a:    bdb0        ..      POP      {r4,r5,r7,pc}
        0x0001b14c:    2000        .       MOVS     r0,#0
        0x0001b14e:    f8850098    ....    STRB     r0,[r5,#0x98]
        0x0001b152:    bdb0        ..      POP      {r4,r5,r7,pc}
    am_hal_uart_configure
        0x0001b154:    b5b0        ..      PUSH     {r4,r5,r7,lr}
        0x0001b156:    6802        .h      LDR      r2,[r0,#0]
        0x0001b158:    f6496306    I..c    MOV      r3,#0x9e06
        0x0001b15c:    f022427e    ".~B    BIC      r2,r2,#0xfe000000
        0x0001b160:    f2c013ea    ....    MOVT     r3,#0x1ea
        0x0001b164:    429a        .B      CMP      r2,r3
        0x0001b166:    bf1c        ..      ITT      NE
        0x0001b168:    2002        .       MOVNE    r0,#2
        0x0001b16a:    bdb0        ..      POPNE    {r4,r5,r7,pc}
        0x0001b16c:    6a42        Bj      LDR      r2,[r0,#0x24]
        0x0001b16e:    f24c0300    L...    MOVW     r3,#0xc000
        0x0001b172:    f2c40301    ....    MOVT     r3,#0x4001
        0x0001b176:    eb033302    ...3    ADD      r3,r3,r2,LSL #12
        0x0001b17a:    f04f0c00    O...    MOV      r12,#0
        0x0001b17e:    f8c3c030    ..0.    STR      r12,[r3,#0x30]
        0x0001b182:    6b1a        .k      LDR      r2,[r3,#0x30]
        0x0001b184:    f24e3e60    N.`>    MOV      lr,#0xe360
        0x0001b188:    f0420208    B...    ORR      r2,r2,#8
        0x0001b18c:    631a        .c      STR      r2,[r3,#0x30]
        0x0001b18e:    680a        .h      LDR      r2,[r1,#0]
        0x0001b190:    6b1c        .k      LDR      r4,[r3,#0x30]
        0x0001b192:    f2c00e16    ....    MOVT     lr,#0x16
        0x0001b196:    f0240460    $.`.    BIC      r4,r4,#0x60
        0x0001b19a:    2510        .%      MOVS     r5,#0x10
        0x0001b19c:    4572        rE      CMP      r2,lr
        0x0001b19e:    bf88        ..      IT       HI
        0x0001b1a0:    2550        P%      MOVHI    r5,#0x50
        0x0001b1a2:    ea440205    D...    ORR      r2,r4,r5
        0x0001b1a6:    631a        .c      STR      r2,[r3,#0x30]
        0x0001b1a8:    6b1a        .k      LDR      r2,[r3,#0x30]
        0x0001b1aa:    f0220201    "...    BIC      r2,r2,#1
        0x0001b1ae:    631a        .c      STR      r2,[r3,#0x30]
        0x0001b1b0:    6b1a        .k      LDR      r2,[r3,#0x30]
        0x0001b1b2:    f4227200    "..r    BIC      r2,r2,#0x200
        0x0001b1b6:    631a        .c      STR      r2,[r3,#0x30]
        0x0001b1b8:    6b1a        .k      LDR      r2,[r3,#0x30]
        0x0001b1ba:    f4227280    "..r    BIC      r2,r2,#0x100
        0x0001b1be:    631a        .c      STR      r2,[r3,#0x30]
        0x0001b1c0:    f8d1e000    ....    LDR      lr,[r1,#0]
        0x0001b1c4:    6b1a        .k      LDR      r2,[r3,#0x30]
        0x0001b1c6:    f3c21202    ....    UBFX     r2,r2,#4,#3
        0x0001b1ca:    1e54        T.      SUBS     r4,r2,#1
        0x0001b1cc:    2202        ."      MOVS     r2,#2
        0x0001b1ce:    2c04        .,      CMP      r4,#4
        0x0001b1d0:    f6c00200    ....    MOVT     r2,#0x800
        0x0001b1d4:    d806        ..      BHI      0x1b1e4 ; am_hal_uart_configure + 144
        0x0001b1d6:    a537        7.      ADR      r5,{pc}+0xde ; 0x1b2b4
        0x0001b1d8:    f8554024    U.$@    LDR      r4,[r5,r4,LSL #2]
        0x0001b1dc:    ebb41f0e    ....    CMP      r4,lr,LSL #4
        0x0001b1e0:    d204        ..      BCS      0x1b1ec ; am_hal_uart_configure + 152
        0x0001b1e2:    3201        .2      ADDS     r2,#1
        0x0001b1e4:    f8c0c028    ..(.    STR      r12,[r0,#0x28]
        0x0001b1e8:    4610        .F      MOV      r0,r2
        0x0001b1ea:    bdb0        ..      POP      {r4,r5,r7,pc}
        0x0001b1ec:    ea4f1c0e    O...    LSL      r12,lr,#4
        0x0001b1f0:    01a2        ..      LSLS     r2,r4,#6
        0x0001b1f2:    fbb4f5fc    ....    UDIV     r5,r4,r12
        0x0001b1f6:    fbb2f2fc    ....    UDIV     r2,r2,r12
        0x0001b1fa:    625d        ]b      STR      r5,[r3,#0x24]
        0x0001b1fc:    eba21c85    ....    SUB      r12,r2,r5,LSL #6
        0x0001b200:    ea4f029c    O...    LSR      r2,r12,#2
        0x0001b204:    eb021205    ....    ADD      r2,r2,r5,LSL #4
        0x0001b208:    fbb4f2f2    ....    UDIV     r2,r4,r2
        0x0001b20c:    f8c3c028    ..(.    STR      r12,[r3,#0x28]
        0x0001b210:    6282        .b      STR      r2,[r0,#0x28]
        0x0001b212:    6b18        .k      LDR      r0,[r3,#0x30]
        0x0001b214:    f4204080     ..@    BIC      r0,r0,#0x4000
        0x0001b218:    6318        .c      STR      r0,[r3,#0x30]
        0x0001b21a:    6b18        .k      LDR      r0,[r3,#0x30]
        0x0001b21c:    f4204000     ..@    BIC      r0,r0,#0x8000
        0x0001b220:    6318        .c      STR      r0,[r3,#0x30]
        0x0001b222:    8908        ..      LDRH     r0,[r1,#8]
        0x0001b224:    6b1a        .k      LDR      r2,[r3,#0x30]
        0x0001b226:    4310        .C      ORRS     r0,r0,r2
        0x0001b228:    6318        .c      STR      r0,[r3,#0x30]
        0x0001b22a:    7948        Hy      LDRB     r0,[r1,#5]
        0x0001b22c:    2801        .(      CMP      r0,#1
        0x0001b22e:    d003        ..      BEQ      0x1b238 ; am_hal_uart_configure + 228
        0x0001b230:    b930        0.      CBNZ     r0,0x1b240 ; am_hal_uart_configure + 236
        0x0001b232:    2000        .       MOVS     r0,#0
        0x0001b234:    e001        ..      B        0x1b23a ; am_hal_uart_configure + 230
        0x0001b236:    bf00        ..      NOP      
        0x0001b238:    2004        .       MOVS     r0,#4
        0x0001b23a:    2202        ."      MOVS     r2,#2
        0x0001b23c:    e002        ..      B        0x1b244 ; am_hal_uart_configure + 240
        0x0001b23e:    bf00        ..      NOP      
        0x0001b240:    2200        ."      MOVS     r2,#0
        0x0001b242:    2000        .       MOVS     r0,#0
        0x0001b244:    6add        .j      LDR      r5,[r3,#0x2c]
        0x0001b246:    f0250501    %...    BIC      r5,r5,#1
        0x0001b24a:    62dd        .b      STR      r5,[r3,#0x2c]
        0x0001b24c:    6add        .j      LDR      r5,[r3,#0x2c]
        0x0001b24e:    f0250502    %...    BIC      r5,r5,#2
        0x0001b252:    432a        *C      ORRS     r2,r2,r5
        0x0001b254:    62da        .b      STR      r2,[r3,#0x2c]
        0x0001b256:    6ada        .j      LDR      r2,[r3,#0x2c]
        0x0001b258:    f0220204    "...    BIC      r2,r2,#4
        0x0001b25c:    4310        .C      ORRS     r0,r0,r2
        0x0001b25e:    62d8        .b      STR      r0,[r3,#0x2c]
        0x0001b260:    7988        .y      LDRB     r0,[r1,#6]
        0x0001b262:    6ada        .j      LDR      r2,[r3,#0x2c]
        0x0001b264:    f36002c3    `...    BFI      r2,r0,#3,#1
        0x0001b268:    62da        .b      STR      r2,[r3,#0x2c]
        0x0001b26a:    6ad8        .j      LDR      r0,[r3,#0x2c]
        0x0001b26c:    f0400010    @...    ORR      r0,r0,#0x10
        0x0001b270:    62d8        .b      STR      r0,[r3,#0x2c]
        0x0001b272:    7908        .y      LDRB     r0,[r1,#4]
        0x0001b274:    6ada        .j      LDR      r2,[r3,#0x2c]
        0x0001b276:    f3601246    `.F.    BFI      r2,r0,#5,#2
        0x0001b27a:    62da        .b      STR      r2,[r3,#0x2c]
        0x0001b27c:    6ad8        .j      LDR      r0,[r3,#0x2c]
        0x0001b27e:    f0200080     ...    BIC      r0,r0,#0x80
        0x0001b282:    62d8        .b      STR      r0,[r3,#0x2c]
        0x0001b284:    7a88        .z      LDRB     r0,[r1,#0xa]
        0x0001b286:    6b5a        Zk      LDR      r2,[r3,#0x34]
        0x0001b288:    f3600202    `...    BFI      r2,r0,#0,#3
        0x0001b28c:    635a        Zc      STR      r2,[r3,#0x34]
        0x0001b28e:    7ac8        .z      LDRB     r0,[r1,#0xb]
        0x0001b290:    6b59        Yk      LDR      r1,[r3,#0x34]
        0x0001b292:    f36001c5    `...    BFI      r1,r0,#3,#3
        0x0001b296:    6359        Yc      STR      r1,[r3,#0x34]
        0x0001b298:    6b18        .k      LDR      r0,[r3,#0x30]
        0x0001b29a:    f0400001    @...    ORR      r0,r0,#1
        0x0001b29e:    6318        .c      STR      r0,[r3,#0x30]
        0x0001b2a0:    6b18        .k      LDR      r0,[r3,#0x30]
        0x0001b2a2:    f4407000    @..p    ORR      r0,r0,#0x200
        0x0001b2a6:    6318        .c      STR      r0,[r3,#0x30]
        0x0001b2a8:    6b18        .k      LDR      r0,[r3,#0x30]
        0x0001b2aa:    f4407080    @..p    ORR      r0,r0,#0x100
        0x0001b2ae:    6318        .c      STR      r0,[r3,#0x30]
        0x0001b2b0:    2000        .       MOVS     r0,#0
        0x0001b2b2:    bdb0        ..      POP      {r4,r5,r7,pc}
    $d.10
        0x0001b2b4:    016e3600    .6n.    DCD    24000000
        0x0001b2b8:    00b71b00    ....    DCD    12000000
        0x0001b2bc:    005b8d80    ..[.    DCD    6000000
        0x0001b2c0:    002dc6c0    ..-.    DCD    3000000
        0x0001b2c4:    02dc6c00    .l..    DCD    48000000
    $t.1
    am_hal_uart_deinitialize
        0x0001b2c8:    b180        ..      CBZ      r0,0x1b2ec ; am_hal_uart_deinitialize + 36
        0x0001b2ca:    4601        .F      MOV      r1,r0
        0x0001b2cc:    6800        .h      LDR      r0,[r0,#0]
        0x0001b2ce:    f6496306    I..c    MOV      r3,#0x9e06
        0x0001b2d2:    f020427e     .~B    BIC      r2,r0,#0xfe000000
        0x0001b2d6:    f2c013ea    ....    MOVT     r3,#0x1ea
        0x0001b2da:    429a        .B      CMP      r2,r3
        0x0001b2dc:    d106        ..      BNE      0x1b2ec ; am_hal_uart_deinitialize + 36
        0x0001b2de:    f000407e    ..~@    AND      r0,r0,#0xfe000000
        0x0001b2e2:    6008        .`      STR      r0,[r1,#0]
        0x0001b2e4:    2000        .       MOVS     r0,#0
        0x0001b2e6:    6248        Hb      STR      r0,[r1,#0x24]
        0x0001b2e8:    7108        .q      STRB     r0,[r1,#4]
        0x0001b2ea:    4770        pG      BX       lr
        0x0001b2ec:    2002        .       MOVS     r0,#2
        0x0001b2ee:    4770        pG      BX       lr
    am_hal_uart_initialize
        0x0001b2f0:    b5b0        ..      PUSH     {r4,r5,r7,lr}
        0x0001b2f2:    2803        .(      CMP      r0,#3
        0x0001b2f4:    bf84        ..      ITT      HI
        0x0001b2f6:    2005        .       MOVHI    r0,#5
        0x0001b2f8:    bdb0        ..      POPHI    {r4,r5,r7,pc}
        0x0001b2fa:    b379        y.      CBZ      r1,0x1b35c ; am_hal_uart_initialize + 108
        0x0001b2fc:    680b        .h      LDR      r3,[r1,#0]
        0x0001b2fe:    f6496c06    I..l    MOV      r12,#0x9e06
        0x0001b302:    4602        .F      MOV      r2,r0
        0x0001b304:    f2c01cea    ....    MOVT     r12,#0x1ea
        0x0001b308:    b133        3.      CBZ      r3,0x1b318 ; am_hal_uart_initialize + 40
        0x0001b30a:    681b        .h      LDR      r3,[r3,#0]
        0x0001b30c:    f023437e    #.~C    BIC      r3,r3,#0xfe000000
        0x0001b310:    4563        cE      CMP      r3,r12
        0x0001b312:    bf04        ..      ITT      EQ
        0x0001b314:    2007        .       MOVEQ    r0,#7
        0x0001b316:    bdb0        ..      POPEQ    {r4,r5,r7,pc}
        0x0001b318:    f24025a8    @..%    MOVW     r5,#0x2a8
        0x0001b31c:    f04f0eb8    O...    MOV      lr,#0xb8
        0x0001b320:    f2c10500    ....    MOVT     r5,#0x1000
        0x0001b324:    fb02f00e    ....    MUL      r0,r2,lr
        0x0001b328:    582c        ,X      LDR      r4,[r5,r0]
        0x0001b32a:    fb02530e    ...S    MLA      r3,r2,lr,r5
        0x0001b32e:    f004447e    ..~D    AND      r4,r4,#0xfe000000
        0x0001b332:    4464        dD      ADD      r4,r4,r12
        0x0001b334:    502c        ,P      STR      r4,[r5,r0]
        0x0001b336:    2000        .       MOVS     r0,#0
        0x0001b338:    e9c32009    ...     STRD     r2,r0,[r3,#0x24]
        0x0001b33c:    2201        ."      MOVS     r2,#1
        0x0001b33e:    7118        .q      STRB     r0,[r3,#4]
        0x0001b340:    f883002c    ..,.    STRB     r0,[r3,#0x2c]
        0x0001b344:    f8830054    ..T.    STRB     r0,[r3,#0x54]
        0x0001b348:    f883007c    ..|.    STRB     r0,[r3,#0x7c]
        0x0001b34c:    f8830098    ....    STRB     r0,[r3,#0x98]
        0x0001b350:    6798        .g      STR      r0,[r3,#0x78]
        0x0001b352:    6518        .e      STR      r0,[r3,#0x50]
        0x0001b354:    f88320b4    ...     STRB     r2,[r3,#0xb4]
        0x0001b358:    600b        .`      STR      r3,[r1,#0]
        0x0001b35a:    bdb0        ..      POP      {r4,r5,r7,pc}
        0x0001b35c:    2006        .       MOVS     r0,#6
        0x0001b35e:    bdb0        ..      POP      {r4,r5,r7,pc}
    am_hal_uart_power_control
        0x0001b360:    b5b0        ..      PUSH     {r4,r5,r7,lr}
        0x0001b362:    4604        .F      MOV      r4,r0
        0x0001b364:    6800        .h      LDR      r0,[r0,#0]
        0x0001b366:    f6496306    I..c    MOV      r3,#0x9e06
        0x0001b36a:    f020407e     .~@    BIC      r0,r0,#0xfe000000
        0x0001b36e:    f2c013ea    ....    MOVT     r3,#0x1ea
        0x0001b372:    4298        .B      CMP      r0,r3
        0x0001b374:    bf1c        ..      ITT      NE
        0x0001b376:    2002        .       MOVNE    r0,#2
        0x0001b378:    bdb0        ..      POPNE    {r4,r5,r7,pc}
        0x0001b37a:    6a65        ej      LDR      r5,[r4,#0x24]
        0x0001b37c:    1e48        H.      SUBS     r0,r1,#1
        0x0001b37e:    2802        .(      CMP      r0,#2
        0x0001b380:    f1050009    ....    ADD      r0,r5,#9
        0x0001b384:    d222        ".      BCS      0x1b3cc ; am_hal_uart_power_control + 108
        0x0001b386:    f24c0100    L...    MOVW     r1,#0xc000
        0x0001b38a:    f2c40101    ....    MOVT     r1,#0x4001
        0x0001b38e:    b18a        ..      CBZ      r2,0x1b3b4 ; am_hal_uart_power_control + 84
        0x0001b390:    eb013205    ...2    ADD      r2,r1,r5,LSL #12
        0x0001b394:    6a13        .j      LDR      r3,[r2,#0x20]
        0x0001b396:    60a3        .`      STR      r3,[r4,#8]
        0x0001b398:    6a53        Sj      LDR      r3,[r2,#0x24]
        0x0001b39a:    60e3        .`      STR      r3,[r4,#0xc]
        0x0001b39c:    6a93        .j      LDR      r3,[r2,#0x28]
        0x0001b39e:    6123        #a      STR      r3,[r4,#0x10]
        0x0001b3a0:    6ad3        .j      LDR      r3,[r2,#0x2c]
        0x0001b3a2:    6163        ca      STR      r3,[r4,#0x14]
        0x0001b3a4:    6b13        .k      LDR      r3,[r2,#0x30]
        0x0001b3a6:    61a3        .a      STR      r3,[r4,#0x18]
        0x0001b3a8:    6b53        Sk      LDR      r3,[r2,#0x34]
        0x0001b3aa:    61e3        .a      STR      r3,[r4,#0x1c]
        0x0001b3ac:    6b92        .k      LDR      r2,[r2,#0x38]
        0x0001b3ae:    6222        "b      STR      r2,[r4,#0x20]
        0x0001b3b0:    2201        ."      MOVS     r2,#1
        0x0001b3b2:    7122        "q      STRB     r2,[r4,#4]
        0x0001b3b4:    eb013105    ...1    ADD      r1,r1,r5,LSL #12
        0x0001b3b8:    f04f32ff    O..2    MOV      r2,#0xffffffff
        0x0001b3bc:    2500        .%      MOVS     r5,#0
        0x0001b3be:    b2c0        ..      UXTB     r0,r0
        0x0001b3c0:    644a        Jd      STR      r2,[r1,#0x44]
        0x0001b3c2:    630d        .c      STR      r5,[r1,#0x30]
        0x0001b3c4:    f7fefdea    ....    BL       am_hal_pwrctrl_periph_disable ; 0x19f9c
        0x0001b3c8:    4628        (F      MOV      r0,r5
        0x0001b3ca:    bdb0        ..      POP      {r4,r5,r7,pc}
        0x0001b3cc:    2900        .)      CMP      r1,#0
        0x0001b3ce:    bf1c        ..      ITT      NE
        0x0001b3d0:    2006        .       MOVNE    r0,#6
        0x0001b3d2:    bdb0        ..      POPNE    {r4,r5,r7,pc}
        0x0001b3d4:    b1e2        ..      CBZ      r2,0x1b410 ; am_hal_uart_power_control + 176
        0x0001b3d6:    7921        !y      LDRB     r1,[r4,#4]
        0x0001b3d8:    b301        ..      CBZ      r1,0x1b41c ; am_hal_uart_power_control + 188
        0x0001b3da:    b2c0        ..      UXTB     r0,r0
        0x0001b3dc:    f7fefe84    ....    BL       am_hal_pwrctrl_periph_enable ; 0x1a0e8
        0x0001b3e0:    f24c0100    L...    MOVW     r1,#0xc000
        0x0001b3e4:    68a0        .h      LDR      r0,[r4,#8]
        0x0001b3e6:    f2c40101    ....    MOVT     r1,#0x4001
        0x0001b3ea:    eb013105    ...1    ADD      r1,r1,r5,LSL #12
        0x0001b3ee:    6208        .b      STR      r0,[r1,#0x20]
        0x0001b3f0:    68e0        .h      LDR      r0,[r4,#0xc]
        0x0001b3f2:    2500        .%      MOVS     r5,#0
        0x0001b3f4:    6248        Hb      STR      r0,[r1,#0x24]
        0x0001b3f6:    6920         i      LDR      r0,[r4,#0x10]
        0x0001b3f8:    6288        .b      STR      r0,[r1,#0x28]
        0x0001b3fa:    6960        `i      LDR      r0,[r4,#0x14]
        0x0001b3fc:    62c8        .b      STR      r0,[r1,#0x2c]
        0x0001b3fe:    69a0        .i      LDR      r0,[r4,#0x18]
        0x0001b400:    6308        .c      STR      r0,[r1,#0x30]
        0x0001b402:    69e0        .i      LDR      r0,[r4,#0x1c]
        0x0001b404:    6348        Hc      STR      r0,[r1,#0x34]
        0x0001b406:    6a20         j      LDR      r0,[r4,#0x20]
        0x0001b408:    6388        .c      STR      r0,[r1,#0x38]
        0x0001b40a:    4628        (F      MOV      r0,r5
        0x0001b40c:    7125        %q      STRB     r5,[r4,#4]
        0x0001b40e:    bdb0        ..      POP      {r4,r5,r7,pc}
        0x0001b410:    b2c0        ..      UXTB     r0,r0
        0x0001b412:    f7fefe69    ..i.    BL       am_hal_pwrctrl_periph_enable ; 0x1a0e8
        0x0001b416:    2000        .       MOVS     r0,#0
        0x0001b418:    bdb0        ..      POP      {r4,r5,r7,pc}
        0x0001b41a:    bf00        ..      NOP      
        0x0001b41c:    2007        .       MOVS     r0,#7
        0x0001b41e:    bdb0        ..      POP      {r4,r5,r7,pc}
    am_hal_uart_transfer
        0x0001b420:    b570        p.      PUSH     {r4-r6,lr}
        0x0001b422:    460c        .F      MOV      r4,r1
        0x0001b424:    7809        .x      LDRB     r1,[r1,#0]
        0x0001b426:    2903        .)      CMP      r1,#3
        0x0001b428:    d80a        ..      BHI      0x1b440 ; am_hal_uart_transfer + 32
        0x0001b42a:    4605        .F      MOV      r5,r0
        0x0001b42c:    e8dff001    ....    TBB      [pc,r1]
    $d.14
        0x0001b430:    342e0a02    ...4    DCD    875432450
    $t.15
        0x0001b434:    4628        (F      MOV      r0,r5
        0x0001b436:    4621        !F      MOV      r1,r4
        0x0001b438:    f001ffbe    ....    BL       nonblocking_write ; 0x1d3b8
        0x0001b43c:    b390        ..      CBZ      r0,0x1b4a4 ; am_hal_uart_transfer + 132
        0x0001b43e:    bd70        p.      POP      {r4-r6,pc}
        0x0001b440:    2001        .       MOVS     r0,#1
        0x0001b442:    bd70        p.      POP      {r4-r6,pc}
        0x0001b444:    4628        (F      MOV      r0,r5
        0x0001b446:    4621        !F      MOV      r1,r4
        0x0001b448:    f001fef0    ....    BL       nonblocking_read ; 0x1d22c
        0x0001b44c:    2800        .(      CMP      r0,#0
        0x0001b44e:    bf18        ..      IT       NE
        0x0001b450:    bd70        p.      POPNE    {r4-r6,pc}
        0x0001b452:    f895002c    ..,.    LDRB     r0,[r5,#0x2c]
        0x0001b456:    2800        .(      CMP      r0,#0
        0x0001b458:    d040        @.      BEQ      0x1b4dc ; am_hal_uart_transfer + 188
        0x0001b45a:    2600        .&      MOVS     r6,#0
        0x0001b45c:    e003        ..      B        0x1b466 ; am_hal_uart_transfer + 70
        0x0001b45e:    bf00        ..      NOP      
        0x0001b460:    f895002c    ..,.    LDRB     r0,[r5,#0x2c]
        0x0001b464:    b3d0        ..      CBZ      r0,0x1b4dc ; am_hal_uart_transfer + 188
        0x0001b466:    4628        (F      MOV      r0,r5
        0x0001b468:    f001ff26    ..&.    BL       nonblocking_read_sm ; 0x1d2b8
        0x0001b46c:    f44f707a    O.zp    MOV      r0,#0x3e8
        0x0001b470:    f7fdfe9e    ....    BL       am_hal_delay_us ; 0x191b0
        0x0001b474:    6920         i      LDR      r0,[r4,#0x10]
        0x0001b476:    1c41        A.      ADDS     r1,r0,#1
        0x0001b478:    d0f2        ..      BEQ      0x1b460 ; am_hal_uart_transfer + 64
        0x0001b47a:    3601        .6      ADDS     r6,#1
        0x0001b47c:    4286        .B      CMP      r6,r0
        0x0001b47e:    d1ef        ..      BNE      0x1b460 ; am_hal_uart_transfer + 64
        0x0001b480:    2000        .       MOVS     r0,#0
        0x0001b482:    f885002c    ..,.    STRB     r0,[r5,#0x2c]
        0x0001b486:    2004        .       MOVS     r0,#4
        0x0001b488:    bd70        p.      POP      {r4-r6,pc}
        0x0001b48a:    bf00        ..      NOP      
        0x0001b48c:    4628        (F      MOV      r0,r5
        0x0001b48e:    4621        !F      MOV      r1,r4
        0x0001b490:    e8bd4070    ..p@    POP      {r4-r6,lr}
        0x0001b494:    f001bf90    ....    B.W      nonblocking_write ; 0x1d3b8
        0x0001b498:    4628        (F      MOV      r0,r5
        0x0001b49a:    4621        !F      MOV      r1,r4
        0x0001b49c:    e8bd4070    ..p@    POP      {r4-r6,lr}
        0x0001b4a0:    f001bec4    ....    B.W      nonblocking_read ; 0x1d22c
        0x0001b4a4:    f8950054    ..T.    LDRB     r0,[r5,#0x54]
        0x0001b4a8:    b1c0        ..      CBZ      r0,0x1b4dc ; am_hal_uart_transfer + 188
        0x0001b4aa:    2600        .&      MOVS     r6,#0
        0x0001b4ac:    e003        ..      B        0x1b4b6 ; am_hal_uart_transfer + 150
        0x0001b4ae:    bf00        ..      NOP      
        0x0001b4b0:    f8950054    ..T.    LDRB     r0,[r5,#0x54]
        0x0001b4b4:    b190        ..      CBZ      r0,0x1b4dc ; am_hal_uart_transfer + 188
        0x0001b4b6:    4628        (F      MOV      r0,r5
        0x0001b4b8:    f001ffc6    ....    BL       nonblocking_write_sm ; 0x1d448
        0x0001b4bc:    f44f707a    O.zp    MOV      r0,#0x3e8
        0x0001b4c0:    f7fdfe76    ..v.    BL       am_hal_delay_us ; 0x191b0
        0x0001b4c4:    6920         i      LDR      r0,[r4,#0x10]
        0x0001b4c6:    1c41        A.      ADDS     r1,r0,#1
        0x0001b4c8:    d0f2        ..      BEQ      0x1b4b0 ; am_hal_uart_transfer + 144
        0x0001b4ca:    3601        .6      ADDS     r6,#1
        0x0001b4cc:    4286        .B      CMP      r6,r0
        0x0001b4ce:    d1ef        ..      BNE      0x1b4b0 ; am_hal_uart_transfer + 144
        0x0001b4d0:    2000        .       MOVS     r0,#0
        0x0001b4d2:    f8850054    ..T.    STRB     r0,[r5,#0x54]
        0x0001b4d6:    2004        .       MOVS     r0,#4
        0x0001b4d8:    bd70        p.      POP      {r4-r6,pc}
        0x0001b4da:    bf00        ..      NOP      
        0x0001b4dc:    2000        .       MOVS     r0,#0
        0x0001b4de:    bd70        p.      POP      {r4-r6,pc}
    am_hal_uart_tx_flush
        0x0001b4e0:    b5f0        ..      PUSH     {r4-r7,lr}
        0x0001b4e2:    b081        ..      SUB      sp,sp,#4
        0x0001b4e4:    4604        .F      MOV      r4,r0
        0x0001b4e6:    6a40        @j      LDR      r0,[r0,#0x24]
        0x0001b4e8:    f89410b4    ....    LDRB     r1,[r4,#0xb4]
        0x0001b4ec:    b111        ..      CBZ      r1,0x1b4f4 ; am_hal_uart_tx_flush + 20
        0x0001b4ee:    2000        .       MOVS     r0,#0
        0x0001b4f0:    b001        ..      ADD      sp,sp,#4
        0x0001b4f2:    bdf0        ..      POP      {r4-r7,pc}
        0x0001b4f4:    f24c0100    L...    MOVW     r1,#0xc000
        0x0001b4f8:    f2c40101    ....    MOVT     r1,#0x4001
        0x0001b4fc:    eb013500    ...5    ADD      r5,r1,r0,LSL #12
        0x0001b500:    6ba8        .k      LDR      r0,[r5,#0x38]
        0x0001b502:    07c0        ..      LSLS     r0,r0,#31
        0x0001b504:    d12e        ..      BNE      0x1b564 ; am_hal_uart_tx_flush + 132
        0x0001b506:    f894007c    ..|.    LDRB     r0,[r4,#0x7c]
        0x0001b50a:    b1a0        ..      CBZ      r0,0x1b536 ; am_hal_uart_tx_flush + 86
        0x0001b50c:    f8d40088    ....    LDR      r0,[r4,#0x88]
        0x0001b510:    b188        ..      CBZ      r0,0x1b536 ; am_hal_uart_tx_flush + 86
        0x0001b512:    f2442640    D.@&    MOV      r6,#0x4240
        0x0001b516:    f2c0060f    ....    MOVT     r6,#0xf
        0x0001b51a:    270a        .'      MOVS     r7,#0xa
        0x0001b51c:    6aa0        .j      LDR      r0,[r4,#0x28]
        0x0001b51e:    fbb6f0f0    ....    UDIV     r0,r6,r0
        0x0001b522:    eb000080    ....    ADD      r0,r0,r0,LSL #2
        0x0001b526:    eb070040    ..@.    ADD      r0,r7,r0,LSL #1
        0x0001b52a:    f7fdfe41    ..A.    BL       am_hal_delay_us ; 0x191b0
        0x0001b52e:    f8d40088    ....    LDR      r0,[r4,#0x88]
        0x0001b532:    2800        .(      CMP      r0,#0
        0x0001b534:    d1f2        ..      BNE      0x1b51c ; am_hal_uart_tx_flush + 60
        0x0001b536:    69a8        .i      LDR      r0,[r5,#0x18]
        0x0001b538:    0700        ..      LSLS     r0,r0,#28
        0x0001b53a:    d5d8        ..      BPL      0x1b4ee ; am_hal_uart_tx_flush + 14
        0x0001b53c:    f2442640    D.@&    MOV      r6,#0x4240
        0x0001b540:    f2c0060f    ....    MOVT     r6,#0xf
        0x0001b544:    270a        .'      MOVS     r7,#0xa
        0x0001b546:    bf00        ..      NOP      
        0x0001b548:    6aa0        .j      LDR      r0,[r4,#0x28]
        0x0001b54a:    fbb6f0f0    ....    UDIV     r0,r6,r0
        0x0001b54e:    eb000080    ....    ADD      r0,r0,r0,LSL #2
        0x0001b552:    eb070040    ..@.    ADD      r0,r7,r0,LSL #1
        0x0001b556:    f7fdfe2b    ..+.    BL       am_hal_delay_us ; 0x191b0
        0x0001b55a:    69a8        .i      LDR      r0,[r5,#0x18]
        0x0001b55c:    0700        ..      LSLS     r0,r0,#28
        0x0001b55e:    d4f3        ..      BMI      0x1b548 ; am_hal_uart_tx_flush + 104
        0x0001b560:    e7c5        ..      B        0x1b4ee ; am_hal_uart_tx_flush + 14
        0x0001b562:    bf00        ..      NOP      
        0x0001b564:    f89400b4    ....    LDRB     r0,[r4,#0xb4]
        0x0001b568:    2800        .(      CMP      r0,#0
        0x0001b56a:    d1c0        ..      BNE      0x1b4ee ; am_hal_uart_tx_flush + 14
        0x0001b56c:    f2442540    D.@%    MOV      r5,#0x4240
        0x0001b570:    f2c0050f    ....    MOVT     r5,#0xf
        0x0001b574:    260a        .&      MOVS     r6,#0xa
        0x0001b576:    bf00        ..      NOP      
        0x0001b578:    6aa0        .j      LDR      r0,[r4,#0x28]
        0x0001b57a:    fbb5f0f0    ....    UDIV     r0,r5,r0
        0x0001b57e:    eb000080    ....    ADD      r0,r0,r0,LSL #2
        0x0001b582:    eb060040    ..@.    ADD      r0,r6,r0,LSL #1
        0x0001b586:    f7fdfe13    ....    BL       am_hal_delay_us ; 0x191b0
        0x0001b58a:    f89400b4    ....    LDRB     r0,[r4,#0xb4]
        0x0001b58e:    2800        .(      CMP      r0,#0
        0x0001b590:    d0f2        ..      BEQ      0x1b578 ; am_hal_uart_tx_flush + 152
        0x0001b592:    e7ac        ..      B        0x1b4ee ; am_hal_uart_tx_flush + 14
    am_hal_util_write_and_wait
        0x0001b594:    e92d4ff0    -..O    PUSH     {r4-r11,lr}
        0x0001b598:    b087        ..      SUB      sp,sp,#0x1c
        0x0001b59a:    461f        .F      MOV      r7,r3
        0x0001b59c:    4614        .F      MOV      r4,r2
        0x0001b59e:    460e        .F      MOV      r6,r1
        0x0001b5a0:    4680        .F      MOV      r8,r0
        0x0001b5a2:    f7fdff4b    ..K.    BL       am_hal_interrupt_master_disable ; 0x1943c
        0x0001b5a6:    ad02        ..      ADD      r5,sp,#8
        0x0001b5a8:    9001        ..      STR      r0,[sp,#4]
        0x0001b5aa:    4628        (F      MOV      r0,r5
        0x0001b5ac:    f7fffa7a    ..z.    BL       am_hal_timer_default_config_set ; 0x1aaa4
        0x0001b5b0:    f6485080    H..P    MOV      r0,#0x8d80
        0x0001b5b4:    f2c0005b    ..[.    MOVT     r0,#0x5b
        0x0001b5b8:    f64d6183    M..a    MOV      r1,#0xde83
        0x0001b5bc:    4378        xC      MULS     r0,r7,r0
        0x0001b5be:    f2c4311b    ...1    MOVT     r1,#0x431b
        0x0001b5c2:    fba00101    ....    UMULL    r0,r1,r0,r1
        0x0001b5c6:    2001        .       MOVS     r0,#1
        0x0001b5c8:    f88d0009    ....    STRB     r0,[sp,#9]
        0x0001b5cc:    f04f30ff    O..0    MOV      r0,#0xffffffff
        0x0001b5d0:    9005        ..      STR      r0,[sp,#0x14]
        0x0001b5d2:    2000        .       MOVS     r0,#0
        0x0001b5d4:    9004        ..      STR      r0,[sp,#0x10]
        0x0001b5d6:    0c88        ..      LSRS     r0,r1,#18
        0x0001b5d8:    9006        ..      STR      r0,[sp,#0x18]
        0x0001b5da:    200d        .       MOVS     r0,#0xd
        0x0001b5dc:    4629        )F      MOV      r1,r5
        0x0001b5de:    f001fa93    ....    BL       internal_timer_config ; 0x1cb08
        0x0001b5e2:    4607        .F      MOV      r7,r0
        0x0001b5e4:    2800        .(      CMP      r0,#0
        0x0001b5e6:    d173        s.      BNE      0x1b6d0 ; am_hal_util_write_and_wait + 316
        0x0001b5e8:    200d        .       MOVS     r0,#0xd
        0x0001b5ea:    f7fffa05    ....    BL       am_hal_timer_clear ; 0x1a9f8
        0x0001b5ee:    200d        .       MOVS     r0,#0xd
        0x0001b5f0:    f7fffa68    ..h.    BL       am_hal_timer_disable ; 0x1aac4
        0x0001b5f4:    f04f6000    O..`    MOV      r0,#0x8000000
        0x0001b5f8:    f7fffbf8    ....    BL       am_hal_timer_interrupt_clear ; 0x1adec
        0x0001b5fc:    4607        .F      MOV      r7,r0
        0x0001b5fe:    2800        .(      CMP      r0,#0
        0x0001b600:    d166        f.      BNE      0x1b6d0 ; am_hal_util_write_and_wait + 316
        0x0001b602:    f04f6000    O..`    MOV      r0,#0x8000000
        0x0001b606:    f7fffbf9    ....    BL       am_hal_timer_interrupt_enable ; 0x1adfc
        0x0001b60a:    4607        .F      MOV      r7,r0
        0x0001b60c:    2800        .(      CMP      r0,#0
        0x0001b60e:    d15f        _.      BNE      0x1b6d0 ; am_hal_util_write_and_wait + 316
        0x0001b610:    f24e1a08    N...    MOV      r10,#0xe108
        0x0001b614:    f2ce0a00    ....    MOVT     r10,#0xe000
        0x0001b618:    2000        .       MOVS     r0,#0
        0x0001b61a:    f88a0348    ..H.    STRB     r0,[r10,#0x348]
        0x0001b61e:    f44f3080    O..0    MOV      r0,#0x10000
        0x0001b622:    f64e5710    N..W    MOV      r7,#0xed10
        0x0001b626:    f8ca0000    ....    STR      r0,[r10,#0]
        0x0001b62a:    f2ce0700    ....    MOVT     r7,#0xe000
        0x0001b62e:    f8570c04    W...    LDR      r0,[r7,#-4]
        0x0001b632:    f3c02502    ...%    UBFX     r5,r0,#8,#3
        0x0001b636:    2d07        .-      CMP      r5,#7
        0x0001b638:    d102        ..      BNE      0x1b640 ; am_hal_util_write_and_wait + 172
        0x0001b63a:    2701        .'      MOVS     r7,#1
        0x0001b63c:    e048        H.      B        0x1b6d0 ; am_hal_util_write_and_wait + 316
        0x0001b63e:    bf00        ..      NOP      
        0x0001b640:    2002        .       MOVS     r0,#2
        0x0001b642:    2100        .!      MOVS     r1,#0
        0x0001b644:    f04f0b02    O...    MOV      r11,#2
        0x0001b648:    f7fdfbb0    ....    BL       am_hal_daxi_control ; 0x18dac
        0x0001b64c:    2d05        .-      CMP      r5,#5
        0x0001b64e:    f3ef8911    ....    MRS      r9,BASEPRI
        0x0001b652:    bf34        4.      ITE      CC
        0x0001b654:    2020                MOVCC    r0,#0x20
        0x0001b656:    fa0bf005    ....    LSLCS    r0,r11,r5
        0x0001b65a:    f3808811    ....    MSR      BASEPRI,r0
        0x0001b65e:    1c70        p.      ADDS     r0,r6,#1
        0x0001b660:    d003        ..      BEQ      0x1b66a ; am_hal_util_write_and_wait + 214
        0x0001b662:    f8d80000    ....    LDR      r0,[r8,#0]
        0x0001b666:    43b0        .C      BICS     r0,r0,r6
        0x0001b668:    4304        .C      ORRS     r4,r4,r0
        0x0001b66a:    200d        .       MOVS     r0,#0xd
        0x0001b66c:    f7fff9c4    ....    BL       am_hal_timer_clear ; 0x1a9f8
        0x0001b670:    6838        8h      LDR      r0,[r7,#0]
        0x0001b672:    4641        AF      MOV      r1,r8
        0x0001b674:    f0200004     ...    BIC      r0,r0,#4
        0x0001b678:    6038        8`      STR      r0,[r7,#0]
        0x0001b67a:    f24010e0    @...    MOVW     r0,#0x1e0
        0x0001b67e:    f2c10000    ....    MOVT     r0,#0x1000
        0x0001b682:    6802        .h      LDR      r2,[r0,#0]
        0x0001b684:    4620         F      MOV      r0,r4
        0x0001b686:    4790        .G      BLX      r2
        0x0001b688:    200d        .       MOVS     r0,#0xd
        0x0001b68a:    f7fffa1b    ....    BL       am_hal_timer_disable ; 0x1aac4
        0x0001b68e:    f04f6040    O.@`    MOV      r0,#0xc000000
        0x0001b692:    f7fffbab    ....    BL       am_hal_timer_interrupt_clear ; 0x1adec
        0x0001b696:    a902        ..      ADD      r1,sp,#8
        0x0001b698:    2001        .       MOVS     r0,#1
        0x0001b69a:    f7fffc73    ..s.    BL       am_hal_timer_interrupt_status_get ; 0x1af84
        0x0001b69e:    f44f3080    O..0    MOV      r0,#0x10000
        0x0001b6a2:    f8ca0180    ....    STR      r0,[r10,#0x180]
        0x0001b6a6:    9802        ..      LDR      r0,[sp,#8]
        0x0001b6a8:    f06f6440    o.@d    MVN      r4,#0xc000000
        0x0001b6ac:    4220         B      TST      r0,r4
        0x0001b6ae:    d10c        ..      BNE      0x1b6ca ; am_hal_util_write_and_wait + 310
        0x0001b6b0:    f44f4580    O..E    MOV      r5,#0x4000
        0x0001b6b4:    a902        ..      ADD      r1,sp,#8
        0x0001b6b6:    2001        .       MOVS     r0,#1
        0x0001b6b8:    f8ca5178    ..xQ    STR      r5,[r10,#0x178]
        0x0001b6bc:    f7fffc62    ..b.    BL       am_hal_timer_interrupt_status_get ; 0x1af84
        0x0001b6c0:    9802        ..      LDR      r0,[sp,#8]
        0x0001b6c2:    4220         B      TST      r0,r4
        0x0001b6c4:    bf18        ..      IT       NE
        0x0001b6c6:    f8ca50f8    ...P    STRNE    r5,[r10,#0xf8]
        0x0001b6ca:    f3898811    ....    MSR      BASEPRI,r9
        0x0001b6ce:    2700        .'      MOVS     r7,#0
        0x0001b6d0:    9801        ..      LDR      r0,[sp,#4]
        0x0001b6d2:    f7fdfeb7    ....    BL       am_hal_interrupt_master_set ; 0x19444
        0x0001b6d6:    4638        8F      MOV      r0,r7
        0x0001b6d8:    b007        ..      ADD      sp,sp,#0x1c
        0x0001b6da:    e8bd8ff0    ....    POP      {r4-r11,pc}
        0x0001b6de:    0000        ..      MOVS     r0,r0
    am_util_id_device
        0x0001b6e0:    b580        ..      PUSH     {r7,lr}
        0x0001b6e2:    b084        ..      SUB      sp,sp,#0x10
        0x0001b6e4:    9003        ..      STR      r0,[sp,#0xc]
        0x0001b6e6:    9903        ..      LDR      r1,[sp,#0xc]
        0x0001b6e8:    2000        .       MOVS     r0,#0
        0x0001b6ea:    9000        ..      STR      r0,[sp,#0]
        0x0001b6ec:    6448        Hd      STR      r0,[r1,#0x44]
        0x0001b6ee:    9903        ..      LDR      r1,[sp,#0xc]
        0x0001b6f0:    f64d50b0    M..P    MOV      r0,#0xddb0
        0x0001b6f4:    f2c00001    ....    MOVT     r0,#1
        0x0001b6f8:    64c8        .d      STR      r0,[r1,#0x4c]
        0x0001b6fa:    9903        ..      LDR      r1,[sp,#0xc]
        0x0001b6fc:    f64d50d2    M..P    MOV      r0,#0xddd2
        0x0001b700:    f2c00001    ....    MOVT     r0,#1
        0x0001b704:    6488        .d      STR      r0,[r1,#0x48]
        0x0001b706:    9903        ..      LDR      r1,[sp,#0xc]
        0x0001b708:    203f        ?       MOVS     r0,#0x3f
        0x0001b70a:    f8810050    ..P.    STRB     r0,[r1,#0x50]
        0x0001b70e:    9903        ..      LDR      r1,[sp,#0xc]
        0x0001b710:    2020                MOVS     r0,#0x20
        0x0001b712:    f8810051    ..Q.    STRB     r0,[r1,#0x51]
        0x0001b716:    9903        ..      LDR      r1,[sp,#0xc]
        0x0001b718:    2001        .       MOVS     r0,#1
        0x0001b71a:    f7fef84b    ..K.    BL       am_hal_mcuctrl_info_get ; 0x197b4
        0x0001b71e:    9800        ..      LDR      r0,[sp,#0]
        0x0001b720:    9903        ..      LDR      r1,[sp,#0xc]
        0x0001b722:    313c        <1      ADDS     r1,r1,#0x3c
        0x0001b724:    f7fef846    ..F.    BL       am_hal_mcuctrl_info_get ; 0x197b4
        0x0001b728:    9803        ..      LDR      r0,[sp,#0xc]
        0x0001b72a:    78c0        .x      LDRB     r0,[r0,#3]
        0x0001b72c:    0600        ..      LSLS     r0,r0,#24
        0x0001b72e:    9001        ..      STR      r0,[sp,#4]
        0x0001b730:    9803        ..      LDR      r0,[sp,#0xc]
        0x0001b732:    68c0        .h      LDR      r0,[r0,#0xc]
        0x0001b734:    9002        ..      STR      r0,[sp,#8]
        0x0001b736:    9803        ..      LDR      r0,[sp,#0xc]
        0x0001b738:    6900        .i      LDR      r0,[r0,#0x10]
        0x0001b73a:    f2442151    D.Q!    MOV      r1,#0x4251
        0x0001b73e:    f2c4114d    ..M.    MOVT     r1,#0x414d
        0x0001b742:    4288        .B      CMP      r0,r1
        0x0001b744:    d107        ..      BNE      0x1b756 ; am_util_id_device + 118
        0x0001b746:    e7ff        ..      B        0x1b748 ; am_util_id_device + 104
        0x0001b748:    9903        ..      LDR      r1,[sp,#0xc]
        0x0001b74a:    f64d50cd    M..P    MOV      r0,#0xddcd
        0x0001b74e:    f2c00001    ....    MOVT     r0,#1
        0x0001b752:    6488        .d      STR      r0,[r1,#0x48]
        0x0001b754:    e7ff        ..      B        0x1b756 ; am_util_id_device + 118
        0x0001b756:    9801        ..      LDR      r0,[sp,#4]
        0x0001b758:    f1b06f00    ...o    CMP      r0,#0x8000000
        0x0001b75c:    d11b        ..      BNE      0x1b796 ; am_util_id_device + 182
        0x0001b75e:    e7ff        ..      B        0x1b760 ; am_util_id_device + 128
        0x0001b760:    9803        ..      LDR      r0,[sp,#0xc]
        0x0001b762:    6ac0        .j      LDR      r0,[r0,#0x2c]
        0x0001b764:    f00000f0    ....    AND      r0,r0,#0xf0
        0x0001b768:    28b0        .(      CMP      r0,#0xb0
        0x0001b76a:    d114        ..      BNE      0x1b796 ; am_util_id_device + 182
        0x0001b76c:    e7ff        ..      B        0x1b76e ; am_util_id_device + 142
        0x0001b76e:    9802        ..      LDR      r0,[sp,#8]
        0x0001b770:    f001ff42    ..B.    BL       revmaj_get ; 0x1d5f8
        0x0001b774:    2842        B(      CMP      r0,#0x42
        0x0001b776:    d10e        ..      BNE      0x1b796 ; am_util_id_device + 182
        0x0001b778:    e7ff        ..      B        0x1b77a ; am_util_id_device + 154
        0x0001b77a:    9903        ..      LDR      r1,[sp,#0xc]
        0x0001b77c:    2004        .       MOVS     r0,#4
        0x0001b77e:    6448        Hd      STR      r0,[r1,#0x44]
        0x0001b780:    9903        ..      LDR      r1,[sp,#0xc]
        0x0001b782:    f64d40e0    M..@    MOV      r0,#0xdce0
        0x0001b786:    f2c00001    ....    MOVT     r0,#1
        0x0001b78a:    64c8        .d      STR      r0,[r1,#0x4c]
        0x0001b78c:    9803        ..      LDR      r0,[sp,#0xc]
        0x0001b78e:    2101        .!      MOVS     r1,#1
        0x0001b790:    f000fc80    ....    BL       chiprev_set ; 0x1c094
        0x0001b794:    e7ff        ..      B        0x1b796 ; am_util_id_device + 182
        0x0001b796:    9903        ..      LDR      r1,[sp,#0xc]
        0x0001b798:    2000        .       MOVS     r0,#0
        0x0001b79a:    6548        He      STR      r0,[r1,#0x54]
        0x0001b79c:    9903        ..      LDR      r1,[sp,#0xc]
        0x0001b79e:    6808        .h      LDR      r0,[r1,#0]
        0x0001b7a0:    f3c00041    ..A.    UBFX     r0,r0,#1,#2
        0x0001b7a4:    f64d43e9    M..C    MOV      r3,#0xdce9
        0x0001b7a8:    f2c00301    ....    MOVT     r3,#1
        0x0001b7ac:    220b        ."      MOVS     r2,#0xb
        0x0001b7ae:    fb103002    ...0    SMLABB   r0,r0,r2,r3
        0x0001b7b2:    6588        .e      STR      r0,[r1,#0x58]
        0x0001b7b4:    9803        ..      LDR      r0,[sp,#0xc]
        0x0001b7b6:    6c40        @l      LDR      r0,[r0,#0x44]
        0x0001b7b8:    b004        ..      ADD      sp,sp,#0x10
        0x0001b7ba:    bd80        ..      POP      {r7,pc}
    am_util_stdio_printf
        0x0001b7bc:    b083        ..      SUB      sp,sp,#0xc
        0x0001b7be:    b580        ..      PUSH     {r7,lr}
        0x0001b7c0:    b085        ..      SUB      sp,sp,#0x14
        0x0001b7c2:    9309        ..      STR      r3,[sp,#0x24]
        0x0001b7c4:    9208        ..      STR      r2,[sp,#0x20]
        0x0001b7c6:    9107        ..      STR      r1,[sp,#0x1c]
        0x0001b7c8:    9003        ..      STR      r0,[sp,#0xc]
        0x0001b7ca:    f240508c    @..P    MOV      r0,#0x58c
        0x0001b7ce:    f2c10000    ....    MOVT     r0,#0x1000
        0x0001b7d2:    6800        .h      LDR      r0,[r0,#0]
        0x0001b7d4:    b918        ..      CBNZ     r0,0x1b7de ; am_util_stdio_printf + 34
        0x0001b7d6:    e7ff        ..      B        0x1b7d8 ; am_util_stdio_printf + 28
        0x0001b7d8:    2000        .       MOVS     r0,#0
        0x0001b7da:    9004        ..      STR      r0,[sp,#0x10]
        0x0001b7dc:    e016        ..      B        0x1b80c ; am_util_stdio_printf + 80
        0x0001b7de:    a807        ..      ADD      r0,sp,#0x1c
        0x0001b7e0:    9001        ..      STR      r0,[sp,#4]
        0x0001b7e2:    9903        ..      LDR      r1,[sp,#0xc]
        0x0001b7e4:    9a01        ..      LDR      r2,[sp,#4]
        0x0001b7e6:    f2405090    @..P    MOVW     r0,#0x590
        0x0001b7ea:    f2c10000    ....    MOVT     r0,#0x1000
        0x0001b7ee:    9000        ..      STR      r0,[sp,#0]
        0x0001b7f0:    f000f83a    ..:.    BL       am_util_stdio_vsprintf ; 0x1b868
        0x0001b7f4:    4601        .F      MOV      r1,r0
        0x0001b7f6:    9800        ..      LDR      r0,[sp,#0]
        0x0001b7f8:    9102        ..      STR      r1,[sp,#8]
        0x0001b7fa:    f240518c    @..Q    MOV      r1,#0x58c
        0x0001b7fe:    f2c10100    ....    MOVT     r1,#0x1000
        0x0001b802:    6809        .h      LDR      r1,[r1,#0]
        0x0001b804:    4788        .G      BLX      r1
        0x0001b806:    9802        ..      LDR      r0,[sp,#8]
        0x0001b808:    9004        ..      STR      r0,[sp,#0x10]
        0x0001b80a:    e7ff        ..      B        0x1b80c ; am_util_stdio_printf + 80
        0x0001b80c:    9804        ..      LDR      r0,[sp,#0x10]
        0x0001b80e:    b005        ..      ADD      sp,sp,#0x14
        0x0001b810:    e8bd4080    ...@    POP      {r7,lr}
        0x0001b814:    b003        ..      ADD      sp,sp,#0xc
        0x0001b816:    4770        pG      BX       lr
    am_util_stdio_printf_init
        0x0001b818:    b081        ..      SUB      sp,sp,#4
        0x0001b81a:    9000        ..      STR      r0,[sp,#0]
        0x0001b81c:    9800        ..      LDR      r0,[sp,#0]
        0x0001b81e:    f240518c    @..Q    MOV      r1,#0x58c
        0x0001b822:    f2c10100    ....    MOVT     r1,#0x1000
        0x0001b826:    6008        .`      STR      r0,[r1,#0]
        0x0001b828:    b001        ..      ADD      sp,sp,#4
        0x0001b82a:    4770        pG      BX       lr
    am_util_stdio_sprintf
        0x0001b82c:    b082        ..      SUB      sp,sp,#8
        0x0001b82e:    b580        ..      PUSH     {r7,lr}
        0x0001b830:    b084        ..      SUB      sp,sp,#0x10
        0x0001b832:    9307        ..      STR      r3,[sp,#0x1c]
        0x0001b834:    9206        ..      STR      r2,[sp,#0x18]
        0x0001b836:    9003        ..      STR      r0,[sp,#0xc]
        0x0001b838:    9102        ..      STR      r1,[sp,#8]
        0x0001b83a:    a806        ..      ADD      r0,sp,#0x18
        0x0001b83c:    9000        ..      STR      r0,[sp,#0]
        0x0001b83e:    9803        ..      LDR      r0,[sp,#0xc]
        0x0001b840:    9902        ..      LDR      r1,[sp,#8]
        0x0001b842:    9a00        ..      LDR      r2,[sp,#0]
        0x0001b844:    f000f810    ....    BL       am_util_stdio_vsprintf ; 0x1b868
        0x0001b848:    9001        ..      STR      r0,[sp,#4]
        0x0001b84a:    9801        ..      LDR      r0,[sp,#4]
        0x0001b84c:    b004        ..      ADD      sp,sp,#0x10
        0x0001b84e:    e8bd4080    ...@    POP      {r7,lr}
        0x0001b852:    b002        ..      ADD      sp,sp,#8
        0x0001b854:    4770        pG      BX       lr
        0x0001b856:    0000        ..      MOVS     r0,r0
    am_util_stdio_terminal_clear
        0x0001b858:    b580        ..      PUSH     {r7,lr}
        0x0001b85a:    f24e20a1    N..     MOV      r0,#0xe2a1
        0x0001b85e:    f2c00001    ....    MOVT     r0,#1
        0x0001b862:    f7ffffab    ....    BL       am_util_stdio_printf ; 0x1b7bc
        0x0001b866:    bd80        ..      POP      {r7,pc}
    am_util_stdio_vsprintf
        0x0001b868:    b580        ..      PUSH     {r7,lr}
        0x0001b86a:    b09e        ..      SUB      sp,sp,#0x78
        0x0001b86c:    921d        ..      STR      r2,[sp,#0x74]
        0x0001b86e:    901c        ..      STR      r0,[sp,#0x70]
        0x0001b870:    911b        ..      STR      r1,[sp,#0x6c]
        0x0001b872:    2000        .       MOVS     r0,#0
        0x0001b874:    9014        ..      STR      r0,[sp,#0x50]
        0x0001b876:    900e        ..      STR      r0,[sp,#0x38]
        0x0001b878:    e7ff        ..      B        0x1b87a ; am_util_stdio_vsprintf + 18
        0x0001b87a:    981b        ..      LDR      r0,[sp,#0x6c]
        0x0001b87c:    7800        .x      LDRB     r0,[r0,#0]
        0x0001b87e:    2800        .(      CMP      r0,#0
        0x0001b880:    f0008312    ....    BEQ.W    0x1bea8 ; am_util_stdio_vsprintf + 1600
        0x0001b884:    e7ff        ..      B        0x1b886 ; am_util_stdio_vsprintf + 30
        0x0001b886:    2006        .       MOVS     r0,#6
        0x0001b888:    9011        ..      STR      r0,[sp,#0x44]
        0x0001b88a:    981b        ..      LDR      r0,[sp,#0x6c]
        0x0001b88c:    7800        .x      LDRB     r0,[r0,#0]
        0x0001b88e:    2825        %(      CMP      r0,#0x25
        0x0001b890:    d027        '.      BEQ      0x1b8e2 ; am_util_stdio_vsprintf + 122
        0x0001b892:    e7ff        ..      B        0x1b894 ; am_util_stdio_vsprintf + 44
        0x0001b894:    981c        ..      LDR      r0,[sp,#0x70]
        0x0001b896:    b1e8        ..      CBZ      r0,0x1b8d4 ; am_util_stdio_vsprintf + 108
        0x0001b898:    e7ff        ..      B        0x1b89a ; am_util_stdio_vsprintf + 50
        0x0001b89a:    981b        ..      LDR      r0,[sp,#0x6c]
        0x0001b89c:    7800        .x      LDRB     r0,[r0,#0]
        0x0001b89e:    280a        .(      CMP      r0,#0xa
        0x0001b8a0:    d111        ..      BNE      0x1b8c6 ; am_util_stdio_vsprintf + 94
        0x0001b8a2:    e7ff        ..      B        0x1b8a4 ; am_util_stdio_vsprintf + 60
        0x0001b8a4:    f2405088    @..P    MOVW     r0,#0x588
        0x0001b8a8:    f2c10000    ....    MOVT     r0,#0x1000
        0x0001b8ac:    7800        .x      LDRB     r0,[r0,#0]
        0x0001b8ae:    07c0        ..      LSLS     r0,r0,#31
        0x0001b8b0:    b148        H.      CBZ      r0,0x1b8c6 ; am_util_stdio_vsprintf + 94
        0x0001b8b2:    e7ff        ..      B        0x1b8b4 ; am_util_stdio_vsprintf + 76
        0x0001b8b4:    991c        ..      LDR      r1,[sp,#0x70]
        0x0001b8b6:    1c48        H.      ADDS     r0,r1,#1
        0x0001b8b8:    901c        ..      STR      r0,[sp,#0x70]
        0x0001b8ba:    200d        .       MOVS     r0,#0xd
        0x0001b8bc:    7008        .p      STRB     r0,[r1,#0]
        0x0001b8be:    9814        ..      LDR      r0,[sp,#0x50]
        0x0001b8c0:    3001        .0      ADDS     r0,#1
        0x0001b8c2:    9014        ..      STR      r0,[sp,#0x50]
        0x0001b8c4:    e7ff        ..      B        0x1b8c6 ; am_util_stdio_vsprintf + 94
        0x0001b8c6:    981b        ..      LDR      r0,[sp,#0x6c]
        0x0001b8c8:    7800        .x      LDRB     r0,[r0,#0]
        0x0001b8ca:    991c        ..      LDR      r1,[sp,#0x70]
        0x0001b8cc:    1c4a        J.      ADDS     r2,r1,#1
        0x0001b8ce:    921c        ..      STR      r2,[sp,#0x70]
        0x0001b8d0:    7008        .p      STRB     r0,[r1,#0]
        0x0001b8d2:    e7ff        ..      B        0x1b8d4 ; am_util_stdio_vsprintf + 108
        0x0001b8d4:    981b        ..      LDR      r0,[sp,#0x6c]
        0x0001b8d6:    3001        .0      ADDS     r0,#1
        0x0001b8d8:    901b        ..      STR      r0,[sp,#0x6c]
        0x0001b8da:    9814        ..      LDR      r0,[sp,#0x50]
        0x0001b8dc:    3001        .0      ADDS     r0,#1
        0x0001b8de:    9014        ..      STR      r0,[sp,#0x50]
        0x0001b8e0:    e7cb        ..      B        0x1b87a ; am_util_stdio_vsprintf + 18
        0x0001b8e2:    981b        ..      LDR      r0,[sp,#0x6c]
        0x0001b8e4:    3001        .0      ADDS     r0,#1
        0x0001b8e6:    901b        ..      STR      r0,[sp,#0x6c]
        0x0001b8e8:    2000        .       MOVS     r0,#0
        0x0001b8ea:    f88d0040    ..@.    STRB     r0,[sp,#0x40]
        0x0001b8ee:    f88d0041    ..A.    STRB     r0,[sp,#0x41]
        0x0001b8f2:    2020                MOVS     r0,#0x20
        0x0001b8f4:    f88d0042    ..B.    STRB     r0,[sp,#0x42]
        0x0001b8f8:    981b        ..      LDR      r0,[sp,#0x6c]
        0x0001b8fa:    7800        .x      LDRB     r0,[r0,#0]
        0x0001b8fc:    2830        0(      CMP      r0,#0x30
        0x0001b8fe:    d107        ..      BNE      0x1b910 ; am_util_stdio_vsprintf + 168
        0x0001b900:    e7ff        ..      B        0x1b902 ; am_util_stdio_vsprintf + 154
        0x0001b902:    2030        0       MOVS     r0,#0x30
        0x0001b904:    f88d0042    ..B.    STRB     r0,[sp,#0x42]
        0x0001b908:    981b        ..      LDR      r0,[sp,#0x6c]
        0x0001b90a:    3001        .0      ADDS     r0,#1
        0x0001b90c:    901b        ..      STR      r0,[sp,#0x6c]
        0x0001b90e:    e7ff        ..      B        0x1b910 ; am_util_stdio_vsprintf + 168
        0x0001b910:    981b        ..      LDR      r0,[sp,#0x6c]
        0x0001b912:    a915        ..      ADD      r1,sp,#0x54
        0x0001b914:    f000fc5c    ..\.    BL       decstr_to_int ; 0x1c1d0
        0x0001b918:    9013        ..      STR      r0,[sp,#0x4c]
        0x0001b91a:    9915        ..      LDR      r1,[sp,#0x54]
        0x0001b91c:    981b        ..      LDR      r0,[sp,#0x6c]
        0x0001b91e:    4408        .D      ADD      r0,r0,r1
        0x0001b920:    901b        ..      STR      r0,[sp,#0x6c]
        0x0001b922:    981b        ..      LDR      r0,[sp,#0x6c]
        0x0001b924:    7800        .x      LDRB     r0,[r0,#0]
        0x0001b926:    2873        s(      CMP      r0,#0x73
        0x0001b928:    d009        ..      BEQ      0x1b93e ; am_util_stdio_vsprintf + 214
        0x0001b92a:    e7ff        ..      B        0x1b92c ; am_util_stdio_vsprintf + 196
        0x0001b92c:    9813        ..      LDR      r0,[sp,#0x4c]
        0x0001b92e:    f1b03fff    ...?    CMP      r0,#0xffffffff
        0x0001b932:    dc04        ..      BGT      0x1b93e ; am_util_stdio_vsprintf + 214
        0x0001b934:    e7ff        ..      B        0x1b936 ; am_util_stdio_vsprintf + 206
        0x0001b936:    9813        ..      LDR      r0,[sp,#0x4c]
        0x0001b938:    4240        @B      RSBS     r0,r0,#0
        0x0001b93a:    9013        ..      STR      r0,[sp,#0x4c]
        0x0001b93c:    e7ff        ..      B        0x1b93e ; am_util_stdio_vsprintf + 214
        0x0001b93e:    981b        ..      LDR      r0,[sp,#0x6c]
        0x0001b940:    7800        .x      LDRB     r0,[r0,#0]
        0x0001b942:    282e        .(      CMP      r0,#0x2e
        0x0001b944:    d10d        ..      BNE      0x1b962 ; am_util_stdio_vsprintf + 250
        0x0001b946:    e7ff        ..      B        0x1b948 ; am_util_stdio_vsprintf + 224
        0x0001b948:    981b        ..      LDR      r0,[sp,#0x6c]
        0x0001b94a:    3001        .0      ADDS     r0,#1
        0x0001b94c:    901b        ..      STR      r0,[sp,#0x6c]
        0x0001b94e:    981b        ..      LDR      r0,[sp,#0x6c]
        0x0001b950:    a915        ..      ADD      r1,sp,#0x54
        0x0001b952:    f000fc3d    ..=.    BL       decstr_to_int ; 0x1c1d0
        0x0001b956:    9011        ..      STR      r0,[sp,#0x44]
        0x0001b958:    9915        ..      LDR      r1,[sp,#0x54]
        0x0001b95a:    981b        ..      LDR      r0,[sp,#0x6c]
        0x0001b95c:    4408        .D      ADD      r0,r0,r1
        0x0001b95e:    901b        ..      STR      r0,[sp,#0x6c]
        0x0001b960:    e7ff        ..      B        0x1b962 ; am_util_stdio_vsprintf + 250
        0x0001b962:    981b        ..      LDR      r0,[sp,#0x6c]
        0x0001b964:    7800        .x      LDRB     r0,[r0,#0]
        0x0001b966:    286c        l(      CMP      r0,#0x6c
        0x0001b968:    d110        ..      BNE      0x1b98c ; am_util_stdio_vsprintf + 292
        0x0001b96a:    e7ff        ..      B        0x1b96c ; am_util_stdio_vsprintf + 260
        0x0001b96c:    981b        ..      LDR      r0,[sp,#0x6c]
        0x0001b96e:    3001        .0      ADDS     r0,#1
        0x0001b970:    901b        ..      STR      r0,[sp,#0x6c]
        0x0001b972:    981b        ..      LDR      r0,[sp,#0x6c]
        0x0001b974:    7800        .x      LDRB     r0,[r0,#0]
        0x0001b976:    286c        l(      CMP      r0,#0x6c
        0x0001b978:    d107        ..      BNE      0x1b98a ; am_util_stdio_vsprintf + 290
        0x0001b97a:    e7ff        ..      B        0x1b97c ; am_util_stdio_vsprintf + 276
        0x0001b97c:    981b        ..      LDR      r0,[sp,#0x6c]
        0x0001b97e:    3001        .0      ADDS     r0,#1
        0x0001b980:    901b        ..      STR      r0,[sp,#0x6c]
        0x0001b982:    2001        .       MOVS     r0,#1
        0x0001b984:    f88d0040    ..@.    STRB     r0,[sp,#0x40]
        0x0001b988:    e7ff        ..      B        0x1b98a ; am_util_stdio_vsprintf + 290
        0x0001b98a:    e7ff        ..      B        0x1b98c ; am_util_stdio_vsprintf + 292
        0x0001b98c:    981b        ..      LDR      r0,[sp,#0x6c]
        0x0001b98e:    7800        .x      LDRB     r0,[r0,#0]
        0x0001b990:    3846        F8      SUBS     r0,r0,#0x46
        0x0001b992:    4601        .F      MOV      r1,r0
        0x0001b994:    910b        ..      STR      r1,[sp,#0x2c]
        0x0001b996:    2832        2(      CMP      r0,#0x32
        0x0001b998:    f2008273    ..s.    BHI.W    0x1be82 ; am_util_stdio_vsprintf + 1562
        0x0001b99c:    990b        ..      LDR      r1,[sp,#0x2c]
        0x0001b99e:    e8dff011    ....    TBH      [pc,r1,LSL #1]
    $d.4
        0x0001b9a2:    0224        $.      DCW    548
        0x0001b9a4:    02700270    p.p.    DCD    40895088
        0x0001b9a8:    02700270    p.p.    DCD    40895088
        0x0001b9ac:    02700270    p.p.    DCD    40895088
        0x0001b9b0:    02700270    p.p.    DCD    40895088
        0x0001b9b4:    02700270    p.p.    DCD    40895088
        0x0001b9b8:    02700270    p.p.    DCD    40895088
        0x0001b9bc:    02700270    p.p.    DCD    40895088
        0x0001b9c0:    02700270    p.p.    DCD    40895088
        0x0001b9c4:    00bf0270    p...    DCD    12518000
        0x0001b9c8:    02700270    p.p.    DCD    40895088
        0x0001b9cc:    02700270    p.p.    DCD    40895088
        0x0001b9d0:    02700270    p.p.    DCD    40895088
        0x0001b9d4:    02700270    p.p.    DCD    40895088
        0x0001b9d8:    02700270    p.p.    DCD    40895088
        0x0001b9dc:    016f0033    3.o.    DCD    24051763
        0x0001b9e0:    02240270    p.$.    DCD    35914352
        0x0001b9e4:    02700270    p.p.    DCD    40895088
        0x0001b9e8:    0270016f    o.p.    DCD    40894831
        0x0001b9ec:    02700270    p.p.    DCD    40895088
        0x0001b9f0:    02700270    p.p.    DCD    40895088
        0x0001b9f4:    02700270    p.p.    DCD    40895088
        0x0001b9f8:    02700270    p.p.    DCD    40895088
        0x0001b9fc:    02700047    G.p.    DCD    40894535
        0x0001ba00:    02700119    ..p.    DCD    40894745
        0x0001ba04:    00bb0270    p...    DCD    12255856
    $t.5
        0x0001ba08:    981d        ..      LDR      r0,[sp,#0x74]
        0x0001ba0a:    1d01        ..      ADDS     r1,r0,#4
        0x0001ba0c:    911d        ..      STR      r1,[sp,#0x74]
        0x0001ba0e:    6800        .h      LDR      r0,[r0,#0]
        0x0001ba10:    f88d0043    ..C.    STRB     r0,[sp,#0x43]
        0x0001ba14:    981c        ..      LDR      r0,[sp,#0x70]
        0x0001ba16:    b138        8.      CBZ      r0,0x1ba28 ; am_util_stdio_vsprintf + 448
        0x0001ba18:    e7ff        ..      B        0x1ba1a ; am_util_stdio_vsprintf + 434
        0x0001ba1a:    f89d0043    ..C.    LDRB     r0,[sp,#0x43]
        0x0001ba1e:    991c        ..      LDR      r1,[sp,#0x70]
        0x0001ba20:    1c4a        J.      ADDS     r2,r1,#1
        0x0001ba22:    921c        ..      STR      r2,[sp,#0x70]
        0x0001ba24:    7008        .p      STRB     r0,[r1,#0]
        0x0001ba26:    e7ff        ..      B        0x1ba28 ; am_util_stdio_vsprintf + 448
        0x0001ba28:    9814        ..      LDR      r0,[sp,#0x50]
        0x0001ba2a:    3001        .0      ADDS     r0,#1
        0x0001ba2c:    9014        ..      STR      r0,[sp,#0x50]
        0x0001ba2e:    e236        6.      B        0x1be9e ; am_util_stdio_vsprintf + 1590
        0x0001ba30:    981d        ..      LDR      r0,[sp,#0x74]
        0x0001ba32:    1d01        ..      ADDS     r1,r0,#4
        0x0001ba34:    911d        ..      STR      r1,[sp,#0x74]
        0x0001ba36:    6800        .h      LDR      r0,[r0,#0]
        0x0001ba38:    901a        ..      STR      r0,[sp,#0x68]
        0x0001ba3a:    981a        ..      LDR      r0,[sp,#0x68]
        0x0001ba3c:    f001fde6    ....    BL       simple_strlen ; 0x1d60c
        0x0001ba40:    900e        ..      STR      r0,[sp,#0x38]
        0x0001ba42:    9813        ..      LDR      r0,[sp,#0x4c]
        0x0001ba44:    2801        .(      CMP      r0,#1
        0x0001ba46:    db25        %.      BLT      0x1ba94 ; am_util_stdio_vsprintf + 556
        0x0001ba48:    e7ff        ..      B        0x1ba4a ; am_util_stdio_vsprintf + 482
        0x0001ba4a:    980e        ..      LDR      r0,[sp,#0x38]
        0x0001ba4c:    9913        ..      LDR      r1,[sp,#0x4c]
        0x0001ba4e:    4288        .B      CMP      r0,r1
        0x0001ba50:    d21f        ..      BCS      0x1ba92 ; am_util_stdio_vsprintf + 554
        0x0001ba52:    e7ff        ..      B        0x1ba54 ; am_util_stdio_vsprintf + 492
        0x0001ba54:    990e        ..      LDR      r1,[sp,#0x38]
        0x0001ba56:    9813        ..      LDR      r0,[sp,#0x4c]
        0x0001ba58:    1a40        @.      SUBS     r0,r0,r1
        0x0001ba5a:    9013        ..      STR      r0,[sp,#0x4c]
        0x0001ba5c:    981c        ..      LDR      r0,[sp,#0x70]
        0x0001ba5e:    f89d1042    ..B.    LDRB     r1,[sp,#0x42]
        0x0001ba62:    9a13        ..      LDR      r2,[sp,#0x4c]
        0x0001ba64:    f001fda0    ....    BL       padbuffer ; 0x1d5a8
        0x0001ba68:    9013        ..      STR      r0,[sp,#0x4c]
        0x0001ba6a:    981c        ..      LDR      r0,[sp,#0x70]
        0x0001ba6c:    b118        ..      CBZ      r0,0x1ba76 ; am_util_stdio_vsprintf + 526
        0x0001ba6e:    e7ff        ..      B        0x1ba70 ; am_util_stdio_vsprintf + 520
        0x0001ba70:    9813        ..      LDR      r0,[sp,#0x4c]
        0x0001ba72:    900a        ..      STR      r0,[sp,#0x28]
        0x0001ba74:    e002        ..      B        0x1ba7c ; am_util_stdio_vsprintf + 532
        0x0001ba76:    2000        .       MOVS     r0,#0
        0x0001ba78:    900a        ..      STR      r0,[sp,#0x28]
        0x0001ba7a:    e7ff        ..      B        0x1ba7c ; am_util_stdio_vsprintf + 532
        0x0001ba7c:    990a        ..      LDR      r1,[sp,#0x28]
        0x0001ba7e:    981c        ..      LDR      r0,[sp,#0x70]
        0x0001ba80:    4408        .D      ADD      r0,r0,r1
        0x0001ba82:    901c        ..      STR      r0,[sp,#0x70]
        0x0001ba84:    9913        ..      LDR      r1,[sp,#0x4c]
        0x0001ba86:    9814        ..      LDR      r0,[sp,#0x50]
        0x0001ba88:    4408        .D      ADD      r0,r0,r1
        0x0001ba8a:    9014        ..      STR      r0,[sp,#0x50]
        0x0001ba8c:    2000        .       MOVS     r0,#0
        0x0001ba8e:    9013        ..      STR      r0,[sp,#0x4c]
        0x0001ba90:    e7ff        ..      B        0x1ba92 ; am_util_stdio_vsprintf + 554
        0x0001ba92:    e7ff        ..      B        0x1ba94 ; am_util_stdio_vsprintf + 556
        0x0001ba94:    e7ff        ..      B        0x1ba96 ; am_util_stdio_vsprintf + 558
        0x0001ba96:    981a        ..      LDR      r0,[sp,#0x68]
        0x0001ba98:    7800        .x      LDRB     r0,[r0,#0]
        0x0001ba9a:    b188        ..      CBZ      r0,0x1bac0 ; am_util_stdio_vsprintf + 600
        0x0001ba9c:    e7ff        ..      B        0x1ba9e ; am_util_stdio_vsprintf + 566
        0x0001ba9e:    981c        ..      LDR      r0,[sp,#0x70]
        0x0001baa0:    b138        8.      CBZ      r0,0x1bab2 ; am_util_stdio_vsprintf + 586
        0x0001baa2:    e7ff        ..      B        0x1baa4 ; am_util_stdio_vsprintf + 572
        0x0001baa4:    981a        ..      LDR      r0,[sp,#0x68]
        0x0001baa6:    7800        .x      LDRB     r0,[r0,#0]
        0x0001baa8:    991c        ..      LDR      r1,[sp,#0x70]
        0x0001baaa:    1c4a        J.      ADDS     r2,r1,#1
        0x0001baac:    921c        ..      STR      r2,[sp,#0x70]
        0x0001baae:    7008        .p      STRB     r0,[r1,#0]
        0x0001bab0:    e7ff        ..      B        0x1bab2 ; am_util_stdio_vsprintf + 586
        0x0001bab2:    981a        ..      LDR      r0,[sp,#0x68]
        0x0001bab4:    3001        .0      ADDS     r0,#1
        0x0001bab6:    901a        ..      STR      r0,[sp,#0x68]
        0x0001bab8:    9814        ..      LDR      r0,[sp,#0x50]
        0x0001baba:    3001        .0      ADDS     r0,#1
        0x0001babc:    9014        ..      STR      r0,[sp,#0x50]
        0x0001babe:    e7ea        ..      B        0x1ba96 ; am_util_stdio_vsprintf + 558
        0x0001bac0:    9813        ..      LDR      r0,[sp,#0x4c]
        0x0001bac2:    b340        @.      CBZ      r0,0x1bb16 ; am_util_stdio_vsprintf + 686
        0x0001bac4:    e7ff        ..      B        0x1bac6 ; am_util_stdio_vsprintf + 606
        0x0001bac6:    9813        ..      LDR      r0,[sp,#0x4c]
        0x0001bac8:    4240        @B      RSBS     r0,r0,#0
        0x0001baca:    9013        ..      STR      r0,[sp,#0x4c]
        0x0001bacc:    980e        ..      LDR      r0,[sp,#0x38]
        0x0001bace:    9913        ..      LDR      r1,[sp,#0x4c]
        0x0001bad0:    4288        .B      CMP      r0,r1
        0x0001bad2:    d21f        ..      BCS      0x1bb14 ; am_util_stdio_vsprintf + 684
        0x0001bad4:    e7ff        ..      B        0x1bad6 ; am_util_stdio_vsprintf + 622
        0x0001bad6:    990e        ..      LDR      r1,[sp,#0x38]
        0x0001bad8:    9813        ..      LDR      r0,[sp,#0x4c]
        0x0001bada:    1a40        @.      SUBS     r0,r0,r1
        0x0001badc:    9013        ..      STR      r0,[sp,#0x4c]
        0x0001bade:    981c        ..      LDR      r0,[sp,#0x70]
        0x0001bae0:    f89d1042    ..B.    LDRB     r1,[sp,#0x42]
        0x0001bae4:    9a13        ..      LDR      r2,[sp,#0x4c]
        0x0001bae6:    f001fd5f    .._.    BL       padbuffer ; 0x1d5a8
        0x0001baea:    9013        ..      STR      r0,[sp,#0x4c]
        0x0001baec:    981c        ..      LDR      r0,[sp,#0x70]
        0x0001baee:    b118        ..      CBZ      r0,0x1baf8 ; am_util_stdio_vsprintf + 656
        0x0001baf0:    e7ff        ..      B        0x1baf2 ; am_util_stdio_vsprintf + 650
        0x0001baf2:    9813        ..      LDR      r0,[sp,#0x4c]
        0x0001baf4:    9009        ..      STR      r0,[sp,#0x24]
        0x0001baf6:    e002        ..      B        0x1bafe ; am_util_stdio_vsprintf + 662
        0x0001baf8:    2000        .       MOVS     r0,#0
        0x0001bafa:    9009        ..      STR      r0,[sp,#0x24]
        0x0001bafc:    e7ff        ..      B        0x1bafe ; am_util_stdio_vsprintf + 662
        0x0001bafe:    9909        ..      LDR      r1,[sp,#0x24]
        0x0001bb00:    981c        ..      LDR      r0,[sp,#0x70]
        0x0001bb02:    4408        .D      ADD      r0,r0,r1
        0x0001bb04:    901c        ..      STR      r0,[sp,#0x70]
        0x0001bb06:    9913        ..      LDR      r1,[sp,#0x4c]
        0x0001bb08:    9814        ..      LDR      r0,[sp,#0x50]
        0x0001bb0a:    4408        .D      ADD      r0,r0,r1
        0x0001bb0c:    9014        ..      STR      r0,[sp,#0x50]
        0x0001bb0e:    2000        .       MOVS     r0,#0
        0x0001bb10:    9013        ..      STR      r0,[sp,#0x4c]
        0x0001bb12:    e7ff        ..      B        0x1bb14 ; am_util_stdio_vsprintf + 684
        0x0001bb14:    e7ff        ..      B        0x1bb16 ; am_util_stdio_vsprintf + 686
        0x0001bb16:    e1c2        ..      B        0x1be9e ; am_util_stdio_vsprintf + 1590
        0x0001bb18:    2001        .       MOVS     r0,#1
        0x0001bb1a:    f88d0041    ..A.    STRB     r0,[sp,#0x41]
        0x0001bb1e:    e7ff        ..      B        0x1bb20 ; am_util_stdio_vsprintf + 696
        0x0001bb20:    f89d0040    ..@.    LDRB     r0,[sp,#0x40]
        0x0001bb24:    07c0        ..      LSLS     r0,r0,#31
        0x0001bb26:    b160        `.      CBZ      r0,0x1bb42 ; am_util_stdio_vsprintf + 730
        0x0001bb28:    e7ff        ..      B        0x1bb2a ; am_util_stdio_vsprintf + 706
        0x0001bb2a:    981d        ..      LDR      r0,[sp,#0x74]
        0x0001bb2c:    3007        .0      ADDS     r0,#7
        0x0001bb2e:    f0200007     ...    BIC      r0,r0,#7
        0x0001bb32:    f1000108    ....    ADD      r1,r0,#8
        0x0001bb36:    911d        ..      STR      r1,[sp,#0x74]
        0x0001bb38:    6801        .h      LDR      r1,[r0,#0]
        0x0001bb3a:    6840        @h      LDR      r0,[r0,#4]
        0x0001bb3c:    9107        ..      STR      r1,[sp,#0x1c]
        0x0001bb3e:    9008        ..      STR      r0,[sp,#0x20]
        0x0001bb40:    e007        ..      B        0x1bb52 ; am_util_stdio_vsprintf + 746
        0x0001bb42:    981d        ..      LDR      r0,[sp,#0x74]
        0x0001bb44:    1d01        ..      ADDS     r1,r0,#4
        0x0001bb46:    911d        ..      STR      r1,[sp,#0x74]
        0x0001bb48:    6801        .h      LDR      r1,[r0,#0]
        0x0001bb4a:    2000        .       MOVS     r0,#0
        0x0001bb4c:    9107        ..      STR      r1,[sp,#0x1c]
        0x0001bb4e:    9008        ..      STR      r0,[sp,#0x20]
        0x0001bb50:    e7ff        ..      B        0x1bb52 ; am_util_stdio_vsprintf + 746
        0x0001bb52:    9907        ..      LDR      r1,[sp,#0x1c]
        0x0001bb54:    9808        ..      LDR      r0,[sp,#0x20]
        0x0001bb56:    9118        ..      STR      r1,[sp,#0x60]
        0x0001bb58:    9019        ..      STR      r0,[sp,#0x64]
        0x0001bb5a:    9813        ..      LDR      r0,[sp,#0x4c]
        0x0001bb5c:    b318        ..      CBZ      r0,0x1bba6 ; am_util_stdio_vsprintf + 830
        0x0001bb5e:    e7ff        ..      B        0x1bb60 ; am_util_stdio_vsprintf + 760
        0x0001bb60:    9818        ..      LDR      r0,[sp,#0x60]
        0x0001bb62:    9919        ..      LDR      r1,[sp,#0x64]
        0x0001bb64:    f001fb0c    ....    BL       ndigits_in_hex ; 0x1d180
        0x0001bb68:    4601        .F      MOV      r1,r0
        0x0001bb6a:    9813        ..      LDR      r0,[sp,#0x4c]
        0x0001bb6c:    1a40        @.      SUBS     r0,r0,r1
        0x0001bb6e:    9013        ..      STR      r0,[sp,#0x4c]
        0x0001bb70:    981c        ..      LDR      r0,[sp,#0x70]
        0x0001bb72:    f89d1042    ..B.    LDRB     r1,[sp,#0x42]
        0x0001bb76:    9a13        ..      LDR      r2,[sp,#0x4c]
        0x0001bb78:    f001fd16    ....    BL       padbuffer ; 0x1d5a8
        0x0001bb7c:    9013        ..      STR      r0,[sp,#0x4c]
        0x0001bb7e:    981c        ..      LDR      r0,[sp,#0x70]
        0x0001bb80:    b118        ..      CBZ      r0,0x1bb8a ; am_util_stdio_vsprintf + 802
        0x0001bb82:    e7ff        ..      B        0x1bb84 ; am_util_stdio_vsprintf + 796
        0x0001bb84:    9813        ..      LDR      r0,[sp,#0x4c]
        0x0001bb86:    9006        ..      STR      r0,[sp,#0x18]
        0x0001bb88:    e002        ..      B        0x1bb90 ; am_util_stdio_vsprintf + 808
        0x0001bb8a:    2000        .       MOVS     r0,#0
        0x0001bb8c:    9006        ..      STR      r0,[sp,#0x18]
        0x0001bb8e:    e7ff        ..      B        0x1bb90 ; am_util_stdio_vsprintf + 808
        0x0001bb90:    9906        ..      LDR      r1,[sp,#0x18]
        0x0001bb92:    981c        ..      LDR      r0,[sp,#0x70]
        0x0001bb94:    4408        .D      ADD      r0,r0,r1
        0x0001bb96:    901c        ..      STR      r0,[sp,#0x70]
        0x0001bb98:    9913        ..      LDR      r1,[sp,#0x4c]
        0x0001bb9a:    9814        ..      LDR      r0,[sp,#0x50]
        0x0001bb9c:    4408        .D      ADD      r0,r0,r1
        0x0001bb9e:    9014        ..      STR      r0,[sp,#0x50]
        0x0001bba0:    2000        .       MOVS     r0,#0
        0x0001bba2:    9013        ..      STR      r0,[sp,#0x4c]
        0x0001bba4:    e7ff        ..      B        0x1bba6 ; am_util_stdio_vsprintf + 830
        0x0001bba6:    9818        ..      LDR      r0,[sp,#0x60]
        0x0001bba8:    9919        ..      LDR      r1,[sp,#0x64]
        0x0001bbaa:    9a1c        ..      LDR      r2,[sp,#0x70]
        0x0001bbac:    f89d3041    ..A0    LDRB     r3,[sp,#0x41]
        0x0001bbb0:    f0030301    ....    AND      r3,r3,#1
        0x0001bbb4:    f001fe10    ....    BL       uint64_to_hexstr ; 0x1d7d8
        0x0001bbb8:    9012        ..      STR      r0,[sp,#0x48]
        0x0001bbba:    981c        ..      LDR      r0,[sp,#0x70]
        0x0001bbbc:    b128        (.      CBZ      r0,0x1bbca ; am_util_stdio_vsprintf + 866
        0x0001bbbe:    e7ff        ..      B        0x1bbc0 ; am_util_stdio_vsprintf + 856
        0x0001bbc0:    9912        ..      LDR      r1,[sp,#0x48]
        0x0001bbc2:    981c        ..      LDR      r0,[sp,#0x70]
        0x0001bbc4:    4408        .D      ADD      r0,r0,r1
        0x0001bbc6:    901c        ..      STR      r0,[sp,#0x70]
        0x0001bbc8:    e7ff        ..      B        0x1bbca ; am_util_stdio_vsprintf + 866
        0x0001bbca:    9912        ..      LDR      r1,[sp,#0x48]
        0x0001bbcc:    9814        ..      LDR      r0,[sp,#0x50]
        0x0001bbce:    4408        .D      ADD      r0,r0,r1
        0x0001bbd0:    9014        ..      STR      r0,[sp,#0x50]
        0x0001bbd2:    e164        d.      B        0x1be9e ; am_util_stdio_vsprintf + 1590
        0x0001bbd4:    f89d0040    ..@.    LDRB     r0,[sp,#0x40]
        0x0001bbd8:    07c0        ..      LSLS     r0,r0,#31
        0x0001bbda:    b160        `.      CBZ      r0,0x1bbf6 ; am_util_stdio_vsprintf + 910
        0x0001bbdc:    e7ff        ..      B        0x1bbde ; am_util_stdio_vsprintf + 886
        0x0001bbde:    981d        ..      LDR      r0,[sp,#0x74]
        0x0001bbe0:    3007        .0      ADDS     r0,#7
        0x0001bbe2:    f0200007     ...    BIC      r0,r0,#7
        0x0001bbe6:    f1000108    ....    ADD      r1,r0,#8
        0x0001bbea:    911d        ..      STR      r1,[sp,#0x74]
        0x0001bbec:    6801        .h      LDR      r1,[r0,#0]
        0x0001bbee:    6840        @h      LDR      r0,[r0,#4]
        0x0001bbf0:    9104        ..      STR      r1,[sp,#0x10]
        0x0001bbf2:    9005        ..      STR      r0,[sp,#0x14]
        0x0001bbf4:    e007        ..      B        0x1bc06 ; am_util_stdio_vsprintf + 926
        0x0001bbf6:    981d        ..      LDR      r0,[sp,#0x74]
        0x0001bbf8:    1d01        ..      ADDS     r1,r0,#4
        0x0001bbfa:    911d        ..      STR      r1,[sp,#0x74]
        0x0001bbfc:    6801        .h      LDR      r1,[r0,#0]
        0x0001bbfe:    2000        .       MOVS     r0,#0
        0x0001bc00:    9104        ..      STR      r1,[sp,#0x10]
        0x0001bc02:    9005        ..      STR      r0,[sp,#0x14]
        0x0001bc04:    e7ff        ..      B        0x1bc06 ; am_util_stdio_vsprintf + 926
        0x0001bc06:    9904        ..      LDR      r1,[sp,#0x10]
        0x0001bc08:    9805        ..      LDR      r0,[sp,#0x14]
        0x0001bc0a:    9118        ..      STR      r1,[sp,#0x60]
        0x0001bc0c:    9019        ..      STR      r0,[sp,#0x64]
        0x0001bc0e:    9813        ..      LDR      r0,[sp,#0x4c]
        0x0001bc10:    b318        ..      CBZ      r0,0x1bc5a ; am_util_stdio_vsprintf + 1010
        0x0001bc12:    e7ff        ..      B        0x1bc14 ; am_util_stdio_vsprintf + 940
        0x0001bc14:    9818        ..      LDR      r0,[sp,#0x60]
        0x0001bc16:    9919        ..      LDR      r1,[sp,#0x64]
        0x0001bc18:    f001faea    ....    BL       ndigits_in_u64 ; 0x1d1f0
        0x0001bc1c:    4601        .F      MOV      r1,r0
        0x0001bc1e:    9813        ..      LDR      r0,[sp,#0x4c]
        0x0001bc20:    1a40        @.      SUBS     r0,r0,r1
        0x0001bc22:    9013        ..      STR      r0,[sp,#0x4c]
        0x0001bc24:    981c        ..      LDR      r0,[sp,#0x70]
        0x0001bc26:    f89d1042    ..B.    LDRB     r1,[sp,#0x42]
        0x0001bc2a:    9a13        ..      LDR      r2,[sp,#0x4c]
        0x0001bc2c:    f001fcbc    ....    BL       padbuffer ; 0x1d5a8
        0x0001bc30:    9013        ..      STR      r0,[sp,#0x4c]
        0x0001bc32:    981c        ..      LDR      r0,[sp,#0x70]
        0x0001bc34:    b118        ..      CBZ      r0,0x1bc3e ; am_util_stdio_vsprintf + 982
        0x0001bc36:    e7ff        ..      B        0x1bc38 ; am_util_stdio_vsprintf + 976
        0x0001bc38:    9813        ..      LDR      r0,[sp,#0x4c]
        0x0001bc3a:    9003        ..      STR      r0,[sp,#0xc]
        0x0001bc3c:    e002        ..      B        0x1bc44 ; am_util_stdio_vsprintf + 988
        0x0001bc3e:    2000        .       MOVS     r0,#0
        0x0001bc40:    9003        ..      STR      r0,[sp,#0xc]
        0x0001bc42:    e7ff        ..      B        0x1bc44 ; am_util_stdio_vsprintf + 988
        0x0001bc44:    9903        ..      LDR      r1,[sp,#0xc]
        0x0001bc46:    981c        ..      LDR      r0,[sp,#0x70]
        0x0001bc48:    4408        .D      ADD      r0,r0,r1
        0x0001bc4a:    901c        ..      STR      r0,[sp,#0x70]
        0x0001bc4c:    9913        ..      LDR      r1,[sp,#0x4c]
        0x0001bc4e:    9814        ..      LDR      r0,[sp,#0x50]
        0x0001bc50:    4408        .D      ADD      r0,r0,r1
        0x0001bc52:    9014        ..      STR      r0,[sp,#0x50]
        0x0001bc54:    2000        .       MOVS     r0,#0
        0x0001bc56:    9013        ..      STR      r0,[sp,#0x4c]
        0x0001bc58:    e7ff        ..      B        0x1bc5a ; am_util_stdio_vsprintf + 1010
        0x0001bc5a:    9818        ..      LDR      r0,[sp,#0x60]
        0x0001bc5c:    9919        ..      LDR      r1,[sp,#0x64]
        0x0001bc5e:    9a1c        ..      LDR      r2,[sp,#0x70]
        0x0001bc60:    f001fe1a    ....    BL       uint64_to_str ; 0x1d898
        0x0001bc64:    9012        ..      STR      r0,[sp,#0x48]
        0x0001bc66:    981c        ..      LDR      r0,[sp,#0x70]
        0x0001bc68:    b128        (.      CBZ      r0,0x1bc76 ; am_util_stdio_vsprintf + 1038
        0x0001bc6a:    e7ff        ..      B        0x1bc6c ; am_util_stdio_vsprintf + 1028
        0x0001bc6c:    9912        ..      LDR      r1,[sp,#0x48]
        0x0001bc6e:    981c        ..      LDR      r0,[sp,#0x70]
        0x0001bc70:    4408        .D      ADD      r0,r0,r1
        0x0001bc72:    901c        ..      STR      r0,[sp,#0x70]
        0x0001bc74:    e7ff        ..      B        0x1bc76 ; am_util_stdio_vsprintf + 1038
        0x0001bc76:    9912        ..      LDR      r1,[sp,#0x48]
        0x0001bc78:    9814        ..      LDR      r0,[sp,#0x50]
        0x0001bc7a:    4408        .D      ADD      r0,r0,r1
        0x0001bc7c:    9014        ..      STR      r0,[sp,#0x50]
        0x0001bc7e:    e10e        ..      B        0x1be9e ; am_util_stdio_vsprintf + 1590
        0x0001bc80:    f89d0040    ..@.    LDRB     r0,[sp,#0x40]
        0x0001bc84:    07c0        ..      LSLS     r0,r0,#31
        0x0001bc86:    b160        `.      CBZ      r0,0x1bca2 ; am_util_stdio_vsprintf + 1082
        0x0001bc88:    e7ff        ..      B        0x1bc8a ; am_util_stdio_vsprintf + 1058
        0x0001bc8a:    981d        ..      LDR      r0,[sp,#0x74]
        0x0001bc8c:    3007        .0      ADDS     r0,#7
        0x0001bc8e:    f0200007     ...    BIC      r0,r0,#7
        0x0001bc92:    f1000108    ....    ADD      r1,r0,#8
        0x0001bc96:    911d        ..      STR      r1,[sp,#0x74]
        0x0001bc98:    6801        .h      LDR      r1,[r0,#0]
        0x0001bc9a:    6840        @h      LDR      r0,[r0,#4]
        0x0001bc9c:    9101        ..      STR      r1,[sp,#4]
        0x0001bc9e:    9002        ..      STR      r0,[sp,#8]
        0x0001bca0:    e007        ..      B        0x1bcb2 ; am_util_stdio_vsprintf + 1098
        0x0001bca2:    981d        ..      LDR      r0,[sp,#0x74]
        0x0001bca4:    1d01        ..      ADDS     r1,r0,#4
        0x0001bca6:    911d        ..      STR      r1,[sp,#0x74]
        0x0001bca8:    6801        .h      LDR      r1,[r0,#0]
        0x0001bcaa:    17c8        ..      ASRS     r0,r1,#31
        0x0001bcac:    9101        ..      STR      r1,[sp,#4]
        0x0001bcae:    9002        ..      STR      r0,[sp,#8]
        0x0001bcb0:    e7ff        ..      B        0x1bcb2 ; am_util_stdio_vsprintf + 1098
        0x0001bcb2:    9901        ..      LDR      r1,[sp,#4]
        0x0001bcb4:    9802        ..      LDR      r0,[sp,#8]
        0x0001bcb6:    9116        ..      STR      r1,[sp,#0x58]
        0x0001bcb8:    9017        ..      STR      r0,[sp,#0x5c]
        0x0001bcba:    9817        ..      LDR      r0,[sp,#0x5c]
        0x0001bcbc:    f1b03fff    ...?    CMP      r0,#0xffffffff
        0x0001bcc0:    dc0c        ..      BGT      0x1bcdc ; am_util_stdio_vsprintf + 1140
        0x0001bcc2:    e7ff        ..      B        0x1bcc4 ; am_util_stdio_vsprintf + 1116
        0x0001bcc4:    9816        ..      LDR      r0,[sp,#0x58]
        0x0001bcc6:    9a17        ..      LDR      r2,[sp,#0x5c]
        0x0001bcc8:    4241        AB      RSBS     r1,r0,#0
        0x0001bcca:    f04f0000    O...    MOV      r0,#0
        0x0001bcce:    4190        .A      SBCS     r0,r0,r2
        0x0001bcd0:    9118        ..      STR      r1,[sp,#0x60]
        0x0001bcd2:    9019        ..      STR      r0,[sp,#0x64]
        0x0001bcd4:    2001        .       MOVS     r0,#1
        0x0001bcd6:    f88d003f    ..?.    STRB     r0,[sp,#0x3f]
        0x0001bcda:    e007        ..      B        0x1bcec ; am_util_stdio_vsprintf + 1156
        0x0001bcdc:    9816        ..      LDR      r0,[sp,#0x58]
        0x0001bcde:    9917        ..      LDR      r1,[sp,#0x5c]
        0x0001bce0:    9119        ..      STR      r1,[sp,#0x64]
        0x0001bce2:    9018        ..      STR      r0,[sp,#0x60]
        0x0001bce4:    2000        .       MOVS     r0,#0
        0x0001bce6:    f88d003f    ..?.    STRB     r0,[sp,#0x3f]
        0x0001bcea:    e7ff        ..      B        0x1bcec ; am_util_stdio_vsprintf + 1156
        0x0001bcec:    9813        ..      LDR      r0,[sp,#0x4c]
        0x0001bcee:    2800        .(      CMP      r0,#0
        0x0001bcf0:    d055        U.      BEQ      0x1bd9e ; am_util_stdio_vsprintf + 1334
        0x0001bcf2:    e7ff        ..      B        0x1bcf4 ; am_util_stdio_vsprintf + 1164
        0x0001bcf4:    9818        ..      LDR      r0,[sp,#0x60]
        0x0001bcf6:    9919        ..      LDR      r1,[sp,#0x64]
        0x0001bcf8:    f001fa62    ..b.    BL       ndigits_in_i64 ; 0x1d1c0
        0x0001bcfc:    4601        .F      MOV      r1,r0
        0x0001bcfe:    9813        ..      LDR      r0,[sp,#0x4c]
        0x0001bd00:    1a40        @.      SUBS     r0,r0,r1
        0x0001bd02:    9013        ..      STR      r0,[sp,#0x4c]
        0x0001bd04:    f89d003f    ..?.    LDRB     r0,[sp,#0x3f]
        0x0001bd08:    07c0        ..      LSLS     r0,r0,#31
        0x0001bd0a:    b1b0        ..      CBZ      r0,0x1bd3a ; am_util_stdio_vsprintf + 1234
        0x0001bd0c:    e7ff        ..      B        0x1bd0e ; am_util_stdio_vsprintf + 1190
        0x0001bd0e:    9813        ..      LDR      r0,[sp,#0x4c]
        0x0001bd10:    3801        .8      SUBS     r0,#1
        0x0001bd12:    9013        ..      STR      r0,[sp,#0x4c]
        0x0001bd14:    f89d0042    ..B.    LDRB     r0,[sp,#0x42]
        0x0001bd18:    2830        0(      CMP      r0,#0x30
        0x0001bd1a:    d10d        ..      BNE      0x1bd38 ; am_util_stdio_vsprintf + 1232
        0x0001bd1c:    e7ff        ..      B        0x1bd1e ; am_util_stdio_vsprintf + 1206
        0x0001bd1e:    981c        ..      LDR      r0,[sp,#0x70]
        0x0001bd20:    b130        0.      CBZ      r0,0x1bd30 ; am_util_stdio_vsprintf + 1224
        0x0001bd22:    e7ff        ..      B        0x1bd24 ; am_util_stdio_vsprintf + 1212
        0x0001bd24:    991c        ..      LDR      r1,[sp,#0x70]
        0x0001bd26:    1c48        H.      ADDS     r0,r1,#1
        0x0001bd28:    901c        ..      STR      r0,[sp,#0x70]
        0x0001bd2a:    202d        -       MOVS     r0,#0x2d
        0x0001bd2c:    7008        .p      STRB     r0,[r1,#0]
        0x0001bd2e:    e7ff        ..      B        0x1bd30 ; am_util_stdio_vsprintf + 1224
        0x0001bd30:    9814        ..      LDR      r0,[sp,#0x50]
        0x0001bd32:    3001        .0      ADDS     r0,#1
        0x0001bd34:    9014        ..      STR      r0,[sp,#0x50]
        0x0001bd36:    e7ff        ..      B        0x1bd38 ; am_util_stdio_vsprintf + 1232
        0x0001bd38:    e7ff        ..      B        0x1bd3a ; am_util_stdio_vsprintf + 1234
        0x0001bd3a:    981c        ..      LDR      r0,[sp,#0x70]
        0x0001bd3c:    f89d1042    ..B.    LDRB     r1,[sp,#0x42]
        0x0001bd40:    9a13        ..      LDR      r2,[sp,#0x4c]
        0x0001bd42:    f001fc31    ..1.    BL       padbuffer ; 0x1d5a8
        0x0001bd46:    9013        ..      STR      r0,[sp,#0x4c]
        0x0001bd48:    981c        ..      LDR      r0,[sp,#0x70]
        0x0001bd4a:    b118        ..      CBZ      r0,0x1bd54 ; am_util_stdio_vsprintf + 1260
        0x0001bd4c:    e7ff        ..      B        0x1bd4e ; am_util_stdio_vsprintf + 1254
        0x0001bd4e:    9813        ..      LDR      r0,[sp,#0x4c]
        0x0001bd50:    9000        ..      STR      r0,[sp,#0]
        0x0001bd52:    e002        ..      B        0x1bd5a ; am_util_stdio_vsprintf + 1266
        0x0001bd54:    2000        .       MOVS     r0,#0
        0x0001bd56:    9000        ..      STR      r0,[sp,#0]
        0x0001bd58:    e7ff        ..      B        0x1bd5a ; am_util_stdio_vsprintf + 1266
        0x0001bd5a:    9900        ..      LDR      r1,[sp,#0]
        0x0001bd5c:    981c        ..      LDR      r0,[sp,#0x70]
        0x0001bd5e:    4408        .D      ADD      r0,r0,r1
        0x0001bd60:    901c        ..      STR      r0,[sp,#0x70]
        0x0001bd62:    9913        ..      LDR      r1,[sp,#0x4c]
        0x0001bd64:    9814        ..      LDR      r0,[sp,#0x50]
        0x0001bd66:    4408        .D      ADD      r0,r0,r1
        0x0001bd68:    9014        ..      STR      r0,[sp,#0x50]
        0x0001bd6a:    2000        .       MOVS     r0,#0
        0x0001bd6c:    9013        ..      STR      r0,[sp,#0x4c]
        0x0001bd6e:    f89d003f    ..?.    LDRB     r0,[sp,#0x3f]
        0x0001bd72:    07c0        ..      LSLS     r0,r0,#31
        0x0001bd74:    b190        ..      CBZ      r0,0x1bd9c ; am_util_stdio_vsprintf + 1332
        0x0001bd76:    e7ff        ..      B        0x1bd78 ; am_util_stdio_vsprintf + 1296
        0x0001bd78:    f89d0042    ..B.    LDRB     r0,[sp,#0x42]
        0x0001bd7c:    2820         (      CMP      r0,#0x20
        0x0001bd7e:    d10d        ..      BNE      0x1bd9c ; am_util_stdio_vsprintf + 1332
        0x0001bd80:    e7ff        ..      B        0x1bd82 ; am_util_stdio_vsprintf + 1306
        0x0001bd82:    981c        ..      LDR      r0,[sp,#0x70]
        0x0001bd84:    b130        0.      CBZ      r0,0x1bd94 ; am_util_stdio_vsprintf + 1324
        0x0001bd86:    e7ff        ..      B        0x1bd88 ; am_util_stdio_vsprintf + 1312
        0x0001bd88:    991c        ..      LDR      r1,[sp,#0x70]
        0x0001bd8a:    1c48        H.      ADDS     r0,r1,#1
        0x0001bd8c:    901c        ..      STR      r0,[sp,#0x70]
        0x0001bd8e:    202d        -       MOVS     r0,#0x2d
        0x0001bd90:    7008        .p      STRB     r0,[r1,#0]
        0x0001bd92:    e7ff        ..      B        0x1bd94 ; am_util_stdio_vsprintf + 1324
        0x0001bd94:    9814        ..      LDR      r0,[sp,#0x50]
        0x0001bd96:    3001        .0      ADDS     r0,#1
        0x0001bd98:    9014        ..      STR      r0,[sp,#0x50]
        0x0001bd9a:    e7ff        ..      B        0x1bd9c ; am_util_stdio_vsprintf + 1332
        0x0001bd9c:    e012        ..      B        0x1bdc4 ; am_util_stdio_vsprintf + 1372
        0x0001bd9e:    f89d003f    ..?.    LDRB     r0,[sp,#0x3f]
        0x0001bda2:    07c0        ..      LSLS     r0,r0,#31
        0x0001bda4:    b168        h.      CBZ      r0,0x1bdc2 ; am_util_stdio_vsprintf + 1370
        0x0001bda6:    e7ff        ..      B        0x1bda8 ; am_util_stdio_vsprintf + 1344
        0x0001bda8:    981c        ..      LDR      r0,[sp,#0x70]
        0x0001bdaa:    b130        0.      CBZ      r0,0x1bdba ; am_util_stdio_vsprintf + 1362
        0x0001bdac:    e7ff        ..      B        0x1bdae ; am_util_stdio_vsprintf + 1350
        0x0001bdae:    991c        ..      LDR      r1,[sp,#0x70]
        0x0001bdb0:    1c48        H.      ADDS     r0,r1,#1
        0x0001bdb2:    901c        ..      STR      r0,[sp,#0x70]
        0x0001bdb4:    202d        -       MOVS     r0,#0x2d
        0x0001bdb6:    7008        .p      STRB     r0,[r1,#0]
        0x0001bdb8:    e7ff        ..      B        0x1bdba ; am_util_stdio_vsprintf + 1362
        0x0001bdba:    9814        ..      LDR      r0,[sp,#0x50]
        0x0001bdbc:    3001        .0      ADDS     r0,#1
        0x0001bdbe:    9014        ..      STR      r0,[sp,#0x50]
        0x0001bdc0:    e7ff        ..      B        0x1bdc2 ; am_util_stdio_vsprintf + 1370
        0x0001bdc2:    e7ff        ..      B        0x1bdc4 ; am_util_stdio_vsprintf + 1372
        0x0001bdc4:    9818        ..      LDR      r0,[sp,#0x60]
        0x0001bdc6:    9919        ..      LDR      r1,[sp,#0x64]
        0x0001bdc8:    9a1c        ..      LDR      r2,[sp,#0x70]
        0x0001bdca:    f001fd65    ..e.    BL       uint64_to_str ; 0x1d898
        0x0001bdce:    9012        ..      STR      r0,[sp,#0x48]
        0x0001bdd0:    981c        ..      LDR      r0,[sp,#0x70]
        0x0001bdd2:    b128        (.      CBZ      r0,0x1bde0 ; am_util_stdio_vsprintf + 1400
        0x0001bdd4:    e7ff        ..      B        0x1bdd6 ; am_util_stdio_vsprintf + 1390
        0x0001bdd6:    9912        ..      LDR      r1,[sp,#0x48]
        0x0001bdd8:    981c        ..      LDR      r0,[sp,#0x70]
        0x0001bdda:    4408        .D      ADD      r0,r0,r1
        0x0001bddc:    901c        ..      STR      r0,[sp,#0x70]
        0x0001bdde:    e7ff        ..      B        0x1bde0 ; am_util_stdio_vsprintf + 1400
        0x0001bde0:    9912        ..      LDR      r1,[sp,#0x48]
        0x0001bde2:    9814        ..      LDR      r0,[sp,#0x50]
        0x0001bde4:    4408        .D      ADD      r0,r0,r1
        0x0001bde6:    9014        ..      STR      r0,[sp,#0x50]
        0x0001bde8:    e059        Y.      B        0x1be9e ; am_util_stdio_vsprintf + 1590
        0x0001bdea:    981c        ..      LDR      r0,[sp,#0x70]
        0x0001bdec:    2800        .(      CMP      r0,#0
        0x0001bdee:    d047        G.      BEQ      0x1be80 ; am_util_stdio_vsprintf + 1560
        0x0001bdf0:    e7ff        ..      B        0x1bdf2 ; am_util_stdio_vsprintf + 1418
        0x0001bdf2:    981d        ..      LDR      r0,[sp,#0x74]
        0x0001bdf4:    3007        .0      ADDS     r0,#7
        0x0001bdf6:    f0200007     ...    BIC      r0,r0,#7
        0x0001bdfa:    f1000108    ....    ADD      r1,r0,#8
        0x0001bdfe:    911d        ..      STR      r1,[sp,#0x74]
        0x0001be00:    ed900b00    ....    VLDR     d0,[r0,#0]
        0x0001be04:    ec510b10    Q...    VMOV     r0,r1,d0
        0x0001be08:    f001fd8a    ....    BL       __aeabi_d2f ; 0x1d920
        0x0001be0c:    900d        ..      STR      r0,[sp,#0x34]
        0x0001be0e:    991c        ..      LDR      r1,[sp,#0x70]
        0x0001be10:    2014        .       MOVS     r0,#0x14
        0x0001be12:    6008        .`      STR      r0,[r1,#0]
        0x0001be14:    ed9d0a0d    ....    VLDR     s0,[sp,#0x34]
        0x0001be18:    981c        ..      LDR      r0,[sp,#0x70]
        0x0001be1a:    9911        ..      LDR      r1,[sp,#0x44]
        0x0001be1c:    f000fab8    ....    BL       ftoa ; 0x1c390
        0x0001be20:    9012        ..      STR      r0,[sp,#0x48]
        0x0001be22:    9812        ..      LDR      r0,[sp,#0x48]
        0x0001be24:    f1b03fff    ...?    CMP      r0,#0xffffffff
        0x0001be28:    dc21        !.      BGT      0x1be6e ; am_util_stdio_vsprintf + 1542
        0x0001be2a:    e7ff        ..      B        0x1be2c ; am_util_stdio_vsprintf + 1476
        0x0001be2c:    9812        ..      LDR      r0,[sp,#0x48]
        0x0001be2e:    3001        .0      ADDS     r0,#1
        0x0001be30:    b930        0.      CBNZ     r0,0x1be40 ; am_util_stdio_vsprintf + 1496
        0x0001be32:    e7ff        ..      B        0x1be34 ; am_util_stdio_vsprintf + 1484
        0x0001be34:    f6426030    B.0`    MOV      r0,#0x2e30
        0x0001be38:    f2c00030    ..0.    MOVT     r0,#0x30
        0x0001be3c:    900c        ..      STR      r0,[sp,#0x30]
        0x0001be3e:    e010        ..      B        0x1be62 ; am_util_stdio_vsprintf + 1530
        0x0001be40:    9812        ..      LDR      r0,[sp,#0x48]
        0x0001be42:    3002        .0      ADDS     r0,#2
        0x0001be44:    b930        0.      CBNZ     r0,0x1be54 ; am_util_stdio_vsprintf + 1516
        0x0001be46:    e7ff        ..      B        0x1be48 ; am_util_stdio_vsprintf + 1504
        0x0001be48:    f6426023    B.#`    MOV      r0,#0x2e23
        0x0001be4c:    f2c00023    ..#.    MOVT     r0,#0x23
        0x0001be50:    900c        ..      STR      r0,[sp,#0x30]
        0x0001be52:    e005        ..      B        0x1be60 ; am_util_stdio_vsprintf + 1528
        0x0001be54:    f642603f    B.?`    MOV      r0,#0x2e3f
        0x0001be58:    f2c0003f    ..?.    MOVT     r0,#0x3f
        0x0001be5c:    900c        ..      STR      r0,[sp,#0x30]
        0x0001be5e:    e7ff        ..      B        0x1be60 ; am_util_stdio_vsprintf + 1528
        0x0001be60:    e7ff        ..      B        0x1be62 ; am_util_stdio_vsprintf + 1530
        0x0001be62:    980c        ..      LDR      r0,[sp,#0x30]
        0x0001be64:    991c        ..      LDR      r1,[sp,#0x70]
        0x0001be66:    6008        .`      STR      r0,[r1,#0]
        0x0001be68:    2003        .       MOVS     r0,#3
        0x0001be6a:    9012        ..      STR      r0,[sp,#0x48]
        0x0001be6c:    e7ff        ..      B        0x1be6e ; am_util_stdio_vsprintf + 1542
        0x0001be6e:    9912        ..      LDR      r1,[sp,#0x48]
        0x0001be70:    9814        ..      LDR      r0,[sp,#0x50]
        0x0001be72:    4408        .D      ADD      r0,r0,r1
        0x0001be74:    9014        ..      STR      r0,[sp,#0x50]
        0x0001be76:    9912        ..      LDR      r1,[sp,#0x48]
        0x0001be78:    981c        ..      LDR      r0,[sp,#0x70]
        0x0001be7a:    4408        .D      ADD      r0,r0,r1
        0x0001be7c:    901c        ..      STR      r0,[sp,#0x70]
        0x0001be7e:    e7ff        ..      B        0x1be80 ; am_util_stdio_vsprintf + 1560
        0x0001be80:    e00d        ..      B        0x1be9e ; am_util_stdio_vsprintf + 1590
        0x0001be82:    981c        ..      LDR      r0,[sp,#0x70]
        0x0001be84:    b138        8.      CBZ      r0,0x1be96 ; am_util_stdio_vsprintf + 1582
        0x0001be86:    e7ff        ..      B        0x1be88 ; am_util_stdio_vsprintf + 1568
        0x0001be88:    981b        ..      LDR      r0,[sp,#0x6c]
        0x0001be8a:    7800        .x      LDRB     r0,[r0,#0]
        0x0001be8c:    991c        ..      LDR      r1,[sp,#0x70]
        0x0001be8e:    1c4a        J.      ADDS     r2,r1,#1
        0x0001be90:    921c        ..      STR      r2,[sp,#0x70]
        0x0001be92:    7008        .p      STRB     r0,[r1,#0]
        0x0001be94:    e7ff        ..      B        0x1be96 ; am_util_stdio_vsprintf + 1582
        0x0001be96:    9814        ..      LDR      r0,[sp,#0x50]
        0x0001be98:    3001        .0      ADDS     r0,#1
        0x0001be9a:    9014        ..      STR      r0,[sp,#0x50]
        0x0001be9c:    e7ff        ..      B        0x1be9e ; am_util_stdio_vsprintf + 1590
        0x0001be9e:    981b        ..      LDR      r0,[sp,#0x6c]
        0x0001bea0:    3001        .0      ADDS     r0,#1
        0x0001bea2:    901b        ..      STR      r0,[sp,#0x6c]
        0x0001bea4:    f7ffbce9    ....    B.W      0x1b87a ; am_util_stdio_vsprintf + 18
        0x0001bea8:    981c        ..      LDR      r0,[sp,#0x70]
        0x0001beaa:    b120         .      CBZ      r0,0x1beb6 ; am_util_stdio_vsprintf + 1614
        0x0001beac:    e7ff        ..      B        0x1beae ; am_util_stdio_vsprintf + 1606
        0x0001beae:    991c        ..      LDR      r1,[sp,#0x70]
        0x0001beb0:    2000        .       MOVS     r0,#0
        0x0001beb2:    7008        .p      STRB     r0,[r1,#0]
        0x0001beb4:    e7ff        ..      B        0x1beb6 ; am_util_stdio_vsprintf + 1614
        0x0001beb6:    9814        ..      LDR      r0,[sp,#0x50]
        0x0001beb8:    b01e        ..      ADD      sp,sp,#0x78
        0x0001beba:    bd80        ..      POP      {r7,pc}
    buck_interval_check
        0x0001bebc:    b5f0        ..      PUSH     {r4-r7,lr}
        0x0001bebe:    b08b        ..      SUB      sp,sp,#0x2c
        0x0001bec0:    2260        `"      MOVS     r2,#0x60
        0x0001bec2:    f2c40202    ....    MOVT     r2,#0x4002
        0x0001bec6:    4604        .F      MOV      r4,r0
        0x0001bec8:    f8d20fa0    ....    LDR      r0,[r2,#0xfa0]
        0x0001becc:    b1a4        ..      CBZ      r4,0x1bef8 ; buck_interval_check + 60
        0x0001bece:    2900        .)      CMP      r1,#0
        0x0001bed0:    f2411100    A...    MOVW     r1,#0x1100
        0x0001bed4:    f2c40102    ....    MOVT     r1,#0x4002
        0x0001bed8:    6809        .h      LDR      r1,[r1,#0]
        0x0001beda:    f04f071d    O...    MOV      r7,#0x1d
        0x0001bede:    bf08        ..      IT       EQ
        0x0001bee0:    271c        .'      MOVEQ    r7,#0x1c
        0x0001bee2:    07c9        ..      LSLS     r1,r1,#31
        0x0001bee4:    d004        ..      BEQ      0x1bef0 ; buck_interval_check + 52
        0x0001bee6:    6811        .h      LDR      r1,[r2,#0]
        0x0001bee8:    f24012ef    @...    MOV      r2,#0x1ef
        0x0001beec:    4211        .B      TST      r1,r2
        0x0001beee:    d007        ..      BEQ      0x1bf00 ; buck_interval_check + 68
        0x0001bef0:    2007        .       MOVS     r0,#7
        0x0001bef2:    b00b        ..      ADD      sp,sp,#0x2c
        0x0001bef4:    bdf0        ..      POP      {r4-r7,pc}
        0x0001bef6:    bf00        ..      NOP      
        0x0001bef8:    2006        .       MOVS     r0,#6
        0x0001befa:    b00b        ..      ADD      sp,sp,#0x2c
        0x0001befc:    bdf0        ..      POP      {r4-r7,pc}
        0x0001befe:    bf00        ..      NOP      
        0x0001bf00:    f0000618    ....    AND      r6,r0,#0x18
        0x0001bf04:    200d        .       MOVS     r0,#0xd
        0x0001bf06:    f7fefda3    ....    BL       am_hal_timer_clear_stop ; 0x1aa50
        0x0001bf0a:    200d        .       MOVS     r0,#0xd
        0x0001bf0c:    f7fefdda    ....    BL       am_hal_timer_disable ; 0x1aac4
        0x0001bf10:    200d        .       MOVS     r0,#0xd
        0x0001bf12:    f7fff857    ..W.    BL       am_hal_timer_reset_config ; 0x1afc4
        0x0001bf16:    ad06        ..      ADD      r5,sp,#0x18
        0x0001bf18:    4628        (F      MOV      r0,r5
        0x0001bf1a:    f7fefdc3    ....    BL       am_hal_timer_default_config_set ; 0x1aaa4
        0x0001bf1e:    2002        .       MOVS     r0,#2
        0x0001bf20:    f88d0019    ....    STRB     r0,[sp,#0x19]
        0x0001bf24:    200d        .       MOVS     r0,#0xd
        0x0001bf26:    4629        )F      MOV      r1,r5
        0x0001bf28:    f88d7018    ...p    STRB     r7,[sp,#0x18]
        0x0001bf2c:    f001fb8a    ....    BL       timer_config_b1 ; 0x1d644
        0x0001bf30:    2008        .       MOVS     r0,#8
        0x0001bf32:    f7fefd8d    ....    BL       am_hal_timer_clear_stop ; 0x1aa50
        0x0001bf36:    2008        .       MOVS     r0,#8
        0x0001bf38:    f7fefdc4    ....    BL       am_hal_timer_disable ; 0x1aac4
        0x0001bf3c:    2008        .       MOVS     r0,#8
        0x0001bf3e:    f7fff841    ..A.    BL       am_hal_timer_reset_config ; 0x1afc4
        0x0001bf42:    ad01        ..      ADD      r5,sp,#4
        0x0001bf44:    4628        (F      MOV      r0,r5
        0x0001bf46:    f7fefdad    ....    BL       am_hal_timer_default_config_set ; 0x1aaa4
        0x0001bf4a:    f2402001    @..     MOV      r0,#0x201
        0x0001bf4e:    f8ad0004    ....    STRH     r0,[sp,#4]
        0x0001bf52:    2008        .       MOVS     r0,#8
        0x0001bf54:    4629        )F      MOV      r1,r5
        0x0001bf56:    f001fb75    ..u.    BL       timer_config_b1 ; 0x1d644
        0x0001bf5a:    f7fdfa6f    ..o.    BL       am_hal_interrupt_master_disable ; 0x1943c
        0x0001bf5e:    9000        ..      STR      r0,[sp,#0]
        0x0001bf60:    2008        .       MOVS     r0,#8
        0x0001bf62:    f7fefdcd    ....    BL       am_hal_timer_enable ; 0x1ab00
        0x0001bf66:    200d        .       MOVS     r0,#0xd
        0x0001bf68:    f7fefdca    ....    BL       am_hal_timer_enable ; 0x1ab00
        0x0001bf6c:    9800        ..      LDR      r0,[sp,#0]
        0x0001bf6e:    f7fdfa69    ..i.    BL       am_hal_interrupt_master_set ; 0x19444
        0x0001bf72:    f2427510    B..u    MOV      r5,#0x2710
        0x0001bf76:    2e10        ..      CMP      r6,#0x10
        0x0001bf78:    bf08        ..      IT       EQ
        0x0001bf7a:    f6446520    D. e    MOVEQ    r5,#0x4e20
        0x0001bf7e:    bf00        ..      NOP      
        0x0001bf80:    f7fdfa5c    ..\.    BL       am_hal_interrupt_master_disable ; 0x1943c
        0x0001bf84:    9000        ..      STR      r0,[sp,#0]
        0x0001bf86:    200d        .       MOVS     r0,#0xd
        0x0001bf88:    f7fff808    ....    BL       am_hal_timer_read ; 0x1af9c
        0x0001bf8c:    280a        .(      CMP      r0,#0xa
        0x0001bf8e:    d207        ..      BCS      0x1bfa0 ; buck_interval_check + 228
        0x0001bf90:    9800        ..      LDR      r0,[sp,#0]
        0x0001bf92:    f7fdfa57    ..W.    BL       am_hal_interrupt_master_set ; 0x19444
        0x0001bf96:    3d01        .=      SUBS     r5,#1
        0x0001bf98:    d1f2        ..      BNE      0x1bf80 ; buck_interval_check + 196
        0x0001bf9a:    2500        .%      MOVS     r5,#0
        0x0001bf9c:    e008        ..      B        0x1bfb0 ; buck_interval_check + 244
        0x0001bf9e:    bf00        ..      NOP      
        0x0001bfa0:    2008        .       MOVS     r0,#8
        0x0001bfa2:    f7fefffb    ....    BL       am_hal_timer_read ; 0x1af9c
        0x0001bfa6:    9900        ..      LDR      r1,[sp,#0]
        0x0001bfa8:    4605        .F      MOV      r5,r0
        0x0001bfaa:    4608        .F      MOV      r0,r1
        0x0001bfac:    f7fdfa4a    ..J.    BL       am_hal_interrupt_master_set ; 0x19444
        0x0001bfb0:    200d        .       MOVS     r0,#0xd
        0x0001bfb2:    f7fefd4d    ..M.    BL       am_hal_timer_clear_stop ; 0x1aa50
        0x0001bfb6:    200d        .       MOVS     r0,#0xd
        0x0001bfb8:    f7fefd84    ....    BL       am_hal_timer_disable ; 0x1aac4
        0x0001bfbc:    200d        .       MOVS     r0,#0xd
        0x0001bfbe:    f7fff801    ....    BL       am_hal_timer_reset_config ; 0x1afc4
        0x0001bfc2:    2008        .       MOVS     r0,#8
        0x0001bfc4:    f7fefd44    ..D.    BL       am_hal_timer_clear_stop ; 0x1aa50
        0x0001bfc8:    2008        .       MOVS     r0,#8
        0x0001bfca:    f7fefd7b    ..{.    BL       am_hal_timer_disable ; 0x1aac4
        0x0001bfce:    2008        .       MOVS     r0,#8
        0x0001bfd0:    f7fefff8    ....    BL       am_hal_timer_reset_config ; 0x1afc4
        0x0001bfd4:    b195        ..      CBZ      r5,0x1bffc ; buck_interval_check + 320
        0x0001bfd6:    f64a20ab    J..     MOV      r0,#0xaaab
        0x0001bfda:    f6ca20aa    ...     MOVT     r0,#0xaaaa
        0x0001bfde:    fba50100    ....    UMULL    r0,r1,r5,r0
        0x0001bfe2:    0888        ..      LSRS     r0,r1,#2
        0x0001bfe4:    2296        ."      MOVS     r2,#0x96
        0x0001bfe6:    2896        .(      CMP      r0,#0x96
        0x0001bfe8:    bf38        8.      IT       CC
        0x0001bfea:    088a        ..      LSRCC    r2,r1,#2
        0x0001bfec:    f5b57f96    ....    CMP      r5,#0x12c
        0x0001bff0:    bf38        8.      IT       CC
        0x0001bff2:    2232        2"      MOVCC    r2,#0x32
        0x0001bff4:    6022        "`      STR      r2,[r4,#0]
        0x0001bff6:    2000        .       MOVS     r0,#0
        0x0001bff8:    b00b        ..      ADD      sp,sp,#0x2c
        0x0001bffa:    bdf0        ..      POP      {r4-r7,pc}
        0x0001bffc:    2001        .       MOVS     r0,#1
        0x0001bffe:    b00b        ..      ADD      sp,sp,#0x2c
        0x0001c000:    bdf0        ..      POP      {r4-r7,pc}
        0x0001c002:    0000        ..      MOVS     r0,r0
    buck_ldo_override_init
        0x0001c004:    2060        `       MOVS     r0,#0x60
        0x0001c006:    f2c40002    ....    MOVT     r0,#0x4002
        0x0001c00a:    6801        .h      LDR      r1,[r0,#0]
        0x0001c00c:    2204        ."      MOVS     r2,#4
        0x0001c00e:    f4413100    A..1    ORR      r1,r1,#0x20000
        0x0001c012:    6001        .`      STR      r1,[r0,#0]
        0x0001c014:    6801        .h      LDR      r1,[r0,#0]
        0x0001c016:    f4412180    A..!    ORR      r1,r1,#0x40000
        0x0001c01a:    6001        .`      STR      r1,[r0,#0]
        0x0001c01c:    6801        .h      LDR      r1,[r0,#0]
        0x0001c01e:    f4412100    A..!    ORR      r1,r1,#0x80000
        0x0001c022:    6001        .`      STR      r1,[r0,#0]
        0x0001c024:    6801        .h      LDR      r1,[r0,#0]
        0x0001c026:    f4413180    A..1    ORR      r1,r1,#0x10000
        0x0001c02a:    6001        .`      STR      r1,[r0,#0]
        0x0001c02c:    6a01        .j      LDR      r1,[r0,#0x20]
        0x0001c02e:    f362218d    b..!    BFI      r1,r2,#10,#4
        0x0001c032:    6201        .b      STR      r1,[r0,#0x20]
        0x0001c034:    6801        .h      LDR      r1,[r0,#0]
        0x0001c036:    f0210110    !...    BIC      r1,r1,#0x10
        0x0001c03a:    6001        .`      STR      r1,[r0,#0]
        0x0001c03c:    6801        .h      LDR      r1,[r0,#0]
        0x0001c03e:    f041010e    A...    ORR      r1,r1,#0xe
        0x0001c042:    6001        .`      STR      r1,[r0,#0]
        0x0001c044:    6801        .h      LDR      r1,[r0,#0]
        0x0001c046:    f0410101    A...    ORR      r1,r1,#1
        0x0001c04a:    6001        .`      STR      r1,[r0,#0]
        0x0001c04c:    6801        .h      LDR      r1,[r0,#0]
        0x0001c04e:    f4217100    !..q    BIC      r1,r1,#0x200
        0x0001c052:    6001        .`      STR      r1,[r0,#0]
        0x0001c054:    6801        .h      LDR      r1,[r0,#0]
        0x0001c056:    f44171e0    A..q    ORR      r1,r1,#0x1c0
        0x0001c05a:    6001        .`      STR      r1,[r0,#0]
        0x0001c05c:    6801        .h      LDR      r1,[r0,#0]
        0x0001c05e:    f0410120    A. .    ORR      r1,r1,#0x20
        0x0001c062:    6001        .`      STR      r1,[r0,#0]
        0x0001c064:    4770        pG      BX       lr
        0x0001c066:    0000        ..      MOVS     r0,r0
    buck_ldo_update_override
        0x0001c068:    2160        `!      MOVS     r1,#0x60
        0x0001c06a:    f2c40102    ....    MOVT     r1,#0x4002
        0x0001c06e:    680a        .h      LDR      r2,[r1,#0]
        0x0001c070:    f4223280    "..2    BIC      r2,r2,#0x10000
        0x0001c074:    f3604210    `..B    BFI      r2,r0,#16,#1
        0x0001c078:    600a        .`      STR      r2,[r1,#0]
        0x0001c07a:    680a        .h      LDR      r2,[r1,#0]
        0x0001c07c:    f0220201    "...    BIC      r2,r2,#1
        0x0001c080:    4402        .D      ADD      r2,r2,r0
        0x0001c082:    600a        .`      STR      r2,[r1,#0]
        0x0001c084:    680a        .h      LDR      r2,[r1,#0]
        0x0001c086:    f0220220    ". .    BIC      r2,r2,#0x20
        0x0001c08a:    f3601245    `.E.    BFI      r2,r0,#5,#1
        0x0001c08e:    600a        .`      STR      r2,[r1,#0]
        0x0001c090:    4770        pG      BX       lr
        0x0001c092:    0000        ..      MOVS     r0,r0
    chiprev_set
        0x0001c094:    b084        ..      SUB      sp,sp,#0x10
        0x0001c096:    9003        ..      STR      r0,[sp,#0xc]
        0x0001c098:    9102        ..      STR      r1,[sp,#8]
        0x0001c09a:    9803        ..      LDR      r0,[sp,#0xc]
        0x0001c09c:    7b00        .{      LDRB     r0,[r0,#0xc]
        0x0001c09e:    0900        ..      LSRS     r0,r0,#4
        0x0001c0a0:    9001        ..      STR      r0,[sp,#4]
        0x0001c0a2:    9801        ..      LDR      r0,[sp,#4]
        0x0001c0a4:    3040        @0      ADDS     r0,r0,#0x40
        0x0001c0a6:    9903        ..      LDR      r1,[sp,#0xc]
        0x0001c0a8:    f8810050    ..P.    STRB     r0,[r1,#0x50]
        0x0001c0ac:    9803        ..      LDR      r0,[sp,#0xc]
        0x0001c0ae:    68c0        .h      LDR      r0,[r0,#0xc]
        0x0001c0b0:    f000000f    ....    AND      r0,r0,#0xf
        0x0001c0b4:    9000        ..      STR      r0,[sp,#0]
        0x0001c0b6:    9800        ..      LDR      r0,[sp,#0]
        0x0001c0b8:    9902        ..      LDR      r1,[sp,#8]
        0x0001c0ba:    1a40        @.      SUBS     r0,r0,r1
        0x0001c0bc:    3030        00      ADDS     r0,r0,#0x30
        0x0001c0be:    9903        ..      LDR      r1,[sp,#0xc]
        0x0001c0c0:    f8810051    ..Q.    STRB     r0,[r1,#0x51]
        0x0001c0c4:    b004        ..      ADD      sp,sp,#0x10
        0x0001c0c6:    4770        pG      BX       lr
    coreldo_vddc_parallel_set
        0x0001c0c8:    b5f0        ..      PUSH     {r4-r7,lr}
        0x0001c0ca:    b085        ..      SUB      sp,sp,#0x14
        0x0001c0cc:    466d        mF      MOV      r5,sp
        0x0001c0ce:    4604        .F      MOV      r4,r0
        0x0001c0d0:    2680        .&      MOVS     r6,#0x80
        0x0001c0d2:    4628        (F      MOV      r0,r5
        0x0001c0d4:    f2c40602    ....    MOVT     r6,#0x4002
        0x0001c0d8:    f7fefce4    ....    BL       am_hal_timer_default_config_set ; 0x1aaa4
        0x0001c0dc:    f44f7007    O..p    MOV      r0,#0x21c
        0x0001c0e0:    f8ad0000    ....    STRH     r0,[sp,#0]
        0x0001c0e4:    200d        .       MOVS     r0,#0xd
        0x0001c0e6:    4629        )F      MOV      r1,r5
        0x0001c0e8:    f001faac    ....    BL       timer_config_b1 ; 0x1d644
        0x0001c0ec:    200d        .       MOVS     r0,#0xd
        0x0001c0ee:    f7fefd07    ....    BL       am_hal_timer_enable ; 0x1ab00
        0x0001c0f2:    200d        .       MOVS     r0,#0xd
        0x0001c0f4:    f7feff52    ..R.    BL       am_hal_timer_read ; 0x1af9c
        0x0001c0f8:    4605        .F      MOV      r5,r0
        0x0001c0fa:    4620         F      MOV      r0,r4
        0x0001c0fc:    f7fdf858    ..X.    BL       am_hal_delay_us ; 0x191b0
        0x0001c100:    200d        .       MOVS     r0,#0xd
        0x0001c102:    f7feff4b    ..K.    BL       am_hal_timer_read ; 0x1af9c
        0x0001c106:    6832        2h      LDR      r2,[r6,#0]
        0x0001c108:    4285        .B      CMP      r5,r0
        0x0001c10a:    4611        .F      MOV      r1,r2
        0x0001c10c:    f36f219f    o..!    BFC      r1,#10,#22
        0x0001c110:    d11c        ..      BNE      0x1c14c ; coreldo_vddc_parallel_set + 132
        0x0001c112:    2902        .)      CMP      r1,#2
        0x0001c114:    d322        ".      BCC      0x1c15c ; coreldo_vddc_parallel_set + 148
        0x0001c116:    f24037ff    @..7    MOV      r7,#0x3ff
        0x0001c11a:    bf00        ..      NOP      
        0x0001c11c:    6830        0h      LDR      r0,[r6,#0]
        0x0001c11e:    3901        .9      SUBS     r1,#1
        0x0001c120:    43b8        .C      BICS     r0,r0,r7
        0x0001c122:    4308        .C      ORRS     r0,r0,r1
        0x0001c124:    6030        0`      STR      r0,[r6,#0]
        0x0001c126:    200d        .       MOVS     r0,#0xd
        0x0001c128:    f7feff38    ..8.    BL       am_hal_timer_read ; 0x1af9c
        0x0001c12c:    4605        .F      MOV      r5,r0
        0x0001c12e:    4620         F      MOV      r0,r4
        0x0001c130:    f7fdf83e    ..>.    BL       am_hal_delay_us ; 0x191b0
        0x0001c134:    200d        .       MOVS     r0,#0xd
        0x0001c136:    f7feff31    ..1.    BL       am_hal_timer_read ; 0x1af9c
        0x0001c13a:    6832        2h      LDR      r2,[r6,#0]
        0x0001c13c:    4611        .F      MOV      r1,r2
        0x0001c13e:    f36f219f    o..!    BFC      r1,#10,#22
        0x0001c142:    2902        .)      CMP      r1,#2
        0x0001c144:    d327        '.      BCC      0x1c196 ; coreldo_vddc_parallel_set + 206
        0x0001c146:    4285        .B      CMP      r5,r0
        0x0001c148:    d0e8        ..      BEQ      0x1c11c ; coreldo_vddc_parallel_set + 84
        0x0001c14a:    e024        $.      B        0x1c196 ; coreldo_vddc_parallel_set + 206
        0x0001c14c:    f24033ff    @..3    MOV      r3,#0x3ff
        0x0001c150:    4299        .B      CMP      r1,r3
        0x0001c152:    d105        ..      BNE      0x1c160 ; coreldo_vddc_parallel_set + 152
        0x0001c154:    f24030f3    @..0    MOV      r0,#0x3f3
        0x0001c158:    e024        $.      B        0x1c1a4 ; coreldo_vddc_parallel_set + 220
        0x0001c15a:    bf00        ..      NOP      
        0x0001c15c:    2001        .       MOVS     r0,#1
        0x0001c15e:    e021        !.      B        0x1c1a4 ; coreldo_vddc_parallel_set + 220
        0x0001c160:    4285        .B      CMP      r5,r0
        0x0001c162:    d018        ..      BEQ      0x1c196 ; coreldo_vddc_parallel_set + 206
        0x0001c164:    f24037ff    @..7    MOV      r7,#0x3ff
        0x0001c168:    6830        0h      LDR      r0,[r6,#0]
        0x0001c16a:    3101        .1      ADDS     r1,#1
        0x0001c16c:    43b8        .C      BICS     r0,r0,r7
        0x0001c16e:    4308        .C      ORRS     r0,r0,r1
        0x0001c170:    6030        0`      STR      r0,[r6,#0]
        0x0001c172:    200d        .       MOVS     r0,#0xd
        0x0001c174:    f7feff12    ....    BL       am_hal_timer_read ; 0x1af9c
        0x0001c178:    4605        .F      MOV      r5,r0
        0x0001c17a:    4620         F      MOV      r0,r4
        0x0001c17c:    f7fdf818    ....    BL       am_hal_delay_us ; 0x191b0
        0x0001c180:    200d        .       MOVS     r0,#0xd
        0x0001c182:    f7feff0b    ....    BL       am_hal_timer_read ; 0x1af9c
        0x0001c186:    6832        2h      LDR      r2,[r6,#0]
        0x0001c188:    4611        .F      MOV      r1,r2
        0x0001c18a:    f36f219f    o..!    BFC      r1,#10,#22
        0x0001c18e:    42b9        .B      CMP      r1,r7
        0x0001c190:    d01a        ..      BEQ      0x1c1c8 ; coreldo_vddc_parallel_set + 256
        0x0001c192:    4285        .B      CMP      r5,r0
        0x0001c194:    d1e8        ..      BNE      0x1c168 ; coreldo_vddc_parallel_set + 160
        0x0001c196:    290e        .)      CMP      r1,#0xe
        0x0001c198:    bf26        &.      ITTE     CS
        0x0001c19a:    f502707d    ..}p    ADDCS    r0,r2,#0x3f4
        0x0001c19e:    f36f209f    o..     BFCCS    r0,#10,#22
        0x0001c1a2:    2001        .       MOVCC    r0,#1
        0x0001c1a4:    6831        1h      LDR      r1,[r6,#0]
        0x0001c1a6:    f24032ff    @..2    MOV      r2,#0x3ff
        0x0001c1aa:    4391        .C      BICS     r1,r1,r2
        0x0001c1ac:    4408        .D      ADD      r0,r0,r1
        0x0001c1ae:    6030        0`      STR      r0,[r6,#0]
        0x0001c1b0:    200d        .       MOVS     r0,#0xd
        0x0001c1b2:    f7fefc4d    ..M.    BL       am_hal_timer_clear_stop ; 0x1aa50
        0x0001c1b6:    200d        .       MOVS     r0,#0xd
        0x0001c1b8:    f7fefc84    ....    BL       am_hal_timer_disable ; 0x1aac4
        0x0001c1bc:    200d        .       MOVS     r0,#0xd
        0x0001c1be:    f7feff01    ....    BL       am_hal_timer_reset_config ; 0x1afc4
        0x0001c1c2:    b005        ..      ADD      sp,sp,#0x14
        0x0001c1c4:    bdf0        ..      POP      {r4-r7,pc}
        0x0001c1c6:    bf00        ..      NOP      
        0x0001c1c8:    f24030f3    @..0    MOV      r0,#0x3f3
        0x0001c1cc:    e7ea        ..      B        0x1c1a4 ; coreldo_vddc_parallel_set + 220
        0x0001c1ce:    0000        ..      MOVS     r0,r0
    decstr_to_int
        0x0001c1d0:    b087        ..      SUB      sp,sp,#0x1c
        0x0001c1d2:    9006        ..      STR      r0,[sp,#0x18]
        0x0001c1d4:    9105        ..      STR      r1,[sp,#0x14]
        0x0001c1d6:    2000        .       MOVS     r0,#0
        0x0001c1d8:    f88d0013    ....    STRB     r0,[sp,#0x13]
        0x0001c1dc:    9003        ..      STR      r0,[sp,#0xc]
        0x0001c1de:    9002        ..      STR      r0,[sp,#8]
        0x0001c1e0:    9806        ..      LDR      r0,[sp,#0x18]
        0x0001c1e2:    7800        .x      LDRB     r0,[r0,#0]
        0x0001c1e4:    282d        -(      CMP      r0,#0x2d
        0x0001c1e6:    d10a        ..      BNE      0x1c1fe ; decstr_to_int + 46
        0x0001c1e8:    e7ff        ..      B        0x1c1ea ; decstr_to_int + 26
        0x0001c1ea:    2001        .       MOVS     r0,#1
        0x0001c1ec:    f88d0013    ....    STRB     r0,[sp,#0x13]
        0x0001c1f0:    9806        ..      LDR      r0,[sp,#0x18]
        0x0001c1f2:    3001        .0      ADDS     r0,#1
        0x0001c1f4:    9006        ..      STR      r0,[sp,#0x18]
        0x0001c1f6:    9802        ..      LDR      r0,[sp,#8]
        0x0001c1f8:    3001        .0      ADDS     r0,#1
        0x0001c1fa:    9002        ..      STR      r0,[sp,#8]
        0x0001c1fc:    e7ff        ..      B        0x1c1fe ; decstr_to_int + 46
        0x0001c1fe:    e7ff        ..      B        0x1c200 ; decstr_to_int + 48
        0x0001c200:    9806        ..      LDR      r0,[sp,#0x18]
        0x0001c202:    7801        .x      LDRB     r1,[r0,#0]
        0x0001c204:    2000        .       MOVS     r0,#0
        0x0001c206:    2930        0)      CMP      r1,#0x30
        0x0001c208:    9001        ..      STR      r0,[sp,#4]
        0x0001c20a:    db08        ..      BLT      0x1c21e ; decstr_to_int + 78
        0x0001c20c:    e7ff        ..      B        0x1c20e ; decstr_to_int + 62
        0x0001c20e:    9806        ..      LDR      r0,[sp,#0x18]
        0x0001c210:    7801        .x      LDRB     r1,[r0,#0]
        0x0001c212:    2000        .       MOVS     r0,#0
        0x0001c214:    293a        :)      CMP      r1,#0x3a
        0x0001c216:    bfb8        ..      IT       LT
        0x0001c218:    2001        .       MOVLT    r0,#1
        0x0001c21a:    9001        ..      STR      r0,[sp,#4]
        0x0001c21c:    e7ff        ..      B        0x1c21e ; decstr_to_int + 78
        0x0001c21e:    9801        ..      LDR      r0,[sp,#4]
        0x0001c220:    07c0        ..      LSLS     r0,r0,#31
        0x0001c222:    b190        ..      CBZ      r0,0x1c24a ; decstr_to_int + 122
        0x0001c224:    e7ff        ..      B        0x1c226 ; decstr_to_int + 86
        0x0001c226:    9802        ..      LDR      r0,[sp,#8]
        0x0001c228:    3001        .0      ADDS     r0,#1
        0x0001c22a:    9002        ..      STR      r0,[sp,#8]
        0x0001c22c:    9803        ..      LDR      r0,[sp,#0xc]
        0x0001c22e:    eb000080    ....    ADD      r0,r0,r0,LSL #2
        0x0001c232:    0040        @.      LSLS     r0,r0,#1
        0x0001c234:    9003        ..      STR      r0,[sp,#0xc]
        0x0001c236:    9806        ..      LDR      r0,[sp,#0x18]
        0x0001c238:    7800        .x      LDRB     r0,[r0,#0]
        0x0001c23a:    9903        ..      LDR      r1,[sp,#0xc]
        0x0001c23c:    4408        .D      ADD      r0,r0,r1
        0x0001c23e:    3830        08      SUBS     r0,r0,#0x30
        0x0001c240:    9003        ..      STR      r0,[sp,#0xc]
        0x0001c242:    9806        ..      LDR      r0,[sp,#0x18]
        0x0001c244:    3001        .0      ADDS     r0,#1
        0x0001c246:    9006        ..      STR      r0,[sp,#0x18]
        0x0001c248:    e7da        ..      B        0x1c200 ; decstr_to_int + 48
        0x0001c24a:    9805        ..      LDR      r0,[sp,#0x14]
        0x0001c24c:    b120         .      CBZ      r0,0x1c258 ; decstr_to_int + 136
        0x0001c24e:    e7ff        ..      B        0x1c250 ; decstr_to_int + 128
        0x0001c250:    9802        ..      LDR      r0,[sp,#8]
        0x0001c252:    9905        ..      LDR      r1,[sp,#0x14]
        0x0001c254:    6008        .`      STR      r0,[r1,#0]
        0x0001c256:    e7ff        ..      B        0x1c258 ; decstr_to_int + 136
        0x0001c258:    f89d0013    ....    LDRB     r0,[sp,#0x13]
        0x0001c25c:    07c0        ..      LSLS     r0,r0,#31
        0x0001c25e:    b120         .      CBZ      r0,0x1c26a ; decstr_to_int + 154
        0x0001c260:    e7ff        ..      B        0x1c262 ; decstr_to_int + 146
        0x0001c262:    9803        ..      LDR      r0,[sp,#0xc]
        0x0001c264:    4240        @B      RSBS     r0,r0,#0
        0x0001c266:    9000        ..      STR      r0,[sp,#0]
        0x0001c268:    e002        ..      B        0x1c270 ; decstr_to_int + 160
        0x0001c26a:    9803        ..      LDR      r0,[sp,#0xc]
        0x0001c26c:    9000        ..      STR      r0,[sp,#0]
        0x0001c26e:    e7ff        ..      B        0x1c270 ; decstr_to_int + 160
        0x0001c270:    9800        ..      LDR      r0,[sp,#0]
        0x0001c272:    b007        ..      ADD      sp,sp,#0x1c
        0x0001c274:    4770        pG      BX       lr
        0x0001c276:    0000        ..      MOVS     r0,r0
    divu64_10
        0x0001c278:    b08c        ..      SUB      sp,sp,#0x30
        0x0001c27a:    9109        ..      STR      r1,[sp,#0x24]
        0x0001c27c:    9008        ..      STR      r0,[sp,#0x20]
        0x0001c27e:    9809        ..      LDR      r0,[sp,#0x24]
        0x0001c280:    2800        .(      CMP      r0,#0
        0x0001c282:    d05b        [.      BEQ      0x1c33c ; divu64_10 + 196
        0x0001c284:    e7ff        ..      B        0x1c286 ; divu64_10 + 14
        0x0001c286:    9b08        ..      LDR      r3,[sp,#0x20]
        0x0001c288:    9a09        ..      LDR      r2,[sp,#0x24]
        0x0001c28a:    ea5f0052    _.R.    LSRS.W   r0,r2,#1
        0x0001c28e:    ea4f0133    O.3.    RRX      r1,r3
        0x0001c292:    089b        ..      LSRS     r3,r3,#2
        0x0001c294:    ea437382    C..s    ORR      r3,r3,r2,LSL #30
        0x0001c298:    18c9        ..      ADDS     r1,r1,r3
        0x0001c29a:    eb400092    @...    ADC      r0,r0,r2,LSR #2
        0x0001c29e:    9106        ..      STR      r1,[sp,#0x18]
        0x0001c2a0:    9007        ..      STR      r0,[sp,#0x1c]
        0x0001c2a2:    9906        ..      LDR      r1,[sp,#0x18]
        0x0001c2a4:    9807        ..      LDR      r0,[sp,#0x1c]
        0x0001c2a6:    090a        ..      LSRS     r2,r1,#4
        0x0001c2a8:    ea427200    B..r    ORR      r2,r2,r0,LSL #28
        0x0001c2ac:    1889        ..      ADDS     r1,r1,r2
        0x0001c2ae:    eb401010    @...    ADC      r0,r0,r0,LSR #4
        0x0001c2b2:    9106        ..      STR      r1,[sp,#0x18]
        0x0001c2b4:    9007        ..      STR      r0,[sp,#0x1c]
        0x0001c2b6:    9906        ..      LDR      r1,[sp,#0x18]
        0x0001c2b8:    9807        ..      LDR      r0,[sp,#0x1c]
        0x0001c2ba:    0a0a        ..      LSRS     r2,r1,#8
        0x0001c2bc:    ea426200    B..b    ORR      r2,r2,r0,LSL #24
        0x0001c2c0:    1889        ..      ADDS     r1,r1,r2
        0x0001c2c2:    eb402010    @..     ADC      r0,r0,r0,LSR #8
        0x0001c2c6:    9106        ..      STR      r1,[sp,#0x18]
        0x0001c2c8:    9007        ..      STR      r0,[sp,#0x1c]
        0x0001c2ca:    9906        ..      LDR      r1,[sp,#0x18]
        0x0001c2cc:    9807        ..      LDR      r0,[sp,#0x1c]
        0x0001c2ce:    0c0a        ..      LSRS     r2,r1,#16
        0x0001c2d0:    ea424200    B..B    ORR      r2,r2,r0,LSL #16
        0x0001c2d4:    1889        ..      ADDS     r1,r1,r2
        0x0001c2d6:    eb404010    @..@    ADC      r0,r0,r0,LSR #16
        0x0001c2da:    9106        ..      STR      r1,[sp,#0x18]
        0x0001c2dc:    9007        ..      STR      r0,[sp,#0x1c]
        0x0001c2de:    9906        ..      LDR      r1,[sp,#0x18]
        0x0001c2e0:    9807        ..      LDR      r0,[sp,#0x1c]
        0x0001c2e2:    1809        ..      ADDS     r1,r1,r0
        0x0001c2e4:    f1400000    @...    ADC      r0,r0,#0
        0x0001c2e8:    9106        ..      STR      r1,[sp,#0x18]
        0x0001c2ea:    9007        ..      STR      r0,[sp,#0x1c]
        0x0001c2ec:    9806        ..      LDR      r0,[sp,#0x18]
        0x0001c2ee:    9907        ..      LDR      r1,[sp,#0x1c]
        0x0001c2f0:    08c0        ..      LSRS     r0,r0,#3
        0x0001c2f2:    ea407041    @.Ap    ORR      r0,r0,r1,LSL #29
        0x0001c2f6:    08c9        ..      LSRS     r1,r1,#3
        0x0001c2f8:    9107        ..      STR      r1,[sp,#0x1c]
        0x0001c2fa:    9006        ..      STR      r0,[sp,#0x18]
        0x0001c2fc:    9908        ..      LDR      r1,[sp,#0x20]
        0x0001c2fe:    9809        ..      LDR      r0,[sp,#0x24]
        0x0001c300:    9a06        ..      LDR      r2,[sp,#0x18]
        0x0001c302:    f8ddc01c    ....    LDR      r12,[sp,#0x1c]
        0x0001c306:    230a        .#      MOVS     r3,#0xa
        0x0001c308:    fba23203    ...2    UMULL    r3,r2,r2,r3
        0x0001c30c:    eb0c0c8c    ....    ADD      r12,r12,r12,LSL #2
        0x0001c310:    eb02024c    ..L.    ADD      r2,r2,r12,LSL #1
        0x0001c314:    1ac9        ..      SUBS     r1,r1,r3
        0x0001c316:    4190        .A      SBCS     r0,r0,r2
        0x0001c318:    9104        ..      STR      r1,[sp,#0x10]
        0x0001c31a:    9005        ..      STR      r0,[sp,#0x14]
        0x0001c31c:    9906        ..      LDR      r1,[sp,#0x18]
        0x0001c31e:    9807        ..      LDR      r0,[sp,#0x1c]
        0x0001c320:    9b04        ..      LDR      r3,[sp,#0x10]
        0x0001c322:    9a05        ..      LDR      r2,[sp,#0x14]
        0x0001c324:    3306        .3      ADDS     r3,#6
        0x0001c326:    f1420200    B...    ADC      r2,r2,#0
        0x0001c32a:    091b        ..      LSRS     r3,r3,#4
        0x0001c32c:    ea437302    C..s    ORR      r3,r3,r2,LSL #28
        0x0001c330:    18c9        ..      ADDS     r1,r1,r3
        0x0001c332:    eb401012    @...    ADC      r0,r0,r2,LSR #4
        0x0001c336:    910a        ..      STR      r1,[sp,#0x28]
        0x0001c338:    900b        ..      STR      r0,[sp,#0x2c]
        0x0001c33a:    e025        %.      B        0x1c388 ; divu64_10 + 272
        0x0001c33c:    9808        ..      LDR      r0,[sp,#0x20]
        0x0001c33e:    9001        ..      STR      r0,[sp,#4]
        0x0001c340:    9901        ..      LDR      r1,[sp,#4]
        0x0001c342:    0848        H.      LSRS     r0,r1,#1
        0x0001c344:    eb000091    ....    ADD      r0,r0,r1,LSR #2
        0x0001c348:    9003        ..      STR      r0,[sp,#0xc]
        0x0001c34a:    9803        ..      LDR      r0,[sp,#0xc]
        0x0001c34c:    eb001010    ....    ADD      r0,r0,r0,LSR #4
        0x0001c350:    9003        ..      STR      r0,[sp,#0xc]
        0x0001c352:    9803        ..      LDR      r0,[sp,#0xc]
        0x0001c354:    eb002010    ...     ADD      r0,r0,r0,LSR #8
        0x0001c358:    9003        ..      STR      r0,[sp,#0xc]
        0x0001c35a:    9803        ..      LDR      r0,[sp,#0xc]
        0x0001c35c:    eb004010    ...@    ADD      r0,r0,r0,LSR #16
        0x0001c360:    9003        ..      STR      r0,[sp,#0xc]
        0x0001c362:    9803        ..      LDR      r0,[sp,#0xc]
        0x0001c364:    08c0        ..      LSRS     r0,r0,#3
        0x0001c366:    9003        ..      STR      r0,[sp,#0xc]
        0x0001c368:    9801        ..      LDR      r0,[sp,#4]
        0x0001c36a:    9903        ..      LDR      r1,[sp,#0xc]
        0x0001c36c:    eb010181    ....    ADD      r1,r1,r1,LSL #2
        0x0001c370:    eba00041    ..A.    SUB      r0,r0,r1,LSL #1
        0x0001c374:    9002        ..      STR      r0,[sp,#8]
        0x0001c376:    9803        ..      LDR      r0,[sp,#0xc]
        0x0001c378:    9902        ..      LDR      r1,[sp,#8]
        0x0001c37a:    3106        .1      ADDS     r1,#6
        0x0001c37c:    eb001011    ....    ADD      r0,r0,r1,LSR #4
        0x0001c380:    2100        .!      MOVS     r1,#0
        0x0001c382:    910b        ..      STR      r1,[sp,#0x2c]
        0x0001c384:    900a        ..      STR      r0,[sp,#0x28]
        0x0001c386:    e7ff        ..      B        0x1c388 ; divu64_10 + 272
        0x0001c388:    980a        ..      LDR      r0,[sp,#0x28]
        0x0001c38a:    990b        ..      LDR      r1,[sp,#0x2c]
        0x0001c38c:    b00c        ..      ADD      sp,sp,#0x30
        0x0001c38e:    4770        pG      BX       lr
    ftoa
        0x0001c390:    b580        ..      PUSH     {r7,lr}
        0x0001c392:    b090        ..      SUB      sp,sp,#0x40
        0x0001c394:    ed8d0a0e    ....    VSTR     s0,[sp,#0x38]
        0x0001c398:    900d        ..      STR      r0,[sp,#0x34]
        0x0001c39a:    910c        ..      STR      r1,[sp,#0x30]
        0x0001c39c:    980d        ..      LDR      r0,[sp,#0x34]
        0x0001c39e:    6800        .h      LDR      r0,[r0,#0]
        0x0001c3a0:    9009        ..      STR      r0,[sp,#0x24]
        0x0001c3a2:    9809        ..      LDR      r0,[sp,#0x24]
        0x0001c3a4:    2803        .(      CMP      r0,#3
        0x0001c3a6:    dc04        ..      BGT      0x1c3b2 ; ftoa + 34
        0x0001c3a8:    e7ff        ..      B        0x1c3aa ; ftoa + 26
        0x0001c3aa:    f06f0002    o...    MVN      r0,#2
        0x0001c3ae:    900f        ..      STR      r0,[sp,#0x3c]
        0x0001c3b0:    e103        ..      B        0x1c5ba ; ftoa + 554
        0x0001c3b2:    ed9d0a0e    ....    VLDR     s0,[sp,#0x38]
        0x0001c3b6:    eeb50a40    ..@.    VCMP.F32 s0,#0.0
        0x0001c3ba:    eef1fa10    ....    VMRS     APSR_nzcv,FPSCR
        0x0001c3be:    d109        ..      BNE      0x1c3d4 ; ftoa + 68
        0x0001c3c0:    e7ff        ..      B        0x1c3c2 ; ftoa + 50
        0x0001c3c2:    990d        ..      LDR      r1,[sp,#0x34]
        0x0001c3c4:    f6426030    B.0`    MOV      r0,#0x2e30
        0x0001c3c8:    f2c00030    ..0.    MOVT     r0,#0x30
        0x0001c3cc:    6008        .`      STR      r0,[r1,#0]
        0x0001c3ce:    2003        .       MOVS     r0,#3
        0x0001c3d0:    900f        ..      STR      r0,[sp,#0x3c]
        0x0001c3d2:    e0f2        ..      B        0x1c5ba ; ftoa + 554
        0x0001c3d4:    980d        ..      LDR      r0,[sp,#0x34]
        0x0001c3d6:    9005        ..      STR      r0,[sp,#0x14]
        0x0001c3d8:    980e        ..      LDR      r0,[sp,#0x38]
        0x0001c3da:    900b        ..      STR      r0,[sp,#0x2c]
        0x0001c3dc:    980b        ..      LDR      r0,[sp,#0x2c]
        0x0001c3de:    0dc1        ..      LSRS     r1,r0,#23
        0x0001c3e0:    f06f007e    o.~.    MVN      r0,#0x7e
        0x0001c3e4:    fa50f081    P...    UXTAB    r0,r0,r1
        0x0001c3e8:    900a        ..      STR      r0,[sp,#0x28]
        0x0001c3ea:    980b        ..      LDR      r0,[sp,#0x2c]
        0x0001c3ec:    f4400000    @...    ORR      r0,r0,#0x800000
        0x0001c3f0:    f020407f     ..@    BIC      r0,r0,#0xff000000
        0x0001c3f4:    9008        ..      STR      r0,[sp,#0x20]
        0x0001c3f6:    2000        .       MOVS     r0,#0
        0x0001c3f8:    9006        ..      STR      r0,[sp,#0x18]
        0x0001c3fa:    9007        ..      STR      r0,[sp,#0x1c]
        0x0001c3fc:    980a        ..      LDR      r0,[sp,#0x28]
        0x0001c3fe:    281f        .(      CMP      r0,#0x1f
        0x0001c400:    db04        ..      BLT      0x1c40c ; ftoa + 124
        0x0001c402:    e7ff        ..      B        0x1c404 ; ftoa + 116
        0x0001c404:    f06f0001    o...    MVN      r0,#1
        0x0001c408:    900f        ..      STR      r0,[sp,#0x3c]
        0x0001c40a:    e0d6        ..      B        0x1c5ba ; ftoa + 554
        0x0001c40c:    980a        ..      LDR      r0,[sp,#0x28]
        0x0001c40e:    f1100f18    ....    CMN      r0,#0x18
        0x0001c412:    dc04        ..      BGT      0x1c41e ; ftoa + 142
        0x0001c414:    e7ff        ..      B        0x1c416 ; ftoa + 134
        0x0001c416:    f04f30ff    O..0    MOV      r0,#0xffffffff
        0x0001c41a:    900f        ..      STR      r0,[sp,#0x3c]
        0x0001c41c:    e0cd        ..      B        0x1c5ba ; ftoa + 554
        0x0001c41e:    980a        ..      LDR      r0,[sp,#0x28]
        0x0001c420:    2817        .(      CMP      r0,#0x17
        0x0001c422:    db06        ..      BLT      0x1c432 ; ftoa + 162
        0x0001c424:    e7ff        ..      B        0x1c426 ; ftoa + 150
        0x0001c426:    9808        ..      LDR      r0,[sp,#0x20]
        0x0001c428:    990a        ..      LDR      r1,[sp,#0x28]
        0x0001c42a:    3917        .9      SUBS     r1,r1,#0x17
        0x0001c42c:    4088        .@      LSLS     r0,r0,r1
        0x0001c42e:    9007        ..      STR      r0,[sp,#0x1c]
        0x0001c430:    e01a        ..      B        0x1c468 ; ftoa + 216
        0x0001c432:    980a        ..      LDR      r0,[sp,#0x28]
        0x0001c434:    2800        .(      CMP      r0,#0
        0x0001c436:    d40e        ..      BMI      0x1c456 ; ftoa + 198
        0x0001c438:    e7ff        ..      B        0x1c43a ; ftoa + 170
        0x0001c43a:    9808        ..      LDR      r0,[sp,#0x20]
        0x0001c43c:    990a        ..      LDR      r1,[sp,#0x28]
        0x0001c43e:    f1c10117    ....    RSB      r1,r1,#0x17
        0x0001c442:    4108        .A      ASRS     r0,r0,r1
        0x0001c444:    9007        ..      STR      r0,[sp,#0x1c]
        0x0001c446:    9808        ..      LDR      r0,[sp,#0x20]
        0x0001c448:    990a        ..      LDR      r1,[sp,#0x28]
        0x0001c44a:    3101        .1      ADDS     r1,#1
        0x0001c44c:    4088        .@      LSLS     r0,r0,r1
        0x0001c44e:    f020407f     ..@    BIC      r0,r0,#0xff000000
        0x0001c452:    9006        ..      STR      r0,[sp,#0x18]
        0x0001c454:    e007        ..      B        0x1c466 ; ftoa + 214
        0x0001c456:    9808        ..      LDR      r0,[sp,#0x20]
        0x0001c458:    f020407f     ..@    BIC      r0,r0,#0xff000000
        0x0001c45c:    990a        ..      LDR      r1,[sp,#0x28]
        0x0001c45e:    43c9        .C      MVNS     r1,r1
        0x0001c460:    40c8        .@      LSRS     r0,r0,r1
        0x0001c462:    9006        ..      STR      r0,[sp,#0x18]
        0x0001c464:    e7ff        ..      B        0x1c466 ; ftoa + 214
        0x0001c466:    e7ff        ..      B        0x1c468 ; ftoa + 216
        0x0001c468:    e7ff        ..      B        0x1c46a ; ftoa + 218
        0x0001c46a:    e7ff        ..      B        0x1c46c ; ftoa + 220
        0x0001c46c:    980b        ..      LDR      r0,[sp,#0x2c]
        0x0001c46e:    f1b03fff    ...?    CMP      r0,#0xffffffff
        0x0001c472:    dc06        ..      BGT      0x1c482 ; ftoa + 242
        0x0001c474:    e7ff        ..      B        0x1c476 ; ftoa + 230
        0x0001c476:    990d        ..      LDR      r1,[sp,#0x34]
        0x0001c478:    1c48        H.      ADDS     r0,r1,#1
        0x0001c47a:    900d        ..      STR      r0,[sp,#0x34]
        0x0001c47c:    202d        -       MOVS     r0,#0x2d
        0x0001c47e:    7008        .p      STRB     r0,[r1,#0]
        0x0001c480:    e7ff        ..      B        0x1c482 ; ftoa + 242
        0x0001c482:    9807        ..      LDR      r0,[sp,#0x1c]
        0x0001c484:    b930        0.      CBNZ     r0,0x1c494 ; ftoa + 260
        0x0001c486:    e7ff        ..      B        0x1c488 ; ftoa + 248
        0x0001c488:    990d        ..      LDR      r1,[sp,#0x34]
        0x0001c48a:    1c48        H.      ADDS     r0,r1,#1
        0x0001c48c:    900d        ..      STR      r0,[sp,#0x34]
        0x0001c48e:    2030        0       MOVS     r0,#0x30
        0x0001c490:    7008        .p      STRB     r0,[r1,#0]
        0x0001c492:    e01f        ..      B        0x1c4d4 ; ftoa + 324
        0x0001c494:    9807        ..      LDR      r0,[sp,#0x1c]
        0x0001c496:    2801        .(      CMP      r0,#1
        0x0001c498:    db06        ..      BLT      0x1c4a8 ; ftoa + 280
        0x0001c49a:    e7ff        ..      B        0x1c49c ; ftoa + 268
        0x0001c49c:    9807        ..      LDR      r0,[sp,#0x1c]
        0x0001c49e:    17c1        ..      ASRS     r1,r0,#31
        0x0001c4a0:    9a0d        ..      LDR      r2,[sp,#0x34]
        0x0001c4a2:    f001f9f9    ....    BL       uint64_to_str ; 0x1d898
        0x0001c4a6:    e00b        ..      B        0x1c4c0 ; ftoa + 304
        0x0001c4a8:    990d        ..      LDR      r1,[sp,#0x34]
        0x0001c4aa:    1c48        H.      ADDS     r0,r1,#1
        0x0001c4ac:    900d        ..      STR      r0,[sp,#0x34]
        0x0001c4ae:    202d        -       MOVS     r0,#0x2d
        0x0001c4b0:    7008        .p      STRB     r0,[r1,#0]
        0x0001c4b2:    9807        ..      LDR      r0,[sp,#0x1c]
        0x0001c4b4:    4240        @B      RSBS     r0,r0,#0
        0x0001c4b6:    17c1        ..      ASRS     r1,r0,#31
        0x0001c4b8:    9a0d        ..      LDR      r2,[sp,#0x34]
        0x0001c4ba:    f001f9ed    ....    BL       uint64_to_str ; 0x1d898
        0x0001c4be:    e7ff        ..      B        0x1c4c0 ; ftoa + 304
        0x0001c4c0:    e7ff        ..      B        0x1c4c2 ; ftoa + 306
        0x0001c4c2:    980d        ..      LDR      r0,[sp,#0x34]
        0x0001c4c4:    7800        .x      LDRB     r0,[r0,#0]
        0x0001c4c6:    b120         .      CBZ      r0,0x1c4d2 ; ftoa + 322
        0x0001c4c8:    e7ff        ..      B        0x1c4ca ; ftoa + 314
        0x0001c4ca:    980d        ..      LDR      r0,[sp,#0x34]
        0x0001c4cc:    3001        .0      ADDS     r0,#1
        0x0001c4ce:    900d        ..      STR      r0,[sp,#0x34]
        0x0001c4d0:    e7f7        ..      B        0x1c4c2 ; ftoa + 306
        0x0001c4d2:    e7ff        ..      B        0x1c4d4 ; ftoa + 324
        0x0001c4d4:    990d        ..      LDR      r1,[sp,#0x34]
        0x0001c4d6:    1c48        H.      ADDS     r0,r1,#1
        0x0001c4d8:    900d        ..      STR      r0,[sp,#0x34]
        0x0001c4da:    202e        .       MOVS     r0,#0x2e
        0x0001c4dc:    7008        .p      STRB     r0,[r1,#0]
        0x0001c4de:    9806        ..      LDR      r0,[sp,#0x18]
        0x0001c4e0:    b930        0.      CBNZ     r0,0x1c4f0 ; ftoa + 352
        0x0001c4e2:    e7ff        ..      B        0x1c4e4 ; ftoa + 340
        0x0001c4e4:    990d        ..      LDR      r1,[sp,#0x34]
        0x0001c4e6:    1c48        H.      ADDS     r0,r1,#1
        0x0001c4e8:    900d        ..      STR      r0,[sp,#0x34]
        0x0001c4ea:    2030        0       MOVS     r0,#0x30
        0x0001c4ec:    7008        .p      STRB     r0,[r1,#0]
        0x0001c4ee:    e05c        \.      B        0x1c5aa ; ftoa + 538
        0x0001c4f0:    9909        ..      LDR      r1,[sp,#0x24]
        0x0001c4f2:    980d        ..      LDR      r0,[sp,#0x34]
        0x0001c4f4:    9a05        ..      LDR      r2,[sp,#0x14]
        0x0001c4f6:    1a80        ..      SUBS     r0,r0,r2
        0x0001c4f8:    43c0        .C      MVNS     r0,r0
        0x0001c4fa:    4408        .D      ADD      r0,r0,r1
        0x0001c4fc:    9002        ..      STR      r0,[sp,#8]
        0x0001c4fe:    9802        ..      LDR      r0,[sp,#8]
        0x0001c500:    990c        ..      LDR      r1,[sp,#0x30]
        0x0001c502:    4288        .B      CMP      r0,r1
        0x0001c504:    dd03        ..      BLE      0x1c50e ; ftoa + 382
        0x0001c506:    e7ff        ..      B        0x1c508 ; ftoa + 376
        0x0001c508:    980c        ..      LDR      r0,[sp,#0x30]
        0x0001c50a:    9001        ..      STR      r0,[sp,#4]
        0x0001c50c:    e002        ..      B        0x1c514 ; ftoa + 388
        0x0001c50e:    9802        ..      LDR      r0,[sp,#8]
        0x0001c510:    9001        ..      STR      r0,[sp,#4]
        0x0001c512:    e7ff        ..      B        0x1c514 ; ftoa + 388
        0x0001c514:    9801        ..      LDR      r0,[sp,#4]
        0x0001c516:    9002        ..      STR      r0,[sp,#8]
        0x0001c518:    2000        .       MOVS     r0,#0
        0x0001c51a:    9003        ..      STR      r0,[sp,#0xc]
        0x0001c51c:    e7ff        ..      B        0x1c51e ; ftoa + 398
        0x0001c51e:    9803        ..      LDR      r0,[sp,#0xc]
        0x0001c520:    9902        ..      LDR      r1,[sp,#8]
        0x0001c522:    4288        .B      CMP      r0,r1
        0x0001c524:    da15        ..      BGE      0x1c552 ; ftoa + 450
        0x0001c526:    e7ff        ..      B        0x1c528 ; ftoa + 408
        0x0001c528:    9806        ..      LDR      r0,[sp,#0x18]
        0x0001c52a:    eb000080    ....    ADD      r0,r0,r0,LSL #2
        0x0001c52e:    0040        @.      LSLS     r0,r0,#1
        0x0001c530:    9006        ..      STR      r0,[sp,#0x18]
        0x0001c532:    f89d001b    ....    LDRB     r0,[sp,#0x1b]
        0x0001c536:    3030        00      ADDS     r0,r0,#0x30
        0x0001c538:    990d        ..      LDR      r1,[sp,#0x34]
        0x0001c53a:    1c4a        J.      ADDS     r2,r1,#1
        0x0001c53c:    920d        ..      STR      r2,[sp,#0x34]
        0x0001c53e:    7008        .p      STRB     r0,[r1,#0]
        0x0001c540:    9806        ..      LDR      r0,[sp,#0x18]
        0x0001c542:    f020407f     ..@    BIC      r0,r0,#0xff000000
        0x0001c546:    9006        ..      STR      r0,[sp,#0x18]
        0x0001c548:    e7ff        ..      B        0x1c54a ; ftoa + 442
        0x0001c54a:    9803        ..      LDR      r0,[sp,#0xc]
        0x0001c54c:    3001        .0      ADDS     r0,#1
        0x0001c54e:    9003        ..      STR      r0,[sp,#0xc]
        0x0001c550:    e7e5        ..      B        0x1c51e ; ftoa + 398
        0x0001c552:    9806        ..      LDR      r0,[sp,#0x18]
        0x0001c554:    eb000080    ....    ADD      r0,r0,r0,LSL #2
        0x0001c558:    f34050c7    @..P    SBFX     r0,r0,#23,#8
        0x0001c55c:    2805        .(      CMP      r0,#5
        0x0001c55e:    db23        #.      BLT      0x1c5a8 ; ftoa + 536
        0x0001c560:    e7ff        ..      B        0x1c562 ; ftoa + 466
        0x0001c562:    980d        ..      LDR      r0,[sp,#0x34]
        0x0001c564:    3801        .8      SUBS     r0,#1
        0x0001c566:    9004        ..      STR      r0,[sp,#0x10]
        0x0001c568:    e7ff        ..      B        0x1c56a ; ftoa + 474
        0x0001c56a:    9804        ..      LDR      r0,[sp,#0x10]
        0x0001c56c:    9905        ..      LDR      r1,[sp,#0x14]
        0x0001c56e:    4288        .B      CMP      r0,r1
        0x0001c570:    d319        ..      BCC      0x1c5a6 ; ftoa + 534
        0x0001c572:    e7ff        ..      B        0x1c574 ; ftoa + 484
        0x0001c574:    9804        ..      LDR      r0,[sp,#0x10]
        0x0001c576:    7800        .x      LDRB     r0,[r0,#0]
        0x0001c578:    282e        .(      CMP      r0,#0x2e
        0x0001c57a:    d101        ..      BNE      0x1c580 ; ftoa + 496
        0x0001c57c:    e7ff        ..      B        0x1c57e ; ftoa + 494
        0x0001c57e:    e00e        ..      B        0x1c59e ; ftoa + 526
        0x0001c580:    9804        ..      LDR      r0,[sp,#0x10]
        0x0001c582:    7800        .x      LDRB     r0,[r0,#0]
        0x0001c584:    2839        9(      CMP      r0,#0x39
        0x0001c586:    d104        ..      BNE      0x1c592 ; ftoa + 514
        0x0001c588:    e7ff        ..      B        0x1c58a ; ftoa + 506
        0x0001c58a:    9904        ..      LDR      r1,[sp,#0x10]
        0x0001c58c:    2030        0       MOVS     r0,#0x30
        0x0001c58e:    7008        .p      STRB     r0,[r1,#0]
        0x0001c590:    e004        ..      B        0x1c59c ; ftoa + 524
        0x0001c592:    9904        ..      LDR      r1,[sp,#0x10]
        0x0001c594:    7808        .x      LDRB     r0,[r1,#0]
        0x0001c596:    3001        .0      ADDS     r0,#1
        0x0001c598:    7008        .p      STRB     r0,[r1,#0]
        0x0001c59a:    e004        ..      B        0x1c5a6 ; ftoa + 534
        0x0001c59c:    e7ff        ..      B        0x1c59e ; ftoa + 526
        0x0001c59e:    9804        ..      LDR      r0,[sp,#0x10]
        0x0001c5a0:    3801        .8      SUBS     r0,#1
        0x0001c5a2:    9004        ..      STR      r0,[sp,#0x10]
        0x0001c5a4:    e7e1        ..      B        0x1c56a ; ftoa + 474
        0x0001c5a6:    e7ff        ..      B        0x1c5a8 ; ftoa + 536
        0x0001c5a8:    e7ff        ..      B        0x1c5aa ; ftoa + 538
        0x0001c5aa:    990d        ..      LDR      r1,[sp,#0x34]
        0x0001c5ac:    2000        .       MOVS     r0,#0
        0x0001c5ae:    7008        .p      STRB     r0,[r1,#0]
        0x0001c5b0:    980d        ..      LDR      r0,[sp,#0x34]
        0x0001c5b2:    9905        ..      LDR      r1,[sp,#0x14]
        0x0001c5b4:    1a40        @.      SUBS     r0,r0,r1
        0x0001c5b6:    900f        ..      STR      r0,[sp,#0x3c]
        0x0001c5b8:    e7ff        ..      B        0x1c5ba ; ftoa + 554
        0x0001c5ba:    980f        ..      LDR      r0,[sp,#0x3c]
        0x0001c5bc:    b010        ..      ADD      sp,sp,#0x40
        0x0001c5be:    bd80        ..      POP      {r7,pc}
    get_raw_dcu_mask
        0x0001c5c0:    b5b0        ..      PUSH     {r4,r5,r7,lr}
        0x0001c5c2:    4684        .F      MOV      r12,r0
        0x0001c5c4:    f24020a4    @..     MOVW     r0,#0x2a4
        0x0001c5c8:    f2c10000    ....    MOVT     r0,#0x1000
        0x0001c5cc:    f8d0e000    ....    LDR      lr,[r0,#0]
        0x0001c5d0:    2207        ."      MOVS     r2,#7
        0x0001c5d2:    f1ce0320    .. .    RSB      r3,lr,#0x20
        0x0001c5d6:    fa22f303    "...    LSR      r3,r2,r3
        0x0001c5da:    ea4f708c    O..p    LSL      r0,r12,#30
        0x0001c5de:    f1be0120    .. .    SUBS     r1,lr,#0x20
        0x0001c5e2:    bf58        X.      IT       PL
        0x0001c5e4:    fa02f301    ....    LSLPL    r3,r2,r1
        0x0001c5e8:    fa02f40e    ....    LSL      r4,r2,lr
        0x0001c5ec:    bf58        X.      IT       PL
        0x0001c5ee:    2400        .$      MOVPL    r4,#0
        0x0001c5f0:    ea0371e0    ...q    AND      r1,r3,r0,ASR #31
        0x0001c5f4:    ea5f734c    _.Ls    LSLS     r3,r12,#29
        0x0001c5f8:    ea0470e0    ...p    AND      r0,r4,r0,ASR #31
        0x0001c5fc:    d470        p.      BMI      0x1c6e0 ; get_raw_dcu_mask + 288
        0x0001c5fe:    ea5f720c    _..r    LSLS     r2,r12,#28
        0x0001c602:    f1008082    ....    BMI.W    0x1c70a ; get_raw_dcu_mask + 330
        0x0001c606:    ea5f62cc    _..b    LSLS     r2,r12,#27
        0x0001c60a:    f1008094    ....    BMI.W    0x1c736 ; get_raw_dcu_mask + 374
        0x0001c60e:    ea5f628c    _..b    LSLS     r2,r12,#26
        0x0001c612:    f10080a6    ....    BMI.W    0x1c762 ; get_raw_dcu_mask + 418
        0x0001c616:    ea5f624c    _.Lb    LSLS     r2,r12,#25
        0x0001c61a:    f10080b8    ....    BMI.W    0x1c78e ; get_raw_dcu_mask + 462
        0x0001c61e:    ea5f620c    _..b    LSLS     r2,r12,#24
        0x0001c622:    f10080ca    ....    BMI.W    0x1c7ba ; get_raw_dcu_mask + 506
        0x0001c626:    ea5f52cc    _..R    LSLS     r2,r12,#23
        0x0001c62a:    f10080dc    ....    BMI.W    0x1c7e6 ; get_raw_dcu_mask + 550
        0x0001c62e:    ea5f528c    _..R    LSLS     r2,r12,#22
        0x0001c632:    f10080ee    ....    BMI.W    0x1c812 ; get_raw_dcu_mask + 594
        0x0001c636:    ea5f524c    _.LR    LSLS     r2,r12,#21
        0x0001c63a:    f1008100    ....    BMI.W    0x1c83e ; get_raw_dcu_mask + 638
        0x0001c63e:    ea5f520c    _..R    LSLS     r2,r12,#20
        0x0001c642:    f1008112    ....    BMI.W    0x1c86a ; get_raw_dcu_mask + 682
        0x0001c646:    ea5f42cc    _..B    LSLS     r2,r12,#19
        0x0001c64a:    f1008124    ..$.    BMI.W    0x1c896 ; get_raw_dcu_mask + 726
        0x0001c64e:    ea5f428c    _..B    LSLS     r2,r12,#18
        0x0001c652:    f1008136    ..6.    BMI.W    0x1c8c2 ; get_raw_dcu_mask + 770
        0x0001c656:    ea5f424c    _.LB    LSLS     r2,r12,#17
        0x0001c65a:    f100814a    ..J.    BMI.W    0x1c8f2 ; get_raw_dcu_mask + 818
        0x0001c65e:    ea5f420c    _..B    LSLS     r2,r12,#16
        0x0001c662:    f100815e    ..^.    BMI.W    0x1c922 ; get_raw_dcu_mask + 866
        0x0001c666:    ea5f32cc    _..2    LSLS     r2,r12,#15
        0x0001c66a:    f1008172    ..r.    BMI.W    0x1c952 ; get_raw_dcu_mask + 914
        0x0001c66e:    ea5f328c    _..2    LSLS     r2,r12,#14
        0x0001c672:    f1008186    ....    BMI.W    0x1c982 ; get_raw_dcu_mask + 962
        0x0001c676:    ea5f324c    _.L2    LSLS     r2,r12,#13
        0x0001c67a:    f100819a    ....    BMI.W    0x1c9b2 ; get_raw_dcu_mask + 1010
        0x0001c67e:    ea5f320c    _..2    LSLS     r2,r12,#12
        0x0001c682:    d513        ..      BPL      0x1c6ac ; get_raw_dcu_mask + 236
        0x0001c684:    f06f0515    o...    MVN      r5,#0x15
        0x0001c688:    f10e0236    ..6.    ADD      r2,lr,#0x36
        0x0001c68c:    2407        .$      MOVS     r4,#7
        0x0001c68e:    eba5050e    ....    SUB      r5,r5,lr
        0x0001c692:    fa24f505    $...    LSR      r5,r4,r5
        0x0001c696:    fa04f202    ....    LSL      r2,r4,r2
        0x0001c69a:    f11e0316    ....    ADDS     r3,lr,#0x16
        0x0001c69e:    bf58        X.      IT       PL
        0x0001c6a0:    fa04f503    ....    LSLPL    r5,r4,r3
        0x0001c6a4:    bf58        X.      IT       PL
        0x0001c6a6:    2200        ."      MOVPL    r2,#0
        0x0001c6a8:    4329        )C      ORRS     r1,r1,r5
        0x0001c6aa:    4310        .C      ORRS     r0,r0,r2
        0x0001c6ac:    ea5f22cc    _.."    LSLS     r2,r12,#11
        0x0001c6b0:    bf58        X.      IT       PL
        0x0001c6b2:    bdb0        ..      POPPL    {r4,r5,r7,pc}
        0x0001c6b4:    f06f0418    o...    MVN      r4,#0x18
        0x0001c6b8:    f10e0239    ..9.    ADD      r2,lr,#0x39
        0x0001c6bc:    2507        .%      MOVS     r5,#7
        0x0001c6be:    eba4040e    ....    SUB      r4,r4,lr
        0x0001c6c2:    fa25f404    %...    LSR      r4,r5,r4
        0x0001c6c6:    fa05f202    ....    LSL      r2,r5,r2
        0x0001c6ca:    f11e0319    ....    ADDS     r3,lr,#0x19
        0x0001c6ce:    bf58        X.      IT       PL
        0x0001c6d0:    fa05f403    ....    LSLPL    r4,r5,r3
        0x0001c6d4:    bf58        X.      IT       PL
        0x0001c6d6:    2200        ."      MOVPL    r2,#0
        0x0001c6d8:    4321        !C      ORRS     r1,r1,r4
        0x0001c6da:    4310        .C      ORRS     r0,r0,r2
        0x0001c6dc:    bdb0        ..      POP      {r4,r5,r7,pc}
        0x0001c6de:    bf00        ..      NOP      
        0x0001c6e0:    f1ce051d    ....    RSB      r5,lr,#0x1d
        0x0001c6e4:    f10e0303    ....    ADD      r3,lr,#3
        0x0001c6e8:    fa22f505    "...    LSR      r5,r2,r5
        0x0001c6ec:    f1be041d    ....    SUBS     r4,lr,#0x1d
        0x0001c6f0:    bf58        X.      IT       PL
        0x0001c6f2:    fa02f504    ....    LSLPL    r5,r2,r4
        0x0001c6f6:    fa02f203    ....    LSL      r2,r2,r3
        0x0001c6fa:    bf58        X.      IT       PL
        0x0001c6fc:    2200        ."      MOVPL    r2,#0
        0x0001c6fe:    4329        )C      ORRS     r1,r1,r5
        0x0001c700:    4310        .C      ORRS     r0,r0,r2
        0x0001c702:    ea5f720c    _..r    LSLS     r2,r12,#28
        0x0001c706:    f57faf7e    ..~.    BPL      0x1c606 ; get_raw_dcu_mask + 70
        0x0001c70a:    f10e0206    ....    ADD      r2,lr,#6
        0x0001c70e:    2407        .$      MOVS     r4,#7
        0x0001c710:    f1ce051a    ....    RSB      r5,lr,#0x1a
        0x0001c714:    fa24f505    $...    LSR      r5,r4,r5
        0x0001c718:    fa04f202    ....    LSL      r2,r4,r2
        0x0001c71c:    f1be031a    ....    SUBS     r3,lr,#0x1a
        0x0001c720:    bf58        X.      IT       PL
        0x0001c722:    fa04f503    ....    LSLPL    r5,r4,r3
        0x0001c726:    bf58        X.      IT       PL
        0x0001c728:    2200        ."      MOVPL    r2,#0
        0x0001c72a:    4329        )C      ORRS     r1,r1,r5
        0x0001c72c:    4310        .C      ORRS     r0,r0,r2
        0x0001c72e:    ea5f62cc    _..b    LSLS     r2,r12,#27
        0x0001c732:    f57faf6c    ..l.    BPL      0x1c60e ; get_raw_dcu_mask + 78
        0x0001c736:    f10e0209    ....    ADD      r2,lr,#9
        0x0001c73a:    2407        .$      MOVS     r4,#7
        0x0001c73c:    f1ce0517    ....    RSB      r5,lr,#0x17
        0x0001c740:    fa24f505    $...    LSR      r5,r4,r5
        0x0001c744:    fa04f202    ....    LSL      r2,r4,r2
        0x0001c748:    f1be0317    ....    SUBS     r3,lr,#0x17
        0x0001c74c:    bf58        X.      IT       PL
        0x0001c74e:    fa04f503    ....    LSLPL    r5,r4,r3
        0x0001c752:    bf58        X.      IT       PL
        0x0001c754:    2200        ."      MOVPL    r2,#0
        0x0001c756:    4329        )C      ORRS     r1,r1,r5
        0x0001c758:    4310        .C      ORRS     r0,r0,r2
        0x0001c75a:    ea5f628c    _..b    LSLS     r2,r12,#26
        0x0001c75e:    f57faf5a    ..Z.    BPL      0x1c616 ; get_raw_dcu_mask + 86
        0x0001c762:    f10e020c    ....    ADD      r2,lr,#0xc
        0x0001c766:    2407        .$      MOVS     r4,#7
        0x0001c768:    f1ce0514    ....    RSB      r5,lr,#0x14
        0x0001c76c:    fa24f505    $...    LSR      r5,r4,r5
        0x0001c770:    fa04f202    ....    LSL      r2,r4,r2
        0x0001c774:    f1be0314    ....    SUBS     r3,lr,#0x14
        0x0001c778:    bf58        X.      IT       PL
        0x0001c77a:    fa04f503    ....    LSLPL    r5,r4,r3
        0x0001c77e:    bf58        X.      IT       PL
        0x0001c780:    2200        ."      MOVPL    r2,#0
        0x0001c782:    4329        )C      ORRS     r1,r1,r5
        0x0001c784:    4310        .C      ORRS     r0,r0,r2
        0x0001c786:    ea5f624c    _.Lb    LSLS     r2,r12,#25
        0x0001c78a:    f57faf48    ..H.    BPL      0x1c61e ; get_raw_dcu_mask + 94
        0x0001c78e:    f10e020f    ....    ADD      r2,lr,#0xf
        0x0001c792:    2407        .$      MOVS     r4,#7
        0x0001c794:    f1ce0511    ....    RSB      r5,lr,#0x11
        0x0001c798:    fa24f505    $...    LSR      r5,r4,r5
        0x0001c79c:    fa04f202    ....    LSL      r2,r4,r2
        0x0001c7a0:    f1be0311    ....    SUBS     r3,lr,#0x11
        0x0001c7a4:    bf58        X.      IT       PL
        0x0001c7a6:    fa04f503    ....    LSLPL    r5,r4,r3
        0x0001c7aa:    bf58        X.      IT       PL
        0x0001c7ac:    2200        ."      MOVPL    r2,#0
        0x0001c7ae:    4329        )C      ORRS     r1,r1,r5
        0x0001c7b0:    4310        .C      ORRS     r0,r0,r2
        0x0001c7b2:    ea5f620c    _..b    LSLS     r2,r12,#24
        0x0001c7b6:    f57faf36    ..6.    BPL      0x1c626 ; get_raw_dcu_mask + 102
        0x0001c7ba:    f10e0212    ....    ADD      r2,lr,#0x12
        0x0001c7be:    2407        .$      MOVS     r4,#7
        0x0001c7c0:    f1ce050e    ....    RSB      r5,lr,#0xe
        0x0001c7c4:    fa24f505    $...    LSR      r5,r4,r5
        0x0001c7c8:    fa04f202    ....    LSL      r2,r4,r2
        0x0001c7cc:    f1be030e    ....    SUBS     r3,lr,#0xe
        0x0001c7d0:    bf58        X.      IT       PL
        0x0001c7d2:    fa04f503    ....    LSLPL    r5,r4,r3
        0x0001c7d6:    bf58        X.      IT       PL
        0x0001c7d8:    2200        ."      MOVPL    r2,#0
        0x0001c7da:    4329        )C      ORRS     r1,r1,r5
        0x0001c7dc:    4310        .C      ORRS     r0,r0,r2
        0x0001c7de:    ea5f52cc    _..R    LSLS     r2,r12,#23
        0x0001c7e2:    f57faf24    ..$.    BPL      0x1c62e ; get_raw_dcu_mask + 110
        0x0001c7e6:    f10e0215    ....    ADD      r2,lr,#0x15
        0x0001c7ea:    2407        .$      MOVS     r4,#7
        0x0001c7ec:    f1ce050b    ....    RSB      r5,lr,#0xb
        0x0001c7f0:    fa24f505    $...    LSR      r5,r4,r5
        0x0001c7f4:    fa04f202    ....    LSL      r2,r4,r2
        0x0001c7f8:    f1be030b    ....    SUBS     r3,lr,#0xb
        0x0001c7fc:    bf58        X.      IT       PL
        0x0001c7fe:    fa04f503    ....    LSLPL    r5,r4,r3
        0x0001c802:    bf58        X.      IT       PL
        0x0001c804:    2200        ."      MOVPL    r2,#0
        0x0001c806:    4329        )C      ORRS     r1,r1,r5
        0x0001c808:    4310        .C      ORRS     r0,r0,r2
        0x0001c80a:    ea5f528c    _..R    LSLS     r2,r12,#22
        0x0001c80e:    f57faf12    ....    BPL      0x1c636 ; get_raw_dcu_mask + 118
        0x0001c812:    f10e0218    ....    ADD      r2,lr,#0x18
        0x0001c816:    2407        .$      MOVS     r4,#7
        0x0001c818:    f1ce0508    ....    RSB      r5,lr,#8
        0x0001c81c:    fa24f505    $...    LSR      r5,r4,r5
        0x0001c820:    fa04f202    ....    LSL      r2,r4,r2
        0x0001c824:    f1be0308    ....    SUBS     r3,lr,#8
        0x0001c828:    bf58        X.      IT       PL
        0x0001c82a:    fa04f503    ....    LSLPL    r5,r4,r3
        0x0001c82e:    bf58        X.      IT       PL
        0x0001c830:    2200        ."      MOVPL    r2,#0
        0x0001c832:    4329        )C      ORRS     r1,r1,r5
        0x0001c834:    4310        .C      ORRS     r0,r0,r2
        0x0001c836:    ea5f524c    _.LR    LSLS     r2,r12,#21
        0x0001c83a:    f57faf00    ....    BPL      0x1c63e ; get_raw_dcu_mask + 126
        0x0001c83e:    f10e021b    ....    ADD      r2,lr,#0x1b
        0x0001c842:    2407        .$      MOVS     r4,#7
        0x0001c844:    f1ce0505    ....    RSB      r5,lr,#5
        0x0001c848:    fa24f505    $...    LSR      r5,r4,r5
        0x0001c84c:    fa04f202    ....    LSL      r2,r4,r2
        0x0001c850:    f1be0305    ....    SUBS     r3,lr,#5
        0x0001c854:    bf58        X.      IT       PL
        0x0001c856:    fa04f503    ....    LSLPL    r5,r4,r3
        0x0001c85a:    bf58        X.      IT       PL
        0x0001c85c:    2200        ."      MOVPL    r2,#0
        0x0001c85e:    4329        )C      ORRS     r1,r1,r5
        0x0001c860:    4310        .C      ORRS     r0,r0,r2
        0x0001c862:    ea5f520c    _..R    LSLS     r2,r12,#20
        0x0001c866:    f57faeee    ....    BPL      0x1c646 ; get_raw_dcu_mask + 134
        0x0001c86a:    f10e021e    ....    ADD      r2,lr,#0x1e
        0x0001c86e:    2407        .$      MOVS     r4,#7
        0x0001c870:    f1ce0502    ....    RSB      r5,lr,#2
        0x0001c874:    fa24f505    $...    LSR      r5,r4,r5
        0x0001c878:    fa04f202    ....    LSL      r2,r4,r2
        0x0001c87c:    f1be0302    ....    SUBS     r3,lr,#2
        0x0001c880:    bf58        X.      IT       PL
        0x0001c882:    fa04f503    ....    LSLPL    r5,r4,r3
        0x0001c886:    bf58        X.      IT       PL
        0x0001c888:    2200        ."      MOVPL    r2,#0
        0x0001c88a:    4329        )C      ORRS     r1,r1,r5
        0x0001c88c:    4310        .C      ORRS     r0,r0,r2
        0x0001c88e:    ea5f42cc    _..B    LSLS     r2,r12,#19
        0x0001c892:    f57faedc    ....    BPL      0x1c64e ; get_raw_dcu_mask + 142
        0x0001c896:    f10e0221    ..!.    ADD      r2,lr,#0x21
        0x0001c89a:    2407        .$      MOVS     r4,#7
        0x0001c89c:    ea6f050e    o...    MVN      r5,lr
        0x0001c8a0:    fa24f505    $...    LSR      r5,r4,r5
        0x0001c8a4:    fa04f202    ....    LSL      r2,r4,r2
        0x0001c8a8:    f11e0301    ....    ADDS     r3,lr,#1
        0x0001c8ac:    bf58        X.      IT       PL
        0x0001c8ae:    fa04f503    ....    LSLPL    r5,r4,r3
        0x0001c8b2:    bf58        X.      IT       PL
        0x0001c8b4:    2200        ."      MOVPL    r2,#0
        0x0001c8b6:    4329        )C      ORRS     r1,r1,r5
        0x0001c8b8:    4310        .C      ORRS     r0,r0,r2
        0x0001c8ba:    ea5f428c    _..B    LSLS     r2,r12,#18
        0x0001c8be:    f57faeca    ....    BPL      0x1c656 ; get_raw_dcu_mask + 150
        0x0001c8c2:    f06f0503    o...    MVN      r5,#3
        0x0001c8c6:    f10e0224    ..$.    ADD      r2,lr,#0x24
        0x0001c8ca:    2407        .$      MOVS     r4,#7
        0x0001c8cc:    eba5050e    ....    SUB      r5,r5,lr
        0x0001c8d0:    fa24f505    $...    LSR      r5,r4,r5
        0x0001c8d4:    fa04f202    ....    LSL      r2,r4,r2
        0x0001c8d8:    f11e0304    ....    ADDS     r3,lr,#4
        0x0001c8dc:    bf58        X.      IT       PL
        0x0001c8de:    fa04f503    ....    LSLPL    r5,r4,r3
        0x0001c8e2:    bf58        X.      IT       PL
        0x0001c8e4:    2200        ."      MOVPL    r2,#0
        0x0001c8e6:    4329        )C      ORRS     r1,r1,r5
        0x0001c8e8:    4310        .C      ORRS     r0,r0,r2
        0x0001c8ea:    ea5f424c    _.LB    LSLS     r2,r12,#17
        0x0001c8ee:    f57faeb6    ....    BPL      0x1c65e ; get_raw_dcu_mask + 158
        0x0001c8f2:    f06f0506    o...    MVN      r5,#6
        0x0001c8f6:    f10e0227    ..'.    ADD      r2,lr,#0x27
        0x0001c8fa:    2407        .$      MOVS     r4,#7
        0x0001c8fc:    eba5050e    ....    SUB      r5,r5,lr
        0x0001c900:    fa24f505    $...    LSR      r5,r4,r5
        0x0001c904:    fa04f202    ....    LSL      r2,r4,r2
        0x0001c908:    f11e0307    ....    ADDS     r3,lr,#7
        0x0001c90c:    bf58        X.      IT       PL
        0x0001c90e:    fa04f503    ....    LSLPL    r5,r4,r3
        0x0001c912:    bf58        X.      IT       PL
        0x0001c914:    2200        ."      MOVPL    r2,#0
        0x0001c916:    4329        )C      ORRS     r1,r1,r5
        0x0001c918:    4310        .C      ORRS     r0,r0,r2
        0x0001c91a:    ea5f420c    _..B    LSLS     r2,r12,#16
        0x0001c91e:    f57faea2    ....    BPL      0x1c666 ; get_raw_dcu_mask + 166
        0x0001c922:    f06f0509    o...    MVN      r5,#9
        0x0001c926:    f10e022a    ..*.    ADD      r2,lr,#0x2a
        0x0001c92a:    2407        .$      MOVS     r4,#7
        0x0001c92c:    eba5050e    ....    SUB      r5,r5,lr
        0x0001c930:    fa24f505    $...    LSR      r5,r4,r5
        0x0001c934:    fa04f202    ....    LSL      r2,r4,r2
        0x0001c938:    f11e030a    ....    ADDS     r3,lr,#0xa
        0x0001c93c:    bf58        X.      IT       PL
        0x0001c93e:    fa04f503    ....    LSLPL    r5,r4,r3
        0x0001c942:    bf58        X.      IT       PL
        0x0001c944:    2200        ."      MOVPL    r2,#0
        0x0001c946:    4329        )C      ORRS     r1,r1,r5
        0x0001c948:    4310        .C      ORRS     r0,r0,r2
        0x0001c94a:    ea5f32cc    _..2    LSLS     r2,r12,#15
        0x0001c94e:    f57fae8e    ....    BPL      0x1c66e ; get_raw_dcu_mask + 174
        0x0001c952:    f06f050c    o...    MVN      r5,#0xc
        0x0001c956:    f10e022d    ..-.    ADD      r2,lr,#0x2d
        0x0001c95a:    2407        .$      MOVS     r4,#7
        0x0001c95c:    eba5050e    ....    SUB      r5,r5,lr
        0x0001c960:    fa24f505    $...    LSR      r5,r4,r5
        0x0001c964:    fa04f202    ....    LSL      r2,r4,r2
        0x0001c968:    f11e030d    ....    ADDS     r3,lr,#0xd
        0x0001c96c:    bf58        X.      IT       PL
        0x0001c96e:    fa04f503    ....    LSLPL    r5,r4,r3
        0x0001c972:    bf58        X.      IT       PL
        0x0001c974:    2200        ."      MOVPL    r2,#0
        0x0001c976:    4329        )C      ORRS     r1,r1,r5
        0x0001c978:    4310        .C      ORRS     r0,r0,r2
        0x0001c97a:    ea5f328c    _..2    LSLS     r2,r12,#14
        0x0001c97e:    f57fae7a    ..z.    BPL      0x1c676 ; get_raw_dcu_mask + 182
        0x0001c982:    f06f050f    o...    MVN      r5,#0xf
        0x0001c986:    f10e0230    ..0.    ADD      r2,lr,#0x30
        0x0001c98a:    2407        .$      MOVS     r4,#7
        0x0001c98c:    eba5050e    ....    SUB      r5,r5,lr
        0x0001c990:    fa24f505    $...    LSR      r5,r4,r5
        0x0001c994:    fa04f202    ....    LSL      r2,r4,r2
        0x0001c998:    f11e0310    ....    ADDS     r3,lr,#0x10
        0x0001c99c:    bf58        X.      IT       PL
        0x0001c99e:    fa04f503    ....    LSLPL    r5,r4,r3
        0x0001c9a2:    bf58        X.      IT       PL
        0x0001c9a4:    2200        ."      MOVPL    r2,#0
        0x0001c9a6:    4329        )C      ORRS     r1,r1,r5
        0x0001c9a8:    4310        .C      ORRS     r0,r0,r2
        0x0001c9aa:    ea5f324c    _.L2    LSLS     r2,r12,#13
        0x0001c9ae:    f57fae66    ..f.    BPL      0x1c67e ; get_raw_dcu_mask + 190
        0x0001c9b2:    f06f0512    o...    MVN      r5,#0x12
        0x0001c9b6:    f10e0233    ..3.    ADD      r2,lr,#0x33
        0x0001c9ba:    2407        .$      MOVS     r4,#7
        0x0001c9bc:    eba5050e    ....    SUB      r5,r5,lr
        0x0001c9c0:    fa24f505    $...    LSR      r5,r4,r5
        0x0001c9c4:    fa04f202    ....    LSL      r2,r4,r2
        0x0001c9c8:    f11e0313    ....    ADDS     r3,lr,#0x13
        0x0001c9cc:    bf58        X.      IT       PL
        0x0001c9ce:    fa04f503    ....    LSLPL    r5,r4,r3
        0x0001c9d2:    bf58        X.      IT       PL
        0x0001c9d4:    2200        ."      MOVPL    r2,#0
        0x0001c9d6:    4329        )C      ORRS     r1,r1,r5
        0x0001c9d8:    4310        .C      ORRS     r0,r0,r2
        0x0001c9da:    ea5f320c    _..2    LSLS     r2,r12,#12
        0x0001c9de:    f57fae65    ..e.    BPL      0x1c6ac ; get_raw_dcu_mask + 236
        0x0001c9e2:    e64f        O.      B        0x1c684 ; get_raw_dcu_mask + 196
    get_ui32_dcu_mask
        0x0001c9e4:    f24023a4    @..#    MOVW     r3,#0x2a4
        0x0001c9e8:    f2c10300    ....    MOVT     r3,#0x1000
        0x0001c9ec:    f8d3c000    ....    LDR      r12,[r3,#0]
        0x0001c9f0:    f1cc0320    .. .    RSB      r3,r12,#0x20
        0x0001c9f4:    fa20f00c     ...    LSR      r0,r0,r12
        0x0001c9f8:    fa01f303    ....    LSL      r3,r1,r3
        0x0001c9fc:    4303        .C      ORRS     r3,r3,r0
        0x0001c9fe:    f1bc0020    .. .    SUBS     r0,r12,#0x20
        0x0001ca02:    bf58        X.      IT       PL
        0x0001ca04:    fa21f300    !...    LSRPL    r3,r1,r0
        0x0001ca08:    f0030007    ....    AND      r0,r3,#7
        0x0001ca0c:    ea800002    ....    EOR      r0,r0,r2
        0x0001ca10:    fa21fc0c    !...    LSR      r12,r1,r12
        0x0001ca14:    fab0f080    ....    CLZ      r0,r0
        0x0001ca18:    f3c301c2    ....    UBFX     r1,r3,#3,#3
        0x0001ca1c:    bf58        X.      IT       PL
        0x0001ca1e:    f04f0c00    O...    MOVPL    r12,#0
        0x0001ca22:    0940        @.      LSRS     r0,r0,#5
        0x0001ca24:    4051        Q@      EORS     r1,r1,r2
        0x0001ca26:    f3c31182    ....    UBFX     r1,r3,#6,#3
        0x0001ca2a:    bf08        ..      IT       EQ
        0x0001ca2c:    3002        .0      ADDEQ    r0,#2
        0x0001ca2e:    4051        Q@      EORS     r1,r1,r2
        0x0001ca30:    f3c32142    ..B!    UBFX     r1,r3,#9,#3
        0x0001ca34:    bf08        ..      IT       EQ
        0x0001ca36:    3004        .0      ADDEQ    r0,#4
        0x0001ca38:    4051        Q@      EORS     r1,r1,r2
        0x0001ca3a:    f3c33102    ...1    UBFX     r1,r3,#12,#3
        0x0001ca3e:    bf08        ..      IT       EQ
        0x0001ca40:    3008        .0      ADDEQ    r0,r0,#8
        0x0001ca42:    4051        Q@      EORS     r1,r1,r2
        0x0001ca44:    f3c331c2    ...1    UBFX     r1,r3,#15,#3
        0x0001ca48:    bf08        ..      IT       EQ
        0x0001ca4a:    f0400010    @...    ORREQ    r0,r0,#0x10
        0x0001ca4e:    4051        Q@      EORS     r1,r1,r2
        0x0001ca50:    f3c34182    ...A    UBFX     r1,r3,#18,#3
        0x0001ca54:    bf08        ..      IT       EQ
        0x0001ca56:    f0400020    @. .    ORREQ    r0,r0,#0x20
        0x0001ca5a:    4051        Q@      EORS     r1,r1,r2
        0x0001ca5c:    f3c35142    ..BQ    UBFX     r1,r3,#21,#3
        0x0001ca60:    bf08        ..      IT       EQ
        0x0001ca62:    f0400040    @.@.    ORREQ    r0,r0,#0x40
        0x0001ca66:    4051        Q@      EORS     r1,r1,r2
        0x0001ca68:    f3c36102    ...a    UBFX     r1,r3,#24,#3
        0x0001ca6c:    bf08        ..      IT       EQ
        0x0001ca6e:    f0400080    @...    ORREQ    r0,r0,#0x80
        0x0001ca72:    4051        Q@      EORS     r1,r1,r2
        0x0001ca74:    f3c361c2    ...a    UBFX     r1,r3,#27,#3
        0x0001ca78:    bf08        ..      IT       EQ
        0x0001ca7a:    f4407080    @..p    ORREQ    r0,r0,#0x100
        0x0001ca7e:    4051        Q@      EORS     r1,r1,r2
        0x0001ca80:    ea4f7193    O..q    LSR      r1,r3,#30
        0x0001ca84:    ea41018c    A...    ORR      r1,r1,r12,LSL #2
        0x0001ca88:    bf08        ..      IT       EQ
        0x0001ca8a:    f4407000    @..p    ORREQ    r0,r0,#0x200
        0x0001ca8e:    f0010107    ....    AND      r1,r1,#7
        0x0001ca92:    4051        Q@      EORS     r1,r1,r2
        0x0001ca94:    bf08        ..      IT       EQ
        0x0001ca96:    f4406080    @..`    ORREQ    r0,r0,#0x400
        0x0001ca9a:    f3cc0142    ..B.    UBFX     r1,r12,#1,#3
        0x0001ca9e:    4051        Q@      EORS     r1,r1,r2
        0x0001caa0:    bf08        ..      IT       EQ
        0x0001caa2:    f4406000    @..`    ORREQ    r0,r0,#0x800
        0x0001caa6:    f3cc1102    ....    UBFX     r1,r12,#4,#3
        0x0001caaa:    4051        Q@      EORS     r1,r1,r2
        0x0001caac:    bf08        ..      IT       EQ
        0x0001caae:    f4405080    @..P    ORREQ    r0,r0,#0x1000
        0x0001cab2:    f3cc11c2    ....    UBFX     r1,r12,#7,#3
        0x0001cab6:    4051        Q@      EORS     r1,r1,r2
        0x0001cab8:    bf08        ..      IT       EQ
        0x0001caba:    f4405000    @..P    ORREQ    r0,r0,#0x2000
        0x0001cabe:    f3cc2182    ...!    UBFX     r1,r12,#10,#3
        0x0001cac2:    4051        Q@      EORS     r1,r1,r2
        0x0001cac4:    bf08        ..      IT       EQ
        0x0001cac6:    f4404080    @..@    ORREQ    r0,r0,#0x4000
        0x0001caca:    f3cc3142    ..B1    UBFX     r1,r12,#13,#3
        0x0001cace:    4051        Q@      EORS     r1,r1,r2
        0x0001cad0:    bf08        ..      IT       EQ
        0x0001cad2:    f4404000    @..@    ORREQ    r0,r0,#0x8000
        0x0001cad6:    f3cc4102    ...A    UBFX     r1,r12,#16,#3
        0x0001cada:    4051        Q@      EORS     r1,r1,r2
        0x0001cadc:    bf08        ..      IT       EQ
        0x0001cade:    f4403080    @..0    ORREQ    r0,r0,#0x10000
        0x0001cae2:    f3cc41c2    ...A    UBFX     r1,r12,#19,#3
        0x0001cae6:    4051        Q@      EORS     r1,r1,r2
        0x0001cae8:    bf08        ..      IT       EQ
        0x0001caea:    f4403000    @..0    ORREQ    r0,r0,#0x20000
        0x0001caee:    f3cc5182    ...Q    UBFX     r1,r12,#22,#3
        0x0001caf2:    4051        Q@      EORS     r1,r1,r2
        0x0001caf4:    bf08        ..      IT       EQ
        0x0001caf6:    f4402080    @..     ORREQ    r0,r0,#0x40000
        0x0001cafa:    f3cc6142    ..Ba    UBFX     r1,r12,#25,#3
        0x0001cafe:    4051        Q@      EORS     r1,r1,r2
        0x0001cb00:    bf08        ..      IT       EQ
        0x0001cb02:    f4402000    @..     ORREQ    r0,r0,#0x80000
        0x0001cb06:    4770        pG      BX       lr
    internal_timer_config
        0x0001cb08:    b580        ..      PUSH     {r7,lr}
        0x0001cb0a:    220c        ."      MOVS     r2,#0xc
        0x0001cb0c:    f2c40202    ....    MOVT     r2,#0x4002
        0x0001cb10:    6813        .h      LDR      r3,[r2,#0]
        0x0001cb12:    b2db        ..      UXTB     r3,r3
        0x0001cb14:    2b21        !+      CMP      r3,#0x21
        0x0001cb16:    d139        9.      BNE      0x1cb8c ; internal_timer_config + 132
        0x0001cb18:    780a        .x      LDRB     r2,[r1,#0]
        0x0001cb1a:    f891e001    ....    LDRB     lr,[r1,#1]
        0x0001cb1e:    78cb        .x      LDRB     r3,[r1,#3]
        0x0001cb20:    0212        ..      LSLS     r2,r2,#8
        0x0001cb22:    f891c002    ....    LDRB     r12,[r1,#2]
        0x0001cb26:    f36e1207    n...    BFI      r2,lr,#4,#4
        0x0001cb2a:    f003031f    ....    AND      r3,r3,#0x1f
        0x0001cb2e:    ea420ec3    B...    ORR      lr,r2,r3,LSL #3
        0x0001cb32:    790a        .y      LDRB     r2,[r1,#4]
        0x0001cb34:    f00c033f    ..?.    AND      r3,r12,#0x3f
        0x0001cb38:    ea4e0c83    N...    ORR      r12,lr,r3,LSL #2
        0x0001cb3c:    f0020203    ....    AND      r2,r2,#3
        0x0001cb40:    688b        .h      LDR      r3,[r1,#8]
        0x0001cb42:    ea4c4202    L..B    ORR      r2,r12,r2,LSL #16
        0x0001cb46:    ea426c03    B..l    ORR      r12,r2,r3,LSL #24
        0x0001cb4a:    f2480200    H...    MOVW     r2,#0x8000
        0x0001cb4e:    f2c40200    ....    MOVT     r2,#0x4000
        0x0001cb52:    eb021040    ..@.    ADD      r0,r2,r0,LSL #5
        0x0001cb56:    794b        Ky      LDRB     r3,[r1,#5]
        0x0001cb58:    f8d02200    ..."    LDR      r2,[r0,#0x200]
        0x0001cb5c:    021b        ..      LSLS     r3,r3,#8
        0x0001cb5e:    f0220201    "...    BIC      r2,r2,#1
        0x0001cb62:    f8c02200    ..."    STR      r2,[r0,#0x200]
        0x0001cb66:    f8c0c200    ....    STR      r12,[r0,#0x200]
        0x0001cb6a:    f8c03210    ...2    STR      r3,[r0,#0x210]
        0x0001cb6e:    68ca        .h      LDR      r2,[r1,#0xc]
        0x0001cb70:    f8c02208    ..."    STR      r2,[r0,#0x208]
        0x0001cb74:    6909        .i      LDR      r1,[r1,#0x10]
        0x0001cb76:    f8c0120c    ....    STR      r1,[r0,#0x20c]
        0x0001cb7a:    f8d01200    ....    LDR      r1,[r0,#0x200]
        0x0001cb7e:    f0410102    A...    ORR      r1,r1,#2
        0x0001cb82:    f8c01200    ....    STR      r1,[r0,#0x200]
        0x0001cb86:    2000        .       MOVS     r0,#0
        0x0001cb88:    bd80        ..      POP      {r7,pc}
        0x0001cb8a:    bf00        ..      NOP      
        0x0001cb8c:    6812        .h      LDR      r2,[r2,#0]
        0x0001cb8e:    f00202fe    ....    AND      r2,r2,#0xfe
        0x0001cb92:    2a22        "*      CMP      r2,#0x22
        0x0001cb94:    bf3c        <.      ITT      CC
        0x0001cb96:    2001        .       MOVCC    r0,#1
        0x0001cb98:    bd80        ..      POPCC    {r7,pc}
        0x0001cb9a:    280f        .(      CMP      r0,#0xf
        0x0001cb9c:    d810        ..      BHI      0x1cbc0 ; internal_timer_config + 184
        0x0001cb9e:    2201        ."      MOVS     r2,#1
        0x0001cba0:    4082        .@      LSLS     r2,r2,r0
        0x0001cba2:    f64d430a    M..C    MOV      r3,#0xdc0a
        0x0001cba6:    421a        .B      TST      r2,r3
        0x0001cba8:    bf1c        ..      ITT      NE
        0x0001cbaa:    2006        .       MOVNE    r0,#6
        0x0001cbac:    bd80        ..      POPNE    {r7,pc}
        0x0001cbae:    f24233a0    B..3    MOV      r3,#0x23a0
        0x0001cbb2:    421a        .B      TST      r2,r3
        0x0001cbb4:    d004        ..      BEQ      0x1cbc0 ; internal_timer_config + 184
        0x0001cbb6:    790a        .y      LDRB     r2,[r1,#4]
        0x0001cbb8:    2a00        .*      CMP      r2,#0
        0x0001cbba:    bf1c        ..      ITT      NE
        0x0001cbbc:    2007        .       MOVNE    r0,#7
        0x0001cbbe:    bd80        ..      POPNE    {r7,pc}
        0x0001cbc0:    e8bd4080    ...@    POP      {r7,lr}
        0x0001cbc4:    f000bd3e    ..>.    B.W      timer_config_b1 ; 0x1d644
    main
        0x0001cbc8:    b570        p.      PUSH     {r4-r6,lr}
        0x0001cbca:    b0c4        ..      SUB      sp,sp,#0x110
        0x0001cbcc:    2000        .       MOVS     r0,#0
        0x0001cbce:    9043        C.      STR      r0,[sp,#0x10c]
        0x0001cbd0:    f64d2042    M.B     MOV      r0,#0xda42
        0x0001cbd4:    f2c00001    ....    MOVT     r0,#1
        0x0001cbd8:    f7fbfedc    ....    BL       am_hal_cachectrl_config ; 0x18994
        0x0001cbdc:    f7fbfefc    ....    BL       am_hal_cachectrl_enable ; 0x189d8
        0x0001cbe0:    f7fbfe60    ..`.    BL       am_bsp_low_power_init ; 0x188a4
        0x0001cbe4:    f7fbfe0a    ....    BL       am_bsp_debug_printf_enable ; 0x187fc
        0x0001cbe8:    b110        ..      CBZ      r0,0x1cbf0 ; main + 40
        0x0001cbea:    e7ff        ..      B        0x1cbec ; main + 36
        0x0001cbec:    e7ff        ..      B        0x1cbee ; main + 38
        0x0001cbee:    e7fe        ..      B        0x1cbee ; main + 38
        0x0001cbf0:    f7fefe32    ..2.    BL       am_util_stdio_terminal_clear ; 0x1b858
        0x0001cbf4:    f64d50f4    M..P    MOV      r0,#0xddf4
        0x0001cbf8:    f2c00001    ....    MOVT     r0,#1
        0x0001cbfc:    f7fefdde    ....    BL       am_util_stdio_printf ; 0x1b7bc
        0x0001cc00:    a82c        ,.      ADD      r0,sp,#0xb0
        0x0001cc02:    f7fefd6d    ..m.    BL       am_util_id_device ; 0x1b6e0
        0x0001cc06:    993e        >.      LDR      r1,[sp,#0xf8]
        0x0001cc08:    f24e1032    N.2.    MOV      r0,#0xe132
        0x0001cc0c:    f2c00001    ....    MOVT     r0,#1
        0x0001cc10:    f7fefdd4    ....    BL       am_util_stdio_printf ; 0x1b7bc
        0x0001cc14:    993f        ?.      LDR      r1,[sp,#0xfc]
        0x0001cc16:    f24e1044    N.D.    MOV      r0,#0xe144
        0x0001cc1a:    f2c00001    ....    MOVT     r0,#1
        0x0001cc1e:    f7fefdcd    ....    BL       am_util_stdio_printf ; 0x1b7bc
        0x0001cc22:    9841        A.      LDR      r0,[sp,#0x104]
        0x0001cc24:    b140        @.      CBZ      r0,0x1cc38 ; main + 112
        0x0001cc26:    e7ff        ..      B        0x1cc28 ; main + 96
        0x0001cc28:    9941        A.      LDR      r1,[sp,#0x104]
        0x0001cc2a:    f24e101e    N...    MOV      r0,#0xe11e
        0x0001cc2e:    f2c00001    ....    MOVT     r0,#1
        0x0001cc32:    f7fefdc3    ....    BL       am_util_stdio_printf ; 0x1b7bc
        0x0001cc36:    e7ff        ..      B        0x1cc38 ; main + 112
        0x0001cc38:    9942        B.      LDR      r1,[sp,#0x108]
        0x0001cc3a:    f24e00e0    N...    MOV      r0,#0xe0e0
        0x0001cc3e:    f2c00001    ....    MOVT     r0,#1
        0x0001cc42:    f7fefdbb    ....    BL       am_util_stdio_printf ; 0x1b7bc
        0x0001cc46:    992c        ,.      LDR      r1,[sp,#0xb0]
        0x0001cc48:    9a2d        -.      LDR      r2,[sp,#0xb4]
        0x0001cc4a:    9b2e        ..      LDR      r3,[sp,#0xb8]
        0x0001cc4c:    982f        /.      LDR      r0,[sp,#0xbc]
        0x0001cc4e:    f89de100    ....    LDRB     lr,[sp,#0x100]
        0x0001cc52:    f89d4101    ...A    LDRB     r4,[sp,#0x101]
        0x0001cc56:    46ec        .F      MOV      r12,sp
        0x0001cc58:    f8cc4008    ...@    STR      r4,[r12,#8]
        0x0001cc5c:    f8cce004    ....    STR      lr,[r12,#4]
        0x0001cc60:    f8cc0000    ....    STR      r0,[r12,#0]
        0x0001cc64:    f64d6003    M..`    MOV      r0,#0xde03
        0x0001cc68:    f2c00001    ....    MOVT     r0,#1
        0x0001cc6c:    f7fefda6    ....    BL       am_util_stdio_printf ; 0x1b7bc
        0x0001cc70:    9836        6.      LDR      r0,[sp,#0xd8]
        0x0001cc72:    f36f209f    o..     BFC      r0,#10,#22
        0x0001cc76:    2800        .(      CMP      r0,#0
        0x0001cc78:    bf18        ..      IT       NE
        0x0001cc7a:    202b        +       MOVNE    r0,#0x2b
        0x0001cc7c:    902b        +.      STR      r0,[sp,#0xac]
        0x0001cc7e:    9936        6.      LDR      r1,[sp,#0xd8]
        0x0001cc80:    0a8a        ..      LSRS     r2,r1,#10
        0x0001cc82:    f64d6073    M.s`    MOV      r0,#0xde73
        0x0001cc86:    f2c00001    ....    MOVT     r0,#1
        0x0001cc8a:    ab2b        +.      ADD      r3,sp,#0xac
        0x0001cc8c:    930b        ..      STR      r3,[sp,#0x2c]
        0x0001cc8e:    f7fefd95    ....    BL       am_util_stdio_printf ; 0x1b7bc
        0x0001cc92:    9b0b        ..      LDR      r3,[sp,#0x2c]
        0x0001cc94:    9834        4.      LDR      r0,[sp,#0xd0]
        0x0001cc96:    f36f209f    o..     BFC      r0,#10,#22
        0x0001cc9a:    2800        .(      CMP      r0,#0
        0x0001cc9c:    bf18        ..      IT       NE
        0x0001cc9e:    202b        +       MOVNE    r0,#0x2b
        0x0001cca0:    902b        +.      STR      r0,[sp,#0xac]
        0x0001cca2:    9934        4.      LDR      r1,[sp,#0xd0]
        0x0001cca4:    0a8a        ..      LSRS     r2,r1,#10
        0x0001cca6:    f64d6090    M..`    MOV      r0,#0xde90
        0x0001ccaa:    f2c00001    ....    MOVT     r0,#1
        0x0001ccae:    f7fefd85    ....    BL       am_util_stdio_printf ; 0x1b7bc
        0x0001ccb2:    9b0b        ..      LDR      r3,[sp,#0x2c]
        0x0001ccb4:    9835        5.      LDR      r0,[sp,#0xd4]
        0x0001ccb6:    f36f209f    o..     BFC      r0,#10,#22
        0x0001ccba:    2800        .(      CMP      r0,#0
        0x0001ccbc:    bf18        ..      IT       NE
        0x0001ccbe:    202b        +       MOVNE    r0,#0x2b
        0x0001ccc0:    902b        +.      STR      r0,[sp,#0xac]
        0x0001ccc2:    9935        5.      LDR      r1,[sp,#0xd4]
        0x0001ccc4:    0a8a        ..      LSRS     r2,r1,#10
        0x0001ccc6:    f64d60ad    M..`    MOV      r0,#0xdead
        0x0001ccca:    f2c00001    ....    MOVT     r0,#1
        0x0001ccce:    f7fefd75    ..u.    BL       am_util_stdio_printf ; 0x1b7bc
        0x0001ccd2:    f24041c4    @..A    MOV      r1,#0x4c4
        0x0001ccd6:    2201        ."      MOVS     r2,#1
        0x0001ccd8:    ab1f        ..      ADD      r3,sp,#0x7c
        0x0001ccda:    4610        .F      MOV      r0,r2
        0x0001ccdc:    f7fcfe04    ....    BL       am_hal_mram_info_read ; 0x198e8
        0x0001cce0:    9020         .      STR      r0,[sp,#0x80]
        0x0001cce2:    9820         .      LDR      r0,[sp,#0x80]
        0x0001cce4:    b960        `.      CBNZ     r0,0x1cd00 ; main + 312
        0x0001cce6:    e7ff        ..      B        0x1cce8 ; main + 288
        0x0001cce8:    981f        ..      LDR      r0,[sp,#0x7c]
        0x0001ccea:    3001        .0      ADDS     r0,#1
        0x0001ccec:    b140        @.      CBZ      r0,0x1cd00 ; main + 312
        0x0001ccee:    e7ff        ..      B        0x1ccf0 ; main + 296
        0x0001ccf0:    991f        ..      LDR      r1,[sp,#0x7c]
        0x0001ccf2:    f24e0093    N...    MOV      r0,#0xe093
        0x0001ccf6:    f2c00001    ....    MOVT     r0,#1
        0x0001ccfa:    f7fefd5f    .._.    BL       am_util_stdio_printf ; 0x1b7bc
        0x0001ccfe:    e006        ..      B        0x1cd0e ; main + 326
        0x0001cd00:    f24e00a6    N...    MOV      r0,#0xe0a6
        0x0001cd04:    f2c00001    ....    MOVT     r0,#1
        0x0001cd08:    f7fefd58    ..X.    BL       am_util_stdio_printf ; 0x1b7bc
        0x0001cd0c:    e7ff        ..      B        0x1cd0e ; main + 326
        0x0001cd0e:    f24e1009    N...    MOV      r0,#0xe109
        0x0001cd12:    f2c00001    ....    MOVT     r0,#1
        0x0001cd16:    f24e2147    N.G!    MOV      r1,#0xe247
        0x0001cd1a:    f2c00101    ....    MOVT     r1,#1
        0x0001cd1e:    f7fefd4d    ..M.    BL       am_util_stdio_printf ; 0x1b7bc
        0x0001cd22:    f24e00f4    N...    MOV      r0,#0xe0f4
        0x0001cd26:    f2c00001    ....    MOVT     r0,#1
        0x0001cd2a:    f64d51bf    M..Q    MOV      r1,#0xddbf
        0x0001cd2e:    f2c00101    ....    MOVT     r1,#1
        0x0001cd32:    f7fefd43    ..C.    BL       am_util_stdio_printf ; 0x1b7bc
        0x0001cd36:    f64d50ac    M..P    MOV      r0,#0xddac
        0x0001cd3a:    f2c00001    ....    MOVT     r0,#1
        0x0001cd3e:    900a        ..      STR      r0,[sp,#0x28]
        0x0001cd40:    7843        Cx      LDRB     r3,[r0,#1]
        0x0001cd42:    7882        .x      LDRB     r2,[r0,#2]
        0x0001cd44:    78c1        .x      LDRB     r1,[r0,#3]
        0x0001cd46:    f24e0078    N.x.    MOV      r0,#0xe078
        0x0001cd4a:    f2c00001    ....    MOVT     r0,#1
        0x0001cd4e:    f7fefd35    ..5.    BL       am_util_stdio_printf ; 0x1b7bc
        0x0001cd52:    980a        ..      LDR      r0,[sp,#0x28]
        0x0001cd54:    7803        .x      LDRB     r3,[r0,#0]
        0x0001cd56:    f24e2059    N.Y     MOV      r0,#0xe259
        0x0001cd5a:    f2c00001    ....    MOVT     r0,#1
        0x0001cd5e:    f24e2166    N.f!    MOV      r1,#0xe266
        0x0001cd62:    f2c00101    ....    MOVT     r1,#1
        0x0001cd66:    2200        ."      MOVS     r2,#0
        0x0001cd68:    ebb21fd3    ....    CMP      r2,r3,LSR #7
        0x0001cd6c:    bf18        ..      IT       NE
        0x0001cd6e:    4601        .F      MOVNE    r1,r0
        0x0001cd70:    f24e1088    N...    MOV      r0,#0xe188
        0x0001cd74:    f2c00001    ....    MOVT     r0,#1
        0x0001cd78:    f7fefd20    .. .    BL       am_util_stdio_printf ; 0x1b7bc
        0x0001cd7c:    f24e2045    N.E     MOV      r0,#0xe245
        0x0001cd80:    f2c00001    ....    MOVT     r0,#1
        0x0001cd84:    f7fefd1a    ....    BL       am_util_stdio_printf ; 0x1b7bc
        0x0001cd88:    f64d60e5    M..`    MOV      r0,#0xdee5
        0x0001cd8c:    f2c00001    ....    MOVT     r0,#1
        0x0001cd90:    f7fefd14    ....    BL       am_util_stdio_printf ; 0x1b7bc
        0x0001cd94:    f64d60ca    M..`    MOV      r0,#0xdeca
        0x0001cd98:    f2c00001    ....    MOVT     r0,#1
        0x0001cd9c:    f7fefd0e    ....    BL       am_util_stdio_printf ; 0x1b7bc
        0x0001cda0:    a827        '.      ADD      r0,sp,#0x9c
        0x0001cda2:    f7fdfc63    ..c.    BL       am_hal_reset_status_get ; 0x1a66c
        0x0001cda6:    f8bd109c    ....    LDRH     r1,[sp,#0x9c]
        0x0001cdaa:    f64d703f    M.?p    MOV      r0,#0xdf3f
        0x0001cdae:    f2c00001    ....    MOVT     r0,#1
        0x0001cdb2:    f7fefd03    ....    BL       am_util_stdio_printf ; 0x1b7bc
        0x0001cdb6:    a821        !.      ADD      r0,sp,#0x84
        0x0001cdb8:    f7fdfcb4    ....    BL       am_hal_security_get_info ; 0x1a724
        0x0001cdbc:    9020         .      STR      r0,[sp,#0x80]
        0x0001cdbe:    9820         .      LDR      r0,[sp,#0x80]
        0x0001cdc0:    2800        .(      CMP      r0,#0
        0x0001cdc2:    d169        i.      BNE      0x1ce98 ; main + 720
        0x0001cdc4:    e7ff        ..      B        0x1cdc6 ; main + 510
        0x0001cdc6:    f89d0084    ....    LDRB     r0,[sp,#0x84]
        0x0001cdca:    07c0        ..      LSLS     r0,r0,#31
        0x0001cdcc:    b148        H.      CBZ      r0,0x1cde2 ; main + 538
        0x0001cdce:    e7ff        ..      B        0x1cdd0 ; main + 520
        0x0001cdd0:    9a23        #.      LDR      r2,[sp,#0x8c]
        0x0001cdd2:    f24e216c    N.l!    MOV      r1,#0xe26c
        0x0001cdd6:    f2c00101    ....    MOVT     r1,#1
        0x0001cdda:    a817        ..      ADD      r0,sp,#0x5c
        0x0001cddc:    f7fefd26    ..&.    BL       am_util_stdio_sprintf ; 0x1b82c
        0x0001cde0:    e007        ..      B        0x1cdf2 ; main + 554
        0x0001cde2:    f24e218c    N..!    MOV      r1,#0xe28c
        0x0001cde6:    f2c00101    ....    MOVT     r1,#1
        0x0001cdea:    a817        ..      ADD      r0,sp,#0x5c
        0x0001cdec:    f7fefd1e    ....    BL       am_util_stdio_sprintf ; 0x1b82c
        0x0001cdf0:    e7ff        ..      B        0x1cdf2 ; main + 554
        0x0001cdf2:    9924        $.      LDR      r1,[sp,#0x90]
        0x0001cdf4:    9a25        %.      LDR      r2,[sp,#0x94]
        0x0001cdf6:    f24e1056    N.V.    MOV      r0,#0xe156
        0x0001cdfa:    f2c00001    ....    MOVT     r0,#1
        0x0001cdfe:    ab17        ..      ADD      r3,sp,#0x5c
        0x0001ce00:    f7fefcdc    ....    BL       am_util_stdio_printf ; 0x1b7bc
        0x0001ce04:    f89d0085    ....    LDRB     r0,[sp,#0x85]
        0x0001ce08:    9016        ..      STR      r0,[sp,#0x58]
        0x0001ce0a:    9922        ".      LDR      r1,[sp,#0x88]
        0x0001ce0c:    f24e10ed    N...    MOV      r0,#0xe1ed
        0x0001ce10:    f2c00001    ....    MOVT     r0,#1
        0x0001ce14:    f7fefcd2    ....    BL       am_util_stdio_printf ; 0x1b7bc
        0x0001ce18:    9816        ..      LDR      r0,[sp,#0x58]
        0x0001ce1a:    b930        0.      CBNZ     r0,0x1ce2a ; main + 610
        0x0001ce1c:    e7ff        ..      B        0x1ce1e ; main + 598
        0x0001ce1e:    f24e2060    N.`     MOV      r0,#0xe260
        0x0001ce22:    f2c00001    ....    MOVT     r0,#1
        0x0001ce26:    9009        ..      STR      r0,[sp,#0x24]
        0x0001ce28:    e027        '.      B        0x1ce7a ; main + 690
        0x0001ce2a:    9816        ..      LDR      r0,[sp,#0x58]
        0x0001ce2c:    2801        .(      CMP      r0,#1
        0x0001ce2e:    d106        ..      BNE      0x1ce3e ; main + 630
        0x0001ce30:    e7ff        ..      B        0x1ce32 ; main + 618
        0x0001ce32:    f24e2063    N.c     MOV      r0,#0xe263
        0x0001ce36:    f2c00001    ....    MOVT     r0,#1
        0x0001ce3a:    9008        ..      STR      r0,[sp,#0x20]
        0x0001ce3c:    e01a        ..      B        0x1ce74 ; main + 684
        0x0001ce3e:    9816        ..      LDR      r0,[sp,#0x58]
        0x0001ce40:    2805        .(      CMP      r0,#5
        0x0001ce42:    d106        ..      BNE      0x1ce52 ; main + 650
        0x0001ce44:    e7ff        ..      B        0x1ce46 ; main + 638
        0x0001ce46:    f24e209a    N..     MOV      r0,#0xe29a
        0x0001ce4a:    f2c00001    ....    MOVT     r0,#1
        0x0001ce4e:    9007        ..      STR      r0,[sp,#0x1c]
        0x0001ce50:    e00d        ..      B        0x1ce6e ; main + 678
        0x0001ce52:    9a16        ..      LDR      r2,[sp,#0x58]
        0x0001ce54:    f24e2155    N.U!    MOV      r1,#0xe255
        0x0001ce58:    f2c00101    ....    MOVT     r1,#1
        0x0001ce5c:    f24e2082    N..     MOV      r0,#0xe282
        0x0001ce60:    f2c00001    ....    MOVT     r0,#1
        0x0001ce64:    2a07        .*      CMP      r2,#7
        0x0001ce66:    bf08        ..      IT       EQ
        0x0001ce68:    4608        .F      MOVEQ    r0,r1
        0x0001ce6a:    9007        ..      STR      r0,[sp,#0x1c]
        0x0001ce6c:    e7ff        ..      B        0x1ce6e ; main + 678
        0x0001ce6e:    9807        ..      LDR      r0,[sp,#0x1c]
        0x0001ce70:    9008        ..      STR      r0,[sp,#0x20]
        0x0001ce72:    e7ff        ..      B        0x1ce74 ; main + 684
        0x0001ce74:    9808        ..      LDR      r0,[sp,#0x20]
        0x0001ce76:    9009        ..      STR      r0,[sp,#0x24]
        0x0001ce78:    e7ff        ..      B        0x1ce7a ; main + 690
        0x0001ce7a:    9909        ..      LDR      r1,[sp,#0x24]
        0x0001ce7c:    f24e1078    N.x.    MOV      r0,#0xe178
        0x0001ce80:    f2c00001    ....    MOVT     r0,#1
        0x0001ce84:    f7fefc9a    ....    BL       am_util_stdio_printf ; 0x1b7bc
        0x0001ce88:    9926        &.      LDR      r1,[sp,#0x98]
        0x0001ce8a:    f24e10d1    N...    MOV      r0,#0xe1d1
        0x0001ce8e:    f2c00001    ....    MOVT     r0,#1
        0x0001ce92:    f7fefc93    ....    BL       am_util_stdio_printf ; 0x1b7bc
        0x0001ce96:    e007        ..      B        0x1cea8 ; main + 736
        0x0001ce98:    9920         .      LDR      r1,[sp,#0x80]
        0x0001ce9a:    f64d7056    M.Vp    MOV      r0,#0xdf56
        0x0001ce9e:    f2c00001    ....    MOVT     r0,#1
        0x0001cea2:    f7fefc8b    ....    BL       am_util_stdio_printf ; 0x1b7bc
        0x0001cea6:    e7ff        ..      B        0x1cea8 ; main + 736
        0x0001cea8:    a80c        ..      ADD      r0,sp,#0x30
        0x0001ceaa:    f7fcf8ef    ....    BL       am_hal_dcu_get ; 0x1908c
        0x0001ceae:    a80e        ..      ADD      r0,sp,#0x38
        0x0001ceb0:    f7fdfc94    ....    BL       am_hal_security_get_socid ; 0x1a7dc
        0x0001ceb4:    990e        ..      LDR      r1,[sp,#0x38]
        0x0001ceb6:    9a0f        ..      LDR      r2,[sp,#0x3c]
        0x0001ceb8:    9b10        ..      LDR      r3,[sp,#0x40]
        0x0001ceba:    9811        ..      LDR      r0,[sp,#0x44]
        0x0001cebc:    f8dde048    ..H.    LDR      lr,[sp,#0x48]
        0x0001cec0:    9c13        ..      LDR      r4,[sp,#0x4c]
        0x0001cec2:    9d14        ..      LDR      r5,[sp,#0x50]
        0x0001cec4:    9e15        ..      LDR      r6,[sp,#0x54]
        0x0001cec6:    46ec        .F      MOV      r12,sp
        0x0001cec8:    f8cc6010    ...`    STR      r6,[r12,#0x10]
        0x0001cecc:    f8cc500c    ...P    STR      r5,[r12,#0xc]
        0x0001ced0:    f8cc4008    ...@    STR      r4,[r12,#8]
        0x0001ced4:    f8cce004    ....    STR      lr,[r12,#4]
        0x0001ced8:    f8cc0000    ....    STR      r0,[r12,#0]
        0x0001cedc:    f64d707c    M.|p    MOV      r0,#0xdf7c
        0x0001cee0:    f2c00001    ....    MOVT     r0,#1
        0x0001cee4:    f7fefc6a    ..j.    BL       am_util_stdio_printf ; 0x1b7bc
        0x0001cee8:    f89d0084    ....    LDRB     r0,[sp,#0x84]
        0x0001ceec:    07c0        ..      LSLS     r0,r0,#31
        0x0001ceee:    b138        8.      CBZ      r0,0x1cf00 ; main + 824
        0x0001cef0:    e7ff        ..      B        0x1cef2 ; main + 810
        0x0001cef2:    2000        .       MOVS     r0,#0
        0x0001cef4:    2116        .!      MOVS     r1,#0x16
        0x0001cef6:    2201        ."      MOVS     r2,#1
        0x0001cef8:    ab0d        ..      ADD      r3,sp,#0x34
        0x0001cefa:    f7fcfcf5    ....    BL       am_hal_mram_info_read ; 0x198e8
        0x0001cefe:    e007        ..      B        0x1cf10 ; main + 840
        0x0001cf00:    f2404194    @..A    MOV      r1,#0x494
        0x0001cf04:    2201        ."      MOVS     r2,#1
        0x0001cf06:    ab0d        ..      ADD      r3,sp,#0x34
        0x0001cf08:    4610        .F      MOV      r0,r2
        0x0001cf0a:    f7fcfced    ....    BL       am_hal_mram_info_read ; 0x198e8
        0x0001cf0e:    e7ff        ..      B        0x1cf10 ; main + 840
        0x0001cf10:    990d        ..      LDR      r1,[sp,#0x34]
        0x0001cf12:    f24e0034    N.4.    MOV      r0,#0xe034
        0x0001cf16:    f2c00001    ....    MOVT     r0,#1
        0x0001cf1a:    f7fefc4f    ..O.    BL       am_util_stdio_printf ; 0x1b7bc
        0x0001cf1e:    f2404197    @..A    MOV      r1,#0x497
        0x0001cf22:    2201        ."      MOVS     r2,#1
        0x0001cf24:    9206        ..      STR      r2,[sp,#0x18]
        0x0001cf26:    ab0d        ..      ADD      r3,sp,#0x34
        0x0001cf28:    4610        .F      MOV      r0,r2
        0x0001cf2a:    f7fcfcdd    ....    BL       am_hal_mram_info_read ; 0x198e8
        0x0001cf2e:    990d        ..      LDR      r1,[sp,#0x34]
        0x0001cf30:    f24e005f    N._.    MOV      r0,#0xe05f
        0x0001cf34:    f2c00001    ....    MOVT     r0,#1
        0x0001cf38:    f7fefc40    ..@.    BL       am_util_stdio_printf ; 0x1b7bc
        0x0001cf3c:    f24e2045    N.E     MOV      r0,#0xe245
        0x0001cf40:    f2c00001    ....    MOVT     r0,#1
        0x0001cf44:    f7fefc3a    ..:.    BL       am_util_stdio_printf ; 0x1b7bc
        0x0001cf48:    9806        ..      LDR      r0,[sp,#0x18]
        0x0001cf4a:    f6400106    @...    MOV      r1,#0x806
        0x0001cf4e:    f7fcf8dd    ....    BL       am_hal_dcu_update ; 0x1910c
        0x0001cf52:    b138        8.      CBZ      r0,0x1cf64 ; main + 924
        0x0001cf54:    e7ff        ..      B        0x1cf56 ; main + 910
        0x0001cf56:    f64d60f4    M..`    MOV      r0,#0xdef4
        0x0001cf5a:    f2c00001    ....    MOVT     r0,#1
        0x0001cf5e:    f7fefc2d    ..-.    BL       am_util_stdio_printf ; 0x1b7bc
        0x0001cf62:    e006        ..      B        0x1cf72 ; main + 938
        0x0001cf64:    f64d7019    M..p    MOV      r0,#0xdf19
        0x0001cf68:    f2c00001    ....    MOVT     r0,#1
        0x0001cf6c:    f7fefc26    ..&.    BL       am_util_stdio_printf ; 0x1b7bc
        0x0001cf70:    e7ff        ..      B        0x1cf72 ; main + 938
        0x0001cf72:    2120         !      MOVS     r1,#0x20
        0x0001cf74:    f2c40102    ....    MOVT     r1,#0x4002
        0x0001cf78:    2000        .       MOVS     r0,#0
        0x0001cf7a:    6008        .`      STR      r0,[r1,#0]
        0x0001cf7c:    f2410008    A...    MOV      r0,#0x1008
        0x0001cf80:    f2c40002    ....    MOVT     r0,#0x4002
        0x0001cf84:    6800        .h      LDR      r0,[r0,#0]
        0x0001cf86:    0d00        ..      LSRS     r0,r0,#20
        0x0001cf88:    07c0        ..      LSLS     r0,r0,#31
        0x0001cf8a:    2800        .(      CMP      r0,#0
        0x0001cf8c:    d072        r.      BEQ      0x1d074 ; main + 1196
        0x0001cf8e:    e7ff        ..      B        0x1cf90 ; main + 968
        0x0001cf90:    f640207c    @.|     MOV      r0,#0xa7c
        0x0001cf94:    f2c4000c    ....    MOVT     r0,#0x400c
        0x0001cf98:    6800        .h      LDR      r0,[r0,#0]
        0x0001cf9a:    07c0        ..      LSLS     r0,r0,#31
        0x0001cf9c:    2800        .(      CMP      r0,#0
        0x0001cf9e:    d069        i.      BEQ      0x1d074 ; main + 1196
        0x0001cfa0:    e7ff        ..      B        0x1cfa2 ; main + 986
        0x0001cfa2:    f64d60d9    M..`    MOV      r0,#0xded9
        0x0001cfa6:    f2c00001    ....    MOVT     r0,#1
        0x0001cfaa:    f7fefc07    ....    BL       am_util_stdio_printf ; 0x1b7bc
        0x0001cfae:    f64d60cd    M..`    MOV      r0,#0xdecd
        0x0001cfb2:    f2c00001    ....    MOVT     r0,#1
        0x0001cfb6:    f7fefc01    ....    BL       am_util_stdio_printf ; 0x1b7bc
        0x0001cfba:    990c        ..      LDR      r1,[sp,#0x30]
        0x0001cfbc:    f24e2004    N..     MOV      r0,#0xe204
        0x0001cfc0:    f2c00001    ....    MOVT     r0,#1
        0x0001cfc4:    f7fefbfa    ....    BL       am_util_stdio_printf ; 0x1b7bc
        0x0001cfc8:    a80c        ..      ADD      r0,sp,#0x30
        0x0001cfca:    9005        ..      STR      r0,[sp,#0x14]
        0x0001cfcc:    f7fcf85e    ..^.    BL       am_hal_dcu_get ; 0x1908c
        0x0001cfd0:    990c        ..      LDR      r1,[sp,#0x30]
        0x0001cfd2:    f24e2027    N.'     MOV      r0,#0xe227
        0x0001cfd6:    f2c00001    ....    MOVT     r0,#1
        0x0001cfda:    f7fefbef    ....    BL       am_util_stdio_printf ; 0x1b7bc
        0x0001cfde:    9805        ..      LDR      r0,[sp,#0x14]
        0x0001cfe0:    f7fcf874    ..t.    BL       am_hal_dcu_lock_status_get ; 0x190cc
        0x0001cfe4:    990c        ..      LDR      r1,[sp,#0x30]
        0x0001cfe6:    f24e10ae    N...    MOV      r0,#0xe1ae
        0x0001cfea:    f2c00001    ....    MOVT     r0,#1
        0x0001cfee:    f7fefbe5    ....    BL       am_util_stdio_printf ; 0x1b7bc
        0x0001cff2:    f6416000    A..`    MOVW     r0,#0x1e00
        0x0001cff6:    f2c4000c    ....    MOVT     r0,#0x400c
        0x0001cffa:    6801        .h      LDR      r1,[r0,#0]
        0x0001cffc:    f6416004    A..`    MOV      r0,#0x1e04
        0x0001d000:    f2c4000c    ....    MOVT     r0,#0x400c
        0x0001d004:    6802        .h      LDR      r2,[r0,#0]
        0x0001d006:    f6416008    A..`    MOV      r0,#0x1e08
        0x0001d00a:    f2c4000c    ....    MOVT     r0,#0x400c
        0x0001d00e:    6803        .h      LDR      r3,[r0,#0]
        0x0001d010:    f641600c    A..`    MOV      r0,#0x1e0c
        0x0001d014:    f2c4000c    ....    MOVT     r0,#0x400c
        0x0001d018:    6800        .h      LDR      r0,[r0,#0]
        0x0001d01a:    46ec        .F      MOV      r12,sp
        0x0001d01c:    f8cc0000    ....    STR      r0,[r12,#0]
        0x0001d020:    f24e0000    N...    MOVW     r0,#0xe000
        0x0001d024:    f2c00001    ....    MOVT     r0,#1
        0x0001d028:    f7fefbc8    ....    BL       am_util_stdio_printf ; 0x1b7bc
        0x0001d02c:    f6416010    A..`    MOV      r0,#0x1e10
        0x0001d030:    f2c4000c    ....    MOVT     r0,#0x400c
        0x0001d034:    6801        .h      LDR      r1,[r0,#0]
        0x0001d036:    f6416014    A..`    MOV      r0,#0x1e14
        0x0001d03a:    f2c4000c    ....    MOVT     r0,#0x400c
        0x0001d03e:    6802        .h      LDR      r2,[r0,#0]
        0x0001d040:    f6416018    A..`    MOV      r0,#0x1e18
        0x0001d044:    f2c4000c    ....    MOVT     r0,#0x400c
        0x0001d048:    6803        .h      LDR      r3,[r0,#0]
        0x0001d04a:    f641601c    A..`    MOV      r0,#0x1e1c
        0x0001d04e:    f2c4000c    ....    MOVT     r0,#0x400c
        0x0001d052:    6800        .h      LDR      r0,[r0,#0]
        0x0001d054:    46ec        .F      MOV      r12,sp
        0x0001d056:    f8cc0000    ....    STR      r0,[r12,#0]
        0x0001d05a:    f64d70cc    M..p    MOV      r0,#0xdfcc
        0x0001d05e:    f2c00001    ....    MOVT     r0,#1
        0x0001d062:    f7fefbab    ....    BL       am_util_stdio_printf ; 0x1b7bc
        0x0001d066:    f24e2045    N.E     MOV      r0,#0xe245
        0x0001d06a:    f2c00001    ....    MOVT     r0,#1
        0x0001d06e:    f7fefba5    ....    BL       am_util_stdio_printf ; 0x1b7bc
        0x0001d072:    e7ff        ..      B        0x1d074 ; main + 1196
        0x0001d074:    f24e00b9    N...    MOV      r0,#0xe0b9
        0x0001d078:    f2c00001    ....    MOVT     r0,#1
        0x0001d07c:    f7fefb9e    ....    BL       am_util_stdio_printf ; 0x1b7bc
        0x0001d080:    f7fbfb6e    ..n.    BL       am_bsp_debug_printf_disable ; 0x18760
        0x0001d084:    e7ff        ..      B        0x1d086 ; main + 1214
        0x0001d086:    2001        .       MOVS     r0,#1
        0x0001d088:    f7fdfbb0    ....    BL       am_hal_sysctrl_sleep ; 0x1a7ec
        0x0001d08c:    e7fb        ..      B        0x1d086 ; main + 1214
        0x0001d08e:    0000        ..      MOVS     r0,r0
    memldo_vddf_parallel_set
        0x0001d090:    b5f0        ..      PUSH     {r4-r7,lr}
        0x0001d092:    b085        ..      SUB      sp,sp,#0x14
        0x0001d094:    466d        mF      MOV      r5,sp
        0x0001d096:    4604        .F      MOV      r4,r0
        0x0001d098:    2688        .&      MOVS     r6,#0x88
        0x0001d09a:    4628        (F      MOV      r0,r5
        0x0001d09c:    f2c40602    ....    MOVT     r6,#0x4002
        0x0001d0a0:    f7fdfd00    ....    BL       am_hal_timer_default_config_set ; 0x1aaa4
        0x0001d0a4:    f240201d    @..     MOV      r0,#0x21d
        0x0001d0a8:    f8ad0000    ....    STRH     r0,[sp,#0]
        0x0001d0ac:    200d        .       MOVS     r0,#0xd
        0x0001d0ae:    4629        )F      MOV      r1,r5
        0x0001d0b0:    f000fac8    ....    BL       timer_config_b1 ; 0x1d644
        0x0001d0b4:    200d        .       MOVS     r0,#0xd
        0x0001d0b6:    f7fdfd23    ..#.    BL       am_hal_timer_enable ; 0x1ab00
        0x0001d0ba:    200d        .       MOVS     r0,#0xd
        0x0001d0bc:    f7fdff6e    ..n.    BL       am_hal_timer_read ; 0x1af9c
        0x0001d0c0:    4605        .F      MOV      r5,r0
        0x0001d0c2:    4620         F      MOV      r0,r4
        0x0001d0c4:    f7fcf874    ..t.    BL       am_hal_delay_us ; 0x191b0
        0x0001d0c8:    200d        .       MOVS     r0,#0xd
        0x0001d0ca:    f7fdff67    ..g.    BL       am_hal_timer_read ; 0x1af9c
        0x0001d0ce:    f2400718    @...    MOVW     r7,#0x18
        0x0001d0d2:    f2c10700    ....    MOVT     r7,#0x1000
        0x0001d0d6:    4285        .B      CMP      r5,r0
        0x0001d0d8:    d11c        ..      BNE      0x1d114 ; memldo_vddf_parallel_set + 132
        0x0001d0da:    4628        (F      MOV      r0,r5
        0x0001d0dc:    6831        1h      LDR      r1,[r6,#0]
        0x0001d0de:    697a        zi      LDR      r2,[r7,#0x14]
        0x0001d0e0:    3201        .2      ADDS     r2,#1
        0x0001d0e2:    f001023f    ..?.    AND      r2,r1,#0x3f
        0x0001d0e6:    bf08        ..      IT       EQ
        0x0001d0e8:    617a        za      STREQ    r2,[r7,#0x14]
        0x0001d0ea:    2a02        .*      CMP      r2,#2
        0x0001d0ec:    d32e        ..      BCC      0x1d14c ; memldo_vddf_parallel_set + 188
        0x0001d0ee:    4285        .B      CMP      r5,r0
        0x0001d0f0:    d12c        ,.      BNE      0x1d14c ; memldo_vddf_parallel_set + 188
        0x0001d0f2:    6830        0h      LDR      r0,[r6,#0]
        0x0001d0f4:    1e51        Q.      SUBS     r1,r2,#1
        0x0001d0f6:    f020003f     .?.    BIC      r0,r0,#0x3f
        0x0001d0fa:    4308        .C      ORRS     r0,r0,r1
        0x0001d0fc:    6030        0`      STR      r0,[r6,#0]
        0x0001d0fe:    200d        .       MOVS     r0,#0xd
        0x0001d100:    f7fdff4c    ..L.    BL       am_hal_timer_read ; 0x1af9c
        0x0001d104:    4605        .F      MOV      r5,r0
        0x0001d106:    4620         F      MOV      r0,r4
        0x0001d108:    f7fcf852    ..R.    BL       am_hal_delay_us ; 0x191b0
        0x0001d10c:    200d        .       MOVS     r0,#0xd
        0x0001d10e:    f7fdff45    ..E.    BL       am_hal_timer_read ; 0x1af9c
        0x0001d112:    e7e3        ..      B        0x1d0dc ; memldo_vddf_parallel_set + 76
        0x0001d114:    6831        1h      LDR      r1,[r6,#0]
        0x0001d116:    697a        zi      LDR      r2,[r7,#0x14]
        0x0001d118:    3201        .2      ADDS     r2,#1
        0x0001d11a:    f001023f    ..?.    AND      r2,r1,#0x3f
        0x0001d11e:    bf08        ..      IT       EQ
        0x0001d120:    617a        za      STREQ    r2,[r7,#0x14]
        0x0001d122:    2a3f        ?*      CMP      r2,#0x3f
        0x0001d124:    d01a        ..      BEQ      0x1d15c ; memldo_vddf_parallel_set + 204
        0x0001d126:    4285        .B      CMP      r5,r0
        0x0001d128:    d010        ..      BEQ      0x1d14c ; memldo_vddf_parallel_set + 188
        0x0001d12a:    6830        0h      LDR      r0,[r6,#0]
        0x0001d12c:    1c51        Q.      ADDS     r1,r2,#1
        0x0001d12e:    f020003f     .?.    BIC      r0,r0,#0x3f
        0x0001d132:    4308        .C      ORRS     r0,r0,r1
        0x0001d134:    6030        0`      STR      r0,[r6,#0]
        0x0001d136:    200d        .       MOVS     r0,#0xd
        0x0001d138:    f7fdff30    ..0.    BL       am_hal_timer_read ; 0x1af9c
        0x0001d13c:    4605        .F      MOV      r5,r0
        0x0001d13e:    4620         F      MOV      r0,r4
        0x0001d140:    f7fcf836    ..6.    BL       am_hal_delay_us ; 0x191b0
        0x0001d144:    200d        .       MOVS     r0,#0xd
        0x0001d146:    f7fdff29    ..).    BL       am_hal_timer_read ; 0x1af9c
        0x0001d14a:    e7e3        ..      B        0x1d114 ; memldo_vddf_parallel_set + 132
        0x0001d14c:    2a05        .*      CMP      r2,#5
        0x0001d14e:    bf26        &.      ITTE     CS
        0x0001d150:    f101003d    ..=.    ADDCS    r0,r1,#0x3d
        0x0001d154:    f000003f    ..?.    ANDCS    r0,r0,#0x3f
        0x0001d158:    2001        .       MOVCC    r0,#1
        0x0001d15a:    e000        ..      B        0x1d15e ; memldo_vddf_parallel_set + 206
        0x0001d15c:    203c        <       MOVS     r0,#0x3c
        0x0001d15e:    6831        1h      LDR      r1,[r6,#0]
        0x0001d160:    f021013f    !.?.    BIC      r1,r1,#0x3f
        0x0001d164:    4408        .D      ADD      r0,r0,r1
        0x0001d166:    6030        0`      STR      r0,[r6,#0]
        0x0001d168:    200d        .       MOVS     r0,#0xd
        0x0001d16a:    f7fdfc71    ..q.    BL       am_hal_timer_clear_stop ; 0x1aa50
        0x0001d16e:    200d        .       MOVS     r0,#0xd
        0x0001d170:    f7fdfca8    ....    BL       am_hal_timer_disable ; 0x1aac4
        0x0001d174:    200d        .       MOVS     r0,#0xd
        0x0001d176:    f7fdff25    ..%.    BL       am_hal_timer_reset_config ; 0x1afc4
        0x0001d17a:    b005        ..      ADD      sp,sp,#0x14
        0x0001d17c:    bdf0        ..      POP      {r4-r7,pc}
        0x0001d17e:    0000        ..      MOVS     r0,r0
    ndigits_in_hex
        0x0001d180:    b084        ..      SUB      sp,sp,#0x10
        0x0001d182:    9103        ..      STR      r1,[sp,#0xc]
        0x0001d184:    9002        ..      STR      r0,[sp,#8]
        0x0001d186:    9802        ..      LDR      r0,[sp,#8]
        0x0001d188:    9903        ..      LDR      r1,[sp,#0xc]
        0x0001d18a:    4308        .C      ORRS     r0,r0,r1
        0x0001d18c:    fab0f080    ....    CLZ      r0,r0
        0x0001d190:    0940        @.      LSRS     r0,r0,#5
        0x0001d192:    9001        ..      STR      r0,[sp,#4]
        0x0001d194:    e7ff        ..      B        0x1d196 ; ndigits_in_hex + 22
        0x0001d196:    9802        ..      LDR      r0,[sp,#8]
        0x0001d198:    9903        ..      LDR      r1,[sp,#0xc]
        0x0001d19a:    4308        .C      ORRS     r0,r0,r1
        0x0001d19c:    b160        `.      CBZ      r0,0x1d1b8 ; ndigits_in_hex + 56
        0x0001d19e:    e7ff        ..      B        0x1d1a0 ; ndigits_in_hex + 32
        0x0001d1a0:    9802        ..      LDR      r0,[sp,#8]
        0x0001d1a2:    9903        ..      LDR      r1,[sp,#0xc]
        0x0001d1a4:    0900        ..      LSRS     r0,r0,#4
        0x0001d1a6:    ea407001    @..p    ORR      r0,r0,r1,LSL #28
        0x0001d1aa:    0909        ..      LSRS     r1,r1,#4
        0x0001d1ac:    9103        ..      STR      r1,[sp,#0xc]
        0x0001d1ae:    9002        ..      STR      r0,[sp,#8]
        0x0001d1b0:    9801        ..      LDR      r0,[sp,#4]
        0x0001d1b2:    3001        .0      ADDS     r0,#1
        0x0001d1b4:    9001        ..      STR      r0,[sp,#4]
        0x0001d1b6:    e7ee        ..      B        0x1d196 ; ndigits_in_hex + 22
        0x0001d1b8:    9801        ..      LDR      r0,[sp,#4]
        0x0001d1ba:    b004        ..      ADD      sp,sp,#0x10
        0x0001d1bc:    4770        pG      BX       lr
        0x0001d1be:    0000        ..      MOVS     r0,r0
    ndigits_in_i64
        0x0001d1c0:    b580        ..      PUSH     {r7,lr}
        0x0001d1c2:    b082        ..      SUB      sp,sp,#8
        0x0001d1c4:    9101        ..      STR      r1,[sp,#4]
        0x0001d1c6:    9000        ..      STR      r0,[sp,#0]
        0x0001d1c8:    9801        ..      LDR      r0,[sp,#4]
        0x0001d1ca:    f1b03fff    ...?    CMP      r0,#0xffffffff
        0x0001d1ce:    dc09        ..      BGT      0x1d1e4 ; ndigits_in_i64 + 36
        0x0001d1d0:    e7ff        ..      B        0x1d1d2 ; ndigits_in_i64 + 18
        0x0001d1d2:    9800        ..      LDR      r0,[sp,#0]
        0x0001d1d4:    9a01        ..      LDR      r2,[sp,#4]
        0x0001d1d6:    4241        AB      RSBS     r1,r0,#0
        0x0001d1d8:    f04f0000    O...    MOV      r0,#0
        0x0001d1dc:    4190        .A      SBCS     r0,r0,r2
        0x0001d1de:    9100        ..      STR      r1,[sp,#0]
        0x0001d1e0:    9001        ..      STR      r0,[sp,#4]
        0x0001d1e2:    e7ff        ..      B        0x1d1e4 ; ndigits_in_i64 + 36
        0x0001d1e4:    9800        ..      LDR      r0,[sp,#0]
        0x0001d1e6:    9901        ..      LDR      r1,[sp,#4]
        0x0001d1e8:    f000f802    ....    BL       ndigits_in_u64 ; 0x1d1f0
        0x0001d1ec:    b002        ..      ADD      sp,sp,#8
        0x0001d1ee:    bd80        ..      POP      {r7,pc}
    ndigits_in_u64
        0x0001d1f0:    b580        ..      PUSH     {r7,lr}
        0x0001d1f2:    b084        ..      SUB      sp,sp,#0x10
        0x0001d1f4:    9103        ..      STR      r1,[sp,#0xc]
        0x0001d1f6:    9002        ..      STR      r0,[sp,#8]
        0x0001d1f8:    9802        ..      LDR      r0,[sp,#8]
        0x0001d1fa:    9903        ..      LDR      r1,[sp,#0xc]
        0x0001d1fc:    4308        .C      ORRS     r0,r0,r1
        0x0001d1fe:    fab0f080    ....    CLZ      r0,r0
        0x0001d202:    0940        @.      LSRS     r0,r0,#5
        0x0001d204:    9001        ..      STR      r0,[sp,#4]
        0x0001d206:    e7ff        ..      B        0x1d208 ; ndigits_in_u64 + 24
        0x0001d208:    9802        ..      LDR      r0,[sp,#8]
        0x0001d20a:    9903        ..      LDR      r1,[sp,#0xc]
        0x0001d20c:    4308        .C      ORRS     r0,r0,r1
        0x0001d20e:    b150        P.      CBZ      r0,0x1d226 ; ndigits_in_u64 + 54
        0x0001d210:    e7ff        ..      B        0x1d212 ; ndigits_in_u64 + 34
        0x0001d212:    9802        ..      LDR      r0,[sp,#8]
        0x0001d214:    9903        ..      LDR      r1,[sp,#0xc]
        0x0001d216:    f7fff82f    ../.    BL       divu64_10 ; 0x1c278
        0x0001d21a:    9103        ..      STR      r1,[sp,#0xc]
        0x0001d21c:    9002        ..      STR      r0,[sp,#8]
        0x0001d21e:    9801        ..      LDR      r0,[sp,#4]
        0x0001d220:    3001        .0      ADDS     r0,#1
        0x0001d222:    9001        ..      STR      r0,[sp,#4]
        0x0001d224:    e7f0        ..      B        0x1d208 ; ndigits_in_u64 + 24
        0x0001d226:    9801        ..      LDR      r0,[sp,#4]
        0x0001d228:    b004        ..      ADD      sp,sp,#0x10
        0x0001d22a:    bd80        ..      POP      {r7,pc}
    nonblocking_read
        0x0001d22c:    b5b0        ..      PUSH     {r4,r5,r7,lr}
        0x0001d22e:    b082        ..      SUB      sp,sp,#8
        0x0001d230:    b1f0        ..      CBZ      r0,0x1d270 ; nonblocking_read + 68
        0x0001d232:    4604        .F      MOV      r4,r0
        0x0001d234:    6800        .h      LDR      r0,[r0,#0]
        0x0001d236:    460d        .F      MOV      r5,r1
        0x0001d238:    f6496106    I..a    MOV      r1,#0x9e06
        0x0001d23c:    f020407e     .~@    BIC      r0,r0,#0xfe000000
        0x0001d240:    f2c011ea    ....    MOVT     r1,#0x1ea
        0x0001d244:    4288        .B      CMP      r0,r1
        0x0001d246:    d113        ..      BNE      0x1d270 ; nonblocking_read + 68
        0x0001d248:    68e8        .h      LDR      r0,[r5,#0xc]
        0x0001d24a:    2800        .(      CMP      r0,#0
        0x0001d24c:    bf1c        ..      ITT      NE
        0x0001d24e:    2100        .!      MOVNE    r1,#0
        0x0001d250:    6001        .`      STRNE    r1,[r0,#0]
        0x0001d252:    f7fcf8f3    ....    BL       am_hal_interrupt_master_disable ; 0x1943c
        0x0001d256:    9001        ..      STR      r0,[sp,#4]
        0x0001d258:    f894002c    ..,.    LDRB     r0,[r4,#0x2c]
        0x0001d25c:    b160        `.      CBZ      r0,0x1d278 ; nonblocking_read + 76
        0x0001d25e:    9801        ..      LDR      r0,[sp,#4]
        0x0001d260:    f7fcf8f0    ....    BL       am_hal_interrupt_master_set ; 0x19444
        0x0001d264:    2505        .%      MOVS     r5,#5
        0x0001d266:    f6c00500    ....    MOVT     r5,#0x800
        0x0001d26a:    4628        (F      MOV      r0,r5
        0x0001d26c:    b002        ..      ADD      sp,sp,#8
        0x0001d26e:    bdb0        ..      POP      {r4,r5,r7,pc}
        0x0001d270:    2502        .%      MOVS     r5,#2
        0x0001d272:    4628        (F      MOV      r0,r5
        0x0001d274:    b002        ..      ADD      sp,sp,#8
        0x0001d276:    bdb0        ..      POP      {r4,r5,r7,pc}
        0x0001d278:    2001        .       MOVS     r0,#1
        0x0001d27a:    f884002c    ..,.    STRB     r0,[r4,#0x2c]
        0x0001d27e:    7828        (x      LDRB     r0,[r5,#0]
        0x0001d280:    6869        ih      LDR      r1,[r5,#4]
        0x0001d282:    f8840030    ..0.    STRB     r0,[r4,#0x30]
        0x0001d286:    6361        ac      STR      r1,[r4,#0x34]
        0x0001d288:    e9d50102    ....    LDRD     r0,r1,[r5,#8]
        0x0001d28c:    e9c4010e    ....    STRD     r0,r1,[r4,#0x38]
        0x0001d290:    e9d50104    ....    LDRD     r0,r1,[r5,#0x10]
        0x0001d294:    e9c40110    ....    STRD     r0,r1,[r4,#0x40]
        0x0001d298:    e9d50106    ....    LDRD     r0,r1,[r5,#0x18]
        0x0001d29c:    2500        .%      MOVS     r5,#0
        0x0001d29e:    e9c40112    ....    STRD     r0,r1,[r4,#0x48]
        0x0001d2a2:    6525        %e      STR      r5,[r4,#0x50]
        0x0001d2a4:    9801        ..      LDR      r0,[sp,#4]
        0x0001d2a6:    f7fcf8cd    ....    BL       am_hal_interrupt_master_set ; 0x19444
        0x0001d2aa:    4620         F      MOV      r0,r4
        0x0001d2ac:    f000f804    ....    BL       nonblocking_read_sm ; 0x1d2b8
        0x0001d2b0:    4628        (F      MOV      r0,r5
        0x0001d2b2:    b002        ..      ADD      sp,sp,#8
        0x0001d2b4:    bdb0        ..      POP      {r4,r5,r7,pc}
        0x0001d2b6:    0000        ..      MOVS     r0,r0
    nonblocking_read_sm
        0x0001d2b8:    b5b0        ..      PUSH     {r4,r5,r7,lr}
        0x0001d2ba:    b08a        ..      SUB      sp,sp,#0x28
        0x0001d2bc:    4604        .F      MOV      r4,r0
        0x0001d2be:    f8900098    ....    LDRB     r0,[r0,#0x98]
        0x0001d2c2:    b1f8        ..      CBZ      r0,0x1d304 ; nonblocking_read_sm + 76
        0x0001d2c4:    f7fcf8ba    ....    BL       am_hal_interrupt_master_disable ; 0x1943c
        0x0001d2c8:    9001        ..      STR      r0,[sp,#4]
        0x0001d2ca:    6a60        `j      LDR      r0,[r4,#0x24]
        0x0001d2cc:    f24c0100    L...    MOVW     r1,#0xc000
        0x0001d2d0:    f2c40101    ....    MOVT     r1,#0x4001
        0x0001d2d4:    eb013000    ...0    ADD      r0,r1,r0,LSL #12
        0x0001d2d8:    2200        ."      MOVS     r2,#0
        0x0001d2da:    a902        ..      ADD      r1,sp,#8
        0x0001d2dc:    6983        .i      LDR      r3,[r0,#0x18]
        0x0001d2de:    06db        ..      LSLS     r3,r3,#27
        0x0001d2e0:    d408        ..      BMI      0x1d2f4 ; nonblocking_read_sm + 60
        0x0001d2e2:    6803        .h      LDR      r3,[r0,#0]
        0x0001d2e4:    f4136f70    ..po    TST      r3,#0xf00
        0x0001d2e8:    d109        ..      BNE      0x1d2fe ; nonblocking_read_sm + 70
        0x0001d2ea:    548b        .T      STRB     r3,[r1,r2]
        0x0001d2ec:    3201        .2      ADDS     r2,#1
        0x0001d2ee:    2a20         *      CMP      r2,#0x20
        0x0001d2f0:    d1f4        ..      BNE      0x1d2dc ; nonblocking_read_sm + 36
        0x0001d2f2:    2220         "      MOVS     r2,#0x20
        0x0001d2f4:    f104009c    ....    ADD      r0,r4,#0x9c
        0x0001d2f8:    a902        ..      ADD      r1,sp,#8
        0x0001d2fa:    f7fcffe3    ....    BL       am_hal_queue_item_add ; 0x1a2c4
        0x0001d2fe:    9801        ..      LDR      r0,[sp,#4]
        0x0001d300:    f7fcf8a0    ....    BL       am_hal_interrupt_master_set ; 0x19444
        0x0001d304:    f894002c    ..,.    LDRB     r0,[r4,#0x2c]
        0x0001d308:    2800        .(      CMP      r0,#0
        0x0001d30a:    d053        S.      BEQ      0x1d3b4 ; nonblocking_read_sm + 252
        0x0001d30c:    f7fcf896    ....    BL       am_hal_interrupt_master_disable ; 0x1943c
        0x0001d310:    9002        ..      STR      r0,[sp,#8]
        0x0001d312:    6d20         m      LDR      r0,[r4,#0x50]
        0x0001d314:    f8941098    ....    LDRB     r1,[r4,#0x98]
        0x0001d318:    6ba2        .k      LDR      r2,[r4,#0x38]
        0x0001d31a:    2900        .)      CMP      r1,#0
        0x0001d31c:    6b61        ak      LDR      r1,[r4,#0x34]
        0x0001d31e:    eba20200    ....    SUB      r2,r2,r0
        0x0001d322:    4401        .D      ADD      r1,r1,r0
        0x0001d324:    d018        ..      BEQ      0x1d358 ; nonblocking_read_sm + 160
        0x0001d326:    f8d450a4    ...P    LDR      r5,[r4,#0xa4]
        0x0001d32a:    f104009c    ....    ADD      r0,r4,#0x9c
        0x0001d32e:    42aa        .B      CMP      r2,r5
        0x0001d330:    bf38        8.      IT       CC
        0x0001d332:    4615        .F      MOVCC    r5,r2
        0x0001d334:    462a        *F      MOV      r2,r5
        0x0001d336:    f7fdf8ab    ....    BL       am_hal_queue_item_get ; 0x1a490
        0x0001d33a:    bb30        0.      CBNZ     r0,0x1d38a ; nonblocking_read_sm + 210
        0x0001d33c:    6c62        bl      LDR      r2,[r4,#0x44]
        0x0001d33e:    2000        .       MOVS     r0,#0
        0x0001d340:    f884002c    ..,.    STRB     r0,[r4,#0x2c]
        0x0001d344:    b30a        ..      CBZ      r2,0x1d38a ; nonblocking_read_sm + 210
        0x0001d346:    6ca1        .l      LDR      r1,[r4,#0x48]
        0x0001d348:    2001        .       MOVS     r0,#1
        0x0001d34a:    4790        .G      BLX      r2
        0x0001d34c:    9802        ..      LDR      r0,[sp,#8]
        0x0001d34e:    f7fcf879    ..y.    BL       am_hal_interrupt_master_set ; 0x19444
        0x0001d352:    b00a        ..      ADD      sp,sp,#0x28
        0x0001d354:    bdb0        ..      POP      {r4,r5,r7,pc}
        0x0001d356:    bf00        ..      NOP      
        0x0001d358:    b1b2        ..      CBZ      r2,0x1d388 ; nonblocking_read_sm + 208
        0x0001d35a:    6a60        `j      LDR      r0,[r4,#0x24]
        0x0001d35c:    f24c0300    L...    MOVW     r3,#0xc000
        0x0001d360:    f2c40301    ....    MOVT     r3,#0x4001
        0x0001d364:    eb033000    ...0    ADD      r0,r3,r0,LSL #12
        0x0001d368:    2500        .%      MOVS     r5,#0
        0x0001d36a:    bf00        ..      NOP      
        0x0001d36c:    6983        .i      LDR      r3,[r0,#0x18]
        0x0001d36e:    06db        ..      LSLS     r3,r3,#27
        0x0001d370:    d40b        ..      BMI      0x1d38a ; nonblocking_read_sm + 210
        0x0001d372:    6803        .h      LDR      r3,[r0,#0]
        0x0001d374:    f4136f70    ..po    TST      r3,#0xf00
        0x0001d378:    d107        ..      BNE      0x1d38a ; nonblocking_read_sm + 210
        0x0001d37a:    554b        KU      STRB     r3,[r1,r5]
        0x0001d37c:    3501        .5      ADDS     r5,#1
        0x0001d37e:    42aa        .B      CMP      r2,r5
        0x0001d380:    d1f4        ..      BNE      0x1d36c ; nonblocking_read_sm + 180
        0x0001d382:    4615        .F      MOV      r5,r2
        0x0001d384:    e001        ..      B        0x1d38a ; nonblocking_read_sm + 210
        0x0001d386:    bf00        ..      NOP      
        0x0001d388:    2500        .%      MOVS     r5,#0
        0x0001d38a:    6d20         m      LDR      r0,[r4,#0x50]
        0x0001d38c:    4428        (D      ADD      r0,r0,r5
        0x0001d38e:    6520         e      STR      r0,[r4,#0x50]
        0x0001d390:    9802        ..      LDR      r0,[sp,#8]
        0x0001d392:    f7fcf857    ..W.    BL       am_hal_interrupt_master_set ; 0x19444
        0x0001d396:    6be0        .k      LDR      r0,[r4,#0x3c]
        0x0001d398:    6d21        !m      LDR      r1,[r4,#0x50]
        0x0001d39a:    6001        .`      STR      r1,[r0,#0]
        0x0001d39c:    6ba0        .k      LDR      r0,[r4,#0x38]
        0x0001d39e:    6d21        !m      LDR      r1,[r4,#0x50]
        0x0001d3a0:    4281        .B      CMP      r1,r0
        0x0001d3a2:    d107        ..      BNE      0x1d3b4 ; nonblocking_read_sm + 252
        0x0001d3a4:    6c62        bl      LDR      r2,[r4,#0x44]
        0x0001d3a6:    2000        .       MOVS     r0,#0
        0x0001d3a8:    f884002c    ..,.    STRB     r0,[r4,#0x2c]
        0x0001d3ac:    b112        ..      CBZ      r2,0x1d3b4 ; nonblocking_read_sm + 252
        0x0001d3ae:    6ca1        .l      LDR      r1,[r4,#0x48]
        0x0001d3b0:    2000        .       MOVS     r0,#0
        0x0001d3b2:    4790        .G      BLX      r2
        0x0001d3b4:    b00a        ..      ADD      sp,sp,#0x28
        0x0001d3b6:    bdb0        ..      POP      {r4,r5,r7,pc}
    nonblocking_write
        0x0001d3b8:    b5b0        ..      PUSH     {r4,r5,r7,lr}
        0x0001d3ba:    b082        ..      SUB      sp,sp,#8
        0x0001d3bc:    b1f0        ..      CBZ      r0,0x1d3fc ; nonblocking_write + 68
        0x0001d3be:    4604        .F      MOV      r4,r0
        0x0001d3c0:    6800        .h      LDR      r0,[r0,#0]
        0x0001d3c2:    460d        .F      MOV      r5,r1
        0x0001d3c4:    f6496106    I..a    MOV      r1,#0x9e06
        0x0001d3c8:    f020407e     .~@    BIC      r0,r0,#0xfe000000
        0x0001d3cc:    f2c011ea    ....    MOVT     r1,#0x1ea
        0x0001d3d0:    4288        .B      CMP      r0,r1
        0x0001d3d2:    d113        ..      BNE      0x1d3fc ; nonblocking_write + 68
        0x0001d3d4:    68e8        .h      LDR      r0,[r5,#0xc]
        0x0001d3d6:    2800        .(      CMP      r0,#0
        0x0001d3d8:    bf1c        ..      ITT      NE
        0x0001d3da:    2100        .!      MOVNE    r1,#0
        0x0001d3dc:    6001        .`      STRNE    r1,[r0,#0]
        0x0001d3de:    f7fcf82d    ..-.    BL       am_hal_interrupt_master_disable ; 0x1943c
        0x0001d3e2:    9001        ..      STR      r0,[sp,#4]
        0x0001d3e4:    f8940054    ..T.    LDRB     r0,[r4,#0x54]
        0x0001d3e8:    b160        `.      CBZ      r0,0x1d404 ; nonblocking_write + 76
        0x0001d3ea:    9801        ..      LDR      r0,[sp,#4]
        0x0001d3ec:    f7fcf82a    ..*.    BL       am_hal_interrupt_master_set ; 0x19444
        0x0001d3f0:    2504        .%      MOVS     r5,#4
        0x0001d3f2:    f6c00500    ....    MOVT     r5,#0x800
        0x0001d3f6:    4628        (F      MOV      r0,r5
        0x0001d3f8:    b002        ..      ADD      sp,sp,#8
        0x0001d3fa:    bdb0        ..      POP      {r4,r5,r7,pc}
        0x0001d3fc:    2502        .%      MOVS     r5,#2
        0x0001d3fe:    4628        (F      MOV      r0,r5
        0x0001d400:    b002        ..      ADD      sp,sp,#8
        0x0001d402:    bdb0        ..      POP      {r4,r5,r7,pc}
        0x0001d404:    2001        .       MOVS     r0,#1
        0x0001d406:    f8840054    ..T.    STRB     r0,[r4,#0x54]
        0x0001d40a:    7828        (x      LDRB     r0,[r5,#0]
        0x0001d40c:    6869        ih      LDR      r1,[r5,#4]
        0x0001d40e:    f8840058    ..X.    STRB     r0,[r4,#0x58]
        0x0001d412:    65e1        .e      STR      r1,[r4,#0x5c]
        0x0001d414:    e9d50102    ....    LDRD     r0,r1,[r5,#8]
        0x0001d418:    e9c40118    ....    STRD     r0,r1,[r4,#0x60]
        0x0001d41c:    e9d50104    ....    LDRD     r0,r1,[r5,#0x10]
        0x0001d420:    e9c4011a    ....    STRD     r0,r1,[r4,#0x68]
        0x0001d424:    e9d50106    ....    LDRD     r0,r1,[r5,#0x18]
        0x0001d428:    2500        .%      MOVS     r5,#0
        0x0001d42a:    e9c4011c    ....    STRD     r0,r1,[r4,#0x70]
        0x0001d42e:    67a5        .g      STR      r5,[r4,#0x78]
        0x0001d430:    f88450b4    ...P    STRB     r5,[r4,#0xb4]
        0x0001d434:    9801        ..      LDR      r0,[sp,#4]
        0x0001d436:    f7fcf805    ....    BL       am_hal_interrupt_master_set ; 0x19444
        0x0001d43a:    4620         F      MOV      r0,r4
        0x0001d43c:    f000f804    ....    BL       nonblocking_write_sm ; 0x1d448
        0x0001d440:    4628        (F      MOV      r0,r5
        0x0001d442:    b002        ..      ADD      sp,sp,#8
        0x0001d444:    bdb0        ..      POP      {r4,r5,r7,pc}
        0x0001d446:    0000        ..      MOVS     r0,r0
    nonblocking_write_sm
        0x0001d448:    e92d41f0    -..A    PUSH     {r4-r8,lr}
        0x0001d44c:    b084        ..      SUB      sp,sp,#0x10
        0x0001d44e:    4604        .F      MOV      r4,r0
        0x0001d450:    f8900054    ..T.    LDRB     r0,[r0,#0x54]
        0x0001d454:    2800        .(      CMP      r0,#0
        0x0001d456:    d062        b.      BEQ      0x1d51e ; nonblocking_write_sm + 214
        0x0001d458:    f7fbfff0    ....    BL       am_hal_interrupt_master_disable ; 0x1943c
        0x0001d45c:    9001        ..      STR      r0,[sp,#4]
        0x0001d45e:    6fa3        .o      LDR      r3,[r4,#0x78]
        0x0001d460:    e9d40717    ....    LDRD     r0,r7,[r4,#0x5c]
        0x0001d464:    f894107c    ..|.    LDRB     r1,[r4,#0x7c]
        0x0001d468:    eba70e03    ....    SUB      lr,r7,r3
        0x0001d46c:    2900        .)      CMP      r1,#0
        0x0001d46e:    eb000103    ....    ADD      r1,r0,r3
        0x0001d472:    d01d        ..      BEQ      0x1d4b0 ; nonblocking_write_sm + 104
        0x0001d474:    f8d43088    ...0    LDR      r3,[r4,#0x88]
        0x0001d478:    f8d4708c    ...p    LDR      r7,[r4,#0x8c]
        0x0001d47c:    f1040080    ....    ADD      r0,r4,#0x80
        0x0001d480:    1afd        ..      SUBS     r5,r7,r3
        0x0001d482:    45ae        .E      CMP      lr,r5
        0x0001d484:    bf38        8.      IT       CC
        0x0001d486:    4675        uF      MOVCC    r5,lr
        0x0001d488:    462a        *F      MOV      r2,r5
        0x0001d48a:    f7fcff1b    ....    BL       am_hal_queue_item_add ; 0x1a2c4
        0x0001d48e:    2800        .(      CMP      r0,#0
        0x0001d490:    d13f        ?.      BNE      0x1d512 ; nonblocking_write_sm + 202
        0x0001d492:    6ee2        .n      LDR      r2,[r4,#0x6c]
        0x0001d494:    2000        .       MOVS     r0,#0
        0x0001d496:    f8840054    ..T.    STRB     r0,[r4,#0x54]
        0x0001d49a:    b3d2        ..      CBZ      r2,0x1d512 ; nonblocking_write_sm + 202
        0x0001d49c:    6f21        !o      LDR      r1,[r4,#0x70]
        0x0001d49e:    2001        .       MOVS     r0,#1
        0x0001d4a0:    4790        .G      BLX      r2
        0x0001d4a2:    9801        ..      LDR      r0,[sp,#4]
        0x0001d4a4:    f7fbffce    ....    BL       am_hal_interrupt_master_set ; 0x19444
        0x0001d4a8:    b004        ..      ADD      sp,sp,#0x10
        0x0001d4aa:    e8bd81f0    ....    POP      {r4-r8,pc}
        0x0001d4ae:    bf00        ..      NOP      
        0x0001d4b0:    f1be0f00    ....    CMP      lr,#0
        0x0001d4b4:    d02c        ,.      BEQ      0x1d510 ; nonblocking_write_sm + 200
        0x0001d4b6:    6a60        `j      LDR      r0,[r4,#0x24]
        0x0001d4b8:    f24c0600    L...    MOVW     r6,#0xc000
        0x0001d4bc:    f2c40601    ....    MOVT     r6,#0x4001
        0x0001d4c0:    eb063000    ...0    ADD      r0,r6,r0,LSL #12
        0x0001d4c4:    eba30c07    ....    SUB      r12,r3,r7
        0x0001d4c8:    2500        .%      MOVS     r5,#0
        0x0001d4ca:    6987        .i      LDR      r7,[r0,#0x18]
        0x0001d4cc:    06bf        ..      LSLS     r7,r7,#26
        0x0001d4ce:    d420         .      BMI      0x1d512 ; nonblocking_write_sm + 202
        0x0001d4d0:    eb0c0705    ....    ADD      r7,r12,r5
        0x0001d4d4:    5d4e        N]      LDRB     r6,[r1,r5]
        0x0001d4d6:    1c7b        {.      ADDS     r3,r7,#1
        0x0001d4d8:    6006        .`      STR      r6,[r0,#0]
        0x0001d4da:    d017        ..      BEQ      0x1d50c ; nonblocking_write_sm + 196
        0x0001d4dc:    6983        .i      LDR      r3,[r0,#0x18]
        0x0001d4de:    069b        ..      LSLS     r3,r3,#26
        0x0001d4e0:    d45c        \.      BMI      0x1d59c ; nonblocking_write_sm + 340
        0x0001d4e2:    194e        N.      ADDS     r6,r1,r5
        0x0001d4e4:    7873        sx      LDRB     r3,[r6,#1]
        0x0001d4e6:    1cba        ..      ADDS     r2,r7,#2
        0x0001d4e8:    6003        .`      STR      r3,[r0,#0]
        0x0001d4ea:    d00f        ..      BEQ      0x1d50c ; nonblocking_write_sm + 196
        0x0001d4ec:    6982        .i      LDR      r2,[r0,#0x18]
        0x0001d4ee:    0692        ..      LSLS     r2,r2,#26
        0x0001d4f0:    d456        V.      BMI      0x1d5a0 ; nonblocking_write_sm + 344
        0x0001d4f2:    78b2        .x      LDRB     r2,[r6,#2]
        0x0001d4f4:    1cfb        ..      ADDS     r3,r7,#3
        0x0001d4f6:    6002        .`      STR      r2,[r0,#0]
        0x0001d4f8:    d008        ..      BEQ      0x1d50c ; nonblocking_write_sm + 196
        0x0001d4fa:    6982        .i      LDR      r2,[r0,#0x18]
        0x0001d4fc:    0692        ..      LSLS     r2,r2,#26
        0x0001d4fe:    d451        Q.      BMI      0x1d5a4 ; nonblocking_write_sm + 348
        0x0001d500:    3504        .5      ADDS     r5,#4
        0x0001d502:    78f2        .x      LDRB     r2,[r6,#3]
        0x0001d504:    eb1c0305    ....    ADDS     r3,r12,r5
        0x0001d508:    6002        .`      STR      r2,[r0,#0]
        0x0001d50a:    d1de        ..      BNE      0x1d4ca ; nonblocking_write_sm + 130
        0x0001d50c:    4675        uF      MOV      r5,lr
        0x0001d50e:    e000        ..      B        0x1d512 ; nonblocking_write_sm + 202
        0x0001d510:    2500        .%      MOVS     r5,#0
        0x0001d512:    6fa0        .o      LDR      r0,[r4,#0x78]
        0x0001d514:    4428        (D      ADD      r0,r0,r5
        0x0001d516:    67a0        .g      STR      r0,[r4,#0x78]
        0x0001d518:    9801        ..      LDR      r0,[sp,#4]
        0x0001d51a:    f7fbff93    ....    BL       am_hal_interrupt_master_set ; 0x19444
        0x0001d51e:    f894007c    ..|.    LDRB     r0,[r4,#0x7c]
        0x0001d522:    b330        0.      CBZ      r0,0x1d572 ; nonblocking_write_sm + 298
        0x0001d524:    6a65        ej      LDR      r5,[r4,#0x24]
        0x0001d526:    f24c0800    L...    MOVW     r8,#0xc000
        0x0001d52a:    f2c40801    ....    MOVT     r8,#0x4001
        0x0001d52e:    f7fbff85    ....    BL       am_hal_interrupt_master_disable ; 0x1943c
        0x0001d532:    9002        ..      STR      r0,[sp,#8]
        0x0001d534:    eb083705    ...7    ADD      r7,r8,r5,LSL #12
        0x0001d538:    69b8        .i      LDR      r0,[r7,#0x18]
        0x0001d53a:    0680        ..      LSLS     r0,r0,#26
        0x0001d53c:    d416        ..      BMI      0x1d56c ; nonblocking_write_sm + 292
        0x0001d53e:    f1040580    ....    ADD      r5,r4,#0x80
        0x0001d542:    f10d060f    ....    ADD      r6,sp,#0xf
        0x0001d546:    bf00        ..      NOP      
        0x0001d548:    4628        (F      MOV      r0,r5
        0x0001d54a:    4631        1F      MOV      r1,r6
        0x0001d54c:    2201        ."      MOVS     r2,#1
        0x0001d54e:    f7fcff9f    ....    BL       am_hal_queue_item_get ; 0x1a490
        0x0001d552:    b158        X.      CBZ      r0,0x1d56c ; nonblocking_write_sm + 292
        0x0001d554:    6a60        `j      LDR      r0,[r4,#0x24]
        0x0001d556:    f89d100f    ....    LDRB     r1,[sp,#0xf]
        0x0001d55a:    eb083000    ...0    ADD      r0,r8,r0,LSL #12
        0x0001d55e:    6982        .i      LDR      r2,[r0,#0x18]
        0x0001d560:    0692        ..      LSLS     r2,r2,#26
        0x0001d562:    bf58        X.      IT       PL
        0x0001d564:    6001        .`      STRPL    r1,[r0,#0]
        0x0001d566:    69b8        .i      LDR      r0,[r7,#0x18]
        0x0001d568:    0680        ..      LSLS     r0,r0,#26
        0x0001d56a:    d5ed        ..      BPL      0x1d548 ; nonblocking_write_sm + 256
        0x0001d56c:    9802        ..      LDR      r0,[sp,#8]
        0x0001d56e:    f7fbff69    ..i.    BL       am_hal_interrupt_master_set ; 0x19444
        0x0001d572:    6e60        `n      LDR      r0,[r4,#0x64]
        0x0001d574:    6fa1        .o      LDR      r1,[r4,#0x78]
        0x0001d576:    6001        .`      STR      r1,[r0,#0]
        0x0001d578:    6e20         n      LDR      r0,[r4,#0x60]
        0x0001d57a:    6fa1        .o      LDR      r1,[r4,#0x78]
        0x0001d57c:    4281        .B      CMP      r1,r0
        0x0001d57e:    d10a        ..      BNE      0x1d596 ; nonblocking_write_sm + 334
        0x0001d580:    f8940054    ..T.    LDRB     r0,[r4,#0x54]
        0x0001d584:    b138        8.      CBZ      r0,0x1d596 ; nonblocking_write_sm + 334
        0x0001d586:    6ee2        .n      LDR      r2,[r4,#0x6c]
        0x0001d588:    2000        .       MOVS     r0,#0
        0x0001d58a:    f8840054    ..T.    STRB     r0,[r4,#0x54]
        0x0001d58e:    b112        ..      CBZ      r2,0x1d596 ; nonblocking_write_sm + 334
        0x0001d590:    6f21        !o      LDR      r1,[r4,#0x70]
        0x0001d592:    2000        .       MOVS     r0,#0
        0x0001d594:    4790        .G      BLX      r2
        0x0001d596:    b004        ..      ADD      sp,sp,#0x10
        0x0001d598:    e8bd81f0    ....    POP      {r4-r8,pc}
        0x0001d59c:    3501        .5      ADDS     r5,#1
        0x0001d59e:    e7b8        ..      B        0x1d512 ; nonblocking_write_sm + 202
        0x0001d5a0:    3502        .5      ADDS     r5,#2
        0x0001d5a2:    e7b6        ..      B        0x1d512 ; nonblocking_write_sm + 202
        0x0001d5a4:    3503        .5      ADDS     r5,#3
        0x0001d5a6:    e7b4        ..      B        0x1d512 ; nonblocking_write_sm + 202
    padbuffer
        0x0001d5a8:    b085        ..      SUB      sp,sp,#0x14
        0x0001d5aa:    9003        ..      STR      r0,[sp,#0xc]
        0x0001d5ac:    f88d100b    ....    STRB     r1,[sp,#0xb]
        0x0001d5b0:    9201        ..      STR      r2,[sp,#4]
        0x0001d5b2:    2000        .       MOVS     r0,#0
        0x0001d5b4:    9000        ..      STR      r0,[sp,#0]
        0x0001d5b6:    9801        ..      LDR      r0,[sp,#4]
        0x0001d5b8:    2800        .(      CMP      r0,#0
        0x0001d5ba:    dc03        ..      BGT      0x1d5c4 ; padbuffer + 28
        0x0001d5bc:    e7ff        ..      B        0x1d5be ; padbuffer + 22
        0x0001d5be:    9800        ..      LDR      r0,[sp,#0]
        0x0001d5c0:    9004        ..      STR      r0,[sp,#0x10]
        0x0001d5c2:    e016        ..      B        0x1d5f2 ; padbuffer + 74
        0x0001d5c4:    e7ff        ..      B        0x1d5c6 ; padbuffer + 30
        0x0001d5c6:    9801        ..      LDR      r0,[sp,#4]
        0x0001d5c8:    1e41        A.      SUBS     r1,r0,#1
        0x0001d5ca:    9101        ..      STR      r1,[sp,#4]
        0x0001d5cc:    b170        p.      CBZ      r0,0x1d5ec ; padbuffer + 68
        0x0001d5ce:    e7ff        ..      B        0x1d5d0 ; padbuffer + 40
        0x0001d5d0:    9803        ..      LDR      r0,[sp,#0xc]
        0x0001d5d2:    b138        8.      CBZ      r0,0x1d5e4 ; padbuffer + 60
        0x0001d5d4:    e7ff        ..      B        0x1d5d6 ; padbuffer + 46
        0x0001d5d6:    f89d000b    ....    LDRB     r0,[sp,#0xb]
        0x0001d5da:    9903        ..      LDR      r1,[sp,#0xc]
        0x0001d5dc:    1c4a        J.      ADDS     r2,r1,#1
        0x0001d5de:    9203        ..      STR      r2,[sp,#0xc]
        0x0001d5e0:    7008        .p      STRB     r0,[r1,#0]
        0x0001d5e2:    e7ff        ..      B        0x1d5e4 ; padbuffer + 60
        0x0001d5e4:    9800        ..      LDR      r0,[sp,#0]
        0x0001d5e6:    3001        .0      ADDS     r0,#1
        0x0001d5e8:    9000        ..      STR      r0,[sp,#0]
        0x0001d5ea:    e7ec        ..      B        0x1d5c6 ; padbuffer + 30
        0x0001d5ec:    9800        ..      LDR      r0,[sp,#0]
        0x0001d5ee:    9004        ..      STR      r0,[sp,#0x10]
        0x0001d5f0:    e7ff        ..      B        0x1d5f2 ; padbuffer + 74
        0x0001d5f2:    9804        ..      LDR      r0,[sp,#0x10]
        0x0001d5f4:    b005        ..      ADD      sp,sp,#0x14
        0x0001d5f6:    4770        pG      BX       lr
    revmaj_get
        0x0001d5f8:    b082        ..      SUB      sp,sp,#8
        0x0001d5fa:    9001        ..      STR      r0,[sp,#4]
        0x0001d5fc:    f89d0004    ....    LDRB     r0,[sp,#4]
        0x0001d600:    0900        ..      LSRS     r0,r0,#4
        0x0001d602:    9000        ..      STR      r0,[sp,#0]
        0x0001d604:    9800        ..      LDR      r0,[sp,#0]
        0x0001d606:    3040        @0      ADDS     r0,r0,#0x40
        0x0001d608:    b002        ..      ADD      sp,sp,#8
        0x0001d60a:    4770        pG      BX       lr
    simple_strlen
        0x0001d60c:    b083        ..      SUB      sp,sp,#0xc
        0x0001d60e:    9001        ..      STR      r0,[sp,#4]
        0x0001d610:    2000        .       MOVS     r0,#0
        0x0001d612:    9000        ..      STR      r0,[sp,#0]
        0x0001d614:    9801        ..      LDR      r0,[sp,#4]
        0x0001d616:    b918        ..      CBNZ     r0,0x1d620 ; simple_strlen + 20
        0x0001d618:    e7ff        ..      B        0x1d61a ; simple_strlen + 14
        0x0001d61a:    9800        ..      LDR      r0,[sp,#0]
        0x0001d61c:    9002        ..      STR      r0,[sp,#8]
        0x0001d61e:    e00d        ..      B        0x1d63c ; simple_strlen + 48
        0x0001d620:    e7ff        ..      B        0x1d622 ; simple_strlen + 22
        0x0001d622:    9801        ..      LDR      r0,[sp,#4]
        0x0001d624:    1c41        A.      ADDS     r1,r0,#1
        0x0001d626:    9101        ..      STR      r1,[sp,#4]
        0x0001d628:    7800        .x      LDRB     r0,[r0,#0]
        0x0001d62a:    b120         .      CBZ      r0,0x1d636 ; simple_strlen + 42
        0x0001d62c:    e7ff        ..      B        0x1d62e ; simple_strlen + 34
        0x0001d62e:    9800        ..      LDR      r0,[sp,#0]
        0x0001d630:    3001        .0      ADDS     r0,#1
        0x0001d632:    9000        ..      STR      r0,[sp,#0]
        0x0001d634:    e7f5        ..      B        0x1d622 ; simple_strlen + 22
        0x0001d636:    9800        ..      LDR      r0,[sp,#0]
        0x0001d638:    9002        ..      STR      r0,[sp,#8]
        0x0001d63a:    e7ff        ..      B        0x1d63c ; simple_strlen + 48
        0x0001d63c:    9802        ..      LDR      r0,[sp,#8]
        0x0001d63e:    b003        ..      ADD      sp,sp,#0xc
        0x0001d640:    4770        pG      BX       lr
        0x0001d642:    0000        ..      MOVS     r0,r0
    timer_config_b1
        0x0001d644:    e92d41f0    -..A    PUSH     {r4-r8,lr}
        0x0001d648:    f240285c    @.\(    MOVW     r8,#0x25c
        0x0001d64c:    f2c10800    ....    MOVT     r8,#0x1000
        0x0001d650:    eb080280    ....    ADD      r2,r8,r0,LSL #2
        0x0001d654:    2600        .&      MOVS     r6,#0
        0x0001d656:    4615        .F      MOV      r5,r2
        0x0001d658:    e9d13e02    ...>    LDRD     r3,lr,[r1,#8]
        0x0001d65c:    f8d1c010    ....    LDR      r12,[r1,#0x10]
        0x0001d660:    f8456b03    E..k    STR      r6,[r5],#3
        0x0001d664:    784f        Ox      LDRB     r7,[r1,#1]
        0x0001d666:    2f0e        ./      CMP      r7,#0xe
        0x0001d668:    d84a        J.      BHI      0x1d700 ; timer_config_b1 + 188
        0x0001d66a:    1c96        ..      ADDS     r6,r2,#2
        0x0001d66c:    2207        ."      MOVS     r2,#7
        0x0001d66e:    e8dff007    ....    TBB      [pc,r7]
    $d.1
        0x0001d672:    1b09        ..      DCW    6921
        0x0001d674:    470d470d    .G.G    DCD    1192052493
        0x0001d678:    47474709    .GGG    DCD    1195853577
        0x0001d67c:    432f4747    GG/C    DCD    1127171911
        0x0001d680:    bf000009    ....    DCD    3204448265
    $t.2
        0x0001d684:    4610        .F      MOV      r0,r2
        0x0001d686:    e8bd81f0    ....    POP      {r4-r8,pc}
        0x0001d68a:    bf00        ..      NOP      
        0x0001d68c:    f04f3201    O..2    MOV      r2,#0x1010101
        0x0001d690:    2b00        .+      CMP      r3,#0
        0x0001d692:    f8482020    H.      STR      r2,[r8,r0,LSL #2]
        0x0001d696:    d153        S.      BNE      0x1d740 ; timer_config_b1 + 252
        0x0001d698:    2300        .#      MOVS     r3,#0
        0x0001d69a:    780a        .x      LDRB     r2,[r1,#0]
        0x0001d69c:    f00204e0    ....    AND      r4,r2,#0xe0
        0x0001d6a0:    2c20         ,      CMP      r4,#0x20
        0x0001d6a2:    d032        2.      BEQ      0x1d70a ; timer_config_b1 + 198
        0x0001d6a4:    e040        @.      B        0x1d728 ; timer_config_b1 + 228
        0x0001d6a6:    bf00        ..      NOP      
        0x0001d6a8:    2201        ."      MOVS     r2,#1
        0x0001d6aa:    f11e0701    ....    ADDS     r7,lr,#1
        0x0001d6ae:    702a        *p      STRB     r2,[r5,#0]
        0x0001d6b0:    7032        2p      STRB     r2,[r6,#0]
        0x0001d6b2:    bf1c        ..      ITT      NE
        0x0001d6b4:    2007        .       MOVNE    r0,#7
        0x0001d6b6:    e8bd81f0    ....    POPNE    {r4-r8,pc}
        0x0001d6ba:    f11c0e01    ....    ADDS     lr,r12,#1
        0x0001d6be:    bf28        (.      IT       CS
        0x0001d6c0:    f04f3eff    O..>    MOVCS    lr,#0xffffffff
        0x0001d6c4:    780a        .x      LDRB     r2,[r1,#0]
        0x0001d6c6:    f00204e0    ....    AND      r4,r2,#0xe0
        0x0001d6ca:    2c20         ,      CMP      r4,#0x20
        0x0001d6cc:    d01d        ..      BEQ      0x1d70a ; timer_config_b1 + 198
        0x0001d6ce:    e02b        +.      B        0x1d728 ; timer_config_b1 + 228
        0x0001d6d0:    2b20         +      CMP      r3,#0x20
        0x0001d6d2:    bf84        ..      ITT      HI
        0x0001d6d4:    2007        .       MOVHI    r0,#7
        0x0001d6d6:    e8bd81f0    ....    POPHI    {r4-r8,pc}
        0x0001d6da:    2201        ."      MOVS     r2,#1
        0x0001d6dc:    2b00        .+      CMP      r3,#0
        0x0001d6de:    469c        .F      MOV      r12,r3
        0x0001d6e0:    bf18        ..      IT       NE
        0x0001d6e2:    3301        .3      ADDNE    r3,#1
        0x0001d6e4:    f8082020    ..      STRB     r2,[r8,r0,LSL #2]
        0x0001d6e8:    702a        *p      STRB     r2,[r5,#0]
        0x0001d6ea:    7032        2p      STRB     r2,[r6,#0]
        0x0001d6ec:    780a        .x      LDRB     r2,[r1,#0]
        0x0001d6ee:    f00204e0    ....    AND      r4,r2,#0xe0
        0x0001d6f2:    2c20         ,      CMP      r4,#0x20
        0x0001d6f4:    d009        ..      BEQ      0x1d70a ; timer_config_b1 + 198
        0x0001d6f6:    e017        ..      B        0x1d728 ; timer_config_b1 + 228
        0x0001d6f8:    f04f3201    O..2    MOV      r2,#0x1010101
        0x0001d6fc:    f8482020    H.      STR      r2,[r8,r0,LSL #2]
        0x0001d700:    780a        .x      LDRB     r2,[r1,#0]
        0x0001d702:    f00204e0    ....    AND      r4,r2,#0xe0
        0x0001d706:    2c20         ,      CMP      r4,#0x20
        0x0001d708:    d10e        ..      BNE      0x1d728 ; timer_config_b1 + 228
        0x0001d70a:    f1a20420    .. .    SUB      r4,r2,#0x20
        0x0001d70e:    07d2        ..      LSLS     r2,r2,#31
        0x0001d710:    ea4f0254    O.T.    LSR      r2,r4,#1
        0x0001d714:    d104        ..      BNE      0x1d720 ; timer_config_b1 + 220
        0x0001d716:    f8182022    .."     LDRB     r2,[r8,r2,LSL #2]
        0x0001d71a:    b92a        *.      CBNZ     r2,0x1d728 ; timer_config_b1 + 228
        0x0001d71c:    e010        ..      B        0x1d740 ; timer_config_b1 + 252
        0x0001d71e:    bf00        ..      NOP      
        0x0001d720:    eb080282    ....    ADD      r2,r8,r2,LSL #2
        0x0001d724:    7892        .x      LDRB     r2,[r2,#2]
        0x0001d726:    b15a        Z.      CBZ      r2,0x1d740 ; timer_config_b1 + 252
        0x0001d728:    790a        .y      LDRB     r2,[r1,#4]
        0x0001d72a:    b192        ..      CBZ      r2,0x1d752 ; timer_config_b1 + 270
        0x0001d72c:    794a        Jy      LDRB     r2,[r1,#5]
        0x0001d72e:    2a1f        .*      CMP      r2,#0x1f
        0x0001d730:    d80f        ..      BHI      0x1d752 ; timer_config_b1 + 270
        0x0001d732:    07d4        ..      LSLS     r4,r2,#31
        0x0001d734:    ea4f0252    O.R.    LSR      r2,r2,#1
        0x0001d738:    d106        ..      BNE      0x1d748 ; timer_config_b1 + 260
        0x0001d73a:    f8182022    .."     LDRB     r2,[r8,r2,LSL #2]
        0x0001d73e:    b942        B.      CBNZ     r2,0x1d752 ; timer_config_b1 + 270
        0x0001d740:    2006        .       MOVS     r0,#6
        0x0001d742:    e8bd81f0    ....    POP      {r4-r8,pc}
        0x0001d746:    bf00        ..      NOP      
        0x0001d748:    eb080282    ....    ADD      r2,r8,r2,LSL #2
        0x0001d74c:    7892        .x      LDRB     r2,[r2,#2]
        0x0001d74e:    2a00        .*      CMP      r2,#0
        0x0001d750:    d0f6        ..      BEQ      0x1d740 ; timer_config_b1 + 252
        0x0001d752:    f2481804    H...    MOV      r8,#0x8104
        0x0001d756:    f2c40800    ....    MOVT     r8,#0x4000
        0x0001d75a:    2401        .$      MOVS     r4,#1
        0x0001d75c:    f8d85000    ...P    LDR      r5,[r8,#0]
        0x0001d760:    4084        .@      LSLS     r4,r4,r0
        0x0001d762:    43a5        .C      BICS     r5,r5,r4
        0x0001d764:    f8c85000    ...P    STR      r5,[r8,#0]
        0x0001d768:    780d        .x      LDRB     r5,[r1,#0]
        0x0001d76a:    784e        Nx      LDRB     r6,[r1,#1]
        0x0001d76c:    78ca        .x      LDRB     r2,[r1,#3]
        0x0001d76e:    788f        .x      LDRB     r7,[r1,#2]
        0x0001d770:    022d        -.      LSLS     r5,r5,#8
        0x0001d772:    f3661507    f...    BFI      r5,r6,#4,#4
        0x0001d776:    f002021f    ....    AND      r2,r2,#0x1f
        0x0001d77a:    790e        .y      LDRB     r6,[r1,#4]
        0x0001d77c:    ea4502c2    E...    ORR      r2,r5,r2,LSL #3
        0x0001d780:    f007053f    ..?.    AND      r5,r7,#0x3f
        0x0001d784:    ea420285    B...    ORR      r2,r2,r5,LSL #2
        0x0001d788:    f0060503    ....    AND      r5,r6,#3
        0x0001d78c:    ea424205    B..B    ORR      r2,r2,r5,LSL #16
        0x0001d790:    eb081040    ..@.    ADD      r0,r8,r0,LSL #5
        0x0001d794:    ea426203    B..b    ORR      r2,r2,r3,LSL #24
        0x0001d798:    7949        Iy      LDRB     r1,[r1,#5]
        0x0001d79a:    f8d030fc    ...0    LDR      r3,[r0,#0xfc]
        0x0001d79e:    0209        ..      LSLS     r1,r1,#8
        0x0001d7a0:    f0230301    #...    BIC      r3,r3,#1
        0x0001d7a4:    f8c030fc    ...0    STR      r3,[r0,#0xfc]
        0x0001d7a8:    f8c020fc    ...     STR      r2,[r0,#0xfc]
        0x0001d7ac:    f8c0110c    ....    STR      r1,[r0,#0x10c]
        0x0001d7b0:    f8c0e104    ....    STR      lr,[r0,#0x104]
        0x0001d7b4:    f8c0c108    ....    STR      r12,[r0,#0x108]
        0x0001d7b8:    f8d010fc    ....    LDR      r1,[r0,#0xfc]
        0x0001d7bc:    2200        ."      MOVS     r2,#0
        0x0001d7be:    f0410102    A...    ORR      r1,r1,#2
        0x0001d7c2:    f8c010fc    ....    STR      r1,[r0,#0xfc]
        0x0001d7c6:    f8d80000    ....    LDR      r0,[r8,#0]
        0x0001d7ca:    4320         C      ORRS     r0,r0,r4
        0x0001d7cc:    f8c80000    ....    STR      r0,[r8,#0]
        0x0001d7d0:    4610        .F      MOV      r0,r2
        0x0001d7d2:    e8bd81f0    ....    POP      {r4-r8,pc}
        0x0001d7d6:    0000        ..      MOVS     r0,r0
    uint64_to_hexstr
        0x0001d7d8:    b08c        ..      SUB      sp,sp,#0x30
        0x0001d7da:    910b        ..      STR      r1,[sp,#0x2c]
        0x0001d7dc:    900a        ..      STR      r0,[sp,#0x28]
        0x0001d7de:    9209        ..      STR      r2,[sp,#0x24]
        0x0001d7e0:    f88d3023    ..#0    STRB     r3,[sp,#0x23]
        0x0001d7e4:    2000        .       MOVS     r0,#0
        0x0001d7e6:    9006        ..      STR      r0,[sp,#0x18]
        0x0001d7e8:    980a        ..      LDR      r0,[sp,#0x28]
        0x0001d7ea:    990b        ..      LDR      r1,[sp,#0x2c]
        0x0001d7ec:    4308        .C      ORRS     r0,r0,r1
        0x0001d7ee:    b940        @.      CBNZ     r0,0x1d802 ; uint64_to_hexstr + 42
        0x0001d7f0:    e7ff        ..      B        0x1d7f2 ; uint64_to_hexstr + 26
        0x0001d7f2:    9a06        ..      LDR      r2,[sp,#0x18]
        0x0001d7f4:    1c50        P.      ADDS     r0,r2,#1
        0x0001d7f6:    9006        ..      STR      r0,[sp,#0x18]
        0x0001d7f8:    f10d0103    ....    ADD      r1,sp,#3
        0x0001d7fc:    2030        0       MOVS     r0,#0x30
        0x0001d7fe:    5488        .T      STRB     r0,[r1,r2]
        0x0001d800:    e7ff        ..      B        0x1d802 ; uint64_to_hexstr + 42
        0x0001d802:    e7ff        ..      B        0x1d804 ; uint64_to_hexstr + 44
        0x0001d804:    980a        ..      LDR      r0,[sp,#0x28]
        0x0001d806:    990b        ..      LDR      r1,[sp,#0x2c]
        0x0001d808:    4308        .C      ORRS     r0,r0,r1
        0x0001d80a:    b350        P.      CBZ      r0,0x1d862 ; uint64_to_hexstr + 138
        0x0001d80c:    e7ff        ..      B        0x1d80e ; uint64_to_hexstr + 54
        0x0001d80e:    f89d0028    ..(.    LDRB     r0,[sp,#0x28]
        0x0001d812:    f000000f    ....    AND      r0,r0,#0xf
        0x0001d816:    f88d0017    ....    STRB     r0,[sp,#0x17]
        0x0001d81a:    f89d0017    ....    LDRB     r0,[sp,#0x17]
        0x0001d81e:    280a        .(      CMP      r0,#0xa
        0x0001d820:    db0d        ..      BLT      0x1d83e ; uint64_to_hexstr + 102
        0x0001d822:    e7ff        ..      B        0x1d824 ; uint64_to_hexstr + 76
        0x0001d824:    f89d0023    ..#.    LDRB     r0,[sp,#0x23]
        0x0001d828:    07c0        ..      LSLS     r0,r0,#31
        0x0001d82a:    2107        .!      MOVS     r1,#7
        0x0001d82c:    2800        .(      CMP      r0,#0
        0x0001d82e:    bf18        ..      IT       NE
        0x0001d830:    2127        '!      MOVNE    r1,#0x27
        0x0001d832:    f89d0017    ....    LDRB     r0,[sp,#0x17]
        0x0001d836:    4408        .D      ADD      r0,r0,r1
        0x0001d838:    f88d0017    ....    STRB     r0,[sp,#0x17]
        0x0001d83c:    e7ff        ..      B        0x1d83e ; uint64_to_hexstr + 102
        0x0001d83e:    f89d0017    ....    LDRB     r0,[sp,#0x17]
        0x0001d842:    3030        00      ADDS     r0,r0,#0x30
        0x0001d844:    9a06        ..      LDR      r2,[sp,#0x18]
        0x0001d846:    1c51        Q.      ADDS     r1,r2,#1
        0x0001d848:    9106        ..      STR      r1,[sp,#0x18]
        0x0001d84a:    f10d0103    ....    ADD      r1,sp,#3
        0x0001d84e:    5488        .T      STRB     r0,[r1,r2]
        0x0001d850:    980a        ..      LDR      r0,[sp,#0x28]
        0x0001d852:    990b        ..      LDR      r1,[sp,#0x2c]
        0x0001d854:    0900        ..      LSRS     r0,r0,#4
        0x0001d856:    ea407001    @..p    ORR      r0,r0,r1,LSL #28
        0x0001d85a:    0909        ..      LSRS     r1,r1,#4
        0x0001d85c:    910b        ..      STR      r1,[sp,#0x2c]
        0x0001d85e:    900a        ..      STR      r0,[sp,#0x28]
        0x0001d860:    e7d0        ..      B        0x1d804 ; uint64_to_hexstr + 44
        0x0001d862:    9806        ..      LDR      r0,[sp,#0x18]
        0x0001d864:    9007        ..      STR      r0,[sp,#0x1c]
        0x0001d866:    9809        ..      LDR      r0,[sp,#0x24]
        0x0001d868:    b198        ..      CBZ      r0,0x1d892 ; uint64_to_hexstr + 186
        0x0001d86a:    e7ff        ..      B        0x1d86c ; uint64_to_hexstr + 148
        0x0001d86c:    e7ff        ..      B        0x1d86e ; uint64_to_hexstr + 150
        0x0001d86e:    9806        ..      LDR      r0,[sp,#0x18]
        0x0001d870:    1e41        A.      SUBS     r1,r0,#1
        0x0001d872:    9106        ..      STR      r1,[sp,#0x18]
        0x0001d874:    b148        H.      CBZ      r0,0x1d88a ; uint64_to_hexstr + 178
        0x0001d876:    e7ff        ..      B        0x1d878 ; uint64_to_hexstr + 160
        0x0001d878:    9906        ..      LDR      r1,[sp,#0x18]
        0x0001d87a:    f10d0003    ....    ADD      r0,sp,#3
        0x0001d87e:    5c40        @\      LDRB     r0,[r0,r1]
        0x0001d880:    9909        ..      LDR      r1,[sp,#0x24]
        0x0001d882:    1c4a        J.      ADDS     r2,r1,#1
        0x0001d884:    9209        ..      STR      r2,[sp,#0x24]
        0x0001d886:    7008        .p      STRB     r0,[r1,#0]
        0x0001d888:    e7f1        ..      B        0x1d86e ; uint64_to_hexstr + 150
        0x0001d88a:    9909        ..      LDR      r1,[sp,#0x24]
        0x0001d88c:    2000        .       MOVS     r0,#0
        0x0001d88e:    7008        .p      STRB     r0,[r1,#0]
        0x0001d890:    e7ff        ..      B        0x1d892 ; uint64_to_hexstr + 186
        0x0001d892:    9807        ..      LDR      r0,[sp,#0x1c]
        0x0001d894:    b00c        ..      ADD      sp,sp,#0x30
        0x0001d896:    4770        pG      BX       lr
    uint64_to_str
        0x0001d898:    b580        ..      PUSH     {r7,lr}
        0x0001d89a:    b090        ..      SUB      sp,sp,#0x40
        0x0001d89c:    910f        ..      STR      r1,[sp,#0x3c]
        0x0001d89e:    900e        ..      STR      r0,[sp,#0x38]
        0x0001d8a0:    920d        ..      STR      r2,[sp,#0x34]
        0x0001d8a2:    2000        .       MOVS     r0,#0
        0x0001d8a4:    9005        ..      STR      r0,[sp,#0x14]
        0x0001d8a6:    9004        ..      STR      r0,[sp,#0x10]
        0x0001d8a8:    e7ff        ..      B        0x1d8aa ; uint64_to_str + 18
        0x0001d8aa:    980e        ..      LDR      r0,[sp,#0x38]
        0x0001d8ac:    990f        ..      LDR      r1,[sp,#0x3c]
        0x0001d8ae:    f7fefce3    ....    BL       divu64_10 ; 0x1c278
        0x0001d8b2:    9101        ..      STR      r1,[sp,#4]
        0x0001d8b4:    9000        ..      STR      r0,[sp,#0]
        0x0001d8b6:    980e        ..      LDR      r0,[sp,#0x38]
        0x0001d8b8:    9900        ..      LDR      r1,[sp,#0]
        0x0001d8ba:    eb010181    ....    ADD      r1,r1,r1,LSL #2
        0x0001d8be:    eba00041    ..A.    SUB      r0,r0,r1,LSL #1
        0x0001d8c2:    9003        ..      STR      r0,[sp,#0xc]
        0x0001d8c4:    9803        ..      LDR      r0,[sp,#0xc]
        0x0001d8c6:    3030        00      ADDS     r0,r0,#0x30
        0x0001d8c8:    9a05        ..      LDR      r2,[sp,#0x14]
        0x0001d8ca:    1c51        Q.      ADDS     r1,r2,#1
        0x0001d8cc:    9105        ..      STR      r1,[sp,#0x14]
        0x0001d8ce:    f10d011b    ....    ADD      r1,sp,#0x1b
        0x0001d8d2:    5488        .T      STRB     r0,[r1,r2]
        0x0001d8d4:    9800        ..      LDR      r0,[sp,#0]
        0x0001d8d6:    9901        ..      LDR      r1,[sp,#4]
        0x0001d8d8:    910f        ..      STR      r1,[sp,#0x3c]
        0x0001d8da:    900e        ..      STR      r0,[sp,#0x38]
        0x0001d8dc:    e7ff        ..      B        0x1d8de ; uint64_to_str + 70
        0x0001d8de:    980e        ..      LDR      r0,[sp,#0x38]
        0x0001d8e0:    990f        ..      LDR      r1,[sp,#0x3c]
        0x0001d8e2:    4308        .C      ORRS     r0,r0,r1
        0x0001d8e4:    2800        .(      CMP      r0,#0
        0x0001d8e6:    d1e0        ..      BNE      0x1d8aa ; uint64_to_str + 18
        0x0001d8e8:    e7ff        ..      B        0x1d8ea ; uint64_to_str + 82
        0x0001d8ea:    9805        ..      LDR      r0,[sp,#0x14]
        0x0001d8ec:    9004        ..      STR      r0,[sp,#0x10]
        0x0001d8ee:    980d        ..      LDR      r0,[sp,#0x34]
        0x0001d8f0:    b198        ..      CBZ      r0,0x1d91a ; uint64_to_str + 130
        0x0001d8f2:    e7ff        ..      B        0x1d8f4 ; uint64_to_str + 92
        0x0001d8f4:    e7ff        ..      B        0x1d8f6 ; uint64_to_str + 94
        0x0001d8f6:    9805        ..      LDR      r0,[sp,#0x14]
        0x0001d8f8:    1e41        A.      SUBS     r1,r0,#1
        0x0001d8fa:    9105        ..      STR      r1,[sp,#0x14]
        0x0001d8fc:    b148        H.      CBZ      r0,0x1d912 ; uint64_to_str + 122
        0x0001d8fe:    e7ff        ..      B        0x1d900 ; uint64_to_str + 104
        0x0001d900:    9905        ..      LDR      r1,[sp,#0x14]
        0x0001d902:    f10d001b    ....    ADD      r0,sp,#0x1b
        0x0001d906:    5c40        @\      LDRB     r0,[r0,r1]
        0x0001d908:    990d        ..      LDR      r1,[sp,#0x34]
        0x0001d90a:    1c4a        J.      ADDS     r2,r1,#1
        0x0001d90c:    920d        ..      STR      r2,[sp,#0x34]
        0x0001d90e:    7008        .p      STRB     r0,[r1,#0]
        0x0001d910:    e7f1        ..      B        0x1d8f6 ; uint64_to_str + 94
        0x0001d912:    990d        ..      LDR      r1,[sp,#0x34]
        0x0001d914:    2000        .       MOVS     r0,#0
        0x0001d916:    7008        .p      STRB     r0,[r1,#0]
        0x0001d918:    e7ff        ..      B        0x1d91a ; uint64_to_str + 130
        0x0001d91a:    9804        ..      LDR      r0,[sp,#0x10]
        0x0001d91c:    b010        ..      ADD      sp,sp,#0x40
        0x0001d91e:    bd80        ..      POP      {r7,pc}
    $t
    x$fpl$d2f
    $v0
    __aeabi_d2f
    _d2f
        0x0001d920:    f0214200    !..B    BIC      r2,r1,#0x80000000
        0x0001d924:    f0014300    ...C    AND      r3,r1,#0x80000000
        0x0001d928:    f1a25260    ..`R    SUB      r2,r2,#0x38000000
        0x0001d92c:    f5b21f80    ....    CMP      r2,#0x100000
        0x0001d930:    bf28        (.      IT       CS
        0x0001d932:    f1d26c7f    ...l    RSBSCS   r12,r2,#0xff00000
        0x0001d936:    d90b        ..      BLS      0x1d950 ; __aeabi_d2f + 48
        0x0001d938:    ea5f1c00    _...    LSLS     r12,r0,#4
        0x0001d93c:    ea4302c2    C...    ORR      r2,r3,r2,LSL #3
        0x0001d940:    eb427050    B.Pp    ADC      r0,r2,r0,LSR #29
        0x0001d944:    bf18        ..      IT       NE
        0x0001d946:    4770        pG      BXNE     lr
        0x0001d948:    bf28        (.      IT       CS
        0x0001d94a:    f0200001     ...    BICCS    r0,r0,#1
        0x0001d94e:    4770        pG      BX       lr
        0x0001d950:    f5b21f80    ....    CMP      r2,#0x100000
        0x0001d954:    bfbc        ..      ITT      LT
        0x0001d956:    4618        .F      MOVLT    r0,r3
        0x0001d958:    4770        pG      BXLT     lr
        0x0001d95a:    ea4f0c41    O.A.    LSL      r12,r1,#1
        0x0001d95e:    f51c1f00    ....    CMN      r12,#0x200000
        0x0001d962:    d202        ..      BCS      0x1d96a ; __aeabi_d2f + 74
        0x0001d964:    4608        .F      MOV      r0,r1
        0x0001d966:    f000b867    ..g.    B.W      __fpl_fretinf ; 0x1da38
        0x0001d96a:    b570        p.      PUSH     {r4-r6,lr}
        0x0001d96c:    f000f809    ....    BL       __fpl_dnaninf ; 0x1d982
    $d
        0x0001d970:    89000000    ....    DCD    2298478592
    $t
        0x0001d974:    f7ffbff6    ....    B.W      0x1d964 ; __aeabi_d2f + 68
        0x0001d978:    f04f4000    O..@    MOV      r0,#0x80000000
        0x0001d97c:    f5a00080    ....    SUB      r0,r0,#0x400000
        0x0001d980:    4770        pG      BX       lr
    x$fpl$dnaninf
    $v0
    __fpl_dnaninf
        0x0001d982:    f10e0e02    ....    ADD      lr,lr,#2
        0x0001d986:    f02e0e03    ....    BIC      lr,lr,#3
        0x0001d98a:    f85e6b04    ^..k    LDR      r6,[lr],#4
        0x0001d98e:    4236        6B      TST      r6,r6
        0x0001d990:    d405        ..      BMI      0x1d99e ; __fpl_dnaninf + 28
        0x0001d992:    2a01        .*      CMP      r2,#1
        0x0001d994:    eb430503    C...    ADC      r5,r3,r3
        0x0001d998:    f5151f00    ....    CMN      r5,#0x200000
        0x0001d99c:    d812        ..      BHI      0x1d9c4 ; __fpl_dnaninf + 66
        0x0001d99e:    2801        .(      CMP      r0,#1
        0x0001d9a0:    eb410c01    A...    ADC      r12,r1,r1
        0x0001d9a4:    f51c1f00    ....    CMN      r12,#0x200000
        0x0001d9a8:    d80c        ..      BHI      0x1d9c4 ; __fpl_dnaninf + 66
        0x0001d9aa:    d10e        ..      BNE      0x1d9ca ; __fpl_dnaninf + 72
        0x0001d9ac:    ea4f7cd1    O..|    LSR      r12,r1,#31
        0x0001d9b0:    eb0c0c4c    ..L.    ADD      r12,r12,r12,LSL #1
        0x0001d9b4:    f10c0c02    ....    ADD      r12,r12,#2
        0x0001d9b8:    f5151f00    ....    CMN      r5,#0x200000
        0x0001d9bc:    bf08        ..      IT       EQ
        0x0001d9be:    eb4c7cd3    L..|    ADCEQ    r12,r12,r3,LSR #31
        0x0001d9c2:    e004        ..      B        0x1d9ce ; __fpl_dnaninf + 76
        0x0001d9c4:    f04f0c08    O...    MOV      r12,#8
        0x0001d9c8:    e001        ..      B        0x1d9ce ; __fpl_dnaninf + 76
        0x0001d9ca:    ea4f7cd3    O..|    LSR      r12,r3,#31
        0x0001d9ce:    eb0c054c    ..L.    ADD      r5,r12,r12,LSL #1
        0x0001d9d2:    fa26f605    &...    LSR      r6,r6,r5
        0x0001d9d6:    f0060607    ....    AND      r6,r6,#7
        0x0001d9da:    f1b60c04    ....    SUBS     r12,r6,#4
        0x0001d9de:    d206        ..      BCS      0x1d9ee ; __fpl_dnaninf + 108
        0x0001d9e0:    eb0e0c86    ....    ADD      r12,lr,r6,LSL #2
        0x0001d9e4:    e8bd4070    ..p@    POP      {r4-r6,lr}
        0x0001d9e8:    f04c0c01    L...    ORR      r12,r12,#1
        0x0001d9ec:    4760        `G      BX       r12
        0x0001d9ee:    e8dff00c    ....    TBB      [pc,r12]
    $d
        0x0001d9f2:    0b09        ..      DCW    2825
        0x0001d9f4:    0202        ..      DCW    514
    $t
        0x0001d9f6:    f04f4100    O..A    MOV      r1,#0x80000000
        0x0001d9fa:    f5a12100    ...!    SUB      r1,r1,#0x80000
        0x0001d9fe:    f04f0000    O...    MOV      r0,#0
        0x0001da02:    bd70        p.      POP      {r4-r6,pc}
        0x0001da04:    4619        .F      MOV      r1,r3
        0x0001da06:    4610        .F      MOV      r0,r2
        0x0001da08:    2801        .(      CMP      r0,#1
        0x0001da0a:    eb510401    Q...    ADCS     r4,r1,r1
        0x0001da0e:    bf18        ..      IT       NE
        0x0001da10:    f5d41400    ....    RSBSNE   r4,r4,#0x200000
        0x0001da14:    bf84        ..      ITT      HI
        0x0001da16:    2000        .       MOVHI    r0,#0
        0x0001da18:    f0014100    ...A    ANDHI    r1,r1,#0x80000000
        0x0001da1c:    bd70        p.      POP      {r4-r6,pc}
    x$fpl$fpinit
    $v0
    _fp_init
        0x0001da1e:    eef10a10    ....    VMRS     r0,FPSCR
        0x0001da22:    f64f71ff    O..q    MOV      r1,#0xffff
        0x0001da26:    f2c031c0    ...1    MOVT     r1,#0x3c0
        0x0001da2a:    ea200001     ...    BIC      r0,r0,r1
        0x0001da2e:    f0407040    @.@p    ORR      r0,r0,#0x3000000
        0x0001da32:    eee10a10    ....    VMSR     FPSCR,r0
    __fplib_config_fpu_vfp
    __fplib_config_pureend_doubles
        0x0001da36:    4770        pG      BX       lr
    x$fpl$fretinf
    $v0
    __fpl_fretinf
        0x0001da38:    21ff        .!      MOVS     r1,#0xff
        0x0001da3a:    ea4150d0    A..P    ORR      r0,r1,r0,LSR #23
        0x0001da3e:    05c0        ..      LSLS     r0,r0,#23
        0x0001da40:    4770        pG      BX       lr
    $d.realdata
    x$fpl$usenofp
    __I$use$fp
    am_hal_cachectrl_defaults
        0x0001da42:    030e        ..      DCW    782
        0x0001da44:    00          .       DCB    0
    am_hal_daxi_defaults
        0x0001da45:    020000      ...     DCB    2,0,0
    am_hal_gpio_pincfg_disabled
        0x0001da48:    00000003    ....    DCD    3
    am_hal_gpio_pincfg_output
        0x0001da4c:    00000183    ....    DCD    387
    am_hal_gpio_pincfg_pulledup_disabled
        0x0001da50:    0000e083    ....    DCD    57475
    am_hal_pwrctrl_peripheral_control
        0x0001da54:    40021004    ...@    DCD    1073876996
        0x0001da58:    00000001    ....    DCD    1
        0x0001da5c:    40021008    ...@    DCD    1073877000
        0x0001da60:    00000001    ....    DCD    1
        0x0001da64:    40021004    ...@    DCD    1073876996
        0x0001da68:    00000002    ....    DCD    2
        0x0001da6c:    40021008    ...@    DCD    1073877000
        0x0001da70:    0000001e    ....    DCD    30
        0x0001da74:    40021004    ...@    DCD    1073876996
        0x0001da78:    00000004    ....    DCD    4
        0x0001da7c:    40021008    ...@    DCD    1073877000
        0x0001da80:    0000001e    ....    DCD    30
        0x0001da84:    40021004    ...@    DCD    1073876996
        0x0001da88:    00000008    ....    DCD    8
        0x0001da8c:    40021008    ...@    DCD    1073877000
        0x0001da90:    0000001e    ....    DCD    30
        0x0001da94:    40021004    ...@    DCD    1073876996
        0x0001da98:    00000010    ....    DCD    16
        0x0001da9c:    40021008    ...@    DCD    1073877000
        0x0001daa0:    0000001e    ....    DCD    30
        0x0001daa4:    40021004    ...@    DCD    1073876996
        0x0001daa8:    00000020     ...    DCD    32
        0x0001daac:    40021008    ...@    DCD    1073877000
        0x0001dab0:    000001e0    ....    DCD    480
        0x0001dab4:    40021004    ...@    DCD    1073876996
        0x0001dab8:    00000040    @...    DCD    64
        0x0001dabc:    40021008    ...@    DCD    1073877000
        0x0001dac0:    000001e0    ....    DCD    480
        0x0001dac4:    40021004    ...@    DCD    1073876996
        0x0001dac8:    00000080    ....    DCD    128
        0x0001dacc:    40021008    ...@    DCD    1073877000
        0x0001dad0:    000001e0    ....    DCD    480
        0x0001dad4:    40021004    ...@    DCD    1073876996
        0x0001dad8:    00000100    ....    DCD    256
        0x0001dadc:    40021008    ...@    DCD    1073877000
        0x0001dae0:    000001e0    ....    DCD    480
        0x0001dae4:    40021004    ...@    DCD    1073876996
        0x0001dae8:    00000200    ....    DCD    512
        0x0001daec:    40021008    ...@    DCD    1073877000
        0x0001daf0:    00001e00    ....    DCD    7680
        0x0001daf4:    40021004    ...@    DCD    1073876996
        0x0001daf8:    00000400    ....    DCD    1024
        0x0001dafc:    40021008    ...@    DCD    1073877000
        0x0001db00:    00001e00    ....    DCD    7680
        0x0001db04:    40021004    ...@    DCD    1073876996
        0x0001db08:    00000800    ....    DCD    2048
        0x0001db0c:    40021008    ...@    DCD    1073877000
        0x0001db10:    00001e00    ....    DCD    7680
        0x0001db14:    40021004    ...@    DCD    1073876996
        0x0001db18:    00001000    ....    DCD    4096
        0x0001db1c:    40021008    ...@    DCD    1073877000
        0x0001db20:    00001e00    ....    DCD    7680
        0x0001db24:    40021004    ...@    DCD    1073876996
        0x0001db28:    00002000    . ..    DCD    8192
        0x0001db2c:    40021008    ...@    DCD    1073877000
        0x0001db30:    00002000    . ..    DCD    8192
        0x0001db34:    40021004    ...@    DCD    1073876996
        0x0001db38:    00004000    .@..    DCD    16384
        0x0001db3c:    40021008    ...@    DCD    1073877000
        0x0001db40:    0001c000    ....    DCD    114688
        0x0001db44:    40021004    ...@    DCD    1073876996
        0x0001db48:    00008000    ....    DCD    32768
        0x0001db4c:    40021008    ...@    DCD    1073877000
        0x0001db50:    0001c000    ....    DCD    114688
        0x0001db54:    40021004    ...@    DCD    1073876996
        0x0001db58:    00010000    ....    DCD    65536
        0x0001db5c:    40021008    ...@    DCD    1073877000
        0x0001db60:    0001c000    ....    DCD    114688
        0x0001db64:    40021004    ...@    DCD    1073876996
        0x0001db68:    00020000    ....    DCD    131072
        0x0001db6c:    40021008    ...@    DCD    1073877000
        0x0001db70:    00020000    ....    DCD    131072
        0x0001db74:    40021004    ...@    DCD    1073876996
        0x0001db78:    00040000    ....    DCD    262144
        0x0001db7c:    40021008    ...@    DCD    1073877000
        0x0001db80:    00040000    ....    DCD    262144
        0x0001db84:    40021004    ...@    DCD    1073876996
        0x0001db88:    00080000    ....    DCD    524288
        0x0001db8c:    40021008    ...@    DCD    1073877000
        0x0001db90:    00080000    ....    DCD    524288
        0x0001db94:    40021004    ...@    DCD    1073876996
        0x0001db98:    00100000    ....    DCD    1048576
        0x0001db9c:    40021008    ...@    DCD    1073877000
        0x0001dba0:    00100000    ....    DCD    1048576
        0x0001dba4:    40021004    ...@    DCD    1073876996
        0x0001dba8:    00200000    .. .    DCD    2097152
        0x0001dbac:    40021008    ...@    DCD    1073877000
        0x0001dbb0:    00200000    .. .    DCD    2097152
        0x0001dbb4:    40021004    ...@    DCD    1073876996
        0x0001dbb8:    00400000    ..@.    DCD    4194304
        0x0001dbbc:    40021008    ...@    DCD    1073877000
        0x0001dbc0:    00400000    ..@.    DCD    4194304
        0x0001dbc4:    40021004    ...@    DCD    1073876996
        0x0001dbc8:    00800000    ....    DCD    8388608
        0x0001dbcc:    40021008    ...@    DCD    1073877000
        0x0001dbd0:    00800000    ....    DCD    8388608
        0x0001dbd4:    40021004    ...@    DCD    1073876996
        0x0001dbd8:    01000000    ....    DCD    16777216
        0x0001dbdc:    40021008    ...@    DCD    1073877000
        0x0001dbe0:    01000000    ....    DCD    16777216
        0x0001dbe4:    4002100c    ...@    DCD    1073877004
        0x0001dbe8:    00000001    ....    DCD    1
        0x0001dbec:    40021010    ...@    DCD    1073877008
        0x0001dbf0:    000000ff    ....    DCD    255
        0x0001dbf4:    4002100c    ...@    DCD    1073877004
        0x0001dbf8:    00000002    ....    DCD    2
        0x0001dbfc:    40021010    ...@    DCD    1073877008
        0x0001dc00:    000000ff    ....    DCD    255
        0x0001dc04:    4002100c    ...@    DCD    1073877004
        0x0001dc08:    00000004    ....    DCD    4
        0x0001dc0c:    40021010    ...@    DCD    1073877008
        0x0001dc10:    000000ff    ....    DCD    255
        0x0001dc14:    4002100c    ...@    DCD    1073877004
        0x0001dc18:    00000008    ....    DCD    8
        0x0001dc1c:    40021010    ...@    DCD    1073877008
        0x0001dc20:    000000ff    ....    DCD    255
        0x0001dc24:    4002100c    ...@    DCD    1073877004
        0x0001dc28:    00000010    ....    DCD    16
        0x0001dc2c:    40021010    ...@    DCD    1073877008
        0x0001dc30:    000000ff    ....    DCD    255
        0x0001dc34:    4002100c    ...@    DCD    1073877004
        0x0001dc38:    00000020     ...    DCD    32
        0x0001dc3c:    40021010    ...@    DCD    1073877008
        0x0001dc40:    000000ff    ....    DCD    255
        0x0001dc44:    4002100c    ...@    DCD    1073877004
        0x0001dc48:    00000040    @...    DCD    64
        0x0001dc4c:    40021010    ...@    DCD    1073877008
        0x0001dc50:    000000ff    ....    DCD    255
        0x0001dc54:    4002100c    ...@    DCD    1073877004
        0x0001dc58:    00000080    ....    DCD    128
        0x0001dc5c:    40021010    ...@    DCD    1073877008
        0x0001dc60:    000000ff    ....    DCD    255
        0x0001dc64:    4002100c    ...@    DCD    1073877004
        0x0001dc68:    00000400    ....    DCD    1024
        0x0001dc6c:    40021010    ...@    DCD    1073877008
        0x0001dc70:    00000400    ....    DCD    1024
    gAxiMemRange
        0x0001dc74:    10060000    ....    DCD    268828672
        0x0001dc78:    00080000    ....    DCD    524288
        0x0001dc7c:    40021028    (..@    DCD    1073877032
        0x0001dc80:    00000001    ....    DCD    1
        0x0001dc84:    100e0000    ....    DCD    269352960
        0x0001dc88:    00080000    ....    DCD    524288
        0x0001dc8c:    40021028    (..@    DCD    1073877032
        0x0001dc90:    00000002    ....    DCD    2
        0x0001dc94:    10160000    ....    DCD    269877248
        0x0001dc98:    00020000    ....    DCD    131072
        0x0001dc9c:    4002105c    \..@    DCD    1073877084
        0x0001dca0:    00000002    ....    DCD    2
        0x0001dca4:    10180000    ....    DCD    270008320
        0x0001dca8:    00040000    ....    DCD    262144
        0x0001dcac:    4002105c    \..@    DCD    1073877084
        0x0001dcb0:    00000001    ....    DCD    1
        0x0001dcb4:    101d0000    ....    DCD    270336000
        0x0001dcb8:    00008000    ....    DCD    32768
        0x0001dcbc:    4002107c    |..@    DCD    1073877116
        0x0001dcc0:    00000002    ....    DCD    2
        0x0001dcc4:    101c0000    ....    DCD    270270464
        0x0001dcc8:    00010000    ....    DCD    65536
        0x0001dccc:    4002107c    |..@    DCD    1073877116
        0x0001dcd0:    00000001    ....    DCD    1
    g_DefaultMcuMemCfg
        0x0001dcd4:    07070102    ....    DCD    117899522
        0x0001dcd8:    0001        ..      DCW    1
    g_DefaultSRAMCfg
        0x0001dcda:    0003        ..      DCW    3
        0x0001dcdc:    03000000    ....    DCD    50331648
    g_DeviceNameApollo4b
        0x0001dce0:    6c6f7041    Apol    DCD    1819242561
        0x0001dce4:    62346f6c    lo4b    DCD    1647603564
        0x0001dce8:    00          .       DCB    0
    g_TempRange
        0x0001dce9:    436f6d      Com     DCB    67,111,109
        0x0001dcec:    6372656d    merc    DCD    1668441453
        0x0001dcf0:    006c6169    ial.    DCD    7102825
        0x0001dcf4:    696c694d    Mili    DCD    1768712525
        0x0001dcf8:    79726174    tary    DCD    2037539188
        0x0001dcfc:    41000000    ...A    DCD    1090519040
        0x0001dd00:    6d6f7475    utom    DCD    1836020853
        0x0001dd04:    7669746f    otiv    DCD    1986622575
        0x0001dd08:    6e490065    e.In    DCD    1850277989
        0x0001dd0c:    74737564    dust    DCD    1953723748
        0x0001dd10:    6c616972    rial    DCD    1818323314
        0x0001dd14:    00000000    ....    DCD    0
    g_am_hal_bootrom_helper
        0x0001dd18:    0800004d    M...    DCD    134217805
        0x0001dd1c:    08000051    Q...    DCD    134217809
        0x0001dd20:    08000055    U...    DCD    134217813
        0x0001dd24:    08000059    Y...    DCD    134217817
        0x0001dd28:    0800006d    m...    DCD    134217837
        0x0001dd2c:    08000075    u...    DCD    134217845
        0x0001dd30:    08000079    y...    DCD    134217849
        0x0001dd34:    08000081    ....    DCD    134217857
        0x0001dd38:    08000099    ....    DCD    134217881
        0x0001dd3c:    0800009d    ....    DCD    134217885
    g_am_hal_mcuctrl_sram_size
        0x0001dd40:    02000180    ....    DCD    33554816
        0x0001dd44:    01800180    ....    DCD    25166208
        0x0001dd48:    00000400    ....    DCD    1024
        0x0001dd4c:    04000180    ....    DCD    67109248
        0x0001dd50:    018001e0    ....    DCD    25166304
        0x0001dd54:    01800400    ....    DCD    25166848
        0x0001dd58:    08000180    ....    DCD    134218112
        0x0001dd5c:    01800180    ....    DCD    25166208
        0x0001dd60:    01800800    ....    DCD    25167872
        0x0001dd64:    08000180    ....    DCD    134218112
        0x0001dd68:    01800180    ....    DCD    25166208
        0x0001dd6c:    01800800    ....    DCD    25167872
        0x0001dd70:    08000180    ....    DCD    134218112
        0x0001dd74:    01800180    ....    DCD    25166208
        0x0001dd78:    01800800    ....    DCD    25167872
        0x0001dd7c:    08000180    ....    DCD    134218112
        0x0001dd80:    01800180    ....    DCD    25166208
        0x0001dd84:    01800800    ....    DCD    25167872
        0x0001dd88:    08000180    ....    DCD    134218112
        0x0001dd8c:    01800180    ....    DCD    25166208
        0x0001dd90:    01800800    ....    DCD    25167872
        0x0001dd94:    08000180    ....    DCD    134218112
        0x0001dd98:    01800180    ....    DCD    25166208
        0x0001dd9c:    01800800    ....    DCD    25167872
    g_sBspUartConfig
        0x0001dda0:    0001c200    ....    DCD    115200
        0x0001dda4:    00000203    ....    DCD    515
        0x0001dda8:    02020000    ....    DCD    33685504
    g_ui32HALversion
        0x0001ddac:    04050000    ....    DCD    67436544
    g_ui8DeviceNameUnknown
        0x0001ddb0:    6e6b6e55    Unkn    DCD    1852534357
        0x0001ddb4:    206e776f    own     DCD    544110447
        0x0001ddb8:    69766564    devi    DCD    1769366884
        0x0001ddbc:    6563        ce      DCW    25955
        0x0001ddbe:    00          .       DCB    0
    g_ui8HALcompiler
        0x0001ddbf:    41          A       DCB    65
        0x0001ddc0:    43434d52    RMCC    DCD    1128484178
        0x0001ddc4:    39313620     619    DCD    959526432
        0x0001ddc8:    34303030    0004    DCD    875573296
        0x0001ddcc:    00          .       DCB    0
    g_ui8VendorNameAmbq
        0x0001ddcd:    414d42      AMB     DCB    65,77,66
        0x0001ddd0:    0051        Q.      DCW    81
    g_ui8VendorNameUnknown
        0x0001ddd2:    3f3f        ??      DCW    16191
        0x0001ddd4:    00003f3f    ??..    DCD    16191
    __tagsym$$used.7
    sGlobalAccess
        0x0001ddd8:    0001e300    ....    DCD    123648
        0x0001dddc:    0001e2ec    ....    DCD    123628
        0x0001dde0:    0001e2c4    ....    DCD    123588
        0x0001dde4:    0001e2d8    ....    DCD    123608
        0x0001dde8:    10060004    ....    DCD    268828676
        0x0001ddec:    10060018    ....    DCD    268828696
        0x0001ddf0:    1006002c    ,...    DCD    268828716
    .L.str
        0x0001ddf4:    6c6c6548    Hell    DCD    1819043144
        0x0001ddf8:    6f57206f    o Wo    DCD    1867980911
        0x0001ddfc:    21646c72    rld!    DCD    560229490
        0x0001de00:    0a0a        ..      DCW    2570
        0x0001de02:    00          .       DCB    0
    .L.str.5
        0x0001de03:    44          D       DCB    68
        0x0001de04:    63697665    evic    DCD    1667855973
        0x0001de08:    6e492065    e In    DCD    1850286181
        0x0001de0c:    0a3a6f66    fo:.    DCD    171601766
        0x0001de10:    72615009    .Par    DCD    1918980105
        0x0001de14:    756e2074    t nu    DCD    1970151540
        0x0001de18:    7265626d    mber    DCD    1919246957
        0x0001de1c:    3020203a    :  0    DCD    807411770
        0x0001de20:    38302578    x%08    DCD    942679416
        0x0001de24:    43090a58    X..C    DCD    1124665944
        0x0001de28:    20706968    hip     DCD    544237928
        0x0001de2c:    3a304449    ID0:    DCD    976241737
        0x0001de30:    20202020            DCD    538976288
        0x0001de34:    25783020     0x%    DCD    628633632
        0x0001de38:    0a583830    08X.    DCD    173553712
        0x0001de3c:    69684309    .Chi    DCD    1768440585
        0x0001de40:    44492070    p ID    DCD    1145643120
        0x0001de44:    20203a31    1:      DCD    538982961
        0x0001de48:    30202020       0    DCD    807411744
        0x0001de4c:    38302578    x%08    DCD    942679416
        0x0001de50:    52090a58    X..R    DCD    1376324184
        0x0001de54:    73697665    evis    DCD    1936291429
        0x0001de58:    3a6e6f69    ion:    DCD    980316009
        0x0001de5c:    20202020            DCD    538976288
        0x0001de60:    25783020     0x%    DCD    628633632
        0x0001de64:    20583830    08X     DCD    542652464
        0x0001de68:    76655228    (Rev    DCD    1986351656
        0x0001de6c:    63256325    %c%c    DCD    1663394597
        0x0001de70:    0a29        ).      DCW    2601
        0x0001de72:    00          .       DCB    0
    .L.str.6
        0x0001de73:    09          .       DCB    9
        0x0001de74:    4d41524d    MRAM    DCD    1296126541
        0x0001de78:    7a697320     siz    DCD    2053731104
        0x0001de7c:    20203a65    e:      DCD    538983013
        0x0001de80:    64372520     %7d    DCD    1681335584
        0x0001de84:    64252820     (%d    DCD    1680156704
        0x0001de88:    25424b20     KB%    DCD    625101600
        0x0001de8c:    000a2973    s)..    DCD    665971
    .L.str.7
        0x0001de90:    43544409    .DTC    DCD    1129595913
        0x0001de94:    6973204d    M si    DCD    1769152589
        0x0001de98:    203a657a    ze:     DCD    540697978
        0x0001de9c:    37252020      %7    DCD    925179936
        0x0001dea0:    25282064    d (%    DCD    623386724
        0x0001dea4:    424b2064    d KB    DCD    1112219748
        0x0001dea8:    0a297325    %s).    DCD    170488613
        0x0001deac:    00          .       DCB    0
    .L.str.8
        0x0001dead:    095353      .SS     DCB    9,83,83
        0x0001deb0:    204d4152    RAM     DCD    541933906
        0x0001deb4:    657a6973    size    DCD    1702521203
        0x0001deb8:    2520203a    :  %    DCD    622862394
        0x0001debc:    28206437    7d (    DCD    673211447
        0x0001dec0:    4b206425    %d K    DCD    1260413989
        0x0001dec4:    29732542    B%s)    DCD    695412034
        0x0001dec8:    000a        ..      DCW    10
    .L.str.20
        0x0001deca:    3d3d        ==      DCW    15677
        0x0001decc:    3d          =       DCB    61
    .L.str.40
        0x0001decd:    3d3d3d      ===     DCB    61,61,61
        0x0001ded0:    3d3d3d3d    ====    DCD    1027423549
        0x0001ded4:    0a3d3d3d    ===.    DCD    171785533
        0x0001ded8:    00          .       DCB    0
    .L.str.39
        0x0001ded9:    444542      DEB     DCB    68,69,66
        0x0001dedc:    49204755    UG I    DCD    1226852181
        0x0001dee0:    0a4f464e    NFO.    DCD    172967502
        0x0001dee4:    00          .       DCB    0
    .L.str.19
        0x0001dee5:    534543      SEC     DCB    83,69,67
        0x0001dee8:    54495255    URIT    DCD    1414091349
        0x0001deec:    4e492059    Y IN    DCD    1313415257
        0x0001def0:    000a4f46    FO..    DCD    675654
    .L.str.37
        0x0001def4:    6c756f43    Coul    DCD    1819635523
        0x0001def8:    6f6e2064    d no    DCD    1869488228
        0x0001defc:    6e652074    t en    DCD    1852121204
        0x0001df00:    656c6261    able    DCD    1701601889
        0x0001df04:    62656420     deb    DCD    1650811936
        0x0001df08:    65676775    ugge    DCD    1701275509
        0x0001df0c:    73752072    r us    DCD    1937055858
        0x0001df10:    20676e69    ing     DCD    543649385
        0x0001df14:    0a554344    DCU.    DCD    173359940
        0x0001df18:    00          .       DCB    0
    .L.str.38
        0x0001df19:    466f72      For     DCB    70,111,114
        0x0001df1c:    6c626963    cibl    DCD    1818388835
        0x0001df20:    6e652079    y en    DCD    1852121209
        0x0001df24:    696c6261    abli    DCD    1768710753
        0x0001df28:    6420676e    ng d    DCD    1679845230
        0x0001df2c:    67756265    ebug    DCD    1735746149
        0x0001df30:    20726567    ger     DCD    544367975
        0x0001df34:    6e697375    usin    DCD    1852404597
        0x0001df38:    43442067    g DC    DCD    1128538215
        0x0001df3c:    0a55        U.      DCW    2645
        0x0001df3e:    00          .       DCB    0
    .L.str.21
        0x0001df3f:    52          R       DCB    82
        0x0001df40:    74657365    eset    DCD    1952805733
        0x0001df44:    61745320     Sta    DCD    1635013408
        0x0001df48:    3a737574    tus:    DCD    980645236
        0x0001df4c:    20202020            DCD    538976288
        0x0001df50:    58257830    0x%X    DCD    1478850608
        0x0001df54:    000a        ..      DCW    10
    .L.str.33
        0x0001df56:    6d61        am      DCW    28001
        0x0001df58:    6c61685f    _hal    DCD    1818323039
        0x0001df5c:    6365735f    _sec    DCD    1667593055
        0x0001df60:    74697275    urit    DCD    1953067637
        0x0001df64:    65675f79    y_ge    DCD    1701273465
        0x0001df68:    6e695f74    t_in    DCD    1852399476
        0x0001df6c:    66206f66    fo f    DCD    1713401702
        0x0001df70:    656c6961    aile    DCD    1701603681
        0x0001df74:    78302064    d 0x    DCD    2016419940
        0x0001df78:    000a5825    %X..    DCD    677925
    .L.str.34
        0x0001df7c:    434f5309    .SOC    DCD    1129272073
        0x0001df80:    3a644920     Id:    DCD    979650848
        0x0001df84:    7830090a    ..0x    DCD    2016413962
        0x0001df88:    58383025    %08X    DCD    1480077349
        0x0001df8c:    30203a20     : 0    DCD    807418400
        0x0001df90:    38302578    x%08    DCD    942679416
        0x0001df94:    203a2058    X :     DCD    540680280
        0x0001df98:    30257830    0x%0    DCD    807761968
        0x0001df9c:    3a205838    8X :    DCD    975198264
        0x0001dfa0:    25783020     0x%    DCD    628633632
        0x0001dfa4:    0a583830    08X.    DCD    173553712
        0x0001dfa8:    25783009    .0x%    DCD    628633609
        0x0001dfac:    20583830    08X     DCD    542652464
        0x0001dfb0:    7830203a    : 0x    DCD    2016419898
        0x0001dfb4:    58383025    %08X    DCD    1480077349
        0x0001dfb8:    30203a20     : 0    DCD    807418400
        0x0001dfbc:    38302578    x%08    DCD    942679416
        0x0001dfc0:    203a2058    X :     DCD    540680280
        0x0001dfc4:    30257830    0x%0    DCD    807761968
        0x0001dfc8:    000a5838    8X..    DCD    677944
    .L.str.45
        0x0001dfcc:    77615209    .Raw    DCD    2002866697
        0x0001dfd0:    55434420     DCU    DCD    1430471712
        0x0001dfd4:    636f4c20     Loc    DCD    1668238368
        0x0001dfd8:    3a20206b    k  :    DCD    975183979
        0x0001dfdc:    25783020     0x%    DCD    628633632
        0x0001dfe0:    20583830    08X     DCD    542652464
        0x0001dfe4:    7830203a    : 0x    DCD    2016419898
        0x0001dfe8:    58383025    %08X    DCD    1480077349
        0x0001dfec:    30203a20     : 0    DCD    807418400
        0x0001dff0:    38302578    x%08    DCD    942679416
        0x0001dff4:    203a2058    X :     DCD    540680280
        0x0001dff8:    30257830    0x%0    DCD    807761968
        0x0001dffc:    000a5838    8X..    DCD    677944
    .L.str.44
        0x0001e000:    77615209    .Raw    DCD    2002866697
        0x0001e004:    55434420     DCU    DCD    1430471712
        0x0001e008:    616e4520     Ena    DCD    1634616608
        0x0001e00c:    3a656c62    ble:    DCD    979725410
        0x0001e010:    25783020     0x%    DCD    628633632
        0x0001e014:    20583830    08X     DCD    542652464
        0x0001e018:    7830203a    : 0x    DCD    2016419898
        0x0001e01c:    58383025    %08X    DCD    1480077349
        0x0001e020:    30203a20     : 0    DCD    807418400
        0x0001e024:    38302578    x%08    DCD    942679416
        0x0001e028:    203a2058    X :     DCD    540680280
        0x0001e02c:    30257830    0x%0    DCD    807761968
        0x0001e030:    000a5838    8X..    DCD    677944
    .L.str.35
        0x0001e034:    75636553    Secu    DCD    1969448275
        0x0001e038:    44206572    re D    DCD    1142973810
        0x0001e03c:    67756265    ebug    DCD    1735746149
        0x0001e040:    72654320     Cer    DCD    1919238944
        0x0001e044:    69666974    tifi    DCD    1768319348
        0x0001e048:    65746163    cate    DCD    1702125923
        0x0001e04c:    636f4c20     Loc    DCD    1668238368
        0x0001e050:    6f697461    atio    DCD    1869182049
        0x0001e054:    30203a6e    n: 0    DCD    807418478
        0x0001e058:    38302578    x%08    DCD    942679416
        0x0001e05c:    0a58        X.      DCW    2648
        0x0001e05e:    00          .       DCB    0
    .L.str.36
        0x0001e05f:    53          S       DCB    83
        0x0001e060:    4f205242    BR O    DCD    1327518274
        0x0001e064:    41205450    PT A    DCD    1092637776
        0x0001e068:    65726464    ddre    DCD    1701995620
        0x0001e06c:    203a7373    ss:     DCD    540701555
        0x0001e070:    30257830    0x%0    DCD    807761968
        0x0001e074:    000a5838    8X..    DCD    677944
    .L.str.14
        0x0001e078:    204c4148    HAL     DCD    541868360
        0x0001e07c:    204b4453    SDK     DCD    541803603
        0x0001e080:    73726576    vers    DCD    1936876918
        0x0001e084:    3a6e6f69    ion:    DCD    980316009
        0x0001e088:    2e642520     %d.    DCD    778315040
        0x0001e08c:    252e6425    %d.%    DCD    623797285
        0x0001e090:    0a64        d.      DCW    2660
        0x0001e092:    00          .       DCB    0
    .L.str.9
        0x0001e093:    09          .       DCB    9
        0x0001e094:    6d697254    Trim    DCD    1835627092
        0x0001e098:    76655220     Rev    DCD    1986351648
        0x0001e09c:    20202020            DCD    538976288
        0x0001e0a0:    646c2520     %ld    DCD    1684808992
        0x0001e0a4:    000a        ..      DCW    10
    .L.str.10
        0x0001e0a6:    5409        .T      DCW    21513
        0x0001e0a8:    206d6972    rim     DCD    544041330
        0x0001e0ac:    20766552    Rev     DCD    544630098
        0x0001e0b0:    6e6b6e55    Unkn    DCD    1852534357
        0x0001e0b4:    0a6e776f    own.    DCD    175011695
        0x0001e0b8:    00          .       DCB    0
    .L.str.46
        0x0001e0b9:    446f6e      Don     DCB    68,111,110
        0x0001e0bc:    69772065    e wi    DCD    1769414757
        0x0001e0c0:    70206874    th p    DCD    1881172084
        0x0001e0c4:    746e6972    rint    DCD    1953393010
        0x0001e0c8:    45202e73    s. E    DCD    1159736947
        0x0001e0cc:    7265746e    nter    DCD    1919251566
        0x0001e0d0:    20676e69    ing     DCD    543649385
        0x0001e0d4:    6c696857    Whil    DCD    1818847319
        0x0001e0d8:    6f6c2065    e lo    DCD    1869357157
        0x0001e0dc:    000a706f    op..    DCD    684143
    .L.str.4
        0x0001e0e0:    706d6554    Temp    DCD    1886217556
        0x0001e0e4:    6e615220     Ran    DCD    1851871776
        0x0001e0e8:    203a6567    ge:     DCD    540697959
        0x0001e0ec:    20202020            DCD    538976288
        0x0001e0f0:    000a7325    %s..    DCD    684837
    .L.str.13
        0x0001e0f4:    204c4148    HAL     DCD    541868360
        0x0001e0f8:    706d6f43    Comp    DCD    1886220099
        0x0001e0fc:    72656c69    iler    DCD    1919249513
        0x0001e100:    2020203a    :       DCD    538976314
        0x0001e104:    0a732520     %s.    DCD    175318304
        0x0001e108:    00          .       DCB    0
    .L.str.11
        0x0001e109:    417070      App     DCB    65,112,112
        0x0001e10c:    6d6f4320     Com    DCD    1836008224
        0x0001e110:    656c6970    pile    DCD    1701603696
        0x0001e114:    20203a72    r:      DCD    538983026
        0x0001e118:    73252020      %s    DCD    1931812896
        0x0001e11c:    000a        ..      DCW    10
    .L.str.3
        0x0001e11e:    6150        Pa      DCW    24912
        0x0001e120:    67616b63    ckag    DCD    1734437731
        0x0001e124:    79542065    e Ty    DCD    2035556453
        0x0001e128:    203a6570    pe:     DCD    540697968
        0x0001e12c:    73252020      %s    DCD    1931812896
        0x0001e130:    000a        ..      DCW    10
    .L.str.1
        0x0001e132:    6556        Ve      DCW    25942
        0x0001e134:    726f646e    ndor    DCD    1919902830
        0x0001e138:    6d614e20     Nam    DCD    1835093536
        0x0001e13c:    20203a65    e:      DCD    538983013
        0x0001e140:    000a7325    %s..    DCD    684837
    .L.str.2
        0x0001e144:    69766544    Devi    DCD    1769366852
        0x0001e148:    74206563    ce t    DCD    1948280163
        0x0001e14c:    3a657079    ype:    DCD    979726457
        0x0001e150:    73252020      %s    DCD    1931812896
        0x0001e154:    000a        ..      DCW    10
    .L.str.24
        0x0001e156:    4253        SB      DCW    16979
        0x0001e158:    6576204c    L ve    DCD    1702240332
        0x0001e15c:    6f697372    rsio    DCD    1869181810
        0x0001e160:    20203a6e    n:      DCD    538983022
        0x0001e164:    30202020       0    DCD    807411744
        0x0001e168:    20582578    x%X     DCD    542647672
        0x0001e16c:    7830202d    - 0x    DCD    2016419885
        0x0001e170:    202c5825    %X,     DCD    539777061
        0x0001e174:    000a7325    %s..    DCD    684837
    .L.str.26
        0x0001e178:    69766544    Devi    DCD    1769366852
        0x0001e17c:    4c206563    ce L    DCD    1277191523
        0x0001e180:    203a5343    CS:     DCD    540693315
        0x0001e184:    000a7325    %s..    DCD    684837
    .L.str.15
        0x0001e188:    204c4148    HAL     DCD    541868360
        0x0001e18c:    706d6f63    comp    DCD    1886220131
        0x0001e190:    64656c69    iled    DCD    1684368489
        0x0001e194:    74697720     wit    DCD    1953068832
        0x0001e198:    73252068    h %s    DCD    1931812968
        0x0001e19c:    7974732d    -sty    DCD    2037674797
        0x0001e1a0:    7220656c    le r    DCD    1914725740
        0x0001e1a4:    73696765    egis    DCD    1936287589
        0x0001e1a8:    73726574    ters    DCD    1936876916
        0x0001e1ac:    000a        ..      DCW    10
    .L.str.43
        0x0001e1ae:    7551        Qu      DCW    30033
        0x0001e1b0:    66696c61    alif    DCD    1718185057
        0x0001e1b4:    20646569    ied     DCD    543450473
        0x0001e1b8:    20554344    DCU     DCD    542458692
        0x0001e1bc:    6b636f4c    Lock    DCD    1801678668
        0x0001e1c0:    6c615620     Val    DCD    1818318368
        0x0001e1c4:    20202020            DCD    538976288
        0x0001e1c8:    30202020       0    DCD    807411744
        0x0001e1cc:    0a782578    x%x.    DCD    175646072
        0x0001e1d0:    00          .       DCB    0
    .L.str.32
        0x0001e1d1:    53424c      SBL     DCB    83,66,76
        0x0001e1d4:    61745320     Sta    DCD    1635013408
        0x0001e1d8:    676e6967    ging    DCD    1735289191
        0x0001e1dc:    65724120     Are    DCD    1701986592
        0x0001e1e0:    20203a61    a:      DCD    538983009
        0x0001e1e4:    30202020       0    DCD    807411744
        0x0001e1e8:    0a782578    x%x.    DCD    175646072
        0x0001e1ec:    00          .       DCB    0
    .L.str.25
        0x0001e1ed:    534252      SBR     DCB    83,66,82
        0x0001e1f0:    72657620     ver    DCD    1919252000
        0x0001e1f4:    6e6f6973    sion    DCD    1852795251
        0x0001e1f8:    2020203a    :       DCD    538976314
        0x0001e1fc:    78302020      0x    DCD    2016419872
        0x0001e200:    000a7825    %x..    DCD    686117
    .L.str.41
        0x0001e204:    6769724f    Orig    DCD    1734963791
        0x0001e208:    6c616e69    inal    DCD    1818324585
        0x0001e20c:    61755120     Qua    DCD    1635078432
        0x0001e210:    6966696c    lifi    DCD    1768319340
        0x0001e214:    44206465    ed D    DCD    1142973541
        0x0001e218:    56205543    CU V    DCD    1444959555
        0x0001e21c:    20206c61    al      DCD    538995809
        0x0001e220:    25783020     0x%    DCD    628633632
        0x0001e224:    0a78        x.      DCW    2680
        0x0001e226:    00          .       DCB    0
    .L.str.42
        0x0001e227:    43          C       DCB    67
        0x0001e228:    65727275    urre    DCD    1701999221
        0x0001e22c:    5120746e    nt Q    DCD    1361081454
        0x0001e230:    696c6175    uali    DCD    1768710517
        0x0001e234:    64656966    fied    DCD    1684367718
        0x0001e238:    55434420     DCU    DCD    1430471712
        0x0001e23c:    6c615620     Val    DCD    1818318368
        0x0001e240:    25783020     0x%    DCD    628633632
        0x0001e244:    78          x       DCB    120
    .L.str.18
        0x0001e245:    0a00        ..      DCB    10,0
    .L.str.12
        0x0001e247:    41          A       DCB    65
        0x0001e248:    43434d52    RMCC    DCD    1128484178
        0x0001e24c:    39313620     619    DCD    959526432
        0x0001e250:    34303030    0004    DCD    875573296
        0x0001e254:    00          .       DCB    0
    .L.str.30
        0x0001e255:    524d41      RMA     DCB    82,77,65
        0x0001e258:    00          .       DCB    0
    .L.str.16
        0x0001e259:    414d5f      AM_     DCB    65,77,95
        0x0001e25c:    00474552    REG.    DCD    4670802
    .L.str.27
        0x0001e260:    4d43        CM      DCW    19779
        0x0001e262:    00          .       DCB    0
    .L.str.28
        0x0001e263:    44          D       DCB    68
        0x0001e264:    004d        M.      DCW    77
    .L.str.17
        0x0001e266:    4d43        CM      DCW    19779
        0x0001e268:    00534953    SIS.    DCD    5458259
    .L.str.22
        0x0001e26c:    4f464e49    INFO    DCD    1330007625
        0x0001e270:    61762030    0 va    DCD    1635131440
        0x0001e274:    2c64696c    lid,    DCD    744778092
        0x0001e278:    72657620     ver    DCD    1919252000
        0x0001e27c:    25783020     0x%    DCD    628633632
        0x0001e280:    0058        X.      DCW    88
    .L.str.31
        0x0001e282:    6e55        Un      DCW    28245
        0x0001e284:    69666564    defi    DCD    1768318308
        0x0001e288:    0064656e    ned.    DCD    6579566
    .L.str.23
        0x0001e28c:    4f464e49    INFO    DCD    1330007625
        0x0001e290:    6e692030    0 in    DCD    1852383280
        0x0001e294:    696c6176    vali    DCD    1768710518
        0x0001e298:    0064        d.      DCW    100
    .L.str.29
        0x0001e29a:    6553        Se      DCW    25939
        0x0001e29c:    65727563    cure    DCD    1701999971
        0x0001e2a0:    00          .       DCB    0
    .L.str
        0x0001e2a1:    0a0a0a      ...     DCB    10,10,10
        0x0001e2a4:    0a0a0a0a    ....    DCD    168430090
        0x0001e2a8:    0a0a0a0a    ....    DCD    168430090
        0x0001e2ac:    0a0a0a0a    ....    DCD    168430090
        0x0001e2b0:    000a0a0a    ....    DCD    657930
    g_ui32DSpintbl
        0x0001e2b4:    8fc007e0    ....    DCD    2411726816
        0x0001e2b8:    e3fbffff    ....    DCD    3824943103
        0x0001e2bc:    01ffffff    ....    DCD    33554431
        0x0001e2c0:    00000000    ....    DCD    0
    __tagsym$$used.1
    ui32DSP0Allowed
        0x0001e2c4:    00000000    ....    DCD    0
        0x0001e2c8:    00000000    ....    DCD    0
        0x0001e2cc:    00000000    ....    DCD    0
        0x0001e2d0:    00000000    ....    DCD    0
        0x0001e2d4:    00000000    ....    DCD    0
    __tagsym$$used.2
    ui32DSP1Allowed
        0x0001e2d8:    00000000    ....    DCD    0
        0x0001e2dc:    00000000    ....    DCD    0
        0x0001e2e0:    00000000    ....    DCD    0
        0x0001e2e4:    00000000    ....    DCD    0
        0x0001e2e8:    00000000    ....    DCD    0
    __tagsym$$used.0
    ui32MCUAllowed
        0x0001e2ec:    00000000    ....    DCD    0
        0x0001e2f0:    00000000    ....    DCD    0
        0x0001e2f4:    00000000    ....    DCD    0
        0x0001e2f8:    00000000    ....    DCD    0
        0x0001e2fc:    00000000    ....    DCD    0
    __tagsym$$used.3
    ui32SharedAccess
        0x0001e300:    00000000    ....    DCD    0
        0x0001e304:    00000000    ....    DCD    0
        0x0001e308:    00000000    ....    DCD    0
        0x0001e30c:    00000000    ....    DCD    0
        0x0001e310:    00000000    ....    DCD    0
    Region$$Table$$Base
        0x0001e314:    0001e350    P...    DCD    123728
        0x0001e318:    10000000    ....    DCD    268435456
        0x0001e31c:    000001e8    ....    DCD    488
        0x0001e320:    00018270    p...    DCD    98928
        0x0001e324:    0001e470    p...    DCD    124016
        0x0001e328:    10060000    ....    DCD    268828672
        0x0001e32c:    00000040    @...    DCD    64
        0x0001e330:    000182cc    ....    DCD    99020
        0x0001e334:    0001e470    p...    DCD    124016
        0x0001e338:    100001e8    ....    DCD    268435944
        0x0001e33c:    00002000    . ..    DCD    8192
        0x0001e340:    000182e8    ....    DCD    99048
    Region$$Table$$Limit

** Section #2 'MCU_TCM' (SHT_PROGBITS) [SHF_ALLOC + SHF_WRITE]
    Size   : 288 bytes (alignment 16)
    Address: 0x10000000

    Data section was compressed (Original size: 488 bytes)

    0x10000000:   08 1e 0c 40 18 1e 0c 40 6d db 02 40 d1 02 00 00    ...@...@m..@....
    0x10000010:   92 24 01 80 20 01 00 00 01 00 00 00 ff ff ff ff    .$.. ...........
    0x10000020:   ff ff ff ff ff ff ff ff ff ff ff ff ff ff ff ff    ................
    0x10000030:   ff ff ff ff 04 00 00 00 04 04 00 00 00 04 00 00    ................
    0x10000040:   44 f2 04 01 c4 f2 01 01 c3 22 4a 60 05 22 cb 6c    D........"J`.".l
    0x10000050:   43 f0 10 03 cb 64 0a 65 01 23 cb 60 00 22 0a 61    C....d.e.#.`.".a
    0x10000060:   4a 61 8a 61 00 f0 0f 00 0b 68 43 f0 08 03 0b 60    Ja.a.....hC....`
    0x10000070:   0a 68 22 f0 08 02 0a 60 09 22 0b 6d 62 f3 95 23    .h"....`.".mb..#
    0x10000080:   0b 65 06 22 0b 6d 62 f3 04 03 0b 65 0a 68 42 f0    .e.".mb....e.hB.
    0x10000090:   08 02 0a 60 0b 68 23 f0 08 03 0b 60 ca 6e 0b 68    ...`.h#....`.n.h
    0x100000a0:   23 f0 08 03 12 09 0b 60 40 ea 02 10 c8 60 05 20    #......`@....`. 
    0x100000b0:   0a 6d 60 f3 04 02 0a 65 08 68 40 f0 08 00 08 60    .m`....e.h@....`
    0x100000c0:   0a 68 22 f0 08 02 0a 60 00 22 08 6d 6f f3 95 20    .h"....`.".mo.. 
    0x100000d0:   08 65 ca 60 05 20 0a 6d 60 f3 04 02 0a 65 08 68    .e.`. .m`....e.h
    0x100000e0:   40 f0 08 00 08 60 0a 68 22 f0 08 02 0a 60 00 22    @....`.h"....`."
    0x100000f0:   c8 6c 20 f0 10 00 c8 64 4a 60 70 47 44 f2 04 01    .l ....dJ`pGD...
    0x10000100:   c4 f2 01 01 c3 20 48 60 05 20 ca 6c 42 f0 10 02    ..... H`. .lB...
    0x10000110:   ca 64 08 65 01 22 ca 60 00 20 08 61 48 61 88 61    .d.e.".`. .aHa.a
    0x10000120:   0a 68 42 f0 08 02 0a 60 08 68 20 f0 08 00 08 60    .hB....`.h ....`
    0x10000130:   09 20 0a 6d 60 f3 95 22 0a 65 06 20 0a 6d 60 f3    . .m`..".e. .m`.
    0x10000140:   04 02 0a 65 08 68 40 f0 08 00 08 60 45 f6 a0 00    ...e.h@....`E...
    0x10000150:   0a 68 22 f0 08 02 0a 60 c0 f2 10 00 ca 6e 02 f0    .h"....`.....n..
    0x10000160:   0f 02 02 43 ca 60 05 20 0a 6d 60 f3 04 02 0a 65    ...C.`. .m`....e
    0x10000170:   08 68 40 f0 08 00 08 60 0a 68 22 f0 08 02 0a 60    .h@....`.h"....`
    0x10000180:   00 22 08 6d 6f f3 95 20 08 65 ca 60 05 20 0a 6d    .".mo.. .e.`. .m
    0x10000190:   60 f3 04 02 0a 65 08 68 40 f0 08 00 08 60 0a 68    `....e.h@....`.h
    0x100001a0:   22 f0 08 02 0a 60 00 22 c8 6c 20 f0 10 00 c8 64    "....`.".l ....d
    0x100001b0:   4a 60 00 20 70 47 00 00 41 00 00 10 fd 00 00 10    J`. pG..A.......
    0x100001c0:   08 60 bf f3 4f 8f 30 bf bf f3 6f 8f 70 47 00 bf    .`..O.0...o.pG..
    0x100001d0:   00 00 00 00 00 00 00 00 00 00 00 00 00 00 00 00    ................
    0x100001e0:   c1 01 00 10 00 00 00 00                            ........


** Section #3 'MCU_TCM' (SHT_NOBITS) [SHF_ALLOC + SHF_WRITE]
    Size   : 8192 bytes (alignment 8)
    Address: 0x100001e8


** Section #4 'SHARED_SRAM' (SHT_PROGBITS) [SHF_ALLOC + SHF_WRITE]
    Size   : 64 bytes (alignment 4)
    Address: 0x10060000

    0x10060000:   d8 dd 01 00 00 00 00 00 00 00 00 00 00 00 00 00    ................
    0x10060010:   00 00 00 00 00 00 00 00 00 00 00 00 00 00 00 00    ................
    0x10060020:   00 00 00 00 00 00 00 00 00 00 00 00 00 00 00 00    ................
    0x10060030:   00 00 00 00 00 00 00 00 00 00 00 00 00 00 00 00    ................


** Section #5 '.debug_abbrev' (SHT_PROGBITS)
    Size   : 1200 bytes


** Section #6 '.debug_frame' (SHT_PROGBITS)
    Size   : 6524 bytes


** Section #7 '.debug_info' (SHT_PROGBITS)
    Size   : 45466 bytes


** Section #8 '.debug_line' (SHT_PROGBITS)
    Size   : 5706 bytes


** Section #9 '.debug_ranges' (SHT_PROGBITS)
    Size   : 200 bytes


** Section #10 '.debug_str' (SHT_PROGBITS)
    Size   : 28109 bytes


** Section #11 '.symtab' (SHT_SYMTAB)
    Size   : 9696 bytes (alignment 4)
    String table #12 '.strtab'
    Last local symbol no. 320

    Symbol table .symtab (605 symbols, 320 local)

      #  Symbol Name                Value      Bind  Sec  Type  Vis  Size
    ========================================================================

      1  $d                         0x00018000   Lc    1   --   De 
      2  $t                         0x00018200   Lc    1   --   De 
      3  $d                         0x00018230   Lc    1   --   De 
      4  $t                         0x00018234   Lc    1   --   De 
      5  $d                         0x00018268   Lc    1   --   De 
      6  $t                         0x00018270   Lc    1   --   De 
      7  $d                         0x0001833a   Lc    1   --   De 
      8  $t                         0x00018348   Lc    1   --   De 
      9  $d                         0x000184a0   Lc    1   --   De 
     10  $t                         0x000184a4   Lc    1   --   De 
     11  $d                         0x000184ac   Lc    1   --   De 
     12  $t                         0x000184b0   Lc    1   --   De 
     13  $t.4                       0x000184b4   Lc    1   --   De 
     14  $d.2                       0x00018a06   Lc    1   --   De 
     15  $t.3                       0x00018a30   Lc    1   --   De 
     16  $d.5                       0x0001933e   Lc    1   --   De 
     17  $t.6                       0x00019344   Lc    1   --   De 
     18  $d.6                       0x000198c4   Lc    1   --   De 
     19  $t.6                       0x000198d4   Lc    1   --   De 
     20  $d.24                      0x0001999c   Lc    1   --   De 
     21  $t.25                      0x000199a0   Lc    1   --   De 
     22  $d.6                       0x00019df8   Lc    1   --   De 
     23  $t.7                       0x00019e00   Lc    1   --   De 
     24  $d.10                      0x0001a26e   Lc    1   --   De 
     25  $t.11                      0x0001a274   Lc    1   --   De 
     26  $d.10                      0x0001b2b4   Lc    1   --   De 
     27  $t.1                       0x0001b2c8   Lc    1   --   De 
     28  $d.14                      0x0001b430   Lc    1   --   De 
     29  $t.15                      0x0001b434   Lc    1   --   De 
     30  $d.4                       0x0001b9a2   Lc    1   --   De 
     31  $t.5                       0x0001ba08   Lc    1   --   De 
     32  $d.1                       0x0001d672   Lc    1   --   De 
     33  $t.2                       0x0001d684   Lc    1   --   De 
     34  $t                         0x0001d920   Lc    1   --   De 
     35  $d                         0x0001d970   Lc    1   --   De 
     36  $t                         0x0001d974   Lc    1   --   De 
     37  $d                         0x0001d9f2   Lc    1   --   De 
     38  $t                         0x0001d9f6   Lc    1   --   De 
     39  $d.realdata                0x0001da42   Lc    1   --   De 
     40  $d.realdata                0x10000000   Lc    2   --   De 
     41  $d.realdata                0x10060000   Lc    4   --   De 
     42  am_resources.c             0x00000000   Lc  Abs  File  De 
     43  __tagsym$$used.0           0x0001e2ec   Lc    1   --   De 
     44  __tagsym$$used.1           0x0001e2c4   Lc    1   --   De 
     45  __tagsym$$used.2           0x0001e2d8   Lc    1   --   De 
     46  __tagsym$$used.3           0x0001e300   Lc    1   --   De 
     47  __tagsym$$used.4           0x10060004   Lc    4   --   De 
     48  __tagsym$$used.5           0x10060018   Lc    4   --   De 
     49  __tagsym$$used.6           0x1006002c   Lc    4   --   De 
     50  __tagsym$$used.7           0x0001ddd8   Lc    1   --   De 
     51  __tagsym$$used.8           0x10060000   Lc    4   --   De 
     52  hello_world.c              0x00000000   Lc  Abs  File  De 
     53  .L.str                     0x0001ddf4   Lc    1  Data  De   0xf
     54  .L.str.5                   0x0001de03   Lc    1  Data  De   0x70
     55  .L.str.6                   0x0001de73   Lc    1  Data  De   0x1d
     56  .L.str.7                   0x0001de90   Lc    1  Data  De   0x1d
     57  .L.str.8                   0x0001dead   Lc    1  Data  De   0x1d
     58  .L.str.20                  0x0001deca   Lc    1  Data  De   0xf
     59  .L.str.40                  0x0001decd   Lc    1  Data  De   0xc
     60  .L.str.39                  0x0001ded9   Lc    1  Data  De   0xc
     61  .L.str.19                  0x0001dee5   Lc    1  Data  De   0xf
     62  .L.str.37                  0x0001def4   Lc    1  Data  De   0x25
     63  .L.str.38                  0x0001df19   Lc    1  Data  De   0x26
     64  .L.str.21                  0x0001df3f   Lc    1  Data  De   0x17
     65  .L.str.33                  0x0001df56   Lc    1  Data  De   0x26
     66  .L.str.34                  0x0001df7c   Lc    1  Data  De   0x50
     67  .L.str.45                  0x0001dfcc   Lc    1  Data  De   0x34
     68  .L.str.44                  0x0001e000   Lc    1  Data  De   0x34
     69  .L.str.35                  0x0001e034   Lc    1  Data  De   0x2b
     70  .L.str.36                  0x0001e05f   Lc    1  Data  De   0x19
     71  .L.str.14                  0x0001e078   Lc    1  Data  De   0x1b
     72  .L.str.9                   0x0001e093   Lc    1  Data  De   0x13
     73  .L.str.10                  0x0001e0a6   Lc    1  Data  De   0x13
     74  .L.str.46                  0x0001e0b9   Lc    1  Data  De   0x27
     75  .L.str.4                   0x0001e0e0   Lc    1  Data  De   0x14
     76  .L.str.13                  0x0001e0f4   Lc    1  Data  De   0x15
     77  .L.str.11                  0x0001e109   Lc    1  Data  De   0x15
     78  .L.str.3                   0x0001e11e   Lc    1  Data  De   0x14
     79  .L.str.1                   0x0001e132   Lc    1  Data  De   0x12
     80  .L.str.2                   0x0001e144   Lc    1  Data  De   0x12
     81  .L.str.24                  0x0001e156   Lc    1  Data  De   0x22
     82  .L.str.26                  0x0001e178   Lc    1  Data  De   0x10
     83  .L.str.15                  0x0001e188   Lc    1  Data  De   0x26
     84  .L.str.43                  0x0001e1ae   Lc    1  Data  De   0x23
     85  .L.str.32                  0x0001e1d1   Lc    1  Data  De   0x1c
     86  .L.str.25                  0x0001e1ed   Lc    1  Data  De   0x17
     87  .L.str.41                  0x0001e204   Lc    1  Data  De   0x23
     88  .L.str.42                  0x0001e227   Lc    1  Data  De   0x20
     89  .L.str.18                  0x0001e245   Lc    1  Data  De   0x2
     90  .L.str.12                  0x0001e247   Lc    1  Data  De   0xe
     91  .L.str.30                  0x0001e255   Lc    1  Data  De   0x4
     92  .L.str.16                  0x0001e259   Lc    1  Data  De   0x7
     93  .L.str.27                  0x0001e260   Lc    1  Data  De   0x3
     94  .L.str.28                  0x0001e263   Lc    1  Data  De   0x3
     95  .L.str.17                  0x0001e266   Lc    1  Data  De   0x6
     96  .L.str.22                  0x0001e26c   Lc    1  Data  De   0x16
     97  .L.str.31                  0x0001e282   Lc    1  Data  De   0xa
     98  .L.str.23                  0x0001e28c   Lc    1  Data  De   0xe
     99  .L.str.29                  0x0001e29a   Lc    1  Data  De   0x7
    100  am_util_delay.c            0x00000000   Lc  Abs  File  De 
    101  am_util_id.c               0x00000000   Lc  Abs  File  De 
    102  revmaj_get                 0x0001d5f9   Lc    1  Code  De   0x14
    103  chiprev_set                0x0001c095   Lc    1  Code  De   0x34
    104  g_ui8DeviceNameUnknown     0x0001ddb0   Lc    1  Data  De   0xf
    105  g_ui8VendorNameUnknown     0x0001ddd2   Lc    1  Data  De   0x5
    106  g_ui8VendorNameAmbq        0x0001ddcd   Lc    1  Data  De   0x5
    107  g_DeviceNameApollo4b       0x0001dce0   Lc    1  Data  De   0x9
    108  g_TempRange                0x0001dce9   Lc    1  Data  De   0x2c
    109  am_util_stdio.c            0x00000000   Lc  Abs  File  De 
    110  decstr_to_int              0x0001c1d1   Lc    1  Code  De   0xa6
    111  simple_strlen              0x0001d60d   Lc    1  Code  De   0x36
    112  padbuffer                  0x0001d5a9   Lc    1  Code  De   0x50
    113  ndigits_in_hex             0x0001d181   Lc    1  Code  De   0x3e
    114  uint64_to_hexstr           0x0001d7d9   Lc    1  Code  De   0xc0
    115  ndigits_in_u64             0x0001d1f1   Lc    1  Code  De   0x3c
    116  uint64_to_str              0x0001d899   Lc    1  Code  De   0x88
    117  ndigits_in_i64             0x0001d1c1   Lc    1  Code  De   0x30
    118  ftoa                       0x0001c391   Lc    1  Code  De   0x230
    119  divu64_10                  0x0001c279   Lc    1  Code  De   0x118
    120  g_bTxtXlate                0x10000588   Lc    3  Data  De   0x1
    121  g_prfbuf                   0x10000590   Lc    3  Data  De   0x400
    122  .L.str                     0x0001e2a1   Lc    1  Data  De   0x13
    123  am_util_string.c           0x00000000   Lc  Abs  File  De 
    124  ../keil6/startup_keil6.s   0x00000000   Lc  Abs  File  De 
    125  STACK                      0x100011e8   Lc    3  Sect  De   0x1000
    126  StackMem                   0x100011e8   Lc    3  Data  De 
    127  HEAP                       0x100011e8   Lc    3  Sect  De 
    128  HeapMem                    0x100011e8   Lc    3  Data  De 
    129  RESET                      0x00018000   Lc    1  Sect  De   0x234
    130  $v0                        0x00018200   Lc    1   --   De 
    131  am_cryptosec_isr           0x0001822f   Lc    1  Code  De 
    132  am_default_isr             0x0001822f   Lc    1  Code  De   0x2
    133  .text                      0x00018330   Lc    1  Sect  De   0x18
    134  $v0                        0x00018330   Lc    1   --   De 
    135  am_hal_dcu.c               0x00000000   Lc  Abs  File  De 
    136  get_ui32_dcu_mask          0x0001c9e5   Lc    1  Code  De   0x124
    137  get_raw_dcu_mask           0x0001c5c1   Lc    1  Code  De   0x424
    138  .L_MergedGlobals           0x10000000   Lc    2  Data  De   0x18
    139  am_hal_global.c            0x00000000   Lc  Abs  File  De 
    140  am_hal_security.c          0x00000000   Lc  Abs  File  De 
    141  am_hal_cachectrl.c         0x00000000   Lc  Abs  File  De 
    142  gAxiMemRange               0x0001dc74   Lc    1  Data  De   0x60
    143  .L_MergedGlobals           0x10000248   Lc    3  Data  De   0xc
    144  ui32AxiBufPwrStatReg       0x10000248   Lc    3  Data  De   0x4
    145  ui32AxiBufPwrStatMask      0x1000024c   Lc    3  Data  De   0x4
    146  p64BAxiMem                 0x10000250   Lc    3  Data  De   0x4
    147  am_hal_mcuctrl.c           0x00000000   Lc  Abs  File  De 
    148  g_am_hal_mcuctrl_mram_size 0x000198c4   Lc    1   --   De 
    149  g_am_hal_mcuctrl_sram_size 0x0001dd40   Lc    1  Data  De   0x60
    150  am_hal_mram.c              0x00000000   Lc  Abs  File  De 
    151  g_program_mram_tmc_tcycrd  0x10000040   Lc    2  Data  De   0xbc
    152  g_recover_broken_mram_tmc_r_timer1
                                    0x100000fc   Lc    2  Data  De   0xbc
    153  am_hal_reset.c             0x00000000   Lc  Abs  File  De 
    154  am_hal_sysctrl.c           0x00000000   Lc  Abs  File  De 
    155  am_hal_utils.c             0x00000000   Lc  Abs  File  De 
    156  am_bsp.c                   0x00000000   Lc  Abs  File  De 
    157  g_sBspUartConfig           0x0001dda0   Lc    1  Data  De   0xc
    158  pui8UartTxBuffer           0x10000de4   Lc    3  Data  De   0x400
    159  pui8UartRxBuffer           0x100009e4   Lc    3  Data  De   0x400
    160  .L_MergedGlobals           0x10000254   Lc    3  Data  De   0x8
    161  g_ePrintInterface          0x10000254   Lc    3  Data  De   0x1
    162  g_sCOMUART                 0x10000258   Lc    3  Data  De   0x4
    163  am_hal_gpio.c              0x00000000   Lc  Abs  File  De 
    164  g_ui32DSpintbl             0x0001e2b4   Lc    1  Data  De   0x10
    165  am_hal_pwrctrl.c           0x00000000   Lc  Abs  File  De 
    166  VDDF_simobuck_boost        0x00018545   Lc    1  Code  De   0x104
    167  MemLDOActiveTrim_boost     0x000184b5   Lc    1  Code  De   0x90
    168  buck_interval_check        0x0001bebd   Lc    1  Code  De   0x146
    169  coreldo_vddc_parallel_set  0x0001c0c9   Lc    1  Code  De   0x106
    170  memldo_vddf_parallel_set   0x0001d091   Lc    1  Code  De   0xee
    171  storeAndWFIRAM             0x100001c0   Lc    2  Data  De   0x20
    172  .L_MergedGlobals           0x10000018   Lc    2  Data  De   0x1c
    173  am_hal_bootrom_helper.c    0x00000000   Lc  Abs  File  De 
    174  am_hal_interrupt.c         0x00000000   Lc  Abs  File  De 
    175  am_hal_itm.c               0x00000000   Lc  Abs  File  De 
    176  am_hal_mspi.c              0x00000000   Lc  Abs  File  De 
    177  am_hal_rtc.c               0x00000000   Lc  Abs  File  De 
    178  am_hal_tpiu.c              0x00000000   Lc  Abs  File  De 
    179  am_hal_uart.c              0x00000000   Lc  Abs  File  De 
    180  nonblocking_write          0x0001d3b9   Lc    1  Code  De   0x8e
    181  nonblocking_read           0x0001d22d   Lc    1  Code  De   0x8a
    182  nonblocking_read_sm        0x0001d2b9   Lc    1  Code  De   0x100
    183  nonblocking_write_sm       0x0001d449   Lc    1  Code  De   0x160
    184  am_bsp_pins.c              0x00000000   Lc  Abs  File  De 
    185  am_hal_pin.c               0x00000000   Lc  Abs  File  De 
    186  am_hal_queue.c             0x00000000   Lc  Abs  File  De 
    187  am_hal_timer.c             0x00000000   Lc  Abs  File  De 
    188  TimerFlags                 0x1000025c   Lc    3  Data  De   0x40
    189  am_hal_clkgen.c            0x00000000   Lc  Abs  File  De 
    190  am_hal_cmdq.c              0x00000000   Lc  Abs  File  De 
    191  dc.s                       0x00000000   Lc  Abs  File  De 
    192  ../clib/longlong.s         0x00000000   Lc  Abs  File  De 
    193  .text                      0x00018348   Lc    1  Sect  De   0xf0
    194  ../clib/memcpset.s         0x00000000   Lc  Abs  File  De 
    195  ../clib/heapaux.c          0x00000000   Lc  Abs  File  De 
    196  .text                      0x00018438   Lc    1  Sect  De 
    197  ../clib/angel/startup.s    0x00000000   Lc  Abs  File  De 
    198  !!!main                    0x00018234   Lc    1  Sect  De   0x8
    199  ../clib/angel/handlers.s   0x00000000   Lc  Abs  File  De 
    200  !!handler_copy             0x000182cc   Lc    1  Sect  De   0x1a
    201  ../fplib/d2f.s             0x00000000   Lc  Abs  File  De 
    202  x$fpl$d2f                  0x0001d920   Lc    1  Sect  De   0x62
    203  $v0                        0x0001d920   Lc    1   --   De 
    204  ../clib/angel/kernel.s     0x00000000   Lc  Abs  File  De 
    205  .ARM.Collect$$rtentry$$00000000
                                    0x00018310   Lc    1  Sect  De 
    206  ../clib/angel/rt.s         0x00000000   Lc  Abs  File  De 
    207  ../clib/angel/rt.s         0x00000000   Lc  Abs  File  De 
    208  ../clib/memcpset.s         0x00000000   Lc  Abs  File  De 
    209  ../fplib/dnaninf.s         0x00000000   Lc  Abs  File  De 
    210  x$fpl$dnaninf              0x0001d982   Lc    1  Sect  De   0x9c
    211  $v0                        0x0001d982   Lc    1   --   De 
    212  ../fplib/fretinf.s         0x00000000   Lc  Abs  File  De 
    213  x$fpl$fretinf              0x0001da38   Lc    1  Sect  De   0xa
    214  $v0                        0x0001da38   Lc    1   --   De 
    215  ../fplib/usenofp.s         0x00000000   Lc  Abs  File  De 
    216  x$fpl$usenofp              0x0001da42   Lc    1  Sect  De 
    217  ../clib/angel/kernel.s     0x00000000   Lc  Abs  File  De 
    218  .ARM.Collect$$rtentry$$00000002
                                    0x00018310   Lc    1  Sect  De 
    219  .ARM.Collect$$rtentry$$00000009
                                    0x00018316   Lc    1  Sect  De 
    220  .ARM.Collect$$rtentry$$0000000A
                                    0x00018316   Lc    1  Sect  De   0x4
    221  .ARM.Collect$$rtentry$$0000000C
                                    0x0001831a   Lc    1  Sect  De 
    222  .ARM.Collect$$rtentry$$0000000D
                                    0x0001831a   Lc    1  Sect  De   0x8
    223  ../clib/angel/kernel.s     0x00000000   Lc  Abs  File  De 
    224  .ARM.Collect$$rtentry$$00000004
                                    0x00018310   Lc    1  Sect  De   0x6
    225  ../clib/angel/rt.s         0x00000000   Lc  Abs  File  De 
    226  ../clib/angel/sys.s        0x00000000   Lc  Abs  File  De 
    227  .text                      0x0001843e   Lc    1  Sect  De   0x4a
    228  ../clib/stdlib.c           0x00000000   Lc  Abs  File  De 
    229  .text                      0x00018488   Lc    1  Sect  De 
    230  ../clib/signal.c           0x00000000   Lc  Abs  File  De 
    231  ../clib/signal.c           0x00000000   Lc  Abs  File  De 
    232  ../clib/angel/boardlib.s   0x00000000   Lc  Abs  File  De 
    233  ../clib/angel/boardlib.s   0x00000000   Lc  Abs  File  De 
    234  ../clib/angel/boardlib.s   0x00000000   Lc  Abs  File  De 
    235  ../clib/libinit.s          0x00000000   Lc  Abs  File  De 
    236  .ARM.Collect$$libinit$$00000000
                                    0x00018304   Lc    1  Sect  De   0x2
    237  ../clib/angel/sys.s        0x00000000   Lc  Abs  File  De 
    238  .text                      0x0001849c   Lc    1  Sect  De   0x8
    239  .bss                       0x100001e8   Lc    3  Sect  De   0x60
    240  ../clib/angel/kernel.s     0x00000000   Lc  Abs  File  De 
    241  .ARM.Collect$$rtexit$$00000000
                                    0x00018322   Lc    1  Sect  De   0x2
    242  ../clib/angel/rt.s         0x00000000   Lc  Abs  File  De 
    243  ../clib/signal.c           0x00000000   Lc  Abs  File  De 
    244  ../clib/signal.c           0x00000000   Lc  Abs  File  De 
    245  ../clib/libinit.s          0x00000000   Lc  Abs  File  De 
    246  .ARM.Collect$$libinit$$00000001
                                    0x00018306   Lc    1  Sect  De   0x4
    247  .ARM.Collect$$libinit$$00000004
                                    0x0001830a   Lc    1  Sect  De 
    248  .ARM.Collect$$libinit$$00000006
                                    0x0001830a   Lc    1  Sect  De 
    249  .ARM.Collect$$libinit$$0000000C
                                    0x0001830a   Lc    1  Sect  De 
    250  .ARM.Collect$$libinit$$0000000E
                                    0x0001830a   Lc    1  Sect  De 
    251  .ARM.Collect$$libinit$$00000010
                                    0x0001830a   Lc    1  Sect  De 
    252  .ARM.Collect$$libinit$$00000013
                                    0x0001830a   Lc    1  Sect  De 
    253  .ARM.Collect$$libinit$$00000015
                                    0x0001830a   Lc    1  Sect  De 
    254  .ARM.Collect$$libinit$$00000017
                                    0x0001830a   Lc    1  Sect  De 
    255  .ARM.Collect$$libinit$$00000019
                                    0x0001830a   Lc    1  Sect  De 
    256  .ARM.Collect$$libinit$$0000001B
                                    0x0001830a   Lc    1  Sect  De 
    257  .ARM.Collect$$libinit$$0000001D
                                    0x0001830a   Lc    1  Sect  De 
    258  .ARM.Collect$$libinit$$0000001F
                                    0x0001830a   Lc    1  Sect  De 
    259  .ARM.Collect$$libinit$$00000021
                                    0x0001830a   Lc    1  Sect  De 
    260  .ARM.Collect$$libinit$$00000023
                                    0x0001830a   Lc    1  Sect  De 
    261  .ARM.Collect$$libinit$$00000025
                                    0x0001830a   Lc    1  Sect  De 
    262  .ARM.Collect$$libinit$$00000027
                                    0x0001830a   Lc    1  Sect  De 
    263  .ARM.Collect$$libinit$$0000002E
                                    0x0001830a   Lc    1  Sect  De 
    264  .ARM.Collect$$libinit$$00000030
                                    0x0001830a   Lc    1  Sect  De 
    265  .ARM.Collect$$libinit$$00000032
                                    0x0001830a   Lc    1  Sect  De 
    266  .ARM.Collect$$libinit$$00000034
                                    0x0001830a   Lc    1  Sect  De 
    267  .ARM.Collect$$libinit$$00000035
                                    0x0001830a   Lc    1  Sect  De   0x2
    268  ../clib/angel/sysapp.c     0x00000000   Lc  Abs  File  De 
    269  .text                      0x000184a4   Lc    1  Sect  De 
    270  ../clib/angel/sysapp.c     0x00000000   Lc  Abs  File  De 
    271  ../clib/angel/kernel.s     0x00000000   Lc  Abs  File  De 
    272  .ARM.Collect$$rtexit$$00000002
                                    0x00018324   Lc    1  Sect  De 
    273  .ARM.Collect$$rtexit$$00000003
                                    0x00018324   Lc    1  Sect  De   0x4
    274  .ARM.Collect$$rtexit$$00000004
                                    0x00018328   Lc    1  Sect  De   0x6
    275  ../clib/signal.c           0x00000000   Lc  Abs  File  De 
    276  ../clib/signal.c           0x00000000   Lc  Abs  File  De 
    277  ../clib/armsys.c           0x00000000   Lc  Abs  File  De 
    278  ../clib/armsys.c           0x00000000   Lc  Abs  File  De 
    279  ../fplib/fpinit.s          0x00000000   Lc  Abs  File  De 
    280  x$fpl$fpinit               0x0001da1e   Lc    1  Sect  De   0x1a
    281  $v0                        0x0001da1e   Lc    1   --   De 
    282  ../clib/angel/sysapp.c     0x00000000   Lc  Abs  File  De 
    283  ../clib/angel/sysapp.c     0x00000000   Lc  Abs  File  De 
    284  ../clib/angel/sys.s        0x00000000   Lc  Abs  File  De 
    285  .text                      0x000184b0   Lc    1  Sect  De   0x2
    286  ../clib/angel/sys.s        0x00000000   Lc  Abs  File  De 
    287  .text                      0x000184b2   Lc    1  Sect  De 
    288  ../clib/signal.s           0x00000000   Lc  Abs  File  De 
    289  ../clib/angel/boardlib.s   0x00000000   Lc  Abs  File  De 
    290  ../clib/armsys.c           0x00000000   Lc  Abs  File  De 
    291  ../clib/armsys.c           0x00000000   Lc  Abs  File  De 
    292  ../clib/libinit.s          0x00000000   Lc  Abs  File  De 
    293  .ARM.Collect$$libshutdown$$00000000
                                    0x0001830c   Lc    1  Sect  De   0x2
    294  ../clib/angel/sysapp.c     0x00000000   Lc  Abs  File  De 
    295  ../clib/angel/sysapp.c     0x00000000   Lc  Abs  File  De 
    296  ../clib/heapalloc.c        0x00000000   Lc  Abs  File  De 
    297  ../clib/signal.c           0x00000000   Lc  Abs  File  De 
    298  ../clib/signal.c           0x00000000   Lc  Abs  File  De 
    299  ../clib/signal.c           0x00000000   Lc  Abs  File  De 
    300  ../clib/signal.c           0x00000000   Lc  Abs  File  De 
    301  ../clib/signal.c           0x00000000   Lc  Abs  File  De 
    302  ../clib/signal.c           0x00000000   Lc  Abs  File  De 
    303  ../clib/signal.c           0x00000000   Lc  Abs  File  De 
    304  ../clib/signal.c           0x00000000   Lc  Abs  File  De 
    305  ../clib/signal.c           0x00000000   Lc  Abs  File  De 
    306  ../clib/signal.c           0x00000000   Lc  Abs  File  De 
    307  ../clib/libinit.s          0x00000000   Lc  Abs  File  De 
    308  .ARM.Collect$$libshutdown$$00000002
                                    0x0001830e   Lc    1  Sect  De 
    309  .ARM.Collect$$libshutdown$$00000004
                                    0x0001830e   Lc    1  Sect  De 
    310  .ARM.Collect$$libshutdown$$00000007
                                    0x0001830e   Lc    1  Sect  De 
    311  .ARM.Collect$$libshutdown$$0000000A
                                    0x0001830e   Lc    1  Sect  De 
    312  .ARM.Collect$$libshutdown$$0000000C
                                    0x0001830e   Lc    1  Sect  De 
    313  .ARM.Collect$$libshutdown$$0000000F
                                    0x0001830e   Lc    1  Sect  De 
    314  .ARM.Collect$$libshutdown$$00000010
                                    0x0001830e   Lc    1  Sect  De   0x2
    315  ../clib/angel/dczerorl2.s  0x00000000   Lc  Abs  File  De 
    316  !!dczerorl2                0x00018270   Lc    1  Sect  De   0x5a
    317  ../clib/angel/scatter.s    0x00000000   Lc  Abs  File  De 
    318  !!!scatter                 0x0001823c   Lc    1  Sect  De   0x34
    319  ../clib/angel/handlers.s   0x00000000   Lc  Abs  File  De 
    320  !!handler_zi               0x000182e8   Lc    1  Sect  De   0x1c
    321  BuildAttributes$$THM_ISAv4$E$P$D$K$B$S$7EM$VFPi3$EXTD16$VFPS$VFMA$PE$A:L22UL41UL21$X:L11$S22US41US21$IEEE1$IW$~IW$USESV6$~STKCKD$USESV7$~SHL$OTIME$ROPI$EBA8$UX$STANDARDLIB$REQ8$PRES8$EABIv2
                                    0x00000000   Gb  Abs   --   Hi 
    322  __Vectors                  0x00018000   Gb    1  Data  Hi 
    323  __Patchable                0x00018190   Gb    1  Data  Hi 
    324  Reset_Handler              0x00018201   Wk    1  Code  Hi   0x1c
    325  HardFault_Handler          0x0001821d   Wk    1  Code  Hi   0x2
    326  NMI_Handler                0x0001821f   Wk    1  Code  Hi   0x2
    327  MemManage_Handler          0x00018221   Wk    1  Code  Hi   0x2
    328  BusFault_Handler           0x00018223   Wk    1  Code  Hi   0x2
    329  UsageFault_Handler         0x00018225   Wk    1  Code  Hi   0x2
    330  SVC_Handler                0x00018227   Wk    1  Code  Hi   0x2
    331  DebugMon_Handler           0x00018229   Wk    1  Code  Hi   0x2
    332  PendSV_Handler             0x0001822b   Wk    1  Code  Hi   0x2
    333  SysTick_Handler            0x0001822d   Wk    1  Code  Hi   0x2
    334  am_adc_isr                 0x0001822f   Wk    1  Code  Hi 
    335  am_audadc0_isr             0x0001822f   Wk    1  Code  Hi 
    336  am_brownout_isr            0x0001822f   Wk    1  Code  Hi 
    337  am_cachecpu_isr            0x0001822f   Wk    1  Code  Hi 
    338  am_clkgen_isr              0x0001822f   Wk    1  Code  Hi 
    339  am_ctimer_isr              0x0001822f   Wk    1  Code  Hi 
    340  am_disp_isr                0x0001822f   Wk    1  Code  Hi 
    341  am_dsi_isr                 0x0001822f   Wk    1  Code  Hi 
    342  am_dspi2s0_isr             0x0001822f   Wk    1  Code  Hi 
    343  am_dspi2s1_isr             0x0001822f   Wk    1  Code  Hi 
    344  am_dspi2s2_isr             0x0001822f   Wk    1  Code  Hi 
    345  am_dspi2s3_isr             0x0001822f   Wk    1  Code  Hi 
    346  am_gpio0_001f_isr          0x0001822f   Wk    1  Code  Hi 
    347  am_gpio0_203f_isr          0x0001822f   Wk    1  Code  Hi 
    348  am_gpio0_405f_isr          0x0001822f   Wk    1  Code  Hi 
    349  am_gpio0_607f_isr          0x0001822f   Wk    1  Code  Hi 
    350  am_gpio1_001f_isr          0x0001822f   Wk    1  Code  Hi 
    351  am_gpio1_203f_isr          0x0001822f   Wk    1  Code  Hi 
    352  am_gpio1_405f_isr          0x0001822f   Wk    1  Code  Hi 
    353  am_gpio1_607f_isr          0x0001822f   Wk    1  Code  Hi 
    354  am_gpu_isr                 0x0001822f   Wk    1  Code  Hi 
    355  am_iomaster0_isr           0x0001822f   Wk    1  Code  Hi 
    356  am_iomaster1_isr           0x0001822f   Wk    1  Code  Hi 
    357  am_iomaster2_isr           0x0001822f   Wk    1  Code  Hi 
    358  am_iomaster3_isr           0x0001822f   Wk    1  Code  Hi 
    359  am_iomaster4_isr           0x0001822f   Wk    1  Code  Hi 
    360  am_iomaster5_isr           0x0001822f   Wk    1  Code  Hi 
    361  am_iomaster6_isr           0x0001822f   Wk    1  Code  Hi 
    362  am_iomaster7_isr           0x0001822f   Wk    1  Code  Hi 
    363  am_ioslave_acc_isr         0x0001822f   Wk    1  Code  Hi 
    364  am_ioslave_ios_isr         0x0001822f   Wk    1  Code  Hi 
    365  am_mspi0_isr               0x0001822f   Wk    1  Code  Hi 
    366  am_mspi1_isr               0x0001822f   Wk    1  Code  Hi 
    367  am_mspi2_isr               0x0001822f   Wk    1  Code  Hi 
    368  am_pdm0_isr                0x0001822f   Wk    1  Code  Hi 
    369  am_pdm1_isr                0x0001822f   Wk    1  Code  Hi 
    370  am_pdm2_isr                0x0001822f   Wk    1  Code  Hi 
    371  am_pdm3_isr                0x0001822f   Wk    1  Code  Hi 
    372  am_rtc_isr                 0x0001822f   Wk    1  Code  Hi 
    373  am_sdio_isr                0x0001822f   Wk    1  Code  Hi 
    374  am_stimer_cmpr0_isr        0x0001822f   Wk    1  Code  Hi 
    375  am_stimer_cmpr1_isr        0x0001822f   Wk    1  Code  Hi 
    376  am_stimer_cmpr2_isr        0x0001822f   Wk    1  Code  Hi 
    377  am_stimer_cmpr3_isr        0x0001822f   Wk    1  Code  Hi 
    378  am_stimer_cmpr4_isr        0x0001822f   Wk    1  Code  Hi 
    379  am_stimer_cmpr5_isr        0x0001822f   Wk    1  Code  Hi 
    380  am_stimer_cmpr6_isr        0x0001822f   Wk    1  Code  Hi 
    381  am_stimer_cmpr7_isr        0x0001822f   Wk    1  Code  Hi 
    382  am_stimerof_isr            0x0001822f   Wk    1  Code  Hi 
    383  am_timer00_isr             0x0001822f   Wk    1  Code  Hi 
    384  am_timer01_isr             0x0001822f   Wk    1  Code  Hi 
    385  am_timer02_isr             0x0001822f   Wk    1  Code  Hi 
    386  am_timer03_isr             0x0001822f   Wk    1  Code  Hi 
    387  am_timer04_isr             0x0001822f   Wk    1  Code  Hi 
    388  am_timer05_isr             0x0001822f   Wk    1  Code  Hi 
    389  am_timer06_isr             0x0001822f   Wk    1  Code  Hi 
    390  am_timer07_isr             0x0001822f   Wk    1  Code  Hi 
    391  am_timer08_isr             0x0001822f   Wk    1  Code  Hi 
    392  am_timer09_isr             0x0001822f   Wk    1  Code  Hi 
    393  am_timer10_isr             0x0001822f   Wk    1  Code  Hi 
    394  am_timer11_isr             0x0001822f   Wk    1  Code  Hi 
    395  am_timer12_isr             0x0001822f   Wk    1  Code  Hi 
    396  am_timer13_isr             0x0001822f   Wk    1  Code  Hi 
    397  am_timer14_isr             0x0001822f   Wk    1  Code  Hi 
    398  am_timer15_isr             0x0001822f   Wk    1  Code  Hi 
    399  am_uart1_isr               0x0001822f   Wk    1  Code  Hi 
    400  am_uart2_isr               0x0001822f   Wk    1  Code  Hi 
    401  am_uart3_isr               0x0001822f   Wk    1  Code  Hi 
    402  am_uart_isr                0x0001822f   Wk    1  Code  Hi 
    403  am_usb_isr                 0x0001822f   Wk    1  Code  Hi 
    404  am_vcomp_isr               0x0001822f   Wk    1  Code  Hi 
    405  am_watchdog_isr            0x0001822f   Wk    1  Code  Hi 
    406  __main                     0x00018235   Gb    1  Code  Hi   0x8
    407  __scatterload              0x0001823d   Gb    1  Code  Hi 
    408  __scatterload_rt2          0x0001823d   Gb    1  Code  Hi   0x2c
    409  __scatterload_rt2_thumb_only
                                    0x0001823d   Gb    1  Code  Hi 
    410  __scatterload_null         0x0001824b   Gb    1  Code  Hi 
    411  __decompress               0x00018271   Gb    1  Code  Hi   0x5a
    412  __decompress1              0x00018271   Gb    1  Code  Hi 
    413  __scatterload_copy         0x000182cd   Gb    1  Code  Hi   0x1a
    414  __scatterload_zeroinit     0x000182e9   Gb    1  Code  Hi   0x1c
    415  __rt_lib_init              0x00018305   Gb    1  Code  De 
    416  __rt_lib_init_fp_1         0x00018307   Gb    1  Code  Hi 
    417  __rt_lib_init_alloca_1     0x0001830b   Gb    1  Code  Hi 
    418  __rt_lib_init_argv_1       0x0001830b   Gb    1  Code  Hi 
    419  __rt_lib_init_atexit_1     0x0001830b   Gb    1  Code  Hi 
    420  __rt_lib_init_clock_1      0x0001830b   Gb    1  Code  Hi 
    421  __rt_lib_init_cpp_1        0x0001830b   Gb    1  Code  Hi 
    422  __rt_lib_init_exceptions_1 0x0001830b   Gb    1  Code  Hi 
    423  __rt_lib_init_fp_trap_1    0x0001830b   Gb    1  Code  Hi 
    424  __rt_lib_init_getenv_1     0x0001830b   Gb    1  Code  Hi 
    425  __rt_lib_init_heap_1       0x0001830b   Gb    1  Code  Hi 
    426  __rt_lib_init_lc_collate_1 0x0001830b   Gb    1  Code  Hi 
    427  __rt_lib_init_lc_ctype_1   0x0001830b   Gb    1  Code  Hi 
    428  __rt_lib_init_lc_monetary_1
                                    0x0001830b   Gb    1  Code  Hi 
    429  __rt_lib_init_lc_numeric_1 0x0001830b   Gb    1  Code  Hi 
    430  __rt_lib_init_lc_time_1    0x0001830b   Gb    1  Code  Hi 
    431  __rt_lib_init_preinit_1    0x0001830b   Gb    1  Code  Hi 
    432  __rt_lib_init_rand_1       0x0001830b   Gb    1  Code  Hi 
    433  __rt_lib_init_relocate_pie_1
                                    0x0001830b   Gb    1  Code  Hi 
    434  __rt_lib_init_return       0x0001830b   Gb    1  Code  Hi 
    435  __rt_lib_init_signal_1     0x0001830b   Gb    1  Code  Hi 
    436  __rt_lib_init_stdio_1      0x0001830b   Gb    1  Code  Hi 
    437  __rt_lib_init_user_alloc_1 0x0001830b   Gb    1  Code  Hi 
    438  __rt_lib_shutdown          0x0001830d   Gb    1  Code  De 
    439  __rt_lib_shutdown_cpp_1    0x0001830f   Gb    1  Code  Hi 
    440  __rt_lib_shutdown_fp_trap_1
                                    0x0001830f   Gb    1  Code  Hi 
    441  __rt_lib_shutdown_heap_1   0x0001830f   Gb    1  Code  Hi 
    442  __rt_lib_shutdown_return   0x0001830f   Gb    1  Code  Hi 
    443  __rt_lib_shutdown_signal_1 0x0001830f   Gb    1  Code  Hi 
    444  __rt_lib_shutdown_stdio_1  0x0001830f   Gb    1  Code  Hi 
    445  __rt_lib_shutdown_user_alloc_1
                                    0x0001830f   Gb    1  Code  Hi 
    446  __rt_entry                 0x00018311   Gb    1  Code  Hi 
    447  __rt_entry_presh_1         0x00018311   Gb    1  Code  Hi 
    448  __rt_entry_sh              0x00018311   Gb    1  Code  Hi 
    449  __rt_entry_li              0x00018317   Gb    1  Code  Hi 
    450  __rt_entry_postsh_1        0x00018317   Gb    1  Code  Hi 
    451  __rt_entry_main            0x0001831b   Gb    1  Code  Hi 
    452  __rt_entry_postli_1        0x0001831b   Gb    1  Code  Hi 
    453  __rt_exit                  0x00018323   Gb    1  Code  De 
    454  __rt_exit_ls               0x00018325   Gb    1  Code  Hi 
    455  __rt_exit_prels_1          0x00018325   Gb    1  Code  Hi 
    456  __rt_exit_exit             0x00018329   Gb    1  Code  Hi 
    457  __user_initial_stackheap   0x00018331   Gb    1  Code  Hi   0xa
    458  __aeabi_uldivmod           0x00018349   Gb    1  Code  De 
    459  _ll_udiv                   0x00018349   Gb    1  Code  De   0xf0
    460  __use_two_region_memory    0x00018439   Gb    1  Code  Hi   0x2
    461  __rt_heap_escrow$2region   0x0001843b   Gb    1  Code  De   0x2
    462  __rt_heap_expand$2region   0x0001843d   Gb    1  Code  De   0x2
    463  __user_setup_stackheap     0x0001843f   Gb    1  Code  De   0x4a
    464  exit                       0x00018489   Gb    1  Code  De   0x12
    465  __user_libspace            0x0001849d   Wk    1  Code  De   0x8
    466  __user_perproc_libspace    0x0001849d   Wk    1  Code  De 
    467  __user_perthread_libspace  0x0001849d   Wk    1  Code  De 
    468  _sys_exit                  0x000184a5   Gb    1  Code  De   0x8
    469  __I$use$semihosting        0x000184b1   Gb    1  Code  Hi 
    470  __use_no_semihosting_swi   0x000184b1   Gb    1  Code  Hi   0x2
    471  __semihosting_library_function
                                    0x000184b3   Gb    1  Code  Hi 
    472  am_bsp_buffered_uart_printf_disable
                                    0x00018649   Gb    1  Code  Hi   0x64
    473  am_bsp_buffered_uart_printf_enable
                                    0x000186ad   Gb    1  Code  Hi   0xb4
    474  am_bsp_debug_printf_disable
                                    0x00018761   Gb    1  Code  Hi   0x9c
    475  am_bsp_debug_printf_enable 0x000187fd   Gb    1  Code  Hi   0x28
    476  am_bsp_itm_printf_enable   0x00018825   Gb    1  Code  Hi   0x7e
    477  am_bsp_low_power_init      0x000188a5   Gb    1  Code  Hi   0x16
    478  am_bsp_uart_printf_enable  0x000188bd   Gb    1  Code  Hi   0x70
    479  am_bsp_uart_string_print   0x0001892d   Gb    1  Code  Hi   0x66
    480  am_hal_cachectrl_config    0x00018995   Gb    1  Code  Hi   0x44
    481  am_hal_cachectrl_enable    0x000189d9   Gb    1  Code  Hi   0x1e
    482  am_hal_clkgen_control      0x000189f9   Gb    1  Code  Hi   0x358
    483  am_hal_daxi_config         0x00018d51   Gb    1  Code  Hi   0x5a
    484  am_hal_daxi_control        0x00018dad   Gb    1  Code  Hi   0x2de
    485  am_hal_dcu_get             0x0001908d   Gb    1  Code  Hi   0x3e
    486  am_hal_dcu_lock_status_get 0x000190cd   Gb    1  Code  Hi   0x3e
    487  am_hal_dcu_update          0x0001910d   Gb    1  Code  Hi   0xa2
    488  am_hal_delay_us            0x000191b1   Gb    1  Code  Hi   0x36
    489  am_hal_delay_us_status_change
                                    0x000191e9   Gb    1  Code  Hi   0x58
    490  am_hal_delay_us_status_check
                                    0x00019241   Gb    1  Code  Hi   0x98
    491  am_hal_gpio_pinconfig      0x000192d9   Gb    1  Code  Hi   0x56
    492  am_hal_gpio_state_write    0x00019331   Gb    1  Code  Hi   0x10a
    493  am_hal_interrupt_master_disable
                                    0x0001943d   Gb    1  Code  Hi   0x8
    494  am_hal_interrupt_master_set
                                    0x00019445   Gb    1  Code  Hi   0x6
    495  am_hal_itm_disable         0x0001944d   Gb    1  Code  Hi   0x1a4
    496  am_hal_itm_enable          0x000195f1   Gb    1  Code  Hi   0x56
    497  am_hal_itm_not_busy        0x00019649   Gb    1  Code  Hi   0x28
    498  am_hal_itm_print           0x00019671   Gb    1  Code  Hi   0x136
    499  am_hal_load_ui32           0x000197a9   Gb    1  Code  Hi   0xc
    500  am_hal_mcuctrl_info_get    0x000197b5   Gb    1  Code  Hi   0x110
    501  am_hal_mram_ds_init        0x000198d5   Gb    1  Code  Hi   0x12
    502  am_hal_mram_info_read      0x000198e9   Gb    1  Code  Hi   0x9e
    503  am_hal_pwrctrl_control     0x00019989   Gb    1  Code  Hi   0x254
    504  am_hal_pwrctrl_low_power_init
                                    0x00019bdd   Gb    1  Code  Hi   0x14e
    505  am_hal_pwrctrl_mcu_memory_config
                                    0x00019d2d   Gb    1  Code  Hi   0x10e
    506  am_hal_pwrctrl_mcu_mode_select
                                    0x00019e3d   Gb    1  Code  Hi   0x160
    507  am_hal_pwrctrl_periph_disable
                                    0x00019f9d   Gb    1  Code  Hi   0x14a
    508  am_hal_pwrctrl_periph_enable
                                    0x0001a0e9   Gb    1  Code  Hi   0xfc
    509  am_hal_pwrctrl_sram_config 0x0001a1e5   Gb    1  Code  Hi   0xc6
    510  am_hal_queue_init          0x0001a2ad   Gb    1  Code  Hi   0x18
    511  am_hal_queue_item_add      0x0001a2c5   Gb    1  Code  Hi   0x1ca
    512  am_hal_queue_item_get      0x0001a491   Gb    1  Code  Hi   0x1dc
    513  am_hal_reset_status_get    0x0001a66d   Gb    1  Code  Hi   0xa2
    514  am_hal_rtc_osc_disable     0x0001a711   Gb    1  Code  Hi   0x14
    515  am_hal_security_get_info   0x0001a725   Gb    1  Code  Hi   0xb8
    516  am_hal_security_get_socid  0x0001a7dd   Gb    1  Code  Hi   0xe
    517  am_hal_sysctrl_sleep       0x0001a7ed   Gb    1  Code  Hi   0x20c
    518  am_hal_timer_clear         0x0001a9f9   Gb    1  Code  Hi   0x58
    519  am_hal_timer_clear_stop    0x0001aa51   Gb    1  Code  Hi   0x54
    520  am_hal_timer_default_config_set
                                    0x0001aaa5   Gb    1  Code  Hi   0x20
    521  am_hal_timer_disable       0x0001aac5   Gb    1  Code  Hi   0x3c
    522  am_hal_timer_enable        0x0001ab01   Gb    1  Code  Hi   0x4a
    523  am_hal_timer_enable_sync   0x0001ab4d   Gb    1  Code  Hi   0x2a0
    524  am_hal_timer_interrupt_clear
                                    0x0001aded   Gb    1  Code  Hi   0x10
    525  am_hal_timer_interrupt_enable
                                    0x0001adfd   Gb    1  Code  Hi   0x186
    526  am_hal_timer_interrupt_status_get
                                    0x0001af85   Gb    1  Code  Hi   0x18
    527  am_hal_timer_read          0x0001af9d   Gb    1  Code  Hi   0x26
    528  am_hal_timer_reset_config  0x0001afc5   Gb    1  Code  Hi   0x8c
    529  am_hal_tpiu_enable         0x0001b051   Gb    1  Code  Hi   0x78
    530  am_hal_triple_read         0x0001b0c9   Gb    1  Code  Hi   0x24
    531  am_hal_uart_buffer_configure
                                    0x0001b0ed   Gb    1  Code  Hi   0x68
    532  am_hal_uart_configure      0x0001b155   Gb    1  Code  Hi   0x160
    533  am_hal_uart_deinitialize   0x0001b2c9   Gb    1  Code  Hi   0x28
    534  am_hal_uart_initialize     0x0001b2f1   Gb    1  Code  Hi   0x70
    535  am_hal_uart_power_control  0x0001b361   Gb    1  Code  Hi   0xc0
    536  am_hal_uart_transfer       0x0001b421   Gb    1  Code  Hi   0xc0
    537  am_hal_uart_tx_flush       0x0001b4e1   Gb    1  Code  Hi   0xb4
    538  am_hal_util_write_and_wait 0x0001b595   Gb    1  Code  Hi   0x14a
    539  am_util_id_device          0x0001b6e1   Gb    1  Code  Hi   0xdc
    540  am_util_stdio_printf       0x0001b7bd   Gb    1  Code  Hi   0x5c
    541  am_util_stdio_printf_init  0x0001b819   Gb    1  Code  Hi   0x14
    542  am_util_stdio_sprintf      0x0001b82d   Gb    1  Code  Hi   0x2a
    543  am_util_stdio_terminal_clear
                                    0x0001b859   Gb    1  Code  Hi   0x10
    544  am_util_stdio_vsprintf     0x0001b869   Gb    1  Code  Hi   0x654
    545  buck_ldo_override_init     0x0001c005   Gb    1  Code  Hi   0x62
    546  buck_ldo_update_override   0x0001c069   Gb    1  Code  Hi   0x2a
    547  internal_timer_config      0x0001cb09   Gb    1  Code  Hi   0xc0
    548  main                       0x0001cbc9   Gb    1  Code  Hi   0x4c6
    549  timer_config_b1            0x0001d645   Gb    1  Code  Hi   0x192
    550  __aeabi_d2f                0x0001d921   Gb    1  Code  De 
    551  _d2f                       0x0001d921   Gb    1  Code  De   0x62
    552  __fpl_dnaninf              0x0001d983   Gb    1  Code  De   0x9c
    553  _fp_init                   0x0001da1f   Gb    1  Code  De   0x1a
    554  __fplib_config_fpu_vfp     0x0001da37   Gb    1  Code  De 
    555  __fplib_config_pureend_doubles
                                    0x0001da37   Gb    1  Code  De 
    556  __fpl_fretinf              0x0001da39   Gb    1  Code  De   0xa
    557  __I$use$fp                 0x0001da42   Gb    1   --   De 
    558  am_hal_cachectrl_defaults  0x0001da42   Gb    1  Data  Hi   0x3
    559  am_hal_daxi_defaults       0x0001da45   Gb    1  Data  Hi   0x3
    560  am_hal_gpio_pincfg_disabled
                                    0x0001da48   Gb    1  Data  Hi   0x4
    561  am_hal_gpio_pincfg_output  0x0001da4c   Gb    1  Data  Hi   0x4
    562  am_hal_gpio_pincfg_pulledup_disabled
                                    0x0001da50   Gb    1  Data  Hi   0x4
    563  am_hal_pwrctrl_peripheral_control
                                    0x0001da54   Gb    1  Data  Hi   0x220
    564  g_DefaultMcuMemCfg         0x0001dcd4   Gb    1  Data  Hi   0x6
    565  g_DefaultSRAMCfg           0x0001dcda   Gb    1  Data  Hi   0x6
    566  g_am_hal_bootrom_helper    0x0001dd18   Gb    1  Data  Hi   0x28
    567  g_ui32HALversion           0x0001ddac   Gb    1  Data  Hi   0x4
    568  g_ui8HALcompiler           0x0001ddbf   Gb    1  Data  Hi   0xe
    569  sGlobalAccess              0x0001ddd8   Gb    1  Data  Hi   0x1c
    570  ui32DSP0Allowed            0x0001e2c4   Gb    1  Data  Hi   0x14
    571  ui32DSP1Allowed            0x0001e2d8   Gb    1  Data  Hi   0x14
    572  ui32MCUAllowed             0x0001e2ec   Gb    1  Data  Hi   0x14
    573  ui32SharedAccess           0x0001e300   Gb    1  Data  Hi   0x14
    574  Region$$Table$$Base        0x0001e314   Gb    1   --   Hi 
    575  Region$$Table$$Limit       0x0001e344   Gb    1   --   Hi 
    576  gpDcuEnable                0x10000000   Gb    2  Data  Hi   0x4
    577  gpDcuLock                  0x10000004   Gb    2  Data  Hi   0x4
    578  gDcuEnable                 0x10000008   Gb    2  Data  Hi   0x8
    579  gDcuDisable                0x10000010   Gb    2  Data  Hi   0x8
    580  g_eCurrPwrMode             0x10000018   Gb    2  Data  Hi   0x1
    581  g_ui32TrimVer              0x1000001c   Gb    2  Data  Hi   0x4
    582  g_ui32origSimobuckVDDFtrim 0x10000020   Gb    2  Data  Hi   0x4
    583  g_ui32origSimobuckVDDCtrim 0x10000024   Gb    2  Data  Hi   0x4
    584  g_ui32origLDOVDDCtrim      0x10000028   Gb    2  Data  Hi   0x4
    585  g_ui32origMEMLDOActiveTrim 0x1000002c   Gb    2  Data  Hi   0x4
    586  g_ui32origSimobuckVDDStrim 0x10000030   Gb    2  Data  Hi   0x4
    587  g_AM_BSP_GPIO_COM_UART_RX  0x10000034   Gb    2  Data  Hi   0x4
    588  g_AM_BSP_GPIO_COM_UART_TX  0x10000038   Gb    2  Data  Hi   0x4
    589  g_AM_BSP_GPIO_ITM_SWO      0x1000003c   Gb    2  Data  Hi   0x4
    590  program_mram_tmc_tcycrd    0x100001b8   Gb    2  Data  Hi   0x4
    591  recover_broken_mram_tmc_r_timer1
                                    0x100001bc   Gb    2  Data  Hi   0x4
    592  storeAndWFIfuncRAM         0x100001e0   Gb    2  Data  Hi   0x4
    593  __libspace_start           0x100001e8   Gb    3  Data  De   0x60
    594  __temporary_stack_top$libspace
                                    0x10000248   Gb    3  Data  De 
    595  gAmHalResetStatus          0x1000029c   Gb    3  Data  Hi   0x4
    596  gMspiXipState              0x100002a0   Gb    3  Data  Hi   0x4
    597  gStartOff                  0x100002a4   Gb    3  Data  Hi   0x4
    598  g_am_hal_uart_states       0x100002a8   Gb    3  Data  Hi   0x2e0
    599  g_bVDDCbuckboosted         0x10000589   Gb    3  Data  Hi   0x1
    600  g_pfnCharPrint             0x1000058c   Gb    3  Data  Hi   0x4
    601  g_trim_reg_origvals        0x10000990   Gb    3  Data  Hi   0x54
    602  psGlobalAccessPtr          0x10060000   Gb    4  Data  Hi   0x4
    603  ui32MCUClaimed             0x10060004   Gb    4  Data  Hi   0x14
    604  ui32DSP0Claimed            0x10060018   Gb    4  Data  Hi   0x14
    605  ui32DSP1Claimed            0x1006002c   Gb    4  Data  Hi   0x14


** Section #12 '.strtab' (SHT_STRTAB)
    Size   : 9884 bytes

            #  Offset String
        ====================================

            1      1: $d
            2      4: $t
            3      7: $t.4
            4     12: $d.2
            5     17: $t.3
            6     22: $d.5
            7     27: $t.6
            8     32: $d.6
            9     37: $d.24
           10     43: $t.25
           11     49: $t.7
           12     54: $d.10
           13     60: $t.11
           14     66: $t.1
           15     71: $d.14
           16     77: $t.15
           17     83: $d.4
           18     88: $t.5
           19     93: $d.1
           20     98: $t.2
           21    103: $d.realdata
           22    115: am_resources.c
           23    130: __tagsym$$used.0
           24    147: __tagsym$$used.1
           25    164: __tagsym$$used.2
           26    181: __tagsym$$used.3
           27    198: __tagsym$$used.4
           28    215: __tagsym$$used.5
           29    232: __tagsym$$used.6
           30    249: __tagsym$$used.7
           31    266: __tagsym$$used.8
           32    283: hello_world.c
           33    297: .L.str
           34    304: .L.str.5
           35    313: .L.str.6
           36    322: .L.str.7
           37    331: .L.str.8
           38    340: .L.str.20
           39    350: .L.str.40
           40    360: .L.str.39
           41    370: .L.str.19
           42    380: .L.str.37
           43    390: .L.str.38
           44    400: .L.str.21
           45    410: .L.str.33
           46    420: .L.str.34
           47    430: .L.str.45
           48    440: .L.str.44
           49    450: .L.str.35
           50    460: .L.str.36
           51    470: .L.str.14
           52    480: .L.str.9
           53    489: .L.str.10
           54    499: .L.str.46
           55    509: .L.str.4
           56    518: .L.str.13
           57    528: .L.str.11
           58    538: .L.str.3
           59    547: .L.str.1
           60    556: .L.str.2
           61    565: .L.str.24
           62    575: .L.str.26
           63    585: .L.str.15
           64    595: .L.str.43
           65    605: .L.str.32
           66    615: .L.str.25
           67    625: .L.str.41
           68    635: .L.str.42
           69    645: .L.str.18
           70    655: .L.str.12
           71    665: .L.str.30
           72    675: .L.str.16
           73    685: .L.str.27
           74    695: .L.str.28
           75    705: .L.str.17
           76    715: .L.str.22
           77    725: .L.str.31
           78    735: .L.str.23
           79    745: .L.str.29
           80    755: am_util_delay.c
           81    771: am_util_id.c
           82    784: revmaj_get
           83    795: chiprev_set
           84    807: g_ui8DeviceNameUnknown
           85    830: g_ui8VendorNameUnknown
           86    853: g_ui8VendorNameAmbq
           87    873: g_DeviceNameApollo4b
           88    894: g_TempRange
           89    906: am_util_stdio.c
           90    922: decstr_to_int
           91    936: simple_strlen
           92    950: padbuffer
           93    960: ndigits_in_hex
           94    975: uint64_to_hexstr
           95    992: ndigits_in_u64
           96   1007: uint64_to_str
           97   1021: ndigits_in_i64
           98   1036: ftoa
           99   1041: divu64_10
          100   1051: g_bTxtXlate
          101   1063: g_prfbuf
          102   1072: am_util_string.c
          103   1089: ../keil6/startup_keil6.s
          104   1114: STACK
          105   1120: StackMem
          106   1129: HEAP
          107   1134: HeapMem
          108   1142: RESET
          109   1148: $v0
          110   1152: am_cryptosec_isr
          111   1169: am_default_isr
          112   1184: .text
          113   1190: am_hal_dcu.c
          114   1203: get_ui32_dcu_mask
          115   1221: get_raw_dcu_mask
          116   1238: .L_MergedGlobals
          117   1255: am_hal_global.c
          118   1271: am_hal_security.c
          119   1289: am_hal_cachectrl.c
          120   1308: gAxiMemRange
          121   1321: ui32AxiBufPwrStatReg
          122   1342: ui32AxiBufPwrStatMask
          123   1364: p64BAxiMem
          124   1375: am_hal_mcuctrl.c
          125   1392: g_am_hal_mcuctrl_mram_size
          126   1419: g_am_hal_mcuctrl_sram_size
          127   1446: am_hal_mram.c
          128   1460: g_program_mram_tmc_tcycrd
          129   1486: g_recover_broken_mram_tmc_r_timer1
          130   1521: am_hal_reset.c
          131   1536: am_hal_sysctrl.c
          132   1553: am_hal_utils.c
          133   1568: am_bsp.c
          134   1577: g_sBspUartConfig
          135   1594: pui8UartTxBuffer
          136   1611: pui8UartRxBuffer
          137   1628: g_ePrintInterface
          138   1646: g_sCOMUART
          139   1657: am_hal_gpio.c
          140   1671: g_ui32DSpintbl
          141   1686: am_hal_pwrctrl.c
          142   1703: VDDF_simobuck_boost
          143   1723: MemLDOActiveTrim_boost
          144   1746: buck_interval_check
          145   1766: coreldo_vddc_parallel_set
          146   1792: memldo_vddf_parallel_set
          147   1817: storeAndWFIRAM
          148   1832: am_hal_bootrom_helper.c
          149   1856: am_hal_interrupt.c
          150   1875: am_hal_itm.c
          151   1888: am_hal_mspi.c
          152   1902: am_hal_rtc.c
          153   1915: am_hal_tpiu.c
          154   1929: am_hal_uart.c
          155   1943: nonblocking_write
          156   1961: nonblocking_read
          157   1978: nonblocking_read_sm
          158   1998: nonblocking_write_sm
          159   2019: am_bsp_pins.c
          160   2033: am_hal_pin.c
          161   2046: am_hal_queue.c
          162   2061: am_hal_timer.c
          163   2076: TimerFlags
          164   2087: am_hal_clkgen.c
          165   2103: am_hal_cmdq.c
          166   2117: dc.s
          167   2122: ../clib/longlong.s
          168   2141: ../clib/memcpset.s
          169   2160: ../clib/heapaux.c
          170   2178: ../clib/angel/startup.s
          171   2202: !!!main
          172   2210: ../clib/angel/handlers.s
          173   2235: !!handler_copy
          174   2250: ../fplib/d2f.s
          175   2265: x$fpl$d2f
          176   2275: ../clib/angel/kernel.s
          177   2298: .ARM.Collect$$rtentry$$00000000
          178   2330: ../clib/angel/rt.s
          179   2349: ../fplib/dnaninf.s
          180   2368: x$fpl$dnaninf
          181   2382: ../fplib/fretinf.s
          182   2401: x$fpl$fretinf
          183   2415: ../fplib/usenofp.s
          184   2434: x$fpl$usenofp
          185   2448: .ARM.Collect$$rtentry$$00000002
          186   2480: .ARM.Collect$$rtentry$$00000009
          187   2512: .ARM.Collect$$rtentry$$0000000A
          188   2544: .ARM.Collect$$rtentry$$0000000C
          189   2576: .ARM.Collect$$rtentry$$0000000D
          190   2608: .ARM.Collect$$rtentry$$00000004
          191   2640: ../clib/angel/sys.s
          192   2660: ../clib/stdlib.c
          193   2677: ../clib/signal.c
          194   2694: ../clib/angel/boardlib.s
          195   2719: ../clib/libinit.s
          196   2737: .ARM.Collect$$libinit$$00000000
          197   2769: .bss
          198   2774: .ARM.Collect$$rtexit$$00000000
          199   2805: .ARM.Collect$$libinit$$00000001
          200   2837: .ARM.Collect$$libinit$$00000004
          201   2869: .ARM.Collect$$libinit$$00000006
          202   2901: .ARM.Collect$$libinit$$0000000C
          203   2933: .ARM.Collect$$libinit$$0000000E
          204   2965: .ARM.Collect$$libinit$$00000010
          205   2997: .ARM.Collect$$libinit$$00000013
          206   3029: .ARM.Collect$$libinit$$00000015
          207   3061: .ARM.Collect$$libinit$$00000017
          208   3093: .ARM.Collect$$libinit$$00000019
          209   3125: .ARM.Collect$$libinit$$0000001B
          210   3157: .ARM.Collect$$libinit$$0000001D
          211   3189: .ARM.Collect$$libinit$$0000001F
          212   3221: .ARM.Collect$$libinit$$00000021
          213   3253: .ARM.Collect$$libinit$$00000023
          214   3285: .ARM.Collect$$libinit$$00000025
          215   3317: .ARM.Collect$$libinit$$00000027
          216   3349: .ARM.Collect$$libinit$$0000002E
          217   3381: .ARM.Collect$$libinit$$00000030
          218   3413: .ARM.Collect$$libinit$$00000032
          219   3445: .ARM.Collect$$libinit$$00000034
          220   3477: .ARM.Collect$$libinit$$00000035
          221   3509: ../clib/angel/sysapp.c
          222   3532: .ARM.Collect$$rtexit$$00000002
          223   3563: .ARM.Collect$$rtexit$$00000003
          224   3594: .ARM.Collect$$rtexit$$00000004
          225   3625: ../clib/armsys.c
          226   3642: ../fplib/fpinit.s
          227   3660: x$fpl$fpinit
          228   3673: ../clib/signal.s
          229   3690: .ARM.Collect$$libshutdown$$00000000
          230   3726: ../clib/heapalloc.c
          231   3746: .ARM.Collect$$libshutdown$$00000002
          232   3782: .ARM.Collect$$libshutdown$$00000004
          233   3818: .ARM.Collect$$libshutdown$$00000007
          234   3854: .ARM.Collect$$libshutdown$$0000000A
          235   3890: .ARM.Collect$$libshutdown$$0000000C
          236   3926: .ARM.Collect$$libshutdown$$0000000F
          237   3962: .ARM.Collect$$libshutdown$$00000010
          238   3998: ../clib/angel/dczerorl2.s
          239   4024: !!dczerorl2
          240   4036: ../clib/angel/scatter.s
          241   4060: !!!scatter
          242   4071: !!handler_zi
          243   4084: BuildAttributes$$THM_ISAv4$E$P$D$K$B$S$7EM$VFPi3$EXTD16$VFPS$VFMA$PE$A:L22UL41UL21$X:L11$S22US41US21$IEEE1$IW$~IW$USESV6$~STKCKD$USESV7$~SHL$OTIME$ROPI$EBA8$UX$STANDARDLIB$REQ8$PRES8$EABIv2
          244   4274: __Vectors
          245   4284: __Patchable
          246   4296: Reset_Handler
          247   4310: HardFault_Handler
          248   4328: NMI_Handler
          249   4340: MemManage_Handler
          250   4358: BusFault_Handler
          251   4375: UsageFault_Handler
          252   4394: SVC_Handler
          253   4406: DebugMon_Handler
          254   4423: PendSV_Handler
          255   4438: SysTick_Handler
          256   4454: am_adc_isr
          257   4465: am_audadc0_isr
          258   4480: am_brownout_isr
          259   4496: am_cachecpu_isr
          260   4512: am_clkgen_isr
          261   4526: am_ctimer_isr
          262   4540: am_disp_isr
          263   4552: am_dsi_isr
          264   4563: am_dspi2s0_isr
          265   4578: am_dspi2s1_isr
          266   4593: am_dspi2s2_isr
          267   4608: am_dspi2s3_isr
          268   4623: am_gpio0_001f_isr
          269   4641: am_gpio0_203f_isr
          270   4659: am_gpio0_405f_isr
          271   4677: am_gpio0_607f_isr
          272   4695: am_gpio1_001f_isr
          273   4713: am_gpio1_203f_isr
          274   4731: am_gpio1_405f_isr
          275   4749: am_gpio1_607f_isr
          276   4767: am_gpu_isr
          277   4778: am_iomaster0_isr
          278   4795: am_iomaster1_isr
          279   4812: am_iomaster2_isr
          280   4829: am_iomaster3_isr
          281   4846: am_iomaster4_isr
          282   4863: am_iomaster5_isr
          283   4880: am_iomaster6_isr
          284   4897: am_iomaster7_isr
          285   4914: am_ioslave_acc_isr
          286   4933: am_ioslave_ios_isr
          287   4952: am_mspi0_isr
          288   4965: am_mspi1_isr
          289   4978: am_mspi2_isr
          290   4991: am_pdm0_isr
          291   5003: am_pdm1_isr
          292   5015: am_pdm2_isr
          293   5027: am_pdm3_isr
          294   5039: am_rtc_isr
          295   5050: am_sdio_isr
          296   5062: am_stimer_cmpr0_isr
          297   5082: am_stimer_cmpr1_isr
          298   5102: am_stimer_cmpr2_isr
          299   5122: am_stimer_cmpr3_isr
          300   5142: am_stimer_cmpr4_isr
          301   5162: am_stimer_cmpr5_isr
          302   5182: am_stimer_cmpr6_isr
          303   5202: am_stimer_cmpr7_isr
          304   5222: am_stimerof_isr
          305   5238: am_timer00_isr
          306   5253: am_timer01_isr
          307   5268: am_timer02_isr
          308   5283: am_timer03_isr
          309   5298: am_timer04_isr
          310   5313: am_timer05_isr
          311   5328: am_timer06_isr
          312   5343: am_timer07_isr
          313   5358: am_timer08_isr
          314   5373: am_timer09_isr
          315   5388: am_timer10_isr
          316   5403: am_timer11_isr
          317   5418: am_timer12_isr
          318   5433: am_timer13_isr
          319   5448: am_timer14_isr
          320   5463: am_timer15_isr
          321   5478: am_uart1_isr
          322   5491: am_uart2_isr
          323   5504: am_uart3_isr
          324   5517: am_uart_isr
          325   5529: am_usb_isr
          326   5540: am_vcomp_isr
          327   5553: am_watchdog_isr
          328   5569: __main
          329   5576: __scatterload
          330   5590: __scatterload_rt2
          331   5608: __scatterload_rt2_thumb_only
          332   5637: __scatterload_null
          333   5656: __decompress
          334   5669: __decompress1
          335   5683: __scatterload_copy
          336   5702: __scatterload_zeroinit
          337   5725: __rt_lib_init
          338   5739: __rt_lib_init_fp_1
          339   5758: __rt_lib_init_alloca_1
          340   5781: __rt_lib_init_argv_1
          341   5802: __rt_lib_init_atexit_1
          342   5825: __rt_lib_init_clock_1
          343   5847: __rt_lib_init_cpp_1
          344   5867: __rt_lib_init_exceptions_1
          345   5894: __rt_lib_init_fp_trap_1
          346   5918: __rt_lib_init_getenv_1
          347   5941: __rt_lib_init_heap_1
          348   5962: __rt_lib_init_lc_collate_1
          349   5989: __rt_lib_init_lc_ctype_1
          350   6014: __rt_lib_init_lc_monetary_1
          351   6042: __rt_lib_init_lc_numeric_1
          352   6069: __rt_lib_init_lc_time_1
          353   6093: __rt_lib_init_preinit_1
          354   6117: __rt_lib_init_rand_1
          355   6138: __rt_lib_init_relocate_pie_1
          356   6167: __rt_lib_init_return
          357   6188: __rt_lib_init_signal_1
          358   6211: __rt_lib_init_stdio_1
          359   6233: __rt_lib_init_user_alloc_1
          360   6260: __rt_lib_shutdown
          361   6278: __rt_lib_shutdown_cpp_1
          362   6302: __rt_lib_shutdown_fp_trap_1
          363   6330: __rt_lib_shutdown_heap_1
          364   6355: __rt_lib_shutdown_return
          365   6380: __rt_lib_shutdown_signal_1
          366   6407: __rt_lib_shutdown_stdio_1
          367   6433: __rt_lib_shutdown_user_alloc_1
          368   6464: __rt_entry
          369   6475: __rt_entry_presh_1
          370   6494: __rt_entry_sh
          371   6508: __rt_entry_li
          372   6522: __rt_entry_postsh_1
          373   6542: __rt_entry_main
          374   6558: __rt_entry_postli_1
          375   6578: __rt_exit
          376   6588: __rt_exit_ls
          377   6601: __rt_exit_prels_1
          378   6619: __rt_exit_exit
          379   6634: __user_initial_stackheap
          380   6659: __aeabi_uldivmod
          381   6676: _ll_udiv
          382   6685: __use_two_region_memory
          383   6709: __rt_heap_escrow$2region
          384   6734: __rt_heap_expand$2region
          385   6759: __user_setup_stackheap
          386   6782: exit
          387   6787: __user_libspace
          388   6803: __user_perproc_libspace
          389   6827: __user_perthread_libspace
          390   6853: _sys_exit
          391   6863: __I$use$semihosting
          392   6883: __use_no_semihosting_swi
          393   6908: __semihosting_library_function
          394   6939: am_bsp_buffered_uart_printf_disable
          395   6975: am_bsp_buffered_uart_printf_enable
          396   7010: am_bsp_debug_printf_disable
          397   7038: am_bsp_debug_printf_enable
          398   7065: am_bsp_itm_printf_enable
          399   7090: am_bsp_low_power_init
          400   7112: am_bsp_uart_printf_enable
          401   7138: am_bsp_uart_string_print
          402   7163: am_hal_cachectrl_config
          403   7187: am_hal_cachectrl_enable
          404   7211: am_hal_clkgen_control
          405   7233: am_hal_daxi_config
          406   7252: am_hal_daxi_control
          407   7272: am_hal_dcu_get
          408   7287: am_hal_dcu_lock_status_get
          409   7314: am_hal_dcu_update
          410   7332: am_hal_delay_us
          411   7348: am_hal_delay_us_status_change
          412   7378: am_hal_delay_us_status_check
          413   7407: am_hal_gpio_pinconfig
          414   7429: am_hal_gpio_state_write
          415   7453: am_hal_interrupt_master_disable
          416   7485: am_hal_interrupt_master_set
          417   7513: am_hal_itm_disable
          418   7532: am_hal_itm_enable
          419   7550: am_hal_itm_not_busy
          420   7570: am_hal_itm_print
          421   7587: am_hal_load_ui32
          422   7604: am_hal_mcuctrl_info_get
          423   7628: am_hal_mram_ds_init
          424   7648: am_hal_mram_info_read
          425   7670: am_hal_pwrctrl_control
          426   7693: am_hal_pwrctrl_low_power_init
          427   7723: am_hal_pwrctrl_mcu_memory_config
          428   7756: am_hal_pwrctrl_mcu_mode_select
          429   7787: am_hal_pwrctrl_periph_disable
          430   7817: am_hal_pwrctrl_periph_enable
          431   7846: am_hal_pwrctrl_sram_config
          432   7873: am_hal_queue_init
          433   7891: am_hal_queue_item_add
          434   7913: am_hal_queue_item_get
          435   7935: am_hal_reset_status_get
          436   7959: am_hal_rtc_osc_disable
          437   7982: am_hal_security_get_info
          438   8007: am_hal_security_get_socid
          439   8033: am_hal_sysctrl_sleep
          440   8054: am_hal_timer_clear
          441   8073: am_hal_timer_clear_stop
          442   8097: am_hal_timer_default_config_set
          443   8129: am_hal_timer_disable
          444   8150: am_hal_timer_enable
          445   8170: am_hal_timer_enable_sync
          446   8195: am_hal_timer_interrupt_clear
          447   8224: am_hal_timer_interrupt_enable
          448   8254: am_hal_timer_interrupt_status_get
          449   8288: am_hal_timer_read
          450   8306: am_hal_timer_reset_config
          451   8332: am_hal_tpiu_enable
          452   8351: am_hal_triple_read
          453   8370: am_hal_uart_buffer_configure
          454   8399: am_hal_uart_configure
          455   8421: am_hal_uart_deinitialize
          456   8446: am_hal_uart_initialize
          457   8469: am_hal_uart_power_control
          458   8495: am_hal_uart_transfer
          459   8516: am_hal_uart_tx_flush
          460   8537: am_hal_util_write_and_wait
          461   8564: am_util_id_device
          462   8582: am_util_stdio_printf
          463   8603: am_util_stdio_printf_init
          464   8629: am_util_stdio_sprintf
          465   8651: am_util_stdio_terminal_clear
          466   8680: am_util_stdio_vsprintf
          467   8703: buck_ldo_override_init
          468   8726: buck_ldo_update_override
          469   8751: internal_timer_config
          470   8773: main
          471   8778: timer_config_b1
          472   8794: __aeabi_d2f
          473   8806: _d2f
          474   8811: __fpl_dnaninf
          475   8825: _fp_init
          476   8834: __fplib_config_fpu_vfp
          477   8857: __fplib_config_pureend_doubles
          478   8888: __fpl_fretinf
          479   8902: __I$use$fp
          480   8913: am_hal_cachectrl_defaults
          481   8939: am_hal_daxi_defaults
          482   8960: am_hal_gpio_pincfg_disabled
          483   8988: am_hal_gpio_pincfg_output
          484   9014: am_hal_gpio_pincfg_pulledup_disabled
          485   9051: am_hal_pwrctrl_peripheral_control
          486   9085: g_DefaultMcuMemCfg
          487   9104: g_DefaultSRAMCfg
          488   9121: g_am_hal_bootrom_helper
          489   9145: g_ui32HALversion
          490   9162: g_ui8HALcompiler
          491   9179: sGlobalAccess
          492   9193: ui32DSP0Allowed
          493   9209: ui32DSP1Allowed
          494   9225: ui32MCUAllowed
          495   9240: ui32SharedAccess
          496   9257: Region$$Table$$Base
          497   9277: Region$$Table$$Limit
          498   9298: gpDcuEnable
          499   9310: gpDcuLock
          500   9320: gDcuEnable
          501   9331: gDcuDisable
          502   9343: g_eCurrPwrMode
          503   9358: g_ui32TrimVer
          504   9372: g_ui32origSimobuckVDDFtrim
          505   9399: g_ui32origSimobuckVDDCtrim
          506   9426: g_ui32origLDOVDDCtrim
          507   9448: g_ui32origMEMLDOActiveTrim
          508   9475: g_ui32origSimobuckVDDStrim
          509   9502: g_AM_BSP_GPIO_COM_UART_RX
          510   9528: g_AM_BSP_GPIO_COM_UART_TX
          511   9554: g_AM_BSP_GPIO_ITM_SWO
          512   9576: program_mram_tmc_tcycrd
          513   9600: recover_broken_mram_tmc_r_timer1
          514   9633: storeAndWFIfuncRAM
          515   9652: __libspace_start
          516   9669: __temporary_stack_top$libspace
          517   9700: gAmHalResetStatus
          518   9718: gMspiXipState
          519   9732: gStartOff
          520   9742: g_am_hal_uart_states
          521   9763: g_bVDDCbuckboosted
          522   9782: g_pfnCharPrint
          523   9797: g_trim_reg_origvals
          524   9817: psGlobalAccessPtr
          525   9835: ui32MCUClaimed
          526   9850: ui32DSP0Claimed
          527   9866: ui32DSP1Claimed
          528   9882: 
          529   9883: 


** Section #13 '.note' (SHT_NOTE)
    Size   : 32 bytes (alignment 4)


** Section #14 '.comment' (SHT_PROGBITS)
    Size   : 1668 bytes


** Section #15 '.shstrtab' (SHT_STRTAB)
    Size   : 148 bytes

            #  Offset String
        ====================================

            1      1: MCU_MRAM
            2     10: MCU_TCM
            3     18: SHARED_SRAM
            4     30: .debug_abbrev
            5     44: .debug_frame
            6     57: .debug_info
            7     69: .debug_line
            8     81: .debug_ranges
            9     95: .debug_str
           10    106: .symtab
           11    114: .strtab
           12    122: .note
           13    128: .comment
           14    137: .shstrtab
           15    147: 


