
========================================================================

** ELF Header Information

    File Name: bin\pwr_32mhz.axf

    Machine class: ELFCLASS32 (32-bit)
    Data encoding: ELFDATA2LSB (Little endian)
    Header version: EV_CURRENT (Current version)
    Operating System ABI: none
    ABI Version: 0
    File Type: ET_EXEC (Executable) (2)
    Machine: EM_ARM (ARM)

    Image Entry point: 0x00018235
    Flags: EF_ARM_HASENTRY + EF_ARM_ABI_FLOAT_HARD (0x05000402)

    ARM ELF revision: 5 (ABI version 2)

    Conforms to Hard float procedure-call standard

    Built with
    Component: Arm Compiler for Embedded 6.19 Tool: armasm [5e73cb00]
    Component: Arm Compiler for Embedded 6.19 Tool: armlink [5e73cb00]

    Header size: 52 bytes (0x34)
    Program header entry size: 32 bytes (0x20)
    Section header entry size: 40 bytes (0x28)

    Program header entries: 1
    Section header entries: 16

    Program header offset: 60624 (0x0000ecd0)
    Section header offset: 60656 (0x0000ecf0)

    Section header string table index: 15

========================================================================

** Program header #0 (PT_LOAD) [PF_X + PF_W + PF_R + PF_ARM_ENTRY]
    Size : 13592 bytes (8808 bytes in file)
    Virtual address: 0x00018000 (Alignment 8)


========================================================================

** Section #1 'MCU_MRAM' (SHT_PROGBITS) [SHF_ALLOC + SHF_EXECINSTR]
    Size   : 8720 bytes (alignment 4)
    Address: 0x00018000

    $d
    RESET
    __Vectors
        0x00018000:    100012c8    ....    DCD    268440264
        0x00018004:    00018201    ....    DCD    98817
        0x00018008:    0001821f    ....    DCD    98847
        0x0001800c:    00018459    Y...    DCD    99417
        0x00018010:    00018221    !...    DCD    98849
        0x00018014:    00018223    #...    DCD    98851
        0x00018018:    00018225    %...    DCD    98853
        0x0001801c:    00000000    ....    DCD    0
        0x00018020:    00000000    ....    DCD    0
        0x00018024:    00000000    ....    DCD    0
        0x00018028:    00000000    ....    DCD    0
        0x0001802c:    00018227    '...    DCD    98855
        0x00018030:    00018229    )...    DCD    98857
        0x00018034:    00000000    ....    DCD    0
        0x00018038:    0001822b    +...    DCD    98859
        0x0001803c:    0001822d    -...    DCD    98861
        0x00018040:    0001822f    /...    DCD    98863
        0x00018044:    0001822f    /...    DCD    98863
        0x00018048:    0001822f    /...    DCD    98863
        0x0001804c:    0001822f    /...    DCD    98863
        0x00018050:    0001822f    /...    DCD    98863
        0x00018054:    0001822f    /...    DCD    98863
        0x00018058:    0001822f    /...    DCD    98863
        0x0001805c:    0001822f    /...    DCD    98863
        0x00018060:    0001822f    /...    DCD    98863
        0x00018064:    0001822f    /...    DCD    98863
        0x00018068:    0001822f    /...    DCD    98863
        0x0001806c:    0001822f    /...    DCD    98863
        0x00018070:    0001822f    /...    DCD    98863
        0x00018074:    0001822f    /...    DCD    98863
        0x00018078:    0001822f    /...    DCD    98863
        0x0001807c:    0001822f    /...    DCD    98863
        0x00018080:    0001822f    /...    DCD    98863
        0x00018084:    0001822f    /...    DCD    98863
        0x00018088:    0001822f    /...    DCD    98863
        0x0001808c:    0001822f    /...    DCD    98863
        0x00018090:    0001822f    /...    DCD    98863
        0x00018094:    0001822f    /...    DCD    98863
        0x00018098:    0001822f    /...    DCD    98863
        0x0001809c:    0001822f    /...    DCD    98863
        0x000180a0:    0001822f    /...    DCD    98863
        0x000180a4:    0001822f    /...    DCD    98863
        0x000180a8:    0001822f    /...    DCD    98863
        0x000180ac:    0001822f    /...    DCD    98863
        0x000180b0:    0001822f    /...    DCD    98863
        0x000180b4:    0001822f    /...    DCD    98863
        0x000180b8:    0001822f    /...    DCD    98863
        0x000180bc:    0001822f    /...    DCD    98863
        0x000180c0:    0001822f    /...    DCD    98863
        0x000180c4:    0001822f    /...    DCD    98863
        0x000180c8:    0001822f    /...    DCD    98863
        0x000180cc:    0001822f    /...    DCD    98863
        0x000180d0:    0001822f    /...    DCD    98863
        0x000180d4:    0001822f    /...    DCD    98863
        0x000180d8:    0001822f    /...    DCD    98863
        0x000180dc:    0001822f    /...    DCD    98863
        0x000180e0:    0001822f    /...    DCD    98863
        0x000180e4:    0001822f    /...    DCD    98863
        0x000180e8:    0001822f    /...    DCD    98863
        0x000180ec:    0001822f    /...    DCD    98863
        0x000180f0:    0001822f    /...    DCD    98863
        0x000180f4:    0001822f    /...    DCD    98863
        0x000180f8:    0001822f    /...    DCD    98863
        0x000180fc:    0001822f    /...    DCD    98863
        0x00018100:    0001822f    /...    DCD    98863
        0x00018104:    0001822f    /...    DCD    98863
        0x00018108:    0001822f    /...    DCD    98863
        0x0001810c:    0001822f    /...    DCD    98863
        0x00018110:    0001822f    /...    DCD    98863
        0x00018114:    0001822f    /...    DCD    98863
        0x00018118:    0001822f    /...    DCD    98863
        0x0001811c:    0001822f    /...    DCD    98863
        0x00018120:    0001822f    /...    DCD    98863
        0x00018124:    0001822f    /...    DCD    98863
        0x00018128:    0001822f    /...    DCD    98863
        0x0001812c:    0001822f    /...    DCD    98863
        0x00018130:    0001822f    /...    DCD    98863
        0x00018134:    0001822f    /...    DCD    98863
        0x00018138:    0001822f    /...    DCD    98863
        0x0001813c:    0001822f    /...    DCD    98863
        0x00018140:    0001822f    /...    DCD    98863
        0x00018144:    0001822f    /...    DCD    98863
        0x00018148:    0001822f    /...    DCD    98863
        0x0001814c:    00019985    ....    DCD    104837
        0x00018150:    0001822f    /...    DCD    98863
        0x00018154:    0001822f    /...    DCD    98863
        0x00018158:    0001822f    /...    DCD    98863
        0x0001815c:    0001822f    /...    DCD    98863
        0x00018160:    0001822f    /...    DCD    98863
        0x00018164:    0001822f    /...    DCD    98863
        0x00018168:    0001822f    /...    DCD    98863
        0x0001816c:    0001822f    /...    DCD    98863
        0x00018170:    0001822f    /...    DCD    98863
        0x00018174:    0001822f    /...    DCD    98863
        0x00018178:    0001822f    /...    DCD    98863
        0x0001817c:    0001822f    /...    DCD    98863
        0x00018180:    0001822f    /...    DCD    98863
        0x00018184:    0001822f    /...    DCD    98863
        0x00018188:    0001822f    /...    DCD    98863
        0x0001818c:    0001822f    /...    DCD    98863
    __Patchable
        0x00018190:    00000000    ....    DCD    0
        0x00018194:    00000000    ....    DCD    0
        0x00018198:    00000000    ....    DCD    0
        0x0001819c:    00000000    ....    DCD    0
        0x000181a0:    00000000    ....    DCD    0
        0x000181a4:    00000000    ....    DCD    0
        0x000181a8:    00000000    ....    DCD    0
        0x000181ac:    00000000    ....    DCD    0
        0x000181b0:    00000000    ....    DCD    0
        0x000181b4:    00000000    ....    DCD    0
        0x000181b8:    00000000    ....    DCD    0
        0x000181bc:    00000000    ....    DCD    0
        0x000181c0:    00000000    ....    DCD    0
        0x000181c4:    00000000    ....    DCD    0
        0x000181c8:    00000000    ....    DCD    0
        0x000181cc:    00000000    ....    DCD    0
        0x000181d0:    00000000    ....    DCD    0
        0x000181d4:    00000000    ....    DCD    0
        0x000181d8:    00000000    ....    DCD    0
        0x000181dc:    00000000    ....    DCD    0
        0x000181e0:    00000000    ....    DCD    0
        0x000181e4:    00000000    ....    DCD    0
        0x000181e8:    00000000    ....    DCD    0
        0x000181ec:    00000000    ....    DCD    0
        0x000181f0:    00000000    ....    DCD    0
        0x000181f4:    00000000    ....    DCD    0
        0x000181f8:    00000000    ....    DCD    0
        0x000181fc:    00000000    ....    DCD    0
    $t
    $v0
    Reset_Handler
        0x00018200:    f64e5088    N..P    MOV      r0,#0xed88
        0x00018204:    f2ce0000    ....    MOVT     r0,#0xe000
        0x00018208:    6801        .h      LDR      r1,[r0,#0]
        0x0001820a:    f4410170    A.p.    ORR      r1,r1,#0xf00000
        0x0001820e:    6001        .`      STR      r1,[r0,#0]
        0x00018210:    f3bf8f4f    ..O.    DSB      
        0x00018214:    f3bf8f6f    ..o.    ISB      
        0x00018218:    4805        .H      LDR      r0,[pc,#20] ; [0x18230] = 0x18235
        0x0001821a:    4700        .G      BX       r0
        0x0001821c:    e7fe        ..      B        0x1821c ; Reset_Handler + 28
    NMI_Handler
        0x0001821e:    e7fe        ..      B        NMI_Handler ; 0x1821e
    MemManage_Handler
        0x00018220:    e7fe        ..      B        MemManage_Handler ; 0x18220
    BusFault_Handler
        0x00018222:    e7fe        ..      B        BusFault_Handler ; 0x18222
    UsageFault_Handler
        0x00018224:    e7fe        ..      B        UsageFault_Handler ; 0x18224
    SVC_Handler
        0x00018226:    e7fe        ..      B        SVC_Handler ; 0x18226
    DebugMon_Handler
        0x00018228:    e7fe        ..      B        DebugMon_Handler ; 0x18228
    PendSV_Handler
        0x0001822a:    e7fe        ..      B        PendSV_Handler ; 0x1822a
    SysTick_Handler
        0x0001822c:    e7fe        ..      B        SysTick_Handler ; 0x1822c
    am_cryptosec_isr
    am_default_isr
    am_adc_isr
    am_audadc0_isr
    am_brownout_isr
    am_cachecpu_isr
    am_clkgen_isr
    am_ctimer_isr
    am_disp_isr
    am_dsi_isr
    am_dspi2s0_isr
    am_dspi2s1_isr
    am_dspi2s2_isr
    am_dspi2s3_isr
    am_gpio0_001f_isr
    am_gpio0_203f_isr
    am_gpio0_405f_isr
    am_gpio0_607f_isr
    am_gpio1_001f_isr
    am_gpio1_203f_isr
    am_gpio1_405f_isr
    am_gpio1_607f_isr
    am_gpu_isr
    am_iomaster0_isr
    am_iomaster1_isr
    am_iomaster2_isr
    am_iomaster3_isr
    am_iomaster4_isr
    am_iomaster5_isr
    am_iomaster6_isr
    am_iomaster7_isr
    am_ioslave_acc_isr
    am_ioslave_ios_isr
    am_mspi0_isr
    am_mspi1_isr
    am_mspi2_isr
    am_pdm0_isr
    am_pdm1_isr
    am_pdm2_isr
    am_pdm3_isr
    am_rtc_isr
    am_sdio_isr
    am_stimer_cmpr0_isr
    am_stimer_cmpr1_isr
    am_stimer_cmpr2_isr
    am_stimer_cmpr3_isr
    am_stimer_cmpr4_isr
    am_stimer_cmpr5_isr
    am_stimer_cmpr6_isr
    am_stimer_cmpr7_isr
    am_stimerof_isr
    am_timer01_isr
    am_timer02_isr
    am_timer03_isr
    am_timer04_isr
    am_timer05_isr
    am_timer06_isr
    am_timer07_isr
    am_timer08_isr
    am_timer09_isr
    am_timer10_isr
    am_timer11_isr
    am_timer12_isr
    am_timer13_isr
    am_timer14_isr
    am_timer15_isr
    am_uart1_isr
    am_uart2_isr
    am_uart3_isr
    am_uart_isr
    am_usb_isr
    am_vcomp_isr
    am_watchdog_isr
        0x0001822e:    e7fe        ..      B        am_cryptosec_isr ; 0x1822e
    $d
        0x00018230:    00018235    5...    DCD    98869
    $t
    !!!main
    __main
        0x00018234:    f000f802    ....    BL       __scatterload ; 0x1823c
        0x00018238:    f000f83c    ..<.    BL       __rt_entry ; 0x182b4
    !!!scatter
    __scatterload
    __scatterload_rt2
    __scatterload_rt2_thumb_only
        0x0001823c:    a00a        ..      ADR      r0,{pc}+0x2c ; 0x18268
        0x0001823e:    e8900c00    ....    LDM      r0,{r10,r11}
        0x00018242:    4482        .D      ADD      r10,r10,r0
        0x00018244:    4483        .D      ADD      r11,r11,r0
        0x00018246:    f1aa0701    ....    SUB      r7,r10,#1
    __scatterload_null
        0x0001824a:    45da        .E      CMP      r10,r11
        0x0001824c:    d101        ..      BNE      0x18252 ; __scatterload_null + 8
        0x0001824e:    f000f831    ..1.    BL       __rt_entry ; 0x182b4
        0x00018252:    f2af0e09    ....    ADR      lr,{pc}-7 ; 0x1824b
        0x00018256:    e8ba000f    ....    LDM      r10!,{r0-r3}
        0x0001825a:    f0130f01    ....    TST      r3,#1
        0x0001825e:    bf18        ..      IT       NE
        0x00018260:    1afb        ..      SUBNE    r3,r7,r3
        0x00018262:    f0430301    C...    ORR      r3,r3,#1
        0x00018266:    4718        .G      BX       r3
    $d
        0x00018268:    00001f78    x...    DCD    8056
        0x0001826c:    00001fa8    ....    DCD    8104
    $t
    !!handler_copy
    __scatterload_copy
        0x00018270:    3a10        .:      SUBS     r2,r2,#0x10
        0x00018272:    bf24        $.      ITT      CS
        0x00018274:    c878        x.      LDMCS    r0!,{r3-r6}
        0x00018276:    c178        x.      STMCS    r1!,{r3-r6}
        0x00018278:    d8fa        ..      BHI      __scatterload_copy ; 0x18270
        0x0001827a:    0752        R.      LSLS     r2,r2,#29
        0x0001827c:    bf24        $.      ITT      CS
        0x0001827e:    c830        0.      LDMCS    r0!,{r4,r5}
        0x00018280:    c130        0.      STMCS    r1!,{r4,r5}
        0x00018282:    bf44        D.      ITT      MI
        0x00018284:    6804        .h      LDRMI    r4,[r0,#0]
        0x00018286:    600c        .`      STRMI    r4,[r1,#0]
        0x00018288:    4770        pG      BX       lr
        0x0001828a:    0000        ..      MOVS     r0,r0
    !!handler_zi
    __scatterload_zeroinit
        0x0001828c:    2300        .#      MOVS     r3,#0
        0x0001828e:    2400        .$      MOVS     r4,#0
        0x00018290:    2500        .%      MOVS     r5,#0
        0x00018292:    2600        .&      MOVS     r6,#0
        0x00018294:    3a10        .:      SUBS     r2,r2,#0x10
        0x00018296:    bf28        (.      IT       CS
        0x00018298:    c178        x.      STMCS    r1!,{r3-r6}
        0x0001829a:    d8fb        ..      BHI      0x18294 ; __scatterload_zeroinit + 8
        0x0001829c:    0752        R.      LSLS     r2,r2,#29
        0x0001829e:    bf28        (.      IT       CS
        0x000182a0:    c130        0.      STMCS    r1!,{r4,r5}
        0x000182a2:    bf48        H.      IT       MI
        0x000182a4:    600b        .`      STRMI    r3,[r1,#0]
        0x000182a6:    4770        pG      BX       lr
    .ARM.Collect$$libinit$$00000000
    __rt_lib_init
        0x000182a8:    b51f        ..      PUSH     {r0-r4,lr}
    .ARM.Collect$$libinit$$00000001
    __rt_lib_init_fp_1
        0x000182aa:    f001fe06    ....    BL       _fp_init ; 0x19eba
    .ARM.Collect$$libinit$$00000004
    .ARM.Collect$$libinit$$00000006
    .ARM.Collect$$libinit$$0000000C
    .ARM.Collect$$libinit$$0000000E
    .ARM.Collect$$libinit$$00000010
    .ARM.Collect$$libinit$$00000013
    .ARM.Collect$$libinit$$00000015
    .ARM.Collect$$libinit$$00000017
    .ARM.Collect$$libinit$$00000019
    .ARM.Collect$$libinit$$0000001B
    .ARM.Collect$$libinit$$0000001D
    .ARM.Collect$$libinit$$0000001F
    .ARM.Collect$$libinit$$00000021
    .ARM.Collect$$libinit$$00000023
    .ARM.Collect$$libinit$$00000025
    .ARM.Collect$$libinit$$00000027
    .ARM.Collect$$libinit$$0000002E
    .ARM.Collect$$libinit$$00000030
    .ARM.Collect$$libinit$$00000032
    .ARM.Collect$$libinit$$00000034
    .ARM.Collect$$libinit$$00000035
    __rt_lib_init_alloca_1
    __rt_lib_init_argv_1
    __rt_lib_init_atexit_1
    __rt_lib_init_clock_1
    __rt_lib_init_cpp_1
    __rt_lib_init_exceptions_1
    __rt_lib_init_fp_trap_1
    __rt_lib_init_getenv_1
    __rt_lib_init_heap_1
    __rt_lib_init_lc_collate_1
    __rt_lib_init_lc_ctype_1
    __rt_lib_init_lc_monetary_1
    __rt_lib_init_lc_numeric_1
    __rt_lib_init_lc_time_1
    __rt_lib_init_preinit_1
    __rt_lib_init_rand_1
    __rt_lib_init_relocate_pie_1
    __rt_lib_init_return
    __rt_lib_init_signal_1
    __rt_lib_init_stdio_1
    __rt_lib_init_user_alloc_1
        0x000182ae:    bd1f        ..      POP      {r0-r4,pc}
    .ARM.Collect$$libshutdown$$00000000
    __rt_lib_shutdown
        0x000182b0:    b510        ..      PUSH     {r4,lr}
    .ARM.Collect$$libshutdown$$00000002
    .ARM.Collect$$libshutdown$$00000004
    .ARM.Collect$$libshutdown$$00000007
    .ARM.Collect$$libshutdown$$0000000A
    .ARM.Collect$$libshutdown$$0000000C
    .ARM.Collect$$libshutdown$$0000000F
    .ARM.Collect$$libshutdown$$00000010
    __rt_lib_shutdown_cpp_1
    __rt_lib_shutdown_fp_trap_1
    __rt_lib_shutdown_heap_1
    __rt_lib_shutdown_return
    __rt_lib_shutdown_signal_1
    __rt_lib_shutdown_stdio_1
    __rt_lib_shutdown_user_alloc_1
        0x000182b2:    bd10        ..      POP      {r4,pc}
    .ARM.Collect$$rtentry$$00000000
    .ARM.Collect$$rtentry$$00000002
    .ARM.Collect$$rtentry$$00000004
    __rt_entry
    __rt_entry_presh_1
    __rt_entry_sh
        0x000182b4:    f000f895    ....    BL       __user_setup_stackheap ; 0x183e2
        0x000182b8:    4611        .F      MOV      r1,r2
    .ARM.Collect$$rtentry$$00000009
    .ARM.Collect$$rtentry$$0000000A
    __rt_entry_li
    __rt_entry_postsh_1
        0x000182ba:    f7fffff5    ....    BL       __rt_lib_init ; 0x182a8
    .ARM.Collect$$rtentry$$0000000C
    .ARM.Collect$$rtentry$$0000000D
    __rt_entry_main
    __rt_entry_postli_1
        0x000182be:    f001fcf7    ....    BL       main ; 0x19cb0
        0x000182c2:    f000f8b3    ....    BL       exit ; 0x1842c
    .ARM.Collect$$rtexit$$00000000
    __rt_exit
        0x000182c6:    b403        ..      PUSH     {r0,r1}
    .ARM.Collect$$rtexit$$00000002
    .ARM.Collect$$rtexit$$00000003
    __rt_exit_ls
    __rt_exit_prels_1
        0x000182c8:    f7fffff2    ....    BL       __rt_lib_shutdown ; 0x182b0
    .ARM.Collect$$rtexit$$00000004
    __rt_exit_exit
        0x000182cc:    bc03        ..      POP      {r0,r1}
        0x000182ce:    f000f8bb    ....    BL       _sys_exit ; 0x18448
        0x000182d2:    0000        ..      MOVS     r0,r0
    .text
    $v0
    __user_initial_stackheap
        0x000182d4:    4802        .H      LDR      r0,[pc,#8] ; [0x182e0] = 0x100002c8
        0x000182d6:    4903        .I      LDR      r1,[pc,#12] ; [0x182e4] = 0x100012c8
        0x000182d8:    4a01        .J      LDR      r2,[pc,#4] ; [0x182e0] = 0x100002c8
        0x000182da:    4b03        .K      LDR      r3,[pc,#12] ; [0x182e8] = 0x100002c8
        0x000182dc:    4770        pG      BX       lr
    $d
        0x000182de:    0000        ..      DCW    0
        0x000182e0:    100002c8    ....    DCD    268436168
        0x000182e4:    100012c8    ....    DCD    268440264
        0x000182e8:    100002c8    ....    DCD    268436168
    $t
    .text
    __aeabi_uldivmod
    _ll_udiv
        0x000182ec:    ea530c02    S...    ORRS     r12,r3,r2
        0x000182f0:    f0008069    ..i.    BEQ.W    0x183c6 ; __aeabi_uldivmod + 218
        0x000182f4:    e92d4bf0    -..K    PUSH     {r4-r9,r11,lr}
        0x000182f8:    f04f0600    O...    MOV      r6,#0
        0x000182fc:    2b00        .+      CMP      r3,#0
        0x000182fe:    bf1f        ..      ITTTT    NE
        0x00018300:    fab3f583    ....    CLZNE    r5,r3
        0x00018304:    fa03f405    ....    LSLNE    r4,r3,r5
        0x00018308:    fa24f605    $...    LSRNE    r6,r4,r5
        0x0001830c:    405e        ^@      EORNE    r6,r6,r3
        0x0001830e:    bf12        ..      ITEE     NE
        0x00018310:    4316        .C      ORRNE    r6,r6,r2
        0x00018312:    fab2f582    ....    CLZEQ    r5,r2
        0x00018316:    fa02f405    ....    LSLEQ    r4,r2,r5
        0x0001831a:    f1c50520    .. .    RSB      r5,r5,#0x20
        0x0001831e:    bf1e        ..      ITTT     NE
        0x00018320:    fa22fc05    "...    LSRNE    r12,r2,r5
        0x00018324:    ea44040c    D...    ORRNE    r4,r4,r12
        0x00018328:    3520         5      ADDNE    r5,r5,#0x20
        0x0001832a:    ea564c04    V..L    ORRS     r12,r6,r4,LSL #16
        0x0001832e:    ea4f4414    O..D    LSR      r4,r4,#16
        0x00018332:    bf18        ..      IT       NE
        0x00018334:    1c64        d.      ADDNE    r4,r4,#1
        0x00018336:    f04f0800    O...    MOV      r8,#0
        0x0001833a:    f04f0900    O...    MOV      r9,#0
        0x0001833e:    4290        .B      CMP      r0,r2
        0x00018340:    eb710c03    q...    SBCS     r12,r1,r3
        0x00018344:    d339        9.      BCC      0x183ba ; __aeabi_uldivmod + 206
        0x00018346:    2900        .)      CMP      r1,#0
        0x00018348:    bf19        ..      ITTEE    NE
        0x0001834a:    fab1f781    ....    CLZNE    r7,r1
        0x0001834e:    fa01f607    ....    LSLNE    r6,r1,r7
        0x00018352:    fab0f780    ....    CLZEQ    r7,r0
        0x00018356:    fa00f607    ....    LSLEQ    r6,r0,r7
        0x0001835a:    f1c70720    .. .    RSB      r7,r7,#0x20
        0x0001835e:    bf1e        ..      ITTT     NE
        0x00018360:    fa20fc07     ...    LSRNE    r12,r0,r7
        0x00018364:    ea46060c    F...    ORRNE    r6,r6,r12
        0x00018368:    3720         7      ADDNE    r7,r7,#0x20
        0x0001836a:    fbb6fcf4    ....    UDIV     r12,r6,r4
        0x0001836e:    eba70705    ....    SUB      r7,r7,r5
        0x00018372:    3f10        .?      SUBS     r7,r7,#0x10
        0x00018374:    f0070b1f    ....    AND      r11,r7,#0x1f
        0x00018378:    f1cb0620    .. .    RSB      r6,r11,#0x20
        0x0001837c:    fa2cf606    ,...    LSR      r6,r12,r6
        0x00018380:    fa0cfb0b    ....    LSL      r11,r12,r11
        0x00018384:    bf44        D.      ITT      MI
        0x00018386:    46b3        .F      MOVMI    r11,r6
        0x00018388:    2600        .&      MOVMI    r6,#0
        0x0001838a:    2f20         /      CMP      r7,#0x20
        0x0001838c:    bfa4        ..      ITT      GE
        0x0001838e:    465e        ^F      MOVGE    r6,r11
        0x00018390:    f04f0b00    O...    MOVGE    r11,#0
        0x00018394:    ea5b0c06    [...    ORRS     r12,r11,r6
        0x00018398:    bf08        ..      IT       EQ
        0x0001839a:    f04f0b01    O...    MOVEQ    r11,#1
        0x0001839e:    eb19090b    ....    ADDS     r9,r9,r11
        0x000183a2:    eb480806    H...    ADC      r8,r8,r6
        0x000183a6:    fbab7c02    ...|    UMULL    r7,r12,r11,r2
        0x000183aa:    fb06cc02    ....    MLA      r12,r6,r2,r12
        0x000183ae:    fb0bcc03    ....    MLA      r12,r11,r3,r12
        0x000183b2:    1bc0        ..      SUBS     r0,r0,r7
        0x000183b4:    eb71010c    q...    SBCS     r1,r1,r12
        0x000183b8:    e7c1        ..      B        0x1833e ; __aeabi_uldivmod + 82
        0x000183ba:    460b        .F      MOV      r3,r1
        0x000183bc:    4602        .F      MOV      r2,r0
        0x000183be:    4641        AF      MOV      r1,r8
        0x000183c0:    4648        HF      MOV      r0,r9
        0x000183c2:    e8bd8bf0    ....    POP      {r4-r9,r11,pc}
        0x000183c6:    b513        ..      PUSH     {r0,r1,r4,lr}
        0x000183c8:    4308        .C      ORRS     r0,r0,r1
        0x000183ca:    bf18        ..      IT       NE
        0x000183cc:    f04f30ff    O..0    MOVNE    r0,#0xffffffff
        0x000183d0:    4601        .F      MOV      r1,r0
        0x000183d2:    f3af8000    ....    NOP.W    
        0x000183d6:    e8bd401c    ...@    POP      {r2-r4,lr}
        0x000183da:    4770        pG      BX       lr
    .text
    __use_two_region_memory
        0x000183dc:    4770        pG      BX       lr
    __rt_heap_escrow$2region
        0x000183de:    4770        pG      BX       lr
    __rt_heap_expand$2region
        0x000183e0:    4770        pG      BX       lr
    .text
    __user_setup_stackheap
        0x000183e2:    4675        uF      MOV      r5,lr
        0x000183e4:    f000f82c    ..,.    BL       __user_libspace ; 0x18440
        0x000183e8:    46ae        .F      MOV      lr,r5
        0x000183ea:    0005        ..      MOVS     r5,r0
        0x000183ec:    4669        iF      MOV      r1,sp
        0x000183ee:    4653        SF      MOV      r3,r10
        0x000183f0:    f0200007     ...    BIC      r0,r0,#7
        0x000183f4:    4685        .F      MOV      sp,r0
        0x000183f6:    b018        ..      ADD      sp,sp,#0x60
        0x000183f8:    b520         .      PUSH     {r5,lr}
        0x000183fa:    f7ffff6b    ..k.    BL       __user_initial_stackheap ; 0x182d4
        0x000183fe:    e8bd4020    .. @    POP      {r5,lr}
        0x00018402:    f04f0600    O...    MOV      r6,#0
        0x00018406:    f04f0700    O...    MOV      r7,#0
        0x0001840a:    f04f0800    O...    MOV      r8,#0
        0x0001840e:    f04f0b00    O...    MOV      r11,#0
        0x00018412:    46ac        .F      MOV      r12,r5
        0x00018414:    e8ac09c0    ....    STM      r12!,{r6-r8,r11}
        0x00018418:    e8ac09c0    ....    STM      r12!,{r6-r8,r11}
        0x0001841c:    e8ac09c0    ....    STM      r12!,{r6-r8,r11}
        0x00018420:    e8ac09c0    ....    STM      r12!,{r6-r8,r11}
        0x00018424:    f0210107    !...    BIC      r1,r1,#7
        0x00018428:    468d        .F      MOV      sp,r1
        0x0001842a:    4770        pG      BX       lr
    .text
    exit
        0x0001842c:    b510        ..      PUSH     {r4,lr}
        0x0001842e:    4604        .F      MOV      r4,r0
        0x00018430:    f3af8000    ....    NOP.W    
        0x00018434:    4620         F      MOV      r0,r4
        0x00018436:    e8bd4010    ...@    POP      {r4,lr}
        0x0001843a:    f7ffbf44    ..D.    B.W      __rt_exit ; 0x182c6
        0x0001843e:    0000        ..      MOVS     r0,r0
    .text
    __user_libspace
    __user_perproc_libspace
    __user_perthread_libspace
        0x00018440:    4800        .H      LDR      r0,[pc,#0] ; [0x18444] = 0x10000018
        0x00018442:    4770        pG      BX       lr
    $d
        0x00018444:    10000018    ....    DCD    268435480
    $t
    .text
    _sys_exit
        0x00018448:    4901        .I      LDR      r1,[pc,#4] ; [0x18450] = 0x20026
        0x0001844a:    2018        .       MOVS     r0,#0x18
        0x0001844c:    beab        ..      BKPT     #0xab
        0x0001844e:    e7fe        ..      B        0x1844e ; _sys_exit + 6
    $d
        0x00018450:    00020026    &...    DCD    131110
    $t
    .text
    __I$use$semihosting
    __use_no_semihosting_swi
        0x00018454:    4770        pG      BX       lr
    .text
    __semihosting_library_function
        0x00018456:    0000        ..      MOVS     r0,r0
    $t.0
    HardFault_Handler
        0x00018458:    f01e0f04    ....    TST      lr,#4
        0x0001845c:    bf0c        ..      ITE      EQ
        0x0001845e:    f3ef8008    ....    MRSEQ    r0,MSP
        0x00018462:    f3ef8009    ....    MRSNE    r0,PSP
        0x00018466:    4904        .I      LDR      r1,[pc,#16] ; [0x18478] = 0x100000b8
        0x00018468:    f5017100    ...q    ADD      r1,r1,#0x200
        0x0001846c:    f0210103    !...    BIC      r1,r1,#3
        0x00018470:    468d        .F      MOV      sp,r1
        0x00018472:    f001baa5    ....    B.W      am_util_faultisr_collect_data ; 0x199c0
        0x00018476:    0000        ..      MOVS     r0,r0
    $d.4
        0x00018478:    100000b8    ....    DCD    268435640
    $t.3
    __NVIC_EnableIRQ
        0x0001847c:    b081        ..      SUB      sp,sp,#4
        0x0001847e:    f88d0003    ....    STRB     r0,[sp,#3]
        0x00018482:    f99d0003    ....    LDRSB    r0,[sp,#3]
        0x00018486:    2800        .(      CMP      r0,#0
        0x00018488:    d40e        ..      BMI      0x184a8 ; __NVIC_EnableIRQ + 44
        0x0001848a:    e7ff        ..      B        0x1848c ; __NVIC_EnableIRQ + 16
        0x0001848c:    f99d1003    ....    LDRSB    r1,[sp,#3]
        0x00018490:    f001021f    ....    AND      r2,r1,#0x1f
        0x00018494:    2001        .       MOVS     r0,#1
        0x00018496:    4090        .@      LSLS     r0,r0,r2
        0x00018498:    094a        J.      LSRS     r2,r1,#5
        0x0001849a:    f24e1100    N...    MOVW     r1,#0xe100
        0x0001849e:    f2ce0100    ....    MOVT     r1,#0xe000
        0x000184a2:    f8410022    A.".    STR      r0,[r1,r2,LSL #2]
        0x000184a6:    e7ff        ..      B        0x184a8 ; __NVIC_EnableIRQ + 44
        0x000184a8:    b001        ..      ADD      sp,sp,#4
        0x000184aa:    4770        pG      BX       lr
    __NVIC_SetPriority
        0x000184ac:    b082        ..      SUB      sp,sp,#8
        0x000184ae:    f88d0007    ....    STRB     r0,[sp,#7]
        0x000184b2:    9100        ..      STR      r1,[sp,#0]
        0x000184b4:    f99d0007    ....    LDRSB    r0,[sp,#7]
        0x000184b8:    2800        .(      CMP      r0,#0
        0x000184ba:    d40a        ..      BMI      0x184d2 ; __NVIC_SetPriority + 38
        0x000184bc:    e7ff        ..      B        0x184be ; __NVIC_SetPriority + 18
        0x000184be:    9800        ..      LDR      r0,[sp,#0]
        0x000184c0:    0140        @.      LSLS     r0,r0,#5
        0x000184c2:    f99d1007    ....    LDRSB    r1,[sp,#7]
        0x000184c6:    f24e4200    N..B    MOVW     r2,#0xe400
        0x000184ca:    f2ce0200    ....    MOVT     r2,#0xe000
        0x000184ce:    5488        .T      STRB     r0,[r1,r2]
        0x000184d0:    e00b        ..      B        0x184ea ; __NVIC_SetPriority + 62
        0x000184d2:    9800        ..      LDR      r0,[sp,#0]
        0x000184d4:    0140        @.      LSLS     r0,r0,#5
        0x000184d6:    f89d1007    ....    LDRB     r1,[sp,#7]
        0x000184da:    f001010f    ....    AND      r1,r1,#0xf
        0x000184de:    f64e5214    N..R    MOV      r2,#0xed14
        0x000184e2:    f2ce0200    ....    MOVT     r2,#0xe000
        0x000184e6:    5488        .T      STRB     r0,[r1,r2]
        0x000184e8:    e7ff        ..      B        0x184ea ; __NVIC_SetPriority + 62
        0x000184ea:    b002        ..      ADD      sp,sp,#8
        0x000184ec:    4770        pG      BX       lr
        0x000184ee:    0000        ..      MOVS     r0,r0
    am_bsp_low_power_init
        0x000184f0:    b580        ..      PUSH     {r7,lr}
        0x000184f2:    f000ff0f    ....    BL       am_hal_pwrctrl_low_power_init ; 0x19314
        0x000184f6:    2000        .       MOVS     r0,#0
        0x000184f8:    2100        .!      MOVS     r1,#0
        0x000184fa:    f000fdfd    ....    BL       am_hal_pwrctrl_control ; 0x190f8
        0x000184fe:    f001f943    ..C.    BL       am_hal_rtc_osc_disable ; 0x19788
        0x00018502:    f64960e4    I..`    MOV      r0,#0x9ee4
        0x00018506:    f2c00001    ....    MOVT     r0,#1
        0x0001850a:    6801        .h      LDR      r1,[r0,#0]
        0x0001850c:    2037        7       MOVS     r0,#0x37
        0x0001850e:    f000fb7b    ..{.    BL       am_hal_gpio_pinconfig ; 0x18c08
        0x00018512:    2037        7       MOVS     r0,#0x37
        0x00018514:    2100        .!      MOVS     r1,#0
        0x00018516:    e8bd4080    ...@    POP      {r7,lr}
        0x0001851a:    f000bba1    ....    B.W      am_hal_gpio_state_write ; 0x18c60
        0x0001851e:    0000        ..      MOVS     r0,r0
    am_getStackedReg
        0x00018520:    b082        ..      SUB      sp,sp,#8
        0x00018522:    9001        ..      STR      r0,[sp,#4]
        0x00018524:    9100        ..      STR      r1,[sp,#0]
        0x00018526:    9800        ..      LDR      r0,[sp,#0]
        0x00018528:    9901        ..      LDR      r1,[sp,#4]
        0x0001852a:    f8500021    P.!.    LDR      r0,[r0,r1,LSL #2]
        0x0001852e:    b002        ..      ADD      sp,sp,#8
        0x00018530:    4770        pG      BX       lr
        0x00018532:    0000        ..      MOVS     r0,r0
    am_hal_cachectrl_config
        0x00018534:    b5b0        ..      PUSH     {r4,r5,r7,lr}
        0x00018536:    b082        ..      SUB      sp,sp,#8
        0x00018538:    4604        .F      MOV      r4,r0
        0x0001853a:    f000fc17    ....    BL       am_hal_interrupt_master_disable ; 0x18d6c
        0x0001853e:    9001        ..      STR      r0,[sp,#4]
        0x00018540:    f04f4590    O..E    MOV      r5,#0x48000000
        0x00018544:    6828        (h      LDR      r0,[r5,#0]
        0x00018546:    f4207040     .@p    BIC      r0,r0,#0x300
        0x0001854a:    6028        (`      STR      r0,[r5,#0]
        0x0001854c:    9801        ..      LDR      r0,[sp,#4]
        0x0001854e:    f000fc15    ....    BL       am_hal_interrupt_master_set ; 0x18d7c
        0x00018552:    78a1        .x      LDRB     r1,[r4,#2]
        0x00018554:    7820         x      LDRB     r0,[r4,#0]
        0x00018556:    7862        bx      LDRB     r2,[r4,#1]
        0x00018558:    0049        I.      LSLS     r1,r1,#1
        0x0001855a:    b2c9        ..      UXTB     r1,r1
        0x0001855c:    f0020203    ....    AND      r2,r2,#3
        0x00018560:    f3601107    `...    BFI      r1,r0,#4,#4
        0x00018564:    ea412002    A..     ORR      r0,r1,r2,LSL #8
        0x00018568:    f4401080    @...    ORR      r0,r0,#0x100000
        0x0001856c:    f4406180    @..a    ORR      r1,r0,#0x400
        0x00018570:    2000        .       MOVS     r0,#0
        0x00018572:    6029        )`      STR      r1,[r5,#0]
        0x00018574:    b002        ..      ADD      sp,sp,#8
        0x00018576:    bdb0        ..      POP      {r4,r5,r7,pc}
    am_hal_cachectrl_enable
        0x00018578:    f04f4090    O..@    MOV      r0,#0x48000000
        0x0001857c:    6801        .h      LDR      r1,[r0,#0]
        0x0001857e:    f0410101    A...    ORR      r1,r1,#1
        0x00018582:    6001        .`      STR      r1,[r0,#0]
        0x00018584:    2108        .!      MOVS     r1,#8
        0x00018586:    f6c40100    ....    MOVT     r1,#0x4800
        0x0001858a:    6808        .h      LDR      r0,[r1,#0]
        0x0001858c:    f0400201    @...    ORR      r2,r0,#1
        0x00018590:    2000        .       MOVS     r0,#0
        0x00018592:    600a        .`      STR      r2,[r1,#0]
        0x00018594:    4770        pG      BX       lr
        0x00018596:    0000        ..      MOVS     r0,r0
    am_hal_clkgen_control
        0x00018598:    b5b0        ..      PUSH     {r4,r5,r7,lr}
        0x0001859a:    2814        .(      CMP      r0,#0x14
        0x0001859c:    f20080b4    ....    BHI.W    0x18708 ; am_hal_clkgen_control + 368
        0x000185a0:    460c        .F      MOV      r4,r1
        0x000185a2:    e8dff010    ....    TBH      [pc,r0,LSL #1]
    $d.3
        0x000185a6:    0015        ..      DCW    21
        0x000185a8:    002d0021    !.-.    DCD    2949153
        0x000185ac:    00410035    5.A.    DCD    4259893
        0x000185b0:    007f0073    s...    DCD    8323187
        0x000185b4:    00c700b3    ....    DCD    13041843
        0x000185b8:    00dd00d3    ....    DCD    14483667
        0x000185bc:    00f100e7    ....    DCD    15794407
        0x000185c0:    010900fd    ....    DCD    17367293
        0x000185c4:    011d0113    ....    DCD    18678035
        0x000185c8:    01310127    '.1.    DCD    19988775
        0x000185cc:    0149013d    =.I.    DCD    21561661
    $t.4
        0x000185d0:    f2440084    D...    MOV      r0,#0x4084
        0x000185d4:    f2c40000    ....    MOVT     r0,#0x4000
        0x000185d8:    f8501c78    P.x.    LDR      r1,[r0,#-0x78]
        0x000185dc:    f0210180    !...    BIC      r1,r1,#0x80
        0x000185e0:    f8401c78    @.x.    STR      r1,[r0,#-0x78]
        0x000185e4:    2000        .       MOVS     r0,#0
        0x000185e6:    bdb0        ..      POP      {r4,r5,r7,pc}
        0x000185e8:    f2440084    D...    MOV      r0,#0x4084
        0x000185ec:    f2c40000    ....    MOVT     r0,#0x4000
        0x000185f0:    f8501c78    P.x.    LDR      r1,[r0,#-0x78]
        0x000185f4:    f0410180    A...    ORR      r1,r1,#0x80
        0x000185f8:    f8401c78    @.x.    STR      r1,[r0,#-0x78]
        0x000185fc:    2000        .       MOVS     r0,#0
        0x000185fe:    bdb0        ..      POP      {r4,r5,r7,pc}
        0x00018600:    2c00        .,      CMP      r4,#0
        0x00018602:    f000812b    ..+.    BEQ.W    0x1885c ; am_hal_clkgen_control + 708
        0x00018606:    6820         h      LDR      r0,[r4,#0]
        0x00018608:    f0400001    @...    ORR      r0,r0,#1
        0x0001860c:    e12a        *.      B        0x18864 ; am_hal_clkgen_control + 716
        0x0001860e:    bf00        ..      NOP      
        0x00018610:    f2440084    D...    MOV      r0,#0x4084
        0x00018614:    f2c40000    ....    MOVT     r0,#0x4000
        0x00018618:    f8501c64    P.d.    LDR      r1,[r0,#-0x64]
        0x0001861c:    f0210101    !...    BIC      r1,r1,#1
        0x00018620:    f8401c64    @.d.    STR      r1,[r0,#-0x64]
        0x00018624:    2000        .       MOVS     r0,#0
        0x00018626:    bdb0        ..      POP      {r4,r5,r7,pc}
        0x00018628:    f2440084    D...    MOV      r0,#0x4084
        0x0001862c:    f2c40000    ....    MOVT     r0,#0x4000
        0x00018630:    f8502c3c    P.<,    LDR      r2,[r0,#-0x3c]
        0x00018634:    2305        .#      MOVS     r3,#5
        0x00018636:    f0220201    "...    BIC      r2,r2,#1
        0x0001863a:    f8402c3c    @.<,    STR      r2,[r0,#-0x3c]
        0x0001863e:    f8502c38    P.8,    LDR      r2,[r0,#-0x38]
        0x00018642:    f64451d0    D..Q    MOV      r1,#0x4dd0
        0x00018646:    f3630202    c...    BFI      r2,r3,#0,#3
        0x0001864a:    f8402c38    @.8,    STR      r2,[r0,#-0x38]
        0x0001864e:    f8502c34    P.4,    LDR      r2,[r0,#-0x34]
        0x00018652:    2302        .#      MOVS     r3,#2
        0x00018654:    f2c00162    ..b.    MOVT     r1,#0x62
        0x00018658:    f3630201    c...    BFI      r2,r3,#0,#2
        0x0001865c:    f8402c34    @.4,    STR      r2,[r0,#-0x34]
        0x00018660:    b124        $.      CBZ      r4,0x1866c ; am_hal_clkgen_control + 212
        0x00018662:    6822        "h      LDR      r2,[r4,#0]
        0x00018664:    2a00        .*      CMP      r2,#0
        0x00018666:    bf18        ..      IT       NE
        0x00018668:    f44f0100    O...    MOVNE    r1,#0x800000
        0x0001866c:    f8502c34    P.4,    LDR      r2,[r0,#-0x34]
        0x00018670:    f36f029e    o...    BFC      r2,#2,#29
        0x00018674:    4311        .C      ORRS     r1,r1,r2
        0x00018676:    f8401c34    @.4.    STR      r1,[r0,#-0x34]
        0x0001867a:    f8501c3c    P.<.    LDR      r1,[r0,#-0x3c]
        0x0001867e:    f0410101    A...    ORR      r1,r1,#1
        0x00018682:    f8401c3c    @.<.    STR      r1,[r0,#-0x3c]
        0x00018686:    2000        .       MOVS     r0,#0
        0x00018688:    bdb0        ..      POP      {r4,r5,r7,pc}
        0x0001868a:    bf00        ..      NOP      
        0x0001868c:    f2440084    D...    MOV      r0,#0x4084
        0x00018690:    f2c40000    ....    MOVT     r0,#0x4000
        0x00018694:    f8501c3c    P.<.    LDR      r1,[r0,#-0x3c]
        0x00018698:    f0210101    !...    BIC      r1,r1,#1
        0x0001869c:    f8401c3c    @.<.    STR      r1,[r0,#-0x3c]
        0x000186a0:    2000        .       MOVS     r0,#0
        0x000186a2:    bdb0        ..      POP      {r4,r5,r7,pc}
        0x000186a4:    b384        ..      CBZ      r4,0x18708 ; am_hal_clkgen_control + 368
        0x000186a6:    6820         h      LDR      r0,[r4,#0]
        0x000186a8:    2801        .(      CMP      r0,#1
        0x000186aa:    d12d        -.      BNE      0x18708 ; am_hal_clkgen_control + 368
        0x000186ac:    f2440584    D...    MOV      r5,#0x4084
        0x000186b0:    f2c40500    ....    MOVT     r5,#0x4000
        0x000186b4:    f8550c3c    U.<.    LDR      r0,[r5,#-0x3c]
        0x000186b8:    f0200001     ...    BIC      r0,r0,#1
        0x000186bc:    f8450c3c    E.<.    STR      r0,[r5,#-0x3c]
        0x000186c0:    7c20         |      LDRB     r0,[r4,#0x10]
        0x000186c2:    68e1        .h      LDR      r1,[r4,#0xc]
        0x000186c4:    f0100201    ....    ANDS     r2,r0,#1
        0x000186c8:    f1c20200    ....    RSB      r2,r2,#0
        0x000186cc:    ea020201    ....    AND      r2,r2,r1
        0x000186d0:    f0000007    ....    AND      r0,r0,#7
        0x000186d4:    f64371f8    C..q    MOV      r1,#0x3ff8
        0x000186d8:    bf08        ..      IT       EQ
        0x000186da:    2007        .       MOVEQ    r0,#7
        0x000186dc:    ea0103c2    ....    AND      r3,r1,r2,LSL #3
        0x000186e0:    2100        .!      MOVS     r1,#0
        0x000186e2:    ebb12fd2    .../    CMP      r1,r2,LSR #11
        0x000186e6:    bf08        ..      IT       EQ
        0x000186e8:    4418        .D      ADDEQ    r0,r3
        0x000186ea:    f8450c38    E.8.    STR      r0,[r5,#-0x38]
        0x000186ee:    6862        bh      LDR      r2,[r4,#4]
        0x000186f0:    f6464300    F..C    MOVW     r3,#0x6c00
        0x000186f4:    1e50        P.      SUBS     r0,r2,#1
        0x000186f6:    f2c023dc    ...#    MOVT     r3,#0x2dc
        0x000186fa:    4298        .B      CMP      r0,r3
        0x000186fc:    f08080ba    ....    BCS.W    0x18874 ; am_hal_clkgen_control + 732
        0x00018700:    f44f1c00    O...    MOV      r12,#0x200000
        0x00018704:    2002        .       MOVS     r0,#2
        0x00018706:    e0be        ..      B        0x18886 ; am_hal_clkgen_control + 750
        0x00018708:    2006        .       MOVS     r0,#6
        0x0001870a:    bdb0        ..      POP      {r4,r5,r7,pc}
        0x0001870c:    f2440084    D...    MOV      r0,#0x4084
        0x00018710:    f2c40000    ....    MOVT     r0,#0x4000
        0x00018714:    f8501c40    P.@.    LDR      r1,[r0,#-0x40]
        0x00018718:    0689        ..      LSLS     r1,r1,#26
        0x0001871a:    d414        ..      BMI      0x18746 ; am_hal_clkgen_control + 430
        0x0001871c:    f8501c40    P.@.    LDR      r1,[r0,#-0x40]
        0x00018720:    f0410120    A. .    ORR      r1,r1,#0x20
        0x00018724:    f8401c40    @.@.    STR      r1,[r0,#-0x40]
        0x00018728:    200a        .       MOVS     r0,#0xa
        0x0001872a:    f000f9bb    ....    BL       am_hal_delay_us ; 0x18aa4
        0x0001872e:    2000        .       MOVS     r0,#0
        0x00018730:    bdb0        ..      POP      {r4,r5,r7,pc}
        0x00018732:    bf00        ..      NOP      
        0x00018734:    f2440084    D...    MOV      r0,#0x4084
        0x00018738:    f2c40000    ....    MOVT     r0,#0x4000
        0x0001873c:    f8501c40    P.@.    LDR      r1,[r0,#-0x40]
        0x00018740:    0689        ..      LSLS     r1,r1,#26
        0x00018742:    f1008083    ....    BMI.W    0x1884c ; am_hal_clkgen_control + 692
        0x00018746:    2000        .       MOVS     r0,#0
        0x00018748:    bdb0        ..      POP      {r4,r5,r7,pc}
        0x0001874a:    bf00        ..      NOP      
        0x0001874c:    f2440084    D...    MOV      r0,#0x4084
        0x00018750:    f2c40000    ....    MOVT     r0,#0x4000
        0x00018754:    6801        .h      LDR      r1,[r0,#0]
        0x00018756:    f0410180    A...    ORR      r1,r1,#0x80
        0x0001875a:    6001        .`      STR      r1,[r0,#0]
        0x0001875c:    2000        .       MOVS     r0,#0
        0x0001875e:    bdb0        ..      POP      {r4,r5,r7,pc}
        0x00018760:    f2440084    D...    MOV      r0,#0x4084
        0x00018764:    f2c40000    ....    MOVT     r0,#0x4000
        0x00018768:    6801        .h      LDR      r1,[r0,#0]
        0x0001876a:    f0210180    !...    BIC      r1,r1,#0x80
        0x0001876e:    6001        .`      STR      r1,[r0,#0]
        0x00018770:    2000        .       MOVS     r0,#0
        0x00018772:    bdb0        ..      POP      {r4,r5,r7,pc}
        0x00018774:    f2440084    D...    MOV      r0,#0x4084
        0x00018778:    f2c40000    ....    MOVT     r0,#0x4000
        0x0001877c:    6801        .h      LDR      r1,[r0,#0]
        0x0001877e:    f0210130    !.0.    BIC      r1,r1,#0x30
        0x00018782:    6001        .`      STR      r1,[r0,#0]
        0x00018784:    2000        .       MOVS     r0,#0
        0x00018786:    bdb0        ..      POP      {r4,r5,r7,pc}
        0x00018788:    f2440084    D...    MOV      r0,#0x4084
        0x0001878c:    f2c40000    ....    MOVT     r0,#0x4000
        0x00018790:    6801        .h      LDR      r1,[r0,#0]
        0x00018792:    2201        ."      MOVS     r2,#1
        0x00018794:    f3621105    b...    BFI      r1,r2,#4,#2
        0x00018798:    6001        .`      STR      r1,[r0,#0]
        0x0001879a:    2000        .       MOVS     r0,#0
        0x0001879c:    bdb0        ..      POP      {r4,r5,r7,pc}
        0x0001879e:    bf00        ..      NOP      
        0x000187a0:    f2440084    D...    MOV      r0,#0x4084
        0x000187a4:    f2c40000    ....    MOVT     r0,#0x4000
        0x000187a8:    6801        .h      LDR      r1,[r0,#0]
        0x000187aa:    2202        ."      MOVS     r2,#2
        0x000187ac:    f3621105    b...    BFI      r1,r2,#4,#2
        0x000187b0:    6001        .`      STR      r1,[r0,#0]
        0x000187b2:    2000        .       MOVS     r0,#0
        0x000187b4:    bdb0        ..      POP      {r4,r5,r7,pc}
        0x000187b6:    bf00        ..      NOP      
        0x000187b8:    f2440084    D...    MOV      r0,#0x4084
        0x000187bc:    f2c40000    ....    MOVT     r0,#0x4000
        0x000187c0:    6801        .h      LDR      r1,[r0,#0]
        0x000187c2:    f0410130    A.0.    ORR      r1,r1,#0x30
        0x000187c6:    6001        .`      STR      r1,[r0,#0]
        0x000187c8:    2000        .       MOVS     r0,#0
        0x000187ca:    bdb0        ..      POP      {r4,r5,r7,pc}
        0x000187cc:    f2440084    D...    MOV      r0,#0x4084
        0x000187d0:    f2c40000    ....    MOVT     r0,#0x4000
        0x000187d4:    6801        .h      LDR      r1,[r0,#0]
        0x000187d6:    f0410108    A...    ORR      r1,r1,#8
        0x000187da:    6001        .`      STR      r1,[r0,#0]
        0x000187dc:    2000        .       MOVS     r0,#0
        0x000187de:    bdb0        ..      POP      {r4,r5,r7,pc}
        0x000187e0:    f2440084    D...    MOV      r0,#0x4084
        0x000187e4:    f2c40000    ....    MOVT     r0,#0x4000
        0x000187e8:    6801        .h      LDR      r1,[r0,#0]
        0x000187ea:    f0210108    !...    BIC      r1,r1,#8
        0x000187ee:    6001        .`      STR      r1,[r0,#0]
        0x000187f0:    2000        .       MOVS     r0,#0
        0x000187f2:    bdb0        ..      POP      {r4,r5,r7,pc}
        0x000187f4:    f2440084    D...    MOV      r0,#0x4084
        0x000187f8:    f2c40000    ....    MOVT     r0,#0x4000
        0x000187fc:    6801        .h      LDR      r1,[r0,#0]
        0x000187fe:    f0210103    !...    BIC      r1,r1,#3
        0x00018802:    6001        .`      STR      r1,[r0,#0]
        0x00018804:    2000        .       MOVS     r0,#0
        0x00018806:    bdb0        ..      POP      {r4,r5,r7,pc}
        0x00018808:    f2440084    D...    MOV      r0,#0x4084
        0x0001880c:    f2c40000    ....    MOVT     r0,#0x4000
        0x00018810:    6801        .h      LDR      r1,[r0,#0]
        0x00018812:    2201        ."      MOVS     r2,#1
        0x00018814:    f3620101    b...    BFI      r1,r2,#0,#2
        0x00018818:    6001        .`      STR      r1,[r0,#0]
        0x0001881a:    2000        .       MOVS     r0,#0
        0x0001881c:    bdb0        ..      POP      {r4,r5,r7,pc}
        0x0001881e:    bf00        ..      NOP      
        0x00018820:    f2440084    D...    MOV      r0,#0x4084
        0x00018824:    f2c40000    ....    MOVT     r0,#0x4000
        0x00018828:    6801        .h      LDR      r1,[r0,#0]
        0x0001882a:    2202        ."      MOVS     r2,#2
        0x0001882c:    f3620101    b...    BFI      r1,r2,#0,#2
        0x00018830:    6001        .`      STR      r1,[r0,#0]
        0x00018832:    2000        .       MOVS     r0,#0
        0x00018834:    bdb0        ..      POP      {r4,r5,r7,pc}
        0x00018836:    bf00        ..      NOP      
        0x00018838:    f2440084    D...    MOV      r0,#0x4084
        0x0001883c:    f2c40000    ....    MOVT     r0,#0x4000
        0x00018840:    6801        .h      LDR      r1,[r0,#0]
        0x00018842:    f0410103    A...    ORR      r1,r1,#3
        0x00018846:    6001        .`      STR      r1,[r0,#0]
        0x00018848:    2000        .       MOVS     r0,#0
        0x0001884a:    bdb0        ..      POP      {r4,r5,r7,pc}
        0x0001884c:    f8501c40    P.@.    LDR      r1,[r0,#-0x40]
        0x00018850:    f0210120    !. .    BIC      r1,r1,#0x20
        0x00018854:    f8401c40    @.@.    STR      r1,[r0,#-0x40]
        0x00018858:    2000        .       MOVS     r0,#0
        0x0001885a:    bdb0        ..      POP      {r4,r5,r7,pc}
        0x0001885c:    f64b0001    K...    MOV      r0,#0xb801
        0x00018860:    f2c000a5    ....    MOVT     r0,#0xa5
        0x00018864:    f2440184    D...    MOV      r1,#0x4084
        0x00018868:    f2c40100    ....    MOVT     r1,#0x4000
        0x0001886c:    f8410c64    A.d.    STR      r0,[r1,#-0x64]
        0x00018870:    2000        .       MOVS     r0,#0
        0x00018872:    bdb0        ..      POP      {r4,r5,r7,pc}
        0x00018874:    f24d73ff    M..s    MOV      r3,#0xd7ff
        0x00018878:    f2c053b8    ...S    MOVT     r3,#0x5b8
        0x0001887c:    4298        .B      CMP      r0,r3
        0x0001887e:    d813        ..      BHI      0x188a8 ; am_hal_clkgen_control + 784
        0x00018880:    f44f0c80    O...    MOV      r12,#0x400000
        0x00018884:    2003        .       MOVS     r0,#3
        0x00018886:    f8553c34    U.4<    LDR      r3,[r5,#-0x34]
        0x0001888a:    f0230303    #...    BIC      r3,r3,#3
        0x0001888e:    4418        .D      ADD      r0,r0,r3
        0x00018890:    f8450c34    E.4.    STR      r0,[r5,#-0x34]
        0x00018894:    68a3        .h      LDR      r3,[r4,#8]
        0x00018896:    0850        P.      LSRS     r0,r2,#1
        0x00018898:    fbe3010c    ....    UMLAL    r0,r1,r3,r12
        0x0001889c:    2300        .#      MOVS     r3,#0
        0x0001889e:    f7fffd25    ..%.    BL       __aeabi_uldivmod ; 0x182ec
        0x000188a2:    ea417150    A.Pq    ORR      r1,r1,r0,LSR #29
        0x000188a6:    b109        ..      CBZ      r1,0x188ac ; am_hal_clkgen_control + 788
        0x000188a8:    2005        .       MOVS     r0,#5
        0x000188aa:    bdb0        ..      POP      {r4,r5,r7,pc}
        0x000188ac:    2203        ."      MOVS     r2,#3
        0x000188ae:    f8551c34    U.4.    LDR      r1,[r5,#-0x34]
        0x000188b2:    f2c80200    ....    MOVT     r2,#0x8000
        0x000188b6:    3a07        .:      SUBS     r2,#7
        0x000188b8:    ea020080    ....    AND      r0,r2,r0,LSL #2
        0x000188bc:    f36f019e    o...    BFC      r1,#2,#29
        0x000188c0:    4408        .D      ADD      r0,r0,r1
        0x000188c2:    f8450c34    E.4.    STR      r0,[r5,#-0x34]
        0x000188c6:    7c60        `|      LDRB     r0,[r4,#0x11]
        0x000188c8:    2800        .(      CMP      r0,#0
        0x000188ca:    bf1c        ..      ITT      NE
        0x000188cc:    2000        .       MOVNE    r0,#0
        0x000188ce:    bdb0        ..      POPNE    {r4,r5,r7,pc}
        0x000188d0:    f8550c3c    U.<.    LDR      r0,[r5,#-0x3c]
        0x000188d4:    f0400001    @...    ORR      r0,r0,#1
        0x000188d8:    f8450c3c    E.<.    STR      r0,[r5,#-0x3c]
        0x000188dc:    2000        .       MOVS     r0,#0
        0x000188de:    bdb0        ..      POP      {r4,r5,r7,pc}
    am_hal_daxi_config
        0x000188e0:    b570        p.      PUSH     {r4-r6,lr}
        0x000188e2:    b082        ..      SUB      sp,sp,#8
        0x000188e4:    2654        T&      MOVS     r6,#0x54
        0x000188e6:    2500        .%      MOVS     r5,#0
        0x000188e8:    4604        .F      MOV      r4,r0
        0x000188ea:    f6c40600    ....    MOVT     r6,#0x4800
        0x000188ee:    f2c475ff    ...u    MOVT     r5,#0x47ff
        0x000188f2:    f000fa3b    ..;.    BL       am_hal_interrupt_master_disable ; 0x18d6c
        0x000188f6:    9000        ..      STR      r0,[sp,#0]
        0x000188f8:    f000fa38    ..8.    BL       am_hal_interrupt_master_disable ; 0x18d6c
        0x000188fc:    9001        ..      STR      r0,[sp,#4]
        0x000188fe:    f8560c04    V...    LDR      r0,[r6,#-4]
        0x00018902:    0740        @.      LSLS     r0,r0,#29
        0x00018904:    d418        ..      BMI      0x18938 ; am_hal_daxi_config + 88
        0x00018906:    f3bf8f4f    ..O.    DSB      
        0x0001890a:    6830        0h      LDR      r0,[r6,#0]
        0x0001890c:    f0400001    @...    ORR      r0,r0,#1
        0x00018910:    6030        0`      STR      r0,[r6,#0]
        0x00018912:    6828        (h      LDR      r0,[r5,#0]
        0x00018914:    6830        0h      LDR      r0,[r6,#0]
        0x00018916:    0740        @.      LSLS     r0,r0,#29
        0x00018918:    d409        ..      BMI      0x1892e ; am_hal_daxi_config + 78
        0x0001891a:    6830        0h      LDR      r0,[r6,#0]
        0x0001891c:    0740        @.      LSLS     r0,r0,#29
        0x0001891e:    bf5c        \.      ITT      PL
        0x00018920:    6830        0h      LDRPL    r0,[r6,#0]
        0x00018922:    ea5f7040    _.@p    LSLSPL   r0,r0,#29
        0x00018926:    d402        ..      BMI      0x1892e ; am_hal_daxi_config + 78
        0x00018928:    6830        0h      LDR      r0,[r6,#0]
        0x0001892a:    0740        @.      LSLS     r0,r0,#29
        0x0001892c:    d5f2        ..      BPL      0x18914 ; am_hal_daxi_config + 52
        0x0001892e:    6830        0h      LDR      r0,[r6,#0]
        0x00018930:    f0400002    @...    ORR      r0,r0,#2
        0x00018934:    6030        0`      STR      r0,[r6,#0]
        0x00018936:    6828        (h      LDR      r0,[r5,#0]
        0x00018938:    9801        ..      LDR      r0,[sp,#4]
        0x0001893a:    f000fa1f    ....    BL       am_hal_interrupt_master_set ; 0x18d7c
        0x0001893e:    b1dc        ..      CBZ      r4,0x18978 ; am_hal_daxi_config + 152
        0x00018940:    7860        `x      LDRB     r0,[r4,#1]
        0x00018942:    7922        "y      LDRB     r2,[r4,#4]
        0x00018944:    78a1        .x      LDRB     r1,[r4,#2]
        0x00018946:    78e3        .x      LDRB     r3,[r4,#3]
        0x00018948:    f0020201    ....    AND      r2,r2,#1
        0x0001894c:    f000007f    ....    AND      r0,r0,#0x7f
        0x00018950:    ea420040    B.@.    ORR      r0,r2,r0,LSL #1
        0x00018954:    f363200b    c..     BFI      r0,r3,#8,#4
        0x00018958:    f001011f    ....    AND      r1,r1,#0x1f
        0x0001895c:    ea404001    @..@    ORR      r0,r0,r1,LSL #16
        0x00018960:    f8460c04    F...    STR      r0,[r6,#-4]
        0x00018964:    7920         y      LDRB     r0,[r4,#4]
        0x00018966:    f2400110    @...    MOVW     r1,#0x10
        0x0001896a:    f2c10100    ....    MOVT     r1,#0x1000
        0x0001896e:    7108        .q      STRB     r0,[r1,#4]
        0x00018970:    6820         h      LDR      r0,[r4,#0]
        0x00018972:    6008        .`      STR      r0,[r1,#0]
        0x00018974:    e003        ..      B        0x1897e ; am_hal_daxi_config + 158
        0x00018976:    bf00        ..      NOP      
        0x00018978:    2006        .       MOVS     r0,#6
        0x0001897a:    f8460c04    F...    STR      r0,[r6,#-4]
        0x0001897e:    6828        (h      LDR      r0,[r5,#0]
        0x00018980:    9800        ..      LDR      r0,[sp,#0]
        0x00018982:    f000f9fb    ....    BL       am_hal_interrupt_master_set ; 0x18d7c
        0x00018986:    2000        .       MOVS     r0,#0
        0x00018988:    b002        ..      ADD      sp,sp,#8
        0x0001898a:    bd70        p.      POP      {r4-r6,pc}
    am_hal_daxi_control
        0x0001898c:    b5b0        ..      PUSH     {r4,r5,r7,lr}
        0x0001898e:    b084        ..      SUB      sp,sp,#0x10
        0x00018990:    2803        .(      CMP      r0,#3
        0x00018992:    d817        ..      BHI      0x189c4 ; am_hal_daxi_control + 56
        0x00018994:    e8dff000    ....    TBB      [pc,r0]
    $d.9
        0x00018998:    7c461a02    ..F|    DCD    2084968962
    $t.10
        0x0001899c:    2054        T       MOVS     r0,#0x54
        0x0001899e:    f6c40000    ....    MOVT     r0,#0x4800
        0x000189a2:    f8501c04    P...    LDR      r1,[r0,#-4]
        0x000189a6:    0749        I.      LSLS     r1,r1,#29
        0x000189a8:    d409        ..      BMI      0x189be ; am_hal_daxi_control + 50
        0x000189aa:    f3bf8f4f    ..O.    DSB      
        0x000189ae:    6801        .h      LDR      r1,[r0,#0]
        0x000189b0:    f0410102    A...    ORR      r1,r1,#2
        0x000189b4:    6001        .`      STR      r1,[r0,#0]
        0x000189b6:    2000        .       MOVS     r0,#0
        0x000189b8:    f2c470ff    ...p    MOVT     r0,#0x47ff
        0x000189bc:    6800        .h      LDR      r0,[r0,#0]
        0x000189be:    2000        .       MOVS     r0,#0
        0x000189c0:    b004        ..      ADD      sp,sp,#0x10
        0x000189c2:    bdb0        ..      POP      {r4,r5,r7,pc}
        0x000189c4:    2006        .       MOVS     r0,#6
        0x000189c6:    b004        ..      ADD      sp,sp,#0x10
        0x000189c8:    bdb0        ..      POP      {r4,r5,r7,pc}
        0x000189ca:    bf00        ..      NOP      
        0x000189cc:    2454        T$      MOVS     r4,#0x54
        0x000189ce:    f6c40400    ....    MOVT     r4,#0x4800
        0x000189d2:    f000f9cb    ....    BL       am_hal_interrupt_master_disable ; 0x18d6c
        0x000189d6:    9001        ..      STR      r0,[sp,#4]
        0x000189d8:    f8540c04    T...    LDR      r0,[r4,#-4]
        0x000189dc:    0740        @.      LSLS     r0,r0,#29
        0x000189de:    d41b        ..      BMI      0x18a18 ; am_hal_daxi_control + 140
        0x000189e0:    f3bf8f4f    ..O.    DSB      
        0x000189e4:    6821        !h      LDR      r1,[r4,#0]
        0x000189e6:    2000        .       MOVS     r0,#0
        0x000189e8:    f0410101    A...    ORR      r1,r1,#1
        0x000189ec:    f2c470ff    ...p    MOVT     r0,#0x47ff
        0x000189f0:    6021        !`      STR      r1,[r4,#0]
        0x000189f2:    6801        .h      LDR      r1,[r0,#0]
        0x000189f4:    6821        !h      LDR      r1,[r4,#0]
        0x000189f6:    0749        I.      LSLS     r1,r1,#29
        0x000189f8:    d409        ..      BMI      0x18a0e ; am_hal_daxi_control + 130
        0x000189fa:    6821        !h      LDR      r1,[r4,#0]
        0x000189fc:    0749        I.      LSLS     r1,r1,#29
        0x000189fe:    bf5c        \.      ITT      PL
        0x00018a00:    6821        !h      LDRPL    r1,[r4,#0]
        0x00018a02:    ea5f7141    _.Aq    LSLSPL   r1,r1,#29
        0x00018a06:    d402        ..      BMI      0x18a0e ; am_hal_daxi_control + 130
        0x00018a08:    6821        !h      LDR      r1,[r4,#0]
        0x00018a0a:    0749        I.      LSLS     r1,r1,#29
        0x00018a0c:    d5f2        ..      BPL      0x189f4 ; am_hal_daxi_control + 104
        0x00018a0e:    6821        !h      LDR      r1,[r4,#0]
        0x00018a10:    f0410102    A...    ORR      r1,r1,#2
        0x00018a14:    6021        !`      STR      r1,[r4,#0]
        0x00018a16:    6800        .h      LDR      r0,[r0,#0]
        0x00018a18:    9801        ..      LDR      r0,[sp,#4]
        0x00018a1a:    f000f9af    ....    BL       am_hal_interrupt_master_set ; 0x18d7c
        0x00018a1e:    2000        .       MOVS     r0,#0
        0x00018a20:    b004        ..      ADD      sp,sp,#0x10
        0x00018a22:    bdb0        ..      POP      {r4,r5,r7,pc}
        0x00018a24:    2454        T$      MOVS     r4,#0x54
        0x00018a26:    2500        .%      MOVS     r5,#0
        0x00018a28:    f6c40400    ....    MOVT     r4,#0x4800
        0x00018a2c:    f2c475ff    ...u    MOVT     r5,#0x47ff
        0x00018a30:    f000f99c    ....    BL       am_hal_interrupt_master_disable ; 0x18d6c
        0x00018a34:    9002        ..      STR      r0,[sp,#8]
        0x00018a36:    f000f999    ....    BL       am_hal_interrupt_master_disable ; 0x18d6c
        0x00018a3a:    9003        ..      STR      r0,[sp,#0xc]
        0x00018a3c:    f8540c04    T...    LDR      r0,[r4,#-4]
        0x00018a40:    0740        @.      LSLS     r0,r0,#29
        0x00018a42:    d418        ..      BMI      0x18a76 ; am_hal_daxi_control + 234
        0x00018a44:    f3bf8f4f    ..O.    DSB      
        0x00018a48:    6820         h      LDR      r0,[r4,#0]
        0x00018a4a:    f0400001    @...    ORR      r0,r0,#1
        0x00018a4e:    6020         `      STR      r0,[r4,#0]
        0x00018a50:    6828        (h      LDR      r0,[r5,#0]
        0x00018a52:    6820         h      LDR      r0,[r4,#0]
        0x00018a54:    0740        @.      LSLS     r0,r0,#29
        0x00018a56:    d409        ..      BMI      0x18a6c ; am_hal_daxi_control + 224
        0x00018a58:    6820         h      LDR      r0,[r4,#0]
        0x00018a5a:    0740        @.      LSLS     r0,r0,#29
        0x00018a5c:    bf5c        \.      ITT      PL
        0x00018a5e:    6820         h      LDRPL    r0,[r4,#0]
        0x00018a60:    ea5f7040    _.@p    LSLSPL   r0,r0,#29
        0x00018a64:    d402        ..      BMI      0x18a6c ; am_hal_daxi_control + 224
        0x00018a66:    6820         h      LDR      r0,[r4,#0]
        0x00018a68:    0740        @.      LSLS     r0,r0,#29
        0x00018a6a:    d5f2        ..      BPL      0x18a52 ; am_hal_daxi_control + 198
        0x00018a6c:    6820         h      LDR      r0,[r4,#0]
        0x00018a6e:    f0400002    @...    ORR      r0,r0,#2
        0x00018a72:    6020         `      STR      r0,[r4,#0]
        0x00018a74:    6828        (h      LDR      r0,[r5,#0]
        0x00018a76:    9803        ..      LDR      r0,[sp,#0xc]
        0x00018a78:    f000f980    ....    BL       am_hal_interrupt_master_set ; 0x18d7c
        0x00018a7c:    2006        .       MOVS     r0,#6
        0x00018a7e:    f8440c04    D...    STR      r0,[r4,#-4]
        0x00018a82:    6828        (h      LDR      r0,[r5,#0]
        0x00018a84:    9802        ..      LDR      r0,[sp,#8]
        0x00018a86:    f000f979    ..y.    BL       am_hal_interrupt_master_set ; 0x18d7c
        0x00018a8a:    2000        .       MOVS     r0,#0
        0x00018a8c:    b004        ..      ADD      sp,sp,#0x10
        0x00018a8e:    bdb0        ..      POP      {r4,r5,r7,pc}
        0x00018a90:    f2400010    @...    MOVW     r0,#0x10
        0x00018a94:    f2c10000    ....    MOVT     r0,#0x1000
        0x00018a98:    f7ffff22    ..".    BL       am_hal_daxi_config ; 0x188e0
        0x00018a9c:    2000        .       MOVS     r0,#0
        0x00018a9e:    b004        ..      ADD      sp,sp,#0x10
        0x00018aa0:    bdb0        ..      POP      {r4,r5,r7,pc}
        0x00018aa2:    0000        ..      MOVS     r0,r0
    am_hal_delay_us
        0x00018aa4:    f2410100    A...    MOVW     r1,#0x1000
        0x00018aa8:    f2c40102    ....    MOVT     r1,#0x4002
        0x00018aac:    6809        .h      LDR      r1,[r1,#0]
        0x00018aae:    2205        ."      MOVS     r2,#5
        0x00018ab0:    f0010118    ....    AND      r1,r1,#0x18
        0x00018ab4:    2910        .)      CMP      r1,#0x10
        0x00018ab6:    bf08        ..      IT       EQ
        0x00018ab8:    2206        ."      MOVEQ    r2,#6
        0x00018aba:    fa00f002    ....    LSL      r0,r0,r2
        0x00018abe:    f04f010f    O...    MOV      r1,#0xf
        0x00018ac2:    bf08        ..      IT       EQ
        0x00018ac4:    2115        .!      MOVEQ    r1,#0x15
        0x00018ac6:    4281        .B      CMP      r1,r0
        0x00018ac8:    bf28        (.      IT       CS
        0x00018aca:    4770        pG      BXCS     lr
        0x00018acc:    1a40        @.      SUBS     r0,r0,r1
        0x00018ace:    f24a111c    J...    MOV      r1,#0xa11c
        0x00018ad2:    f2c00101    ....    MOVT     r1,#1
        0x00018ad6:    6a49        Ij      LDR      r1,[r1,#0x24]
        0x00018ad8:    4708        .G      BX       r1
        0x00018ada:    0000        ..      MOVS     r0,r0
    am_hal_delay_us_status_change
        0x00018adc:    e92d43f0    -..C    PUSH     {r4-r9,lr}
        0x00018ae0:    b081        ..      SUB      sp,sp,#4
        0x00018ae2:    460d        .F      MOV      r5,r1
        0x00018ae4:    6809        .h      LDR      r1,[r1,#0]
        0x00018ae6:    4011        .@      ANDS     r1,r1,r2
        0x00018ae8:    4299        .B      CMP      r1,r3
        0x00018aea:    d01b        ..      BEQ      0x18b24 ; am_hal_delay_us_status_change + 72
        0x00018aec:    f24a111c    J...    MOV      r1,#0xa11c
        0x00018af0:    f2c00101    ....    MOVT     r1,#1
        0x00018af4:    6a4f        Oj      LDR      r7,[r1,#0x24]
        0x00018af6:    f2410900    A...    MOVW     r9,#0x1000
        0x00018afa:    4698        .F      MOV      r8,r3
        0x00018afc:    4616        .F      MOV      r6,r2
        0x00018afe:    1c44        D.      ADDS     r4,r0,#1
        0x00018b00:    f2c40902    ....    MOVT     r9,#0x4002
        0x00018b04:    3c01        .<      SUBS     r4,#1
        0x00018b06:    d011        ..      BEQ      0x18b2c ; am_hal_delay_us_status_change + 80
        0x00018b08:    f8d90000    ....    LDR      r0,[r9,#0]
        0x00018b0c:    f0000018    ....    AND      r0,r0,#0x18
        0x00018b10:    2810        .(      CMP      r0,#0x10
        0x00018b12:    f04f0011    O...    MOV      r0,#0x11
        0x00018b16:    bf08        ..      IT       EQ
        0x00018b18:    202b        +       MOVEQ    r0,#0x2b
        0x00018b1a:    47b8        .G      BLX      r7
        0x00018b1c:    6828        (h      LDR      r0,[r5,#0]
        0x00018b1e:    4030        0@      ANDS     r0,r0,r6
        0x00018b20:    4540        @E      CMP      r0,r8
        0x00018b22:    d1ef        ..      BNE      0x18b04 ; am_hal_delay_us_status_change + 40
        0x00018b24:    2000        .       MOVS     r0,#0
        0x00018b26:    b001        ..      ADD      sp,sp,#4
        0x00018b28:    e8bd83f0    ....    POP      {r4-r9,pc}
        0x00018b2c:    2004        .       MOVS     r0,#4
        0x00018b2e:    b001        ..      ADD      sp,sp,#4
        0x00018b30:    e8bd83f0    ....    POP      {r4-r9,pc}
    am_hal_delay_us_status_check
        0x00018b34:    e92d43f0    -..C    PUSH     {r4-r9,lr}
        0x00018b38:    b081        ..      SUB      sp,sp,#4
        0x00018b3a:    4615        .F      MOV      r5,r2
        0x00018b3c:    f24a121c    J...    MOV      r2,#0xa11c
        0x00018b40:    460e        .F      MOV      r6,r1
        0x00018b42:    f2c00201    ....    MOVT     r2,#1
        0x00018b46:    9908        ..      LDR      r1,[sp,#0x20]
        0x00018b48:    f8d29024    ..$.    LDR      r9,[r2,#0x24]
        0x00018b4c:    6832        2h      LDR      r2,[r6,#0]
        0x00018b4e:    461c        .F      MOV      r4,r3
        0x00018b50:    2900        .)      CMP      r1,#0
        0x00018b52:    ea020105    ....    AND      r1,r2,r5
        0x00018b56:    d019        ..      BEQ      0x18b8c ; am_hal_delay_us_status_check + 88
        0x00018b58:    42a1        .B      CMP      r1,r4
        0x00018b5a:    d02f        /.      BEQ      0x18bbc ; am_hal_delay_us_status_check + 136
        0x00018b5c:    f2410800    A...    MOVW     r8,#0x1000
        0x00018b60:    f2c40802    ....    MOVT     r8,#0x4002
        0x00018b64:    1c47        G.      ADDS     r7,r0,#1
        0x00018b66:    bf00        ..      NOP      
        0x00018b68:    3f01        .?      SUBS     r7,#1
        0x00018b6a:    d02b        +.      BEQ      0x18bc4 ; am_hal_delay_us_status_check + 144
        0x00018b6c:    f8d80000    ....    LDR      r0,[r8,#0]
        0x00018b70:    f0000018    ....    AND      r0,r0,#0x18
        0x00018b74:    2810        .(      CMP      r0,#0x10
        0x00018b76:    f04f0011    O...    MOV      r0,#0x11
        0x00018b7a:    bf08        ..      IT       EQ
        0x00018b7c:    202b        +       MOVEQ    r0,#0x2b
        0x00018b7e:    47c8        .G      BLX      r9
        0x00018b80:    6830        0h      LDR      r0,[r6,#0]
        0x00018b82:    4028        (@      ANDS     r0,r0,r5
        0x00018b84:    42a0        .B      CMP      r0,r4
        0x00018b86:    d1ef        ..      BNE      0x18b68 ; am_hal_delay_us_status_check + 52
        0x00018b88:    e018        ..      B        0x18bbc ; am_hal_delay_us_status_check + 136
        0x00018b8a:    bf00        ..      NOP      
        0x00018b8c:    42a1        .B      CMP      r1,r4
        0x00018b8e:    d115        ..      BNE      0x18bbc ; am_hal_delay_us_status_check + 136
        0x00018b90:    f2410800    A...    MOVW     r8,#0x1000
        0x00018b94:    f2c40802    ....    MOVT     r8,#0x4002
        0x00018b98:    1c47        G.      ADDS     r7,r0,#1
        0x00018b9a:    bf00        ..      NOP      
        0x00018b9c:    3f01        .?      SUBS     r7,#1
        0x00018b9e:    d011        ..      BEQ      0x18bc4 ; am_hal_delay_us_status_check + 144
        0x00018ba0:    f8d80000    ....    LDR      r0,[r8,#0]
        0x00018ba4:    f0000018    ....    AND      r0,r0,#0x18
        0x00018ba8:    2810        .(      CMP      r0,#0x10
        0x00018baa:    f04f0011    O...    MOV      r0,#0x11
        0x00018bae:    bf08        ..      IT       EQ
        0x00018bb0:    202b        +       MOVEQ    r0,#0x2b
        0x00018bb2:    47c8        .G      BLX      r9
        0x00018bb4:    6830        0h      LDR      r0,[r6,#0]
        0x00018bb6:    4028        (@      ANDS     r0,r0,r5
        0x00018bb8:    42a0        .B      CMP      r0,r4
        0x00018bba:    d0ef        ..      BEQ      0x18b9c ; am_hal_delay_us_status_check + 104
        0x00018bbc:    2000        .       MOVS     r0,#0
        0x00018bbe:    b001        ..      ADD      sp,sp,#4
        0x00018bc0:    e8bd83f0    ....    POP      {r4-r9,pc}
        0x00018bc4:    2004        .       MOVS     r0,#4
        0x00018bc6:    b001        ..      ADD      sp,sp,#4
        0x00018bc8:    e8bd83f0    ....    POP      {r4-r9,pc}
    am_hal_fault_status_get
        0x00018bcc:    2800        .(      CMP      r0,#0
        0x00018bce:    bf04        ..      ITT      EQ
        0x00018bd0:    2006        .       MOVEQ    r0,#6
        0x00018bd2:    4770        pG      BXEQ     lr
        0x00018bd4:    2180        .!      MOVS     r1,#0x80
        0x00018bd6:    f6c40100    ....    MOVT     r1,#0x4800
        0x00018bda:    68ca        .h      LDR      r2,[r1,#0xc]
        0x00018bdc:    f0020301    ....    AND      r3,r2,#1
        0x00018be0:    7003        .p      STRB     r3,[r0,#0]
        0x00018be2:    f3c20340    ..@.    UBFX     r3,r2,#1,#1
        0x00018be6:    f3c20280    ....    UBFX     r2,r2,#2,#1
        0x00018bea:    7203        .r      STRB     r3,[r0,#8]
        0x00018bec:    7402        .t      STRB     r2,[r0,#0x10]
        0x00018bee:    684a        Jh      LDR      r2,[r1,#4]
        0x00018bf0:    60c2        .`      STR      r2,[r0,#0xc]
        0x00018bf2:    680a        .h      LDR      r2,[r1,#0]
        0x00018bf4:    6843        Ch      LDR      r3,[r0,#4]
        0x00018bf6:    431a        .C      ORRS     r2,r2,r3
        0x00018bf8:    6042        B`      STR      r2,[r0,#4]
        0x00018bfa:    6889        .h      LDR      r1,[r1,#8]
        0x00018bfc:    6942        Bi      LDR      r2,[r0,#0x14]
        0x00018bfe:    4311        .C      ORRS     r1,r1,r2
        0x00018c00:    6141        Aa      STR      r1,[r0,#0x14]
        0x00018c02:    2000        .       MOVS     r0,#0
        0x00018c04:    4770        pG      BX       lr
        0x00018c06:    0000        ..      MOVS     r0,r0
    am_hal_gpio_pinconfig
        0x00018c08:    b081        ..      SUB      sp,sp,#4
        0x00018c0a:    287f        .(      CMP      r0,#0x7f
        0x00018c0c:    9100        ..      STR      r1,[sp,#0]
        0x00018c0e:    bf82        ..      ITTT     HI
        0x00018c10:    2005        .       MOVHI    r0,#5
        0x00018c12:    b001        ..      ADDHI    sp,sp,#4
        0x00018c14:    4770        pG      BXHI     lr
        0x00018c16:    0509        ..      LSLS     r1,r1,#20
        0x00018c18:    d50b        ..      BPL      0x18c32 ; am_hal_gpio_pinconfig + 42
        0x00018c1a:    f24a1260    J.`.    MOV      r2,#0xa160
        0x00018c1e:    0941        A.      LSRS     r1,r0,#5
        0x00018c20:    f2c00201    ....    MOVT     r2,#1
        0x00018c24:    f8521021    R.!.    LDR      r1,[r2,r1,LSL #2]
        0x00018c28:    f000021f    ....    AND      r2,r0,#0x1f
        0x00018c2c:    40d1        .@      LSRS     r1,r1,r2
        0x00018c2e:    07c9        ..      LSLS     r1,r1,#31
        0x00018c30:    d012        ..      BEQ      0x18c58 ; am_hal_gpio_pinconfig + 80
        0x00018c32:    f2402100    @..!    MOVW     r1,#0x200
        0x00018c36:    f2c40101    ....    MOVT     r1,#0x4001
        0x00018c3a:    2273        s"      MOVS     r2,#0x73
        0x00018c3c:    600a        .`      STR      r2,[r1,#0]
        0x00018c3e:    9a00        ..      LDR      r2,[sp,#0]
        0x00018c40:    f64f6300    O..c    MOVW     r3,#0xfe00
        0x00018c44:    eb010080    ....    ADD      r0,r1,r0,LSL #2
        0x00018c48:    f6cf73ff    ...s    MOVT     r3,#0xffff
        0x00018c4c:    50c2        .P      STR      r2,[r0,r3]
        0x00018c4e:    2000        .       MOVS     r0,#0
        0x00018c50:    6008        .`      STR      r0,[r1,#0]
        0x00018c52:    b001        ..      ADD      sp,sp,#4
        0x00018c54:    4770        pG      BX       lr
        0x00018c56:    bf00        ..      NOP      
        0x00018c58:    2007        .       MOVS     r0,#7
        0x00018c5a:    b001        ..      ADD      sp,sp,#4
        0x00018c5c:    4770        pG      BX       lr
        0x00018c5e:    0000        ..      MOVS     r0,r0
    am_hal_gpio_state_write
        0x00018c60:    b510        ..      PUSH     {r4,lr}
        0x00018c62:    b082        ..      SUB      sp,sp,#8
        0x00018c64:    2905        .)      CMP      r1,#5
        0x00018c66:    d813        ..      BHI      0x18c90 ; am_hal_gpio_state_write + 48
        0x00018c68:    4604        .F      MOV      r4,r0
        0x00018c6a:    e8dff001    ....    TBB      [pc,r1]
    $d.5
        0x00018c6e:    1503        ..      DCW    5379
        0x00018c70:    65534127    'ASe    DCD    1699954983
    $t.6
        0x00018c74:    f004001f    ....    AND      r0,r4,#0x1f
        0x00018c78:    2101        .!      MOVS     r1,#1
        0x00018c7a:    f2402214    @.."    MOVW     r2,#0x214
        0x00018c7e:    fa01f000    ....    LSL      r0,r1,r0
        0x00018c82:    f3c41141    ..A.    UBFX     r1,r4,#5,#2
        0x00018c86:    f2c40201    ....    MOVT     r2,#0x4001
        0x00018c8a:    eb020181    ....    ADD      r1,r2,r1,LSL #2
        0x00018c8e:    6208        .b      STR      r0,[r1,#0x20]
        0x00018c90:    2000        .       MOVS     r0,#0
        0x00018c92:    b002        ..      ADD      sp,sp,#8
        0x00018c94:    bd10        ..      POP      {r4,pc}
        0x00018c96:    bf00        ..      NOP      
        0x00018c98:    f004001f    ....    AND      r0,r4,#0x1f
        0x00018c9c:    2101        .!      MOVS     r1,#1
        0x00018c9e:    f2402214    @.."    MOVW     r2,#0x214
        0x00018ca2:    fa01f000    ....    LSL      r0,r1,r0
        0x00018ca6:    f3c41141    ..A.    UBFX     r1,r4,#5,#2
        0x00018caa:    f2c40201    ....    MOVT     r2,#0x4001
        0x00018cae:    eb020181    ....    ADD      r1,r2,r1,LSL #2
        0x00018cb2:    6108        .a      STR      r0,[r1,#0x10]
        0x00018cb4:    2000        .       MOVS     r0,#0
        0x00018cb6:    b002        ..      ADD      sp,sp,#8
        0x00018cb8:    bd10        ..      POP      {r4,pc}
        0x00018cba:    bf00        ..      NOP      
        0x00018cbc:    f000f856    ..V.    BL       am_hal_interrupt_master_disable ; 0x18d6c
        0x00018cc0:    f2402314    @..#    MOVW     r3,#0x214
        0x00018cc4:    9001        ..      STR      r0,[sp,#4]
        0x00018cc6:    f3c41241    ..A.    UBFX     r2,r4,#5,#2
        0x00018cca:    f2c40301    ....    MOVT     r3,#0x4001
        0x00018cce:    f004001f    ....    AND      r0,r4,#0x1f
        0x00018cd2:    2101        .!      MOVS     r1,#1
        0x00018cd4:    f8534022    S."@    LDR      r4,[r3,r2,LSL #2]
        0x00018cd8:    fa01f000    ....    LSL      r0,r1,r0
        0x00018cdc:    4060        `@      EORS     r0,r0,r4
        0x00018cde:    f8430022    C.".    STR      r0,[r3,r2,LSL #2]
        0x00018ce2:    9801        ..      LDR      r0,[sp,#4]
        0x00018ce4:    f000f84a    ..J.    BL       am_hal_interrupt_master_set ; 0x18d7c
        0x00018ce8:    2000        .       MOVS     r0,#0
        0x00018cea:    b002        ..      ADD      sp,sp,#8
        0x00018cec:    bd10        ..      POP      {r4,pc}
        0x00018cee:    bf00        ..      NOP      
        0x00018cf0:    f004001f    ....    AND      r0,r4,#0x1f
        0x00018cf4:    2101        .!      MOVS     r1,#1
        0x00018cf6:    f2402214    @.."    MOVW     r2,#0x214
        0x00018cfa:    fa01f000    ....    LSL      r0,r1,r0
        0x00018cfe:    f3c41141    ..A.    UBFX     r1,r4,#5,#2
        0x00018d02:    f2c40201    ....    MOVT     r2,#0x4001
        0x00018d06:    eb020181    ....    ADD      r1,r2,r1,LSL #2
        0x00018d0a:    6508        .e      STR      r0,[r1,#0x50]
        0x00018d0c:    2000        .       MOVS     r0,#0
        0x00018d0e:    b002        ..      ADD      sp,sp,#8
        0x00018d10:    bd10        ..      POP      {r4,pc}
        0x00018d12:    bf00        ..      NOP      
        0x00018d14:    f004001f    ....    AND      r0,r4,#0x1f
        0x00018d18:    2101        .!      MOVS     r1,#1
        0x00018d1a:    f2402214    @.."    MOVW     r2,#0x214
        0x00018d1e:    fa01f000    ....    LSL      r0,r1,r0
        0x00018d22:    f3c41141    ..A.    UBFX     r1,r4,#5,#2
        0x00018d26:    f2c40201    ....    MOVT     r2,#0x4001
        0x00018d2a:    eb020181    ....    ADD      r1,r2,r1,LSL #2
        0x00018d2e:    6408        .d      STR      r0,[r1,#0x40]
        0x00018d30:    2000        .       MOVS     r0,#0
        0x00018d32:    b002        ..      ADD      sp,sp,#8
        0x00018d34:    bd10        ..      POP      {r4,pc}
        0x00018d36:    bf00        ..      NOP      
        0x00018d38:    f000f818    ....    BL       am_hal_interrupt_master_disable ; 0x18d6c
        0x00018d3c:    f2402314    @..#    MOVW     r3,#0x214
        0x00018d40:    f3c41241    ..A.    UBFX     r2,r4,#5,#2
        0x00018d44:    f2c40301    ....    MOVT     r3,#0x4001
        0x00018d48:    9000        ..      STR      r0,[sp,#0]
        0x00018d4a:    eb030282    ....    ADD      r2,r3,r2,LSL #2
        0x00018d4e:    f004001f    ....    AND      r0,r4,#0x1f
        0x00018d52:    2101        .!      MOVS     r1,#1
        0x00018d54:    6b13        .k      LDR      r3,[r2,#0x30]
        0x00018d56:    fa01f000    ....    LSL      r0,r1,r0
        0x00018d5a:    4058        X@      EORS     r0,r0,r3
        0x00018d5c:    6310        .c      STR      r0,[r2,#0x30]
        0x00018d5e:    9800        ..      LDR      r0,[sp,#0]
        0x00018d60:    f000f80c    ....    BL       am_hal_interrupt_master_set ; 0x18d7c
        0x00018d64:    2000        .       MOVS     r0,#0
        0x00018d66:    b002        ..      ADD      sp,sp,#8
        0x00018d68:    bd10        ..      POP      {r4,pc}
        0x00018d6a:    0000        ..      MOVS     r0,r0
    am_hal_interrupt_master_disable
        0x00018d6c:    f3ef8010    ....    MRS      r0,PRIMASK
        0x00018d70:    b672        r.      CPSID    i
        0x00018d72:    4770        pG      BX       lr
    am_hal_interrupt_master_enable
        0x00018d74:    f3ef8010    ....    MRS      r0,PRIMASK
        0x00018d78:    b662        b.      CPSIE    i
        0x00018d7a:    4770        pG      BX       lr
    am_hal_interrupt_master_set
        0x00018d7c:    f3808810    ....    MSR      PRIMASK,r0
        0x00018d80:    4770        pG      BX       lr
        0x00018d82:    0000        ..      MOVS     r0,r0
    am_hal_mcuctrl_control
        0x00018d84:    b570        p.      PUSH     {r4-r6,lr}
        0x00018d86:    b082        ..      SUB      sp,sp,#8
        0x00018d88:    2805        .(      CMP      r0,#5
        0x00018d8a:    f2008159    ..Y.    BHI.W    0x19040 ; am_hal_mcuctrl_control + 700
        0x00018d8e:    460c        .F      MOV      r4,r1
        0x00018d90:    e8dff010    ....    TBH      [pc,r0,LSL #1]
    $d.2
        0x00018d94:    00180006    ....    DCD    1572870
        0x00018d98:    009a0034    4...    DCD    10092596
        0x00018d9c:    013a00ee    ..:.    DCD    20578542
    $t.3
        0x00018da0:    f7ffffe4    ....    BL       am_hal_interrupt_master_disable ; 0x18d6c
        0x00018da4:    9000        ..      STR      r0,[sp,#0]
        0x00018da6:    f240102c    @.,.    MOVW     r0,#0x12c
        0x00018daa:    f2c40002    ....    MOVT     r0,#0x4002
        0x00018dae:    f8501c0c    P...    LDR      r1,[r0,#-0xc]
        0x00018db2:    9101        ..      STR      r1,[sp,#4]
        0x00018db4:    9901        ..      LDR      r1,[sp,#4]
        0x00018db6:    f021011f    !...    BIC      r1,r1,#0x1f
        0x00018dba:    9101        ..      STR      r1,[sp,#4]
        0x00018dbc:    9901        ..      LDR      r1,[sp,#4]
        0x00018dbe:    f0410119    A...    ORR      r1,r1,#0x19
        0x00018dc2:    e010        ..      B        0x18de6 ; am_hal_mcuctrl_control + 98
        0x00018dc4:    f7ffffd2    ....    BL       am_hal_interrupt_master_disable ; 0x18d6c
        0x00018dc8:    9000        ..      STR      r0,[sp,#0]
        0x00018dca:    f240102c    @.,.    MOVW     r0,#0x12c
        0x00018dce:    f2c40002    ....    MOVT     r0,#0x4002
        0x00018dd2:    f8501c0c    P...    LDR      r1,[r0,#-0xc]
        0x00018dd6:    9101        ..      STR      r1,[sp,#4]
        0x00018dd8:    9901        ..      LDR      r1,[sp,#4]
        0x00018dda:    f021011f    !...    BIC      r1,r1,#0x1f
        0x00018dde:    9101        ..      STR      r1,[sp,#4]
        0x00018de0:    9901        ..      LDR      r1,[sp,#4]
        0x00018de2:    f0410118    A...    ORR      r1,r1,#0x18
        0x00018de6:    9101        ..      STR      r1,[sp,#4]
        0x00018de8:    9901        ..      LDR      r1,[sp,#4]
        0x00018dea:    f8401c0c    @...    STR      r1,[r0,#-0xc]
        0x00018dee:    9800        ..      LDR      r0,[sp,#0]
        0x00018df0:    f7ffffc4    ....    BL       am_hal_interrupt_master_set ; 0x18d7c
        0x00018df4:    2000        .       MOVS     r0,#0
        0x00018df6:    b002        ..      ADD      sp,sp,#8
        0x00018df8:    bd70        p.      POP      {r4-r6,pc}
        0x00018dfa:    bf00        ..      NOP      
        0x00018dfc:    2c00        .,      CMP      r4,#0
        0x00018dfe:    f000811f    ....    BEQ.W    0x19040 ; am_hal_mcuctrl_control + 700
        0x00018e02:    f240152c    @.,.    MOVW     r5,#0x12c
        0x00018e06:    f2c40502    ....    MOVT     r5,#0x4002
        0x00018e0a:    f7ffffaf    ....    BL       am_hal_interrupt_master_disable ; 0x18d6c
        0x00018e0e:    f2400ca8    @...    MOVW     r12,#0xa8
        0x00018e12:    9001        ..      STR      r0,[sp,#4]
        0x00018e14:    f2c10c00    ....    MOVT     r12,#0x1000
        0x00018e18:    7922        "y      LDRB     r2,[r4,#4]
        0x00018e1a:    f8dc1000    ....    LDR      r1,[r12,#0]
        0x00018e1e:    2a00        .*      CMP      r2,#0
        0x00018e20:    460a        .F      MOV      r2,r1
        0x00018e22:    d017        ..      BEQ      0x18e54 ; am_hal_mcuctrl_control + 208
        0x00018e24:    6822        "h      LDR      r2,[r4,#0]
        0x00018e26:    79e3        .y      LDRB     r3,[r4,#7]
        0x00018e28:    ea420001    B...    ORR      r0,r2,r1
        0x00018e2c:    2b00        .+      CMP      r3,#0
        0x00018e2e:    f8cc0000    ....    STR      r0,[r12,#0]
        0x00018e32:    f8dc0004    ....    LDR      r0,[r12,#4]
        0x00018e36:    bf0c        ..      ITE      EQ
        0x00018e38:    ea200202     ...    BICEQ    r2,r0,r2
        0x00018e3c:    4302        .C      ORRNE    r2,r2,r0
        0x00018e3e:    f8cc2004    ...     STR      r2,[r12,#4]
        0x00018e42:    6828        (h      LDR      r0,[r5,#0]
        0x00018e44:    2a00        .*      CMP      r2,#0
        0x00018e46:    f0200080     ...    BIC      r0,r0,#0x80
        0x00018e4a:    bf18        ..      IT       NE
        0x00018e4c:    3080        .0      ADDNE    r0,r0,#0x80
        0x00018e4e:    6028        (`      STR      r0,[r5,#0]
        0x00018e50:    f8dc2000    ...     LDR      r2,[r12,#0]
        0x00018e54:    b901        ..      CBNZ     r1,0x18e58 ; am_hal_mcuctrl_control + 212
        0x00018e56:    b91a        ..      CBNZ     r2,0x18e60 ; am_hal_mcuctrl_control + 220
        0x00018e58:    79a0        .y      LDRB     r0,[r4,#6]
        0x00018e5a:    2800        .(      CMP      r0,#0
        0x00018e5c:    f00080ce    ....    BEQ.W    0x18ffc ; am_hal_mcuctrl_control + 632
        0x00018e60:    2001        .       MOVS     r0,#1
        0x00018e62:    f88c0008    ....    STRB     r0,[r12,#8]
        0x00018e66:    f2400008    @...    MOVW     r0,#8
        0x00018e6a:    f2c10000    ....    MOVT     r0,#0x1000
        0x00018e6e:    e9d01000    ....    LDRD     r1,r0,[r0,#0]
        0x00018e72:    f001013f    ..?.    AND      r1,r1,#0x3f
        0x00018e76:    f000000f    ....    AND      r0,r0,#0xf
        0x00018e7a:    ea411080    A...    ORR      r0,r1,r0,LSL #6
        0x00018e7e:    f6484100    H..A    MOVW     r1,#0x8c00
        0x00018e82:    f6c071ff    ...q    MOVT     r1,#0xfff
        0x00018e86:    4308        .C      ORRS     r0,r0,r1
        0x00018e88:    f8450c04    E...    STR      r0,[r5,#-4]
        0x00018e8c:    6828        (h      LDR      r0,[r5,#0]
        0x00018e8e:    f0200022     .".    BIC      r0,r0,#0x22
        0x00018e92:    1c81        ..      ADDS     r1,r0,#2
        0x00018e94:    6029        )`      STR      r1,[r5,#0]
        0x00018e96:    f0400103    @...    ORR      r1,r0,#3
        0x00018e9a:    6029        )`      STR      r1,[r5,#0]
        0x00018e9c:    f0400113    @...    ORR      r1,r0,#0x13
        0x00018ea0:    f040001b    @...    ORR      r0,r0,#0x1b
        0x00018ea4:    6029        )`      STR      r1,[r5,#0]
        0x00018ea6:    6028        (`      STR      r0,[r5,#0]
        0x00018ea8:    2005        .       MOVS     r0,#5
        0x00018eaa:    f7fffdfb    ....    BL       am_hal_delay_us ; 0x18aa4
        0x00018eae:    6828        (h      LDR      r0,[r5,#0]
        0x00018eb0:    7961        ay      LDRB     r1,[r4,#5]
        0x00018eb2:    f4407280    @..r    ORR      r2,r0,#0x100
        0x00018eb6:    f0220219    "...    BIC      r2,r2,#0x19
        0x00018eba:    2900        .)      CMP      r1,#0
        0x00018ebc:    bf08        ..      IT       EQ
        0x00018ebe:    f0200210     ...    BICEQ    r2,r0,#0x10
        0x00018ec2:    602a        *`      STR      r2,[r5,#0]
        0x00018ec4:    e09a        ..      B        0x18ffc ; am_hal_mcuctrl_control + 632
        0x00018ec6:    bf00        ..      NOP      
        0x00018ec8:    2c00        .,      CMP      r4,#0
        0x00018eca:    f00080b9    ....    BEQ.W    0x19040 ; am_hal_mcuctrl_control + 700
        0x00018ece:    f240162c    @.,.    MOVW     r6,#0x12c
        0x00018ed2:    f2c40602    ....    MOVT     r6,#0x4002
        0x00018ed6:    f7ffff49    ..I.    BL       am_hal_interrupt_master_disable ; 0x18d6c
        0x00018eda:    f24001a8    @...    MOVW     r1,#0xa8
        0x00018ede:    9001        ..      STR      r0,[sp,#4]
        0x00018ee0:    f2c10100    ....    MOVT     r1,#0x1000
        0x00018ee4:    7922        "y      LDRB     r2,[r4,#4]
        0x00018ee6:    6808        .h      LDR      r0,[r1,#0]
        0x00018ee8:    2a00        .*      CMP      r2,#0
        0x00018eea:    4602        .F      MOV      r2,r0
        0x00018eec:    d013        ..      BEQ      0x18f16 ; am_hal_mcuctrl_control + 402
        0x00018eee:    6822        "h      LDR      r2,[r4,#0]
        0x00018ef0:    79e3        .y      LDRB     r3,[r4,#7]
        0x00018ef2:    ea420500    B...    ORR      r5,r2,r0
        0x00018ef6:    2b00        .+      CMP      r3,#0
        0x00018ef8:    600d        .`      STR      r5,[r1,#0]
        0x00018efa:    684b        Kh      LDR      r3,[r1,#4]
        0x00018efc:    bf0c        ..      ITE      EQ
        0x00018efe:    ea230202    #...    BICEQ    r2,r3,r2
        0x00018f02:    431a        .C      ORRNE    r2,r2,r3
        0x00018f04:    604a        J`      STR      r2,[r1,#4]
        0x00018f06:    6833        3h      LDR      r3,[r6,#0]
        0x00018f08:    2a00        .*      CMP      r2,#0
        0x00018f0a:    f0230380    #...    BIC      r3,r3,#0x80
        0x00018f0e:    bf18        ..      IT       NE
        0x00018f10:    3380        .3      ADDNE    r3,r3,#0x80
        0x00018f12:    6033        3`      STR      r3,[r6,#0]
        0x00018f14:    680a        .h      LDR      r2,[r1,#0]
        0x00018f16:    b900        ..      CBNZ     r0,0x18f1a ; am_hal_mcuctrl_control + 406
        0x00018f18:    b912        ..      CBNZ     r2,0x18f20 ; am_hal_mcuctrl_control + 412
        0x00018f1a:    79a0        .y      LDRB     r0,[r4,#6]
        0x00018f1c:    2800        .(      CMP      r0,#0
        0x00018f1e:    d06d        m.      BEQ      0x18ffc ; am_hal_mcuctrl_control + 632
        0x00018f20:    f2400008    @...    MOVW     r0,#8
        0x00018f24:    f2c10000    ....    MOVT     r0,#0x1000
        0x00018f28:    e9d01000    ....    LDRD     r1,r0,[r0,#0]
        0x00018f2c:    f001013f    ..?.    AND      r1,r1,#0x3f
        0x00018f30:    f000000f    ....    AND      r0,r0,#0xf
        0x00018f34:    ea411080    A...    ORR      r0,r1,r0,LSL #6
        0x00018f38:    f6484100    H..A    MOVW     r1,#0x8c00
        0x00018f3c:    f6c071ff    ...q    MOVT     r1,#0xfff
        0x00018f40:    4308        .C      ORRS     r0,r0,r1
        0x00018f42:    f8460c04    F...    STR      r0,[r6,#-4]
        0x00018f46:    6830        0h      LDR      r0,[r6,#0]
        0x00018f48:    f0400122    @.".    ORR      r1,r0,#0x22
        0x00018f4c:    6031        1`      STR      r1,[r6,#0]
        0x00018f4e:    f0400123    @.#.    ORR      r1,r0,#0x23
        0x00018f52:    6031        1`      STR      r1,[r6,#0]
        0x00018f54:    7961        ay      LDRB     r1,[r4,#5]
        0x00018f56:    f4407291    @..r    ORR      r2,r0,#0x122
        0x00018f5a:    f0220201    "...    BIC      r2,r2,#1
        0x00018f5e:    f040000b    @...    ORR      r0,r0,#0xb
        0x00018f62:    2900        .)      CMP      r1,#0
        0x00018f64:    bf08        ..      IT       EQ
        0x00018f66:    f0200220     . .    BICEQ    r2,r0,#0x20
        0x00018f6a:    6032        2`      STR      r2,[r6,#0]
        0x00018f6c:    e046        F.      B        0x18ffc ; am_hal_mcuctrl_control + 632
        0x00018f6e:    bf00        ..      NOP      
        0x00018f70:    2c00        .,      CMP      r4,#0
        0x00018f72:    d065        e.      BEQ      0x19040 ; am_hal_mcuctrl_control + 700
        0x00018f74:    f240152c    @.,.    MOVW     r5,#0x12c
        0x00018f78:    f2c40502    ....    MOVT     r5,#0x4002
        0x00018f7c:    f7fffef6    ....    BL       am_hal_interrupt_master_disable ; 0x18d6c
        0x00018f80:    9001        ..      STR      r0,[sp,#4]
        0x00018f82:    7920         y      LDRB     r0,[r4,#4]
        0x00018f84:    b1b8        ..      CBZ      r0,0x18fb6 ; am_hal_mcuctrl_control + 562
        0x00018f86:    f24001a8    @...    MOVW     r1,#0xa8
        0x00018f8a:    f2c10100    ....    MOVT     r1,#0x1000
        0x00018f8e:    6820         h      LDR      r0,[r4,#0]
        0x00018f90:    e9d12300    ...#    LDRD     r2,r3,[r1,#0]
        0x00018f94:    4382        .C      BICS     r2,r2,r0
        0x00018f96:    600a        .`      STR      r2,[r1,#0]
        0x00018f98:    79e2        .y      LDRB     r2,[r4,#7]
        0x00018f9a:    ea430600    C...    ORR      r6,r3,r0
        0x00018f9e:    2a00        .*      CMP      r2,#0
        0x00018fa0:    bf08        ..      IT       EQ
        0x00018fa2:    ea230600    #...    BICEQ    r6,r3,r0
        0x00018fa6:    604e        N`      STR      r6,[r1,#4]
        0x00018fa8:    6828        (h      LDR      r0,[r5,#0]
        0x00018faa:    2e00        ..      CMP      r6,#0
        0x00018fac:    f0200080     ...    BIC      r0,r0,#0x80
        0x00018fb0:    bf18        ..      IT       NE
        0x00018fb2:    3080        .0      ADDNE    r0,r0,#0x80
        0x00018fb4:    6028        (`      STR      r0,[r5,#0]
        0x00018fb6:    f24000a8    @...    MOVW     r0,#0xa8
        0x00018fba:    f2c10000    ....    MOVT     r0,#0x1000
        0x00018fbe:    6801        .h      LDR      r1,[r0,#0]
        0x00018fc0:    b109        ..      CBZ      r1,0x18fc6 ; am_hal_mcuctrl_control + 578
        0x00018fc2:    79a1        .y      LDRB     r1,[r4,#6]
        0x00018fc4:    b1d1        ..      CBZ      r1,0x18ffc ; am_hal_mcuctrl_control + 632
        0x00018fc6:    2100        .!      MOVS     r1,#0
        0x00018fc8:    7201        .r      STRB     r1,[r0,#8]
        0x00018fca:    6001        .`      STR      r1,[r0,#0]
        0x00018fcc:    f2400008    @...    MOVW     r0,#8
        0x00018fd0:    f2c10000    ....    MOVT     r0,#0x1000
        0x00018fd4:    e9d01000    ....    LDRD     r1,r0,[r0,#0]
        0x00018fd8:    f001013f    ..?.    AND      r1,r1,#0x3f
        0x00018fdc:    f000000f    ....    AND      r0,r0,#0xf
        0x00018fe0:    ea411080    A...    ORR      r0,r1,r0,LSL #6
        0x00018fe4:    f0407044    @.Dp    ORR      r0,r0,#0x3100000
        0x00018fe8:    f44030f8    @..0    ORR      r0,r0,#0x1f000
        0x00018fec:    f8450c04    E...    STR      r0,[r5,#-4]
        0x00018ff0:    6828        (h      LDR      r0,[r5,#0]
        0x00018ff2:    f240112b    @.+.    MOV      r1,#0x12b
        0x00018ff6:    4388        .C      BICS     r0,r0,r1
        0x00018ff8:    3002        .0      ADDS     r0,#2
        0x00018ffa:    6028        (`      STR      r0,[r5,#0]
        0x00018ffc:    9801        ..      LDR      r0,[sp,#4]
        0x00018ffe:    f7fffebd    ....    BL       am_hal_interrupt_master_set ; 0x18d7c
        0x00019002:    2000        .       MOVS     r0,#0
        0x00019004:    b002        ..      ADD      sp,sp,#8
        0x00019006:    bd70        p.      POP      {r4-r6,pc}
        0x00019008:    b1d4        ..      CBZ      r4,0x19040 ; am_hal_mcuctrl_control + 700
        0x0001900a:    f24000a8    @...    MOVW     r0,#0xa8
        0x0001900e:    f2c10000    ....    MOVT     r0,#0x1000
        0x00019012:    6841        Ah      LDR      r1,[r0,#4]
        0x00019014:    7822        "x      LDRB     r2,[r4,#0]
        0x00019016:    f4211100    !...    BIC      r1,r1,#0x200000
        0x0001901a:    2a00        .*      CMP      r2,#0
        0x0001901c:    bf18        ..      IT       NE
        0x0001901e:    f5011100    ....    ADDNE    r1,r1,#0x200000
        0x00019022:    6041        A`      STR      r1,[r0,#4]
        0x00019024:    f240102c    @.,.    MOVW     r0,#0x12c
        0x00019028:    f2c40002    ....    MOVT     r0,#0x4002
        0x0001902c:    6802        .h      LDR      r2,[r0,#0]
        0x0001902e:    2900        .)      CMP      r1,#0
        0x00019030:    f0220280    "...    BIC      r2,r2,#0x80
        0x00019034:    bf18        ..      IT       NE
        0x00019036:    3280        .2      ADDNE    r2,r2,#0x80
        0x00019038:    6002        .`      STR      r2,[r0,#0]
        0x0001903a:    2000        .       MOVS     r0,#0
        0x0001903c:    b002        ..      ADD      sp,sp,#8
        0x0001903e:    bd70        p.      POP      {r4-r6,pc}
        0x00019040:    2006        .       MOVS     r0,#6
        0x00019042:    b002        ..      ADD      sp,sp,#8
        0x00019044:    bd70        p.      POP      {r4-r6,pc}
        0x00019046:    0000        ..      MOVS     r0,r0
    am_hal_mram_info_read
        0x00019048:    b580        ..      PUSH     {r7,lr}
        0x0001904a:    2801        .(      CMP      r0,#1
        0x0001904c:    d010        ..      BEQ      0x19070 ; am_hal_mram_info_read + 40
        0x0001904e:    2800        .(      CMP      r0,#0
        0x00019050:    d14c        L.      BNE      0x190ec ; am_hal_mram_info_read + 164
        0x00019052:    2000        .       MOVS     r0,#0
        0x00019054:    ebb02f51    ..Q/    CMP      r0,r1,LSR #9
        0x00019058:    f04f0002    O...    MOV      r0,#2
        0x0001905c:    d14b        K.      BNE      0x190f6 ; am_hal_mram_info_read + 174
        0x0001905e:    eb020c01    ....    ADD      r12,r2,r1
        0x00019062:    f5bc7f00    ....    CMP      r12,#0x200
        0x00019066:    d846        F.      BHI      0x190f6 ; am_hal_mram_info_read + 174
        0x00019068:    f04f4084    O..@    MOV      r0,#0x42000000
        0x0001906c:    b992        ..      CBNZ     r2,0x19094 ; am_hal_mram_info_read + 76
        0x0001906e:    e03a        :.      B        0x190e6 ; am_hal_mram_info_read + 158
        0x00019070:    f5a160c0    ...`    SUB      r0,r1,#0x600
        0x00019074:    f5107fc0    ....    CMN      r0,#0x180
        0x00019078:    f04f0002    O...    MOV      r0,#2
        0x0001907c:    d33b        ;.      BCC      0x190f6 ; am_hal_mram_info_read + 174
        0x0001907e:    eb020c01    ....    ADD      r12,r2,r1
        0x00019082:    f5bc6fc0    ...o    CMP      r12,#0x600
        0x00019086:    bf88        ..      IT       HI
        0x00019088:    bd80        ..      POPHI    {r7,pc}
        0x0001908a:    f2420000    B...    MOVW     r0,#0x2000
        0x0001908e:    f2c42000    ...     MOVT     r0,#0x4200
        0x00019092:    b342        B.      CBZ      r2,0x190e6 ; am_hal_mram_info_read + 158
        0x00019094:    eb000181    ....    ADD      r1,r0,r1,LSL #2
        0x00019098:    1e50        P.      SUBS     r0,r2,#1
        0x0001909a:    2803        .(      CMP      r0,#3
        0x0001909c:    f0020c03    ....    AND      r12,r2,#3
        0x000190a0:    d314        ..      BCC      0x190cc ; am_hal_mram_info_read + 132
        0x000190a2:    f0220203    "...    BIC      r2,r2,#3
        0x000190a6:    bf00        ..      NOP      
        0x000190a8:    6808        .h      LDR      r0,[r1,#0]
        0x000190aa:    f1010e10    ....    ADD      lr,r1,#0x10
        0x000190ae:    6018        .`      STR      r0,[r3,#0]
        0x000190b0:    6848        Hh      LDR      r0,[r1,#4]
        0x000190b2:    3a04        .:      SUBS     r2,#4
        0x000190b4:    6058        X`      STR      r0,[r3,#4]
        0x000190b6:    6888        .h      LDR      r0,[r1,#8]
        0x000190b8:    6098        .`      STR      r0,[r3,#8]
        0x000190ba:    68c9        .h      LDR      r1,[r1,#0xc]
        0x000190bc:    f1030010    ....    ADD      r0,r3,#0x10
        0x000190c0:    60d9        .`      STR      r1,[r3,#0xc]
        0x000190c2:    4671        qF      MOV      r1,lr
        0x000190c4:    4603        .F      MOV      r3,r0
        0x000190c6:    d1ef        ..      BNE      0x190a8 ; am_hal_mram_info_read + 96
        0x000190c8:    4671        qF      MOV      r1,lr
        0x000190ca:    4603        .F      MOV      r3,r0
        0x000190cc:    f1bc0f00    ....    CMP      r12,#0
        0x000190d0:    d009        ..      BEQ      0x190e6 ; am_hal_mram_info_read + 158
        0x000190d2:    6808        .h      LDR      r0,[r1,#0]
        0x000190d4:    f1bc0f01    ....    CMP      r12,#1
        0x000190d8:    6018        .`      STR      r0,[r3,#0]
        0x000190da:    d004        ..      BEQ      0x190e6 ; am_hal_mram_info_read + 158
        0x000190dc:    6848        Hh      LDR      r0,[r1,#4]
        0x000190de:    f1bc0f02    ....    CMP      r12,#2
        0x000190e2:    6058        X`      STR      r0,[r3,#4]
        0x000190e4:    d104        ..      BNE      0x190f0 ; am_hal_mram_info_read + 168
        0x000190e6:    2000        .       MOVS     r0,#0
        0x000190e8:    bd80        ..      POP      {r7,pc}
        0x000190ea:    bf00        ..      NOP      
        0x000190ec:    2001        .       MOVS     r0,#1
        0x000190ee:    bd80        ..      POP      {r7,pc}
        0x000190f0:    6888        .h      LDR      r0,[r1,#8]
        0x000190f2:    6098        .`      STR      r0,[r3,#8]
        0x000190f4:    2000        .       MOVS     r0,#0
        0x000190f6:    bd80        ..      POP      {r7,pc}
    am_hal_pwrctrl_control
        0x000190f8:    b5b0        ..      PUSH     {r4,r5,r7,lr}
        0x000190fa:    2804        .(      CMP      r0,#4
        0x000190fc:    d84d        M.      BHI      0x1919a ; am_hal_pwrctrl_control + 162
        0x000190fe:    e8dff000    ....    TBB      [pc,r0]
    $d.22
        0x00019102:    1d03        ..      DCW    7427
        0x00019104:    00453d2d    -=E.    DCD    4537645
    $t.23
        0x00019108:    f2400400    @...    MOVW     r4,#0
        0x0001910c:    f2c10400    ....    MOVT     r4,#0x1000
        0x00019110:    6820         h      LDR      r0,[r4,#0]
        0x00019112:    2560        `%      MOVS     r5,#0x60
        0x00019114:    1c41        A.      ADDS     r1,r0,#1
        0x00019116:    f2c40502    ....    MOVT     r5,#0x4002
        0x0001911a:    d10a        ..      BNE      0x19132 ; am_hal_pwrctrl_control + 58
        0x0001911c:    2001        .       MOVS     r0,#1
        0x0001911e:    f24041c4    @..A    MOV      r1,#0x4c4
        0x00019122:    2201        ."      MOVS     r2,#1
        0x00019124:    4623        #F      MOV      r3,r4
        0x00019126:    f7ffff8f    ....    BL       am_hal_mram_info_read ; 0x19048
        0x0001912a:    bbc8        ..      CBNZ     r0,0x191a0 ; am_hal_pwrctrl_control + 168
        0x0001912c:    6820         h      LDR      r0,[r4,#0]
        0x0001912e:    1c41        A.      ADDS     r1,r0,#1
        0x00019130:    d036        6.      BEQ      0x191a0 ; am_hal_pwrctrl_control + 168
        0x00019132:    2802        .(      CMP      r0,#2
        0x00019134:    d936        6.      BLS      0x191a4 ; am_hal_pwrctrl_control + 172
        0x00019136:    2100        .!      MOVS     r1,#0
        0x00019138:    e067        g.      B        0x1920a ; am_hal_pwrctrl_control + 274
        0x0001913a:    bf00        ..      NOP      
        0x0001913c:    f2411000    A...    MOVW     r0,#0x1100
        0x00019140:    f2c40002    ....    MOVT     r0,#0x4002
        0x00019144:    f8500cf8    P...    LDR      r0,[r0,#-0xf8]
        0x00019148:    02c0        ..      LSLS     r0,r0,#11
        0x0001914a:    d505        ..      BPL      0x19158 ; am_hal_pwrctrl_control + 96
        0x0001914c:    2014        .       MOVS     r0,#0x14
        0x0001914e:    f000fa1f    ....    BL       am_hal_pwrctrl_periph_disable ; 0x19590
        0x00019152:    2800        .(      CMP      r0,#0
        0x00019154:    bf18        ..      IT       NE
        0x00019156:    bdb0        ..      POPNE    {r4,r5,r7,pc}
        0x00019158:    2000        .       MOVS     r0,#0
        0x0001915a:    bdb0        ..      POP      {r4,r5,r7,pc}
        0x0001915c:    2060        `       MOVS     r0,#0x60
        0x0001915e:    f2c40002    ....    MOVT     r0,#0x4002
        0x00019162:    f8d010c4    ....    LDR      r1,[r0,#0xc4]
        0x00019166:    2220         "      MOVS     r2,#0x20
        0x00019168:    f3620187    b...    BFI      r1,r2,#2,#6
        0x0001916c:    f8c010c4    ....    STR      r1,[r0,#0xc4]
        0x00019170:    2101        .!      MOVS     r1,#1
        0x00019172:    f8c010c0    ....    STR      r1,[r0,#0xc0]
        0x00019176:    2000        .       MOVS     r0,#0
        0x00019178:    bdb0        ..      POP      {r4,r5,r7,pc}
        0x0001917a:    bf00        ..      NOP      
        0x0001917c:    f2411100    A...    MOVW     r1,#0x1100
        0x00019180:    f2c40102    ....    MOVT     r1,#0x4002
        0x00019184:    2000        .       MOVS     r0,#0
        0x00019186:    f8410cfc    A...    STR      r0,[r1,#-0xfc]
        0x0001918a:    bdb0        ..      POP      {r4,r5,r7,pc}
        0x0001918c:    b129        ).      CBZ      r1,0x1919a ; am_hal_pwrctrl_control + 162
        0x0001918e:    f2400078    @.x.    MOVW     r0,#0x78
        0x00019192:    f2c10000    ....    MOVT     r0,#0x1000
        0x00019196:    6a80        .j      LDR      r0,[r0,#0x28]
        0x00019198:    6008        .`      STR      r0,[r1,#0]
        0x0001919a:    2006        .       MOVS     r0,#6
        0x0001919c:    bdb0        ..      POP      {r4,r5,r7,pc}
        0x0001919e:    bf00        ..      NOP      
        0x000191a0:    2000        .       MOVS     r0,#0
        0x000191a2:    6020         `      STR      r0,[r4,#0]
        0x000191a4:    f8d51318    ....    LDR      r1,[r5,#0x318]
        0x000191a8:    220a        ."      MOVS     r2,#0xa
        0x000191aa:    f02151f8    !..Q    BIC      r1,r1,#0x1f000000
        0x000191ae:    f8c51318    ....    STR      r1,[r5,#0x318]
        0x000191b2:    f8d512f8    ....    LDR      r1,[r5,#0x2f8]
        0x000191b6:    f42101f8    !...    BIC      r1,r1,#0x7c0000
        0x000191ba:    f8c512f8    ....    STR      r1,[r5,#0x2f8]
        0x000191be:    f8d512e4    ....    LDR      r1,[r5,#0x2e4]
        0x000191c2:    f362611c    b..a    BFI      r1,r2,#24,#5
        0x000191c6:    f8c512e4    ....    STR      r1,[r5,#0x2e4]
        0x000191ca:    f8d512e4    ....    LDR      r1,[r5,#0x2e4]
        0x000191ce:    f36221ce    b..!    BFI      r1,r2,#11,#4
        0x000191d2:    f8c512e4    ....    STR      r1,[r5,#0x2e4]
        0x000191d6:    f8d512f8    ....    LDR      r1,[r5,#0x2f8]
        0x000191da:    220f        ."      MOVS     r2,#0xf
        0x000191dc:    f362210c    b..!    BFI      r1,r2,#8,#5
        0x000191e0:    f8c512f8    ....    STR      r1,[r5,#0x2f8]
        0x000191e4:    f8d512f4    ....    LDR      r1,[r5,#0x2f4]
        0x000191e8:    f44111f0    A...    ORR      r1,r1,#0x1e0000
        0x000191ec:    f8c512f4    ....    STR      r1,[r5,#0x2f4]
        0x000191f0:    f8d51300    ....    LDR      r1,[r5,#0x300]
        0x000191f4:    f362519a    b..Q    BFI      r1,r2,#22,#5
        0x000191f8:    f8c51300    ....    STR      r1,[r5,#0x300]
        0x000191fc:    f8d51300    ....    LDR      r1,[r5,#0x300]
        0x00019200:    f44111f0    A...    ORR      r1,r1,#0x1e0000
        0x00019204:    f8c51300    ....    STR      r1,[r5,#0x300]
        0x00019208:    2101        .!      MOVS     r1,#1
        0x0001920a:    f8d522e8    ..."    LDR      r2,[r5,#0x2e8]
        0x0001920e:    230a        .#      MOVS     r3,#0xa
        0x00019210:    f363629d    c..b    BFI      r2,r3,#26,#4
        0x00019214:    f8c522e8    ..."    STR      r2,[r5,#0x2e8]
        0x00019218:    f8d522e8    ..."    LDR      r2,[r5,#0x2e8]
        0x0001921c:    f3633250    c.P2    BFI      r2,r3,#13,#4
        0x00019220:    f8c522e8    ..."    STR      r2,[r5,#0x2e8]
        0x00019224:    f8d522fc    ..."    LDR      r2,[r5,#0x2fc]
        0x00019228:    f0427270    B.pr    ORR      r2,r2,#0x3c00000
        0x0001922c:    f8c522fc    ..."    STR      r2,[r5,#0x2fc]
        0x00019230:    f8d522fc    ..."    LDR      r2,[r5,#0x2fc]
        0x00019234:    f44252f0    B..R    ORR      r2,r2,#0x1e00
        0x00019238:    f8c522fc    ..."    STR      r2,[r5,#0x2fc]
        0x0001923c:    f8d52320    .. #    LDR      r2,[r5,#0x320]
        0x00019240:    f0424200    B..B    ORR      r2,r2,#0x80000000
        0x00019244:    f8c52320    .. #    STR      r2,[r5,#0x320]
        0x00019248:    f8d52320    .. #    LDR      r2,[r5,#0x320]
        0x0001924c:    f0424280    B..B    ORR      r2,r2,#0x40000000
        0x00019250:    f8c52320    .. #    STR      r2,[r5,#0x320]
        0x00019254:    f8d52310    ...#    LDR      r2,[r5,#0x310]
        0x00019258:    f3c25205    ...R    UBFX     r2,r2,#20,#6
        0x0001925c:    6062        b`      STR      r2,[r4,#4]
        0x0001925e:    f8d52310    ...#    LDR      r2,[r5,#0x310]
        0x00019262:    f022727c    ".|r    BIC      r2,r2,#0x3f00000
        0x00019266:    f8c52310    ...#    STR      r2,[r5,#0x310]
        0x0001926a:    f04f0207    O...    MOV      r2,#7
        0x0001926e:    f8c522dc    ..."    STR      r2,[r5,#0x2dc]
        0x00019272:    b161        a.      CBZ      r1,0x1928e ; am_hal_pwrctrl_control + 406
        0x00019274:    f8d512e0    ....    LDR      r1,[r5,#0x2e0]
        0x00019278:    2201        ."      MOVS     r2,#1
        0x0001927a:    f0217170    !.pq    BIC      r1,r1,#0x3c00000
        0x0001927e:    f8c512e0    ....    STR      r1,[r5,#0x2e0]
        0x00019282:    f8d512e0    ....    LDR      r1,[r5,#0x2e0]
        0x00019286:    f362118a    b...    BFI      r1,r2,#6,#5
        0x0001928a:    f8c512e0    ....    STR      r1,[r5,#0x2e0]
        0x0001928e:    2806        .(      CMP      r0,#6
        0x00019290:    d308        ..      BCC      0x192a4 ; am_hal_pwrctrl_control + 428
        0x00019292:    200f        .       MOVS     r0,#0xf
        0x00019294:    f8c502dc    ....    STR      r0,[r5,#0x2dc]
        0x00019298:    f8d50150    ..P.    LDR      r0,[r5,#0x150]
        0x0001929c:    f0200018     ...    BIC      r0,r0,#0x18
        0x000192a0:    f8c50150    ..P.    STR      r0,[r5,#0x150]
        0x000192a4:    f2411000    A...    MOVW     r0,#0x1100
        0x000192a8:    f2c40002    ....    MOVT     r0,#0x4002
        0x000192ac:    6801        .h      LDR      r1,[r0,#0]
        0x000192ae:    f0410101    A...    ORR      r1,r1,#1
        0x000192b2:    6001        .`      STR      r1,[r0,#0]
        0x000192b4:    f8d50318    ....    LDR      r0,[r5,#0x318]
        0x000192b8:    f0404000    @..@    ORR      r0,r0,#0x80000000
        0x000192bc:    f8c50318    ....    STR      r0,[r5,#0x318]
        0x000192c0:    6828        (h      LDR      r0,[r5,#0]
        0x000192c2:    f4403000    @..0    ORR      r0,r0,#0x20000
        0x000192c6:    6028        (`      STR      r0,[r5,#0]
        0x000192c8:    6828        (h      LDR      r0,[r5,#0]
        0x000192ca:    f4402080    @..     ORR      r0,r0,#0x40000
        0x000192ce:    6028        (`      STR      r0,[r5,#0]
        0x000192d0:    6828        (h      LDR      r0,[r5,#0]
        0x000192d2:    f4402000    @..     ORR      r0,r0,#0x80000
        0x000192d6:    6028        (`      STR      r0,[r5,#0]
        0x000192d8:    6828        (h      LDR      r0,[r5,#0]
        0x000192da:    f4403080    @..0    ORR      r0,r0,#0x10000
        0x000192de:    6028        (`      STR      r0,[r5,#0]
        0x000192e0:    6828        (h      LDR      r0,[r5,#0]
        0x000192e2:    f0200010     ...    BIC      r0,r0,#0x10
        0x000192e6:    6028        (`      STR      r0,[r5,#0]
        0x000192e8:    6828        (h      LDR      r0,[r5,#0]
        0x000192ea:    f040000e    @...    ORR      r0,r0,#0xe
        0x000192ee:    6028        (`      STR      r0,[r5,#0]
        0x000192f0:    6828        (h      LDR      r0,[r5,#0]
        0x000192f2:    f0400001    @...    ORR      r0,r0,#1
        0x000192f6:    6028        (`      STR      r0,[r5,#0]
        0x000192f8:    6828        (h      LDR      r0,[r5,#0]
        0x000192fa:    f4207000     ..p    BIC      r0,r0,#0x200
        0x000192fe:    6028        (`      STR      r0,[r5,#0]
        0x00019300:    6828        (h      LDR      r0,[r5,#0]
        0x00019302:    f44070e0    @..p    ORR      r0,r0,#0x1c0
        0x00019306:    6028        (`      STR      r0,[r5,#0]
        0x00019308:    6828        (h      LDR      r0,[r5,#0]
        0x0001930a:    f0400020    @. .    ORR      r0,r0,#0x20
        0x0001930e:    6028        (`      STR      r0,[r5,#0]
        0x00019310:    2000        .       MOVS     r0,#0
        0x00019312:    bdb0        ..      POP      {r4,r5,r7,pc}
    am_hal_pwrctrl_low_power_init
        0x00019314:    b5f0        ..      PUSH     {r4-r7,lr}
        0x00019316:    b081        ..      SUB      sp,sp,#4
        0x00019318:    f2410608    A...    MOV      r6,#0x1008
        0x0001931c:    f2c40602    ....    MOVT     r6,#0x4002
        0x00019320:    6830        0h      LDR      r0,[r6,#0]
        0x00019322:    f2400478    @.x.    MOVW     r4,#0x78
        0x00019326:    f3c05000    ...P    UBFX     r0,r0,#20,#1
        0x0001932a:    f2c10400    ....    MOVT     r4,#0x1000
        0x0001932e:    7020         p      STRB     r0,[r4,#0]
        0x00019330:    f24a1008    J...    MOV      r0,#0xa108
        0x00019334:    2588        .%      MOVS     r5,#0x88
        0x00019336:    f2c00001    ....    MOVT     r0,#1
        0x0001933a:    f2c40502    ....    MOVT     r5,#0x4002
        0x0001933e:    f000f89f    ....    BL       am_hal_pwrctrl_mcu_memory_config ; 0x19480
        0x00019342:    f24a100e    J...    MOV      r0,#0xa10e
        0x00019346:    f2c00001    ....    MOVT     r0,#1
        0x0001934a:    f000f9b9    ....    BL       am_hal_pwrctrl_sram_config ; 0x196c0
        0x0001934e:    f2440744    D.D.    MOV      r7,#0x4044
        0x00019352:    f2c40700    ....    MOVT     r7,#0x4000
        0x00019356:    6838        8h      LDR      r0,[r7,#0]
        0x00019358:    f440007c    @.|.    ORR      r0,r0,#0xfc0000
        0x0001935c:    6038        8`      STR      r0,[r7,#0]
        0x0001935e:    2000        .       MOVS     r0,#0
        0x00019360:    f8c60138    ..8.    STR      r0,[r6,#0x138]
        0x00019364:    f8c6013c    ..<.    STR      r0,[r6,#0x13c]
        0x00019368:    f8c60140    ..@.    STR      r0,[r6,#0x140]
        0x0001936c:    f8c60144    ..D.    STR      r0,[r6,#0x144]
        0x00019370:    f8c60148    ..H.    STR      r0,[r6,#0x148]
        0x00019374:    f8c6014c    ..L.    STR      r0,[r6,#0x14c]
        0x00019378:    f8c60150    ..P.    STR      r0,[r6,#0x150]
        0x0001937c:    f8c60154    ..T.    STR      r0,[r6,#0x154]
        0x00019380:    f8c60158    ..X.    STR      r0,[r6,#0x158]
        0x00019384:    f8c6015c    ..\.    STR      r0,[r6,#0x15c]
        0x00019388:    f8c60160    ..`.    STR      r0,[r6,#0x160]
        0x0001938c:    f8c60164    ..d.    STR      r0,[r6,#0x164]
        0x00019390:    f8c60168    ..h.    STR      r0,[r6,#0x168]
        0x00019394:    f8c6016c    ..l.    STR      r0,[r6,#0x16c]
        0x00019398:    f8c60170    ..p.    STR      r0,[r6,#0x170]
        0x0001939c:    f8c60174    ..t.    STR      r0,[r6,#0x174]
        0x000193a0:    f8c60178    ..x.    STR      r0,[r6,#0x178]
        0x000193a4:    f8c6017c    ..|.    STR      r0,[r6,#0x17c]
        0x000193a8:    f8c60180    ....    STR      r0,[r6,#0x180]
        0x000193ac:    f64960dd    I..`    MOV      r0,#0x9edd
        0x000193b0:    f2c00001    ....    MOVT     r0,#1
        0x000193b4:    f7fffa94    ....    BL       am_hal_daxi_config ; 0x188e0
        0x000193b8:    2064        d       MOVS     r0,#0x64
        0x000193ba:    f7fffb73    ..s.    BL       am_hal_delay_us ; 0x18aa4
        0x000193be:    6838        8h      LDR      r0,[r7,#0]
        0x000193c0:    2104        .!      MOVS     r1,#4
        0x000193c2:    f0400040    @.@.    ORR      r0,r0,#0x40
        0x000193c6:    6038        8`      STR      r0,[r7,#0]
        0x000193c8:    f8d502f4    ....    LDR      r0,[r5,#0x2f4]
        0x000193cc:    f04060b0    @..`    ORR      r0,r0,#0x5800000
        0x000193d0:    f44000fd    @...    ORR      r0,r0,#0x7e8000
        0x000193d4:    f8c502f4    ....    STR      r0,[r5,#0x2f4]
        0x000193d8:    f8d503bc    ....    LDR      r0,[r5,#0x3bc]
        0x000193dc:    f361200f    a..     BFI      r0,r1,#8,#8
        0x000193e0:    f8c503bc    ....    STR      r0,[r5,#0x3bc]
        0x000193e4:    7860        `x      LDRB     r0,[r4,#1]
        0x000193e6:    2801        .(      CMP      r0,#1
        0x000193e8:    d102        ..      BNE      0x193f0 ; am_hal_pwrctrl_low_power_init + 220
        0x000193ea:    e9d40104    ....    LDRD     r0,r1,[r4,#0x10]
        0x000193ee:    e01c        ..      B        0x1942a ; am_hal_pwrctrl_low_power_init + 278
        0x000193f0:    f8d502e4    ....    LDR      r0,[r5,#0x2e4]
        0x000193f4:    f3c05005    ...P    UBFX     r0,r0,#20,#6
        0x000193f8:    6120         a      STR      r0,[r4,#0x10]
        0x000193fa:    6829        )h      LDR      r1,[r5,#0]
        0x000193fc:    f001013f    ..?.    AND      r1,r1,#0x3f
        0x00019400:    6161        aa      STR      r1,[r4,#0x14]
        0x00019402:    f8d522e4    ..."    LDR      r2,[r5,#0x2e4]
        0x00019406:    0e92        ..      LSRS     r2,r2,#26
        0x00019408:    61a2        .a      STR      r2,[r4,#0x18]
        0x0001940a:    682a        *h      LDR      r2,[r5,#0]
        0x0001940c:    f3c24285    ...B    UBFX     r2,r2,#18,#6
        0x00019410:    61e2        .a      STR      r2,[r4,#0x1c]
        0x00019412:    f8552c44    U.D,    LDR      r2,[r5,#-0x44]
        0x00019416:    f3c212c6    ....    UBFX     r2,r2,#7,#7
        0x0001941a:    6222        "b      STR      r2,[r4,#0x20]
        0x0001941c:    f8552c08    U..,    LDR      r2,[r5,#-8]
        0x00019420:    f36f229f    o.."    BFC      r2,#10,#22
        0x00019424:    6262        bb      STR      r2,[r4,#0x24]
        0x00019426:    2201        ."      MOVS     r2,#1
        0x00019428:    7062        bp      STRB     r2,[r4,#1]
        0x0001942a:    2200        ."      MOVS     r2,#0
        0x0001942c:    1d23        #.      ADDS     r3,r4,#4
        0x0001942e:    c307        ..      STM      r3!,{r0-r2}
        0x00019430:    466b        kF      MOV      r3,sp
        0x00019432:    2001        .       MOVS     r0,#1
        0x00019434:    f44f6192    O..a    MOV      r1,#0x490
        0x00019438:    2201        ."      MOVS     r2,#1
        0x0001943a:    f7fffe05    ....    BL       am_hal_mram_info_read ; 0x19048
        0x0001943e:    b118        ..      CBZ      r0,0x19448 ; am_hal_pwrctrl_low_power_init + 308
        0x00019440:    2000        .       MOVS     r0,#0
        0x00019442:    b001        ..      ADD      sp,sp,#4
        0x00019444:    bdf0        ..      POP      {r4-r7,pc}
        0x00019446:    bf00        ..      NOP      
        0x00019448:    9800        ..      LDR      r0,[sp,#0]
        0x0001944a:    f0100f06    ....    TST      r0,#6
        0x0001944e:    d007        ..      BEQ      0x19460 ; am_hal_pwrctrl_low_power_init + 332
        0x00019450:    0781        ..      LSLS     r1,r0,#30
        0x00019452:    d40b        ..      BMI      0x1946c ; am_hal_pwrctrl_low_power_init + 344
        0x00019454:    2006        .       MOVS     r0,#6
        0x00019456:    60e0        .`      STR      r0,[r4,#0xc]
        0x00019458:    2000        .       MOVS     r0,#0
        0x0001945a:    b001        ..      ADD      sp,sp,#4
        0x0001945c:    bdf0        ..      POP      {r4-r7,pc}
        0x0001945e:    bf00        ..      NOP      
        0x00019460:    2003        .       MOVS     r0,#3
        0x00019462:    60e0        .`      STR      r0,[r4,#0xc]
        0x00019464:    2000        .       MOVS     r0,#0
        0x00019466:    b001        ..      ADD      sp,sp,#4
        0x00019468:    bdf0        ..      POP      {r4-r7,pc}
        0x0001946a:    bf00        ..      NOP      
        0x0001946c:    0740        @.      LSLS     r0,r0,#29
        0x0001946e:    f04f0000    O...    MOV      r0,#0
        0x00019472:    bf58        X.      IT       PL
        0x00019474:    2009        .       MOVPL    r0,#9
        0x00019476:    60e0        .`      STR      r0,[r4,#0xc]
        0x00019478:    2000        .       MOVS     r0,#0
        0x0001947a:    b001        ..      ADD      sp,sp,#4
        0x0001947c:    bdf0        ..      POP      {r4-r7,pc}
        0x0001947e:    0000        ..      MOVS     r0,r0
    am_hal_pwrctrl_mcu_memory_config
        0x00019480:    b570        p.      PUSH     {r4-r6,lr}
        0x00019482:    b082        ..      SUB      sp,sp,#8
        0x00019484:    4606        .F      MOV      r6,r0
        0x00019486:    7800        .x      LDRB     r0,[r0,#0]
        0x00019488:    f2410514    A...    MOV      r5,#0x1014
        0x0001948c:    2802        .(      CMP      r0,#2
        0x0001948e:    f2c40502    ....    MOVT     r5,#0x4002
        0x00019492:    d007        ..      BEQ      0x194a4 ; am_hal_pwrctrl_mcu_memory_config + 36
        0x00019494:    2801        .(      CMP      r0,#1
        0x00019496:    d00d        ..      BEQ      0x194b4 ; am_hal_pwrctrl_mcu_memory_config + 52
        0x00019498:    b9a0        ..      CBNZ     r0,0x194c4 ; am_hal_pwrctrl_mcu_memory_config + 68
        0x0001949a:    6828        (h      LDR      r0,[r5,#0]
        0x0001949c:    f0200010     ...    BIC      r0,r0,#0x10
        0x000194a0:    e00b        ..      B        0x194ba ; am_hal_pwrctrl_mcu_memory_config + 58
        0x000194a2:    bf00        ..      NOP      
        0x000194a4:    6828        (h      LDR      r0,[r5,#0]
        0x000194a6:    f0400010    @...    ORR      r0,r0,#0x10
        0x000194aa:    6028        (`      STR      r0,[r5,#0]
        0x000194ac:    6828        (h      LDR      r0,[r5,#0]
        0x000194ae:    f0400020    @. .    ORR      r0,r0,#0x20
        0x000194b2:    e006        ..      B        0x194c2 ; am_hal_pwrctrl_mcu_memory_config + 66
        0x000194b4:    6828        (h      LDR      r0,[r5,#0]
        0x000194b6:    f0400010    @...    ORR      r0,r0,#0x10
        0x000194ba:    6028        (`      STR      r0,[r5,#0]
        0x000194bc:    6828        (h      LDR      r0,[r5,#0]
        0x000194be:    f0200020     . .    BIC      r0,r0,#0x20
        0x000194c2:    6028        (`      STR      r0,[r5,#0]
        0x000194c4:    78b0        .x      LDRB     r0,[r6,#2]
        0x000194c6:    6829        )h      LDR      r1,[r5,#0]
        0x000194c8:    2401        .$      MOVS     r4,#1
        0x000194ca:    f3600102    `...    BFI      r1,r0,#0,#3
        0x000194ce:    6029        )`      STR      r1,[r5,#0]
        0x000194d0:    7930        0y      LDRB     r0,[r6,#4]
        0x000194d2:    6829        )h      LDR      r1,[r5,#0]
        0x000194d4:    f000001f    ....    AND      r0,r0,#0x1f
        0x000194d8:    f0210108    !...    BIC      r1,r1,#8
        0x000194dc:    ea4100c0    A...    ORR      r0,r1,r0,LSL #3
        0x000194e0:    6028        (`      STR      r0,[r5,#0]
        0x000194e2:    4629        )F      MOV      r1,r5
        0x000194e4:    f8513b04    Q..;    LDR      r3,[r1],#4
        0x000194e8:    2005        .       MOVS     r0,#5
        0x000194ea:    223f        ?"      MOVS     r2,#0x3f
        0x000194ec:    9400        ..      STR      r4,[sp,#0]
        0x000194ee:    f7fffb21    ..!.    BL       am_hal_delay_us_status_check ; 0x18b34
        0x000194f2:    b108        ..      CBZ      r0,0x194f8 ; am_hal_pwrctrl_mcu_memory_config + 120
        0x000194f4:    b002        ..      ADD      sp,sp,#8
        0x000194f6:    bd70        p.      POP      {r4-r6,pc}
        0x000194f8:    6868        hh      LDR      r0,[r5,#4]
        0x000194fa:    6829        )h      LDR      r1,[r5,#0]
        0x000194fc:    4048        H@      EORS     r0,r0,r1
        0x000194fe:    06c0        ..      LSLS     r0,r0,#27
        0x00019500:    d42e        ..      BMI      0x19560 ; am_hal_pwrctrl_mcu_memory_config + 224
        0x00019502:    6868        hh      LDR      r0,[r5,#4]
        0x00019504:    6829        )h      LDR      r1,[r5,#0]
        0x00019506:    4048        H@      EORS     r0,r0,r1
        0x00019508:    0680        ..      LSLS     r0,r0,#26
        0x0001950a:    d429        ).      BMI      0x19560 ; am_hal_pwrctrl_mcu_memory_config + 224
        0x0001950c:    6868        hh      LDR      r0,[r5,#4]
        0x0001950e:    6829        )h      LDR      r1,[r5,#0]
        0x00019510:    4048        H@      EORS     r0,r0,r1
        0x00019512:    0740        @.      LSLS     r0,r0,#29
        0x00019514:    d124        $.      BNE      0x19560 ; am_hal_pwrctrl_mcu_memory_config + 224
        0x00019516:    6868        hh      LDR      r0,[r5,#4]
        0x00019518:    6829        )h      LDR      r1,[r5,#0]
        0x0001951a:    4048        H@      EORS     r0,r0,r1
        0x0001951c:    0700        ..      LSLS     r0,r0,#28
        0x0001951e:    d41f        ..      BMI      0x19560 ; am_hal_pwrctrl_mcu_memory_config + 224
        0x00019520:    7870        px      LDRB     r0,[r6,#1]
        0x00019522:    68a9        .h      LDR      r1,[r5,#8]
        0x00019524:    2800        .(      CMP      r0,#0
        0x00019526:    f0210110    !...    BIC      r1,r1,#0x10
        0x0001952a:    bf08        ..      IT       EQ
        0x0001952c:    3110        .1      ADDEQ    r1,r1,#0x10
        0x0001952e:    60a9        .`      STR      r1,[r5,#8]
        0x00019530:    7970        py      LDRB     r0,[r6,#5]
        0x00019532:    68a9        .h      LDR      r1,[r5,#8]
        0x00019534:    2800        .(      CMP      r0,#0
        0x00019536:    f0210108    !...    BIC      r1,r1,#8
        0x0001953a:    bf08        ..      IT       EQ
        0x0001953c:    3108        .1      ADDEQ    r1,r1,#8
        0x0001953e:    60a9        .`      STR      r1,[r5,#8]
        0x00019540:    78f1        .x      LDRB     r1,[r6,#3]
        0x00019542:    2000        .       MOVS     r0,#0
        0x00019544:    2907        .)      CMP      r1,#7
        0x00019546:    d8d5        ..      BHI      0x194f4 ; am_hal_pwrctrl_mcu_memory_config + 116
        0x00019548:    e8dff001    ....    TBB      [pc,r1]
    $d.3
        0x0001954c:    14040e06    ....    DCD    335810054
        0x00019550:    1a040404    ....    DCD    436470788
    $t.4
        0x00019554:    e7ce        ..      B        0x194f4 ; am_hal_pwrctrl_mcu_memory_config + 116
        0x00019556:    bf00        ..      NOP      
        0x00019558:    68a8        .h      LDR      r0,[r5,#8]
        0x0001955a:    f0400007    @...    ORR      r0,r0,#7
        0x0001955e:    e012        ..      B        0x19586 ; am_hal_pwrctrl_mcu_memory_config + 262
        0x00019560:    2001        .       MOVS     r0,#1
        0x00019562:    b002        ..      ADD      sp,sp,#8
        0x00019564:    bd70        p.      POP      {r4-r6,pc}
        0x00019566:    bf00        ..      NOP      
        0x00019568:    68a8        .h      LDR      r0,[r5,#8]
        0x0001956a:    2106        .!      MOVS     r1,#6
        0x0001956c:    f3610002    a...    BFI      r0,r1,#0,#3
        0x00019570:    e009        ..      B        0x19586 ; am_hal_pwrctrl_mcu_memory_config + 262
        0x00019572:    bf00        ..      NOP      
        0x00019574:    68a8        .h      LDR      r0,[r5,#8]
        0x00019576:    2104        .!      MOVS     r1,#4
        0x00019578:    f3610002    a...    BFI      r0,r1,#0,#3
        0x0001957c:    e003        ..      B        0x19586 ; am_hal_pwrctrl_mcu_memory_config + 262
        0x0001957e:    bf00        ..      NOP      
        0x00019580:    68a8        .h      LDR      r0,[r5,#8]
        0x00019582:    f0200007     ...    BIC      r0,r0,#7
        0x00019586:    60a8        .`      STR      r0,[r5,#8]
        0x00019588:    2000        .       MOVS     r0,#0
        0x0001958a:    b002        ..      ADD      sp,sp,#8
        0x0001958c:    bd70        p.      POP      {r4-r6,pc}
        0x0001958e:    0000        ..      MOVS     r0,r0
    am_hal_pwrctrl_periph_disable
        0x00019590:    e92d43f0    -..C    PUSH     {r4-r9,lr}
        0x00019594:    b083        ..      SUB      sp,sp,#0xc
        0x00019596:    2821        !(      CMP      r0,#0x21
        0x00019598:    d904        ..      BLS      0x195a4 ; am_hal_pwrctrl_periph_disable + 20
        0x0001959a:    2406        .$      MOVS     r4,#6
        0x0001959c:    4620         F      MOV      r0,r4
        0x0001959e:    b003        ..      ADD      sp,sp,#0xc
        0x000195a0:    e8bd83f0    ....    POP      {r4-r9,pc}
        0x000195a4:    f64961e8    I..a    MOV      r1,#0x9ee8
        0x000195a8:    f2c00101    ....    MOVT     r1,#1
        0x000195ac:    0102        ..      LSLS     r2,r0,#4
        0x000195ae:    f8518002    Q...    LDR      r8,[r1,r2]
        0x000195b2:    eb011500    ....    ADD      r5,r1,r0,LSL #4
        0x000195b6:    686f        oh      LDR      r7,[r5,#4]
        0x000195b8:    f8d81000    ....    LDR      r1,[r8,#0]
        0x000195bc:    4239        9B      TST      r1,r7
        0x000195be:    d074        t.      BEQ      0x196aa ; am_hal_pwrctrl_periph_disable + 282
        0x000195c0:    2814        .(      CMP      r0,#0x14
        0x000195c2:    d12d        -.      BNE      0x19620 ; am_hal_pwrctrl_periph_disable + 144
        0x000195c4:    f64076e0    @..v    MOVW     r6,#0xfe0
        0x000195c8:    f2c4060c    ....    MOVT     r6,#0x400c
        0x000195cc:    6830        0h      LDR      r0,[r6,#0]
        0x000195ce:    28c0        .(      CMP      r0,#0xc0
        0x000195d0:    d126        &.      BNE      0x19620 ; am_hal_pwrctrl_periph_disable + 144
        0x000195d2:    f6402980    @..)    MOVW     r9,#0xa80
        0x000195d6:    f2c4090c    ....    MOVT     r9,#0x400c
        0x000195da:    f1a90104    ....    SUB      r1,r9,#4
        0x000195de:    2064        d       MOVS     r0,#0x64
        0x000195e0:    2201        ."      MOVS     r2,#1
        0x000195e2:    2301        .#      MOVS     r3,#1
        0x000195e4:    f7fffa7a    ..z.    BL       am_hal_delay_us_status_change ; 0x18adc
        0x000195e8:    4604        .F      MOV      r4,r0
        0x000195ea:    2800        .(      CMP      r0,#0
        0x000195ec:    d1d6        ..      BNE      0x1959c ; am_hal_pwrctrl_periph_disable + 12
        0x000195ee:    f5066173    ..sa    ADD      r1,r6,#0xf30
        0x000195f2:    2064        d       MOVS     r0,#0x64
        0x000195f4:    2201        ."      MOVS     r2,#1
        0x000195f6:    2301        .#      MOVS     r3,#1
        0x000195f8:    f7fffa70    ..p.    BL       am_hal_delay_us_status_change ; 0x18adc
        0x000195fc:    4604        .F      MOV      r4,r0
        0x000195fe:    2800        .(      CMP      r0,#0
        0x00019600:    d1cc        ..      BNE      0x1959c ; am_hal_pwrctrl_periph_disable + 12
        0x00019602:    f8d90000    ....    LDR      r0,[r9,#0]
        0x00019606:    f0400001    @...    ORR      r0,r0,#1
        0x0001960a:    f8c90000    ....    STR      r0,[r9,#0]
        0x0001960e:    f2400078    @.x.    MOVW     r0,#0x78
        0x00019612:    f2c10000    ....    MOVT     r0,#0x1000
        0x00019616:    68c1        .h      LDR      r1,[r0,#0xc]
        0x00019618:    b111        ..      CBZ      r1,0x19620 ; am_hal_pwrctrl_periph_disable + 144
        0x0001961a:    2000        .       MOVS     r0,#0
        0x0001961c:    f000fa6e    ..n.    BL       crypto_boost_trims ; 0x19afc
        0x00019620:    e9d56502    ...e    LDRD     r6,r5,[r5,#8]
        0x00019624:    f7fffba2    ....    BL       am_hal_interrupt_master_disable ; 0x18d6c
        0x00019628:    9002        ..      STR      r0,[sp,#8]
        0x0001962a:    f8d80000    ....    LDR      r0,[r8,#0]
        0x0001962e:    43b8        .C      BICS     r0,r0,r7
        0x00019630:    f8c80000    ....    STR      r0,[r8,#0]
        0x00019634:    9802        ..      LDR      r0,[sp,#8]
        0x00019636:    f7fffba1    ....    BL       am_hal_interrupt_master_set ; 0x18d7c
        0x0001963a:    2400        .$      MOVS     r4,#0
        0x0001963c:    2005        .       MOVS     r0,#5
        0x0001963e:    4631        1F      MOV      r1,r6
        0x00019640:    462a        *F      MOV      r2,r5
        0x00019642:    462b        +F      MOV      r3,r5
        0x00019644:    9400        ..      STR      r4,[sp,#0]
        0x00019646:    f7fffa75    ..u.    BL       am_hal_delay_us_status_check ; 0x18b34
        0x0001964a:    2800        .(      CMP      r0,#0
        0x0001964c:    d0a6        ..      BEQ      0x1959c ; am_hal_pwrctrl_periph_disable + 12
        0x0001964e:    f5b57ff0    ....    CMP      r5,#0x1e0
        0x00019652:    f04f0400    O...    MOV      r4,#0
        0x00019656:    db0d        ..      BLT      0x19674 ; am_hal_pwrctrl_periph_disable + 228
        0x00019658:    d01a        ..      BEQ      0x19690 ; am_hal_pwrctrl_periph_disable + 256
        0x0001965a:    f5b53fe0    ...?    CMP      r5,#0x1c000
        0x0001965e:    d01d        ..      BEQ      0x1969c ; am_hal_pwrctrl_periph_disable + 268
        0x00019660:    f5b55ff0    ..._    CMP      r5,#0x1e00
        0x00019664:    d19a        ..      BNE      0x1959c ; am_hal_pwrctrl_periph_disable + 12
        0x00019666:    f8d80000    ....    LDR      r0,[r8,#0]
        0x0001966a:    f4105ff0    ..._    TST      r0,#0x1e00
        0x0001966e:    d11a        ..      BNE      0x196a6 ; am_hal_pwrctrl_periph_disable + 278
        0x00019670:    e01b        ..      B        0x196aa ; am_hal_pwrctrl_periph_disable + 282
        0x00019672:    bf00        ..      NOP      
        0x00019674:    2d1e        .-      CMP      r5,#0x1e
        0x00019676:    d01d        ..      BEQ      0x196b4 ; am_hal_pwrctrl_periph_disable + 292
        0x00019678:    2dff        .-      CMP      r5,#0xff
        0x0001967a:    f47faf8f    ....    BNE.W    0x1959c ; am_hal_pwrctrl_periph_disable + 12
        0x0001967e:    f8d80000    ....    LDR      r0,[r8,#0]
        0x00019682:    0600        ..      LSLS     r0,r0,#24
        0x00019684:    d10f        ..      BNE      0x196a6 ; am_hal_pwrctrl_periph_disable + 278
        0x00019686:    2400        .$      MOVS     r4,#0
        0x00019688:    4620         F      MOV      r0,r4
        0x0001968a:    b003        ..      ADD      sp,sp,#0xc
        0x0001968c:    e8bd83f0    ....    POP      {r4-r9,pc}
        0x00019690:    f8d80000    ....    LDR      r0,[r8,#0]
        0x00019694:    f4107ff0    ....    TST      r0,#0x1e0
        0x00019698:    d105        ..      BNE      0x196a6 ; am_hal_pwrctrl_periph_disable + 278
        0x0001969a:    e006        ..      B        0x196aa ; am_hal_pwrctrl_periph_disable + 282
        0x0001969c:    f8d80000    ....    LDR      r0,[r8,#0]
        0x000196a0:    f4103fe0    ...?    TST      r0,#0x1c000
        0x000196a4:    d001        ..      BEQ      0x196aa ; am_hal_pwrctrl_periph_disable + 282
        0x000196a6:    f8d80000    ....    LDR      r0,[r8,#0]
        0x000196aa:    2400        .$      MOVS     r4,#0
        0x000196ac:    4620         F      MOV      r0,r4
        0x000196ae:    b003        ..      ADD      sp,sp,#0xc
        0x000196b0:    e8bd83f0    ....    POP      {r4-r9,pc}
        0x000196b4:    f8d80000    ....    LDR      r0,[r8,#0]
        0x000196b8:    f0100f1e    ....    TST      r0,#0x1e
        0x000196bc:    d1f3        ..      BNE      0x196a6 ; am_hal_pwrctrl_periph_disable + 278
        0x000196be:    e7f4        ..      B        0x196aa ; am_hal_pwrctrl_periph_disable + 282
    am_hal_pwrctrl_sram_config
        0x000196c0:    b570        p.      PUSH     {r4-r6,lr}
        0x000196c2:    b082        ..      SUB      sp,sp,#8
        0x000196c4:    f241062c    A.,.    MOV      r6,#0x102c
        0x000196c8:    f2c40602    ....    MOVT     r6,#0x4002
        0x000196cc:    4604        .F      MOV      r4,r0
        0x000196ce:    7800        .x      LDRB     r0,[r0,#0]
        0x000196d0:    f8561c08    V...    LDR      r1,[r6,#-8]
        0x000196d4:    2501        .%      MOVS     r5,#1
        0x000196d6:    f3600101    `...    BFI      r1,r0,#0,#2
        0x000196da:    f8461c08    F...    STR      r1,[r6,#-8]
        0x000196de:    f8563c08    V..<    LDR      r3,[r6,#-8]
        0x000196e2:    1f31        1.      SUBS     r1,r6,#4
        0x000196e4:    2005        .       MOVS     r0,#5
        0x000196e6:    2203        ."      MOVS     r2,#3
        0x000196e8:    9500        ..      STR      r5,[sp,#0]
        0x000196ea:    f7fffa23    ..#.    BL       am_hal_delay_us_status_check ; 0x18b34
        0x000196ee:    b108        ..      CBZ      r0,0x196f4 ; am_hal_pwrctrl_sram_config + 52
        0x000196f0:    b002        ..      ADD      sp,sp,#8
        0x000196f2:    bd70        p.      POP      {r4-r6,pc}
        0x000196f4:    f8560c04    V...    LDR      r0,[r6,#-4]
        0x000196f8:    f8561c08    V...    LDR      r1,[r6,#-8]
        0x000196fc:    4048        H@      EORS     r0,r0,r1
        0x000196fe:    0780        ..      LSLS     r0,r0,#30
        0x00019700:    d002        ..      BEQ      0x19708 ; am_hal_pwrctrl_sram_config + 72
        0x00019702:    2001        .       MOVS     r0,#1
        0x00019704:    b002        ..      ADD      sp,sp,#8
        0x00019706:    bd70        p.      POP      {r4-r6,pc}
        0x00019708:    7860        `x      LDRB     r0,[r4,#1]
        0x0001970a:    6831        1h      LDR      r1,[r6,#0]
        0x0001970c:    f3600183    `...    BFI      r1,r0,#2,#2
        0x00019710:    6031        1`      STR      r1,[r6,#0]
        0x00019712:    78a0        .x      LDRB     r0,[r4,#2]
        0x00019714:    6831        1h      LDR      r1,[r6,#0]
        0x00019716:    f0000003    ....    AND      r0,r0,#3
        0x0001971a:    f02101c0    !...    BIC      r1,r1,#0xc0
        0x0001971e:    ea411080    A...    ORR      r0,r1,r0,LSL #6
        0x00019722:    6030        0`      STR      r0,[r6,#0]
        0x00019724:    78e0        .x      LDRB     r0,[r4,#3]
        0x00019726:    6831        1h      LDR      r1,[r6,#0]
        0x00019728:    f0000003    ....    AND      r0,r0,#3
        0x0001972c:    f4217140    !.@q    BIC      r1,r1,#0x300
        0x00019730:    ea412000    A..     ORR      r0,r1,r0,LSL #8
        0x00019734:    6030        0`      STR      r0,[r6,#0]
        0x00019736:    7920         y      LDRB     r0,[r4,#4]
        0x00019738:    6831        1h      LDR      r1,[r6,#0]
        0x0001973a:    f3601105    `...    BFI      r1,r0,#4,#2
        0x0001973e:    6031        1`      STR      r1,[r6,#0]
        0x00019740:    7960        `y      LDRB     r0,[r4,#5]
        0x00019742:    2803        .(      CMP      r0,#3
        0x00019744:    d808        ..      BHI      0x19758 ; am_hal_pwrctrl_sram_config + 152
        0x00019746:    e8dff000    ....    TBB      [pc,r0]
    $d.7
        0x0001974a:    0b03        ..      DCW    2819
        0x0001974c:    bf00170f    ....    DCD    3204454159
    $t.8
        0x00019750:    6830        0h      LDR      r0,[r6,#0]
        0x00019752:    f0400003    @...    ORR      r0,r0,#3
        0x00019756:    6030        0`      STR      r0,[r6,#0]
        0x00019758:    2000        .       MOVS     r0,#0
        0x0001975a:    b002        ..      ADD      sp,sp,#8
        0x0001975c:    bd70        p.      POP      {r4-r6,pc}
        0x0001975e:    bf00        ..      NOP      
        0x00019760:    6830        0h      LDR      r0,[r6,#0]
        0x00019762:    2102        .!      MOVS     r1,#2
        0x00019764:    e002        ..      B        0x1976c ; am_hal_pwrctrl_sram_config + 172
        0x00019766:    bf00        ..      NOP      
        0x00019768:    6830        0h      LDR      r0,[r6,#0]
        0x0001976a:    2101        .!      MOVS     r1,#1
        0x0001976c:    f3610001    a...    BFI      r0,r1,#0,#2
        0x00019770:    6030        0`      STR      r0,[r6,#0]
        0x00019772:    2000        .       MOVS     r0,#0
        0x00019774:    b002        ..      ADD      sp,sp,#8
        0x00019776:    bd70        p.      POP      {r4-r6,pc}
        0x00019778:    6830        0h      LDR      r0,[r6,#0]
        0x0001977a:    f0200003     ...    BIC      r0,r0,#3
        0x0001977e:    6030        0`      STR      r0,[r6,#0]
        0x00019780:    2000        .       MOVS     r0,#0
        0x00019782:    b002        ..      ADD      sp,sp,#8
        0x00019784:    bd70        p.      POP      {r4-r6,pc}
        0x00019786:    0000        ..      MOVS     r0,r0
    am_hal_rtc_osc_disable
        0x00019788:    f6440100    D...    MOVW     r1,#0x4800
        0x0001978c:    f2c40100    ....    MOVT     r1,#0x4000
        0x00019790:    6808        .h      LDR      r0,[r1,#0]
        0x00019792:    f0400210    @...    ORR      r2,r0,#0x10
        0x00019796:    2000        .       MOVS     r0,#0
        0x00019798:    600a        .`      STR      r2,[r1,#0]
        0x0001979a:    4770        pG      BX       lr
    am_hal_sysctrl_sleep
        0x0001979c:    b570        p.      PUSH     {r4-r6,lr}
        0x0001979e:    b082        ..      SUB      sp,sp,#8
        0x000197a0:    a901        ..      ADD      r1,sp,#4
        0x000197a2:    f1b15f80    ..._    CMP      r1,#0x10000000
        0x000197a6:    d32f        /.      BCC      0x19808 ; am_hal_sysctrl_sleep + 108
        0x000197a8:    4604        .F      MOV      r4,r0
        0x000197aa:    2000        .       MOVS     r0,#0
        0x000197ac:    f2c10006    ....    MOVT     r0,#0x1006
        0x000197b0:    4281        .B      CMP      r1,r0
        0x000197b2:    d229        ).      BCS      0x19808 ; am_hal_sysctrl_sleep + 108
        0x000197b4:    f2410608    A...    MOV      r6,#0x1008
        0x000197b8:    f2c40602    ....    MOVT     r6,#0x4002
        0x000197bc:    f7fffad6    ....    BL       am_hal_interrupt_master_disable ; 0x18d6c
        0x000197c0:    9000        ..      STR      r0,[sp,#0]
        0x000197c2:    f8d60100    ....    LDR      r0,[r6,#0x100]
        0x000197c6:    b30c        ..      CBZ      r4,0x1980c ; am_hal_sysctrl_sleep + 112
        0x000197c8:    f2403480    @..4    MOVW     r4,#0x380
        0x000197cc:    f64f61d0    O..a    MOV      r1,#0xfed0
        0x000197d0:    f2c40402    ....    MOVT     r4,#0x4002
        0x000197d4:    f6cf71ff    ...q    MOVT     r1,#0xffff
        0x000197d8:    5861        aX      LDR      r1,[r4,r1]
        0x000197da:    07c9        ..      LSLS     r1,r1,#31
        0x000197dc:    d116        ..      BNE      0x1980c ; am_hal_sysctrl_sleep + 112
        0x000197de:    f0000030    ..0.    AND      r0,r0,#0x30
        0x000197e2:    f64e5510    N..U    MOV      r5,#0xed10
        0x000197e6:    2830        0(      CMP      r0,#0x30
        0x000197e8:    f2ce0500    ....    MOVT     r5,#0xe000
        0x000197ec:    d105        ..      BNE      0x197fa ; am_hal_sysctrl_sleep + 94
        0x000197ee:    68b0        .h      LDR      r0,[r6,#8]
        0x000197f0:    0540        @.      LSLS     r0,r0,#21
        0x000197f2:    d402        ..      BMI      0x197fa ; am_hal_sysctrl_sleep + 94
        0x000197f4:    6830        0h      LDR      r0,[r6,#0]
        0x000197f6:    01c0        ..      LSLS     r0,r0,#7
        0x000197f8:    d01c        ..      BEQ      0x19834 ; am_hal_sysctrl_sleep + 152
        0x000197fa:    6828        (h      LDR      r0,[r5,#0]
        0x000197fc:    2100        .!      MOVS     r1,#0
        0x000197fe:    f0400004    @...    ORR      r0,r0,#4
        0x00019802:    6028        (`      STR      r0,[r5,#0]
        0x00019804:    2001        .       MOVS     r0,#1
        0x00019806:    e00b        ..      B        0x19820 ; am_hal_sysctrl_sleep + 132
        0x00019808:    e7fe        ..      B        0x19808 ; am_hal_sysctrl_sleep + 108
        0x0001980a:    bf00        ..      NOP      
        0x0001980c:    f64e5010    N..P    MOV      r0,#0xed10
        0x00019810:    f2ce0000    ....    MOVT     r0,#0xe000
        0x00019814:    6801        .h      LDR      r1,[r0,#0]
        0x00019816:    f0210104    !...    BIC      r1,r1,#4
        0x0001981a:    6001        .`      STR      r1,[r0,#0]
        0x0001981c:    2001        .       MOVS     r0,#1
        0x0001981e:    2100        .!      MOVS     r1,#0
        0x00019820:    f7fff8b4    ....    BL       am_hal_daxi_control ; 0x1898c
        0x00019824:    bf30        0.      WFI      
        0x00019826:    f3bf8f6f    ..o.    ISB      
        0x0001982a:    9800        ..      LDR      r0,[sp,#0]
        0x0001982c:    f7fffaa6    ....    BL       am_hal_interrupt_master_set ; 0x18d7c
        0x00019830:    b002        ..      ADD      sp,sp,#8
        0x00019832:    bd70        p.      POP      {r4-r6,pc}
        0x00019834:    f2400004    @...    MOVW     r0,#4
        0x00019838:    f2c10000    ....    MOVT     r0,#0x1000
        0x0001983c:    6800        .h      LDR      r0,[r0,#0]
        0x0001983e:    f8541c10    T...    LDR      r1,[r4,#-0x10]
        0x00019842:    f3605119    `..Q    BFI      r1,r0,#20,#6
        0x00019846:    f8441c10    D...    STR      r1,[r4,#-0x10]
        0x0001984a:    6820         h      LDR      r0,[r4,#0]
        0x0001984c:    f0204000     ..@    BIC      r0,r0,#0x80000000
        0x00019850:    6020         `      STR      r0,[r4,#0]
        0x00019852:    6820         h      LDR      r0,[r4,#0]
        0x00019854:    f0204080     ..@    BIC      r0,r0,#0x40000000
        0x00019858:    6020         `      STR      r0,[r4,#0]
        0x0001985a:    2000        .       MOVS     r0,#0
        0x0001985c:    f000f938    ..8.    BL       buck_ldo_update_override ; 0x19ad0
        0x00019860:    6828        (h      LDR      r0,[r5,#0]
        0x00019862:    2100        .!      MOVS     r1,#0
        0x00019864:    f0400004    @...    ORR      r0,r0,#4
        0x00019868:    6028        (`      STR      r0,[r5,#0]
        0x0001986a:    2001        .       MOVS     r0,#1
        0x0001986c:    f7fff88e    ....    BL       am_hal_daxi_control ; 0x1898c
        0x00019870:    bf30        0.      WFI      
        0x00019872:    2001        .       MOVS     r0,#1
        0x00019874:    f3bf8f6f    ..o.    ISB      
        0x00019878:    f000f92a    ..*.    BL       buck_ldo_update_override ; 0x19ad0
        0x0001987c:    6820         h      LDR      r0,[r4,#0]
        0x0001987e:    f0404000    @..@    ORR      r0,r0,#0x80000000
        0x00019882:    6020         `      STR      r0,[r4,#0]
        0x00019884:    6820         h      LDR      r0,[r4,#0]
        0x00019886:    f0404080    @..@    ORR      r0,r0,#0x40000000
        0x0001988a:    6020         `      STR      r0,[r4,#0]
        0x0001988c:    f8540c10    T...    LDR      r0,[r4,#-0x10]
        0x00019890:    f020707c     .|p    BIC      r0,r0,#0x3f00000
        0x00019894:    f8440c10    D...    STR      r0,[r4,#-0x10]
        0x00019898:    9800        ..      LDR      r0,[sp,#0]
        0x0001989a:    f7fffa6f    ..o.    BL       am_hal_interrupt_master_set ; 0x18d7c
        0x0001989e:    b002        ..      ADD      sp,sp,#8
        0x000198a0:    bd70        p.      POP      {r4-r6,pc}
        0x000198a2:    0000        ..      MOVS     r0,r0
    am_hal_timer_clear
        0x000198a4:    b510        ..      PUSH     {r4,lr}
        0x000198a6:    b082        ..      SUB      sp,sp,#8
        0x000198a8:    4604        .F      MOV      r4,r0
        0x000198aa:    f7fffa5f    .._.    BL       am_hal_interrupt_master_disable ; 0x18d6c
        0x000198ae:    f2482100    H..!    MOVW     r1,#0x8200
        0x000198b2:    9001        ..      STR      r0,[sp,#4]
        0x000198b4:    0160        `.      LSLS     r0,r4,#5
        0x000198b6:    f2c40100    ....    MOVT     r1,#0x4000
        0x000198ba:    580a        .X      LDR      r2,[r1,r0]
        0x000198bc:    f0220201    "...    BIC      r2,r2,#1
        0x000198c0:    500a        .P      STR      r2,[r1,r0]
        0x000198c2:    580a        .X      LDR      r2,[r1,r0]
        0x000198c4:    f0420202    B...    ORR      r2,r2,#2
        0x000198c8:    500a        .P      STR      r2,[r1,r0]
        0x000198ca:    580a        .X      LDR      r2,[r1,r0]
        0x000198cc:    f0220202    "...    BIC      r2,r2,#2
        0x000198d0:    500a        .P      STR      r2,[r1,r0]
        0x000198d2:    580a        .X      LDR      r2,[r1,r0]
        0x000198d4:    f0420201    B...    ORR      r2,r2,#1
        0x000198d8:    500a        .P      STR      r2,[r1,r0]
        0x000198da:    9801        ..      LDR      r0,[sp,#4]
        0x000198dc:    f7fffa4e    ..N.    BL       am_hal_interrupt_master_set ; 0x18d7c
        0x000198e0:    2000        .       MOVS     r0,#0
        0x000198e2:    b002        ..      ADD      sp,sp,#8
        0x000198e4:    bd10        ..      POP      {r4,pc}
        0x000198e6:    0000        ..      MOVS     r0,r0
    am_hal_timer_config
        0x000198e8:    f000b98e    ....    B.W      internal_timer_config ; 0x19c08
    am_hal_timer_default_config_set
        0x000198ec:    4601        .F      MOV      r1,r0
        0x000198ee:    f2401001    @...    MOV      r0,#0x101
        0x000198f2:    8008        ..      STRH     r0,[r1,#0]
        0x000198f4:    f04f7080    O..p    MOV      r0,#0x1000000
        0x000198f8:    f04f32ff    O..2    MOV      r2,#0xffffffff
        0x000198fc:    f8c10002    ....    STR      r0,[r1,#2]
        0x00019900:    2000        .       MOVS     r0,#0
        0x00019902:    e9c10202    ....    STRD     r0,r2,[r1,#8]
        0x00019906:    2000        .       MOVS     r0,#0
        0x00019908:    610a        .a      STR      r2,[r1,#0x10]
        0x0001990a:    4770        pG      BX       lr
    am_hal_timer_enable
        0x0001990c:    b510        ..      PUSH     {r4,lr}
        0x0001990e:    b082        ..      SUB      sp,sp,#8
        0x00019910:    4604        .F      MOV      r4,r0
        0x00019912:    f7fffa2b    ..+.    BL       am_hal_interrupt_master_disable ; 0x18d6c
        0x00019916:    f2480110    H...    MOV      r1,#0x8010
        0x0001991a:    9001        ..      STR      r0,[sp,#4]
        0x0001991c:    f2c40100    ....    MOVT     r1,#0x4000
        0x00019920:    2001        .       MOVS     r0,#1
        0x00019922:    680a        .h      LDR      r2,[r1,#0]
        0x00019924:    40a0        .@      LSLS     r0,r0,r4
        0x00019926:    4310        .C      ORRS     r0,r0,r2
        0x00019928:    6008        .`      STR      r0,[r1,#0]
        0x0001992a:    eb011044    ..D.    ADD      r0,r1,r4,LSL #5
        0x0001992e:    f8d011f0    ....    LDR      r1,[r0,#0x1f0]
        0x00019932:    f0410102    A...    ORR      r1,r1,#2
        0x00019936:    f8c011f0    ....    STR      r1,[r0,#0x1f0]
        0x0001993a:    f8d011f0    ....    LDR      r1,[r0,#0x1f0]
        0x0001993e:    f0210102    !...    BIC      r1,r1,#2
        0x00019942:    f8c011f0    ....    STR      r1,[r0,#0x1f0]
        0x00019946:    f8d011f0    ....    LDR      r1,[r0,#0x1f0]
        0x0001994a:    f0410101    A...    ORR      r1,r1,#1
        0x0001994e:    f8c011f0    ....    STR      r1,[r0,#0x1f0]
        0x00019952:    9801        ..      LDR      r0,[sp,#4]
        0x00019954:    f7fffa12    ....    BL       am_hal_interrupt_master_set ; 0x18d7c
        0x00019958:    2000        .       MOVS     r0,#0
        0x0001995a:    b002        ..      ADD      sp,sp,#8
        0x0001995c:    bd10        ..      POP      {r4,pc}
        0x0001995e:    0000        ..      MOVS     r0,r0
    am_hal_timer_interrupt_clear
        0x00019960:    f2480268    H.h.    MOV      r2,#0x8068
        0x00019964:    4601        .F      MOV      r1,r0
        0x00019966:    f2c40200    ....    MOVT     r2,#0x4000
        0x0001996a:    2000        .       MOVS     r0,#0
        0x0001996c:    6011        .`      STR      r1,[r2,#0]
        0x0001996e:    4770        pG      BX       lr
    am_hal_timer_interrupt_enable
        0x00019970:    f2480160    H.`.    MOV      r1,#0x8060
        0x00019974:    f2c40100    ....    MOVT     r1,#0x4000
        0x00019978:    680a        .h      LDR      r2,[r1,#0]
        0x0001997a:    4302        .C      ORRS     r2,r2,r0
        0x0001997c:    2000        .       MOVS     r0,#0
        0x0001997e:    600a        .`      STR      r2,[r1,#0]
        0x00019980:    4770        pG      BX       lr
        0x00019982:    0000        ..      MOVS     r0,r0
    am_timer00_isr
        0x00019984:    b580        ..      PUSH     {r7,lr}
        0x00019986:    2002        .       MOVS     r0,#2
        0x00019988:    f7ffffea    ....    BL       am_hal_timer_interrupt_clear ; 0x19960
        0x0001998c:    2000        .       MOVS     r0,#0
        0x0001998e:    f7ffff89    ....    BL       am_hal_timer_clear ; 0x198a4
        0x00019992:    f24020c4    @..     MOVW     r0,#0x2c4
        0x00019996:    f2c10000    ....    MOVT     r0,#0x1000
        0x0001999a:    6800        .h      LDR      r0,[r0,#0]
        0x0001999c:    b138        8.      CBZ      r0,0x199ae ; am_timer00_isr + 42
        0x0001999e:    e7ff        ..      B        0x199a0 ; am_timer00_isr + 28
        0x000199a0:    f24020c4    @..     MOVW     r0,#0x2c4
        0x000199a4:    f2c10000    ....    MOVT     r0,#0x1000
        0x000199a8:    6800        .h      LDR      r0,[r0,#0]
        0x000199aa:    4780        .G      BLX      r0
        0x000199ac:    e7ff        ..      B        0x199ae ; am_timer00_isr + 42
        0x000199ae:    bd80        ..      POP      {r7,pc}
    am_util_delay_us
        0x000199b0:    b580        ..      PUSH     {r7,lr}
        0x000199b2:    b082        ..      SUB      sp,sp,#8
        0x000199b4:    9001        ..      STR      r0,[sp,#4]
        0x000199b6:    9801        ..      LDR      r0,[sp,#4]
        0x000199b8:    f7fff874    ..t.    BL       am_hal_delay_us ; 0x18aa4
        0x000199bc:    b002        ..      ADD      sp,sp,#8
        0x000199be:    bd80        ..      POP      {r7,pc}
    am_util_faultisr_collect_data
        0x000199c0:    b580        ..      PUSH     {r7,lr}
        0x000199c2:    b096        ..      SUB      sp,sp,#0x58
        0x000199c4:    9015        ..      STR      r0,[sp,#0x54]
        0x000199c6:    2000        .       MOVS     r0,#0
        0x000199c8:    9008        ..      STR      r0,[sp,#0x20]
        0x000199ca:    9007        ..      STR      r0,[sp,#0x1c]
        0x000199cc:    9006        ..      STR      r0,[sp,#0x18]
        0x000199ce:    9005        ..      STR      r0,[sp,#0x14]
        0x000199d0:    9004        ..      STR      r0,[sp,#0x10]
        0x000199d2:    9003        ..      STR      r0,[sp,#0xc]
        0x000199d4:    9002        ..      STR      r0,[sp,#8]
        0x000199d6:    9802        ..      LDR      r0,[sp,#8]
        0x000199d8:    9013        ..      STR      r0,[sp,#0x4c]
        0x000199da:    f64e5028    N.(P    MOV      r0,#0xed28
        0x000199de:    f2ce0000    ....    MOVT     r0,#0xe000
        0x000199e2:    6800        .h      LDR      r0,[r0,#0]
        0x000199e4:    9013        ..      STR      r0,[sp,#0x4c]
        0x000199e6:    9813        ..      LDR      r0,[sp,#0x4c]
        0x000199e8:    f88d0050    ..P.    STRB     r0,[sp,#0x50]
        0x000199ec:    9813        ..      LDR      r0,[sp,#0x4c]
        0x000199ee:    0a00        ..      LSRS     r0,r0,#8
        0x000199f0:    f88d0051    ..Q.    STRB     r0,[sp,#0x51]
        0x000199f4:    9813        ..      LDR      r0,[sp,#0x4c]
        0x000199f6:    0c00        ..      LSRS     r0,r0,#16
        0x000199f8:    f8ad0052    ..R.    STRH     r0,[sp,#0x52]
        0x000199fc:    f64e5038    N.8P    MOV      r0,#0xed38
        0x00019a00:    f2ce0000    ....    MOVT     r0,#0xe000
        0x00019a04:    6800        .h      LDR      r0,[r0,#0]
        0x00019a06:    9012        ..      STR      r0,[sp,#0x48]
        0x00019a08:    9815        ..      LDR      r0,[sp,#0x54]
        0x00019a0a:    f000f845    ..E.    BL       am_valid_sp ; 0x19a98
        0x00019a0e:    b3d8        ..      CBZ      r0,0x19a88 ; am_util_faultisr_collect_data + 200
        0x00019a10:    e7ff        ..      B        0x19a12 ; am_util_faultisr_collect_data + 82
        0x00019a12:    f89d0051    ..Q.    LDRB     r0,[sp,#0x51]
        0x00019a16:    0780        ..      LSLS     r0,r0,#30
        0x00019a18:    2800        .(      CMP      r0,#0
        0x00019a1a:    d506        ..      BPL      0x19a2a ; am_util_faultisr_collect_data + 106
        0x00019a1c:    e7ff        ..      B        0x19a1e ; am_util_faultisr_collect_data + 94
        0x00019a1e:    9915        ..      LDR      r1,[sp,#0x54]
        0x00019a20:    2006        .       MOVS     r0,#6
        0x00019a22:    f7fefd7d    ..}.    BL       am_getStackedReg ; 0x18520
        0x00019a26:    9001        ..      STR      r0,[sp,#4]
        0x00019a28:    e003        ..      B        0x19a32 ; am_util_faultisr_collect_data + 114
        0x00019a2a:    f04f30ff    O..0    MOV      r0,#0xffffffff
        0x00019a2e:    9001        ..      STR      r0,[sp,#4]
        0x00019a30:    e7ff        ..      B        0x19a32 ; am_util_faultisr_collect_data + 114
        0x00019a32:    9801        ..      LDR      r0,[sp,#4]
        0x00019a34:    9011        ..      STR      r0,[sp,#0x44]
        0x00019a36:    9915        ..      LDR      r1,[sp,#0x54]
        0x00019a38:    2000        .       MOVS     r0,#0
        0x00019a3a:    f7fefd71    ..q.    BL       am_getStackedReg ; 0x18520
        0x00019a3e:    9009        ..      STR      r0,[sp,#0x24]
        0x00019a40:    9915        ..      LDR      r1,[sp,#0x54]
        0x00019a42:    2001        .       MOVS     r0,#1
        0x00019a44:    f7fefd6c    ..l.    BL       am_getStackedReg ; 0x18520
        0x00019a48:    900a        ..      STR      r0,[sp,#0x28]
        0x00019a4a:    9915        ..      LDR      r1,[sp,#0x54]
        0x00019a4c:    2002        .       MOVS     r0,#2
        0x00019a4e:    f7fefd67    ..g.    BL       am_getStackedReg ; 0x18520
        0x00019a52:    900b        ..      STR      r0,[sp,#0x2c]
        0x00019a54:    9915        ..      LDR      r1,[sp,#0x54]
        0x00019a56:    2003        .       MOVS     r0,#3
        0x00019a58:    f7fefd62    ..b.    BL       am_getStackedReg ; 0x18520
        0x00019a5c:    900c        ..      STR      r0,[sp,#0x30]
        0x00019a5e:    9915        ..      LDR      r1,[sp,#0x54]
        0x00019a60:    2004        .       MOVS     r0,#4
        0x00019a62:    f7fefd5d    ..].    BL       am_getStackedReg ; 0x18520
        0x00019a66:    900d        ..      STR      r0,[sp,#0x34]
        0x00019a68:    9915        ..      LDR      r1,[sp,#0x54]
        0x00019a6a:    2005        .       MOVS     r0,#5
        0x00019a6c:    f7fefd58    ..X.    BL       am_getStackedReg ; 0x18520
        0x00019a70:    900e        ..      STR      r0,[sp,#0x38]
        0x00019a72:    9915        ..      LDR      r1,[sp,#0x54]
        0x00019a74:    2006        .       MOVS     r0,#6
        0x00019a76:    f7fefd53    ..S.    BL       am_getStackedReg ; 0x18520
        0x00019a7a:    900f        ..      STR      r0,[sp,#0x3c]
        0x00019a7c:    9915        ..      LDR      r1,[sp,#0x54]
        0x00019a7e:    2007        .       MOVS     r0,#7
        0x00019a80:    f7fefd4e    ..N.    BL       am_getStackedReg ; 0x18520
        0x00019a84:    9010        ..      STR      r0,[sp,#0x40]
        0x00019a86:    e7ff        ..      B        0x19a88 ; am_util_faultisr_collect_data + 200
        0x00019a88:    a803        ..      ADD      r0,sp,#0xc
        0x00019a8a:    f7fff89f    ....    BL       am_hal_fault_status_get ; 0x18bcc
        0x00019a8e:    2000        .       MOVS     r0,#0
        0x00019a90:    9002        ..      STR      r0,[sp,#8]
        0x00019a92:    e7ff        ..      B        0x19a94 ; am_util_faultisr_collect_data + 212
        0x00019a94:    e7fe        ..      B        0x19a94 ; am_util_faultisr_collect_data + 212
        0x00019a96:    0000        ..      MOVS     r0,r0
    am_valid_sp
        0x00019a98:    b082        ..      SUB      sp,sp,#8
        0x00019a9a:    9000        ..      STR      r0,[sp,#0]
        0x00019a9c:    9800        ..      LDR      r0,[sp,#0]
        0x00019a9e:    f1b05f80    ..._    CMP      r0,#0x10000000
        0x00019aa2:    d30c        ..      BCC      0x19abe ; am_valid_sp + 38
        0x00019aa4:    e7ff        ..      B        0x19aa6 ; am_valid_sp + 14
        0x00019aa6:    9800        ..      LDR      r0,[sp,#0]
        0x00019aa8:    f64f71ff    O..q    MOV      r1,#0xffff
        0x00019aac:    f2c1012b    ..+.    MOVT     r1,#0x102b
        0x00019ab0:    4288        .B      CMP      r0,r1
        0x00019ab2:    d804        ..      BHI      0x19abe ; am_valid_sp + 38
        0x00019ab4:    e7ff        ..      B        0x19ab6 ; am_valid_sp + 30
        0x00019ab6:    2001        .       MOVS     r0,#1
        0x00019ab8:    f88d0007    ....    STRB     r0,[sp,#7]
        0x00019abc:    e003        ..      B        0x19ac6 ; am_valid_sp + 46
        0x00019abe:    2000        .       MOVS     r0,#0
        0x00019ac0:    f88d0007    ....    STRB     r0,[sp,#7]
        0x00019ac4:    e7ff        ..      B        0x19ac6 ; am_valid_sp + 46
        0x00019ac6:    f89d0007    ....    LDRB     r0,[sp,#7]
        0x00019aca:    b002        ..      ADD      sp,sp,#8
        0x00019acc:    4770        pG      BX       lr
        0x00019ace:    0000        ..      MOVS     r0,r0
    buck_ldo_update_override
        0x00019ad0:    2160        `!      MOVS     r1,#0x60
        0x00019ad2:    f2c40102    ....    MOVT     r1,#0x4002
        0x00019ad6:    680a        .h      LDR      r2,[r1,#0]
        0x00019ad8:    f4223280    "..2    BIC      r2,r2,#0x10000
        0x00019adc:    f3604210    `..B    BFI      r2,r0,#16,#1
        0x00019ae0:    600a        .`      STR      r2,[r1,#0]
        0x00019ae2:    680a        .h      LDR      r2,[r1,#0]
        0x00019ae4:    f0220201    "...    BIC      r2,r2,#1
        0x00019ae8:    4402        .D      ADD      r2,r2,r0
        0x00019aea:    600a        .`      STR      r2,[r1,#0]
        0x00019aec:    680a        .h      LDR      r2,[r1,#0]
        0x00019aee:    f0220220    ". .    BIC      r2,r2,#0x20
        0x00019af2:    f3601245    `.E.    BFI      r2,r0,#5,#1
        0x00019af6:    600a        .`      STR      r2,[r1,#0]
        0x00019af8:    4770        pG      BX       lr
        0x00019afa:    0000        ..      MOVS     r0,r0
    crypto_boost_trims
        0x00019afc:    e92d43f0    -..C    PUSH     {r4-r9,lr}
        0x00019b00:    b081        ..      SUB      sp,sp,#4
        0x00019b02:    f2400978    @.x.    MOVW     r9,#0x78
        0x00019b06:    f2c10900    ....    MOVT     r9,#0x1000
        0x00019b0a:    f8992000    ...     LDRB     r2,[r9,#0]
        0x00019b0e:    4604        .F      MOV      r4,r0
        0x00019b10:    fab2f082    ....    CLZ      r0,r2
        0x00019b14:    0940        @.      LSRS     r0,r0,#5
        0x00019b16:    4060        `@      EORS     r0,r0,r4
        0x00019b18:    bf1c        ..      ITT      NE
        0x00019b1a:    b001        ..      ADDNE    sp,sp,#4
        0x00019b1c:    e8bd83f0    ....    POPNE    {r4-r9,pc}
        0x00019b20:    f2400888    @...    MOVW     r8,#0x88
        0x00019b24:    460d        .F      MOV      r5,r1
        0x00019b26:    f2c40802    ....    MOVT     r8,#0x4002
        0x00019b2a:    f7fff91f    ....    BL       am_hal_interrupt_master_disable ; 0x18d6c
        0x00019b2e:    9000        ..      STR      r0,[sp,#0]
        0x00019b30:    f8894000    ...@    STRB     r4,[r9,#0]
        0x00019b34:    2c00        .,      CMP      r4,#0
        0x00019b36:    bf08        ..      IT       EQ
        0x00019b38:    426d        mB      RSBEQ    r5,r5,#0
        0x00019b3a:    e9d90101    ....    LDRD     r0,r1,[r9,#4]
        0x00019b3e:    223f        ?"      MOVS     r2,#0x3f
        0x00019b40:    4428        (D      ADD      r0,r0,r5
        0x00019b42:    283f        ?(      CMP      r0,#0x3f
        0x00019b44:    bf38        8.      IT       CC
        0x00019b46:    4602        .F      MOVCC    r2,r0
        0x00019b48:    0517        ..      LSLS     r7,r2,#20
        0x00019b4a:    2800        .(      CMP      r0,#0
        0x00019b4c:    4429        )D      ADD      r1,r1,r5
        0x00019b4e:    f04f063f    O.?.    MOV      r6,#0x3f
        0x00019b52:    bf48        H.      IT       MI
        0x00019b54:    2700        .'      MOVMI    r7,#0
        0x00019b56:    293f        ?)      CMP      r1,#0x3f
        0x00019b58:    f8c90004    ....    STR      r0,[r9,#4]
        0x00019b5c:    bf38        8.      IT       CC
        0x00019b5e:    460e        .F      MOVCC    r6,r1
        0x00019b60:    2900        .)      CMP      r1,#0
        0x00019b62:    bf48        H.      IT       MI
        0x00019b64:    2600        .&      MOVMI    r6,#0
        0x00019b66:    f8c91008    ....    STR      r1,[r9,#8]
        0x00019b6a:    b18c        ..      CBZ      r4,0x19b90 ; crypto_boost_trims + 148
        0x00019b6c:    f8d802e4    ....    LDR      r0,[r8,#0x2e4]
        0x00019b70:    f020707c     .|p    BIC      r0,r0,#0x3f00000
        0x00019b74:    4338        8C      ORRS     r0,r0,r7
        0x00019b76:    f8c802e4    ....    STR      r0,[r8,#0x2e4]
        0x00019b7a:    2014        .       MOVS     r0,#0x14
        0x00019b7c:    f7feff92    ....    BL       am_hal_delay_us ; 0x18aa4
        0x00019b80:    f8d80000    ....    LDR      r0,[r8,#0]
        0x00019b84:    f020003f     .?.    BIC      r0,r0,#0x3f
        0x00019b88:    4330        0C      ORRS     r0,r0,r6
        0x00019b8a:    f8c80000    ....    STR      r0,[r8,#0]
        0x00019b8e:    e010        ..      B        0x19bb2 ; crypto_boost_trims + 182
        0x00019b90:    f8d80000    ....    LDR      r0,[r8,#0]
        0x00019b94:    f020003f     .?.    BIC      r0,r0,#0x3f
        0x00019b98:    4330        0C      ORRS     r0,r0,r6
        0x00019b9a:    f8c80000    ....    STR      r0,[r8,#0]
        0x00019b9e:    2014        .       MOVS     r0,#0x14
        0x00019ba0:    f7feff80    ....    BL       am_hal_delay_us ; 0x18aa4
        0x00019ba4:    f8d802e4    ....    LDR      r0,[r8,#0x2e4]
        0x00019ba8:    f020707c     .|p    BIC      r0,r0,#0x3f00000
        0x00019bac:    4338        8C      ORRS     r0,r0,r7
        0x00019bae:    f8c802e4    ....    STR      r0,[r8,#0x2e4]
        0x00019bb2:    9800        ..      LDR      r0,[sp,#0]
        0x00019bb4:    f7fff8e2    ....    BL       am_hal_interrupt_master_set ; 0x18d7c
        0x00019bb8:    2014        .       MOVS     r0,#0x14
        0x00019bba:    b001        ..      ADD      sp,sp,#4
        0x00019bbc:    e8bd43f0    ...C    POP      {r4-r9,lr}
        0x00019bc0:    f7febf70    ..p.    B        am_hal_delay_us ; 0x18aa4
    hfrc2_init
        0x00019bc4:    b580        ..      PUSH     {r7,lr}
        0x00019bc6:    b082        ..      SUB      sp,sp,#8
        0x00019bc8:    2000        .       MOVS     r0,#0
        0x00019bca:    9001        ..      STR      r0,[sp,#4]
        0x00019bcc:    e7ff        ..      B        0x19bce ; hfrc2_init + 10
        0x00019bce:    2007        .       MOVS     r0,#7
        0x00019bd0:    2100        .!      MOVS     r1,#0
        0x00019bd2:    f7fefce1    ....    BL       am_hal_clkgen_control ; 0x18598
        0x00019bd6:    9001        ..      STR      r0,[sp,#4]
        0x00019bd8:    20c8        .       MOVS     r0,#0xc8
        0x00019bda:    f7fffee9    ....    BL       am_util_delay_us ; 0x199b0
        0x00019bde:    9801        ..      LDR      r0,[sp,#4]
        0x00019be0:    b108        ..      CBZ      r0,0x19be6 ; hfrc2_init + 34
        0x00019be2:    e7ff        ..      B        0x19be4 ; hfrc2_init + 32
        0x00019be4:    e00d        ..      B        0x19c02 ; hfrc2_init + 62
        0x00019be6:    2004        .       MOVS     r0,#4
        0x00019be8:    2100        .!      MOVS     r1,#0
        0x00019bea:    f7fefcd5    ....    BL       am_hal_clkgen_control ; 0x18598
        0x00019bee:    9001        ..      STR      r0,[sp,#4]
        0x00019bf0:    f44f70fa    O..p    MOV      r0,#0x1f4
        0x00019bf4:    f7fffedc    ....    BL       am_util_delay_us ; 0x199b0
        0x00019bf8:    9801        ..      LDR      r0,[sp,#4]
        0x00019bfa:    b108        ..      CBZ      r0,0x19c00 ; hfrc2_init + 60
        0x00019bfc:    e7ff        ..      B        0x19bfe ; hfrc2_init + 58
        0x00019bfe:    e000        ..      B        0x19c02 ; hfrc2_init + 62
        0x00019c00:    e7ff        ..      B        0x19c02 ; hfrc2_init + 62
        0x00019c02:    9801        ..      LDR      r0,[sp,#4]
        0x00019c04:    b002        ..      ADD      sp,sp,#8
        0x00019c06:    bd80        ..      POP      {r7,pc}
    internal_timer_config
        0x00019c08:    b5f0        ..      PUSH     {r4-r7,lr}
        0x00019c0a:    784c        Lx      LDRB     r4,[r1,#1]
        0x00019c0c:    2207        ."      MOVS     r2,#7
        0x00019c0e:    1e65        e.      SUBS     r5,r4,#1
        0x00019c10:    2d0c        .-      CMP      r5,#0xc
        0x00019c12:    d842        B.      BHI      0x19c9a ; internal_timer_config + 146
        0x00019c14:    f1010e08    ....    ADD      lr,r1,#8
        0x00019c18:    e89e5008    ...P    LDM      lr,{r3,r12,lr}
        0x00019c1c:    e8dff005    ....    TBB      [pc,r5]
    $d.1
        0x00019c20:    0c3d0c40    @.=.    DCD    205327424
        0x00019c24:    3d3d3d3d    ====    DCD    1027423549
        0x00019c28:    083d3d3d    ===.    DCD    138231101
        0x00019c2c:    bf000008    ....    DCD    3204448264
    $t.2
        0x00019c30:    2b3f        ?+      CMP      r3,#0x3f
        0x00019c32:    bf84        ..      ITT      HI
        0x00019c34:    2007        .       MOVHI    r0,#7
        0x00019c36:    bdf0        ..      POPHI    {r4-r7,pc}
        0x00019c38:    0122        ".      LSLS     r2,r4,#4
        0x00019c3a:    780c        .x      LDRB     r4,[r1,#0]
        0x00019c3c:    78ce        .x      LDRB     r6,[r1,#3]
        0x00019c3e:    b2d2        ..      UXTB     r2,r2
        0x00019c40:    788d        .x      LDRB     r5,[r1,#2]
        0x00019c42:    ea422204    B.."    ORR      r2,r2,r4,LSL #8
        0x00019c46:    f006041f    ....    AND      r4,r6,#0x1f
        0x00019c4a:    790f        .y      LDRB     r7,[r1,#4]
        0x00019c4c:    ea4202c4    B...    ORR      r2,r2,r4,LSL #3
        0x00019c50:    f005043f    ..?.    AND      r4,r5,#0x3f
        0x00019c54:    ea420284    B...    ORR      r2,r2,r4,LSL #2
        0x00019c58:    f3674211    g..B    BFI      r2,r7,#16,#2
        0x00019c5c:    ea426203    B..b    ORR      r2,r2,r3,LSL #24
        0x00019c60:    f2480300    H...    MOVW     r3,#0x8000
        0x00019c64:    f2c40300    ....    MOVT     r3,#0x4000
        0x00019c68:    eb031040    ..@.    ADD      r0,r3,r0,LSL #5
        0x00019c6c:    7949        Iy      LDRB     r1,[r1,#5]
        0x00019c6e:    f8d03200    ...2    LDR      r3,[r0,#0x200]
        0x00019c72:    0209        ..      LSLS     r1,r1,#8
        0x00019c74:    f0230301    #...    BIC      r3,r3,#1
        0x00019c78:    f8c03200    ...2    STR      r3,[r0,#0x200]
        0x00019c7c:    f8c02200    ..."    STR      r2,[r0,#0x200]
        0x00019c80:    f8c01210    ....    STR      r1,[r0,#0x210]
        0x00019c84:    f8c0c208    ....    STR      r12,[r0,#0x208]
        0x00019c88:    f8c0e20c    ....    STR      lr,[r0,#0x20c]
        0x00019c8c:    f8d01200    ....    LDR      r1,[r0,#0x200]
        0x00019c90:    2200        ."      MOVS     r2,#0
        0x00019c92:    f0410102    A...    ORR      r1,r1,#2
        0x00019c96:    f8c01200    ....    STR      r1,[r0,#0x200]
        0x00019c9a:    4610        .F      MOV      r0,r2
        0x00019c9c:    bdf0        ..      POP      {r4-r7,pc}
        0x00019c9e:    bf00        ..      NOP      
        0x00019ca0:    f11e0201    ....    ADDS     r2,lr,#1
        0x00019ca4:    d0c8        ..      BEQ      0x19c38 ; internal_timer_config + 48
        0x00019ca6:    45f4        .E      CMP      r12,lr
        0x00019ca8:    bf9c        ..      ITT      LS
        0x00019caa:    2007        .       MOVLS    r0,#7
        0x00019cac:    bdf0        ..      POPLS    {r4-r7,pc}
        0x00019cae:    e7c3        ..      B        0x19c38 ; internal_timer_config + 48
    main
        0x00019cb0:    b510        ..      PUSH     {r4,lr}
        0x00019cb2:    b08c        ..      SUB      sp,sp,#0x30
        0x00019cb4:    2000        .       MOVS     r0,#0
        0x00019cb6:    900b        ..      STR      r0,[sp,#0x2c]
        0x00019cb8:    f24a1170    J.p.    MOV      r1,#0xa170
        0x00019cbc:    f2c00101    ....    MOVT     r1,#1
        0x00019cc0:    9100        ..      STR      r1,[sp,#0]
        0x00019cc2:    6808        .h      LDR      r0,[r1,#0]
        0x00019cc4:    684a        Jh      LDR      r2,[r1,#4]
        0x00019cc6:    688b        .h      LDR      r3,[r1,#8]
        0x00019cc8:    f8d1c00c    ....    LDR      r12,[r1,#0xc]
        0x00019ccc:    f8d1e010    ....    LDR      lr,[r1,#0x10]
        0x00019cd0:    694c        Li      LDR      r4,[r1,#0x14]
        0x00019cd2:    9407        ..      STR      r4,[sp,#0x1c]
        0x00019cd4:    f8cde018    ....    STR      lr,[sp,#0x18]
        0x00019cd8:    f8cdc014    ....    STR      r12,[sp,#0x14]
        0x00019cdc:    9304        ..      STR      r3,[sp,#0x10]
        0x00019cde:    9203        ..      STR      r2,[sp,#0xc]
        0x00019ce0:    9002        ..      STR      r0,[sp,#8]
        0x00019ce2:    6988        .i      LDR      r0,[r1,#0x18]
        0x00019ce4:    69c9        .i      LDR      r1,[r1,#0x1c]
        0x00019ce6:    9109        ..      STR      r1,[sp,#0x24]
        0x00019ce8:    9008        ..      STR      r0,[sp,#0x20]
        0x00019cea:    a802        ..      ADD      r0,sp,#8
        0x00019cec:    3010        .0      ADDS     r0,r0,#0x10
        0x00019cee:    9001        ..      STR      r0,[sp,#4]
        0x00019cf0:    f000f840    ..@.    BL       pwrctrl_set_low_power ; 0x19d74
        0x00019cf4:    900a        ..      STR      r0,[sp,#0x28]
        0x00019cf6:    980a        ..      LDR      r0,[sp,#0x28]
        0x00019cf8:    b110        ..      CBZ      r0,0x19d00 ; main + 80
        0x00019cfa:    e7ff        ..      B        0x19cfc ; main + 76
        0x00019cfc:    e7ff        ..      B        0x19cfe ; main + 78
        0x00019cfe:    e7fe        ..      B        0x19cfe ; main + 78
        0x00019d00:    f649612d    I.-a    MOV      r1,#0x9e2d
        0x00019d04:    f2c00101    ....    MOVT     r1,#1
        0x00019d08:    f44f6080    O..`    MOV      r0,#0x400
        0x00019d0c:    f000f898    ....    BL       timer_init ; 0x19e40
        0x00019d10:    f7fff830    ..0.    BL       am_hal_interrupt_master_enable ; 0x18d74
        0x00019d14:    9901        ..      LDR      r1,[sp,#4]
        0x00019d16:    f24a1214    J...    MOV      r2,#0xa114
        0x00019d1a:    f2c00201    ....    MOVT     r2,#1
        0x00019d1e:    6810        .h      LDR      r0,[r2,#0]
        0x00019d20:    6852        Rh      LDR      r2,[r2,#4]
        0x00019d22:    604a        J`      STR      r2,[r1,#4]
        0x00019d24:    6008        .`      STR      r0,[r1,#0]
        0x00019d26:    9901        ..      LDR      r1,[sp,#4]
        0x00019d28:    2002        .       MOVS     r0,#2
        0x00019d2a:    f7fff82b    ..+.    BL       am_hal_mcuctrl_control ; 0x18d84
        0x00019d2e:    900a        ..      STR      r0,[sp,#0x28]
        0x00019d30:    980a        ..      LDR      r0,[sp,#0x28]
        0x00019d32:    b110        ..      CBZ      r0,0x19d3a ; main + 138
        0x00019d34:    e7ff        ..      B        0x19d36 ; main + 134
        0x00019d36:    e7ff        ..      B        0x19d38 ; main + 136
        0x00019d38:    e7fe        ..      B        0x19d38 ; main + 136
        0x00019d3a:    f7ffff43    ..C.    BL       hfrc2_init ; 0x19bc4
        0x00019d3e:    900a        ..      STR      r0,[sp,#0x28]
        0x00019d40:    980a        ..      LDR      r0,[sp,#0x28]
        0x00019d42:    b110        ..      CBZ      r0,0x19d4a ; main + 154
        0x00019d44:    e7ff        ..      B        0x19d46 ; main + 150
        0x00019d46:    e7ff        ..      B        0x19d48 ; main + 152
        0x00019d48:    e7fe        ..      B        0x19d48 ; main + 152
        0x00019d4a:    e7ff        ..      B        0x19d4c ; main + 156
        0x00019d4c:    2001        .       MOVS     r0,#1
        0x00019d4e:    f7fffd25    ..%.    BL       am_hal_sysctrl_sleep ; 0x1979c
        0x00019d52:    f24020b8    @..     MOVW     r0,#0x2b8
        0x00019d56:    f2c10000    ....    MOVT     r0,#0x1000
        0x00019d5a:    7900        .y      LDRB     r0,[r0,#4]
        0x00019d5c:    07c0        ..      LSLS     r0,r0,#31
        0x00019d5e:    b138        8.      CBZ      r0,0x19d70 ; main + 192
        0x00019d60:    e7ff        ..      B        0x19d62 ; main + 178
        0x00019d62:    f24021b8    @..!    MOVW     r1,#0x2b8
        0x00019d66:    f2c10100    ....    MOVT     r1,#0x1000
        0x00019d6a:    2000        .       MOVS     r0,#0
        0x00019d6c:    7108        .q      STRB     r0,[r1,#4]
        0x00019d6e:    e7ff        ..      B        0x19d70 ; main + 192
        0x00019d70:    e7ec        ..      B        0x19d4c ; main + 156
        0x00019d72:    0000        ..      MOVS     r0,r0
    pwrctrl_set_low_power
        0x00019d74:    b580        ..      PUSH     {r7,lr}
        0x00019d76:    b084        ..      SUB      sp,sp,#0x10
        0x00019d78:    e7ff        ..      B        0x19d7a ; pwrctrl_set_low_power + 6
        0x00019d7a:    f64960da    I..`    MOV      r0,#0x9eda
        0x00019d7e:    f2c00001    ....    MOVT     r0,#1
        0x00019d82:    f7fefbd7    ....    BL       am_hal_cachectrl_config ; 0x18534
        0x00019d86:    9003        ..      STR      r0,[sp,#0xc]
        0x00019d88:    9803        ..      LDR      r0,[sp,#0xc]
        0x00019d8a:    b120         .      CBZ      r0,0x19d96 ; pwrctrl_set_low_power + 34
        0x00019d8c:    e7ff        ..      B        0x19d8e ; pwrctrl_set_low_power + 26
        0x00019d8e:    2001        .       MOVS     r0,#1
        0x00019d90:    f88d000f    ....    STRB     r0,[sp,#0xf]
        0x00019d94:    e047        G.      B        0x19e26 ; pwrctrl_set_low_power + 178
        0x00019d96:    f7fefbef    ....    BL       am_hal_cachectrl_enable ; 0x18578
        0x00019d9a:    f7fefba9    ....    BL       am_bsp_low_power_init ; 0x184f0
        0x00019d9e:    2014        .       MOVS     r0,#0x14
        0x00019da0:    f7fffbf6    ....    BL       am_hal_pwrctrl_periph_disable ; 0x19590
        0x00019da4:    9003        ..      STR      r0,[sp,#0xc]
        0x00019da6:    9803        ..      LDR      r0,[sp,#0xc]
        0x00019da8:    b120         .      CBZ      r0,0x19db4 ; pwrctrl_set_low_power + 64
        0x00019daa:    e7ff        ..      B        0x19dac ; pwrctrl_set_low_power + 56
        0x00019dac:    2002        .       MOVS     r0,#2
        0x00019dae:    f88d000f    ....    STRB     r0,[sp,#0xf]
        0x00019db2:    e038        8.      B        0x19e26 ; pwrctrl_set_low_power + 178
        0x00019db4:    2037        7       MOVS     r0,#0x37
        0x00019db6:    9002        ..      STR      r0,[sp,#8]
        0x00019db8:    2100        .!      MOVS     r1,#0
        0x00019dba:    9101        ..      STR      r1,[sp,#4]
        0x00019dbc:    f7feff50    ..P.    BL       am_hal_gpio_state_write ; 0x18c60
        0x00019dc0:    4601        .F      MOV      r1,r0
        0x00019dc2:    9802        ..      LDR      r0,[sp,#8]
        0x00019dc4:    9103        ..      STR      r1,[sp,#0xc]
        0x00019dc6:    f64961e4    I..a    MOV      r1,#0x9ee4
        0x00019dca:    f2c00101    ....    MOVT     r1,#1
        0x00019dce:    6809        .h      LDR      r1,[r1,#0]
        0x00019dd0:    f7feff1a    ....    BL       am_hal_gpio_pinconfig ; 0x18c08
        0x00019dd4:    4602        .F      MOV      r2,r0
        0x00019dd6:    9802        ..      LDR      r0,[sp,#8]
        0x00019dd8:    9903        ..      LDR      r1,[sp,#0xc]
        0x00019dda:    4411        .D      ADD      r1,r1,r2
        0x00019ddc:    9103        ..      STR      r1,[sp,#0xc]
        0x00019dde:    2101        .!      MOVS     r1,#1
        0x00019de0:    f7feff3e    ..>.    BL       am_hal_gpio_state_write ; 0x18c60
        0x00019de4:    9901        ..      LDR      r1,[sp,#4]
        0x00019de6:    4603        .F      MOV      r3,r0
        0x00019de8:    9802        ..      LDR      r0,[sp,#8]
        0x00019dea:    9a03        ..      LDR      r2,[sp,#0xc]
        0x00019dec:    441a        .D      ADD      r2,r2,r3
        0x00019dee:    9203        ..      STR      r2,[sp,#0xc]
        0x00019df0:    f7feff36    ..6.    BL       am_hal_gpio_state_write ; 0x18c60
        0x00019df4:    4601        .F      MOV      r1,r0
        0x00019df6:    9803        ..      LDR      r0,[sp,#0xc]
        0x00019df8:    4408        .D      ADD      r0,r0,r1
        0x00019dfa:    9003        ..      STR      r0,[sp,#0xc]
        0x00019dfc:    9803        ..      LDR      r0,[sp,#0xc]
        0x00019dfe:    b120         .      CBZ      r0,0x19e0a ; pwrctrl_set_low_power + 150
        0x00019e00:    e7ff        ..      B        0x19e02 ; pwrctrl_set_low_power + 142
        0x00019e02:    2003        .       MOVS     r0,#3
        0x00019e04:    f88d000f    ....    STRB     r0,[sp,#0xf]
        0x00019e08:    e00d        ..      B        0x19e26 ; pwrctrl_set_low_power + 178
        0x00019e0a:    f64960d4    I..`    MOV      r0,#0x9ed4
        0x00019e0e:    f2c00001    ....    MOVT     r0,#1
        0x00019e12:    f7fffc55    ..U.    BL       am_hal_pwrctrl_sram_config ; 0x196c0
        0x00019e16:    9803        ..      LDR      r0,[sp,#0xc]
        0x00019e18:    b120         .      CBZ      r0,0x19e24 ; pwrctrl_set_low_power + 176
        0x00019e1a:    e7ff        ..      B        0x19e1c ; pwrctrl_set_low_power + 168
        0x00019e1c:    2004        .       MOVS     r0,#4
        0x00019e1e:    f88d000f    ....    STRB     r0,[sp,#0xf]
        0x00019e22:    e000        ..      B        0x19e26 ; pwrctrl_set_low_power + 178
        0x00019e24:    e7ff        ..      B        0x19e26 ; pwrctrl_set_low_power + 178
        0x00019e26:    9803        ..      LDR      r0,[sp,#0xc]
        0x00019e28:    b004        ..      ADD      sp,sp,#0x10
        0x00019e2a:    bd80        ..      POP      {r7,pc}
    timerCallback
        0x00019e2c:    f24021b8    @..!    MOVW     r1,#0x2b8
        0x00019e30:    f2c10100    ....    MOVT     r1,#0x1000
        0x00019e34:    6808        .h      LDR      r0,[r1,#0]
        0x00019e36:    3001        .0      ADDS     r0,#1
        0x00019e38:    6008        .`      STR      r0,[r1,#0]
        0x00019e3a:    2001        .       MOVS     r0,#1
        0x00019e3c:    7108        .q      STRB     r0,[r1,#4]
        0x00019e3e:    4770        pG      BX       lr
    timer_init
        0x00019e40:    b580        ..      PUSH     {r7,lr}
        0x00019e42:    b08e        ..      SUB      sp,sp,#0x38
        0x00019e44:    900c        ..      STR      r0,[sp,#0x30]
        0x00019e46:    910b        ..      STR      r1,[sp,#0x2c]
        0x00019e48:    980b        ..      LDR      r0,[sp,#0x2c]
        0x00019e4a:    f24021c4    @..!    MOVW     r1,#0x2c4
        0x00019e4e:    f2c10100    ....    MOVT     r1,#0x1000
        0x00019e52:    6008        .`      STR      r0,[r1,#0]
        0x00019e54:    a806        ..      ADD      r0,sp,#0x18
        0x00019e56:    9004        ..      STR      r0,[sp,#0x10]
        0x00019e58:    f7fffd48    ..H.    BL       am_hal_timer_default_config_set ; 0x198ec
        0x00019e5c:    9904        ..      LDR      r1,[sp,#0x10]
        0x00019e5e:    200f        .       MOVS     r0,#0xf
        0x00019e60:    f88d0018    ....    STRB     r0,[sp,#0x18]
        0x00019e64:    2002        .       MOVS     r0,#2
        0x00019e66:    f88d0019    ....    STRB     r0,[sp,#0x19]
        0x00019e6a:    980c        ..      LDR      r0,[sp,#0x30]
        0x00019e6c:    900a        ..      STR      r0,[sp,#0x28]
        0x00019e6e:    2000        .       MOVS     r0,#0
        0x00019e70:    f7fffd3a    ..:.    BL       am_hal_timer_config ; 0x198e8
        0x00019e74:    9005        ..      STR      r0,[sp,#0x14]
        0x00019e76:    9805        ..      LDR      r0,[sp,#0x14]
        0x00019e78:    b118        ..      CBZ      r0,0x19e82 ; timer_init + 66
        0x00019e7a:    e7ff        ..      B        0x19e7c ; timer_init + 60
        0x00019e7c:    9805        ..      LDR      r0,[sp,#0x14]
        0x00019e7e:    900d        ..      STR      r0,[sp,#0x34]
        0x00019e80:    e018        ..      B        0x19eb4 ; timer_init + 116
        0x00019e82:    2000        .       MOVS     r0,#0
        0x00019e84:    9003        ..      STR      r0,[sp,#0xc]
        0x00019e86:    f7fffd0d    ....    BL       am_hal_timer_clear ; 0x198a4
        0x00019e8a:    2002        .       MOVS     r0,#2
        0x00019e8c:    9002        ..      STR      r0,[sp,#8]
        0x00019e8e:    f7fffd67    ..g.    BL       am_hal_timer_interrupt_clear ; 0x19960
        0x00019e92:    2043        C       MOVS     r0,#0x43
        0x00019e94:    9001        ..      STR      r0,[sp,#4]
        0x00019e96:    2104        .!      MOVS     r1,#4
        0x00019e98:    f7fefb08    ....    BL       __NVIC_SetPriority ; 0x184ac
        0x00019e9c:    9801        ..      LDR      r0,[sp,#4]
        0x00019e9e:    f7fefaed    ....    BL       __NVIC_EnableIRQ ; 0x1847c
        0x00019ea2:    9802        ..      LDR      r0,[sp,#8]
        0x00019ea4:    f7fffd64    ..d.    BL       am_hal_timer_interrupt_enable ; 0x19970
        0x00019ea8:    9803        ..      LDR      r0,[sp,#0xc]
        0x00019eaa:    f7fffd2f    ../.    BL       am_hal_timer_enable ; 0x1990c
        0x00019eae:    9803        ..      LDR      r0,[sp,#0xc]
        0x00019eb0:    900d        ..      STR      r0,[sp,#0x34]
        0x00019eb2:    e7ff        ..      B        0x19eb4 ; timer_init + 116
        0x00019eb4:    980d        ..      LDR      r0,[sp,#0x34]
        0x00019eb6:    b00e        ..      ADD      sp,sp,#0x38
        0x00019eb8:    bd80        ..      POP      {r7,pc}
    $t
    x$fpl$fpinit
    $v0
    _fp_init
        0x00019eba:    eef10a10    ....    VMRS     r0,FPSCR
        0x00019ebe:    f64f71ff    O..q    MOV      r1,#0xffff
        0x00019ec2:    f2c031c0    ...1    MOVT     r1,#0x3c0
        0x00019ec6:    ea200001     ...    BIC      r0,r0,r1
        0x00019eca:    f0407040    @.@p    ORR      r0,r0,#0x3000000
        0x00019ece:    eee10a10    ....    VMSR     FPSCR,r0
    __fplib_config_fpu_vfp
    __fplib_config_pureend_doubles
        0x00019ed2:    4770        pG      BX       lr
    $d.realdata
    SRAMMemCfg
        0x00019ed4:    00000001    ....    DCD    1
        0x00019ed8:    0100        ..      DCW    256
    am_hal_cachectrl_defaults
        0x00019eda:    030e        ..      DCW    782
        0x00019edc:    00          .       DCB    0
    am_hal_daxi_defaults
        0x00019edd:    000102      ...     DCB    0,1,2
        0x00019ee0:    0000010f    ....    DCD    271
    am_hal_gpio_pincfg_output
        0x00019ee4:    00000183    ....    DCD    387
    am_hal_pwrctrl_peripheral_control
        0x00019ee8:    40021004    ...@    DCD    1073876996
        0x00019eec:    00000001    ....    DCD    1
        0x00019ef0:    40021008    ...@    DCD    1073877000
        0x00019ef4:    00000001    ....    DCD    1
        0x00019ef8:    40021004    ...@    DCD    1073876996
        0x00019efc:    00000002    ....    DCD    2
        0x00019f00:    40021008    ...@    DCD    1073877000
        0x00019f04:    0000001e    ....    DCD    30
        0x00019f08:    40021004    ...@    DCD    1073876996
        0x00019f0c:    00000004    ....    DCD    4
        0x00019f10:    40021008    ...@    DCD    1073877000
        0x00019f14:    0000001e    ....    DCD    30
        0x00019f18:    40021004    ...@    DCD    1073876996
        0x00019f1c:    00000008    ....    DCD    8
        0x00019f20:    40021008    ...@    DCD    1073877000
        0x00019f24:    0000001e    ....    DCD    30
        0x00019f28:    40021004    ...@    DCD    1073876996
        0x00019f2c:    00000010    ....    DCD    16
        0x00019f30:    40021008    ...@    DCD    1073877000
        0x00019f34:    0000001e    ....    DCD    30
        0x00019f38:    40021004    ...@    DCD    1073876996
        0x00019f3c:    00000020     ...    DCD    32
        0x00019f40:    40021008    ...@    DCD    1073877000
        0x00019f44:    000001e0    ....    DCD    480
        0x00019f48:    40021004    ...@    DCD    1073876996
        0x00019f4c:    00000040    @...    DCD    64
        0x00019f50:    40021008    ...@    DCD    1073877000
        0x00019f54:    000001e0    ....    DCD    480
        0x00019f58:    40021004    ...@    DCD    1073876996
        0x00019f5c:    00000080    ....    DCD    128
        0x00019f60:    40021008    ...@    DCD    1073877000
        0x00019f64:    000001e0    ....    DCD    480
        0x00019f68:    40021004    ...@    DCD    1073876996
        0x00019f6c:    00000100    ....    DCD    256
        0x00019f70:    40021008    ...@    DCD    1073877000
        0x00019f74:    000001e0    ....    DCD    480
        0x00019f78:    40021004    ...@    DCD    1073876996
        0x00019f7c:    00000200    ....    DCD    512
        0x00019f80:    40021008    ...@    DCD    1073877000
        0x00019f84:    00001e00    ....    DCD    7680
        0x00019f88:    40021004    ...@    DCD    1073876996
        0x00019f8c:    00000400    ....    DCD    1024
        0x00019f90:    40021008    ...@    DCD    1073877000
        0x00019f94:    00001e00    ....    DCD    7680
        0x00019f98:    40021004    ...@    DCD    1073876996
        0x00019f9c:    00000800    ....    DCD    2048
        0x00019fa0:    40021008    ...@    DCD    1073877000
        0x00019fa4:    00001e00    ....    DCD    7680
        0x00019fa8:    40021004    ...@    DCD    1073876996
        0x00019fac:    00001000    ....    DCD    4096
        0x00019fb0:    40021008    ...@    DCD    1073877000
        0x00019fb4:    00001e00    ....    DCD    7680
        0x00019fb8:    40021004    ...@    DCD    1073876996
        0x00019fbc:    00002000    . ..    DCD    8192
        0x00019fc0:    40021008    ...@    DCD    1073877000
        0x00019fc4:    00002000    . ..    DCD    8192
        0x00019fc8:    40021004    ...@    DCD    1073876996
        0x00019fcc:    00004000    .@..    DCD    16384
        0x00019fd0:    40021008    ...@    DCD    1073877000
        0x00019fd4:    0001c000    ....    DCD    114688
        0x00019fd8:    40021004    ...@    DCD    1073876996
        0x00019fdc:    00008000    ....    DCD    32768
        0x00019fe0:    40021008    ...@    DCD    1073877000
        0x00019fe4:    0001c000    ....    DCD    114688
        0x00019fe8:    40021004    ...@    DCD    1073876996
        0x00019fec:    00010000    ....    DCD    65536
        0x00019ff0:    40021008    ...@    DCD    1073877000
        0x00019ff4:    0001c000    ....    DCD    114688
        0x00019ff8:    40021004    ...@    DCD    1073876996
        0x00019ffc:    00020000    ....    DCD    131072
        0x0001a000:    40021008    ...@    DCD    1073877000
        0x0001a004:    00020000    ....    DCD    131072
        0x0001a008:    40021004    ...@    DCD    1073876996
        0x0001a00c:    00040000    ....    DCD    262144
        0x0001a010:    40021008    ...@    DCD    1073877000
        0x0001a014:    00040000    ....    DCD    262144
        0x0001a018:    40021004    ...@    DCD    1073876996
        0x0001a01c:    00080000    ....    DCD    524288
        0x0001a020:    40021008    ...@    DCD    1073877000
        0x0001a024:    00080000    ....    DCD    524288
        0x0001a028:    40021004    ...@    DCD    1073876996
        0x0001a02c:    00100000    ....    DCD    1048576
        0x0001a030:    40021008    ...@    DCD    1073877000
        0x0001a034:    00100000    ....    DCD    1048576
        0x0001a038:    40021004    ...@    DCD    1073876996
        0x0001a03c:    00200000    .. .    DCD    2097152
        0x0001a040:    40021008    ...@    DCD    1073877000
        0x0001a044:    00200000    .. .    DCD    2097152
        0x0001a048:    40021004    ...@    DCD    1073876996
        0x0001a04c:    00400000    ..@.    DCD    4194304
        0x0001a050:    40021008    ...@    DCD    1073877000
        0x0001a054:    00400000    ..@.    DCD    4194304
        0x0001a058:    40021004    ...@    DCD    1073876996
        0x0001a05c:    00800000    ....    DCD    8388608
        0x0001a060:    40021008    ...@    DCD    1073877000
        0x0001a064:    00800000    ....    DCD    8388608
        0x0001a068:    40021004    ...@    DCD    1073876996
        0x0001a06c:    01000000    ....    DCD    16777216
        0x0001a070:    40021008    ...@    DCD    1073877000
        0x0001a074:    01000000    ....    DCD    16777216
        0x0001a078:    4002100c    ...@    DCD    1073877004
        0x0001a07c:    00000001    ....    DCD    1
        0x0001a080:    40021010    ...@    DCD    1073877008
        0x0001a084:    000000ff    ....    DCD    255
        0x0001a088:    4002100c    ...@    DCD    1073877004
        0x0001a08c:    00000002    ....    DCD    2
        0x0001a090:    40021010    ...@    DCD    1073877008
        0x0001a094:    000000ff    ....    DCD    255
        0x0001a098:    4002100c    ...@    DCD    1073877004
        0x0001a09c:    00000004    ....    DCD    4
        0x0001a0a0:    40021010    ...@    DCD    1073877008
        0x0001a0a4:    000000ff    ....    DCD    255
        0x0001a0a8:    4002100c    ...@    DCD    1073877004
        0x0001a0ac:    00000008    ....    DCD    8
        0x0001a0b0:    40021010    ...@    DCD    1073877008
        0x0001a0b4:    000000ff    ....    DCD    255
        0x0001a0b8:    4002100c    ...@    DCD    1073877004
        0x0001a0bc:    00000010    ....    DCD    16
        0x0001a0c0:    40021010    ...@    DCD    1073877008
        0x0001a0c4:    000000ff    ....    DCD    255
        0x0001a0c8:    4002100c    ...@    DCD    1073877004
        0x0001a0cc:    00000020     ...    DCD    32
        0x0001a0d0:    40021010    ...@    DCD    1073877008
        0x0001a0d4:    000000ff    ....    DCD    255
        0x0001a0d8:    4002100c    ...@    DCD    1073877004
        0x0001a0dc:    00000040    @...    DCD    64
        0x0001a0e0:    40021010    ...@    DCD    1073877008
        0x0001a0e4:    000000ff    ....    DCD    255
        0x0001a0e8:    4002100c    ...@    DCD    1073877004
        0x0001a0ec:    00000080    ....    DCD    128
        0x0001a0f0:    40021010    ...@    DCD    1073877008
        0x0001a0f4:    000000ff    ....    DCD    255
        0x0001a0f8:    4002100c    ...@    DCD    1073877004
        0x0001a0fc:    00000400    ....    DCD    1024
        0x0001a100:    40021010    ...@    DCD    1073877008
        0x0001a104:    00000400    ....    DCD    1024
    g_DefaultMcuMemCfg
        0x0001a108:    07070102    ....    DCD    117899522
        0x0001a10c:    0001        ..      DCW    1
    g_DefaultSRAMCfg
        0x0001a10e:    0003        ..      DCW    3
        0x0001a110:    03000000    ....    DCD    50331648
    g_amHalMcuctrlArgDefault
        0x0001a114:    00200000    .. .    DCD    2097152
        0x0001a118:    00000001    ....    DCD    1
    g_am_hal_bootrom_helper
        0x0001a11c:    0800004d    M...    DCD    134217805
        0x0001a120:    08000051    Q...    DCD    134217809
        0x0001a124:    08000055    U...    DCD    134217813
        0x0001a128:    08000059    Y...    DCD    134217817
        0x0001a12c:    0800006d    m...    DCD    134217837
        0x0001a130:    08000075    u...    DCD    134217845
        0x0001a134:    08000079    y...    DCD    134217849
        0x0001a138:    08000081    ....    DCD    134217857
        0x0001a13c:    08000099    ....    DCD    134217881
        0x0001a140:    0800009d    ....    DCD    134217885
    __tagsym$$used.7
    sGlobalAccess
        0x0001a144:    0001a1cc    ....    DCD    106956
        0x0001a148:    0001a1b8    ....    DCD    106936
        0x0001a14c:    0001a190    ....    DCD    106896
        0x0001a150:    0001a1a4    ....    DCD    106916
        0x0001a154:    10060004    ....    DCD    268828676
        0x0001a158:    10060018    ....    DCD    268828696
        0x0001a15c:    1006002c    ,...    DCD    268828716
    g_ui32DSpintbl
        0x0001a160:    8fc007e0    ....    DCD    2411726816
        0x0001a164:    e3fbffff    ....    DCD    3824943103
        0x0001a168:    01ffffff    ....    DCD    33554431
        0x0001a16c:    00000000    ....    DCD    0
    tReComputeCtrlDefault
        0x0001a170:    0000000c    ....    DCD    12
        0x0001a174:    00000008    ....    DCD    8
        0x0001a178:    000003e8    ....    DCD    1000
        0x0001a17c:    00000001    ....    DCD    1
        0x0001a180:    00000000    ....    DCD    0
        0x0001a184:    00000000    ....    DCD    0
        0x0001a188:    0000012c    ,...    DCD    300
        0x0001a18c:    00000000    ....    DCD    0
    __tagsym$$used.1
    ui32DSP0Allowed
        0x0001a190:    00000000    ....    DCD    0
        0x0001a194:    00000000    ....    DCD    0
        0x0001a198:    00000000    ....    DCD    0
        0x0001a19c:    00000000    ....    DCD    0
        0x0001a1a0:    00000000    ....    DCD    0
    __tagsym$$used.2
    ui32DSP1Allowed
        0x0001a1a4:    00000000    ....    DCD    0
        0x0001a1a8:    00000000    ....    DCD    0
        0x0001a1ac:    00000000    ....    DCD    0
        0x0001a1b0:    00000000    ....    DCD    0
        0x0001a1b4:    00000000    ....    DCD    0
    __tagsym$$used.0
    ui32MCUAllowed
        0x0001a1b8:    00000000    ....    DCD    0
        0x0001a1bc:    00000000    ....    DCD    0
        0x0001a1c0:    00000000    ....    DCD    0
        0x0001a1c4:    00000000    ....    DCD    0
        0x0001a1c8:    00000000    ....    DCD    0
    __tagsym$$used.3
    ui32SharedAccess
        0x0001a1cc:    00000000    ....    DCD    0
        0x0001a1d0:    00000000    ....    DCD    0
        0x0001a1d4:    00000000    ....    DCD    0
        0x0001a1d8:    00000000    ....    DCD    0
        0x0001a1dc:    00000000    ....    DCD    0
    Region$$Table$$Base
        0x0001a1e0:    0001a210    ....    DCD    107024
        0x0001a1e4:    10000000    ....    DCD    268435456
        0x0001a1e8:    00000018    ....    DCD    24
        0x0001a1ec:    00018270    p...    DCD    98928
        0x0001a1f0:    0001a228    (...    DCD    107048
        0x0001a1f4:    10060000    ....    DCD    268828672
        0x0001a1f8:    00000040    @...    DCD    64
        0x0001a1fc:    00018270    p...    DCD    98928
        0x0001a200:    0001a228    (...    DCD    107048
        0x0001a204:    10000018    ....    DCD    268435480
        0x0001a208:    000012b0    ....    DCD    4784
        0x0001a20c:    0001828c    ....    DCD    98956
    Region$$Table$$Limit

** Section #2 'MCU_TCM' (SHT_PROGBITS) [SHF_ALLOC + SHF_WRITE]
    Size   : 24 bytes (alignment 8)
    Address: 0x10000000

    0x10000000:   ff ff ff ff ff ff ff ff 2c 00 00 00 04 00 00 00    ........,.......
    0x10000010:   00 01 02 0f 01 00 00 00                            ........


** Section #3 'MCU_TCM' (SHT_NOBITS) [SHF_ALLOC + SHF_WRITE]
    Size   : 4784 bytes (alignment 8)
    Address: 0x10000018


** Section #4 'SHARED_SRAM' (SHT_PROGBITS) [SHF_ALLOC + SHF_WRITE]
    Size   : 64 bytes (alignment 4)
    Address: 0x10060000

    0x10060000:   44 a1 01 00 00 00 00 00 00 00 00 00 00 00 00 00    D...............
    0x10060010:   00 00 00 00 00 00 00 00 00 00 00 00 00 00 00 00    ................
    0x10060020:   00 00 00 00 00 00 00 00 00 00 00 00 00 00 00 00    ................
    0x10060030:   00 00 00 00 00 00 00 00 00 00 00 00 00 00 00 00    ................


** Section #5 '.debug_abbrev' (SHT_PROGBITS)
    Size   : 1396 bytes


** Section #6 '.debug_frame' (SHT_PROGBITS)
    Size   : 4672 bytes


** Section #7 '.debug_info' (SHT_PROGBITS)
    Size   : 7945 bytes


** Section #8 '.debug_line' (SHT_PROGBITS)
    Size   : 2790 bytes


** Section #9 '.debug_ranges' (SHT_PROGBITS)
    Size   : 200 bytes


** Section #10 '.debug_str' (SHT_PROGBITS)
    Size   : 18053 bytes


** Section #11 '.symtab' (SHT_SYMTAB)
    Size   : 7264 bytes (alignment 4)
    String table #12 '.strtab'
    Last local symbol no. 232

    Symbol table .symtab (453 symbols, 232 local)

      #  Symbol Name                Value      Bind  Sec  Type  Vis  Size
    ========================================================================

      1  $d                         0x00018000   Lc    1   --   De 
      2  $t                         0x00018200   Lc    1   --   De 
      3  $d                         0x00018230   Lc    1   --   De 
      4  $t                         0x00018234   Lc    1   --   De 
      5  $d                         0x00018268   Lc    1   --   De 
      6  $t                         0x00018270   Lc    1   --   De 
      7  $d                         0x000182de   Lc    1   --   De 
      8  $t                         0x000182ec   Lc    1   --   De 
      9  $d                         0x00018444   Lc    1   --   De 
     10  $t                         0x00018448   Lc    1   --   De 
     11  $d                         0x00018450   Lc    1   --   De 
     12  $t                         0x00018454   Lc    1   --   De 
     13  $t.0                       0x00018458   Lc    1   --   De 
     14  $d.4                       0x00018478   Lc    1   --   De 
     15  $t.3                       0x0001847c   Lc    1   --   De 
     16  $d.3                       0x000185a6   Lc    1   --   De 
     17  $t.4                       0x000185d0   Lc    1   --   De 
     18  $d.9                       0x00018998   Lc    1   --   De 
     19  $t.10                      0x0001899c   Lc    1   --   De 
     20  $d.5                       0x00018c6e   Lc    1   --   De 
     21  $t.6                       0x00018c74   Lc    1   --   De 
     22  $d.2                       0x00018d94   Lc    1   --   De 
     23  $t.3                       0x00018da0   Lc    1   --   De 
     24  $d.22                      0x00019102   Lc    1   --   De 
     25  $t.23                      0x00019108   Lc    1   --   De 
     26  $d.3                       0x0001954c   Lc    1   --   De 
     27  $t.4                       0x00019554   Lc    1   --   De 
     28  $d.7                       0x0001974a   Lc    1   --   De 
     29  $t.8                       0x00019750   Lc    1   --   De 
     30  $d.1                       0x00019c20   Lc    1   --   De 
     31  $t.2                       0x00019c30   Lc    1   --   De 
     32  $t                         0x00019eba   Lc    1   --   De 
     33  $d.realdata                0x00019ed4   Lc    1   --   De 
     34  $d.realdata                0x10000000   Lc    2   --   De 
     35  $d.realdata                0x10060000   Lc    4   --   De 
     36  am_resources.c             0x00000000   Lc  Abs  File  De 
     37  __tagsym$$used.0           0x0001a1b8   Lc    1   --   De 
     38  __tagsym$$used.1           0x0001a190   Lc    1   --   De 
     39  __tagsym$$used.2           0x0001a1a4   Lc    1   --   De 
     40  __tagsym$$used.3           0x0001a1cc   Lc    1   --   De 
     41  __tagsym$$used.4           0x10060004   Lc    4   --   De 
     42  __tagsym$$used.5           0x10060018   Lc    4   --   De 
     43  __tagsym$$used.6           0x1006002c   Lc    4   --   De 
     44  __tagsym$$used.7           0x0001a144   Lc    1   --   De 
     45  __tagsym$$used.8           0x10060000   Lc    4   --   De 
     46  pwr_32mhz.c                0x00000000   Lc  Abs  File  De 
     47  timerCallback              0x00019e2d   Lc    1  Code  De   0x14
     48  hfrc2_init                 0x00019bc5   Lc    1  Code  De   0x44
     49  g_tGlb                     0x100002b8   Lc    3  Data  De   0xc
     50  pwr_control_utils.c        0x00000000   Lc  Abs  File  De 
     51  SRAMMemCfg                 0x00019ed4   Lc    1  Data  De   0x6
     52  pwr_gpio_utils.c           0x00000000   Lc  Abs  File  De 
     53  pwr_timer_utils.c          0x00000000   Lc  Abs  File  De 
     54  __NVIC_SetPriority         0x000184ad   Lc    1  Code  De   0x42
     55  __NVIC_EnableIRQ           0x0001847d   Lc    1  Code  De   0x30
     56  pfnTimerCallbackFcn        0x100002c4   Lc    3  Data  De   0x4
     57  am_util_delay.c            0x00000000   Lc  Abs  File  De 
     58  am_util_faultisr.c         0x00000000   Lc  Abs  File  De 
     59  am_util_id.c               0x00000000   Lc  Abs  File  De 
     60  am_util_stdio.c            0x00000000   Lc  Abs  File  De 
     61  am_devices_led.c           0x00000000   Lc  Abs  File  De 
     62  ../keil6/startup_keil6.s   0x00000000   Lc  Abs  File  De 
     63  STACK                      0x100002c8   Lc    3  Sect  De   0x1000
     64  StackMem                   0x100002c8   Lc    3  Data  De 
     65  HEAP                       0x100002c8   Lc    3  Sect  De 
     66  HeapMem                    0x100002c8   Lc    3  Data  De 
     67  RESET                      0x00018000   Lc    1  Sect  De   0x234
     68  $v0                        0x00018200   Lc    1   --   De 
     69  am_cryptosec_isr           0x0001822f   Lc    1  Code  De 
     70  am_default_isr             0x0001822f   Lc    1  Code  De   0x2
     71  .text                      0x000182d4   Lc    1  Sect  De   0x18
     72  $v0                        0x000182d4   Lc    1   --   De 
     73  am_hal_gpio.c              0x00000000   Lc  Abs  File  De 
     74  g_ui32DSpintbl             0x0001a160   Lc    1  Data  De   0x10
     75  am_hal_pwrctrl.c           0x00000000   Lc  Abs  File  De 
     76  .L_MergedGlobals           0x10000000   Lc    2  Data  De   0x8
     77  .L_MergedGlobals.1         0x10000078   Lc    3  Data  De   0x30
     78  g_bBoostForCryptoApplied   0x10000078   Lc    3  Data  De   0x1
     79  g_bOrigTrimsStored         0x10000079   Lc    3  Data  De   0x1
     80  g_bTempcoValid             0x1000007a   Lc    3  Data  De   0x1
     81  g_i32LatestVddfActTrim     0x1000007c   Lc    3  Data  De   0x4
     82  g_i32LatestLDOActTrim      0x10000080   Lc    3  Data  De   0x4
     83  g_ui32VDDFAdjustCodes      0x10000084   Lc    3  Data  De   0x4
     84  g_orig_ACTTRIMVDDF         0x10000088   Lc    3  Data  De   0x4
     85  g_orig_MEMLDOACTIVETRIM    0x1000008c   Lc    3  Data  De   0x4
     86  g_orig_LPTRIMVDDF          0x10000090   Lc    3  Data  De   0x4
     87  g_orig_MEMLPLDOTRIM        0x10000094   Lc    3  Data  De   0x4
     88  g_orig_TVRGVREFTRIM        0x10000098   Lc    3  Data  De   0x4
     89  g_orig_CORELDOACTIVETRIM   0x1000009c   Lc    3  Data  De   0x4
     90  g_pfTempMeasured           0x100000a0   Lc    3  Data  De   0x4
     91  g_TempcoADCHandle          0x100000a4   Lc    3  Data  De   0x4
     92  am_hal_timer.c             0x00000000   Lc  Abs  File  De 
     93  am_hal_cachectrl.c         0x00000000   Lc  Abs  File  De 
     94  am_hal_clkgen.c            0x00000000   Lc  Abs  File  De 
     95  am_hal_fault.c             0x00000000   Lc  Abs  File  De 
     96  am_hal_interrupt.c         0x00000000   Lc  Abs  File  De 
     97  am_hal_mcuctrl.c           0x00000000   Lc  Abs  File  De 
     98  .L_MergedGlobals           0x10000008   Lc    2  Data  De   0x8
     99  am_hal_sysctrl.c           0x00000000   Lc  Abs  File  De 
    100  am_hal_utils.c             0x00000000   Lc  Abs  File  De 
    101  am_bsp.c                   0x00000000   Lc  Abs  File  De 
    102  am_hal_adc.c               0x00000000   Lc  Abs  File  De 
    103  am_hal_dcu.c               0x00000000   Lc  Abs  File  De 
    104  am_hal_global.c            0x00000000   Lc  Abs  File  De 
    105  am_hal_pin.c               0x00000000   Lc  Abs  File  De 
    106  am_hal_bootrom_helper.c    0x00000000   Lc  Abs  File  De 
    107  am_hal_itm.c               0x00000000   Lc  Abs  File  De 
    108  am_hal_mram.c              0x00000000   Lc  Abs  File  De 
    109  am_hal_rtc.c               0x00000000   Lc  Abs  File  De 
    110  am_hal_tpiu.c              0x00000000   Lc  Abs  File  De 
    111  am_hal_uart.c              0x00000000   Lc  Abs  File  De 
    112  am_bsp_pins.c              0x00000000   Lc  Abs  File  De 
    113  am_hal_queue.c             0x00000000   Lc  Abs  File  De 
    114  dc.s                       0x00000000   Lc  Abs  File  De 
    115  ../clib/longlong.s         0x00000000   Lc  Abs  File  De 
    116  .text                      0x000182ec   Lc    1  Sect  De   0xf0
    117  ../clib/heapaux.c          0x00000000   Lc  Abs  File  De 
    118  .text                      0x000183dc   Lc    1  Sect  De 
    119  ../clib/angel/startup.s    0x00000000   Lc  Abs  File  De 
    120  !!!main                    0x00018234   Lc    1  Sect  De   0x8
    121  ../clib/angel/handlers.s   0x00000000   Lc  Abs  File  De 
    122  !!handler_copy             0x00018270   Lc    1  Sect  De   0x1a
    123  ../fplib/d2f.s             0x00000000   Lc  Abs  File  De 
    124  ../clib/angel/kernel.s     0x00000000   Lc  Abs  File  De 
    125  .ARM.Collect$$rtentry$$00000000
                                    0x000182b4   Lc    1  Sect  De 
    126  ../clib/angel/rt.s         0x00000000   Lc  Abs  File  De 
    127  ../clib/angel/rt.s         0x00000000   Lc  Abs  File  De 
    128  ../fplib/dnaninf.s         0x00000000   Lc  Abs  File  De 
    129  ../fplib/fretinf.s         0x00000000   Lc  Abs  File  De 
    130  ../fplib/usenofp.s         0x00000000   Lc  Abs  File  De 
    131  ../clib/angel/kernel.s     0x00000000   Lc  Abs  File  De 
    132  .ARM.Collect$$rtentry$$00000002
                                    0x000182b4   Lc    1  Sect  De 
    133  .ARM.Collect$$rtentry$$00000009
                                    0x000182ba   Lc    1  Sect  De 
    134  .ARM.Collect$$rtentry$$0000000A
                                    0x000182ba   Lc    1  Sect  De   0x4
    135  .ARM.Collect$$rtentry$$0000000C
                                    0x000182be   Lc    1  Sect  De 
    136  .ARM.Collect$$rtentry$$0000000D
                                    0x000182be   Lc    1  Sect  De   0x8
    137  ../clib/angel/kernel.s     0x00000000   Lc  Abs  File  De 
    138  .ARM.Collect$$rtentry$$00000004
                                    0x000182b4   Lc    1  Sect  De   0x6
    139  ../clib/angel/rt.s         0x00000000   Lc  Abs  File  De 
    140  ../clib/angel/sys.s        0x00000000   Lc  Abs  File  De 
    141  .text                      0x000183e2   Lc    1  Sect  De   0x4a
    142  ../clib/stdlib.c           0x00000000   Lc  Abs  File  De 
    143  .text                      0x0001842c   Lc    1  Sect  De 
    144  ../clib/signal.c           0x00000000   Lc  Abs  File  De 
    145  ../clib/signal.c           0x00000000   Lc  Abs  File  De 
    146  ../clib/angel/boardlib.s   0x00000000   Lc  Abs  File  De 
    147  ../clib/angel/boardlib.s   0x00000000   Lc  Abs  File  De 
    148  ../clib/angel/boardlib.s   0x00000000   Lc  Abs  File  De 
    149  ../clib/libinit.s          0x00000000   Lc  Abs  File  De 
    150  .ARM.Collect$$libinit$$00000000
                                    0x000182a8   Lc    1  Sect  De   0x2
    151  ../clib/angel/sys.s        0x00000000   Lc  Abs  File  De 
    152  .text                      0x00018440   Lc    1  Sect  De   0x8
    153  .bss                       0x10000018   Lc    3  Sect  De   0x60
    154  ../clib/angel/kernel.s     0x00000000   Lc  Abs  File  De 
    155  .ARM.Collect$$rtexit$$00000000
                                    0x000182c6   Lc    1  Sect  De   0x2
    156  ../clib/angel/rt.s         0x00000000   Lc  Abs  File  De 
    157  ../clib/signal.c           0x00000000   Lc  Abs  File  De 
    158  ../clib/signal.c           0x00000000   Lc  Abs  File  De 
    159  ../clib/libinit.s          0x00000000   Lc  Abs  File  De 
    160  .ARM.Collect$$libinit$$00000001
                                    0x000182aa   Lc    1  Sect  De   0x4
    161  .ARM.Collect$$libinit$$00000004
                                    0x000182ae   Lc    1  Sect  De 
    162  .ARM.Collect$$libinit$$00000006
                                    0x000182ae   Lc    1  Sect  De 
    163  .ARM.Collect$$libinit$$0000000C
                                    0x000182ae   Lc    1  Sect  De 
    164  .ARM.Collect$$libinit$$0000000E
                                    0x000182ae   Lc    1  Sect  De 
    165  .ARM.Collect$$libinit$$00000010
                                    0x000182ae   Lc    1  Sect  De 
    166  .ARM.Collect$$libinit$$00000013
                                    0x000182ae   Lc    1  Sect  De 
    167  .ARM.Collect$$libinit$$00000015
                                    0x000182ae   Lc    1  Sect  De 
    168  .ARM.Collect$$libinit$$00000017
                                    0x000182ae   Lc    1  Sect  De 
    169  .ARM.Collect$$libinit$$00000019
                                    0x000182ae   Lc    1  Sect  De 
    170  .ARM.Collect$$libinit$$0000001B
                                    0x000182ae   Lc    1  Sect  De 
    171  .ARM.Collect$$libinit$$0000001D
                                    0x000182ae   Lc    1  Sect  De 
    172  .ARM.Collect$$libinit$$0000001F
                                    0x000182ae   Lc    1  Sect  De 
    173  .ARM.Collect$$libinit$$00000021
                                    0x000182ae   Lc    1  Sect  De 
    174  .ARM.Collect$$libinit$$00000023
                                    0x000182ae   Lc    1  Sect  De 
    175  .ARM.Collect$$libinit$$00000025
                                    0x000182ae   Lc    1  Sect  De 
    176  .ARM.Collect$$libinit$$00000027
                                    0x000182ae   Lc    1  Sect  De 
    177  .ARM.Collect$$libinit$$0000002E
                                    0x000182ae   Lc    1  Sect  De 
    178  .ARM.Collect$$libinit$$00000030
                                    0x000182ae   Lc    1  Sect  De 
    179  .ARM.Collect$$libinit$$00000032
                                    0x000182ae   Lc    1  Sect  De 
    180  .ARM.Collect$$libinit$$00000034
                                    0x000182ae   Lc    1  Sect  De 
    181  .ARM.Collect$$libinit$$00000035
                                    0x000182ae   Lc    1  Sect  De   0x2
    182  ../clib/angel/sysapp.c     0x00000000   Lc  Abs  File  De 
    183  .text                      0x00018448   Lc    1  Sect  De 
    184  ../clib/angel/sysapp.c     0x00000000   Lc  Abs  File  De 
    185  ../clib/angel/kernel.s     0x00000000   Lc  Abs  File  De 
    186  .ARM.Collect$$rtexit$$00000002
                                    0x000182c8   Lc    1  Sect  De 
    187  .ARM.Collect$$rtexit$$00000003
                                    0x000182c8   Lc    1  Sect  De   0x4
    188  .ARM.Collect$$rtexit$$00000004
                                    0x000182cc   Lc    1  Sect  De   0x6
    189  ../clib/signal.c           0x00000000   Lc  Abs  File  De 
    190  ../clib/signal.c           0x00000000   Lc  Abs  File  De 
    191  ../clib/armsys.c           0x00000000   Lc  Abs  File  De 
    192  ../clib/armsys.c           0x00000000   Lc  Abs  File  De 
    193  ../fplib/fpinit.s          0x00000000   Lc  Abs  File  De 
    194  x$fpl$fpinit               0x00019eba   Lc    1  Sect  De   0x1a
    195  $v0                        0x00019eba   Lc    1   --   De 
    196  ../clib/angel/sysapp.c     0x00000000   Lc  Abs  File  De 
    197  ../clib/angel/sysapp.c     0x00000000   Lc  Abs  File  De 
    198  ../clib/angel/sys.s        0x00000000   Lc  Abs  File  De 
    199  .text                      0x00018454   Lc    1  Sect  De   0x2
    200  ../clib/angel/sys.s        0x00000000   Lc  Abs  File  De 
    201  .text                      0x00018456   Lc    1  Sect  De 
    202  ../clib/signal.s           0x00000000   Lc  Abs  File  De 
    203  ../clib/angel/boardlib.s   0x00000000   Lc  Abs  File  De 
    204  ../clib/armsys.c           0x00000000   Lc  Abs  File  De 
    205  ../clib/armsys.c           0x00000000   Lc  Abs  File  De 
    206  ../clib/libinit.s          0x00000000   Lc  Abs  File  De 
    207  .ARM.Collect$$libshutdown$$00000000
                                    0x000182b0   Lc    1  Sect  De   0x2
    208  ../clib/angel/sysapp.c     0x00000000   Lc  Abs  File  De 
    209  ../clib/angel/sysapp.c     0x00000000   Lc  Abs  File  De 
    210  ../clib/heapalloc.c        0x00000000   Lc  Abs  File  De 
    211  ../clib/signal.c           0x00000000   Lc  Abs  File  De 
    212  ../clib/signal.c           0x00000000   Lc  Abs  File  De 
    213  ../clib/signal.c           0x00000000   Lc  Abs  File  De 
    214  ../clib/signal.c           0x00000000   Lc  Abs  File  De 
    215  ../clib/signal.c           0x00000000   Lc  Abs  File  De 
    216  ../clib/signal.c           0x00000000   Lc  Abs  File  De 
    217  ../clib/signal.c           0x00000000   Lc  Abs  File  De 
    218  ../clib/signal.c           0x00000000   Lc  Abs  File  De 
    219  ../clib/signal.c           0x00000000   Lc  Abs  File  De 
    220  ../clib/signal.c           0x00000000   Lc  Abs  File  De 
    221  ../clib/libinit.s          0x00000000   Lc  Abs  File  De 
    222  .ARM.Collect$$libshutdown$$00000002
                                    0x000182b2   Lc    1  Sect  De 
    223  .ARM.Collect$$libshutdown$$00000004
                                    0x000182b2   Lc    1  Sect  De 
    224  .ARM.Collect$$libshutdown$$00000007
                                    0x000182b2   Lc    1  Sect  De 
    225  .ARM.Collect$$libshutdown$$0000000A
                                    0x000182b2   Lc    1  Sect  De 
    226  .ARM.Collect$$libshutdown$$0000000C
                                    0x000182b2   Lc    1  Sect  De 
    227  .ARM.Collect$$libshutdown$$0000000F
                                    0x000182b2   Lc    1  Sect  De 
    228  .ARM.Collect$$libshutdown$$00000010
                                    0x000182b2   Lc    1  Sect  De   0x2
    229  ../clib/angel/scatter.s    0x00000000   Lc  Abs  File  De 
    230  !!!scatter                 0x0001823c   Lc    1  Sect  De   0x34
    231  ../clib/angel/handlers.s   0x00000000   Lc  Abs  File  De 
    232  !!handler_zi               0x0001828c   Lc    1  Sect  De   0x1c
    233  BuildAttributes$$THM_ISAv4$E$P$D$K$B$S$7EM$VFPi3$EXTD16$VFPS$VFMA$PE$A:L22UL41UL21$X:L11$S22US41US21$IEEE1$IW$~IW$USESV6$~STKCKD$USESV7$~SHL$OTIME$ROPI$EBA8$UX$STANDARDLIB$REQ8$PRES8$EABIv2
                                    0x00000000   Gb  Abs   --   Hi 
    234  __Vectors                  0x00018000   Gb    1  Data  Hi 
    235  __Patchable                0x00018190   Gb    1  Data  Hi 
    236  Reset_Handler              0x00018201   Wk    1  Code  Hi   0x1c
    237  NMI_Handler                0x0001821f   Wk    1  Code  Hi   0x2
    238  MemManage_Handler          0x00018221   Wk    1  Code  Hi   0x2
    239  BusFault_Handler           0x00018223   Wk    1  Code  Hi   0x2
    240  UsageFault_Handler         0x00018225   Wk    1  Code  Hi   0x2
    241  SVC_Handler                0x00018227   Wk    1  Code  Hi   0x2
    242  DebugMon_Handler           0x00018229   Wk    1  Code  Hi   0x2
    243  PendSV_Handler             0x0001822b   Wk    1  Code  Hi   0x2
    244  SysTick_Handler            0x0001822d   Wk    1  Code  Hi   0x2
    245  am_adc_isr                 0x0001822f   Wk    1  Code  Hi 
    246  am_audadc0_isr             0x0001822f   Wk    1  Code  Hi 
    247  am_brownout_isr            0x0001822f   Wk    1  Code  Hi 
    248  am_cachecpu_isr            0x0001822f   Wk    1  Code  Hi 
    249  am_clkgen_isr              0x0001822f   Wk    1  Code  Hi 
    250  am_ctimer_isr              0x0001822f   Wk    1  Code  Hi 
    251  am_disp_isr                0x0001822f   Wk    1  Code  Hi 
    252  am_dsi_isr                 0x0001822f   Wk    1  Code  Hi 
    253  am_dspi2s0_isr             0x0001822f   Wk    1  Code  Hi 
    254  am_dspi2s1_isr             0x0001822f   Wk    1  Code  Hi 
    255  am_dspi2s2_isr             0x0001822f   Wk    1  Code  Hi 
    256  am_dspi2s3_isr             0x0001822f   Wk    1  Code  Hi 
    257  am_gpio0_001f_isr          0x0001822f   Wk    1  Code  Hi 
    258  am_gpio0_203f_isr          0x0001822f   Wk    1  Code  Hi 
    259  am_gpio0_405f_isr          0x0001822f   Wk    1  Code  Hi 
    260  am_gpio0_607f_isr          0x0001822f   Wk    1  Code  Hi 
    261  am_gpio1_001f_isr          0x0001822f   Wk    1  Code  Hi 
    262  am_gpio1_203f_isr          0x0001822f   Wk    1  Code  Hi 
    263  am_gpio1_405f_isr          0x0001822f   Wk    1  Code  Hi 
    264  am_gpio1_607f_isr          0x0001822f   Wk    1  Code  Hi 
    265  am_gpu_isr                 0x0001822f   Wk    1  Code  Hi 
    266  am_iomaster0_isr           0x0001822f   Wk    1  Code  Hi 
    267  am_iomaster1_isr           0x0001822f   Wk    1  Code  Hi 
    268  am_iomaster2_isr           0x0001822f   Wk    1  Code  Hi 
    269  am_iomaster3_isr           0x0001822f   Wk    1  Code  Hi 
    270  am_iomaster4_isr           0x0001822f   Wk    1  Code  Hi 
    271  am_iomaster5_isr           0x0001822f   Wk    1  Code  Hi 
    272  am_iomaster6_isr           0x0001822f   Wk    1  Code  Hi 
    273  am_iomaster7_isr           0x0001822f   Wk    1  Code  Hi 
    274  am_ioslave_acc_isr         0x0001822f   Wk    1  Code  Hi 
    275  am_ioslave_ios_isr         0x0001822f   Wk    1  Code  Hi 
    276  am_mspi0_isr               0x0001822f   Wk    1  Code  Hi 
    277  am_mspi1_isr               0x0001822f   Wk    1  Code  Hi 
    278  am_mspi2_isr               0x0001822f   Wk    1  Code  Hi 
    279  am_pdm0_isr                0x0001822f   Wk    1  Code  Hi 
    280  am_pdm1_isr                0x0001822f   Wk    1  Code  Hi 
    281  am_pdm2_isr                0x0001822f   Wk    1  Code  Hi 
    282  am_pdm3_isr                0x0001822f   Wk    1  Code  Hi 
    283  am_rtc_isr                 0x0001822f   Wk    1  Code  Hi 
    284  am_sdio_isr                0x0001822f   Wk    1  Code  Hi 
    285  am_stimer_cmpr0_isr        0x0001822f   Wk    1  Code  Hi 
    286  am_stimer_cmpr1_isr        0x0001822f   Wk    1  Code  Hi 
    287  am_stimer_cmpr2_isr        0x0001822f   Wk    1  Code  Hi 
    288  am_stimer_cmpr3_isr        0x0001822f   Wk    1  Code  Hi 
    289  am_stimer_cmpr4_isr        0x0001822f   Wk    1  Code  Hi 
    290  am_stimer_cmpr5_isr        0x0001822f   Wk    1  Code  Hi 
    291  am_stimer_cmpr6_isr        0x0001822f   Wk    1  Code  Hi 
    292  am_stimer_cmpr7_isr        0x0001822f   Wk    1  Code  Hi 
    293  am_stimerof_isr            0x0001822f   Wk    1  Code  Hi 
    294  am_timer01_isr             0x0001822f   Wk    1  Code  Hi 
    295  am_timer02_isr             0x0001822f   Wk    1  Code  Hi 
    296  am_timer03_isr             0x0001822f   Wk    1  Code  Hi 
    297  am_timer04_isr             0x0001822f   Wk    1  Code  Hi 
    298  am_timer05_isr             0x0001822f   Wk    1  Code  Hi 
    299  am_timer06_isr             0x0001822f   Wk    1  Code  Hi 
    300  am_timer07_isr             0x0001822f   Wk    1  Code  Hi 
    301  am_timer08_isr             0x0001822f   Wk    1  Code  Hi 
    302  am_timer09_isr             0x0001822f   Wk    1  Code  Hi 
    303  am_timer10_isr             0x0001822f   Wk    1  Code  Hi 
    304  am_timer11_isr             0x0001822f   Wk    1  Code  Hi 
    305  am_timer12_isr             0x0001822f   Wk    1  Code  Hi 
    306  am_timer13_isr             0x0001822f   Wk    1  Code  Hi 
    307  am_timer14_isr             0x0001822f   Wk    1  Code  Hi 
    308  am_timer15_isr             0x0001822f   Wk    1  Code  Hi 
    309  am_uart1_isr               0x0001822f   Wk    1  Code  Hi 
    310  am_uart2_isr               0x0001822f   Wk    1  Code  Hi 
    311  am_uart3_isr               0x0001822f   Wk    1  Code  Hi 
    312  am_uart_isr                0x0001822f   Wk    1  Code  Hi 
    313  am_usb_isr                 0x0001822f   Wk    1  Code  Hi 
    314  am_vcomp_isr               0x0001822f   Wk    1  Code  Hi 
    315  am_watchdog_isr            0x0001822f   Wk    1  Code  Hi 
    316  __main                     0x00018235   Gb    1  Code  Hi   0x8
    317  __scatterload              0x0001823d   Gb    1  Code  Hi 
    318  __scatterload_rt2          0x0001823d   Gb    1  Code  Hi   0x2c
    319  __scatterload_rt2_thumb_only
                                    0x0001823d   Gb    1  Code  Hi 
    320  __scatterload_null         0x0001824b   Gb    1  Code  Hi 
    321  __scatterload_copy         0x00018271   Gb    1  Code  Hi   0x1a
    322  __scatterload_zeroinit     0x0001828d   Gb    1  Code  Hi   0x1c
    323  __rt_lib_init              0x000182a9   Gb    1  Code  De 
    324  __rt_lib_init_fp_1         0x000182ab   Gb    1  Code  Hi 
    325  __rt_lib_init_alloca_1     0x000182af   Gb    1  Code  Hi 
    326  __rt_lib_init_argv_1       0x000182af   Gb    1  Code  Hi 
    327  __rt_lib_init_atexit_1     0x000182af   Gb    1  Code  Hi 
    328  __rt_lib_init_clock_1      0x000182af   Gb    1  Code  Hi 
    329  __rt_lib_init_cpp_1        0x000182af   Gb    1  Code  Hi 
    330  __rt_lib_init_exceptions_1 0x000182af   Gb    1  Code  Hi 
    331  __rt_lib_init_fp_trap_1    0x000182af   Gb    1  Code  Hi 
    332  __rt_lib_init_getenv_1     0x000182af   Gb    1  Code  Hi 
    333  __rt_lib_init_heap_1       0x000182af   Gb    1  Code  Hi 
    334  __rt_lib_init_lc_collate_1 0x000182af   Gb    1  Code  Hi 
    335  __rt_lib_init_lc_ctype_1   0x000182af   Gb    1  Code  Hi 
    336  __rt_lib_init_lc_monetary_1
                                    0x000182af   Gb    1  Code  Hi 
    337  __rt_lib_init_lc_numeric_1 0x000182af   Gb    1  Code  Hi 
    338  __rt_lib_init_lc_time_1    0x000182af   Gb    1  Code  Hi 
    339  __rt_lib_init_preinit_1    0x000182af   Gb    1  Code  Hi 
    340  __rt_lib_init_rand_1       0x000182af   Gb    1  Code  Hi 
    341  __rt_lib_init_relocate_pie_1
                                    0x000182af   Gb    1  Code  Hi 
    342  __rt_lib_init_return       0x000182af   Gb    1  Code  Hi 
    343  __rt_lib_init_signal_1     0x000182af   Gb    1  Code  Hi 
    344  __rt_lib_init_stdio_1      0x000182af   Gb    1  Code  Hi 
    345  __rt_lib_init_user_alloc_1 0x000182af   Gb    1  Code  Hi 
    346  __rt_lib_shutdown          0x000182b1   Gb    1  Code  De 
    347  __rt_lib_shutdown_cpp_1    0x000182b3   Gb    1  Code  Hi 
    348  __rt_lib_shutdown_fp_trap_1
                                    0x000182b3   Gb    1  Code  Hi 
    349  __rt_lib_shutdown_heap_1   0x000182b3   Gb    1  Code  Hi 
    350  __rt_lib_shutdown_return   0x000182b3   Gb    1  Code  Hi 
    351  __rt_lib_shutdown_signal_1 0x000182b3   Gb    1  Code  Hi 
    352  __rt_lib_shutdown_stdio_1  0x000182b3   Gb    1  Code  Hi 
    353  __rt_lib_shutdown_user_alloc_1
                                    0x000182b3   Gb    1  Code  Hi 
    354  __rt_entry                 0x000182b5   Gb    1  Code  Hi 
    355  __rt_entry_presh_1         0x000182b5   Gb    1  Code  Hi 
    356  __rt_entry_sh              0x000182b5   Gb    1  Code  Hi 
    357  __rt_entry_li              0x000182bb   Gb    1  Code  Hi 
    358  __rt_entry_postsh_1        0x000182bb   Gb    1  Code  Hi 
    359  __rt_entry_main            0x000182bf   Gb    1  Code  Hi 
    360  __rt_entry_postli_1        0x000182bf   Gb    1  Code  Hi 
    361  __rt_exit                  0x000182c7   Gb    1  Code  De 
    362  __rt_exit_ls               0x000182c9   Gb    1  Code  Hi 
    363  __rt_exit_prels_1          0x000182c9   Gb    1  Code  Hi 
    364  __rt_exit_exit             0x000182cd   Gb    1  Code  Hi 
    365  __user_initial_stackheap   0x000182d5   Gb    1  Code  Hi   0xa
    366  __aeabi_uldivmod           0x000182ed   Gb    1  Code  De 
    367  _ll_udiv                   0x000182ed   Gb    1  Code  De   0xf0
    368  __use_two_region_memory    0x000183dd   Gb    1  Code  Hi   0x2
    369  __rt_heap_escrow$2region   0x000183df   Gb    1  Code  De   0x2
    370  __rt_heap_expand$2region   0x000183e1   Gb    1  Code  De   0x2
    371  __user_setup_stackheap     0x000183e3   Gb    1  Code  De   0x4a
    372  exit                       0x0001842d   Gb    1  Code  De   0x12
    373  __user_libspace            0x00018441   Wk    1  Code  De   0x8
    374  __user_perproc_libspace    0x00018441   Wk    1  Code  De 
    375  __user_perthread_libspace  0x00018441   Wk    1  Code  De 
    376  _sys_exit                  0x00018449   Gb    1  Code  De   0x8
    377  __I$use$semihosting        0x00018455   Gb    1  Code  Hi 
    378  __use_no_semihosting_swi   0x00018455   Gb    1  Code  Hi   0x2
    379  __semihosting_library_function
                                    0x00018457   Gb    1  Code  Hi 
    380  HardFault_Handler          0x00018459   Gb    1  Code  Hi   0x1e
    381  am_bsp_low_power_init      0x000184f1   Gb    1  Code  Hi   0x2e
    382  am_getStackedReg           0x00018521   Gb    1  Code  Hi   0x12
    383  am_hal_cachectrl_config    0x00018535   Gb    1  Code  Hi   0x44
    384  am_hal_cachectrl_enable    0x00018579   Gb    1  Code  Hi   0x1e
    385  am_hal_clkgen_control      0x00018599   Gb    1  Code  Hi   0x348
    386  am_hal_daxi_config         0x000188e1   Gb    1  Code  Hi   0xac
    387  am_hal_daxi_control        0x0001898d   Gb    1  Code  Hi   0x116
    388  am_hal_delay_us            0x00018aa5   Gb    1  Code  Hi   0x36
    389  am_hal_delay_us_status_change
                                    0x00018add   Gb    1  Code  Hi   0x58
    390  am_hal_delay_us_status_check
                                    0x00018b35   Gb    1  Code  Hi   0x98
    391  am_hal_fault_status_get    0x00018bcd   Gb    1  Code  Hi   0x3a
    392  am_hal_gpio_pinconfig      0x00018c09   Gb    1  Code  Hi   0x56
    393  am_hal_gpio_state_write    0x00018c61   Gb    1  Code  Hi   0x10a
    394  am_hal_interrupt_master_disable
                                    0x00018d6d   Gb    1  Code  Hi   0x8
    395  am_hal_interrupt_master_enable
                                    0x00018d75   Gb    1  Code  Hi   0x8
    396  am_hal_interrupt_master_set
                                    0x00018d7d   Gb    1  Code  Hi   0x6
    397  am_hal_mcuctrl_control     0x00018d85   Gb    1  Code  Hi   0x2c2
    398  am_hal_mram_info_read      0x00019049   Gb    1  Code  Hi   0xb0
    399  am_hal_pwrctrl_control     0x000190f9   Gb    1  Code  Hi   0x21c
    400  am_hal_pwrctrl_low_power_init
                                    0x00019315   Gb    1  Code  Hi   0x16a
    401  am_hal_pwrctrl_mcu_memory_config
                                    0x00019481   Gb    1  Code  Hi   0x10e
    402  am_hal_pwrctrl_periph_disable
                                    0x00019591   Gb    1  Code  Hi   0x130
    403  am_hal_pwrctrl_sram_config 0x000196c1   Gb    1  Code  Hi   0xc6
    404  am_hal_rtc_osc_disable     0x00019789   Gb    1  Code  Hi   0x14
    405  am_hal_sysctrl_sleep       0x0001979d   Gb    1  Code  Hi   0x106
    406  am_hal_timer_clear         0x000198a5   Gb    1  Code  Hi   0x42
    407  am_hal_timer_config        0x000198e9   Gb    1  Code  Hi   0x4
    408  am_hal_timer_default_config_set
                                    0x000198ed   Gb    1  Code  Hi   0x20
    409  am_hal_timer_enable        0x0001990d   Gb    1  Code  Hi   0x52
    410  am_hal_timer_interrupt_clear
                                    0x00019961   Gb    1  Code  Hi   0x10
    411  am_hal_timer_interrupt_enable
                                    0x00019971   Gb    1  Code  Hi   0x12
    412  am_timer00_isr             0x00019985   Gb    1  Code  Hi   0x2c
    413  am_util_delay_us           0x000199b1   Gb    1  Code  Hi   0x10
    414  am_util_faultisr_collect_data
                                    0x000199c1   Gb    1  Code  Hi   0xd6
    415  am_valid_sp                0x00019a99   Gb    1  Code  Hi   0x36
    416  buck_ldo_update_override   0x00019ad1   Gb    1  Code  Hi   0x2a
    417  crypto_boost_trims         0x00019afd   Gb    1  Code  Hi   0xc8
    418  internal_timer_config      0x00019c09   Gb    1  Code  Hi   0xa8
    419  main                       0x00019cb1   Gb    1  Code  Hi   0xc2
    420  pwrctrl_set_low_power      0x00019d75   Gb    1  Code  Hi   0xb8
    421  timer_init                 0x00019e41   Gb    1  Code  Hi   0x7a
    422  _fp_init                   0x00019ebb   Gb    1  Code  De   0x1a
    423  __fplib_config_fpu_vfp     0x00019ed3   Gb    1  Code  De 
    424  __fplib_config_pureend_doubles
                                    0x00019ed3   Gb    1  Code  De 
    425  am_hal_cachectrl_defaults  0x00019eda   Gb    1  Data  Hi   0x3
    426  am_hal_daxi_defaults       0x00019edd   Gb    1  Data  Hi   0x5
    427  am_hal_gpio_pincfg_output  0x00019ee4   Gb    1  Data  Hi   0x4
    428  am_hal_pwrctrl_peripheral_control
                                    0x00019ee8   Gb    1  Data  Hi   0x220
    429  g_DefaultMcuMemCfg         0x0001a108   Gb    1  Data  Hi   0x6
    430  g_DefaultSRAMCfg           0x0001a10e   Gb    1  Data  Hi   0x6
    431  g_amHalMcuctrlArgDefault   0x0001a114   Gb    1  Data  Hi   0x8
    432  g_am_hal_bootrom_helper    0x0001a11c   Gb    1  Data  Hi   0x28
    433  sGlobalAccess              0x0001a144   Gb    1  Data  Hi   0x1c
    434  tReComputeCtrlDefault      0x0001a170   Gb    1  Data  Hi   0x20
    435  ui32DSP0Allowed            0x0001a190   Gb    1  Data  Hi   0x14
    436  ui32DSP1Allowed            0x0001a1a4   Gb    1  Data  Hi   0x14
    437  ui32MCUAllowed             0x0001a1b8   Gb    1  Data  Hi   0x14
    438  ui32SharedAccess           0x0001a1cc   Gb    1  Data  Hi   0x14
    439  Region$$Table$$Base        0x0001a1e0   Gb    1   --   Hi 
    440  Region$$Table$$Limit       0x0001a210   Gb    1   --   Hi 
    441  g_ui32TrimVer              0x10000000   Gb    2  Data  Hi   0x4
    442  g_ui32origSimobuckVDDStrim 0x10000004   Gb    2  Data  Hi   0x4
    443  g_ui32xtalhscap2trim       0x10000008   Gb    2  Data  Hi   0x4
    444  g_ui32xtalhscaptrim        0x1000000c   Gb    2  Data  Hi   0x4
    445  gDaxiConfig                0x10000010   Gb    2  Data  Hi   0x5
    446  __libspace_start           0x10000018   Gb    3  Data  De   0x60
    447  __temporary_stack_top$libspace
                                    0x10000078   Gb    3  Data  De 
    448  am_hal_xtal_users          0x100000a8   Gb    3  Data  Hi   0xc
    449  gFaultStack                0x100000b8   Gb    3  Data  Hi   0x200
    450  psGlobalAccessPtr          0x10060000   Gb    4  Data  Hi   0x4
    451  ui32MCUClaimed             0x10060004   Gb    4  Data  Hi   0x14
    452  ui32DSP0Claimed            0x10060018   Gb    4  Data  Hi   0x14
    453  ui32DSP1Claimed            0x1006002c   Gb    4  Data  Hi   0x14


** Section #12 '.strtab' (SHT_STRTAB)
    Size   : 7556 bytes

            #  Offset String
        ====================================

            1      1: $d
            2      4: $t
            3      7: $t.0
            4     12: $d.4
            5     17: $t.3
            6     22: $d.3
            7     27: $t.4
            8     32: $d.9
            9     37: $t.10
           10     43: $d.5
           11     48: $t.6
           12     53: $d.2
           13     58: $d.22
           14     64: $t.23
           15     70: $d.7
           16     75: $t.8
           17     80: $d.1
           18     85: $t.2
           19     90: $d.realdata
           20    102: am_resources.c
           21    117: __tagsym$$used.0
           22    134: __tagsym$$used.1
           23    151: __tagsym$$used.2
           24    168: __tagsym$$used.3
           25    185: __tagsym$$used.4
           26    202: __tagsym$$used.5
           27    219: __tagsym$$used.6
           28    236: __tagsym$$used.7
           29    253: __tagsym$$used.8
           30    270: pwr_32mhz.c
           31    282: timerCallback
           32    296: hfrc2_init
           33    307: g_tGlb
           34    314: pwr_control_utils.c
           35    334: SRAMMemCfg
           36    345: pwr_gpio_utils.c
           37    362: pwr_timer_utils.c
           38    380: __NVIC_SetPriority
           39    399: __NVIC_EnableIRQ
           40    416: pfnTimerCallbackFcn
           41    436: am_util_delay.c
           42    452: am_util_faultisr.c
           43    471: am_util_id.c
           44    484: am_util_stdio.c
           45    500: am_devices_led.c
           46    517: ../keil6/startup_keil6.s
           47    542: STACK
           48    548: StackMem
           49    557: HEAP
           50    562: HeapMem
           51    570: RESET
           52    576: $v0
           53    580: am_cryptosec_isr
           54    597: am_default_isr
           55    612: .text
           56    618: am_hal_gpio.c
           57    632: g_ui32DSpintbl
           58    647: am_hal_pwrctrl.c
           59    664: .L_MergedGlobals
           60    681: .L_MergedGlobals.1
           61    700: g_bBoostForCryptoApplied
           62    725: g_bOrigTrimsStored
           63    744: g_bTempcoValid
           64    759: g_i32LatestVddfActTrim
           65    782: g_i32LatestLDOActTrim
           66    804: g_ui32VDDFAdjustCodes
           67    826: g_orig_ACTTRIMVDDF
           68    845: g_orig_MEMLDOACTIVETRIM
           69    869: g_orig_LPTRIMVDDF
           70    887: g_orig_MEMLPLDOTRIM
           71    907: g_orig_TVRGVREFTRIM
           72    927: g_orig_CORELDOACTIVETRIM
           73    952: g_pfTempMeasured
           74    969: g_TempcoADCHandle
           75    987: am_hal_timer.c
           76   1002: am_hal_cachectrl.c
           77   1021: am_hal_clkgen.c
           78   1037: am_hal_fault.c
           79   1052: am_hal_interrupt.c
           80   1071: am_hal_mcuctrl.c
           81   1088: am_hal_sysctrl.c
           82   1105: am_hal_utils.c
           83   1120: am_bsp.c
           84   1129: am_hal_adc.c
           85   1142: am_hal_dcu.c
           86   1155: am_hal_global.c
           87   1171: am_hal_pin.c
           88   1184: am_hal_bootrom_helper.c
           89   1208: am_hal_itm.c
           90   1221: am_hal_mram.c
           91   1235: am_hal_rtc.c
           92   1248: am_hal_tpiu.c
           93   1262: am_hal_uart.c
           94   1276: am_bsp_pins.c
           95   1290: am_hal_queue.c
           96   1305: dc.s
           97   1310: ../clib/longlong.s
           98   1329: ../clib/heapaux.c
           99   1347: ../clib/angel/startup.s
          100   1371: !!!main
          101   1379: ../clib/angel/handlers.s
          102   1404: !!handler_copy
          103   1419: ../fplib/d2f.s
          104   1434: ../clib/angel/kernel.s
          105   1457: .ARM.Collect$$rtentry$$00000000
          106   1489: ../clib/angel/rt.s
          107   1508: ../fplib/dnaninf.s
          108   1527: ../fplib/fretinf.s
          109   1546: ../fplib/usenofp.s
          110   1565: .ARM.Collect$$rtentry$$00000002
          111   1597: .ARM.Collect$$rtentry$$00000009
          112   1629: .ARM.Collect$$rtentry$$0000000A
          113   1661: .ARM.Collect$$rtentry$$0000000C
          114   1693: .ARM.Collect$$rtentry$$0000000D
          115   1725: .ARM.Collect$$rtentry$$00000004
          116   1757: ../clib/angel/sys.s
          117   1777: ../clib/stdlib.c
          118   1794: ../clib/signal.c
          119   1811: ../clib/angel/boardlib.s
          120   1836: ../clib/libinit.s
          121   1854: .ARM.Collect$$libinit$$00000000
          122   1886: .bss
          123   1891: .ARM.Collect$$rtexit$$00000000
          124   1922: .ARM.Collect$$libinit$$00000001
          125   1954: .ARM.Collect$$libinit$$00000004
          126   1986: .ARM.Collect$$libinit$$00000006
          127   2018: .ARM.Collect$$libinit$$0000000C
          128   2050: .ARM.Collect$$libinit$$0000000E
          129   2082: .ARM.Collect$$libinit$$00000010
          130   2114: .ARM.Collect$$libinit$$00000013
          131   2146: .ARM.Collect$$libinit$$00000015
          132   2178: .ARM.Collect$$libinit$$00000017
          133   2210: .ARM.Collect$$libinit$$00000019
          134   2242: .ARM.Collect$$libinit$$0000001B
          135   2274: .ARM.Collect$$libinit$$0000001D
          136   2306: .ARM.Collect$$libinit$$0000001F
          137   2338: .ARM.Collect$$libinit$$00000021
          138   2370: .ARM.Collect$$libinit$$00000023
          139   2402: .ARM.Collect$$libinit$$00000025
          140   2434: .ARM.Collect$$libinit$$00000027
          141   2466: .ARM.Collect$$libinit$$0000002E
          142   2498: .ARM.Collect$$libinit$$00000030
          143   2530: .ARM.Collect$$libinit$$00000032
          144   2562: .ARM.Collect$$libinit$$00000034
          145   2594: .ARM.Collect$$libinit$$00000035
          146   2626: ../clib/angel/sysapp.c
          147   2649: .ARM.Collect$$rtexit$$00000002
          148   2680: .ARM.Collect$$rtexit$$00000003
          149   2711: .ARM.Collect$$rtexit$$00000004
          150   2742: ../clib/armsys.c
          151   2759: ../fplib/fpinit.s
          152   2777: x$fpl$fpinit
          153   2790: ../clib/signal.s
          154   2807: .ARM.Collect$$libshutdown$$00000000
          155   2843: ../clib/heapalloc.c
          156   2863: .ARM.Collect$$libshutdown$$00000002
          157   2899: .ARM.Collect$$libshutdown$$00000004
          158   2935: .ARM.Collect$$libshutdown$$00000007
          159   2971: .ARM.Collect$$libshutdown$$0000000A
          160   3007: .ARM.Collect$$libshutdown$$0000000C
          161   3043: .ARM.Collect$$libshutdown$$0000000F
          162   3079: .ARM.Collect$$libshutdown$$00000010
          163   3115: ../clib/angel/scatter.s
          164   3139: !!!scatter
          165   3150: !!handler_zi
          166   3163: BuildAttributes$$THM_ISAv4$E$P$D$K$B$S$7EM$VFPi3$EXTD16$VFPS$VFMA$PE$A:L22UL41UL21$X:L11$S22US41US21$IEEE1$IW$~IW$USESV6$~STKCKD$USESV7$~SHL$OTIME$ROPI$EBA8$UX$STANDARDLIB$REQ8$PRES8$EABIv2
          167   3353: __Vectors
          168   3363: __Patchable
          169   3375: Reset_Handler
          170   3389: NMI_Handler
          171   3401: MemManage_Handler
          172   3419: BusFault_Handler
          173   3436: UsageFault_Handler
          174   3455: SVC_Handler
          175   3467: DebugMon_Handler
          176   3484: PendSV_Handler
          177   3499: SysTick_Handler
          178   3515: am_adc_isr
          179   3526: am_audadc0_isr
          180   3541: am_brownout_isr
          181   3557: am_cachecpu_isr
          182   3573: am_clkgen_isr
          183   3587: am_ctimer_isr
          184   3601: am_disp_isr
          185   3613: am_dsi_isr
          186   3624: am_dspi2s0_isr
          187   3639: am_dspi2s1_isr
          188   3654: am_dspi2s2_isr
          189   3669: am_dspi2s3_isr
          190   3684: am_gpio0_001f_isr
          191   3702: am_gpio0_203f_isr
          192   3720: am_gpio0_405f_isr
          193   3738: am_gpio0_607f_isr
          194   3756: am_gpio1_001f_isr
          195   3774: am_gpio1_203f_isr
          196   3792: am_gpio1_405f_isr
          197   3810: am_gpio1_607f_isr
          198   3828: am_gpu_isr
          199   3839: am_iomaster0_isr
          200   3856: am_iomaster1_isr
          201   3873: am_iomaster2_isr
          202   3890: am_iomaster3_isr
          203   3907: am_iomaster4_isr
          204   3924: am_iomaster5_isr
          205   3941: am_iomaster6_isr
          206   3958: am_iomaster7_isr
          207   3975: am_ioslave_acc_isr
          208   3994: am_ioslave_ios_isr
          209   4013: am_mspi0_isr
          210   4026: am_mspi1_isr
          211   4039: am_mspi2_isr
          212   4052: am_pdm0_isr
          213   4064: am_pdm1_isr
          214   4076: am_pdm2_isr
          215   4088: am_pdm3_isr
          216   4100: am_rtc_isr
          217   4111: am_sdio_isr
          218   4123: am_stimer_cmpr0_isr
          219   4143: am_stimer_cmpr1_isr
          220   4163: am_stimer_cmpr2_isr
          221   4183: am_stimer_cmpr3_isr
          222   4203: am_stimer_cmpr4_isr
          223   4223: am_stimer_cmpr5_isr
          224   4243: am_stimer_cmpr6_isr
          225   4263: am_stimer_cmpr7_isr
          226   4283: am_stimerof_isr
          227   4299: am_timer01_isr
          228   4314: am_timer02_isr
          229   4329: am_timer03_isr
          230   4344: am_timer04_isr
          231   4359: am_timer05_isr
          232   4374: am_timer06_isr
          233   4389: am_timer07_isr
          234   4404: am_timer08_isr
          235   4419: am_timer09_isr
          236   4434: am_timer10_isr
          237   4449: am_timer11_isr
          238   4464: am_timer12_isr
          239   4479: am_timer13_isr
          240   4494: am_timer14_isr
          241   4509: am_timer15_isr
          242   4524: am_uart1_isr
          243   4537: am_uart2_isr
          244   4550: am_uart3_isr
          245   4563: am_uart_isr
          246   4575: am_usb_isr
          247   4586: am_vcomp_isr
          248   4599: am_watchdog_isr
          249   4615: __main
          250   4622: __scatterload
          251   4636: __scatterload_rt2
          252   4654: __scatterload_rt2_thumb_only
          253   4683: __scatterload_null
          254   4702: __scatterload_copy
          255   4721: __scatterload_zeroinit
          256   4744: __rt_lib_init
          257   4758: __rt_lib_init_fp_1
          258   4777: __rt_lib_init_alloca_1
          259   4800: __rt_lib_init_argv_1
          260   4821: __rt_lib_init_atexit_1
          261   4844: __rt_lib_init_clock_1
          262   4866: __rt_lib_init_cpp_1
          263   4886: __rt_lib_init_exceptions_1
          264   4913: __rt_lib_init_fp_trap_1
          265   4937: __rt_lib_init_getenv_1
          266   4960: __rt_lib_init_heap_1
          267   4981: __rt_lib_init_lc_collate_1
          268   5008: __rt_lib_init_lc_ctype_1
          269   5033: __rt_lib_init_lc_monetary_1
          270   5061: __rt_lib_init_lc_numeric_1
          271   5088: __rt_lib_init_lc_time_1
          272   5112: __rt_lib_init_preinit_1
          273   5136: __rt_lib_init_rand_1
          274   5157: __rt_lib_init_relocate_pie_1
          275   5186: __rt_lib_init_return
          276   5207: __rt_lib_init_signal_1
          277   5230: __rt_lib_init_stdio_1
          278   5252: __rt_lib_init_user_alloc_1
          279   5279: __rt_lib_shutdown
          280   5297: __rt_lib_shutdown_cpp_1
          281   5321: __rt_lib_shutdown_fp_trap_1
          282   5349: __rt_lib_shutdown_heap_1
          283   5374: __rt_lib_shutdown_return
          284   5399: __rt_lib_shutdown_signal_1
          285   5426: __rt_lib_shutdown_stdio_1
          286   5452: __rt_lib_shutdown_user_alloc_1
          287   5483: __rt_entry
          288   5494: __rt_entry_presh_1
          289   5513: __rt_entry_sh
          290   5527: __rt_entry_li
          291   5541: __rt_entry_postsh_1
          292   5561: __rt_entry_main
          293   5577: __rt_entry_postli_1
          294   5597: __rt_exit
          295   5607: __rt_exit_ls
          296   5620: __rt_exit_prels_1
          297   5638: __rt_exit_exit
          298   5653: __user_initial_stackheap
          299   5678: __aeabi_uldivmod
          300   5695: _ll_udiv
          301   5704: __use_two_region_memory
          302   5728: __rt_heap_escrow$2region
          303   5753: __rt_heap_expand$2region
          304   5778: __user_setup_stackheap
          305   5801: exit
          306   5806: __user_libspace
          307   5822: __user_perproc_libspace
          308   5846: __user_perthread_libspace
          309   5872: _sys_exit
          310   5882: __I$use$semihosting
          311   5902: __use_no_semihosting_swi
          312   5927: __semihosting_library_function
          313   5958: HardFault_Handler
          314   5976: am_bsp_low_power_init
          315   5998: am_getStackedReg
          316   6015: am_hal_cachectrl_config
          317   6039: am_hal_cachectrl_enable
          318   6063: am_hal_clkgen_control
          319   6085: am_hal_daxi_config
          320   6104: am_hal_daxi_control
          321   6124: am_hal_delay_us
          322   6140: am_hal_delay_us_status_change
          323   6170: am_hal_delay_us_status_check
          324   6199: am_hal_fault_status_get
          325   6223: am_hal_gpio_pinconfig
          326   6245: am_hal_gpio_state_write
          327   6269: am_hal_interrupt_master_disable
          328   6301: am_hal_interrupt_master_enable
          329   6332: am_hal_interrupt_master_set
          330   6360: am_hal_mcuctrl_control
          331   6383: am_hal_mram_info_read
          332   6405: am_hal_pwrctrl_control
          333   6428: am_hal_pwrctrl_low_power_init
          334   6458: am_hal_pwrctrl_mcu_memory_config
          335   6491: am_hal_pwrctrl_periph_disable
          336   6521: am_hal_pwrctrl_sram_config
          337   6548: am_hal_rtc_osc_disable
          338   6571: am_hal_sysctrl_sleep
          339   6592: am_hal_timer_clear
          340   6611: am_hal_timer_config
          341   6631: am_hal_timer_default_config_set
          342   6663: am_hal_timer_enable
          343   6683: am_hal_timer_interrupt_clear
          344   6712: am_hal_timer_interrupt_enable
          345   6742: am_timer00_isr
          346   6757: am_util_delay_us
          347   6774: am_util_faultisr_collect_data
          348   6804: am_valid_sp
          349   6816: buck_ldo_update_override
          350   6841: crypto_boost_trims
          351   6860: internal_timer_config
          352   6882: main
          353   6887: pwrctrl_set_low_power
          354   6909: timer_init
          355   6920: _fp_init
          356   6929: __fplib_config_fpu_vfp
          357   6952: __fplib_config_pureend_doubles
          358   6983: am_hal_cachectrl_defaults
          359   7009: am_hal_daxi_defaults
          360   7030: am_hal_gpio_pincfg_output
          361   7056: am_hal_pwrctrl_peripheral_control
          362   7090: g_DefaultMcuMemCfg
          363   7109: g_DefaultSRAMCfg
          364   7126: g_amHalMcuctrlArgDefault
          365   7151: g_am_hal_bootrom_helper
          366   7175: sGlobalAccess
          367   7189: tReComputeCtrlDefault
          368   7211: ui32DSP0Allowed
          369   7227: ui32DSP1Allowed
          370   7243: ui32MCUAllowed
          371   7258: ui32SharedAccess
          372   7275: Region$$Table$$Base
          373   7295: Region$$Table$$Limit
          374   7316: g_ui32TrimVer
          375   7330: g_ui32origSimobuckVDDStrim
          376   7357: g_ui32xtalhscap2trim
          377   7378: g_ui32xtalhscaptrim
          378   7398: gDaxiConfig
          379   7410: __libspace_start
          380   7427: __temporary_stack_top$libspace
          381   7458: am_hal_xtal_users
          382   7476: gFaultStack
          383   7488: psGlobalAccessPtr
          384   7506: ui32MCUClaimed
          385   7521: ui32DSP0Claimed
          386   7537: ui32DSP1Claimed
          387   7553: 
          388   7554: 
          389   7555: 


** Section #13 '.note' (SHT_NOTE)
    Size   : 32 bytes (alignment 4)


** Section #14 '.comment' (SHT_PROGBITS)
    Size   : 1704 bytes


** Section #15 '.shstrtab' (SHT_STRTAB)
    Size   : 148 bytes

            #  Offset String
        ====================================

            1      1: MCU_MRAM
            2     10: MCU_TCM
            3     18: SHARED_SRAM
            4     30: .debug_abbrev
            5     44: .debug_frame
            6     57: .debug_info
            7     69: .debug_line
            8     81: .debug_ranges
            9     95: .debug_str
           10    106: .symtab
           11    114: .strtab
           12    122: .note
           13    128: .comment
           14    137: .shstrtab
           15    147: 


