
========================================================================

** ELF Header Information

    File Name: bin\ios_fifo.axf

    Machine class: ELFCLASS32 (32-bit)
    Data encoding: ELFDATA2LSB (Little endian)
    Header version: EV_CURRENT (Current version)
    Operating System ABI: none
    ABI Version: 0
    File Type: ET_EXEC (Executable) (2)
    Machine: EM_ARM (ARM)

    Image Entry point: 0x00018235
    Flags: EF_ARM_HASENTRY + EF_ARM_ABI_FLOAT_HARD (0x05000402)

    ARM ELF revision: 5 (ABI version 2)

    Conforms to Hard float procedure-call standard

    Built with
    Component: Arm Compiler for Embedded 6.19 Tool: armasm [5e73cb00]
    Component: Arm Compiler for Embedded 6.19 Tool: armlink [5e73cb00]

    Header size: 52 bytes (0x34)
    Program header entry size: 32 bytes (0x20)
    Section header entry size: 40 bytes (0x28)

    Program header entries: 1
    Section header entries: 16

    Program header offset: 69444 (0x00010f44)
    Section header offset: 69476 (0x00010f64)

    Section header string table index: 15

========================================================================

** Program header #0 (PT_LOAD) [PF_X + PF_W + PF_R + PF_ARM_ENTRY]
    Size : 22544 bytes (15640 bytes in file)
    Virtual address: 0x00018000 (Alignment 8)


========================================================================

** Section #1 'MCU_MRAM' (SHT_PROGBITS) [SHF_ALLOC + SHF_EXECINSTR]
    Size   : 15436 bytes (alignment 4)
    Address: 0x00018000

    $d
    RESET
    __Vectors
        0x00018000:    10001b80    ....    DCD    268442496
        0x00018004:    00018201    ....    DCD    98817
        0x00018008:    0001821f    ....    DCD    98847
        0x0001800c:    0001821d    ....    DCD    98845
        0x00018010:    00018221    !...    DCD    98849
        0x00018014:    00018223    #...    DCD    98851
        0x00018018:    00018225    %...    DCD    98853
        0x0001801c:    00000000    ....    DCD    0
        0x00018020:    00000000    ....    DCD    0
        0x00018024:    00000000    ....    DCD    0
        0x00018028:    00000000    ....    DCD    0
        0x0001802c:    00018227    '...    DCD    98855
        0x00018030:    00018229    )...    DCD    98857
        0x00018034:    00000000    ....    DCD    0
        0x00018038:    0001822b    +...    DCD    98859
        0x0001803c:    0001822d    -...    DCD    98861
        0x00018040:    0001822f    /...    DCD    98863
        0x00018044:    0001822f    /...    DCD    98863
        0x00018048:    0001822f    /...    DCD    98863
        0x0001804c:    0001822f    /...    DCD    98863
        0x00018050:    00019d75    u...    DCD    105845
        0x00018054:    0001822f    /...    DCD    98863
        0x00018058:    0001822f    /...    DCD    98863
        0x0001805c:    0001822f    /...    DCD    98863
        0x00018060:    0001822f    /...    DCD    98863
        0x00018064:    0001822f    /...    DCD    98863
        0x00018068:    0001822f    /...    DCD    98863
        0x0001806c:    0001822f    /...    DCD    98863
        0x00018070:    0001822f    /...    DCD    98863
        0x00018074:    0001822f    /...    DCD    98863
        0x00018078:    0001822f    /...    DCD    98863
        0x0001807c:    0001822f    /...    DCD    98863
        0x00018080:    0001822f    /...    DCD    98863
        0x00018084:    0001822f    /...    DCD    98863
        0x00018088:    0001822f    /...    DCD    98863
        0x0001808c:    0001822f    /...    DCD    98863
        0x00018090:    0001822f    /...    DCD    98863
        0x00018094:    0001822f    /...    DCD    98863
        0x00018098:    0001822f    /...    DCD    98863
        0x0001809c:    0001822f    /...    DCD    98863
        0x000180a0:    0001822f    /...    DCD    98863
        0x000180a4:    0001822f    /...    DCD    98863
        0x000180a8:    0001822f    /...    DCD    98863
        0x000180ac:    0001822f    /...    DCD    98863
        0x000180b0:    0001822f    /...    DCD    98863
        0x000180b4:    0001822f    /...    DCD    98863
        0x000180b8:    0001822f    /...    DCD    98863
        0x000180bc:    0001822f    /...    DCD    98863
        0x000180c0:    0001822f    /...    DCD    98863
        0x000180c4:    0001822f    /...    DCD    98863
        0x000180c8:    0001822f    /...    DCD    98863
        0x000180cc:    0001822f    /...    DCD    98863
        0x000180d0:    0001822f    /...    DCD    98863
        0x000180d4:    0001822f    /...    DCD    98863
        0x000180d8:    0001822f    /...    DCD    98863
        0x000180dc:    0001822f    /...    DCD    98863
        0x000180e0:    0001822f    /...    DCD    98863
        0x000180e4:    0001822f    /...    DCD    98863
        0x000180e8:    0001822f    /...    DCD    98863
        0x000180ec:    0001822f    /...    DCD    98863
        0x000180f0:    0001822f    /...    DCD    98863
        0x000180f4:    0001822f    /...    DCD    98863
        0x000180f8:    0001822f    /...    DCD    98863
        0x000180fc:    0001822f    /...    DCD    98863
        0x00018100:    0001822f    /...    DCD    98863
        0x00018104:    0001822f    /...    DCD    98863
        0x00018108:    0001822f    /...    DCD    98863
        0x0001810c:    0001822f    /...    DCD    98863
        0x00018110:    0001822f    /...    DCD    98863
        0x00018114:    0001822f    /...    DCD    98863
        0x00018118:    0001822f    /...    DCD    98863
        0x0001811c:    0001822f    /...    DCD    98863
        0x00018120:    0001822f    /...    DCD    98863
        0x00018124:    0001822f    /...    DCD    98863
        0x00018128:    0001822f    /...    DCD    98863
        0x0001812c:    0001822f    /...    DCD    98863
        0x00018130:    0001822f    /...    DCD    98863
        0x00018134:    0001822f    /...    DCD    98863
        0x00018138:    0001822f    /...    DCD    98863
        0x0001813c:    0001822f    /...    DCD    98863
        0x00018140:    0001822f    /...    DCD    98863
        0x00018144:    0001822f    /...    DCD    98863
        0x00018148:    0001822f    /...    DCD    98863
        0x0001814c:    00019e75    u...    DCD    106101
        0x00018150:    0001822f    /...    DCD    98863
        0x00018154:    00019e89    ....    DCD    106121
        0x00018158:    0001822f    /...    DCD    98863
        0x0001815c:    0001822f    /...    DCD    98863
        0x00018160:    0001822f    /...    DCD    98863
        0x00018164:    0001822f    /...    DCD    98863
        0x00018168:    0001822f    /...    DCD    98863
        0x0001816c:    0001822f    /...    DCD    98863
        0x00018170:    0001822f    /...    DCD    98863
        0x00018174:    0001822f    /...    DCD    98863
        0x00018178:    0001822f    /...    DCD    98863
        0x0001817c:    0001822f    /...    DCD    98863
        0x00018180:    0001822f    /...    DCD    98863
        0x00018184:    0001822f    /...    DCD    98863
        0x00018188:    0001822f    /...    DCD    98863
        0x0001818c:    0001822f    /...    DCD    98863
    __Patchable
        0x00018190:    00000000    ....    DCD    0
        0x00018194:    00000000    ....    DCD    0
        0x00018198:    00000000    ....    DCD    0
        0x0001819c:    00000000    ....    DCD    0
        0x000181a0:    00000000    ....    DCD    0
        0x000181a4:    00000000    ....    DCD    0
        0x000181a8:    00000000    ....    DCD    0
        0x000181ac:    00000000    ....    DCD    0
        0x000181b0:    00000000    ....    DCD    0
        0x000181b4:    00000000    ....    DCD    0
        0x000181b8:    00000000    ....    DCD    0
        0x000181bc:    00000000    ....    DCD    0
        0x000181c0:    00000000    ....    DCD    0
        0x000181c4:    00000000    ....    DCD    0
        0x000181c8:    00000000    ....    DCD    0
        0x000181cc:    00000000    ....    DCD    0
        0x000181d0:    00000000    ....    DCD    0
        0x000181d4:    00000000    ....    DCD    0
        0x000181d8:    00000000    ....    DCD    0
        0x000181dc:    00000000    ....    DCD    0
        0x000181e0:    00000000    ....    DCD    0
        0x000181e4:    00000000    ....    DCD    0
        0x000181e8:    00000000    ....    DCD    0
        0x000181ec:    00000000    ....    DCD    0
        0x000181f0:    00000000    ....    DCD    0
        0x000181f4:    00000000    ....    DCD    0
        0x000181f8:    00000000    ....    DCD    0
        0x000181fc:    00000000    ....    DCD    0
    $t
    $v0
    Reset_Handler
        0x00018200:    f64e5088    N..P    MOV      r0,#0xed88
        0x00018204:    f2ce0000    ....    MOVT     r0,#0xe000
        0x00018208:    6801        .h      LDR      r1,[r0,#0]
        0x0001820a:    f4410170    A.p.    ORR      r1,r1,#0xf00000
        0x0001820e:    6001        .`      STR      r1,[r0,#0]
        0x00018210:    f3bf8f4f    ..O.    DSB      
        0x00018214:    f3bf8f6f    ..o.    ISB      
        0x00018218:    4805        .H      LDR      r0,[pc,#20] ; [0x18230] = 0x18235
        0x0001821a:    4700        .G      BX       r0
    HardFault_Handler
        0x0001821c:    e7fe        ..      B        HardFault_Handler ; 0x1821c
    NMI_Handler
        0x0001821e:    e7fe        ..      B        NMI_Handler ; 0x1821e
    MemManage_Handler
        0x00018220:    e7fe        ..      B        MemManage_Handler ; 0x18220
    BusFault_Handler
        0x00018222:    e7fe        ..      B        BusFault_Handler ; 0x18222
    UsageFault_Handler
        0x00018224:    e7fe        ..      B        UsageFault_Handler ; 0x18224
    SVC_Handler
        0x00018226:    e7fe        ..      B        SVC_Handler ; 0x18226
    DebugMon_Handler
        0x00018228:    e7fe        ..      B        DebugMon_Handler ; 0x18228
    PendSV_Handler
        0x0001822a:    e7fe        ..      B        PendSV_Handler ; 0x1822a
    SysTick_Handler
        0x0001822c:    e7fe        ..      B        SysTick_Handler ; 0x1822c
    am_cryptosec_isr
    am_default_isr
    am_adc_isr
    am_audadc0_isr
    am_brownout_isr
    am_cachecpu_isr
    am_clkgen_isr
    am_ctimer_isr
    am_disp_isr
    am_dsi_isr
    am_dspi2s0_isr
    am_dspi2s1_isr
    am_dspi2s2_isr
    am_dspi2s3_isr
    am_gpio0_001f_isr
    am_gpio0_203f_isr
    am_gpio0_405f_isr
    am_gpio0_607f_isr
    am_gpio1_001f_isr
    am_gpio1_203f_isr
    am_gpio1_405f_isr
    am_gpio1_607f_isr
    am_gpu_isr
    am_iomaster0_isr
    am_iomaster1_isr
    am_iomaster2_isr
    am_iomaster3_isr
    am_iomaster4_isr
    am_iomaster5_isr
    am_iomaster6_isr
    am_iomaster7_isr
    am_ioslave_acc_isr
    am_mspi0_isr
    am_mspi1_isr
    am_mspi2_isr
    am_pdm0_isr
    am_pdm1_isr
    am_pdm2_isr
    am_pdm3_isr
    am_rtc_isr
    am_sdio_isr
    am_stimer_cmpr0_isr
    am_stimer_cmpr1_isr
    am_stimer_cmpr2_isr
    am_stimer_cmpr3_isr
    am_stimer_cmpr4_isr
    am_stimer_cmpr5_isr
    am_stimer_cmpr6_isr
    am_stimer_cmpr7_isr
    am_stimerof_isr
    am_timer01_isr
    am_timer03_isr
    am_timer04_isr
    am_timer05_isr
    am_timer06_isr
    am_timer07_isr
    am_timer08_isr
    am_timer09_isr
    am_timer10_isr
    am_timer11_isr
    am_timer12_isr
    am_timer13_isr
    am_timer14_isr
    am_timer15_isr
    am_uart1_isr
    am_uart2_isr
    am_uart3_isr
    am_uart_isr
    am_usb_isr
    am_vcomp_isr
    am_watchdog_isr
        0x0001822e:    e7fe        ..      B        am_cryptosec_isr ; 0x1822e
    $d
        0x00018230:    00018235    5...    DCD    98869
    $t
    !!!main
    __main
        0x00018234:    f000f802    ....    BL       __scatterload ; 0x1823c
        0x00018238:    f000f83c    ..<.    BL       __rt_entry ; 0x182b4
    !!!scatter
    __scatterload
    __scatterload_rt2
    __scatterload_rt2_thumb_only
        0x0001823c:    a00a        ..      ADR      r0,{pc}+0x2c ; 0x18268
        0x0001823e:    e8900c00    ....    LDM      r0,{r10,r11}
        0x00018242:    4482        .D      ADD      r10,r10,r0
        0x00018244:    4483        .D      ADD      r11,r11,r0
        0x00018246:    f1aa0701    ....    SUB      r7,r10,#1
    __scatterload_null
        0x0001824a:    45da        .E      CMP      r10,r11
        0x0001824c:    d101        ..      BNE      0x18252 ; __scatterload_null + 8
        0x0001824e:    f000f831    ..1.    BL       __rt_entry ; 0x182b4
        0x00018252:    f2af0e09    ....    ADR      lr,{pc}-7 ; 0x1824b
        0x00018256:    e8ba000f    ....    LDM      r10!,{r0-r3}
        0x0001825a:    f0130f01    ....    TST      r3,#1
        0x0001825e:    bf18        ..      IT       NE
        0x00018260:    1afb        ..      SUBNE    r3,r7,r3
        0x00018262:    f0430301    C...    ORR      r3,r3,#1
        0x00018266:    4718        .G      BX       r3
    $d
        0x00018268:    000039b4    .9..    DCD    14772
        0x0001826c:    000039e4    .9..    DCD    14820
    $t
    !!handler_copy
    __scatterload_copy
        0x00018270:    3a10        .:      SUBS     r2,r2,#0x10
        0x00018272:    bf24        $.      ITT      CS
        0x00018274:    c878        x.      LDMCS    r0!,{r3-r6}
        0x00018276:    c178        x.      STMCS    r1!,{r3-r6}
        0x00018278:    d8fa        ..      BHI      __scatterload_copy ; 0x18270
        0x0001827a:    0752        R.      LSLS     r2,r2,#29
        0x0001827c:    bf24        $.      ITT      CS
        0x0001827e:    c830        0.      LDMCS    r0!,{r4,r5}
        0x00018280:    c130        0.      STMCS    r1!,{r4,r5}
        0x00018282:    bf44        D.      ITT      MI
        0x00018284:    6804        .h      LDRMI    r4,[r0,#0]
        0x00018286:    600c        .`      STRMI    r4,[r1,#0]
        0x00018288:    4770        pG      BX       lr
        0x0001828a:    0000        ..      MOVS     r0,r0
    !!handler_zi
    __scatterload_zeroinit
        0x0001828c:    2300        .#      MOVS     r3,#0
        0x0001828e:    2400        .$      MOVS     r4,#0
        0x00018290:    2500        .%      MOVS     r5,#0
        0x00018292:    2600        .&      MOVS     r6,#0
        0x00018294:    3a10        .:      SUBS     r2,r2,#0x10
        0x00018296:    bf28        (.      IT       CS
        0x00018298:    c178        x.      STMCS    r1!,{r3-r6}
        0x0001829a:    d8fb        ..      BHI      0x18294 ; __scatterload_zeroinit + 8
        0x0001829c:    0752        R.      LSLS     r2,r2,#29
        0x0001829e:    bf28        (.      IT       CS
        0x000182a0:    c130        0.      STMCS    r1!,{r4,r5}
        0x000182a2:    bf48        H.      IT       MI
        0x000182a4:    600b        .`      STRMI    r3,[r1,#0]
        0x000182a6:    4770        pG      BX       lr
    .ARM.Collect$$libinit$$00000000
    __rt_lib_init
        0x000182a8:    b51f        ..      PUSH     {r0-r4,lr}
    .ARM.Collect$$libinit$$00000001
    __rt_lib_init_fp_1
        0x000182aa:    f003fafa    ....    BL       _fp_init ; 0x1b8a2
    .ARM.Collect$$libinit$$00000004
    .ARM.Collect$$libinit$$00000006
    .ARM.Collect$$libinit$$0000000C
    .ARM.Collect$$libinit$$0000000E
    .ARM.Collect$$libinit$$00000010
    .ARM.Collect$$libinit$$00000013
    .ARM.Collect$$libinit$$00000015
    .ARM.Collect$$libinit$$00000017
    .ARM.Collect$$libinit$$00000019
    .ARM.Collect$$libinit$$0000001B
    .ARM.Collect$$libinit$$0000001D
    .ARM.Collect$$libinit$$0000001F
    .ARM.Collect$$libinit$$00000021
    .ARM.Collect$$libinit$$00000023
    .ARM.Collect$$libinit$$00000025
    .ARM.Collect$$libinit$$00000027
    .ARM.Collect$$libinit$$0000002E
    .ARM.Collect$$libinit$$00000030
    .ARM.Collect$$libinit$$00000032
    .ARM.Collect$$libinit$$00000034
    .ARM.Collect$$libinit$$00000035
    __rt_lib_init_alloca_1
    __rt_lib_init_argv_1
    __rt_lib_init_atexit_1
    __rt_lib_init_clock_1
    __rt_lib_init_cpp_1
    __rt_lib_init_exceptions_1
    __rt_lib_init_fp_trap_1
    __rt_lib_init_getenv_1
    __rt_lib_init_heap_1
    __rt_lib_init_lc_collate_1
    __rt_lib_init_lc_ctype_1
    __rt_lib_init_lc_monetary_1
    __rt_lib_init_lc_numeric_1
    __rt_lib_init_lc_time_1
    __rt_lib_init_preinit_1
    __rt_lib_init_rand_1
    __rt_lib_init_relocate_pie_1
    __rt_lib_init_return
    __rt_lib_init_signal_1
    __rt_lib_init_stdio_1
    __rt_lib_init_user_alloc_1
        0x000182ae:    bd1f        ..      POP      {r0-r4,pc}
    .ARM.Collect$$libshutdown$$00000000
    __rt_lib_shutdown
        0x000182b0:    b510        ..      PUSH     {r4,lr}
    .ARM.Collect$$libshutdown$$00000002
    .ARM.Collect$$libshutdown$$00000004
    .ARM.Collect$$libshutdown$$00000007
    .ARM.Collect$$libshutdown$$0000000A
    .ARM.Collect$$libshutdown$$0000000C
    .ARM.Collect$$libshutdown$$0000000F
    .ARM.Collect$$libshutdown$$00000010
    __rt_lib_shutdown_cpp_1
    __rt_lib_shutdown_fp_trap_1
    __rt_lib_shutdown_heap_1
    __rt_lib_shutdown_return
    __rt_lib_shutdown_signal_1
    __rt_lib_shutdown_stdio_1
    __rt_lib_shutdown_user_alloc_1
        0x000182b2:    bd10        ..      POP      {r4,pc}
    .ARM.Collect$$rtentry$$00000000
    .ARM.Collect$$rtentry$$00000002
    .ARM.Collect$$rtentry$$00000004
    __rt_entry
    __rt_entry_presh_1
    __rt_entry_sh
        0x000182b4:    f000f81d    ....    BL       __user_setup_stackheap ; 0x182f2
        0x000182b8:    4611        .F      MOV      r1,r2
    .ARM.Collect$$rtentry$$00000009
    .ARM.Collect$$rtentry$$0000000A
    __rt_entry_li
    __rt_entry_postsh_1
        0x000182ba:    f7fffff5    ....    BL       __rt_lib_init ; 0x182a8
    .ARM.Collect$$rtentry$$0000000C
    .ARM.Collect$$rtentry$$0000000D
    __rt_entry_main
    __rt_entry_postli_1
        0x000182be:    f002ff9b    ....    BL       main ; 0x1b1f8
        0x000182c2:    f000f83b    ..;.    BL       exit ; 0x1833c
    .ARM.Collect$$rtexit$$00000000
    __rt_exit
        0x000182c6:    b403        ..      PUSH     {r0,r1}
    .ARM.Collect$$rtexit$$00000002
    .ARM.Collect$$rtexit$$00000003
    __rt_exit_ls
    __rt_exit_prels_1
        0x000182c8:    f7fffff2    ....    BL       __rt_lib_shutdown ; 0x182b0
    .ARM.Collect$$rtexit$$00000004
    __rt_exit_exit
        0x000182cc:    bc03        ..      POP      {r0,r1}
        0x000182ce:    f000f843    ..C.    BL       _sys_exit ; 0x18358
        0x000182d2:    0000        ..      MOVS     r0,r0
    .text
    $v0
    __user_initial_stackheap
        0x000182d4:    4802        .H      LDR      r0,[pc,#8] ; [0x182e0] = 0x10000b80
        0x000182d6:    4903        .I      LDR      r1,[pc,#12] ; [0x182e4] = 0x10001b80
        0x000182d8:    4a01        .J      LDR      r2,[pc,#4] ; [0x182e0] = 0x10000b80
        0x000182da:    4b03        .K      LDR      r3,[pc,#12] ; [0x182e8] = 0x10000b80
        0x000182dc:    4770        pG      BX       lr
    $d
        0x000182de:    0000        ..      DCW    0
        0x000182e0:    10000b80    ....    DCD    268438400
        0x000182e4:    10001b80    ....    DCD    268442496
        0x000182e8:    10000b80    ....    DCD    268438400
    $t
    .text
    __use_two_region_memory
        0x000182ec:    4770        pG      BX       lr
    __rt_heap_escrow$2region
        0x000182ee:    4770        pG      BX       lr
    __rt_heap_expand$2region
        0x000182f0:    4770        pG      BX       lr
    .text
    __user_setup_stackheap
        0x000182f2:    4675        uF      MOV      r5,lr
        0x000182f4:    f000f82c    ..,.    BL       __user_libspace ; 0x18350
        0x000182f8:    46ae        .F      MOV      lr,r5
        0x000182fa:    0005        ..      MOVS     r5,r0
        0x000182fc:    4669        iF      MOV      r1,sp
        0x000182fe:    4653        SF      MOV      r3,r10
        0x00018300:    f0200007     ...    BIC      r0,r0,#7
        0x00018304:    4685        .F      MOV      sp,r0
        0x00018306:    b018        ..      ADD      sp,sp,#0x60
        0x00018308:    b520         .      PUSH     {r5,lr}
        0x0001830a:    f7ffffe3    ....    BL       __user_initial_stackheap ; 0x182d4
        0x0001830e:    e8bd4020    .. @    POP      {r5,lr}
        0x00018312:    f04f0600    O...    MOV      r6,#0
        0x00018316:    f04f0700    O...    MOV      r7,#0
        0x0001831a:    f04f0800    O...    MOV      r8,#0
        0x0001831e:    f04f0b00    O...    MOV      r11,#0
        0x00018322:    46ac        .F      MOV      r12,r5
        0x00018324:    e8ac09c0    ....    STM      r12!,{r6-r8,r11}
        0x00018328:    e8ac09c0    ....    STM      r12!,{r6-r8,r11}
        0x0001832c:    e8ac09c0    ....    STM      r12!,{r6-r8,r11}
        0x00018330:    e8ac09c0    ....    STM      r12!,{r6-r8,r11}
        0x00018334:    f0210107    !...    BIC      r1,r1,#7
        0x00018338:    468d        .F      MOV      sp,r1
        0x0001833a:    4770        pG      BX       lr
    .text
    exit
        0x0001833c:    b510        ..      PUSH     {r4,lr}
        0x0001833e:    4604        .F      MOV      r4,r0
        0x00018340:    f3af8000    ....    NOP.W    
        0x00018344:    4620         F      MOV      r0,r4
        0x00018346:    e8bd4010    ...@    POP      {r4,lr}
        0x0001834a:    f7ffbfbc    ....    B.W      __rt_exit ; 0x182c6
        0x0001834e:    0000        ..      MOVS     r0,r0
    .text
    __user_libspace
    __user_perproc_libspace
    __user_perthread_libspace
        0x00018350:    4800        .H      LDR      r0,[pc,#0] ; [0x18354] = 0x10000088
        0x00018352:    4770        pG      BX       lr
    $d
        0x00018354:    10000088    ....    DCD    268435592
    $t
    .text
    _sys_exit
        0x00018358:    4901        .I      LDR      r1,[pc,#4] ; [0x18360] = 0x20026
        0x0001835a:    2018        .       MOVS     r0,#0x18
        0x0001835c:    beab        ..      BKPT     #0xab
        0x0001835e:    e7fe        ..      B        0x1835e ; _sys_exit + 6
    $d
        0x00018360:    00020026    &...    DCD    131110
    $t
    .text
    __I$use$semihosting
    __use_no_semihosting_swi
        0x00018364:    4770        pG      BX       lr
    .text
    __semihosting_library_function
        0x00018366:    0000        ..      MOVS     r0,r0
    $t.8
    __NVIC_EnableIRQ
        0x00018368:    b081        ..      SUB      sp,sp,#4
        0x0001836a:    f88d0003    ....    STRB     r0,[sp,#3]
        0x0001836e:    f99d0003    ....    LDRSB    r0,[sp,#3]
        0x00018372:    2800        .(      CMP      r0,#0
        0x00018374:    d40e        ..      BMI      0x18394 ; __NVIC_EnableIRQ + 44
        0x00018376:    e7ff        ..      B        0x18378 ; __NVIC_EnableIRQ + 16
        0x00018378:    f99d1003    ....    LDRSB    r1,[sp,#3]
        0x0001837c:    f001021f    ....    AND      r2,r1,#0x1f
        0x00018380:    2001        .       MOVS     r0,#1
        0x00018382:    4090        .@      LSLS     r0,r0,r2
        0x00018384:    094a        J.      LSRS     r2,r1,#5
        0x00018386:    f24e1100    N...    MOVW     r1,#0xe100
        0x0001838a:    f2ce0100    ....    MOVT     r1,#0xe000
        0x0001838e:    f8410022    A.".    STR      r0,[r1,r2,LSL #2]
        0x00018392:    e7ff        ..      B        0x18394 ; __NVIC_EnableIRQ + 44
        0x00018394:    b001        ..      ADD      sp,sp,#4
        0x00018396:    4770        pG      BX       lr
    __NVIC_SetPriority
        0x00018398:    b082        ..      SUB      sp,sp,#8
        0x0001839a:    f88d0007    ....    STRB     r0,[sp,#7]
        0x0001839e:    9100        ..      STR      r1,[sp,#0]
        0x000183a0:    f99d0007    ....    LDRSB    r0,[sp,#7]
        0x000183a4:    2800        .(      CMP      r0,#0
        0x000183a6:    d40a        ..      BMI      0x183be ; __NVIC_SetPriority + 38
        0x000183a8:    e7ff        ..      B        0x183aa ; __NVIC_SetPriority + 18
        0x000183aa:    9800        ..      LDR      r0,[sp,#0]
        0x000183ac:    0140        @.      LSLS     r0,r0,#5
        0x000183ae:    f99d1007    ....    LDRSB    r1,[sp,#7]
        0x000183b2:    f24e4200    N..B    MOVW     r2,#0xe400
        0x000183b6:    f2ce0200    ....    MOVT     r2,#0xe000
        0x000183ba:    5488        .T      STRB     r0,[r1,r2]
        0x000183bc:    e00b        ..      B        0x183d6 ; __NVIC_SetPriority + 62
        0x000183be:    9800        ..      LDR      r0,[sp,#0]
        0x000183c0:    0140        @.      LSLS     r0,r0,#5
        0x000183c2:    f89d1007    ....    LDRB     r1,[sp,#7]
        0x000183c6:    f001010f    ....    AND      r1,r1,#0xf
        0x000183ca:    f64e5214    N..R    MOV      r2,#0xed14
        0x000183ce:    f2ce0200    ....    MOVT     r2,#0xe000
        0x000183d2:    5488        .T      STRB     r0,[r1,r2]
        0x000183d4:    e7ff        ..      B        0x183d6 ; __NVIC_SetPriority + 62
        0x000183d6:    b002        ..      ADD      sp,sp,#8
        0x000183d8:    4770        pG      BX       lr
        0x000183da:    0000        ..      MOVS     r0,r0
    am_bsp_ios_pins_enable
        0x000183dc:    b570        p.      PUSH     {r4-r6,lr}
        0x000183de:    b108        ..      CBZ      r0,0x183e4 ; am_bsp_ios_pins_enable + 8
        0x000183e0:    bd70        p.      POP      {r4-r6,pc}
        0x000183e2:    bf00        ..      NOP      
        0x000183e4:    460c        .F      MOV      r4,r1
        0x000183e6:    b1e9        ..      CBZ      r1,0x18424 ; am_bsp_ios_pins_enable + 72
        0x000183e8:    2c01        .,      CMP      r4,#1
        0x000183ea:    bf18        ..      IT       NE
        0x000183ec:    bd70        p.      POPNE    {r4-r6,pc}
        0x000183ee:    f2400034    @.4.    MOVW     r0,#0x34
        0x000183f2:    f2c10000    ....    MOVT     r0,#0x1000
        0x000183f6:    6801        .h      LDR      r1,[r0,#0]
        0x000183f8:    2000        .       MOVS     r0,#0
        0x000183fa:    f000fa4f    ..O.    BL       am_hal_gpio_pinconfig ; 0x1889c
        0x000183fe:    f240002c    @.,.    MOVW     r0,#0x2c
        0x00018402:    f2c10000    ....    MOVT     r0,#0x1000
        0x00018406:    6801        .h      LDR      r1,[r0,#0]
        0x00018408:    2002        .       MOVS     r0,#2
        0x0001840a:    f000fa47    ..G.    BL       am_hal_gpio_pinconfig ; 0x1889c
        0x0001840e:    f2400628    @.(.    MOVW     r6,#0x28
        0x00018412:    f2400030    @.0.    MOVW     r0,#0x30
        0x00018416:    2503        .%      MOVS     r5,#3
        0x00018418:    f2c10600    ....    MOVT     r6,#0x1000
        0x0001841c:    f2c10000    ....    MOVT     r0,#0x1000
        0x00018420:    e009        ..      B        0x18436 ; am_bsp_ios_pins_enable + 90
        0x00018422:    bf00        ..      NOP      
        0x00018424:    f240063c    @.<.    MOVW     r6,#0x3c
        0x00018428:    f2400038    @.8.    MOVW     r0,#0x38
        0x0001842c:    2501        .%      MOVS     r5,#1
        0x0001842e:    f2c10600    ....    MOVT     r6,#0x1000
        0x00018432:    f2c10000    ....    MOVT     r0,#0x1000
        0x00018436:    6801        .h      LDR      r1,[r0,#0]
        0x00018438:    4620         F      MOV      r0,r4
        0x0001843a:    f000fa2f    ../.    BL       am_hal_gpio_pinconfig ; 0x1889c
        0x0001843e:    6831        1h      LDR      r1,[r6,#0]
        0x00018440:    4628        (F      MOV      r0,r5
        0x00018442:    e8bd4070    ..p@    POP      {r4-r6,lr}
        0x00018446:    f000ba29    ..).    B.W      am_hal_gpio_pinconfig ; 0x1889c
        0x0001844a:    0000        ..      MOVS     r0,r0
    am_bsp_itm_printf_enable
        0x0001844c:    b580        ..      PUSH     {r7,lr}
        0x0001844e:    b082        ..      SUB      sp,sp,#8
        0x00018450:    f2410008    A...    MOV      r0,#0x1008
        0x00018454:    f2c40002    ....    MOVT     r0,#0x4002
        0x00018458:    6800        .h      LDR      r0,[r0,#0]
        0x0001845a:    02c0        ..      LSLS     r0,r0,#11
        0x0001845c:    d512        ..      BPL      0x18484 ; am_bsp_itm_printf_enable + 56
        0x0001845e:    f640207c    @.|     MOV      r0,#0xa7c
        0x00018462:    f2c4000c    ....    MOVT     r0,#0x400c
        0x00018466:    6800        .h      LDR      r0,[r0,#0]
        0x00018468:    07c0        ..      LSLS     r0,r0,#31
        0x0001846a:    d00b        ..      BEQ      0x18484 ; am_bsp_itm_printf_enable + 56
        0x0001846c:    a801        ..      ADD      r0,sp,#4
        0x0001846e:    f000f90f    ....    BL       am_hal_dcu_get ; 0x18690
        0x00018472:    f89d0004    ....    LDRB     r0,[sp,#4]
        0x00018476:    06c0        ..      LSLS     r0,r0,#27
        0x00018478:    d408        ..      BMI      0x1848c ; am_bsp_itm_printf_enable + 64
        0x0001847a:    2001        .       MOVS     r0,#1
        0x0001847c:    2110        .!      MOVS     r1,#0x10
        0x0001847e:    f000f927    ..'.    BL       am_hal_dcu_update ; 0x186d0
        0x00018482:    b118        ..      CBZ      r0,0x1848c ; am_bsp_itm_printf_enable + 64
        0x00018484:    f04f30ff    O..0    MOV      r0,#0xffffffff
        0x00018488:    b002        ..      ADD      sp,sp,#8
        0x0001848a:    bd80        ..      POP      {r7,pc}
        0x0001848c:    f24000e8    @...    MOVW     r0,#0xe8
        0x00018490:    f2c10000    ....    MOVT     r0,#0x1000
        0x00018494:    2101        .!      MOVS     r1,#1
        0x00018496:    7001        .p      STRB     r1,[r0,#0]
        0x00018498:    f001f8d8    ....    BL       am_hal_itm_enable ; 0x1964c
        0x0001849c:    f2442040    D.@     MOV      r0,#0x4240
        0x000184a0:    f2c0000f    ....    MOVT     r0,#0xf
        0x000184a4:    f001fc2e    ....    BL       am_hal_tpiu_enable ; 0x19d04
        0x000184a8:    f2400040    @.@.    MOVW     r0,#0x40
        0x000184ac:    f2c10000    ....    MOVT     r0,#0x1000
        0x000184b0:    6801        .h      LDR      r1,[r0,#0]
        0x000184b2:    201c        .       MOVS     r0,#0x1c
        0x000184b4:    f000f9f2    ....    BL       am_hal_gpio_pinconfig ; 0x1889c
        0x000184b8:    f24960a5    I..`    MOV      r0,#0x96a5
        0x000184bc:    f2c00001    ....    MOVT     r0,#1
        0x000184c0:    f001fd1a    ....    BL       am_util_stdio_printf_init ; 0x19ef8
        0x000184c4:    2000        .       MOVS     r0,#0
        0x000184c6:    b002        ..      ADD      sp,sp,#8
        0x000184c8:    bd80        ..      POP      {r7,pc}
        0x000184ca:    0000        ..      MOVS     r0,r0
    am_hal_daxi_config
        0x000184cc:    b570        p.      PUSH     {r4-r6,lr}
        0x000184ce:    b082        ..      SUB      sp,sp,#8
        0x000184d0:    2654        T&      MOVS     r6,#0x54
        0x000184d2:    2500        .%      MOVS     r5,#0
        0x000184d4:    4604        .F      MOV      r4,r0
        0x000184d6:    f6c40600    ....    MOVT     r6,#0x4800
        0x000184da:    f2c475ff    ...u    MOVT     r5,#0x47ff
        0x000184de:    f000fa8f    ....    BL       am_hal_interrupt_master_disable ; 0x18a00
        0x000184e2:    9000        ..      STR      r0,[sp,#0]
        0x000184e4:    f000fa8c    ....    BL       am_hal_interrupt_master_disable ; 0x18a00
        0x000184e8:    9001        ..      STR      r0,[sp,#4]
        0x000184ea:    f8560c04    V...    LDR      r0,[r6,#-4]
        0x000184ee:    0740        @.      LSLS     r0,r0,#29
        0x000184f0:    d418        ..      BMI      0x18524 ; am_hal_daxi_config + 88
        0x000184f2:    f3bf8f4f    ..O.    DSB      
        0x000184f6:    6830        0h      LDR      r0,[r6,#0]
        0x000184f8:    f0400001    @...    ORR      r0,r0,#1
        0x000184fc:    6030        0`      STR      r0,[r6,#0]
        0x000184fe:    6828        (h      LDR      r0,[r5,#0]
        0x00018500:    6830        0h      LDR      r0,[r6,#0]
        0x00018502:    0740        @.      LSLS     r0,r0,#29
        0x00018504:    d409        ..      BMI      0x1851a ; am_hal_daxi_config + 78
        0x00018506:    6830        0h      LDR      r0,[r6,#0]
        0x00018508:    0740        @.      LSLS     r0,r0,#29
        0x0001850a:    bf5c        \.      ITT      PL
        0x0001850c:    6830        0h      LDRPL    r0,[r6,#0]
        0x0001850e:    ea5f7040    _.@p    LSLSPL   r0,r0,#29
        0x00018512:    d402        ..      BMI      0x1851a ; am_hal_daxi_config + 78
        0x00018514:    6830        0h      LDR      r0,[r6,#0]
        0x00018516:    0740        @.      LSLS     r0,r0,#29
        0x00018518:    d5f2        ..      BPL      0x18500 ; am_hal_daxi_config + 52
        0x0001851a:    6830        0h      LDR      r0,[r6,#0]
        0x0001851c:    f0400002    @...    ORR      r0,r0,#2
        0x00018520:    6030        0`      STR      r0,[r6,#0]
        0x00018522:    6828        (h      LDR      r0,[r5,#0]
        0x00018524:    9801        ..      LDR      r0,[sp,#4]
        0x00018526:    f000fa73    ..s.    BL       am_hal_interrupt_master_set ; 0x18a10
        0x0001852a:    b1dc        ..      CBZ      r4,0x18564 ; am_hal_daxi_config + 152
        0x0001852c:    7860        `x      LDRB     r0,[r4,#1]
        0x0001852e:    7922        "y      LDRB     r2,[r4,#4]
        0x00018530:    78a1        .x      LDRB     r1,[r4,#2]
        0x00018532:    78e3        .x      LDRB     r3,[r4,#3]
        0x00018534:    f0020201    ....    AND      r2,r2,#1
        0x00018538:    f000007f    ....    AND      r0,r0,#0x7f
        0x0001853c:    ea420040    B.@.    ORR      r0,r2,r0,LSL #1
        0x00018540:    f363200b    c..     BFI      r0,r3,#8,#4
        0x00018544:    f001011f    ....    AND      r1,r1,#0x1f
        0x00018548:    ea404001    @..@    ORR      r0,r0,r1,LSL #16
        0x0001854c:    f8460c04    F...    STR      r0,[r6,#-4]
        0x00018550:    7920         y      LDRB     r0,[r4,#4]
        0x00018552:    f2400120    @. .    MOVW     r1,#0x20
        0x00018556:    f2c10100    ....    MOVT     r1,#0x1000
        0x0001855a:    7108        .q      STRB     r0,[r1,#4]
        0x0001855c:    6820         h      LDR      r0,[r4,#0]
        0x0001855e:    6008        .`      STR      r0,[r1,#0]
        0x00018560:    e003        ..      B        0x1856a ; am_hal_daxi_config + 158
        0x00018562:    bf00        ..      NOP      
        0x00018564:    2006        .       MOVS     r0,#6
        0x00018566:    f8460c04    F...    STR      r0,[r6,#-4]
        0x0001856a:    6828        (h      LDR      r0,[r5,#0]
        0x0001856c:    9800        ..      LDR      r0,[sp,#0]
        0x0001856e:    f000fa4f    ..O.    BL       am_hal_interrupt_master_set ; 0x18a10
        0x00018572:    2000        .       MOVS     r0,#0
        0x00018574:    b002        ..      ADD      sp,sp,#8
        0x00018576:    bd70        p.      POP      {r4-r6,pc}
    am_hal_daxi_control
        0x00018578:    b5b0        ..      PUSH     {r4,r5,r7,lr}
        0x0001857a:    b084        ..      SUB      sp,sp,#0x10
        0x0001857c:    2803        .(      CMP      r0,#3
        0x0001857e:    d817        ..      BHI      0x185b0 ; am_hal_daxi_control + 56
        0x00018580:    e8dff000    ....    TBB      [pc,r0]
    $d.9
        0x00018584:    7c461a02    ..F|    DCD    2084968962
    $t.10
        0x00018588:    2054        T       MOVS     r0,#0x54
        0x0001858a:    f6c40000    ....    MOVT     r0,#0x4800
        0x0001858e:    f8501c04    P...    LDR      r1,[r0,#-4]
        0x00018592:    0749        I.      LSLS     r1,r1,#29
        0x00018594:    d409        ..      BMI      0x185aa ; am_hal_daxi_control + 50
        0x00018596:    f3bf8f4f    ..O.    DSB      
        0x0001859a:    6801        .h      LDR      r1,[r0,#0]
        0x0001859c:    f0410102    A...    ORR      r1,r1,#2
        0x000185a0:    6001        .`      STR      r1,[r0,#0]
        0x000185a2:    2000        .       MOVS     r0,#0
        0x000185a4:    f2c470ff    ...p    MOVT     r0,#0x47ff
        0x000185a8:    6800        .h      LDR      r0,[r0,#0]
        0x000185aa:    2000        .       MOVS     r0,#0
        0x000185ac:    b004        ..      ADD      sp,sp,#0x10
        0x000185ae:    bdb0        ..      POP      {r4,r5,r7,pc}
        0x000185b0:    2006        .       MOVS     r0,#6
        0x000185b2:    b004        ..      ADD      sp,sp,#0x10
        0x000185b4:    bdb0        ..      POP      {r4,r5,r7,pc}
        0x000185b6:    bf00        ..      NOP      
        0x000185b8:    2454        T$      MOVS     r4,#0x54
        0x000185ba:    f6c40400    ....    MOVT     r4,#0x4800
        0x000185be:    f000fa1f    ....    BL       am_hal_interrupt_master_disable ; 0x18a00
        0x000185c2:    9001        ..      STR      r0,[sp,#4]
        0x000185c4:    f8540c04    T...    LDR      r0,[r4,#-4]
        0x000185c8:    0740        @.      LSLS     r0,r0,#29
        0x000185ca:    d41b        ..      BMI      0x18604 ; am_hal_daxi_control + 140
        0x000185cc:    f3bf8f4f    ..O.    DSB      
        0x000185d0:    6821        !h      LDR      r1,[r4,#0]
        0x000185d2:    2000        .       MOVS     r0,#0
        0x000185d4:    f0410101    A...    ORR      r1,r1,#1
        0x000185d8:    f2c470ff    ...p    MOVT     r0,#0x47ff
        0x000185dc:    6021        !`      STR      r1,[r4,#0]
        0x000185de:    6801        .h      LDR      r1,[r0,#0]
        0x000185e0:    6821        !h      LDR      r1,[r4,#0]
        0x000185e2:    0749        I.      LSLS     r1,r1,#29
        0x000185e4:    d409        ..      BMI      0x185fa ; am_hal_daxi_control + 130
        0x000185e6:    6821        !h      LDR      r1,[r4,#0]
        0x000185e8:    0749        I.      LSLS     r1,r1,#29
        0x000185ea:    bf5c        \.      ITT      PL
        0x000185ec:    6821        !h      LDRPL    r1,[r4,#0]
        0x000185ee:    ea5f7141    _.Aq    LSLSPL   r1,r1,#29
        0x000185f2:    d402        ..      BMI      0x185fa ; am_hal_daxi_control + 130
        0x000185f4:    6821        !h      LDR      r1,[r4,#0]
        0x000185f6:    0749        I.      LSLS     r1,r1,#29
        0x000185f8:    d5f2        ..      BPL      0x185e0 ; am_hal_daxi_control + 104
        0x000185fa:    6821        !h      LDR      r1,[r4,#0]
        0x000185fc:    f0410102    A...    ORR      r1,r1,#2
        0x00018600:    6021        !`      STR      r1,[r4,#0]
        0x00018602:    6800        .h      LDR      r0,[r0,#0]
        0x00018604:    9801        ..      LDR      r0,[sp,#4]
        0x00018606:    f000fa03    ....    BL       am_hal_interrupt_master_set ; 0x18a10
        0x0001860a:    2000        .       MOVS     r0,#0
        0x0001860c:    b004        ..      ADD      sp,sp,#0x10
        0x0001860e:    bdb0        ..      POP      {r4,r5,r7,pc}
        0x00018610:    2454        T$      MOVS     r4,#0x54
        0x00018612:    2500        .%      MOVS     r5,#0
        0x00018614:    f6c40400    ....    MOVT     r4,#0x4800
        0x00018618:    f2c475ff    ...u    MOVT     r5,#0x47ff
        0x0001861c:    f000f9f0    ....    BL       am_hal_interrupt_master_disable ; 0x18a00
        0x00018620:    9002        ..      STR      r0,[sp,#8]
        0x00018622:    f000f9ed    ....    BL       am_hal_interrupt_master_disable ; 0x18a00
        0x00018626:    9003        ..      STR      r0,[sp,#0xc]
        0x00018628:    f8540c04    T...    LDR      r0,[r4,#-4]
        0x0001862c:    0740        @.      LSLS     r0,r0,#29
        0x0001862e:    d418        ..      BMI      0x18662 ; am_hal_daxi_control + 234
        0x00018630:    f3bf8f4f    ..O.    DSB      
        0x00018634:    6820         h      LDR      r0,[r4,#0]
        0x00018636:    f0400001    @...    ORR      r0,r0,#1
        0x0001863a:    6020         `      STR      r0,[r4,#0]
        0x0001863c:    6828        (h      LDR      r0,[r5,#0]
        0x0001863e:    6820         h      LDR      r0,[r4,#0]
        0x00018640:    0740        @.      LSLS     r0,r0,#29
        0x00018642:    d409        ..      BMI      0x18658 ; am_hal_daxi_control + 224
        0x00018644:    6820         h      LDR      r0,[r4,#0]
        0x00018646:    0740        @.      LSLS     r0,r0,#29
        0x00018648:    bf5c        \.      ITT      PL
        0x0001864a:    6820         h      LDRPL    r0,[r4,#0]
        0x0001864c:    ea5f7040    _.@p    LSLSPL   r0,r0,#29
        0x00018650:    d402        ..      BMI      0x18658 ; am_hal_daxi_control + 224
        0x00018652:    6820         h      LDR      r0,[r4,#0]
        0x00018654:    0740        @.      LSLS     r0,r0,#29
        0x00018656:    d5f2        ..      BPL      0x1863e ; am_hal_daxi_control + 198
        0x00018658:    6820         h      LDR      r0,[r4,#0]
        0x0001865a:    f0400002    @...    ORR      r0,r0,#2
        0x0001865e:    6020         `      STR      r0,[r4,#0]
        0x00018660:    6828        (h      LDR      r0,[r5,#0]
        0x00018662:    9803        ..      LDR      r0,[sp,#0xc]
        0x00018664:    f000f9d4    ....    BL       am_hal_interrupt_master_set ; 0x18a10
        0x00018668:    2006        .       MOVS     r0,#6
        0x0001866a:    f8440c04    D...    STR      r0,[r4,#-4]
        0x0001866e:    6828        (h      LDR      r0,[r5,#0]
        0x00018670:    9802        ..      LDR      r0,[sp,#8]
        0x00018672:    f000f9cd    ....    BL       am_hal_interrupt_master_set ; 0x18a10
        0x00018676:    2000        .       MOVS     r0,#0
        0x00018678:    b004        ..      ADD      sp,sp,#0x10
        0x0001867a:    bdb0        ..      POP      {r4,r5,r7,pc}
        0x0001867c:    f2400020    @. .    MOVW     r0,#0x20
        0x00018680:    f2c10000    ....    MOVT     r0,#0x1000
        0x00018684:    f7ffff22    ..".    BL       am_hal_daxi_config ; 0x184cc
        0x00018688:    2000        .       MOVS     r0,#0
        0x0001868a:    b004        ..      ADD      sp,sp,#0x10
        0x0001868c:    bdb0        ..      POP      {r4,r5,r7,pc}
        0x0001868e:    0000        ..      MOVS     r0,r0
    am_hal_dcu_get
        0x00018690:    b510        ..      PUSH     {r4,lr}
        0x00018692:    f2410108    A...    MOV      r1,#0x1008
        0x00018696:    f2c40102    ....    MOVT     r1,#0x4002
        0x0001869a:    6809        .h      LDR      r1,[r1,#0]
        0x0001869c:    02c9        ..      LSLS     r1,r1,#11
        0x0001869e:    d507        ..      BPL      0x186b0 ; am_hal_dcu_get + 32
        0x000186a0:    4604        .F      MOV      r4,r0
        0x000186a2:    f640207c    @.|     MOV      r0,#0xa7c
        0x000186a6:    f2c4000c    ....    MOVT     r0,#0x400c
        0x000186aa:    6800        .h      LDR      r0,[r0,#0]
        0x000186ac:    07c0        ..      LSLS     r0,r0,#31
        0x000186ae:    d101        ..      BNE      0x186b4 ; am_hal_dcu_get + 36
        0x000186b0:    2007        .       MOVS     r0,#7
        0x000186b2:    bd10        ..      POP      {r4,pc}
        0x000186b4:    f2400000    @...    MOVW     r0,#0
        0x000186b8:    f2c10000    ....    MOVT     r0,#0x1000
        0x000186bc:    6801        .h      LDR      r1,[r0,#0]
        0x000186be:    2205        ."      MOVS     r2,#5
        0x000186c0:    6808        .h      LDR      r0,[r1,#0]
        0x000186c2:    6849        Ih      LDR      r1,[r1,#4]
        0x000186c4:    f002fbd8    ....    BL       get_ui32_dcu_mask ; 0x1ae78
        0x000186c8:    6020         `      STR      r0,[r4,#0]
        0x000186ca:    2000        .       MOVS     r0,#0
        0x000186cc:    bd10        ..      POP      {r4,pc}
        0x000186ce:    0000        ..      MOVS     r0,r0
    am_hal_dcu_update
        0x000186d0:    b5f0        ..      PUSH     {r4-r7,lr}
        0x000186d2:    b081        ..      SUB      sp,sp,#4
        0x000186d4:    f2410208    A...    MOV      r2,#0x1008
        0x000186d8:    f2c40202    ....    MOVT     r2,#0x4002
        0x000186dc:    6812        .h      LDR      r2,[r2,#0]
        0x000186de:    02d2        ..      LSLS     r2,r2,#11
        0x000186e0:    d516        ..      BPL      0x18710 ; am_hal_dcu_update + 64
        0x000186e2:    f640257c    @.|%    MOV      r5,#0xa7c
        0x000186e6:    f2c4050c    ....    MOVT     r5,#0x400c
        0x000186ea:    4604        .F      MOV      r4,r0
        0x000186ec:    6828        (h      LDR      r0,[r5,#0]
        0x000186ee:    07c0        ..      LSLS     r0,r0,#31
        0x000186f0:    d00e        ..      BEQ      0x18710 ; am_hal_dcu_update + 64
        0x000186f2:    4608        .F      MOV      r0,r1
        0x000186f4:    f002f9ae    ....    BL       get_raw_dcu_mask ; 0x1aa54
        0x000186f8:    f2400c00    @...    MOVW     r12,#0
        0x000186fc:    f2c10c00    ....    MOVT     r12,#0x1000
        0x00018700:    f8dc3004    ...0    LDR      r3,[r12,#4]
        0x00018704:    681a        .h      LDR      r2,[r3,#0]
        0x00018706:    685b        [h      LDR      r3,[r3,#4]
        0x00018708:    4002        .@      ANDS     r2,r2,r0
        0x0001870a:    400b        .@      ANDS     r3,r3,r1
        0x0001870c:    431a        .C      ORRS     r2,r2,r3
        0x0001870e:    d003        ..      BEQ      0x18718 ; am_hal_dcu_update + 72
        0x00018710:    2007        .       MOVS     r0,#7
        0x00018712:    b001        ..      ADD      sp,sp,#4
        0x00018714:    bdf0        ..      POP      {r4-r7,pc}
        0x00018716:    bf00        ..      NOP      
        0x00018718:    f8dc2000    ...     LDR      r2,[r12,#0]
        0x0001871c:    2610        .&      MOVS     r6,#0x10
        0x0001871e:    6813        .h      LDR      r3,[r2,#0]
        0x00018720:    f8d2e004    ....    LDR      lr,[r2,#4]
        0x00018724:    2c00        .,      CMP      r4,#0
        0x00018726:    bf18        ..      IT       NE
        0x00018728:    2608        .&      MOVNE    r6,#8
        0x0001872a:    eb0c0406    ....    ADD      r4,r12,r6
        0x0001872e:    f85c6006    \..`    LDR      r6,[r12,r6]
        0x00018732:    6864        dh      LDR      r4,[r4,#4]
        0x00018734:    ea230700    #...    BIC      r7,r3,r0
        0x00018738:    ea2e0301    ....    BIC      r3,lr,r1
        0x0001873c:    4030        0@      ANDS     r0,r0,r6
        0x0001873e:    4021        !@      ANDS     r1,r1,r4
        0x00018740:    4419        .D      ADD      r1,r1,r3
        0x00018742:    4438        8D      ADD      r0,r0,r7
        0x00018744:    6010        .`      STR      r0,[r2,#0]
        0x00018746:    6051        Q`      STR      r1,[r2,#4]
        0x00018748:    6828        (h      LDR      r0,[r5,#0]
        0x0001874a:    07c0        ..      LSLS     r0,r0,#31
        0x0001874c:    d10e        ..      BNE      0x1876c ; am_hal_dcu_update + 156
        0x0001874e:    6828        (h      LDR      r0,[r5,#0]
        0x00018750:    07c0        ..      LSLS     r0,r0,#31
        0x00018752:    bf04        ..      ITT      EQ
        0x00018754:    6828        (h      LDREQ    r0,[r5,#0]
        0x00018756:    ea5f70c0    _..p    LSLSEQ   r0,r0,#31
        0x0001875a:    d107        ..      BNE      0x1876c ; am_hal_dcu_update + 156
        0x0001875c:    6828        (h      LDR      r0,[r5,#0]
        0x0001875e:    07c0        ..      LSLS     r0,r0,#31
        0x00018760:    f04f0000    O...    MOV      r0,#0
        0x00018764:    d0f0        ..      BEQ      0x18748 ; am_hal_dcu_update + 120
        0x00018766:    b001        ..      ADD      sp,sp,#4
        0x00018768:    bdf0        ..      POP      {r4-r7,pc}
        0x0001876a:    bf00        ..      NOP      
        0x0001876c:    2000        .       MOVS     r0,#0
        0x0001876e:    b001        ..      ADD      sp,sp,#4
        0x00018770:    bdf0        ..      POP      {r4-r7,pc}
        0x00018772:    0000        ..      MOVS     r0,r0
    am_hal_delay_us
        0x00018774:    f2410100    A...    MOVW     r1,#0x1000
        0x00018778:    f2c40102    ....    MOVT     r1,#0x4002
        0x0001877c:    6809        .h      LDR      r1,[r1,#0]
        0x0001877e:    2205        ."      MOVS     r2,#5
        0x00018780:    f0010118    ....    AND      r1,r1,#0x18
        0x00018784:    2910        .)      CMP      r1,#0x10
        0x00018786:    bf08        ..      IT       EQ
        0x00018788:    2206        ."      MOVEQ    r2,#6
        0x0001878a:    fa00f002    ....    LSL      r0,r0,r2
        0x0001878e:    f04f010f    O...    MOV      r1,#0xf
        0x00018792:    bf08        ..      IT       EQ
        0x00018794:    2115        .!      MOVEQ    r1,#0x15
        0x00018796:    4281        .B      CMP      r1,r0
        0x00018798:    bf28        (.      IT       CS
        0x0001879a:    4770        pG      BXCS     lr
        0x0001879c:    1a40        @.      SUBS     r0,r0,r1
        0x0001879e:    f64b21f0    K..!    MOV      r1,#0xbaf0
        0x000187a2:    f2c00101    ....    MOVT     r1,#1
        0x000187a6:    6a49        Ij      LDR      r1,[r1,#0x24]
        0x000187a8:    4708        .G      BX       r1
        0x000187aa:    0000        ..      MOVS     r0,r0
    am_hal_delay_us_status_change
        0x000187ac:    e92d43f0    -..C    PUSH     {r4-r9,lr}
        0x000187b0:    b081        ..      SUB      sp,sp,#4
        0x000187b2:    460d        .F      MOV      r5,r1
        0x000187b4:    6809        .h      LDR      r1,[r1,#0]
        0x000187b6:    4011        .@      ANDS     r1,r1,r2
        0x000187b8:    4299        .B      CMP      r1,r3
        0x000187ba:    d01b        ..      BEQ      0x187f4 ; am_hal_delay_us_status_change + 72
        0x000187bc:    f64b21f0    K..!    MOV      r1,#0xbaf0
        0x000187c0:    f2c00101    ....    MOVT     r1,#1
        0x000187c4:    6a4f        Oj      LDR      r7,[r1,#0x24]
        0x000187c6:    f2410900    A...    MOVW     r9,#0x1000
        0x000187ca:    4698        .F      MOV      r8,r3
        0x000187cc:    4616        .F      MOV      r6,r2
        0x000187ce:    1c44        D.      ADDS     r4,r0,#1
        0x000187d0:    f2c40902    ....    MOVT     r9,#0x4002
        0x000187d4:    3c01        .<      SUBS     r4,#1
        0x000187d6:    d011        ..      BEQ      0x187fc ; am_hal_delay_us_status_change + 80
        0x000187d8:    f8d90000    ....    LDR      r0,[r9,#0]
        0x000187dc:    f0000018    ....    AND      r0,r0,#0x18
        0x000187e0:    2810        .(      CMP      r0,#0x10
        0x000187e2:    f04f0011    O...    MOV      r0,#0x11
        0x000187e6:    bf08        ..      IT       EQ
        0x000187e8:    202b        +       MOVEQ    r0,#0x2b
        0x000187ea:    47b8        .G      BLX      r7
        0x000187ec:    6828        (h      LDR      r0,[r5,#0]
        0x000187ee:    4030        0@      ANDS     r0,r0,r6
        0x000187f0:    4540        @E      CMP      r0,r8
        0x000187f2:    d1ef        ..      BNE      0x187d4 ; am_hal_delay_us_status_change + 40
        0x000187f4:    2000        .       MOVS     r0,#0
        0x000187f6:    b001        ..      ADD      sp,sp,#4
        0x000187f8:    e8bd83f0    ....    POP      {r4-r9,pc}
        0x000187fc:    2004        .       MOVS     r0,#4
        0x000187fe:    b001        ..      ADD      sp,sp,#4
        0x00018800:    e8bd83f0    ....    POP      {r4-r9,pc}
    am_hal_delay_us_status_check
        0x00018804:    e92d43f0    -..C    PUSH     {r4-r9,lr}
        0x00018808:    b081        ..      SUB      sp,sp,#4
        0x0001880a:    4615        .F      MOV      r5,r2
        0x0001880c:    f64b22f0    K.."    MOV      r2,#0xbaf0
        0x00018810:    460e        .F      MOV      r6,r1
        0x00018812:    f2c00201    ....    MOVT     r2,#1
        0x00018816:    9908        ..      LDR      r1,[sp,#0x20]
        0x00018818:    f8d29024    ..$.    LDR      r9,[r2,#0x24]
        0x0001881c:    6832        2h      LDR      r2,[r6,#0]
        0x0001881e:    461c        .F      MOV      r4,r3
        0x00018820:    2900        .)      CMP      r1,#0
        0x00018822:    ea020105    ....    AND      r1,r2,r5
        0x00018826:    d019        ..      BEQ      0x1885c ; am_hal_delay_us_status_check + 88
        0x00018828:    42a1        .B      CMP      r1,r4
        0x0001882a:    d02f        /.      BEQ      0x1888c ; am_hal_delay_us_status_check + 136
        0x0001882c:    f2410800    A...    MOVW     r8,#0x1000
        0x00018830:    f2c40802    ....    MOVT     r8,#0x4002
        0x00018834:    1c47        G.      ADDS     r7,r0,#1
        0x00018836:    bf00        ..      NOP      
        0x00018838:    3f01        .?      SUBS     r7,#1
        0x0001883a:    d02b        +.      BEQ      0x18894 ; am_hal_delay_us_status_check + 144
        0x0001883c:    f8d80000    ....    LDR      r0,[r8,#0]
        0x00018840:    f0000018    ....    AND      r0,r0,#0x18
        0x00018844:    2810        .(      CMP      r0,#0x10
        0x00018846:    f04f0011    O...    MOV      r0,#0x11
        0x0001884a:    bf08        ..      IT       EQ
        0x0001884c:    202b        +       MOVEQ    r0,#0x2b
        0x0001884e:    47c8        .G      BLX      r9
        0x00018850:    6830        0h      LDR      r0,[r6,#0]
        0x00018852:    4028        (@      ANDS     r0,r0,r5
        0x00018854:    42a0        .B      CMP      r0,r4
        0x00018856:    d1ef        ..      BNE      0x18838 ; am_hal_delay_us_status_check + 52
        0x00018858:    e018        ..      B        0x1888c ; am_hal_delay_us_status_check + 136
        0x0001885a:    bf00        ..      NOP      
        0x0001885c:    42a1        .B      CMP      r1,r4
        0x0001885e:    d115        ..      BNE      0x1888c ; am_hal_delay_us_status_check + 136
        0x00018860:    f2410800    A...    MOVW     r8,#0x1000
        0x00018864:    f2c40802    ....    MOVT     r8,#0x4002
        0x00018868:    1c47        G.      ADDS     r7,r0,#1
        0x0001886a:    bf00        ..      NOP      
        0x0001886c:    3f01        .?      SUBS     r7,#1
        0x0001886e:    d011        ..      BEQ      0x18894 ; am_hal_delay_us_status_check + 144
        0x00018870:    f8d80000    ....    LDR      r0,[r8,#0]
        0x00018874:    f0000018    ....    AND      r0,r0,#0x18
        0x00018878:    2810        .(      CMP      r0,#0x10
        0x0001887a:    f04f0011    O...    MOV      r0,#0x11
        0x0001887e:    bf08        ..      IT       EQ
        0x00018880:    202b        +       MOVEQ    r0,#0x2b
        0x00018882:    47c8        .G      BLX      r9
        0x00018884:    6830        0h      LDR      r0,[r6,#0]
        0x00018886:    4028        (@      ANDS     r0,r0,r5
        0x00018888:    42a0        .B      CMP      r0,r4
        0x0001888a:    d0ef        ..      BEQ      0x1886c ; am_hal_delay_us_status_check + 104
        0x0001888c:    2000        .       MOVS     r0,#0
        0x0001888e:    b001        ..      ADD      sp,sp,#4
        0x00018890:    e8bd83f0    ....    POP      {r4-r9,pc}
        0x00018894:    2004        .       MOVS     r0,#4
        0x00018896:    b001        ..      ADD      sp,sp,#4
        0x00018898:    e8bd83f0    ....    POP      {r4-r9,pc}
    am_hal_gpio_pinconfig
        0x0001889c:    b081        ..      SUB      sp,sp,#4
        0x0001889e:    287f        .(      CMP      r0,#0x7f
        0x000188a0:    9100        ..      STR      r1,[sp,#0]
        0x000188a2:    bf82        ..      ITTT     HI
        0x000188a4:    2005        .       MOVHI    r0,#5
        0x000188a6:    b001        ..      ADDHI    sp,sp,#4
        0x000188a8:    4770        pG      BXHI     lr
        0x000188aa:    0509        ..      LSLS     r1,r1,#20
        0x000188ac:    d50b        ..      BPL      0x188c6 ; am_hal_gpio_pinconfig + 42
        0x000188ae:    f64b32bc    K..2    MOV      r2,#0xbbbc
        0x000188b2:    0941        A.      LSRS     r1,r0,#5
        0x000188b4:    f2c00201    ....    MOVT     r2,#1
        0x000188b8:    f8521021    R.!.    LDR      r1,[r2,r1,LSL #2]
        0x000188bc:    f000021f    ....    AND      r2,r0,#0x1f
        0x000188c0:    40d1        .@      LSRS     r1,r1,r2
        0x000188c2:    07c9        ..      LSLS     r1,r1,#31
        0x000188c4:    d012        ..      BEQ      0x188ec ; am_hal_gpio_pinconfig + 80
        0x000188c6:    f2402100    @..!    MOVW     r1,#0x200
        0x000188ca:    f2c40101    ....    MOVT     r1,#0x4001
        0x000188ce:    2273        s"      MOVS     r2,#0x73
        0x000188d0:    600a        .`      STR      r2,[r1,#0]
        0x000188d2:    9a00        ..      LDR      r2,[sp,#0]
        0x000188d4:    f64f6300    O..c    MOVW     r3,#0xfe00
        0x000188d8:    eb010080    ....    ADD      r0,r1,r0,LSL #2
        0x000188dc:    f6cf73ff    ...s    MOVT     r3,#0xffff
        0x000188e0:    50c2        .P      STR      r2,[r0,r3]
        0x000188e2:    2000        .       MOVS     r0,#0
        0x000188e4:    6008        .`      STR      r0,[r1,#0]
        0x000188e6:    b001        ..      ADD      sp,sp,#4
        0x000188e8:    4770        pG      BX       lr
        0x000188ea:    bf00        ..      NOP      
        0x000188ec:    2007        .       MOVS     r0,#7
        0x000188ee:    b001        ..      ADD      sp,sp,#4
        0x000188f0:    4770        pG      BX       lr
        0x000188f2:    0000        ..      MOVS     r0,r0
    am_hal_gpio_state_write
        0x000188f4:    b510        ..      PUSH     {r4,lr}
        0x000188f6:    b082        ..      SUB      sp,sp,#8
        0x000188f8:    2905        .)      CMP      r1,#5
        0x000188fa:    d813        ..      BHI      0x18924 ; am_hal_gpio_state_write + 48
        0x000188fc:    4604        .F      MOV      r4,r0
        0x000188fe:    e8dff001    ....    TBB      [pc,r1]
    $d.5
        0x00018902:    1503        ..      DCW    5379
        0x00018904:    65534127    'ASe    DCD    1699954983
    $t.6
        0x00018908:    f004001f    ....    AND      r0,r4,#0x1f
        0x0001890c:    2101        .!      MOVS     r1,#1
        0x0001890e:    f2402214    @.."    MOVW     r2,#0x214
        0x00018912:    fa01f000    ....    LSL      r0,r1,r0
        0x00018916:    f3c41141    ..A.    UBFX     r1,r4,#5,#2
        0x0001891a:    f2c40201    ....    MOVT     r2,#0x4001
        0x0001891e:    eb020181    ....    ADD      r1,r2,r1,LSL #2
        0x00018922:    6208        .b      STR      r0,[r1,#0x20]
        0x00018924:    2000        .       MOVS     r0,#0
        0x00018926:    b002        ..      ADD      sp,sp,#8
        0x00018928:    bd10        ..      POP      {r4,pc}
        0x0001892a:    bf00        ..      NOP      
        0x0001892c:    f004001f    ....    AND      r0,r4,#0x1f
        0x00018930:    2101        .!      MOVS     r1,#1
        0x00018932:    f2402214    @.."    MOVW     r2,#0x214
        0x00018936:    fa01f000    ....    LSL      r0,r1,r0
        0x0001893a:    f3c41141    ..A.    UBFX     r1,r4,#5,#2
        0x0001893e:    f2c40201    ....    MOVT     r2,#0x4001
        0x00018942:    eb020181    ....    ADD      r1,r2,r1,LSL #2
        0x00018946:    6108        .a      STR      r0,[r1,#0x10]
        0x00018948:    2000        .       MOVS     r0,#0
        0x0001894a:    b002        ..      ADD      sp,sp,#8
        0x0001894c:    bd10        ..      POP      {r4,pc}
        0x0001894e:    bf00        ..      NOP      
        0x00018950:    f000f856    ..V.    BL       am_hal_interrupt_master_disable ; 0x18a00
        0x00018954:    f2402314    @..#    MOVW     r3,#0x214
        0x00018958:    9001        ..      STR      r0,[sp,#4]
        0x0001895a:    f3c41241    ..A.    UBFX     r2,r4,#5,#2
        0x0001895e:    f2c40301    ....    MOVT     r3,#0x4001
        0x00018962:    f004001f    ....    AND      r0,r4,#0x1f
        0x00018966:    2101        .!      MOVS     r1,#1
        0x00018968:    f8534022    S."@    LDR      r4,[r3,r2,LSL #2]
        0x0001896c:    fa01f000    ....    LSL      r0,r1,r0
        0x00018970:    4060        `@      EORS     r0,r0,r4
        0x00018972:    f8430022    C.".    STR      r0,[r3,r2,LSL #2]
        0x00018976:    9801        ..      LDR      r0,[sp,#4]
        0x00018978:    f000f84a    ..J.    BL       am_hal_interrupt_master_set ; 0x18a10
        0x0001897c:    2000        .       MOVS     r0,#0
        0x0001897e:    b002        ..      ADD      sp,sp,#8
        0x00018980:    bd10        ..      POP      {r4,pc}
        0x00018982:    bf00        ..      NOP      
        0x00018984:    f004001f    ....    AND      r0,r4,#0x1f
        0x00018988:    2101        .!      MOVS     r1,#1
        0x0001898a:    f2402214    @.."    MOVW     r2,#0x214
        0x0001898e:    fa01f000    ....    LSL      r0,r1,r0
        0x00018992:    f3c41141    ..A.    UBFX     r1,r4,#5,#2
        0x00018996:    f2c40201    ....    MOVT     r2,#0x4001
        0x0001899a:    eb020181    ....    ADD      r1,r2,r1,LSL #2
        0x0001899e:    6508        .e      STR      r0,[r1,#0x50]
        0x000189a0:    2000        .       MOVS     r0,#0
        0x000189a2:    b002        ..      ADD      sp,sp,#8
        0x000189a4:    bd10        ..      POP      {r4,pc}
        0x000189a6:    bf00        ..      NOP      
        0x000189a8:    f004001f    ....    AND      r0,r4,#0x1f
        0x000189ac:    2101        .!      MOVS     r1,#1
        0x000189ae:    f2402214    @.."    MOVW     r2,#0x214
        0x000189b2:    fa01f000    ....    LSL      r0,r1,r0
        0x000189b6:    f3c41141    ..A.    UBFX     r1,r4,#5,#2
        0x000189ba:    f2c40201    ....    MOVT     r2,#0x4001
        0x000189be:    eb020181    ....    ADD      r1,r2,r1,LSL #2
        0x000189c2:    6408        .d      STR      r0,[r1,#0x40]
        0x000189c4:    2000        .       MOVS     r0,#0
        0x000189c6:    b002        ..      ADD      sp,sp,#8
        0x000189c8:    bd10        ..      POP      {r4,pc}
        0x000189ca:    bf00        ..      NOP      
        0x000189cc:    f000f818    ....    BL       am_hal_interrupt_master_disable ; 0x18a00
        0x000189d0:    f2402314    @..#    MOVW     r3,#0x214
        0x000189d4:    f3c41241    ..A.    UBFX     r2,r4,#5,#2
        0x000189d8:    f2c40301    ....    MOVT     r3,#0x4001
        0x000189dc:    9000        ..      STR      r0,[sp,#0]
        0x000189de:    eb030282    ....    ADD      r2,r3,r2,LSL #2
        0x000189e2:    f004001f    ....    AND      r0,r4,#0x1f
        0x000189e6:    2101        .!      MOVS     r1,#1
        0x000189e8:    6b13        .k      LDR      r3,[r2,#0x30]
        0x000189ea:    fa01f000    ....    LSL      r0,r1,r0
        0x000189ee:    4058        X@      EORS     r0,r0,r3
        0x000189f0:    6310        .c      STR      r0,[r2,#0x30]
        0x000189f2:    9800        ..      LDR      r0,[sp,#0]
        0x000189f4:    f000f80c    ....    BL       am_hal_interrupt_master_set ; 0x18a10
        0x000189f8:    2000        .       MOVS     r0,#0
        0x000189fa:    b002        ..      ADD      sp,sp,#8
        0x000189fc:    bd10        ..      POP      {r4,pc}
        0x000189fe:    0000        ..      MOVS     r0,r0
    am_hal_interrupt_master_disable
        0x00018a00:    f3ef8010    ....    MRS      r0,PRIMASK
        0x00018a04:    b672        r.      CPSID    i
        0x00018a06:    4770        pG      BX       lr
    am_hal_interrupt_master_enable
        0x00018a08:    f3ef8010    ....    MRS      r0,PRIMASK
        0x00018a0c:    b662        b.      CPSIE    i
        0x00018a0e:    4770        pG      BX       lr
    am_hal_interrupt_master_set
        0x00018a10:    f3808810    ....    MSR      PRIMASK,r0
        0x00018a14:    4770        pG      BX       lr
        0x00018a16:    0000        ..      MOVS     r0,r0
    am_hal_ios_configure
        0x00018a18:    e92d41f0    -..A    PUSH     {r4-r8,lr}
        0x00018a1c:    b082        ..      SUB      sp,sp,#8
        0x00018a1e:    b188        ..      CBZ      r0,0x18a44 ; am_hal_ios_configure + 44
        0x00018a20:    4605        .F      MOV      r5,r0
        0x00018a22:    6800        .h      LDR      r0,[r0,#0]
        0x00018a24:    f2434756    C.VG    MOV      r7,#0x3456
        0x00018a28:    460c        .F      MOV      r4,r1
        0x00018a2a:    f2c01712    ....    MOVT     r7,#0x112
        0x00018a2e:    f020417e     .~A    BIC      r1,r0,#0xfe000000
        0x00018a32:    42b9        .B      CMP      r1,r7
        0x00018a34:    d106        ..      BNE      0x18a44 ; am_hal_ios_configure + 44
        0x00018a36:    b10c        ..      CBZ      r4,0x18a3c ; am_hal_ios_configure + 36
        0x00018a38:    6869        ih      LDR      r1,[r5,#4]
        0x00018a3a:    b139        9.      CBZ      r1,0x18a4c ; am_hal_ios_configure + 52
        0x00018a3c:    2006        .       MOVS     r0,#6
        0x00018a3e:    b002        ..      ADD      sp,sp,#8
        0x00018a40:    e8bd81f0    ....    POP      {r4-r8,pc}
        0x00018a44:    2002        .       MOVS     r0,#2
        0x00018a46:    b002        ..      ADD      sp,sp,#8
        0x00018a48:    e8bd81f0    ....    POP      {r4-r8,pc}
        0x00018a4c:    0180        ..      LSLS     r0,r0,#6
        0x00018a4e:    f10080a5    ....    BMI.W    0x18b9c ; am_hal_ios_configure + 388
        0x00018a52:    f2441818    D...    MOV      r8,#0x4118
        0x00018a56:    f2c40803    ....    MOVT     r8,#0x4003
        0x00018a5a:    e9d40c02    ....    LDRD     r0,r12,[r4,#8]
        0x00018a5e:    f5a8738c    ...s    SUB      r3,r8,#0x118
        0x00018a62:    18c1        ..      ADDS     r1,r0,r3
        0x00018a64:    4463        cD      ADD      r3,r3,r12
        0x00018a66:    e9c51308    ....    STRD     r1,r3,[r5,#0x20]
        0x00018a6a:    1a59        Y.      SUBS     r1,r3,r1
        0x00018a6c:    69a2        .i      LDR      r2,[r4,#0x18]
        0x00018a6e:    f885102c    ..,.    STRB     r1,[r5,#0x2c]
        0x00018a72:    b2c9        ..      UXTB     r1,r1
        0x00018a74:    f5c16380    ...c    RSB      r3,r1,#0x400
        0x00018a78:    429a        .B      CMP      r2,r3
        0x00018a7a:    6328        (c      STR      r0,[r5,#0x30]
        0x00018a7c:    bf84        ..      ITT      HI
        0x00018a7e:    61a3        .a      STRHI    r3,[r4,#0x18]
        0x00018a80:    461a        .F      MOVHI    r2,r3
        0x00018a82:    6963        ci      LDR      r3,[r4,#0x14]
        0x00018a84:    f6403664    @.d6    MOV      r6,#0xb64
        0x00018a88:    f2c10600    ....    MOVT     r6,#0x1000
        0x00018a8c:    2100        .!      MOVS     r1,#0
        0x00018a8e:    f8d4e004    ....    LDR      lr,[r4,#4]
        0x00018a92:    6071        q`      STR      r1,[r6,#4]
        0x00018a94:    60b1        .`      STR      r1,[r6,#8]
        0x00018a96:    60f1        .`      STR      r1,[r6,#0xc]
        0x00018a98:    6132        2a      STR      r2,[r6,#0x10]
        0x00018a9a:    6033        3`      STR      r3,[r6,#0]
        0x00018a9c:    682b        +h      LDR      r3,[r5,#0]
        0x00018a9e:    f3c000c4    ....    UBFX     r0,r0,#3,#5
        0x00018aa2:    f40c72fc    ...r    AND      r2,r12,#0x1f8
        0x00018aa6:    f40e71fc    ...q    AND      r1,lr,#0x1f8
        0x00018aaa:    ea401042    @.B.    ORR      r0,r0,r2,LSL #5
        0x00018aae:    f023427c    #.|B    BIC      r2,r3,#0xfc000000
        0x00018ab2:    f1077300    ...s    ADD      r3,r7,#0x2000000
        0x00018ab6:    429a        .B      CMP      r2,r3
        0x00018ab8:    ea405041    @.AP    ORR      r0,r0,r1,LSL #21
        0x00018abc:    d109        ..      BNE      0x18ad2 ; am_hal_ios_configure + 186
        0x00018abe:    f8d81000    ....    LDR      r1,[r8,#0]
        0x00018ac2:    f0214100    !..A    BIC      r1,r1,#0x80000000
        0x00018ac6:    f8c81000    ....    STR      r1,[r8,#0]
        0x00018aca:    6829        )h      LDR      r1,[r5,#0]
        0x00018acc:    f0217100    !..q    BIC      r1,r1,#0x2000000
        0x00018ad0:    6029        )`      STR      r1,[r5,#0]
        0x00018ad2:    6821        !h      LDR      r1,[r4,#0]
        0x00018ad4:    f8c81000    ....    STR      r1,[r8,#0]
        0x00018ad8:    f8480c14    H...    STR      r0,[r8,#-0x14]
        0x00018adc:    f8580c08    X...    LDR      r0,[r8,#-8]
        0x00018ae0:    f24031ff    @..1    MOV      r1,#0x3ff
        0x00018ae4:    4388        .C      BICS     r0,r0,r1
        0x00018ae6:    f8480c08    H...    STR      r0,[r8,#-8]
        0x00018aea:    f8580c18    X...    LDR      r0,[r8,#-0x18]
        0x00018aee:    f420407f     ..@    BIC      r0,r0,#0xff00
        0x00018af2:    f8480c18    H...    STR      r0,[r8,#-0x18]
        0x00018af6:    6828        (h      LDR      r0,[r5,#0]
        0x00018af8:    f020407e     .~@    BIC      r0,r0,#0xfe000000
        0x00018afc:    42b8        .B      CMP      r0,r7
        0x00018afe:    d113        ..      BNE      0x18b28 ; am_hal_ios_configure + 272
        0x00018b00:    6b2e        .k      LDR      r6,[r5,#0x30]
        0x00018b02:    f7ffff7d    ..}.    BL       am_hal_interrupt_master_disable ; 0x18a00
        0x00018b06:    9000        ..      STR      r0,[sp,#0]
        0x00018b08:    2001        .       MOVS     r0,#1
        0x00018b0a:    f8480c0c    H...    STR      r0,[r8,#-0xc]
        0x00018b0e:    2000        .       MOVS     r0,#0
        0x00018b10:    f8486c18    H..l    STR      r6,[r8,#-0x18]
        0x00018b14:    f8480c0c    H...    STR      r0,[r8,#-0xc]
        0x00018b18:    eb080006    ....    ADD      r0,r8,r6
        0x00018b1c:    f5a0708c    ...p    SUB      r0,r0,#0x118
        0x00018b20:    62a8        .b      STR      r0,[r5,#0x28]
        0x00018b22:    9800        ..      LDR      r0,[sp,#0]
        0x00018b24:    f7ffff74    ..t.    BL       am_hal_interrupt_master_set ; 0x18a10
        0x00018b28:    7f20         .      LDRB     r0,[r4,#0x1c]
        0x00018b2a:    f8d81000    ....    LDR      r1,[r8,#0]
        0x00018b2e:    f0000001    ....    AND      r0,r0,#1
        0x00018b32:    f4211180    !...    BIC      r1,r1,#0x100000
        0x00018b36:    ea415000    A..P    ORR      r0,r1,r0,LSL #20
        0x00018b3a:    f8c80000    ....    STR      r0,[r8,#0]
        0x00018b3e:    6828        (h      LDR      r0,[r5,#0]
        0x00018b40:    f020417c     .|A    BIC      r1,r0,#0xfc000000
        0x00018b44:    42b9        .B      CMP      r1,r7
        0x00018b46:    d109        ..      BNE      0x18b5c ; am_hal_ios_configure + 324
        0x00018b48:    f8d80000    ....    LDR      r0,[r8,#0]
        0x00018b4c:    f0404000    @..@    ORR      r0,r0,#0x80000000
        0x00018b50:    f8c80000    ....    STR      r0,[r8,#0]
        0x00018b54:    6828        (h      LDR      r0,[r5,#0]
        0x00018b56:    f0407000    @..p    ORR      r0,r0,#0x2000000
        0x00018b5a:    6028        (`      STR      r0,[r5,#0]
        0x00018b5c:    f020407e     .~@    BIC      r0,r0,#0xfe000000
        0x00018b60:    42b8        .B      CMP      r0,r7
        0x00018b62:    d113        ..      BNE      0x18b8c ; am_hal_ios_configure + 372
        0x00018b64:    68a6        .h      LDR      r6,[r4,#8]
        0x00018b66:    f7ffff4b    ..K.    BL       am_hal_interrupt_master_disable ; 0x18a00
        0x00018b6a:    9001        ..      STR      r0,[sp,#4]
        0x00018b6c:    2001        .       MOVS     r0,#1
        0x00018b6e:    f8480c0c    H...    STR      r0,[r8,#-0xc]
        0x00018b72:    2000        .       MOVS     r0,#0
        0x00018b74:    f8486c18    H..l    STR      r6,[r8,#-0x18]
        0x00018b78:    f8480c0c    H...    STR      r0,[r8,#-0xc]
        0x00018b7c:    eb080006    ....    ADD      r0,r8,r6
        0x00018b80:    f5a0708c    ...p    SUB      r0,r0,#0x118
        0x00018b84:    62a8        .b      STR      r0,[r5,#0x28]
        0x00018b86:    9801        ..      LDR      r0,[sp,#4]
        0x00018b88:    f7ffff42    ..B.    BL       am_hal_interrupt_master_set ; 0x18a10
        0x00018b8c:    6920         i      LDR      r0,[r4,#0x10]
        0x00018b8e:    f8480c10    H...    STR      r0,[r8,#-0x10]
        0x00018b92:    2000        .       MOVS     r0,#0
        0x00018b94:    b002        ..      ADD      sp,sp,#8
        0x00018b96:    e8bd81f0    ....    POP      {r4-r8,pc}
        0x00018b9a:    bf00        ..      NOP      
        0x00018b9c:    2007        .       MOVS     r0,#7
        0x00018b9e:    b002        ..      ADD      sp,sp,#8
        0x00018ba0:    e8bd81f0    ....    POP      {r4-r8,pc}
    am_hal_ios_control
        0x00018ba4:    b580        ..      PUSH     {r7,lr}
        0x00018ba6:    b082        ..      SUB      sp,sp,#8
        0x00018ba8:    2300        .#      MOVS     r3,#0
        0x00018baa:    9301        ..      STR      r3,[sp,#4]
        0x00018bac:    b180        ..      CBZ      r0,0x18bd0 ; am_hal_ios_control + 44
        0x00018bae:    6803        .h      LDR      r3,[r0,#0]
        0x00018bb0:    f0234c7e    #.~L    BIC      r12,r3,#0xfe000000
        0x00018bb4:    f2434356    C.VC    MOV      r3,#0x3456
        0x00018bb8:    f2c01312    ....    MOVT     r3,#0x112
        0x00018bbc:    459c        .E      CMP      r12,r3
        0x00018bbe:    d107        ..      BNE      0x18bd0 ; am_hal_ios_control + 44
        0x00018bc0:    290a        .)      CMP      r1,#0xa
        0x00018bc2:    d809        ..      BHI      0x18bd8 ; am_hal_ios_control + 52
        0x00018bc4:    b942        B.      CBNZ     r2,0x18bd8 ; am_hal_ios_control + 52
        0x00018bc6:    2306        .#      MOVS     r3,#6
        0x00018bc8:    4618        .F      MOV      r0,r3
        0x00018bca:    b002        ..      ADD      sp,sp,#8
        0x00018bcc:    bd80        ..      POP      {r7,pc}
        0x00018bce:    bf00        ..      NOP      
        0x00018bd0:    2302        .#      MOVS     r3,#2
        0x00018bd2:    4618        .F      MOV      r0,r3
        0x00018bd4:    b002        ..      ADD      sp,sp,#8
        0x00018bd6:    bd80        ..      POP      {r7,pc}
        0x00018bd8:    290e        .)      CMP      r1,#0xe
        0x00018bda:    f20080b0    ....    BHI.W    0x18d3e ; am_hal_ios_control + 410
        0x00018bde:    2306        .#      MOVS     r3,#6
        0x00018be0:    e8dff001    ....    TBB      [pc,r1]
    $d.15
        0x00018be4:    241a0e0a    ...$    DCD    605687306
        0x00018be8:    4840362c    ,6@H    DCD    1212167724
        0x00018bec:    6a605850    PX`j    DCD    1784698960
        0x00018bf0:    00089080    ....    DCD    561280
    $t.16
        0x00018bf4:    e7e8        ..      B        0x18bc8 ; am_hal_ios_control + 36
        0x00018bf6:    bf00        ..      NOP      
        0x00018bf8:    6810        .h      LDR      r0,[r2,#0]
        0x00018bfa:    0600        ..      LSLS     r0,r0,#24
        0x00018bfc:    e005        ..      B        0x18c0a ; am_hal_ios_control + 102
        0x00018bfe:    bf00        ..      NOP      
        0x00018c00:    6810        .h      LDR      r0,[r2,#0]
        0x00018c02:    f44f3180    O..1    MOV      r1,#0x10000
        0x00018c06:    ea014000    ...@    AND      r0,r1,r0,LSL #16
        0x00018c0a:    f2442110    D..!    MOV      r1,#0x4210
        0x00018c0e:    f2c40103    ....    MOVT     r1,#0x4003
        0x00018c12:    f8410cf0    A...    STR      r0,[r1,#-0xf0]
        0x00018c16:    e092        ..      B        0x18d3e ; am_hal_ios_control + 410
        0x00018c18:    f2442010    D..     MOV      r0,#0x4210
        0x00018c1c:    f2c40003    ....    MOVT     r0,#0x4003
        0x00018c20:    f8500cf0    P...    LDR      r0,[r0,#-0xf0]
        0x00018c24:    f3c02007    ...     UBFX     r0,r0,#8,#8
        0x00018c28:    6010        .`      STR      r0,[r2,#0]
        0x00018c2a:    e088        ..      B        0x18d3e ; am_hal_ios_control + 410
        0x00018c2c:    f2442010    D..     MOV      r0,#0x4210
        0x00018c30:    f2c40003    ....    MOVT     r0,#0x4003
        0x00018c34:    f8500cf0    P...    LDR      r0,[r0,#-0xf0]
        0x00018c38:    e006        ..      B        0x18c48 ; am_hal_ios_control + 164
        0x00018c3a:    bf00        ..      NOP      
        0x00018c3c:    f2442010    D..     MOV      r0,#0x4210
        0x00018c40:    f2c40003    ....    MOVT     r0,#0x4003
        0x00018c44:    f8500cec    P...    LDR      r0,[r0,#-0xec]
        0x00018c48:    b2c0        ..      UXTB     r0,r0
        0x00018c4a:    6010        .`      STR      r0,[r2,#0]
        0x00018c4c:    e077        w.      B        0x18d3e ; am_hal_ios_control + 410
        0x00018c4e:    bf00        ..      NOP      
        0x00018c50:    f2442110    D..!    MOV      r1,#0x4210
        0x00018c54:    f2c40103    ....    MOVT     r1,#0x4003
        0x00018c58:    6810        .h      LDR      r0,[r2,#0]
        0x00018c5a:    680a        .h      LDR      r2,[r1,#0]
        0x00018c5c:    4310        .C      ORRS     r0,r0,r2
        0x00018c5e:    6008        .`      STR      r0,[r1,#0]
        0x00018c60:    e06d        m.      B        0x18d3e ; am_hal_ios_control + 410
        0x00018c62:    bf00        ..      NOP      
        0x00018c64:    6810        .h      LDR      r0,[r2,#0]
        0x00018c66:    f2442110    D..!    MOV      r1,#0x4210
        0x00018c6a:    f2c40103    ....    MOVT     r1,#0x4003
        0x00018c6e:    60c8        .`      STR      r0,[r1,#0xc]
        0x00018c70:    e065        e.      B        0x18d3e ; am_hal_ios_control + 410
        0x00018c72:    bf00        ..      NOP      
        0x00018c74:    6810        .h      LDR      r0,[r2,#0]
        0x00018c76:    f2442110    D..!    MOV      r1,#0x4210
        0x00018c7a:    f2c40103    ....    MOVT     r1,#0x4003
        0x00018c7e:    6088        .`      STR      r0,[r1,#8]
        0x00018c80:    e05d        ].      B        0x18d3e ; am_hal_ios_control + 410
        0x00018c82:    bf00        ..      NOP      
        0x00018c84:    f2442010    D..     MOV      r0,#0x4210
        0x00018c88:    f2c40003    ....    MOVT     r0,#0x4003
        0x00018c8c:    6840        @h      LDR      r0,[r0,#4]
        0x00018c8e:    6010        .`      STR      r0,[r2,#0]
        0x00018c90:    e055        U.      B        0x18d3e ; am_hal_ios_control + 410
        0x00018c92:    bf00        ..      NOP      
        0x00018c94:    f2442010    D..     MOV      r0,#0x4210
        0x00018c98:    f2c40003    ....    MOVT     r0,#0x4003
        0x00018c9c:    6800        .h      LDR      r0,[r0,#0]
        0x00018c9e:    6010        .`      STR      r0,[r2,#0]
        0x00018ca0:    e04d        M.      B        0x18d3e ; am_hal_ios_control + 410
        0x00018ca2:    bf00        ..      NOP      
        0x00018ca4:    f2442110    D..!    MOV      r1,#0x4210
        0x00018ca8:    f2c40103    ....    MOVT     r1,#0x4003
        0x00018cac:    6810        .h      LDR      r0,[r2,#0]
        0x00018cae:    680a        .h      LDR      r2,[r1,#0]
        0x00018cb0:    ea220000    "...    BIC      r0,r2,r0
        0x00018cb4:    6008        .`      STR      r0,[r1,#0]
        0x00018cb6:    e042        B.      B        0x18d3e ; am_hal_ios_control + 410
        0x00018cb8:    f2442010    D..     MOV      r0,#0x4210
        0x00018cbc:    f64f61fc    O..a    MOV      r1,#0xfefc
        0x00018cc0:    f2c40003    ....    MOVT     r0,#0x4003
        0x00018cc4:    f6cf71ff    ...q    MOVT     r1,#0xffff
        0x00018cc8:    5842        BX      LDR      r2,[r0,r1]
        0x00018cca:    0792        ..      LSLS     r2,r2,#30
        0x00018ccc:    d537        7.      BPL      0x18d3e ; am_hal_ios_control + 410
        0x00018cce:    5842        BX      LDR      r2,[r0,r1]
        0x00018cd0:    0792        ..      LSLS     r2,r2,#30
        0x00018cd2:    bf44        D.      ITT      MI
        0x00018cd4:    5842        BX      LDRMI    r2,[r0,r1]
        0x00018cd6:    ea5f7282    _..r    LSLSMI   r2,r2,#30
        0x00018cda:    d530        0.      BPL      0x18d3e ; am_hal_ios_control + 410
        0x00018cdc:    5842        BX      LDR      r2,[r0,r1]
        0x00018cde:    0792        ..      LSLS     r2,r2,#30
        0x00018ce0:    d4f2        ..      BMI      0x18cc8 ; am_hal_ios_control + 292
        0x00018ce2:    e02c        ,.      B        0x18d3e ; am_hal_ios_control + 410
        0x00018ce4:    a901        ..      ADD      r1,sp,#4
        0x00018ce6:    f000f82f    ../.    BL       am_hal_ios_fifo_space_used ; 0x18d48
        0x00018cea:    f2442210    D.."    MOV      r2,#0x4210
        0x00018cee:    f06f01ff    o...    MVN      r1,#0xff
        0x00018cf2:    f2c40203    ....    MOVT     r2,#0x4003
        0x00018cf6:    9801        ..      LDR      r0,[sp,#4]
        0x00018cf8:    5853        SX      LDR      r3,[r2,r1]
        0x00018cfa:    f3600309    `...    BFI      r3,r0,#0,#10
        0x00018cfe:    5053        SP      STR      r3,[r2,r1]
        0x00018d00:    e01d        ..      B        0x18d3e ; am_hal_ios_control + 410
        0x00018d02:    bf00        ..      NOP      
        0x00018d04:    f6403064    @.d0    MOV      r0,#0xb64
        0x00018d08:    f2c10000    ....    MOVT     r0,#0x1000
        0x00018d0c:    2100        .!      MOVS     r1,#0
        0x00018d0e:    6041        A`      STR      r1,[r0,#4]
        0x00018d10:    6081        .`      STR      r1,[r0,#8]
        0x00018d12:    60c1        .`      STR      r1,[r0,#0xc]
        0x00018d14:    6101        .a      STR      r1,[r0,#0x10]
        0x00018d16:    6001        .`      STR      r1,[r0,#0]
        0x00018d18:    f2442110    D..!    MOV      r1,#0x4210
        0x00018d1c:    f06f00ff    o...    MVN      r0,#0xff
        0x00018d20:    f2c40103    ....    MOVT     r1,#0x4003
        0x00018d24:    580a        .X      LDR      r2,[r1,r0]
        0x00018d26:    f24033ff    @..3    MOV      r3,#0x3ff
        0x00018d2a:    439a        .C      BICS     r2,r2,r3
        0x00018d2c:    500a        .P      STR      r2,[r1,r0]
        0x00018d2e:    f64f60f0    O..`    MOV      r0,#0xfef0
        0x00018d32:    f6cf70ff    ...p    MOVT     r0,#0xffff
        0x00018d36:    580a        .X      LDR      r2,[r1,r0]
        0x00018d38:    f422427f    "..B    BIC      r2,r2,#0xff00
        0x00018d3c:    500a        .P      STR      r2,[r1,r0]
        0x00018d3e:    2300        .#      MOVS     r3,#0
        0x00018d40:    4618        .F      MOV      r0,r3
        0x00018d42:    b002        ..      ADD      sp,sp,#8
        0x00018d44:    bd80        ..      POP      {r7,pc}
        0x00018d46:    0000        ..      MOVS     r0,r0
    am_hal_ios_fifo_space_used
        0x00018d48:    b5b0        ..      PUSH     {r4,r5,r7,lr}
        0x00018d4a:    b082        ..      SUB      sp,sp,#8
        0x00018d4c:    b300        ..      CBZ      r0,0x18d90 ; am_hal_ios_fifo_space_used + 72
        0x00018d4e:    6800        .h      LDR      r0,[r0,#0]
        0x00018d50:    460c        .F      MOV      r4,r1
        0x00018d52:    f2434156    C.VA    MOV      r1,#0x3456
        0x00018d56:    f020407e     .~@    BIC      r0,r0,#0xfe000000
        0x00018d5a:    f2c01112    ....    MOVT     r1,#0x112
        0x00018d5e:    4288        .B      CMP      r0,r1
        0x00018d60:    d116        ..      BNE      0x18d90 ; am_hal_ios_fifo_space_used + 72
        0x00018d62:    b1cc        ..      CBZ      r4,0x18d98 ; am_hal_ios_fifo_space_used + 80
        0x00018d64:    f7fffe4c    ..L.    BL       am_hal_interrupt_master_disable ; 0x18a00
        0x00018d68:    9001        ..      STR      r0,[sp,#4]
        0x00018d6a:    f6403064    @.d0    MOV      r0,#0xb64
        0x00018d6e:    f2c10000    ....    MOVT     r0,#0x1000
        0x00018d72:    68c1        .h      LDR      r1,[r0,#0xc]
        0x00018d74:    f2441000    D...    MOVW     r0,#0x4100
        0x00018d78:    f2c40003    ....    MOVT     r0,#0x4003
        0x00018d7c:    6802        .h      LDR      r2,[r0,#0]
        0x00018d7e:    9801        ..      LDR      r0,[sp,#4]
        0x00018d80:    fa51f592    Q...    UXTAB    r5,r1,r2,ROR #8
        0x00018d84:    f7fffe44    ..D.    BL       am_hal_interrupt_master_set ; 0x18a10
        0x00018d88:    6025        %`      STR      r5,[r4,#0]
        0x00018d8a:    2000        .       MOVS     r0,#0
        0x00018d8c:    b002        ..      ADD      sp,sp,#8
        0x00018d8e:    bdb0        ..      POP      {r4,r5,r7,pc}
        0x00018d90:    2002        .       MOVS     r0,#2
        0x00018d92:    b002        ..      ADD      sp,sp,#8
        0x00018d94:    bdb0        ..      POP      {r4,r5,r7,pc}
        0x00018d96:    bf00        ..      NOP      
        0x00018d98:    2006        .       MOVS     r0,#6
        0x00018d9a:    b002        ..      ADD      sp,sp,#8
        0x00018d9c:    bdb0        ..      POP      {r4,r5,r7,pc}
        0x00018d9e:    0000        ..      MOVS     r0,r0
    am_hal_ios_fifo_write
        0x00018da0:    e92d4ff0    -..O    PUSH     {r4-r11,lr}
        0x00018da4:    b089        ..      SUB      sp,sp,#0x24
        0x00018da6:    b348        H.      CBZ      r0,0x18dfc ; am_hal_ios_fifo_write + 92
        0x00018da8:    4607        .F      MOV      r7,r0
        0x00018daa:    6800        .h      LDR      r0,[r0,#0]
        0x00018dac:    f2434456    C.VD    MOV      r4,#0x3456
        0x00018db0:    f2c01412    ....    MOVT     r4,#0x112
        0x00018db4:    f020407e     .~@    BIC      r0,r0,#0xfe000000
        0x00018db8:    42a0        .B      CMP      r0,r4
        0x00018dba:    d11f        ..      BNE      0x18dfc ; am_hal_ios_fifo_write + 92
        0x00018dbc:    460d        .F      MOV      r5,r1
        0x00018dbe:    2900        .)      CMP      r1,#0
        0x00018dc0:    f04f0006    O...    MOV      r0,#6
        0x00018dc4:    f0008199    ....    BEQ.W    0x190fa ; am_hal_ios_fifo_write + 858
        0x00018dc8:    4698        .F      MOV      r8,r3
        0x00018dca:    2b00        .+      CMP      r3,#0
        0x00018dcc:    f0008195    ....    BEQ.W    0x190fa ; am_hal_ios_fifo_write + 858
        0x00018dd0:    f6403a64    @.d:    MOV      r10,#0xb64
        0x00018dd4:    f2c10a00    ....    MOVT     r10,#0x1000
        0x00018dd8:    f8da0000    ....    LDR      r0,[r10,#0]
        0x00018ddc:    b190        ..      CBZ      r0,0x18e04 ; am_hal_ios_fifo_write + 100
        0x00018dde:    4616        .F      MOV      r6,r2
        0x00018de0:    b1a2        ..      CBZ      r2,0x18e0c ; am_hal_ios_fifo_write + 108
        0x00018de2:    f7fffe0d    ....    BL       am_hal_interrupt_master_disable ; 0x18a00
        0x00018de6:    9008        ..      STR      r0,[sp,#0x20]
        0x00018de8:    f8da900c    ....    LDR      r9,[r10,#0xc]
        0x00018dec:    9808        ..      LDR      r0,[sp,#0x20]
        0x00018dee:    f7fffe0f    ....    BL       am_hal_interrupt_master_set ; 0x18a10
        0x00018df2:    f1b90f00    ....    CMP      r9,#0
        0x00018df6:    d00b        ..      BEQ      0x18e10 ; am_hal_ios_fifo_write + 112
        0x00018df8:    4633        3F      MOV      r3,r6
        0x00018dfa:    e0d7        ..      B        0x18fac ; am_hal_ios_fifo_write + 524
        0x00018dfc:    2002        .       MOVS     r0,#2
        0x00018dfe:    b009        ..      ADD      sp,sp,#0x24
        0x00018e00:    e8bd8ff0    ....    POP      {r4-r11,pc}
        0x00018e04:    2007        .       MOVS     r0,#7
        0x00018e06:    b009        ..      ADD      sp,sp,#0x24
        0x00018e08:    e8bd8ff0    ....    POP      {r4-r11,pc}
        0x00018e0c:    2000        .       MOVS     r0,#0
        0x00018e0e:    e171        q.      B        0x190f4 ; am_hal_ios_fifo_write + 852
        0x00018e10:    6838        8h      LDR      r0,[r7,#0]
        0x00018e12:    f020407e     .~@    BIC      r0,r0,#0xfe000000
        0x00018e16:    42a0        .B      CMP      r0,r4
        0x00018e18:    d12a        *.      BNE      0x18e70 ; am_hal_ios_fifo_write + 208
        0x00018e1a:    f2441000    D...    MOVW     r0,#0x4100
        0x00018e1e:    f2c40003    ....    MOVT     r0,#0x4003
        0x00018e22:    f897302c    ..,0    LDRB     r3,[r7,#0x2c]
        0x00018e26:    6800        .h      LDR      r0,[r0,#0]
        0x00018e28:    f3c02407    ...$    UBFX     r4,r0,#8,#8
        0x00018e2c:    f8570f28    W.(.    LDR      r0,[r7,#0x28]!
        0x00018e30:    43e1        .C      MVNS     r1,r4
        0x00018e32:    eb010c03    ....    ADD      r12,r1,r3
        0x00018e36:    e9571202    W...    LDRD     r1,r2,[r7,#-8]
        0x00018e3a:    45b4        .E      CMP      r12,r6
        0x00018e3c:    d21e        ..      BCS      0x18e7c ; am_hal_ios_fifo_write + 220
        0x00018e3e:    f1bc0f00    ....    CMP      r12,#0
        0x00018e42:    d02d        -.      BEQ      0x18ea0 ; am_hal_ios_fifo_write + 256
        0x00018e44:    46ab        .F      MOV      r11,r5
        0x00018e46:    1b1c        ..      SUBS     r4,r3,r4
        0x00018e48:    9606        ..      STR      r6,[sp,#0x18]
        0x00018e4a:    f01c0303    ....    ANDS     r3,r12,#3
        0x00018e4e:    f1a40602    ....    SUB      r6,r4,#2
        0x00018e52:    46de        .F      MOV      lr,r11
        0x00018e54:    d038        8.      BEQ      0x18ec8 ; am_hal_ios_fifo_write + 296
        0x00018e56:    f81e4b01    ...K    LDRB     r4,[lr],#1
        0x00018e5a:    f8004b01    ...K    STRB     r4,[r0],#1
        0x00018e5e:    4290        .B      CMP      r0,r2
        0x00018e60:    bf08        ..      IT       EQ
        0x00018e62:    4608        .F      MOVEQ    r0,r1
        0x00018e64:    2b01        .+      CMP      r3,#1
        0x00018e66:    d131        1.      BNE      0x18ecc ; am_hal_ios_fifo_write + 300
        0x00018e68:    f1ac0301    ....    SUB      r3,r12,#1
        0x00018e6c:    e076        v.      B        0x18f5c ; am_hal_ios_fifo_write + 444
        0x00018e6e:    bf00        ..      NOP      
        0x00018e70:    f8570f28    W.(.    LDR      r0,[r7,#0x28]!
        0x00018e74:    f04f0c00    O...    MOV      r12,#0
        0x00018e78:    e092        ..      B        0x18fa0 ; am_hal_ios_fifo_write + 512
        0x00018e7a:    bf00        ..      NOP      
        0x00018e7c:    f0160303    ....    ANDS     r3,r6,#3
        0x00018e80:    f1a60e01    ....    SUB      lr,r6,#1
        0x00018e84:    d010        ..      BEQ      0x18ea8 ; am_hal_ios_fifo_write + 264
        0x00018e86:    46b4        .F      MOV      r12,r6
        0x00018e88:    462e        .F      MOV      r6,r5
        0x00018e8a:    f8154b01    ...K    LDRB     r4,[r5],#1
        0x00018e8e:    f8004b01    ...K    STRB     r4,[r0],#1
        0x00018e92:    4290        .B      CMP      r0,r2
        0x00018e94:    bf08        ..      IT       EQ
        0x00018e96:    4608        .F      MOVEQ    r0,r1
        0x00018e98:    2b01        .+      CMP      r3,#1
        0x00018e9a:    d109        ..      BNE      0x18eb0 ; am_hal_ios_fifo_write + 272
        0x00018e9c:    4673        sF      MOV      r3,lr
        0x00018e9e:    e02e        ..      B        0x18efe ; am_hal_ios_fifo_write + 350
        0x00018ea0:    f04f0c00    O...    MOV      r12,#0
        0x00018ea4:    e07c        |.      B        0x18fa0 ; am_hal_ios_fifo_write + 512
        0x00018ea6:    bf00        ..      NOP      
        0x00018ea8:    46b4        .F      MOV      r12,r6
        0x00018eaa:    4633        3F      MOV      r3,r6
        0x00018eac:    e027        '.      B        0x18efe ; am_hal_ios_fifo_write + 350
        0x00018eae:    bf00        ..      NOP      
        0x00018eb0:    7875        ux      LDRB     r5,[r6,#1]
        0x00018eb2:    f8005b01    ...[    STRB     r5,[r0],#1
        0x00018eb6:    4290        .B      CMP      r0,r2
        0x00018eb8:    bf08        ..      IT       EQ
        0x00018eba:    4608        .F      MOVEQ    r0,r1
        0x00018ebc:    2b02        .+      CMP      r3,#2
        0x00018ebe:    d115        ..      BNE      0x18eec ; am_hal_ios_fifo_write + 332
        0x00018ec0:    1cb5        ..      ADDS     r5,r6,#2
        0x00018ec2:    f1ac0302    ....    SUB      r3,r12,#2
        0x00018ec6:    e01a        ..      B        0x18efe ; am_hal_ios_fifo_write + 350
        0x00018ec8:    4663        cF      MOV      r3,r12
        0x00018eca:    e047        G.      B        0x18f5c ; am_hal_ios_fifo_write + 444
        0x00018ecc:    f89b4001    ...@    LDRB     r4,[r11,#1]
        0x00018ed0:    465d        ]F      MOV      r5,r11
        0x00018ed2:    f8004b01    ...K    STRB     r4,[r0],#1
        0x00018ed6:    4290        .B      CMP      r0,r2
        0x00018ed8:    bf08        ..      IT       EQ
        0x00018eda:    4608        .F      MOVEQ    r0,r1
        0x00018edc:    2b02        .+      CMP      r3,#2
        0x00018ede:    d133        3.      BNE      0x18f48 ; am_hal_ios_fifo_write + 424
        0x00018ee0:    f1050e02    ....    ADD      lr,r5,#2
        0x00018ee4:    f1ac0302    ....    SUB      r3,r12,#2
        0x00018ee8:    e038        8.      B        0x18f5c ; am_hal_ios_fifo_write + 444
        0x00018eea:    bf00        ..      NOP      
        0x00018eec:    78b3        .x      LDRB     r3,[r6,#2]
        0x00018eee:    1cf5        ..      ADDS     r5,r6,#3
        0x00018ef0:    f8003b01    ...;    STRB     r3,[r0],#1
        0x00018ef4:    f1ac0303    ....    SUB      r3,r12,#3
        0x00018ef8:    4290        .B      CMP      r0,r2
        0x00018efa:    bf08        ..      IT       EQ
        0x00018efc:    4608        .F      MOVEQ    r0,r1
        0x00018efe:    f1be0f03    ....    CMP      lr,#3
        0x00018f02:    d31c        ..      BCC      0x18f3e ; am_hal_ios_fifo_write + 414
        0x00018f04:    1f2e        ..      SUBS     r6,r5,#4
        0x00018f06:    f8165f04    ..._    LDRB     r5,[r6,#4]!
        0x00018f0a:    3b04        .;      SUBS     r3,#4
        0x00018f0c:    f8005b01    ...[    STRB     r5,[r0],#1
        0x00018f10:    7875        ux      LDRB     r5,[r6,#1]
        0x00018f12:    4290        .B      CMP      r0,r2
        0x00018f14:    bf08        ..      IT       EQ
        0x00018f16:    4608        .F      MOVEQ    r0,r1
        0x00018f18:    f8005b01    ...[    STRB     r5,[r0],#1
        0x00018f1c:    78b5        .x      LDRB     r5,[r6,#2]
        0x00018f1e:    4290        .B      CMP      r0,r2
        0x00018f20:    bf08        ..      IT       EQ
        0x00018f22:    4608        .F      MOVEQ    r0,r1
        0x00018f24:    f8005b01    ...[    STRB     r5,[r0],#1
        0x00018f28:    78f5        .x      LDRB     r5,[r6,#3]
        0x00018f2a:    4290        .B      CMP      r0,r2
        0x00018f2c:    bf08        ..      IT       EQ
        0x00018f2e:    4608        .F      MOVEQ    r0,r1
        0x00018f30:    f8005b01    ...[    STRB     r5,[r0],#1
        0x00018f34:    4290        .B      CMP      r0,r2
        0x00018f36:    bf08        ..      IT       EQ
        0x00018f38:    4608        .F      MOVEQ    r0,r1
        0x00018f3a:    2b00        .+      CMP      r3,#0
        0x00018f3c:    d1e3        ..      BNE      0x18f06 ; am_hal_ios_fifo_write + 358
        0x00018f3e:    6038        8`      STR      r0,[r7,#0]
        0x00018f40:    f04f0900    O...    MOV      r9,#0
        0x00018f44:    4666        fF      MOV      r6,r12
        0x00018f46:    e0d3        ..      B        0x190f0 ; am_hal_ios_fifo_write + 848
        0x00018f48:    78ab        .x      LDRB     r3,[r5,#2]
        0x00018f4a:    f1050e03    ....    ADD      lr,r5,#3
        0x00018f4e:    f8003b01    ...;    STRB     r3,[r0],#1
        0x00018f52:    f1ac0303    ....    SUB      r3,r12,#3
        0x00018f56:    4290        .B      CMP      r0,r2
        0x00018f58:    bf08        ..      IT       EQ
        0x00018f5a:    4608        .F      MOVEQ    r0,r1
        0x00018f5c:    2e03        ..      CMP      r6,#3
        0x00018f5e:    d31d        ..      BCC      0x18f9c ; am_hal_ios_fifo_write + 508
        0x00018f60:    f1ae0404    ....    SUB      r4,lr,#4
        0x00018f64:    f8146f04    ...o    LDRB     r6,[r4,#4]!
        0x00018f68:    3b04        .;      SUBS     r3,#4
        0x00018f6a:    f8006b01    ...k    STRB     r6,[r0],#1
        0x00018f6e:    7866        fx      LDRB     r6,[r4,#1]
        0x00018f70:    4290        .B      CMP      r0,r2
        0x00018f72:    bf08        ..      IT       EQ
        0x00018f74:    4608        .F      MOVEQ    r0,r1
        0x00018f76:    f8006b01    ...k    STRB     r6,[r0],#1
        0x00018f7a:    78a6        .x      LDRB     r6,[r4,#2]
        0x00018f7c:    4290        .B      CMP      r0,r2
        0x00018f7e:    bf08        ..      IT       EQ
        0x00018f80:    4608        .F      MOVEQ    r0,r1
        0x00018f82:    f8006b01    ...k    STRB     r6,[r0],#1
        0x00018f86:    78e6        .x      LDRB     r6,[r4,#3]
        0x00018f88:    4290        .B      CMP      r0,r2
        0x00018f8a:    bf08        ..      IT       EQ
        0x00018f8c:    4608        .F      MOVEQ    r0,r1
        0x00018f8e:    f8006b01    ...k    STRB     r6,[r0],#1
        0x00018f92:    4290        .B      CMP      r0,r2
        0x00018f94:    bf08        ..      IT       EQ
        0x00018f96:    4608        .F      MOVEQ    r0,r1
        0x00018f98:    2b00        .+      CMP      r3,#0
        0x00018f9a:    d1e3        ..      BNE      0x18f64 ; am_hal_ios_fifo_write + 452
        0x00018f9c:    9e06        ..      LDR      r6,[sp,#0x18]
        0x00018f9e:    465d        ]F      MOV      r5,r11
        0x00018fa0:    ebb6030c    ....    SUBS     r3,r6,r12
        0x00018fa4:    6038        8`      STR      r0,[r7,#0]
        0x00018fa6:    f00080a1    ....    BEQ.W    0x190ec ; am_hal_ios_fifo_write + 844
        0x00018faa:    4465        eD      ADD      r5,r5,r12
        0x00018fac:    f8dab004    ....    LDR      r11,[r10,#4]
        0x00018fb0:    f8da4010    ...@    LDR      r4,[r10,#0x10]
        0x00018fb4:    eba40709    ....    SUB      r7,r4,r9
        0x00018fb8:    429f        .B      CMP      r7,r3
        0x00018fba:    bf28        (.      IT       CS
        0x00018fbc:    461f        .F      MOVCS    r7,r3
        0x00018fbe:    2f00        ./      CMP      r7,#0
        0x00018fc0:    d06c        l.      BEQ      0x1909c ; am_hal_ios_fifo_write + 764
        0x00018fc2:    1e78        x.      SUBS     r0,r7,#1
        0x00018fc4:    2803        .(      CMP      r0,#3
        0x00018fc6:    f0070003    ....    AND      r0,r7,#3
        0x00018fca:    9303        ..      STR      r3,[sp,#0xc]
        0x00018fcc:    e9cd8605    ....    STRD     r8,r6,[sp,#0x14]
        0x00018fd0:    9504        ..      STR      r5,[sp,#0x10]
        0x00018fd2:    e9cd0701    ....    STRD     r0,r7,[sp,#4]
        0x00018fd6:    d201        ..      BCS      0x18fdc ; am_hal_ios_fifo_write + 572
        0x00018fd8:    2200        ."      MOVS     r2,#0
        0x00018fda:    e031        1.      B        0x19040 ; am_hal_ios_fifo_write + 672
        0x00018fdc:    f0270903    '...    BIC      r9,r7,#3
        0x00018fe0:    1c68        h.      ADDS     r0,r5,#1
        0x00018fe2:    2200        ."      MOVS     r2,#0
        0x00018fe4:    eb0b0c02    ....    ADD      r12,r11,r2
        0x00018fe8:    fbbcfef4    ....    UDIV     lr,r12,r4
        0x00018fec:    1881        ..      ADDS     r1,r0,r2
        0x00018fee:    f8117c01    ...|    LDRB     r7,[r1,#-1]
        0x00018ff2:    f8da8000    ....    LDR      r8,[r10,#0]
        0x00018ff6:    fb0ec514    ....    MLS      r5,lr,r4,r12
        0x00018ffa:    f8087005    ...p    STRB     r7,[r8,r5]
        0x00018ffe:    f10c0501    ....    ADD      r5,r12,#1
        0x00019002:    fbb5f6f4    ....    UDIV     r6,r5,r4
        0x00019006:    5c87        .\      LDRB     r7,[r0,r2]
        0x00019008:    f8da3000    ...0    LDR      r3,[r10,#0]
        0x0001900c:    fb065614    ...V    MLS      r6,r6,r4,r5
        0x00019010:    3204        .2      ADDS     r2,#4
        0x00019012:    559f        .U      STRB     r7,[r3,r6]
        0x00019014:    f10c0702    ....    ADD      r7,r12,#2
        0x00019018:    fbb7f6f4    ....    UDIV     r6,r7,r4
        0x0001901c:    784b        Kx      LDRB     r3,[r1,#1]
        0x0001901e:    f8da5000    ...P    LDR      r5,[r10,#0]
        0x00019022:    fb067714    ...w    MLS      r7,r6,r4,r7
        0x00019026:    4591        .E      CMP      r9,r2
        0x00019028:    55eb        .U      STRB     r3,[r5,r7]
        0x0001902a:    f10c0303    ....    ADD      r3,r12,#3
        0x0001902e:    fbb3f7f4    ....    UDIV     r7,r3,r4
        0x00019032:    7889        .x      LDRB     r1,[r1,#2]
        0x00019034:    f8da6000    ...`    LDR      r6,[r10,#0]
        0x00019038:    fb073314    ...3    MLS      r3,r7,r4,r3
        0x0001903c:    54f1        .T      STRB     r1,[r6,r3]
        0x0001903e:    d1d1        ..      BNE      0x18fe4 ; am_hal_ios_fifo_write + 580
        0x00019040:    9d01        ..      LDR      r5,[sp,#4]
        0x00019042:    9e06        ..      LDR      r6,[sp,#0x18]
        0x00019044:    e9dde804    ....    LDRD     lr,r8,[sp,#0x10]
        0x00019048:    e9dd7302    ...s    LDRD     r7,r3,[sp,#8]
        0x0001904c:    b335        5.      CBZ      r5,0x1909c ; am_hal_ios_fifo_write + 764
        0x0001904e:    eb02010b    ....    ADD      r1,r2,r11
        0x00019052:    fbb1f0f4    ....    UDIV     r0,r1,r4
        0x00019056:    f81ec002    ....    LDRB     r12,[lr,r2]
        0x0001905a:    f8da9000    ....    LDR      r9,[r10,#0]
        0x0001905e:    fb001114    ....    MLS      r1,r0,r4,r1
        0x00019062:    2d01        .-      CMP      r5,#1
        0x00019064:    f809c001    ....    STRB     r12,[r9,r1]
        0x00019068:    d018        ..      BEQ      0x1909c ; am_hal_ios_fifo_write + 764
        0x0001906a:    1c50        P.      ADDS     r0,r2,#1
        0x0001906c:    f81ec000    ....    LDRB     r12,[lr,r0]
        0x00019070:    4458        XD      ADD      r0,r0,r11
        0x00019072:    fbb0f1f4    ....    UDIV     r1,r0,r4
        0x00019076:    f8da9000    ....    LDR      r9,[r10,#0]
        0x0001907a:    fb010014    ....    MLS      r0,r1,r4,r0
        0x0001907e:    2d02        .-      CMP      r5,#2
        0x00019080:    f809c000    ....    STRB     r12,[r9,r0]
        0x00019084:    d00a        ..      BEQ      0x1909c ; am_hal_ios_fifo_write + 764
        0x00019086:    1c90        ..      ADDS     r0,r2,#2
        0x00019088:    f81e1000    ....    LDRB     r1,[lr,r0]
        0x0001908c:    4458        XD      ADD      r0,r0,r11
        0x0001908e:    fbb0f2f4    ....    UDIV     r2,r0,r4
        0x00019092:    f8da5000    ...P    LDR      r5,[r10,#0]
        0x00019096:    fb020014    ....    MLS      r0,r2,r4,r0
        0x0001909a:    5429        )T      STRB     r1,[r5,r0]
        0x0001909c:    f2441500    D...    MOVW     r5,#0x4100
        0x000190a0:    f2c40503    ....    MOVT     r5,#0x4003
        0x000190a4:    eba70903    ....    SUB      r9,r7,r3
        0x000190a8:    f7fffcaa    ....    BL       am_hal_interrupt_master_disable ; 0x18a00
        0x000190ac:    eb07010b    ....    ADD      r1,r7,r11
        0x000190b0:    fbb1f2f4    ....    UDIV     r2,r1,r4
        0x000190b4:    9007        ..      STR      r0,[sp,#0x1c]
        0x000190b6:    fb021114    ....    MLS      r1,r2,r4,r1
        0x000190ba:    f8ca1004    ....    STR      r1,[r10,#4]
        0x000190be:    f8da000c    ....    LDR      r0,[r10,#0xc]
        0x000190c2:    4438        8D      ADD      r0,r0,r7
        0x000190c4:    f8ca000c    ....    STR      r0,[r10,#0xc]
        0x000190c8:    9807        ..      LDR      r0,[sp,#0x1c]
        0x000190ca:    f7fffca1    ....    BL       am_hal_interrupt_master_set ; 0x18a10
        0x000190ce:    6828        (h      LDR      r0,[r5,#0]
        0x000190d0:    68a9        .h      LDR      r1,[r5,#8]
        0x000190d2:    f3c02007    ...     UBFX     r0,r0,#8,#8
        0x000190d6:    b2c9        ..      UXTB     r1,r1
        0x000190d8:    4288        .B      CMP      r0,r1
        0x000190da:    d809        ..      BHI      0x190f0 ; am_hal_ios_fifo_write + 848
        0x000190dc:    f8d5010c    ....    LDR      r0,[r5,#0x10c]
        0x000190e0:    f0400001    @...    ORR      r0,r0,#1
        0x000190e4:    f8c5010c    ....    STR      r0,[r5,#0x10c]
        0x000190e8:    e002        ..      B        0x190f0 ; am_hal_ios_fifo_write + 848
        0x000190ea:    bf00        ..      NOP      
        0x000190ec:    f04f0900    O...    MOV      r9,#0
        0x000190f0:    eb090006    ....    ADD      r0,r9,r6
        0x000190f4:    f8c80000    ....    STR      r0,[r8,#0]
        0x000190f8:    2000        .       MOVS     r0,#0
        0x000190fa:    b009        ..      ADD      sp,sp,#0x24
        0x000190fc:    e8bd8ff0    ....    POP      {r4-r11,pc}
    am_hal_ios_initialize
        0x00019100:    2800        .(      CMP      r0,#0
        0x00019102:    bf1c        ..      ITT      NE
        0x00019104:    2005        .       MOVNE    r0,#5
        0x00019106:    4770        pG      BXNE     lr
        0x00019108:    2900        .)      CMP      r1,#0
        0x0001910a:    bf04        ..      ITT      EQ
        0x0001910c:    2006        .       MOVEQ    r0,#6
        0x0001910e:    4770        pG      BXEQ     lr
        0x00019110:    f2401224    @.$.    MOVW     r2,#0x124
        0x00019114:    f2c10200    ....    MOVT     r2,#0x1000
        0x00019118:    6813        .h      LDR      r3,[r2,#0]
        0x0001911a:    01d8        ..      LSLS     r0,r3,#7
        0x0001911c:    bf44        D.      ITT      MI
        0x0001911e:    2007        .       MOVMI    r0,#7
        0x00019120:    4770        pG      BXMI     lr
        0x00019122:    f2434056    C.V@    MOV      r0,#0x3456
        0x00019126:    f2c01012    ....    MOVT     r0,#0x112
        0x0001912a:    f3600319    `...    BFI      r3,r0,#0,#26
        0x0001912e:    2000        .       MOVS     r0,#0
        0x00019130:    e9c23000    ...0    STRD     r3,r0,[r2,#0]
        0x00019134:    600a        .`      STR      r2,[r1,#0]
        0x00019136:    4770        pG      BX       lr
    am_hal_ios_interrupt_clear
        0x00019138:    b180        ..      CBZ      r0,0x1915c ; am_hal_ios_interrupt_clear + 36
        0x0001913a:    6800        .h      LDR      r0,[r0,#0]
        0x0001913c:    f2434256    C.VB    MOV      r2,#0x3456
        0x00019140:    f020407e     .~@    BIC      r0,r0,#0xfe000000
        0x00019144:    f2c01212    ....    MOVT     r2,#0x112
        0x00019148:    4290        .B      CMP      r0,r2
        0x0001914a:    d107        ..      BNE      0x1915c ; am_hal_ios_interrupt_clear + 36
        0x0001914c:    f2442008    D..     MOV      r0,#0x4208
        0x00019150:    f2c40003    ....    MOVT     r0,#0x4003
        0x00019154:    6001        .`      STR      r1,[r0,#0]
        0x00019156:    2000        .       MOVS     r0,#0
        0x00019158:    4770        pG      BX       lr
        0x0001915a:    bf00        ..      NOP      
        0x0001915c:    2002        .       MOVS     r0,#2
        0x0001915e:    4770        pG      BX       lr
    am_hal_ios_interrupt_enable
        0x00019160:    b190        ..      CBZ      r0,0x19188 ; am_hal_ios_interrupt_enable + 40
        0x00019162:    6800        .h      LDR      r0,[r0,#0]
        0x00019164:    f2434256    C.VB    MOV      r2,#0x3456
        0x00019168:    f020407e     .~@    BIC      r0,r0,#0xfe000000
        0x0001916c:    f2c01212    ....    MOVT     r2,#0x112
        0x00019170:    4290        .B      CMP      r0,r2
        0x00019172:    d109        ..      BNE      0x19188 ; am_hal_ios_interrupt_enable + 40
        0x00019174:    f2442000    D..     MOVW     r0,#0x4200
        0x00019178:    f2c40003    ....    MOVT     r0,#0x4003
        0x0001917c:    6802        .h      LDR      r2,[r0,#0]
        0x0001917e:    4311        .C      ORRS     r1,r1,r2
        0x00019180:    6001        .`      STR      r1,[r0,#0]
        0x00019182:    2000        .       MOVS     r0,#0
        0x00019184:    4770        pG      BX       lr
        0x00019186:    bf00        ..      NOP      
        0x00019188:    2002        .       MOVS     r0,#2
        0x0001918a:    4770        pG      BX       lr
    am_hal_ios_interrupt_service
        0x0001918c:    e92d4ff0    -..O    PUSH     {r4-r11,lr}
        0x00019190:    b084        ..      SUB      sp,sp,#0x10
        0x00019192:    b1f8        ..      CBZ      r0,0x191d4 ; am_hal_ios_interrupt_service + 72
        0x00019194:    6802        .h      LDR      r2,[r0,#0]
        0x00019196:    f2434356    C.VC    MOV      r3,#0x3456
        0x0001919a:    f022427e    ".~B    BIC      r2,r2,#0xfe000000
        0x0001919e:    f2c01312    ....    MOVT     r3,#0x112
        0x000191a2:    429a        .B      CMP      r2,r3
        0x000191a4:    d116        ..      BNE      0x191d4 ; am_hal_ios_interrupt_service + 72
        0x000191a6:    07c9        ..      LSLS     r1,r1,#31
        0x000191a8:    f00081e0    ....    BEQ.W    0x1956c ; am_hal_ios_interrupt_service + 992
        0x000191ac:    f2442908    D..)    MOV      r9,#0x4208
        0x000191b0:    f6403864    @.d8    MOV      r8,#0xb64
        0x000191b4:    f2c40903    ....    MOVT     r9,#0x4003
        0x000191b8:    f06f01ff    o...    MVN      r1,#0xff
        0x000191bc:    f2c10800    ....    MOVT     r8,#0x1000
        0x000191c0:    f8591001    Y...    LDR      r1,[r9,r1]
        0x000191c4:    f8d8200c    ...     LDR      r2,[r8,#0xc]
        0x000191c8:    2a00        .*      CMP      r2,#0
        0x000191ca:    f00081cf    ....    BEQ.W    0x1956c ; am_hal_ios_interrupt_service + 992
        0x000191ce:    b2c9        ..      UXTB     r1,r1
        0x000191d0:    9102        ..      STR      r1,[sp,#8]
        0x000191d2:    e01c        ..      B        0x1920e ; am_hal_ios_interrupt_service + 130
        0x000191d4:    2002        .       MOVS     r0,#2
        0x000191d6:    b004        ..      ADD      sp,sp,#0x10
        0x000191d8:    e8bd8ff0    ....    POP      {r4-r11,pc}
        0x000191dc:    f04f0e00    O...    MOV      lr,#0
        0x000191e0:    6283        .b      STR      r3,[r0,#0x28]
        0x000191e2:    f8d81008    ....    LDR      r1,[r8,#8]
        0x000191e6:    4471        qD      ADD      r1,r1,lr
        0x000191e8:    f8c81008    ....    STR      r1,[r8,#8]
        0x000191ec:    f8d8100c    ....    LDR      r1,[r8,#0xc]
        0x000191f0:    eba1010e    ....    SUB      r1,r1,lr
        0x000191f4:    f8c8100c    ....    STR      r1,[r8,#0xc]
        0x000191f8:    f8d91000    ....    LDR      r1,[r9,#0]
        0x000191fc:    f0410101    A...    ORR      r1,r1,#1
        0x00019200:    f8c91000    ....    STR      r1,[r9,#0]
        0x00019204:    f8d8100c    ....    LDR      r1,[r8,#0xc]
        0x00019208:    2900        .)      CMP      r1,#0
        0x0001920a:    f00081af    ....    BEQ.W    0x1956c ; am_hal_ios_interrupt_service + 992
        0x0001920e:    f64f61f8    O..a    MOV      r1,#0xfef8
        0x00019212:    f6cf71ff    ...q    MOVT     r1,#0xffff
        0x00019216:    f8591001    Y...    LDR      r1,[r9,r1]
        0x0001921a:    f3c12a07    ...*    UBFX     r10,r1,#8,#8
        0x0001921e:    9902        ..      LDR      r1,[sp,#8]
        0x00019220:    458a        .E      CMP      r10,r1
        0x00019222:    f20081a3    ....    BHI.W    0x1956c ; am_hal_ios_interrupt_service + 992
        0x00019226:    f8d82000    ...     LDR      r2,[r8,#0]
        0x0001922a:    f8d81004    ....    LDR      r1,[r8,#4]
        0x0001922e:    f8d8b010    ....    LDR      r11,[r8,#0x10]
        0x00019232:    f8d83008    ...0    LDR      r3,[r8,#8]
        0x00019236:    f8d84008    ...@    LDR      r4,[r8,#8]
        0x0001923a:    4299        .B      CMP      r1,r3
        0x0001923c:    bf88        ..      IT       HI
        0x0001923e:    468b        .F      MOVHI    r11,r1
        0x00019240:    f8d8500c    ...P    LDR      r5,[r8,#0xc]
        0x00019244:    f890702c    ..,p    LDRB     r7,[r0,#0x2c]
        0x00019248:    ea6f010a    o...    MVN      r1,r10
        0x0001924c:    463b        ;F      MOV      r3,r7
        0x0001924e:    9703        ..      STR      r7,[sp,#0xc]
        0x00019250:    ebab0c04    ....    SUB      r12,r11,r4
        0x00019254:    eb070e01    ....    ADD      lr,r7,r1
        0x00019258:    f8d86008    ...`    LDR      r6,[r8,#8]
        0x0001925c:    e9d01708    ....    LDRD     r1,r7,[r0,#0x20]
        0x00019260:    6a83        .j      LDR      r3,[r0,#0x28]
        0x00019262:    45e6        .E      CMP      lr,r12
        0x00019264:    d214        ..      BCS      0x19290 ; am_hal_ios_interrupt_service + 260
        0x00019266:    f1be0f00    ....    CMP      lr,#0
        0x0001926a:    d0b7        ..      BEQ      0x191dc ; am_hal_ios_interrupt_service + 80
        0x0001926c:    f01e0403    ....    ANDS     r4,lr,#3
        0x00019270:    eb020c06    ....    ADD      r12,r2,r6
        0x00019274:    d026        &.      BEQ      0x192c4 ; am_hal_ios_interrupt_service + 312
        0x00019276:    f81c2b01    ...+    LDRB     r2,[r12],#1
        0x0001927a:    f8032b01    ...+    STRB     r2,[r3],#1
        0x0001927e:    42bb        .B      CMP      r3,r7
        0x00019280:    bf08        ..      IT       EQ
        0x00019282:    460b        .F      MOVEQ    r3,r1
        0x00019284:    2c01        .,      CMP      r4,#1
        0x00019286:    d121        !.      BNE      0x192cc ; am_hal_ios_interrupt_service + 320
        0x00019288:    f1ae0201    ....    SUB      r2,lr,#1
        0x0001928c:    e042        B.      B        0x19314 ; am_hal_ios_interrupt_service + 392
        0x0001928e:    bf00        ..      NOP      
        0x00019290:    f1bc0f00    ....    CMP      r12,#0
        0x00019294:    e9cd5400    ...T    STRD     r5,r4,[sp,#0]
        0x00019298:    f0008092    ....    BEQ.W    0x193c0 ; am_hal_ios_interrupt_service + 564
        0x0001929c:    464d        MF      MOV      r5,r9
        0x0001929e:    f01c0903    ....    ANDS     r9,r12,#3
        0x000192a2:    eb020406    ....    ADD      r4,r2,r6
        0x000192a6:    d00f        ..      BEQ      0x192c8 ; am_hal_ios_interrupt_service + 316
        0x000192a8:    f8142b01    ...+    LDRB     r2,[r4],#1
        0x000192ac:    f8032b01    ...+    STRB     r2,[r3],#1
        0x000192b0:    42bb        .B      CMP      r3,r7
        0x000192b2:    bf08        ..      IT       EQ
        0x000192b4:    460b        .F      MOVEQ    r3,r1
        0x000192b6:    f1b90f01    ....    CMP      r9,#1
        0x000192ba:    d113        ..      BNE      0x192e4 ; am_hal_ios_interrupt_service + 344
        0x000192bc:    f1ac0201    ....    SUB      r2,r12,#1
        0x000192c0:    e05a        Z.      B        0x19378 ; am_hal_ios_interrupt_service + 492
        0x000192c2:    bf00        ..      NOP      
        0x000192c4:    4672        rF      MOV      r2,lr
        0x000192c6:    e025        %.      B        0x19314 ; am_hal_ios_interrupt_service + 392
        0x000192c8:    4662        bF      MOV      r2,r12
        0x000192ca:    e055        U.      B        0x19378 ; am_hal_ios_interrupt_service + 492
        0x000192cc:    f81c2b01    ...+    LDRB     r2,[r12],#1
        0x000192d0:    f8032b01    ...+    STRB     r2,[r3],#1
        0x000192d4:    42bb        .B      CMP      r3,r7
        0x000192d6:    bf08        ..      IT       EQ
        0x000192d8:    460b        .F      MOVEQ    r3,r1
        0x000192da:    2c02        .,      CMP      r4,#2
        0x000192dc:    d110        ..      BNE      0x19300 ; am_hal_ios_interrupt_service + 372
        0x000192de:    f1ae0202    ....    SUB      r2,lr,#2
        0x000192e2:    e017        ..      B        0x19314 ; am_hal_ios_interrupt_service + 392
        0x000192e4:    f8142b01    ...+    LDRB     r2,[r4],#1
        0x000192e8:    f8032b01    ...+    STRB     r2,[r3],#1
        0x000192ec:    42bb        .B      CMP      r3,r7
        0x000192ee:    bf08        ..      IT       EQ
        0x000192f0:    460b        .F      MOVEQ    r3,r1
        0x000192f2:    f1b90f02    ....    CMP      r9,#2
        0x000192f6:    d135        5.      BNE      0x19364 ; am_hal_ios_interrupt_service + 472
        0x000192f8:    f1ac0202    ....    SUB      r2,r12,#2
        0x000192fc:    e03c        <.      B        0x19378 ; am_hal_ios_interrupt_service + 492
        0x000192fe:    bf00        ..      NOP      
        0x00019300:    f81c2b01    ...+    LDRB     r2,[r12],#1
        0x00019304:    f8032b01    ...+    STRB     r2,[r3],#1
        0x00019308:    f1ae0203    ....    SUB      r2,lr,#3
        0x0001930c:    42bb        .B      CMP      r3,r7
        0x0001930e:    bf08        ..      IT       EQ
        0x00019310:    460b        .F      MOVEQ    r3,r1
        0x00019312:    bf00        ..      NOP      
        0x00019314:    9c03        ..      LDR      r4,[sp,#0xc]
        0x00019316:    eba4060a    ....    SUB      r6,r4,r10
        0x0001931a:    3e02        .>      SUBS     r6,#2
        0x0001931c:    2e03        ..      CMP      r6,#3
        0x0001931e:    f4ffaf5f    .._.    BCC      0x191e0 ; am_hal_ios_interrupt_service + 84
        0x00019322:    f1ac0604    ....    SUB      r6,r12,#4
        0x00019326:    bf00        ..      NOP      
        0x00019328:    f8165f04    ..._    LDRB     r5,[r6,#4]!
        0x0001932c:    3a04        .:      SUBS     r2,#4
        0x0001932e:    f8035b01    ...[    STRB     r5,[r3],#1
        0x00019332:    7875        ux      LDRB     r5,[r6,#1]
        0x00019334:    42bb        .B      CMP      r3,r7
        0x00019336:    bf08        ..      IT       EQ
        0x00019338:    460b        .F      MOVEQ    r3,r1
        0x0001933a:    f8035b01    ...[    STRB     r5,[r3],#1
        0x0001933e:    78b5        .x      LDRB     r5,[r6,#2]
        0x00019340:    42bb        .B      CMP      r3,r7
        0x00019342:    bf08        ..      IT       EQ
        0x00019344:    460b        .F      MOVEQ    r3,r1
        0x00019346:    f8035b01    ...[    STRB     r5,[r3],#1
        0x0001934a:    78f5        .x      LDRB     r5,[r6,#3]
        0x0001934c:    42bb        .B      CMP      r3,r7
        0x0001934e:    bf08        ..      IT       EQ
        0x00019350:    460b        .F      MOVEQ    r3,r1
        0x00019352:    f8035b01    ...[    STRB     r5,[r3],#1
        0x00019356:    42bb        .B      CMP      r3,r7
        0x00019358:    bf08        ..      IT       EQ
        0x0001935a:    460b        .F      MOVEQ    r3,r1
        0x0001935c:    2a00        .*      CMP      r2,#0
        0x0001935e:    d1e3        ..      BNE      0x19328 ; am_hal_ios_interrupt_service + 412
        0x00019360:    e73e        >.      B        0x191e0 ; am_hal_ios_interrupt_service + 84
        0x00019362:    bf00        ..      NOP      
        0x00019364:    f8142b01    ...+    LDRB     r2,[r4],#1
        0x00019368:    f8032b01    ...+    STRB     r2,[r3],#1
        0x0001936c:    f1ac0203    ....    SUB      r2,r12,#3
        0x00019370:    42bb        .B      CMP      r3,r7
        0x00019372:    bf08        ..      IT       EQ
        0x00019374:    460b        .F      MOVEQ    r3,r1
        0x00019376:    bf00        ..      NOP      
        0x00019378:    9e01        ..      LDR      r6,[sp,#4]
        0x0001937a:    46a9        .F      MOV      r9,r5
        0x0001937c:    43f6        .C      MVNS     r6,r6
        0x0001937e:    445e        ^D      ADD      r6,r6,r11
        0x00019380:    2e03        ..      CMP      r6,#3
        0x00019382:    d31d        ..      BCC      0x193c0 ; am_hal_ios_interrupt_service + 564
        0x00019384:    1f26        &.      SUBS     r6,r4,#4
        0x00019386:    bf00        ..      NOP      
        0x00019388:    f8164f04    ...O    LDRB     r4,[r6,#4]!
        0x0001938c:    3a04        .:      SUBS     r2,#4
        0x0001938e:    f8034b01    ...K    STRB     r4,[r3],#1
        0x00019392:    7874        tx      LDRB     r4,[r6,#1]
        0x00019394:    42bb        .B      CMP      r3,r7
        0x00019396:    bf08        ..      IT       EQ
        0x00019398:    460b        .F      MOVEQ    r3,r1
        0x0001939a:    f8034b01    ...K    STRB     r4,[r3],#1
        0x0001939e:    78b4        .x      LDRB     r4,[r6,#2]
        0x000193a0:    42bb        .B      CMP      r3,r7
        0x000193a2:    bf08        ..      IT       EQ
        0x000193a4:    460b        .F      MOVEQ    r3,r1
        0x000193a6:    f8034b01    ...K    STRB     r4,[r3],#1
        0x000193aa:    78f4        .x      LDRB     r4,[r6,#3]
        0x000193ac:    42bb        .B      CMP      r3,r7
        0x000193ae:    bf08        ..      IT       EQ
        0x000193b0:    460b        .F      MOVEQ    r3,r1
        0x000193b2:    f8034b01    ...K    STRB     r4,[r3],#1
        0x000193b6:    42bb        .B      CMP      r3,r7
        0x000193b8:    bf08        ..      IT       EQ
        0x000193ba:    460b        .F      MOVEQ    r3,r1
        0x000193bc:    2a00        .*      CMP      r2,#0
        0x000193be:    d1e3        ..      BNE      0x19388 ; am_hal_ios_interrupt_service + 508
        0x000193c0:    6283        .b      STR      r3,[r0,#0x28]
        0x000193c2:    f8d81008    ....    LDR      r1,[r8,#8]
        0x000193c6:    f8d82010    ...     LDR      r2,[r8,#0x10]
        0x000193ca:    4461        aD      ADD      r1,r1,r12
        0x000193cc:    f8c81008    ....    STR      r1,[r8,#8]
        0x000193d0:    f8d81008    ....    LDR      r1,[r8,#8]
        0x000193d4:    fbb1f4f2    ....    UDIV     r4,r1,r2
        0x000193d8:    fb041112    ....    MLS      r1,r4,r2,r1
        0x000193dc:    ebbe040c    ....    SUBS     r4,lr,r12
        0x000193e0:    f8c81008    ....    STR      r1,[r8,#8]
        0x000193e4:    f8d8100c    ....    LDR      r1,[r8,#0xc]
        0x000193e8:    eba1010c    ....    SUB      r1,r1,r12
        0x000193ec:    f8c8100c    ....    STR      r1,[r8,#0xc]
        0x000193f0:    bf1c        ..      ITT      NE
        0x000193f2:    9900        ..      LDRNE    r1,[sp,#0]
        0x000193f4:    ebb10e0c    ....    SUBSNE   lr,r1,r12
        0x000193f8:    f43faefe    ?...    BEQ      0x191f8 ; am_hal_ios_interrupt_service + 108
        0x000193fc:    f8d82000    ...     LDR      r2,[r8,#0]
        0x00019400:    f8d86008    ...`    LDR      r6,[r8,#8]
        0x00019404:    e9d01708    ....    LDRD     r1,r7,[r0,#0x20]
        0x00019408:    45a6        .E      CMP      lr,r4
        0x0001940a:    d915        ..      BLS      0x19438 ; am_hal_ios_interrupt_service + 684
        0x0001940c:    2c00        .,      CMP      r4,#0
        0x0001940e:    f43faee5    ?...    BEQ      0x191dc ; am_hal_ios_interrupt_service + 80
        0x00019412:    f0140c03    ....    ANDS     r12,r4,#3
        0x00019416:    eb020e06    ....    ADD      lr,r2,r6
        0x0001941a:    d023        #.      BEQ      0x19464 ; am_hal_ios_interrupt_service + 728
        0x0001941c:    f81e2b01    ...+    LDRB     r2,[lr],#1
        0x00019420:    f8032b01    ...+    STRB     r2,[r3],#1
        0x00019424:    42bb        .B      CMP      r3,r7
        0x00019426:    bf08        ..      IT       EQ
        0x00019428:    460b        .F      MOVEQ    r3,r1
        0x0001942a:    f1bc0f01    ....    CMP      r12,#1
        0x0001942e:    d121        !.      BNE      0x19474 ; am_hal_ios_interrupt_service + 744
        0x00019430:    46a4        .F      MOV      r12,r4
        0x00019432:    1e62        b.      SUBS     r2,r4,#1
        0x00019434:    e041        A.      B        0x194ba ; am_hal_ios_interrupt_service + 814
        0x00019436:    bf00        ..      NOP      
        0x00019438:    f1be0f00    ....    CMP      lr,#0
        0x0001943c:    f43faece    ?...    BEQ      0x191dc ; am_hal_ios_interrupt_service + 80
        0x00019440:    f01e0503    ....    ANDS     r5,lr,#3
        0x00019444:    4416        .D      ADD      r6,r6,r2
        0x00019446:    d011        ..      BEQ      0x1946c ; am_hal_ios_interrupt_service + 736
        0x00019448:    f8162b01    ...+    LDRB     r2,[r6],#1
        0x0001944c:    f8032b01    ...+    STRB     r2,[r3],#1
        0x00019450:    42bb        .B      CMP      r3,r7
        0x00019452:    bf08        ..      IT       EQ
        0x00019454:    460b        .F      MOVEQ    r3,r1
        0x00019456:    e9dd4c00    ...L    LDRD     r4,r12,[sp,#0]
        0x0001945a:    2d01        .-      CMP      r5,#1
        0x0001945c:    d118        ..      BNE      0x19490 ; am_hal_ios_interrupt_service + 772
        0x0001945e:    f1ae0201    ....    SUB      r2,lr,#1
        0x00019462:    e05c        \.      B        0x1951e ; am_hal_ios_interrupt_service + 914
        0x00019464:    46a4        .F      MOV      r12,r4
        0x00019466:    4622        "F      MOV      r2,r4
        0x00019468:    e027        '.      B        0x194ba ; am_hal_ios_interrupt_service + 814
        0x0001946a:    bf00        ..      NOP      
        0x0001946c:    e9dd4c00    ...L    LDRD     r4,r12,[sp,#0]
        0x00019470:    4672        rF      MOV      r2,lr
        0x00019472:    e054        T.      B        0x1951e ; am_hal_ios_interrupt_service + 914
        0x00019474:    f81e2b01    ...+    LDRB     r2,[lr],#1
        0x00019478:    f8032b01    ...+    STRB     r2,[r3],#1
        0x0001947c:    42bb        .B      CMP      r3,r7
        0x0001947e:    bf08        ..      IT       EQ
        0x00019480:    460b        .F      MOVEQ    r3,r1
        0x00019482:    f1bc0f02    ....    CMP      r12,#2
        0x00019486:    d10f        ..      BNE      0x194a8 ; am_hal_ios_interrupt_service + 796
        0x00019488:    46a4        .F      MOV      r12,r4
        0x0001948a:    1ea2        ..      SUBS     r2,r4,#2
        0x0001948c:    e015        ..      B        0x194ba ; am_hal_ios_interrupt_service + 814
        0x0001948e:    bf00        ..      NOP      
        0x00019490:    f8162b01    ...+    LDRB     r2,[r6],#1
        0x00019494:    f8032b01    ...+    STRB     r2,[r3],#1
        0x00019498:    42bb        .B      CMP      r3,r7
        0x0001949a:    bf08        ..      IT       EQ
        0x0001949c:    460b        .F      MOVEQ    r3,r1
        0x0001949e:    2d02        .-      CMP      r5,#2
        0x000194a0:    d134        4.      BNE      0x1950c ; am_hal_ios_interrupt_service + 896
        0x000194a2:    f1ae0202    ....    SUB      r2,lr,#2
        0x000194a6:    e03a        :.      B        0x1951e ; am_hal_ios_interrupt_service + 914
        0x000194a8:    f81e2b01    ...+    LDRB     r2,[lr],#1
        0x000194ac:    46a4        .F      MOV      r12,r4
        0x000194ae:    f8032b01    ...+    STRB     r2,[r3],#1
        0x000194b2:    1ee2        ..      SUBS     r2,r4,#3
        0x000194b4:    42bb        .B      CMP      r3,r7
        0x000194b6:    bf08        ..      IT       EQ
        0x000194b8:    460b        .F      MOVEQ    r3,r1
        0x000194ba:    9e01        ..      LDR      r6,[sp,#4]
        0x000194bc:    9c03        ..      LDR      r4,[sp,#0xc]
        0x000194be:    eb0b050a    ....    ADD      r5,r11,r10
        0x000194c2:    4426        &D      ADD      r6,r6,r4
        0x000194c4:    1b76        v.      SUBS     r6,r6,r5
        0x000194c6:    3e02        .>      SUBS     r6,#2
        0x000194c8:    2e03        ..      CMP      r6,#3
        0x000194ca:    d31d        ..      BCC      0x19508 ; am_hal_ios_interrupt_service + 892
        0x000194cc:    f1ae0604    ....    SUB      r6,lr,#4
        0x000194d0:    f8165f04    ..._    LDRB     r5,[r6,#4]!
        0x000194d4:    3a04        .:      SUBS     r2,#4
        0x000194d6:    f8035b01    ...[    STRB     r5,[r3],#1
        0x000194da:    7875        ux      LDRB     r5,[r6,#1]
        0x000194dc:    42bb        .B      CMP      r3,r7
        0x000194de:    bf08        ..      IT       EQ
        0x000194e0:    460b        .F      MOVEQ    r3,r1
        0x000194e2:    f8035b01    ...[    STRB     r5,[r3],#1
        0x000194e6:    78b5        .x      LDRB     r5,[r6,#2]
        0x000194e8:    42bb        .B      CMP      r3,r7
        0x000194ea:    bf08        ..      IT       EQ
        0x000194ec:    460b        .F      MOVEQ    r3,r1
        0x000194ee:    f8035b01    ...[    STRB     r5,[r3],#1
        0x000194f2:    78f5        .x      LDRB     r5,[r6,#3]
        0x000194f4:    42bb        .B      CMP      r3,r7
        0x000194f6:    bf08        ..      IT       EQ
        0x000194f8:    460b        .F      MOVEQ    r3,r1
        0x000194fa:    f8035b01    ...[    STRB     r5,[r3],#1
        0x000194fe:    42bb        .B      CMP      r3,r7
        0x00019500:    bf08        ..      IT       EQ
        0x00019502:    460b        .F      MOVEQ    r3,r1
        0x00019504:    2a00        .*      CMP      r2,#0
        0x00019506:    d1e3        ..      BNE      0x194d0 ; am_hal_ios_interrupt_service + 836
        0x00019508:    46e6        .F      MOV      lr,r12
        0x0001950a:    e669        i.      B        0x191e0 ; am_hal_ios_interrupt_service + 84
        0x0001950c:    f8162b01    ...+    LDRB     r2,[r6],#1
        0x00019510:    f8032b01    ...+    STRB     r2,[r3],#1
        0x00019514:    f1ae0203    ....    SUB      r2,lr,#3
        0x00019518:    42bb        .B      CMP      r3,r7
        0x0001951a:    bf08        ..      IT       EQ
        0x0001951c:    460b        .F      MOVEQ    r3,r1
        0x0001951e:    eb0c0504    ....    ADD      r5,r12,r4
        0x00019522:    ea6f040b    o...    MVN      r4,r11
        0x00019526:    4425        %D      ADD      r5,r5,r4
        0x00019528:    2d03        .-      CMP      r5,#3
        0x0001952a:    f4ffae59    ..Y.    BCC      0x191e0 ; am_hal_ios_interrupt_service + 84
        0x0001952e:    3e04        .>      SUBS     r6,#4
        0x00019530:    f8165f04    ..._    LDRB     r5,[r6,#4]!
        0x00019534:    3a04        .:      SUBS     r2,#4
        0x00019536:    f8035b01    ...[    STRB     r5,[r3],#1
        0x0001953a:    7875        ux      LDRB     r5,[r6,#1]
        0x0001953c:    42bb        .B      CMP      r3,r7
        0x0001953e:    bf08        ..      IT       EQ
        0x00019540:    460b        .F      MOVEQ    r3,r1
        0x00019542:    f8035b01    ...[    STRB     r5,[r3],#1
        0x00019546:    78b5        .x      LDRB     r5,[r6,#2]
        0x00019548:    42bb        .B      CMP      r3,r7
        0x0001954a:    bf08        ..      IT       EQ
        0x0001954c:    460b        .F      MOVEQ    r3,r1
        0x0001954e:    f8035b01    ...[    STRB     r5,[r3],#1
        0x00019552:    78f5        .x      LDRB     r5,[r6,#3]
        0x00019554:    42bb        .B      CMP      r3,r7
        0x00019556:    bf08        ..      IT       EQ
        0x00019558:    460b        .F      MOVEQ    r3,r1
        0x0001955a:    f8035b01    ...[    STRB     r5,[r3],#1
        0x0001955e:    42bb        .B      CMP      r3,r7
        0x00019560:    bf08        ..      IT       EQ
        0x00019562:    460b        .F      MOVEQ    r3,r1
        0x00019564:    2a00        .*      CMP      r2,#0
        0x00019566:    d1e3        ..      BNE      0x19530 ; am_hal_ios_interrupt_service + 932
        0x00019568:    e63a        :.      B        0x191e0 ; am_hal_ios_interrupt_service + 84
        0x0001956a:    bf00        ..      NOP      
        0x0001956c:    2000        .       MOVS     r0,#0
        0x0001956e:    b004        ..      ADD      sp,sp,#0x10
        0x00019570:    e8bd8ff0    ....    POP      {r4-r11,pc}
    am_hal_ios_interrupt_status_get
        0x00019574:    b1c0        ..      CBZ      r0,0x195a8 ; am_hal_ios_interrupt_status_get + 52
        0x00019576:    6800        .h      LDR      r0,[r0,#0]
        0x00019578:    f2434356    C.VC    MOV      r3,#0x3456
        0x0001957c:    f020407e     .~@    BIC      r0,r0,#0xfe000000
        0x00019580:    f2c01312    ....    MOVT     r3,#0x112
        0x00019584:    4298        .B      CMP      r0,r3
        0x00019586:    d10f        ..      BNE      0x195a8 ; am_hal_ios_interrupt_status_get + 52
        0x00019588:    2a00        .*      CMP      r2,#0
        0x0001958a:    bf04        ..      ITT      EQ
        0x0001958c:    2006        .       MOVEQ    r0,#6
        0x0001958e:    4770        pG      BXEQ     lr
        0x00019590:    f2442300    D..#    MOVW     r3,#0x4200
        0x00019594:    f2c40303    ....    MOVT     r3,#0x4003
        0x00019598:    6858        Xh      LDR      r0,[r3,#4]
        0x0001959a:    2900        .)      CMP      r1,#0
        0x0001959c:    bf1c        ..      ITT      NE
        0x0001959e:    6819        .h      LDRNE    r1,[r3,#0]
        0x000195a0:    4008        .@      ANDNE    r0,r0,r1
        0x000195a2:    6010        .`      STR      r0,[r2,#0]
        0x000195a4:    2000        .       MOVS     r0,#0
        0x000195a6:    4770        pG      BX       lr
        0x000195a8:    2002        .       MOVS     r0,#2
        0x000195aa:    4770        pG      BX       lr
    am_hal_ios_power_ctrl
        0x000195ac:    b510        ..      PUSH     {r4,lr}
        0x000195ae:    b328        (.      CBZ      r0,0x195fc ; am_hal_ios_power_ctrl + 80
        0x000195b0:    4604        .F      MOV      r4,r0
        0x000195b2:    6800        .h      LDR      r0,[r0,#0]
        0x000195b4:    f2434356    C.VC    MOV      r3,#0x3456
        0x000195b8:    f020407e     .~@    BIC      r0,r0,#0xfe000000
        0x000195bc:    f2c01312    ....    MOVT     r3,#0x112
        0x000195c0:    4298        .B      CMP      r0,r3
        0x000195c2:    d11b        ..      BNE      0x195fc ; am_hal_ios_power_ctrl + 80
        0x000195c4:    1e48        H.      SUBS     r0,r1,#1
        0x000195c6:    2802        .(      CMP      r0,#2
        0x000195c8:    d21a        ..      BCS      0x19600 ; am_hal_ios_power_ctrl + 84
        0x000195ca:    b18a        ..      CBZ      r2,0x195f0 ; am_hal_ios_power_ctrl + 68
        0x000195cc:    f2441004    D...    MOV      r0,#0x4104
        0x000195d0:    f2c40003    ....    MOVT     r0,#0x4003
        0x000195d4:    6801        .h      LDR      r1,[r0,#0]
        0x000195d6:    60e1        .`      STR      r1,[r4,#0xc]
        0x000195d8:    6841        Ah      LDR      r1,[r0,#4]
        0x000195da:    6121        !a      STR      r1,[r4,#0x10]
        0x000195dc:    6941        Ai      LDR      r1,[r0,#0x14]
        0x000195de:    6161        aa      STR      r1,[r4,#0x14]
        0x000195e0:    f8d010fc    ....    LDR      r1,[r0,#0xfc]
        0x000195e4:    61a1        .a      STR      r1,[r4,#0x18]
        0x000195e6:    f8d0010c    ....    LDR      r0,[r0,#0x10c]
        0x000195ea:    61e0        .a      STR      r0,[r4,#0x1c]
        0x000195ec:    2001        .       MOVS     r0,#1
        0x000195ee:    7220         r      STRB     r0,[r4,#8]
        0x000195f0:    7920         y      LDRB     r0,[r4,#4]
        0x000195f2:    f000f8f3    ....    BL       am_hal_pwrctrl_periph_disable ; 0x197dc
        0x000195f6:    2000        .       MOVS     r0,#0
        0x000195f8:    bd10        ..      POP      {r4,pc}
        0x000195fa:    bf00        ..      NOP      
        0x000195fc:    2002        .       MOVS     r0,#2
        0x000195fe:    bd10        ..      POP      {r4,pc}
        0x00019600:    2900        .)      CMP      r1,#0
        0x00019602:    bf1c        ..      ITT      NE
        0x00019604:    2006        .       MOVNE    r0,#6
        0x00019606:    bd10        ..      POPNE    {r4,pc}
        0x00019608:    b1c2        ..      CBZ      r2,0x1963c ; am_hal_ios_power_ctrl + 144
        0x0001960a:    7a20         z      LDRB     r0,[r4,#8]
        0x0001960c:    b1e0        ..      CBZ      r0,0x19648 ; am_hal_ios_power_ctrl + 156
        0x0001960e:    7920         y      LDRB     r0,[r4,#4]
        0x00019610:    f000f97c    ..|.    BL       am_hal_pwrctrl_periph_enable ; 0x1990c
        0x00019614:    68e0        .h      LDR      r0,[r4,#0xc]
        0x00019616:    f2441104    D...    MOV      r1,#0x4104
        0x0001961a:    f2c40103    ....    MOVT     r1,#0x4003
        0x0001961e:    6008        .`      STR      r0,[r1,#0]
        0x00019620:    6920         i      LDR      r0,[r4,#0x10]
        0x00019622:    6048        H`      STR      r0,[r1,#4]
        0x00019624:    6960        `i      LDR      r0,[r4,#0x14]
        0x00019626:    6148        Ha      STR      r0,[r1,#0x14]
        0x00019628:    69a0        .i      LDR      r0,[r4,#0x18]
        0x0001962a:    f8c100fc    ....    STR      r0,[r1,#0xfc]
        0x0001962e:    69e0        .i      LDR      r0,[r4,#0x1c]
        0x00019630:    f8c1010c    ....    STR      r0,[r1,#0x10c]
        0x00019634:    2000        .       MOVS     r0,#0
        0x00019636:    7220         r      STRB     r0,[r4,#8]
        0x00019638:    bd10        ..      POP      {r4,pc}
        0x0001963a:    bf00        ..      NOP      
        0x0001963c:    7920         y      LDRB     r0,[r4,#4]
        0x0001963e:    f000f965    ..e.    BL       am_hal_pwrctrl_periph_enable ; 0x1990c
        0x00019642:    2000        .       MOVS     r0,#0
        0x00019644:    bd10        ..      POP      {r4,pc}
        0x00019646:    bf00        ..      NOP      
        0x00019648:    2007        .       MOVS     r0,#7
        0x0001964a:    bd10        ..      POP      {r4,pc}
    am_hal_itm_enable
        0x0001964c:    f64e50fc    N..P    MOV      r0,#0xedfc
        0x00019650:    f2ce0000    ....    MOVT     r0,#0xe000
        0x00019654:    6801        .h      LDR      r1,[r0,#0]
        0x00019656:    f0417180    A..q    ORR      r1,r1,#0x1000000
        0x0001965a:    6001        .`      STR      r1,[r0,#0]
        0x0001965c:    6801        .h      LDR      r1,[r0,#0]
        0x0001965e:    01c9        ..      LSLS     r1,r1,#7
        0x00019660:    d409        ..      BMI      0x19676 ; am_hal_itm_enable + 42
        0x00019662:    6801        .h      LDR      r1,[r0,#0]
        0x00019664:    01c9        ..      LSLS     r1,r1,#7
        0x00019666:    bf5c        \.      ITT      PL
        0x00019668:    6801        .h      LDRPL    r1,[r0,#0]
        0x0001966a:    ea5f11c1    _...    LSLSPL   r1,r1,#7
        0x0001966e:    d402        ..      BMI      0x19676 ; am_hal_itm_enable + 42
        0x00019670:    6801        .h      LDR      r1,[r0,#0]
        0x00019672:    01c9        ..      LSLS     r1,r1,#7
        0x00019674:    d5f2        ..      BPL      0x1965c ; am_hal_itm_enable + 16
        0x00019676:    f6406000    @..`    MOVW     r0,#0xe00
        0x0001967a:    f64c6155    L.Ua    MOV      r1,#0xce55
        0x0001967e:    f2ce0000    ....    MOVT     r0,#0xe000
        0x00019682:    f2cc51ac    ...Q    MOVT     r1,#0xc5ac
        0x00019686:    f8c011b0    ....    STR      r1,[r0,#0x1b0]
        0x0001968a:    210f        .!      MOVS     r1,#0xf
        0x0001968c:    6401        .d      STR      r1,[r0,#0x40]
        0x0001968e:    f04f31ff    O..1    MOV      r1,#0xffffffff
        0x00019692:    6001        .`      STR      r1,[r0,#0]
        0x00019694:    f2405111    @..Q    MOV      r1,#0x511
        0x00019698:    f2c00115    ....    MOVT     r1,#0x15
        0x0001969c:    f8c01080    ....    STR      r1,[r0,#0x80]
        0x000196a0:    4770        pG      BX       lr
        0x000196a2:    0000        ..      MOVS     r0,r0
    am_hal_itm_print
        0x000196a4:    b510        ..      PUSH     {r4,lr}
        0x000196a6:    f04f31ff    O..1    MOV      r1,#0xffffffff
        0x000196aa:    bf00        ..      NOP      
        0x000196ac:    1842        B.      ADDS     r2,r0,r1
        0x000196ae:    7853        Sx      LDRB     r3,[r2,#1]
        0x000196b0:    b143        C.      CBZ      r3,0x196c4 ; am_hal_itm_print + 32
        0x000196b2:    7893        .x      LDRB     r3,[r2,#2]
        0x000196b4:    b153        S.      CBZ      r3,0x196cc ; am_hal_itm_print + 40
        0x000196b6:    78d3        .x      LDRB     r3,[r2,#3]
        0x000196b8:    b333        3.      CBZ      r3,0x19708 ; am_hal_itm_print + 100
        0x000196ba:    7912        .y      LDRB     r2,[r2,#4]
        0x000196bc:    3104        .1      ADDS     r1,#4
        0x000196be:    2a00        .*      CMP      r2,#0
        0x000196c0:    d1f4        ..      BNE      0x196ac ; am_hal_itm_print + 8
        0x000196c2:    e004        ..      B        0x196ce ; am_hal_itm_print + 42
        0x000196c4:    3101        .1      ADDS     r1,#1
        0x000196c6:    b919        ..      CBNZ     r1,0x196d0 ; am_hal_itm_print + 44
        0x000196c8:    e021        !.      B        0x1970e ; am_hal_itm_print + 106
        0x000196ca:    bf00        ..      NOP      
        0x000196cc:    3102        .1      ADDS     r1,#2
        0x000196ce:    b1f1        ..      CBZ      r1,0x1970e ; am_hal_itm_print + 106
        0x000196d0:    f0110e03    ....    ANDS     lr,r1,#3
        0x000196d4:    f1a10c01    ....    SUB      r12,r1,#1
        0x000196d8:    d040        @.      BEQ      0x1975c ; am_hal_itm_print + 184
        0x000196da:    7802        .x      LDRB     r2,[r0,#0]
        0x000196dc:    f04f4360    O.`C    MOV      r3,#0xe0000000
        0x000196e0:    681c        .h      LDR      r4,[r3,#0]
        0x000196e2:    b934        4.      CBNZ     r4,0x196f2 ; am_hal_itm_print + 78
        0x000196e4:    681c        .h      LDR      r4,[r3,#0]
        0x000196e6:    b924        $.      CBNZ     r4,0x196f2 ; am_hal_itm_print + 78
        0x000196e8:    681c        .h      LDR      r4,[r3,#0]
        0x000196ea:    b914        ..      CBNZ     r4,0x196f2 ; am_hal_itm_print + 78
        0x000196ec:    681c        .h      LDR      r4,[r3,#0]
        0x000196ee:    2c00        .,      CMP      r4,#0
        0x000196f0:    d0f6        ..      BEQ      0x196e0 ; am_hal_itm_print + 60
        0x000196f2:    1c44        D.      ADDS     r4,r0,#1
        0x000196f4:    f04f4360    O.`C    MOV      r3,#0xe0000000
        0x000196f8:    f1be0f01    ....    CMP      lr,#1
        0x000196fc:    701a        .p      STRB     r2,[r3,#0]
        0x000196fe:    d107        ..      BNE      0x19710 ; am_hal_itm_print + 108
        0x00019700:    4661        aF      MOV      r1,r12
        0x00019702:    4620         F      MOV      r0,r4
        0x00019704:    e02a        *.      B        0x1975c ; am_hal_itm_print + 184
        0x00019706:    bf00        ..      NOP      
        0x00019708:    3103        .1      ADDS     r1,#3
        0x0001970a:    2900        .)      CMP      r1,#0
        0x0001970c:    d1e0        ..      BNE      0x196d0 ; am_hal_itm_print + 44
        0x0001970e:    bd10        ..      POP      {r4,pc}
        0x00019710:    7822        "x      LDRB     r2,[r4,#0]
        0x00019712:    bf00        ..      NOP      
        0x00019714:    681c        .h      LDR      r4,[r3,#0]
        0x00019716:    b934        4.      CBNZ     r4,0x19726 ; am_hal_itm_print + 130
        0x00019718:    681c        .h      LDR      r4,[r3,#0]
        0x0001971a:    b924        $.      CBNZ     r4,0x19726 ; am_hal_itm_print + 130
        0x0001971c:    681c        .h      LDR      r4,[r3,#0]
        0x0001971e:    b914        ..      CBNZ     r4,0x19726 ; am_hal_itm_print + 130
        0x00019720:    681c        .h      LDR      r4,[r3,#0]
        0x00019722:    2c00        .,      CMP      r4,#0
        0x00019724:    d0f6        ..      BEQ      0x19714 ; am_hal_itm_print + 112
        0x00019726:    1c84        ..      ADDS     r4,r0,#2
        0x00019728:    f04f4360    O.`C    MOV      r3,#0xe0000000
        0x0001972c:    f1be0f02    ....    CMP      lr,#2
        0x00019730:    701a        .p      STRB     r2,[r3,#0]
        0x00019732:    d103        ..      BNE      0x1973c ; am_hal_itm_print + 152
        0x00019734:    3902        .9      SUBS     r1,#2
        0x00019736:    4620         F      MOV      r0,r4
        0x00019738:    e010        ..      B        0x1975c ; am_hal_itm_print + 184
        0x0001973a:    bf00        ..      NOP      
        0x0001973c:    7822        "x      LDRB     r2,[r4,#0]
        0x0001973e:    bf00        ..      NOP      
        0x00019740:    681c        .h      LDR      r4,[r3,#0]
        0x00019742:    b934        4.      CBNZ     r4,0x19752 ; am_hal_itm_print + 174
        0x00019744:    681c        .h      LDR      r4,[r3,#0]
        0x00019746:    b924        $.      CBNZ     r4,0x19752 ; am_hal_itm_print + 174
        0x00019748:    681c        .h      LDR      r4,[r3,#0]
        0x0001974a:    b914        ..      CBNZ     r4,0x19752 ; am_hal_itm_print + 174
        0x0001974c:    681c        .h      LDR      r4,[r3,#0]
        0x0001974e:    2c00        .,      CMP      r4,#0
        0x00019750:    d0f6        ..      BEQ      0x19740 ; am_hal_itm_print + 156
        0x00019752:    3003        .0      ADDS     r0,#3
        0x00019754:    f04f4360    O.`C    MOV      r3,#0xe0000000
        0x00019758:    3903        .9      SUBS     r1,#3
        0x0001975a:    701a        .p      STRB     r2,[r3,#0]
        0x0001975c:    f1bc0f03    ....    CMP      r12,#3
        0x00019760:    bf38        8.      IT       CC
        0x00019762:    bd10        ..      POPCC    {r4,pc}
        0x00019764:    f04f4260    O.`B    MOV      r2,#0xe0000000
        0x00019768:    e004        ..      B        0x19774 ; am_hal_itm_print + 208
        0x0001976a:    bf00        ..      NOP      
        0x0001976c:    3004        .0      ADDS     r0,#4
        0x0001976e:    3904        .9      SUBS     r1,#4
        0x00019770:    7013        .p      STRB     r3,[r2,#0]
        0x00019772:    d0cc        ..      BEQ      0x1970e ; am_hal_itm_print + 106
        0x00019774:    7803        .x      LDRB     r3,[r0,#0]
        0x00019776:    bf00        ..      NOP      
        0x00019778:    6814        .h      LDR      r4,[r2,#0]
        0x0001977a:    b934        4.      CBNZ     r4,0x1978a ; am_hal_itm_print + 230
        0x0001977c:    6814        .h      LDR      r4,[r2,#0]
        0x0001977e:    b924        $.      CBNZ     r4,0x1978a ; am_hal_itm_print + 230
        0x00019780:    6814        .h      LDR      r4,[r2,#0]
        0x00019782:    b914        ..      CBNZ     r4,0x1978a ; am_hal_itm_print + 230
        0x00019784:    6814        .h      LDR      r4,[r2,#0]
        0x00019786:    2c00        .,      CMP      r4,#0
        0x00019788:    d0f6        ..      BEQ      0x19778 ; am_hal_itm_print + 212
        0x0001978a:    7013        .p      STRB     r3,[r2,#0]
        0x0001978c:    7843        Cx      LDRB     r3,[r0,#1]
        0x0001978e:    bf00        ..      NOP      
        0x00019790:    6814        .h      LDR      r4,[r2,#0]
        0x00019792:    b934        4.      CBNZ     r4,0x197a2 ; am_hal_itm_print + 254
        0x00019794:    6814        .h      LDR      r4,[r2,#0]
        0x00019796:    b924        $.      CBNZ     r4,0x197a2 ; am_hal_itm_print + 254
        0x00019798:    6814        .h      LDR      r4,[r2,#0]
        0x0001979a:    b914        ..      CBNZ     r4,0x197a2 ; am_hal_itm_print + 254
        0x0001979c:    6814        .h      LDR      r4,[r2,#0]
        0x0001979e:    2c00        .,      CMP      r4,#0
        0x000197a0:    d0f6        ..      BEQ      0x19790 ; am_hal_itm_print + 236
        0x000197a2:    7013        .p      STRB     r3,[r2,#0]
        0x000197a4:    7883        .x      LDRB     r3,[r0,#2]
        0x000197a6:    bf00        ..      NOP      
        0x000197a8:    6814        .h      LDR      r4,[r2,#0]
        0x000197aa:    b934        4.      CBNZ     r4,0x197ba ; am_hal_itm_print + 278
        0x000197ac:    6814        .h      LDR      r4,[r2,#0]
        0x000197ae:    b924        $.      CBNZ     r4,0x197ba ; am_hal_itm_print + 278
        0x000197b0:    6814        .h      LDR      r4,[r2,#0]
        0x000197b2:    b914        ..      CBNZ     r4,0x197ba ; am_hal_itm_print + 278
        0x000197b4:    6814        .h      LDR      r4,[r2,#0]
        0x000197b6:    2c00        .,      CMP      r4,#0
        0x000197b8:    d0f6        ..      BEQ      0x197a8 ; am_hal_itm_print + 260
        0x000197ba:    7013        .p      STRB     r3,[r2,#0]
        0x000197bc:    78c3        .x      LDRB     r3,[r0,#3]
        0x000197be:    bf00        ..      NOP      
        0x000197c0:    6814        .h      LDR      r4,[r2,#0]
        0x000197c2:    2c00        .,      CMP      r4,#0
        0x000197c4:    d1d2        ..      BNE      0x1976c ; am_hal_itm_print + 200
        0x000197c6:    6814        .h      LDR      r4,[r2,#0]
        0x000197c8:    2c00        .,      CMP      r4,#0
        0x000197ca:    d1cf        ..      BNE      0x1976c ; am_hal_itm_print + 200
        0x000197cc:    6814        .h      LDR      r4,[r2,#0]
        0x000197ce:    2c00        .,      CMP      r4,#0
        0x000197d0:    d1cc        ..      BNE      0x1976c ; am_hal_itm_print + 200
        0x000197d2:    6814        .h      LDR      r4,[r2,#0]
        0x000197d4:    2c00        .,      CMP      r4,#0
        0x000197d6:    d0f3        ..      BEQ      0x197c0 ; am_hal_itm_print + 284
        0x000197d8:    e7c8        ..      B        0x1976c ; am_hal_itm_print + 200
        0x000197da:    0000        ..      MOVS     r0,r0
    am_hal_pwrctrl_periph_disable
        0x000197dc:    e92d43f0    -..C    PUSH     {r4-r9,lr}
        0x000197e0:    b083        ..      SUB      sp,sp,#0xc
        0x000197e2:    2821        !(      CMP      r0,#0x21
        0x000197e4:    d904        ..      BLS      0x197f0 ; am_hal_pwrctrl_periph_disable + 20
        0x000197e6:    2406        .$      MOVS     r4,#6
        0x000197e8:    4620         F      MOV      r0,r4
        0x000197ea:    b003        ..      ADD      sp,sp,#0xc
        0x000197ec:    e8bd83f0    ....    POP      {r4-r9,pc}
        0x000197f0:    f64b01cc    K...    MOV      r1,#0xb8cc
        0x000197f4:    f2c00101    ....    MOVT     r1,#1
        0x000197f8:    0102        ..      LSLS     r2,r0,#4
        0x000197fa:    f8518002    Q...    LDR      r8,[r1,r2]
        0x000197fe:    eb011500    ....    ADD      r5,r1,r0,LSL #4
        0x00019802:    686f        oh      LDR      r7,[r5,#4]
        0x00019804:    f8d81000    ....    LDR      r1,[r8,#0]
        0x00019808:    4239        9B      TST      r1,r7
        0x0001980a:    d074        t.      BEQ      0x198f6 ; am_hal_pwrctrl_periph_disable + 282
        0x0001980c:    2814        .(      CMP      r0,#0x14
        0x0001980e:    d12d        -.      BNE      0x1986c ; am_hal_pwrctrl_periph_disable + 144
        0x00019810:    f64076e0    @..v    MOVW     r6,#0xfe0
        0x00019814:    f2c4060c    ....    MOVT     r6,#0x400c
        0x00019818:    6830        0h      LDR      r0,[r6,#0]
        0x0001981a:    28c0        .(      CMP      r0,#0xc0
        0x0001981c:    d126        &.      BNE      0x1986c ; am_hal_pwrctrl_periph_disable + 144
        0x0001981e:    f6402980    @..)    MOVW     r9,#0xa80
        0x00019822:    f2c4090c    ....    MOVT     r9,#0x400c
        0x00019826:    f1a90104    ....    SUB      r1,r9,#4
        0x0001982a:    2064        d       MOVS     r0,#0x64
        0x0001982c:    2201        ."      MOVS     r2,#1
        0x0001982e:    2301        .#      MOVS     r3,#1
        0x00019830:    f7feffbc    ....    BL       am_hal_delay_us_status_change ; 0x187ac
        0x00019834:    4604        .F      MOV      r4,r0
        0x00019836:    2800        .(      CMP      r0,#0
        0x00019838:    d1d6        ..      BNE      0x197e8 ; am_hal_pwrctrl_periph_disable + 12
        0x0001983a:    f5066173    ..sa    ADD      r1,r6,#0xf30
        0x0001983e:    2064        d       MOVS     r0,#0x64
        0x00019840:    2201        ."      MOVS     r2,#1
        0x00019842:    2301        .#      MOVS     r3,#1
        0x00019844:    f7feffb2    ....    BL       am_hal_delay_us_status_change ; 0x187ac
        0x00019848:    4604        .F      MOV      r4,r0
        0x0001984a:    2800        .(      CMP      r0,#0
        0x0001984c:    d1cc        ..      BNE      0x197e8 ; am_hal_pwrctrl_periph_disable + 12
        0x0001984e:    f8d90000    ....    LDR      r0,[r9,#0]
        0x00019852:    f0400001    @...    ORR      r0,r0,#1
        0x00019856:    f8c90000    ....    STR      r0,[r9,#0]
        0x0001985a:    f24000f0    @...    MOVW     r0,#0xf0
        0x0001985e:    f2c10000    ....    MOVT     r0,#0x1000
        0x00019862:    68c1        .h      LDR      r1,[r0,#0xc]
        0x00019864:    b111        ..      CBZ      r1,0x1986c ; am_hal_pwrctrl_periph_disable + 144
        0x00019866:    2000        .       MOVS     r0,#0
        0x00019868:    f000fe98    ....    BL       crypto_boost_trims ; 0x1a59c
        0x0001986c:    e9d56502    ...e    LDRD     r6,r5,[r5,#8]
        0x00019870:    f7fff8c6    ....    BL       am_hal_interrupt_master_disable ; 0x18a00
        0x00019874:    9002        ..      STR      r0,[sp,#8]
        0x00019876:    f8d80000    ....    LDR      r0,[r8,#0]
        0x0001987a:    43b8        .C      BICS     r0,r0,r7
        0x0001987c:    f8c80000    ....    STR      r0,[r8,#0]
        0x00019880:    9802        ..      LDR      r0,[sp,#8]
        0x00019882:    f7fff8c5    ....    BL       am_hal_interrupt_master_set ; 0x18a10
        0x00019886:    2400        .$      MOVS     r4,#0
        0x00019888:    2005        .       MOVS     r0,#5
        0x0001988a:    4631        1F      MOV      r1,r6
        0x0001988c:    462a        *F      MOV      r2,r5
        0x0001988e:    462b        +F      MOV      r3,r5
        0x00019890:    9400        ..      STR      r4,[sp,#0]
        0x00019892:    f7feffb7    ....    BL       am_hal_delay_us_status_check ; 0x18804
        0x00019896:    2800        .(      CMP      r0,#0
        0x00019898:    d0a6        ..      BEQ      0x197e8 ; am_hal_pwrctrl_periph_disable + 12
        0x0001989a:    f5b57ff0    ....    CMP      r5,#0x1e0
        0x0001989e:    f04f0400    O...    MOV      r4,#0
        0x000198a2:    db0d        ..      BLT      0x198c0 ; am_hal_pwrctrl_periph_disable + 228
        0x000198a4:    d01a        ..      BEQ      0x198dc ; am_hal_pwrctrl_periph_disable + 256
        0x000198a6:    f5b53fe0    ...?    CMP      r5,#0x1c000
        0x000198aa:    d01d        ..      BEQ      0x198e8 ; am_hal_pwrctrl_periph_disable + 268
        0x000198ac:    f5b55ff0    ..._    CMP      r5,#0x1e00
        0x000198b0:    d19a        ..      BNE      0x197e8 ; am_hal_pwrctrl_periph_disable + 12
        0x000198b2:    f8d80000    ....    LDR      r0,[r8,#0]
        0x000198b6:    f4105ff0    ..._    TST      r0,#0x1e00
        0x000198ba:    d11a        ..      BNE      0x198f2 ; am_hal_pwrctrl_periph_disable + 278
        0x000198bc:    e01b        ..      B        0x198f6 ; am_hal_pwrctrl_periph_disable + 282
        0x000198be:    bf00        ..      NOP      
        0x000198c0:    2d1e        .-      CMP      r5,#0x1e
        0x000198c2:    d01d        ..      BEQ      0x19900 ; am_hal_pwrctrl_periph_disable + 292
        0x000198c4:    2dff        .-      CMP      r5,#0xff
        0x000198c6:    f47faf8f    ....    BNE.W    0x197e8 ; am_hal_pwrctrl_periph_disable + 12
        0x000198ca:    f8d80000    ....    LDR      r0,[r8,#0]
        0x000198ce:    0600        ..      LSLS     r0,r0,#24
        0x000198d0:    d10f        ..      BNE      0x198f2 ; am_hal_pwrctrl_periph_disable + 278
        0x000198d2:    2400        .$      MOVS     r4,#0
        0x000198d4:    4620         F      MOV      r0,r4
        0x000198d6:    b003        ..      ADD      sp,sp,#0xc
        0x000198d8:    e8bd83f0    ....    POP      {r4-r9,pc}
        0x000198dc:    f8d80000    ....    LDR      r0,[r8,#0]
        0x000198e0:    f4107ff0    ....    TST      r0,#0x1e0
        0x000198e4:    d105        ..      BNE      0x198f2 ; am_hal_pwrctrl_periph_disable + 278
        0x000198e6:    e006        ..      B        0x198f6 ; am_hal_pwrctrl_periph_disable + 282
        0x000198e8:    f8d80000    ....    LDR      r0,[r8,#0]
        0x000198ec:    f4103fe0    ...?    TST      r0,#0x1c000
        0x000198f0:    d001        ..      BEQ      0x198f6 ; am_hal_pwrctrl_periph_disable + 282
        0x000198f2:    f8d80000    ....    LDR      r0,[r8,#0]
        0x000198f6:    2400        .$      MOVS     r4,#0
        0x000198f8:    4620         F      MOV      r0,r4
        0x000198fa:    b003        ..      ADD      sp,sp,#0xc
        0x000198fc:    e8bd83f0    ....    POP      {r4-r9,pc}
        0x00019900:    f8d80000    ....    LDR      r0,[r8,#0]
        0x00019904:    f0100f1e    ....    TST      r0,#0x1e
        0x00019908:    d1f3        ..      BNE      0x198f2 ; am_hal_pwrctrl_periph_disable + 278
        0x0001990a:    e7f4        ..      B        0x198f6 ; am_hal_pwrctrl_periph_disable + 282
    am_hal_pwrctrl_periph_enable
        0x0001990c:    e92d4ff0    -..O    PUSH     {r4-r11,lr}
        0x00019910:    b085        ..      SUB      sp,sp,#0x14
        0x00019912:    2821        !(      CMP      r0,#0x21
        0x00019914:    d904        ..      BLS      0x19920 ; am_hal_pwrctrl_periph_enable + 20
        0x00019916:    2706        .'      MOVS     r7,#6
        0x00019918:    4638        8F      MOV      r0,r7
        0x0001991a:    b005        ..      ADD      sp,sp,#0x14
        0x0001991c:    e8bd8ff0    ....    POP      {r4-r11,pc}
        0x00019920:    4606        .F      MOV      r6,r0
        0x00019922:    f64b01cc    K...    MOV      r1,#0xb8cc
        0x00019926:    f2c00101    ....    MOVT     r1,#1
        0x0001992a:    0132        2.      LSLS     r2,r6,#4
        0x0001992c:    588f        .X      LDR      r7,[r1,r2]
        0x0001992e:    eb011000    ....    ADD      r0,r1,r0,LSL #4
        0x00019932:    6845        Eh      LDR      r5,[r0,#4]
        0x00019934:    6839        9h      LDR      r1,[r7,#0]
        0x00019936:    4229        )B      TST      r1,r5
        0x00019938:    d004        ..      BEQ      0x19944 ; am_hal_pwrctrl_periph_enable + 56
        0x0001993a:    2700        .'      MOVS     r7,#0
        0x0001993c:    4638        8F      MOV      r0,r7
        0x0001993e:    b005        ..      ADD      sp,sp,#0x14
        0x00019940:    e8bd8ff0    ....    POP      {r4-r11,pc}
        0x00019944:    e9d08902    ....    LDRD     r8,r9,[r0,#8]
        0x00019948:    f2400af0    @...    MOVW     r10,#0xf0
        0x0001994c:    2e14        ..      CMP      r6,#0x14
        0x0001994e:    f2c10a00    ....    MOVT     r10,#0x1000
        0x00019952:    d140        @.      BNE      0x199d6 ; am_hal_pwrctrl_periph_enable + 202
        0x00019954:    f8da400c    ...@    LDR      r4,[r10,#0xc]
        0x00019958:    b3ec        ..      CBZ      r4,0x199d6 ; am_hal_pwrctrl_periph_enable + 202
        0x0001995a:    f89a0000    ....    LDRB     r0,[r10,#0]
        0x0001995e:    bbd0        ..      CBNZ     r0,0x199d6 ; am_hal_pwrctrl_periph_enable + 202
        0x00019960:    f7fff84e    ..N.    BL       am_hal_interrupt_master_disable ; 0x18a00
        0x00019964:    9003        ..      STR      r0,[sp,#0xc]
        0x00019966:    2001        .       MOVS     r0,#1
        0x00019968:    f88a0000    ....    STRB     r0,[r10,#0]
        0x0001996c:    e9da0101    ....    LDRD     r0,r1,[r10,#4]
        0x00019970:    223f        ?"      MOVS     r2,#0x3f
        0x00019972:    4420         D      ADD      r0,r0,r4
        0x00019974:    283f        ?(      CMP      r0,#0x3f
        0x00019976:    bf38        8.      IT       CC
        0x00019978:    4602        .F      MOVCC    r2,r0
        0x0001997a:    440c        .D      ADD      r4,r4,r1
        0x0001997c:    f8cd8004    ....    STR      r8,[sp,#4]
        0x00019980:    f2400888    @...    MOVW     r8,#0x88
        0x00019984:    e9ca0401    ....    STRD     r0,r4,[r10,#4]
        0x00019988:    f2c40802    ....    MOVT     r8,#0x4002
        0x0001998c:    f8d812e4    ....    LDR      r1,[r8,#0x2e4]
        0x00019990:    f04f0b3f    O.?.    MOV      r11,#0x3f
        0x00019994:    2c3f        ?,      CMP      r4,#0x3f
        0x00019996:    bf38        8.      IT       CC
        0x00019998:    46a3        .F      MOVCC    r11,r4
        0x0001999a:    f021717c    !.|q    BIC      r1,r1,#0x3f00000
        0x0001999e:    2800        .(      CMP      r0,#0
        0x000199a0:    f04f0014    O...    MOV      r0,#0x14
        0x000199a4:    bf58        X.      IT       PL
        0x000199a6:    ea415102    A..Q    ORRPL    r1,r1,r2,LSL #20
        0x000199aa:    f8c812e4    ....    STR      r1,[r8,#0x2e4]
        0x000199ae:    f7fefee1    ....    BL       am_hal_delay_us ; 0x18774
        0x000199b2:    f8d80000    ....    LDR      r0,[r8,#0]
        0x000199b6:    2c00        .,      CMP      r4,#0
        0x000199b8:    f020003f     .?.    BIC      r0,r0,#0x3f
        0x000199bc:    bf58        X.      IT       PL
        0x000199be:    ea40000b    @...    ORRPL    r0,r0,r11
        0x000199c2:    f8c80000    ....    STR      r0,[r8,#0]
        0x000199c6:    f8dd8004    ....    LDR      r8,[sp,#4]
        0x000199ca:    9803        ..      LDR      r0,[sp,#0xc]
        0x000199cc:    f7fff820    .. .    BL       am_hal_interrupt_master_set ; 0x18a10
        0x000199d0:    2014        .       MOVS     r0,#0x14
        0x000199d2:    f7fefecf    ....    BL       am_hal_delay_us ; 0x18774
        0x000199d6:    f7fff813    ....    BL       am_hal_interrupt_master_disable ; 0x18a00
        0x000199da:    9002        ..      STR      r0,[sp,#8]
        0x000199dc:    6838        8h      LDR      r0,[r7,#0]
        0x000199de:    4328        (C      ORRS     r0,r0,r5
        0x000199e0:    6038        8`      STR      r0,[r7,#0]
        0x000199e2:    9802        ..      LDR      r0,[sp,#8]
        0x000199e4:    f7fff814    ....    BL       am_hal_interrupt_master_set ; 0x18a10
        0x000199e8:    2701        .'      MOVS     r7,#1
        0x000199ea:    2005        .       MOVS     r0,#5
        0x000199ec:    4641        AF      MOV      r1,r8
        0x000199ee:    464a        JF      MOV      r2,r9
        0x000199f0:    464b        KF      MOV      r3,r9
        0x000199f2:    9700        ..      STR      r7,[sp,#0]
        0x000199f4:    f7feff06    ....    BL       am_hal_delay_us_status_check ; 0x18804
        0x000199f8:    2800        .(      CMP      r0,#0
        0x000199fa:    d041        A.      BEQ      0x19a80 ; am_hal_pwrctrl_periph_enable + 372
        0x000199fc:    4607        .F      MOV      r7,r0
        0x000199fe:    2e14        ..      CMP      r6,#0x14
        0x00019a00:    d18a        ..      BNE      0x19918 ; am_hal_pwrctrl_periph_enable + 12
        0x00019a02:    f8da400c    ...@    LDR      r4,[r10,#0xc]
        0x00019a06:    2c00        .,      CMP      r4,#0
        0x00019a08:    f43faf86    ?...    BEQ.W    0x19918 ; am_hal_pwrctrl_periph_enable + 12
        0x00019a0c:    f89a0000    ....    LDRB     r0,[r10,#0]
        0x00019a10:    2800        .(      CMP      r0,#0
        0x00019a12:    f43faf81    ?...    BEQ.W    0x19918 ; am_hal_pwrctrl_periph_enable + 12
        0x00019a16:    f7fefff3    ....    BL       am_hal_interrupt_master_disable ; 0x18a00
        0x00019a1a:    9004        ..      STR      r0,[sp,#0x10]
        0x00019a1c:    2000        .       MOVS     r0,#0
        0x00019a1e:    f88a0000    ....    STRB     r0,[r10,#0]
        0x00019a22:    e9da0101    ....    LDRD     r0,r1,[r10,#4]
        0x00019a26:    263f        ?&      MOVS     r6,#0x3f
        0x00019a28:    1b05        ..      SUBS     r5,r0,r4
        0x00019a2a:    1b09        ..      SUBS     r1,r1,r4
        0x00019a2c:    2488        .$      MOVS     r4,#0x88
        0x00019a2e:    2d3f        ?-      CMP      r5,#0x3f
        0x00019a30:    bf38        8.      IT       CC
        0x00019a32:    462e        .F      MOVCC    r6,r5
        0x00019a34:    e9ca5101    ...Q    STRD     r5,r1,[r10,#4]
        0x00019a38:    f2c40402    ....    MOVT     r4,#0x4002
        0x00019a3c:    6822        "h      LDR      r2,[r4,#0]
        0x00019a3e:    203f        ?       MOVS     r0,#0x3f
        0x00019a40:    293f        ?)      CMP      r1,#0x3f
        0x00019a42:    bf38        8.      IT       CC
        0x00019a44:    4608        .F      MOVCC    r0,r1
        0x00019a46:    f022023f    ".?.    BIC      r2,r2,#0x3f
        0x00019a4a:    2900        .)      CMP      r1,#0
        0x00019a4c:    bf58        X.      IT       PL
        0x00019a4e:    4302        .C      ORRPL    r2,r2,r0
        0x00019a50:    2014        .       MOVS     r0,#0x14
        0x00019a52:    6022        "`      STR      r2,[r4,#0]
        0x00019a54:    f7fefe8e    ....    BL       am_hal_delay_us ; 0x18774
        0x00019a58:    f8d402e4    ....    LDR      r0,[r4,#0x2e4]
        0x00019a5c:    2d00        .-      CMP      r5,#0
        0x00019a5e:    f020707c     .|p    BIC      r0,r0,#0x3f00000
        0x00019a62:    bf58        X.      IT       PL
        0x00019a64:    ea405006    @..P    ORRPL    r0,r0,r6,LSL #20
        0x00019a68:    f8c402e4    ....    STR      r0,[r4,#0x2e4]
        0x00019a6c:    9804        ..      LDR      r0,[sp,#0x10]
        0x00019a6e:    f7feffcf    ....    BL       am_hal_interrupt_master_set ; 0x18a10
        0x00019a72:    2014        .       MOVS     r0,#0x14
        0x00019a74:    f7fefe7e    ..~.    BL       am_hal_delay_us ; 0x18774
        0x00019a78:    4638        8F      MOV      r0,r7
        0x00019a7a:    b005        ..      ADD      sp,sp,#0x14
        0x00019a7c:    e8bd8ff0    ....    POP      {r4-r11,pc}
        0x00019a80:    2e14        ..      CMP      r6,#0x14
        0x00019a82:    d10c        ..      BNE      0x19a9e ; am_hal_pwrctrl_periph_enable + 402
        0x00019a84:    f6417110    A..q    MOV      r1,#0x1f10
        0x00019a88:    f2c4010c    ....    MOVT     r1,#0x400c
        0x00019a8c:    2064        d       MOVS     r0,#0x64
        0x00019a8e:    2201        ."      MOVS     r2,#1
        0x00019a90:    2301        .#      MOVS     r3,#1
        0x00019a92:    f7fefe8b    ....    BL       am_hal_delay_us_status_change ; 0x187ac
        0x00019a96:    4607        .F      MOV      r7,r0
        0x00019a98:    2800        .(      CMP      r0,#0
        0x00019a9a:    f47faf3d    ..=.    BNE      0x19918 ; am_hal_pwrctrl_periph_enable + 12
        0x00019a9e:    f8d80000    ....    LDR      r0,[r8,#0]
        0x00019aa2:    ea000009    ....    AND      r0,r0,r9
        0x00019aa6:    fab0f080    ....    CLZ      r0,r0
        0x00019aaa:    0947        G.      LSRS     r7,r0,#5
        0x00019aac:    4638        8F      MOV      r0,r7
        0x00019aae:    b005        ..      ADD      sp,sp,#0x14
        0x00019ab0:    e8bd8ff0    ....    POP      {r4-r11,pc}
    am_hal_sysctrl_sleep
        0x00019ab4:    b570        p.      PUSH     {r4-r6,lr}
        0x00019ab6:    b082        ..      SUB      sp,sp,#8
        0x00019ab8:    a901        ..      ADD      r1,sp,#4
        0x00019aba:    f1b15f80    ..._    CMP      r1,#0x10000000
        0x00019abe:    d32f        /.      BCC      0x19b20 ; am_hal_sysctrl_sleep + 108
        0x00019ac0:    4604        .F      MOV      r4,r0
        0x00019ac2:    2000        .       MOVS     r0,#0
        0x00019ac4:    f2c10006    ....    MOVT     r0,#0x1006
        0x00019ac8:    4281        .B      CMP      r1,r0
        0x00019aca:    d229        ).      BCS      0x19b20 ; am_hal_sysctrl_sleep + 108
        0x00019acc:    f2410608    A...    MOV      r6,#0x1008
        0x00019ad0:    f2c40602    ....    MOVT     r6,#0x4002
        0x00019ad4:    f7feff94    ....    BL       am_hal_interrupt_master_disable ; 0x18a00
        0x00019ad8:    9000        ..      STR      r0,[sp,#0]
        0x00019ada:    f8d60100    ....    LDR      r0,[r6,#0x100]
        0x00019ade:    b30c        ..      CBZ      r4,0x19b24 ; am_hal_sysctrl_sleep + 112
        0x00019ae0:    f2403480    @..4    MOVW     r4,#0x380
        0x00019ae4:    f64f61d0    O..a    MOV      r1,#0xfed0
        0x00019ae8:    f2c40402    ....    MOVT     r4,#0x4002
        0x00019aec:    f6cf71ff    ...q    MOVT     r1,#0xffff
        0x00019af0:    5861        aX      LDR      r1,[r4,r1]
        0x00019af2:    07c9        ..      LSLS     r1,r1,#31
        0x00019af4:    d116        ..      BNE      0x19b24 ; am_hal_sysctrl_sleep + 112
        0x00019af6:    f0000030    ..0.    AND      r0,r0,#0x30
        0x00019afa:    f64e5510    N..U    MOV      r5,#0xed10
        0x00019afe:    2830        0(      CMP      r0,#0x30
        0x00019b00:    f2ce0500    ....    MOVT     r5,#0xe000
        0x00019b04:    d105        ..      BNE      0x19b12 ; am_hal_sysctrl_sleep + 94
        0x00019b06:    68b0        .h      LDR      r0,[r6,#8]
        0x00019b08:    0540        @.      LSLS     r0,r0,#21
        0x00019b0a:    d402        ..      BMI      0x19b12 ; am_hal_sysctrl_sleep + 94
        0x00019b0c:    6830        0h      LDR      r0,[r6,#0]
        0x00019b0e:    01c0        ..      LSLS     r0,r0,#7
        0x00019b10:    d01c        ..      BEQ      0x19b4c ; am_hal_sysctrl_sleep + 152
        0x00019b12:    6828        (h      LDR      r0,[r5,#0]
        0x00019b14:    2100        .!      MOVS     r1,#0
        0x00019b16:    f0400004    @...    ORR      r0,r0,#4
        0x00019b1a:    6028        (`      STR      r0,[r5,#0]
        0x00019b1c:    2001        .       MOVS     r0,#1
        0x00019b1e:    e00b        ..      B        0x19b38 ; am_hal_sysctrl_sleep + 132
        0x00019b20:    e7fe        ..      B        0x19b20 ; am_hal_sysctrl_sleep + 108
        0x00019b22:    bf00        ..      NOP      
        0x00019b24:    f64e5010    N..P    MOV      r0,#0xed10
        0x00019b28:    f2ce0000    ....    MOVT     r0,#0xe000
        0x00019b2c:    6801        .h      LDR      r1,[r0,#0]
        0x00019b2e:    f0210104    !...    BIC      r1,r1,#4
        0x00019b32:    6001        .`      STR      r1,[r0,#0]
        0x00019b34:    2001        .       MOVS     r0,#1
        0x00019b36:    2100        .!      MOVS     r1,#0
        0x00019b38:    f7fefd1e    ....    BL       am_hal_daxi_control ; 0x18578
        0x00019b3c:    bf30        0.      WFI      
        0x00019b3e:    f3bf8f6f    ..o.    ISB      
        0x00019b42:    9800        ..      LDR      r0,[sp,#0]
        0x00019b44:    f7feff64    ..d.    BL       am_hal_interrupt_master_set ; 0x18a10
        0x00019b48:    b002        ..      ADD      sp,sp,#8
        0x00019b4a:    bd70        p.      POP      {r4-r6,pc}
        0x00019b4c:    f240001c    @...    MOVW     r0,#0x1c
        0x00019b50:    f2c10000    ....    MOVT     r0,#0x1000
        0x00019b54:    6800        .h      LDR      r0,[r0,#0]
        0x00019b56:    f8541c10    T...    LDR      r1,[r4,#-0x10]
        0x00019b5a:    f3605119    `..Q    BFI      r1,r0,#20,#6
        0x00019b5e:    f8441c10    D...    STR      r1,[r4,#-0x10]
        0x00019b62:    6820         h      LDR      r0,[r4,#0]
        0x00019b64:    f0204000     ..@    BIC      r0,r0,#0x80000000
        0x00019b68:    6020         `      STR      r0,[r4,#0]
        0x00019b6a:    6820         h      LDR      r0,[r4,#0]
        0x00019b6c:    f0204080     ..@    BIC      r0,r0,#0x40000000
        0x00019b70:    6020         `      STR      r0,[r4,#0]
        0x00019b72:    2000        .       MOVS     r0,#0
        0x00019b74:    f000fcfc    ....    BL       buck_ldo_update_override ; 0x1a570
        0x00019b78:    6828        (h      LDR      r0,[r5,#0]
        0x00019b7a:    2100        .!      MOVS     r1,#0
        0x00019b7c:    f0400004    @...    ORR      r0,r0,#4
        0x00019b80:    6028        (`      STR      r0,[r5,#0]
        0x00019b82:    2001        .       MOVS     r0,#1
        0x00019b84:    f7fefcf8    ....    BL       am_hal_daxi_control ; 0x18578
        0x00019b88:    bf30        0.      WFI      
        0x00019b8a:    2001        .       MOVS     r0,#1
        0x00019b8c:    f3bf8f6f    ..o.    ISB      
        0x00019b90:    f000fcee    ....    BL       buck_ldo_update_override ; 0x1a570
        0x00019b94:    6820         h      LDR      r0,[r4,#0]
        0x00019b96:    f0404000    @..@    ORR      r0,r0,#0x80000000
        0x00019b9a:    6020         `      STR      r0,[r4,#0]
        0x00019b9c:    6820         h      LDR      r0,[r4,#0]
        0x00019b9e:    f0404080    @..@    ORR      r0,r0,#0x40000000
        0x00019ba2:    6020         `      STR      r0,[r4,#0]
        0x00019ba4:    f8540c10    T...    LDR      r0,[r4,#-0x10]
        0x00019ba8:    f020707c     .|p    BIC      r0,r0,#0x3f00000
        0x00019bac:    f8440c10    D...    STR      r0,[r4,#-0x10]
        0x00019bb0:    9800        ..      LDR      r0,[sp,#0]
        0x00019bb2:    f7feff2d    ..-.    BL       am_hal_interrupt_master_set ; 0x18a10
        0x00019bb6:    b002        ..      ADD      sp,sp,#8
        0x00019bb8:    bd70        p.      POP      {r4-r6,pc}
        0x00019bba:    0000        ..      MOVS     r0,r0
    am_hal_timer_clear
        0x00019bbc:    b510        ..      PUSH     {r4,lr}
        0x00019bbe:    b082        ..      SUB      sp,sp,#8
        0x00019bc0:    4604        .F      MOV      r4,r0
        0x00019bc2:    f7feff1d    ....    BL       am_hal_interrupt_master_disable ; 0x18a00
        0x00019bc6:    f2482100    H..!    MOVW     r1,#0x8200
        0x00019bca:    9001        ..      STR      r0,[sp,#4]
        0x00019bcc:    0160        `.      LSLS     r0,r4,#5
        0x00019bce:    f2c40100    ....    MOVT     r1,#0x4000
        0x00019bd2:    580a        .X      LDR      r2,[r1,r0]
        0x00019bd4:    f0220201    "...    BIC      r2,r2,#1
        0x00019bd8:    500a        .P      STR      r2,[r1,r0]
        0x00019bda:    580a        .X      LDR      r2,[r1,r0]
        0x00019bdc:    f0420202    B...    ORR      r2,r2,#2
        0x00019be0:    500a        .P      STR      r2,[r1,r0]
        0x00019be2:    580a        .X      LDR      r2,[r1,r0]
        0x00019be4:    f0220202    "...    BIC      r2,r2,#2
        0x00019be8:    500a        .P      STR      r2,[r1,r0]
        0x00019bea:    580a        .X      LDR      r2,[r1,r0]
        0x00019bec:    f0420201    B...    ORR      r2,r2,#1
        0x00019bf0:    500a        .P      STR      r2,[r1,r0]
        0x00019bf2:    9801        ..      LDR      r0,[sp,#4]
        0x00019bf4:    f7feff0c    ....    BL       am_hal_interrupt_master_set ; 0x18a10
        0x00019bf8:    2000        .       MOVS     r0,#0
        0x00019bfa:    b002        ..      ADD      sp,sp,#8
        0x00019bfc:    bd10        ..      POP      {r4,pc}
        0x00019bfe:    0000        ..      MOVS     r0,r0
    am_hal_timer_clear_stop
        0x00019c00:    b510        ..      PUSH     {r4,lr}
        0x00019c02:    b082        ..      SUB      sp,sp,#8
        0x00019c04:    4604        .F      MOV      r4,r0
        0x00019c06:    f7fefefb    ....    BL       am_hal_interrupt_master_disable ; 0x18a00
        0x00019c0a:    f2482100    H..!    MOVW     r1,#0x8200
        0x00019c0e:    9001        ..      STR      r0,[sp,#4]
        0x00019c10:    0160        `.      LSLS     r0,r4,#5
        0x00019c12:    f2c40100    ....    MOVT     r1,#0x4000
        0x00019c16:    580a        .X      LDR      r2,[r1,r0]
        0x00019c18:    f0220201    "...    BIC      r2,r2,#1
        0x00019c1c:    500a        .P      STR      r2,[r1,r0]
        0x00019c1e:    580a        .X      LDR      r2,[r1,r0]
        0x00019c20:    f0420202    B...    ORR      r2,r2,#2
        0x00019c24:    500a        .P      STR      r2,[r1,r0]
        0x00019c26:    580a        .X      LDR      r2,[r1,r0]
        0x00019c28:    f0220202    "...    BIC      r2,r2,#2
        0x00019c2c:    500a        .P      STR      r2,[r1,r0]
        0x00019c2e:    9801        ..      LDR      r0,[sp,#4]
        0x00019c30:    f7fefeee    ....    BL       am_hal_interrupt_master_set ; 0x18a10
        0x00019c34:    2000        .       MOVS     r0,#0
        0x00019c36:    b002        ..      ADD      sp,sp,#8
        0x00019c38:    bd10        ..      POP      {r4,pc}
        0x00019c3a:    0000        ..      MOVS     r0,r0
    am_hal_timer_config
        0x00019c3c:    f001ba1a    ....    B.W      internal_timer_config ; 0x1b074
    am_hal_timer_default_config_set
        0x00019c40:    4601        .F      MOV      r1,r0
        0x00019c42:    f2401001    @...    MOV      r0,#0x101
        0x00019c46:    8008        ..      STRH     r0,[r1,#0]
        0x00019c48:    f04f7080    O..p    MOV      r0,#0x1000000
        0x00019c4c:    f04f32ff    O..2    MOV      r2,#0xffffffff
        0x00019c50:    f8c10002    ....    STR      r0,[r1,#2]
        0x00019c54:    2000        .       MOVS     r0,#0
        0x00019c56:    e9c10202    ....    STRD     r0,r2,[r1,#8]
        0x00019c5a:    2000        .       MOVS     r0,#0
        0x00019c5c:    610a        .a      STR      r2,[r1,#0x10]
        0x00019c5e:    4770        pG      BX       lr
    am_hal_timer_disable
        0x00019c60:    b510        ..      PUSH     {r4,lr}
        0x00019c62:    b082        ..      SUB      sp,sp,#8
        0x00019c64:    4604        .F      MOV      r4,r0
        0x00019c66:    f7fefecb    ....    BL       am_hal_interrupt_master_disable ; 0x18a00
        0x00019c6a:    f2482100    H..!    MOVW     r1,#0x8200
        0x00019c6e:    9001        ..      STR      r0,[sp,#4]
        0x00019c70:    0160        `.      LSLS     r0,r4,#5
        0x00019c72:    f2c40100    ....    MOVT     r1,#0x4000
        0x00019c76:    580a        .X      LDR      r2,[r1,r0]
        0x00019c78:    f0220201    "...    BIC      r2,r2,#1
        0x00019c7c:    500a        .P      STR      r2,[r1,r0]
        0x00019c7e:    9801        ..      LDR      r0,[sp,#4]
        0x00019c80:    f7fefec6    ....    BL       am_hal_interrupt_master_set ; 0x18a10
        0x00019c84:    2000        .       MOVS     r0,#0
        0x00019c86:    b002        ..      ADD      sp,sp,#8
        0x00019c88:    bd10        ..      POP      {r4,pc}
        0x00019c8a:    0000        ..      MOVS     r0,r0
    am_hal_timer_enable
        0x00019c8c:    b510        ..      PUSH     {r4,lr}
        0x00019c8e:    b082        ..      SUB      sp,sp,#8
        0x00019c90:    4604        .F      MOV      r4,r0
        0x00019c92:    f7fefeb5    ....    BL       am_hal_interrupt_master_disable ; 0x18a00
        0x00019c96:    f2480110    H...    MOV      r1,#0x8010
        0x00019c9a:    9001        ..      STR      r0,[sp,#4]
        0x00019c9c:    f2c40100    ....    MOVT     r1,#0x4000
        0x00019ca0:    2001        .       MOVS     r0,#1
        0x00019ca2:    680a        .h      LDR      r2,[r1,#0]
        0x00019ca4:    40a0        .@      LSLS     r0,r0,r4
        0x00019ca6:    4310        .C      ORRS     r0,r0,r2
        0x00019ca8:    6008        .`      STR      r0,[r1,#0]
        0x00019caa:    eb011044    ..D.    ADD      r0,r1,r4,LSL #5
        0x00019cae:    f8d011f0    ....    LDR      r1,[r0,#0x1f0]
        0x00019cb2:    f0410102    A...    ORR      r1,r1,#2
        0x00019cb6:    f8c011f0    ....    STR      r1,[r0,#0x1f0]
        0x00019cba:    f8d011f0    ....    LDR      r1,[r0,#0x1f0]
        0x00019cbe:    f0210102    !...    BIC      r1,r1,#2
        0x00019cc2:    f8c011f0    ....    STR      r1,[r0,#0x1f0]
        0x00019cc6:    f8d011f0    ....    LDR      r1,[r0,#0x1f0]
        0x00019cca:    f0410101    A...    ORR      r1,r1,#1
        0x00019cce:    f8c011f0    ....    STR      r1,[r0,#0x1f0]
        0x00019cd2:    9801        ..      LDR      r0,[sp,#4]
        0x00019cd4:    f7fefe9c    ....    BL       am_hal_interrupt_master_set ; 0x18a10
        0x00019cd8:    2000        .       MOVS     r0,#0
        0x00019cda:    b002        ..      ADD      sp,sp,#8
        0x00019cdc:    bd10        ..      POP      {r4,pc}
        0x00019cde:    0000        ..      MOVS     r0,r0
    am_hal_timer_interrupt_clear
        0x00019ce0:    f2480268    H.h.    MOV      r2,#0x8068
        0x00019ce4:    4601        .F      MOV      r1,r0
        0x00019ce6:    f2c40200    ....    MOVT     r2,#0x4000
        0x00019cea:    2000        .       MOVS     r0,#0
        0x00019cec:    6011        .`      STR      r1,[r2,#0]
        0x00019cee:    4770        pG      BX       lr
    am_hal_timer_interrupt_enable
        0x00019cf0:    f2480160    H.`.    MOV      r1,#0x8060
        0x00019cf4:    f2c40100    ....    MOVT     r1,#0x4000
        0x00019cf8:    680a        .h      LDR      r2,[r1,#0]
        0x00019cfa:    4302        .C      ORRS     r2,r2,r0
        0x00019cfc:    2000        .       MOVS     r0,#0
        0x00019cfe:    600a        .`      STR      r2,[r1,#0]
        0x00019d00:    4770        pG      BX       lr
        0x00019d02:    0000        ..      MOVS     r0,r0
    am_hal_tpiu_enable
        0x00019d04:    f647337f    G..3    MOV      r3,#0x7b7f
        0x00019d08:    f6cf73e1    ...s    MOVT     r3,#0xffe1
        0x00019d0c:    2104        .!      MOVS     r1,#4
        0x00019d0e:    18c2        ..      ADDS     r2,r0,r3
        0x00019d10:    f5034361    ..aC    ADD      r3,r3,#0xe100
        0x00019d14:    f2ce0104    ....    MOVT     r1,#0xe004
        0x00019d18:    f04f0c00    O...    MOV      r12,#0
        0x00019d1c:    429a        .B      CMP      r2,r3
        0x00019d1e:    f6464300    F..C    MOVW     r3,#0x6c00
        0x00019d22:    f8c1c300    ....    STR      r12,[r1,#0x300]
        0x00019d26:    bf3c        <.      ITT      CC
        0x00019d28:    f2442040    D.@     MOVCC    r0,#0x4240
        0x00019d2c:    f2c0000f    ....    MOVTCC   r0,#0xf
        0x00019d30:    f2c023dc    ...#    MOVT     r3,#0x2dc
        0x00019d34:    fbb3f0f0    ....    UDIV     r0,r3,r0
        0x00019d38:    2201        ."      MOVS     r2,#1
        0x00019d3a:    3801        .8      SUBS     r0,#1
        0x00019d3c:    b280        ..      UXTH     r0,r0
        0x00019d3e:    600a        .`      STR      r2,[r1,#0]
        0x00019d40:    60c8        .`      STR      r0,[r1,#0xc]
        0x00019d42:    2002        .       MOVS     r0,#2
        0x00019d44:    f8c100ec    ....    STR      r0,[r1,#0xec]
        0x00019d48:    f6407100    @..q    MOVW     r1,#0xf00
        0x00019d4c:    f2ce0104    ....    MOVT     r1,#0xe004
        0x00019d50:    f8c1c000    ....    STR      r12,[r1,#0]
        0x00019d54:    f2402150    @.P!    MOVW     r1,#0x250
        0x00019d58:    f2c40102    ....    MOVT     r1,#0x4002
        0x00019d5c:    680a        .h      LDR      r2,[r1,#0]
        0x00019d5e:    f3600243    `.C.    BFI      r2,r0,#1,#3
        0x00019d62:    600a        .`      STR      r2,[r1,#0]
        0x00019d64:    6808        .h      LDR      r0,[r1,#0]
        0x00019d66:    f0400201    @...    ORR      r2,r0,#1
        0x00019d6a:    2064        d       MOVS     r0,#0x64
        0x00019d6c:    600a        .`      STR      r2,[r1,#0]
        0x00019d6e:    f7febd01    ....    B        am_hal_delay_us ; 0x18774
        0x00019d72:    0000        ..      MOVS     r0,r0
    am_ioslave_ios_isr
        0x00019d74:    b580        ..      PUSH     {r7,lr}
        0x00019d76:    b086        ..      SUB      sp,sp,#0x18
        0x00019d78:    2100        .!      MOVS     r1,#0
        0x00019d7a:    9102        ..      STR      r1,[sp,#8]
        0x00019d7c:    9103        ..      STR      r1,[sp,#0xc]
        0x00019d7e:    f240105c    @.\.    MOVW     r0,#0x15c
        0x00019d82:    f2c10000    ....    MOVT     r0,#0x1000
        0x00019d86:    9001        ..      STR      r0,[sp,#4]
        0x00019d88:    6800        .h      LDR      r0,[r0,#0]
        0x00019d8a:    aa05        ..      ADD      r2,sp,#0x14
        0x00019d8c:    f7fffbf2    ....    BL       am_hal_ios_interrupt_status_get ; 0x19574
        0x00019d90:    9801        ..      LDR      r0,[sp,#4]
        0x00019d92:    6800        .h      LDR      r0,[r0,#0]
        0x00019d94:    9905        ..      LDR      r1,[sp,#0x14]
        0x00019d96:    f7fff9cf    ....    BL       am_hal_ios_interrupt_clear ; 0x19138
        0x00019d9a:    9902        ..      LDR      r1,[sp,#8]
        0x00019d9c:    2011        .       MOVS     r0,#0x11
        0x00019d9e:    f7fefda9    ....    BL       am_hal_gpio_state_write ; 0x188f4
        0x00019da2:    f89d0014    ....    LDRB     r0,[sp,#0x14]
        0x00019da6:    0740        @.      LSLS     r0,r0,#29
        0x00019da8:    2800        .(      CMP      r0,#0
        0x00019daa:    d507        ..      BPL      0x19dbc ; am_ioslave_ios_isr + 72
        0x00019dac:    e7ff        ..      B        0x19dae ; am_ioslave_ios_isr + 58
        0x00019dae:    f64b3070    K.p0    MOV      r0,#0xbb70
        0x00019db2:    f2c00001    ....    MOVT     r0,#1
        0x00019db6:    f000f871    ..q.    BL       am_util_stdio_printf ; 0x19e9c
        0x00019dba:    e7ff        ..      B        0x19dbc ; am_ioslave_ios_isr + 72
        0x00019dbc:    f89d0014    ....    LDRB     r0,[sp,#0x14]
        0x00019dc0:    f0100f0e    ....    TST      r0,#0xe
        0x00019dc4:    d001        ..      BEQ      0x19dca ; am_ioslave_ios_isr + 86
        0x00019dc6:    e7ff        ..      B        0x19dc8 ; am_ioslave_ios_isr + 84
        0x00019dc8:    e7ff        ..      B        0x19dca ; am_ioslave_ios_isr + 86
        0x00019dca:    f89d0014    ....    LDRB     r0,[sp,#0x14]
        0x00019dce:    07c0        ..      LSLS     r0,r0,#31
        0x00019dd0:    b148        H.      CBZ      r0,0x19de6 ; am_ioslave_ios_isr + 114
        0x00019dd2:    e7ff        ..      B        0x19dd4 ; am_ioslave_ios_isr + 96
        0x00019dd4:    f240105c    @.\.    MOVW     r0,#0x15c
        0x00019dd8:    f2c10000    ....    MOVT     r0,#0x1000
        0x00019ddc:    6800        .h      LDR      r0,[r0,#0]
        0x00019dde:    9905        ..      LDR      r1,[sp,#0x14]
        0x00019de0:    f7fff9d4    ....    BL       am_hal_ios_interrupt_service ; 0x1918c
        0x00019de4:    e7ff        ..      B        0x19de6 ; am_ioslave_ios_isr + 114
        0x00019de6:    f89d0015    ....    LDRB     r0,[sp,#0x15]
        0x00019dea:    0780        ..      LSLS     r0,r0,#30
        0x00019dec:    2800        .(      CMP      r0,#0
        0x00019dee:    d53e        >.      BPL      0x19e6e ; am_ioslave_ios_isr + 250
        0x00019df0:    e7ff        ..      B        0x19df2 ; am_ioslave_ios_isr + 126
        0x00019df2:    f64b00c8    K...    MOV      r0,#0xb8c8
        0x00019df6:    f2c00001    ....    MOVT     r0,#1
        0x00019dfa:    6800        .h      LDR      r0,[r0,#0]
        0x00019dfc:    9004        ..      STR      r0,[sp,#0x10]
        0x00019dfe:    9804        ..      LDR      r0,[sp,#0x10]
        0x00019e00:    7800        .x      LDRB     r0,[r0,#0]
        0x00019e02:    4601        .F      MOV      r1,r0
        0x00019e04:    9100        ..      STR      r1,[sp,#0]
        0x00019e06:    b140        @.      CBZ      r0,0x19e1a ; am_ioslave_ios_isr + 166
        0x00019e08:    e7ff        ..      B        0x19e0a ; am_ioslave_ios_isr + 150
        0x00019e0a:    9800        ..      LDR      r0,[sp,#0]
        0x00019e0c:    2801        .(      CMP      r0,#1
        0x00019e0e:    d007        ..      BEQ      0x19e20 ; am_ioslave_ios_isr + 172
        0x00019e10:    e7ff        ..      B        0x19e12 ; am_ioslave_ios_isr + 158
        0x00019e12:    9800        ..      LDR      r0,[sp,#0]
        0x00019e14:    2802        .(      CMP      r0,#2
        0x00019e16:    d00c        ..      BEQ      0x19e32 ; am_ioslave_ios_isr + 190
        0x00019e18:    e027        '.      B        0x19e6a ; am_ioslave_ios_isr + 246
        0x00019e1a:    f001fbef    ....    BL       start_sensors ; 0x1b5fc
        0x00019e1e:    e025        %.      B        0x19e6c ; am_ioslave_ios_isr + 248
        0x00019e20:    f001fc04    ....    BL       stop_sensors ; 0x1b62c
        0x00019e24:    f240115b    @.[.    MOV      r1,#0x15b
        0x00019e28:    f2c10100    ....    MOVT     r1,#0x1000
        0x00019e2c:    2000        .       MOVS     r0,#0
        0x00019e2e:    7008        .p      STRB     r0,[r1,#0]
        0x00019e30:    e01c        ..      B        0x19e6c ; am_ioslave_ios_isr + 248
        0x00019e32:    f240105c    @.\.    MOVW     r0,#0x15c
        0x00019e36:    f2c10000    ....    MOVT     r0,#0x1000
        0x00019e3a:    6800        .h      LDR      r0,[r0,#0]
        0x00019e3c:    a903        ..      ADD      r1,sp,#0xc
        0x00019e3e:    f7feff83    ....    BL       am_hal_ios_fifo_space_used ; 0x18d48
        0x00019e42:    9803        ..      LDR      r0,[sp,#0xc]
        0x00019e44:    b148        H.      CBZ      r0,0x19e5a ; am_ioslave_ios_isr + 230
        0x00019e46:    e7ff        ..      B        0x19e48 ; am_ioslave_ios_isr + 212
        0x00019e48:    f240115b    @.[.    MOV      r1,#0x15b
        0x00019e4c:    f2c10100    ....    MOVT     r1,#0x1000
        0x00019e50:    2001        .       MOVS     r0,#1
        0x00019e52:    7008        .p      STRB     r0,[r1,#0]
        0x00019e54:    f001f8a2    ....    BL       inform_host ; 0x1af9c
        0x00019e58:    e006        ..      B        0x19e68 ; am_ioslave_ios_isr + 244
        0x00019e5a:    f240115b    @.[.    MOV      r1,#0x15b
        0x00019e5e:    f2c10100    ....    MOVT     r1,#0x1000
        0x00019e62:    2000        .       MOVS     r0,#0
        0x00019e64:    7008        .p      STRB     r0,[r1,#0]
        0x00019e66:    e7ff        ..      B        0x19e68 ; am_ioslave_ios_isr + 244
        0x00019e68:    e000        ..      B        0x19e6c ; am_ioslave_ios_isr + 248
        0x00019e6a:    e7ff        ..      B        0x19e6c ; am_ioslave_ios_isr + 248
        0x00019e6c:    e7ff        ..      B        0x19e6e ; am_ioslave_ios_isr + 250
        0x00019e6e:    b006        ..      ADD      sp,sp,#0x18
        0x00019e70:    bd80        ..      POP      {r7,pc}
        0x00019e72:    0000        ..      MOVS     r0,r0
    am_timer00_isr
        0x00019e74:    b580        ..      PUSH     {r7,lr}
        0x00019e76:    2001        .       MOVS     r0,#1
        0x00019e78:    f7ffff32    ..2.    BL       am_hal_timer_interrupt_clear ; 0x19ce0
        0x00019e7c:    2000        .       MOVS     r0,#0
        0x00019e7e:    f7fffe9d    ....    BL       am_hal_timer_clear ; 0x19bbc
        0x00019e82:    f001fbdb    ....    BL       timer0_handler ; 0x1b63c
        0x00019e86:    bd80        ..      POP      {r7,pc}
    am_timer02_isr
        0x00019e88:    b580        ..      PUSH     {r7,lr}
        0x00019e8a:    2010        .       MOVS     r0,#0x10
        0x00019e8c:    f7ffff28    ..(.    BL       am_hal_timer_interrupt_clear ; 0x19ce0
        0x00019e90:    2002        .       MOVS     r0,#2
        0x00019e92:    f7fffe93    ....    BL       am_hal_timer_clear ; 0x19bbc
        0x00019e96:    f001fbd9    ....    BL       timer1_handler ; 0x1b64c
        0x00019e9a:    bd80        ..      POP      {r7,pc}
    am_util_stdio_printf
        0x00019e9c:    b083        ..      SUB      sp,sp,#0xc
        0x00019e9e:    b580        ..      PUSH     {r7,lr}
        0x00019ea0:    b085        ..      SUB      sp,sp,#0x14
        0x00019ea2:    9309        ..      STR      r3,[sp,#0x24]
        0x00019ea4:    9208        ..      STR      r2,[sp,#0x20]
        0x00019ea6:    9107        ..      STR      r1,[sp,#0x1c]
        0x00019ea8:    9003        ..      STR      r0,[sp,#0xc]
        0x00019eaa:    f2401060    @.`.    MOVW     r0,#0x160
        0x00019eae:    f2c10000    ....    MOVT     r0,#0x1000
        0x00019eb2:    6800        .h      LDR      r0,[r0,#0]
        0x00019eb4:    b918        ..      CBNZ     r0,0x19ebe ; am_util_stdio_printf + 34
        0x00019eb6:    e7ff        ..      B        0x19eb8 ; am_util_stdio_printf + 28
        0x00019eb8:    2000        .       MOVS     r0,#0
        0x00019eba:    9004        ..      STR      r0,[sp,#0x10]
        0x00019ebc:    e016        ..      B        0x19eec ; am_util_stdio_printf + 80
        0x00019ebe:    a807        ..      ADD      r0,sp,#0x1c
        0x00019ec0:    9001        ..      STR      r0,[sp,#4]
        0x00019ec2:    9903        ..      LDR      r1,[sp,#0xc]
        0x00019ec4:    9a01        ..      LDR      r2,[sp,#4]
        0x00019ec6:    f2401064    @.d.    MOVW     r0,#0x164
        0x00019eca:    f2c10000    ....    MOVT     r0,#0x1000
        0x00019ece:    9000        ..      STR      r0,[sp,#0]
        0x00019ed0:    f000f824    ..$.    BL       am_util_stdio_vsprintf ; 0x19f1c
        0x00019ed4:    4601        .F      MOV      r1,r0
        0x00019ed6:    9800        ..      LDR      r0,[sp,#0]
        0x00019ed8:    9102        ..      STR      r1,[sp,#8]
        0x00019eda:    f2401160    @.`.    MOVW     r1,#0x160
        0x00019ede:    f2c10100    ....    MOVT     r1,#0x1000
        0x00019ee2:    6809        .h      LDR      r1,[r1,#0]
        0x00019ee4:    4788        .G      BLX      r1
        0x00019ee6:    9802        ..      LDR      r0,[sp,#8]
        0x00019ee8:    9004        ..      STR      r0,[sp,#0x10]
        0x00019eea:    e7ff        ..      B        0x19eec ; am_util_stdio_printf + 80
        0x00019eec:    9804        ..      LDR      r0,[sp,#0x10]
        0x00019eee:    b005        ..      ADD      sp,sp,#0x14
        0x00019ef0:    e8bd4080    ...@    POP      {r7,lr}
        0x00019ef4:    b003        ..      ADD      sp,sp,#0xc
        0x00019ef6:    4770        pG      BX       lr
    am_util_stdio_printf_init
        0x00019ef8:    b081        ..      SUB      sp,sp,#4
        0x00019efa:    9000        ..      STR      r0,[sp,#0]
        0x00019efc:    9800        ..      LDR      r0,[sp,#0]
        0x00019efe:    f2401160    @.`.    MOVW     r1,#0x160
        0x00019f02:    f2c10100    ....    MOVT     r1,#0x1000
        0x00019f06:    6008        .`      STR      r0,[r1,#0]
        0x00019f08:    b001        ..      ADD      sp,sp,#4
        0x00019f0a:    4770        pG      BX       lr
    am_util_stdio_terminal_clear
        0x00019f0c:    b580        ..      PUSH     {r7,lr}
        0x00019f0e:    f64b30a7    K..0    MOV      r0,#0xbba7
        0x00019f12:    f2c00001    ....    MOVT     r0,#1
        0x00019f16:    f7ffffc1    ....    BL       am_util_stdio_printf ; 0x19e9c
        0x00019f1a:    bd80        ..      POP      {r7,pc}
    am_util_stdio_vsprintf
        0x00019f1c:    b580        ..      PUSH     {r7,lr}
        0x00019f1e:    b09e        ..      SUB      sp,sp,#0x78
        0x00019f20:    921d        ..      STR      r2,[sp,#0x74]
        0x00019f22:    901c        ..      STR      r0,[sp,#0x70]
        0x00019f24:    911b        ..      STR      r1,[sp,#0x6c]
        0x00019f26:    2000        .       MOVS     r0,#0
        0x00019f28:    9014        ..      STR      r0,[sp,#0x50]
        0x00019f2a:    900e        ..      STR      r0,[sp,#0x38]
        0x00019f2c:    e7ff        ..      B        0x19f2e ; am_util_stdio_vsprintf + 18
        0x00019f2e:    981b        ..      LDR      r0,[sp,#0x6c]
        0x00019f30:    7800        .x      LDRB     r0,[r0,#0]
        0x00019f32:    2800        .(      CMP      r0,#0
        0x00019f34:    f0008312    ....    BEQ.W    0x1a55c ; am_util_stdio_vsprintf + 1600
        0x00019f38:    e7ff        ..      B        0x19f3a ; am_util_stdio_vsprintf + 30
        0x00019f3a:    2006        .       MOVS     r0,#6
        0x00019f3c:    9011        ..      STR      r0,[sp,#0x44]
        0x00019f3e:    981b        ..      LDR      r0,[sp,#0x6c]
        0x00019f40:    7800        .x      LDRB     r0,[r0,#0]
        0x00019f42:    2825        %(      CMP      r0,#0x25
        0x00019f44:    d027        '.      BEQ      0x19f96 ; am_util_stdio_vsprintf + 122
        0x00019f46:    e7ff        ..      B        0x19f48 ; am_util_stdio_vsprintf + 44
        0x00019f48:    981c        ..      LDR      r0,[sp,#0x70]
        0x00019f4a:    b1e8        ..      CBZ      r0,0x19f88 ; am_util_stdio_vsprintf + 108
        0x00019f4c:    e7ff        ..      B        0x19f4e ; am_util_stdio_vsprintf + 50
        0x00019f4e:    981b        ..      LDR      r0,[sp,#0x6c]
        0x00019f50:    7800        .x      LDRB     r0,[r0,#0]
        0x00019f52:    280a        .(      CMP      r0,#0xa
        0x00019f54:    d111        ..      BNE      0x19f7a ; am_util_stdio_vsprintf + 94
        0x00019f56:    e7ff        ..      B        0x19f58 ; am_util_stdio_vsprintf + 60
        0x00019f58:    f240105a    @.Z.    MOVW     r0,#0x15a
        0x00019f5c:    f2c10000    ....    MOVT     r0,#0x1000
        0x00019f60:    7800        .x      LDRB     r0,[r0,#0]
        0x00019f62:    07c0        ..      LSLS     r0,r0,#31
        0x00019f64:    b148        H.      CBZ      r0,0x19f7a ; am_util_stdio_vsprintf + 94
        0x00019f66:    e7ff        ..      B        0x19f68 ; am_util_stdio_vsprintf + 76
        0x00019f68:    991c        ..      LDR      r1,[sp,#0x70]
        0x00019f6a:    1c48        H.      ADDS     r0,r1,#1
        0x00019f6c:    901c        ..      STR      r0,[sp,#0x70]
        0x00019f6e:    200d        .       MOVS     r0,#0xd
        0x00019f70:    7008        .p      STRB     r0,[r1,#0]
        0x00019f72:    9814        ..      LDR      r0,[sp,#0x50]
        0x00019f74:    3001        .0      ADDS     r0,#1
        0x00019f76:    9014        ..      STR      r0,[sp,#0x50]
        0x00019f78:    e7ff        ..      B        0x19f7a ; am_util_stdio_vsprintf + 94
        0x00019f7a:    981b        ..      LDR      r0,[sp,#0x6c]
        0x00019f7c:    7800        .x      LDRB     r0,[r0,#0]
        0x00019f7e:    991c        ..      LDR      r1,[sp,#0x70]
        0x00019f80:    1c4a        J.      ADDS     r2,r1,#1
        0x00019f82:    921c        ..      STR      r2,[sp,#0x70]
        0x00019f84:    7008        .p      STRB     r0,[r1,#0]
        0x00019f86:    e7ff        ..      B        0x19f88 ; am_util_stdio_vsprintf + 108
        0x00019f88:    981b        ..      LDR      r0,[sp,#0x6c]
        0x00019f8a:    3001        .0      ADDS     r0,#1
        0x00019f8c:    901b        ..      STR      r0,[sp,#0x6c]
        0x00019f8e:    9814        ..      LDR      r0,[sp,#0x50]
        0x00019f90:    3001        .0      ADDS     r0,#1
        0x00019f92:    9014        ..      STR      r0,[sp,#0x50]
        0x00019f94:    e7cb        ..      B        0x19f2e ; am_util_stdio_vsprintf + 18
        0x00019f96:    981b        ..      LDR      r0,[sp,#0x6c]
        0x00019f98:    3001        .0      ADDS     r0,#1
        0x00019f9a:    901b        ..      STR      r0,[sp,#0x6c]
        0x00019f9c:    2000        .       MOVS     r0,#0
        0x00019f9e:    f88d0040    ..@.    STRB     r0,[sp,#0x40]
        0x00019fa2:    f88d0041    ..A.    STRB     r0,[sp,#0x41]
        0x00019fa6:    2020                MOVS     r0,#0x20
        0x00019fa8:    f88d0042    ..B.    STRB     r0,[sp,#0x42]
        0x00019fac:    981b        ..      LDR      r0,[sp,#0x6c]
        0x00019fae:    7800        .x      LDRB     r0,[r0,#0]
        0x00019fb0:    2830        0(      CMP      r0,#0x30
        0x00019fb2:    d107        ..      BNE      0x19fc4 ; am_util_stdio_vsprintf + 168
        0x00019fb4:    e7ff        ..      B        0x19fb6 ; am_util_stdio_vsprintf + 154
        0x00019fb6:    2030        0       MOVS     r0,#0x30
        0x00019fb8:    f88d0042    ..B.    STRB     r0,[sp,#0x42]
        0x00019fbc:    981b        ..      LDR      r0,[sp,#0x6c]
        0x00019fbe:    3001        .0      ADDS     r0,#1
        0x00019fc0:    901b        ..      STR      r0,[sp,#0x6c]
        0x00019fc2:    e7ff        ..      B        0x19fc4 ; am_util_stdio_vsprintf + 168
        0x00019fc4:    981b        ..      LDR      r0,[sp,#0x6c]
        0x00019fc6:    a915        ..      ADD      r1,sp,#0x54
        0x00019fc8:    f000fb4c    ..L.    BL       decstr_to_int ; 0x1a664
        0x00019fcc:    9013        ..      STR      r0,[sp,#0x4c]
        0x00019fce:    9915        ..      LDR      r1,[sp,#0x54]
        0x00019fd0:    981b        ..      LDR      r0,[sp,#0x6c]
        0x00019fd2:    4408        .D      ADD      r0,r0,r1
        0x00019fd4:    901b        ..      STR      r0,[sp,#0x6c]
        0x00019fd6:    981b        ..      LDR      r0,[sp,#0x6c]
        0x00019fd8:    7800        .x      LDRB     r0,[r0,#0]
        0x00019fda:    2873        s(      CMP      r0,#0x73
        0x00019fdc:    d009        ..      BEQ      0x19ff2 ; am_util_stdio_vsprintf + 214
        0x00019fde:    e7ff        ..      B        0x19fe0 ; am_util_stdio_vsprintf + 196
        0x00019fe0:    9813        ..      LDR      r0,[sp,#0x4c]
        0x00019fe2:    f1b03fff    ...?    CMP      r0,#0xffffffff
        0x00019fe6:    dc04        ..      BGT      0x19ff2 ; am_util_stdio_vsprintf + 214
        0x00019fe8:    e7ff        ..      B        0x19fea ; am_util_stdio_vsprintf + 206
        0x00019fea:    9813        ..      LDR      r0,[sp,#0x4c]
        0x00019fec:    4240        @B      RSBS     r0,r0,#0
        0x00019fee:    9013        ..      STR      r0,[sp,#0x4c]
        0x00019ff0:    e7ff        ..      B        0x19ff2 ; am_util_stdio_vsprintf + 214
        0x00019ff2:    981b        ..      LDR      r0,[sp,#0x6c]
        0x00019ff4:    7800        .x      LDRB     r0,[r0,#0]
        0x00019ff6:    282e        .(      CMP      r0,#0x2e
        0x00019ff8:    d10d        ..      BNE      0x1a016 ; am_util_stdio_vsprintf + 250
        0x00019ffa:    e7ff        ..      B        0x19ffc ; am_util_stdio_vsprintf + 224
        0x00019ffc:    981b        ..      LDR      r0,[sp,#0x6c]
        0x00019ffe:    3001        .0      ADDS     r0,#1
        0x0001a000:    901b        ..      STR      r0,[sp,#0x6c]
        0x0001a002:    981b        ..      LDR      r0,[sp,#0x6c]
        0x0001a004:    a915        ..      ADD      r1,sp,#0x54
        0x0001a006:    f000fb2d    ..-.    BL       decstr_to_int ; 0x1a664
        0x0001a00a:    9011        ..      STR      r0,[sp,#0x44]
        0x0001a00c:    9915        ..      LDR      r1,[sp,#0x54]
        0x0001a00e:    981b        ..      LDR      r0,[sp,#0x6c]
        0x0001a010:    4408        .D      ADD      r0,r0,r1
        0x0001a012:    901b        ..      STR      r0,[sp,#0x6c]
        0x0001a014:    e7ff        ..      B        0x1a016 ; am_util_stdio_vsprintf + 250
        0x0001a016:    981b        ..      LDR      r0,[sp,#0x6c]
        0x0001a018:    7800        .x      LDRB     r0,[r0,#0]
        0x0001a01a:    286c        l(      CMP      r0,#0x6c
        0x0001a01c:    d110        ..      BNE      0x1a040 ; am_util_stdio_vsprintf + 292
        0x0001a01e:    e7ff        ..      B        0x1a020 ; am_util_stdio_vsprintf + 260
        0x0001a020:    981b        ..      LDR      r0,[sp,#0x6c]
        0x0001a022:    3001        .0      ADDS     r0,#1
        0x0001a024:    901b        ..      STR      r0,[sp,#0x6c]
        0x0001a026:    981b        ..      LDR      r0,[sp,#0x6c]
        0x0001a028:    7800        .x      LDRB     r0,[r0,#0]
        0x0001a02a:    286c        l(      CMP      r0,#0x6c
        0x0001a02c:    d107        ..      BNE      0x1a03e ; am_util_stdio_vsprintf + 290
        0x0001a02e:    e7ff        ..      B        0x1a030 ; am_util_stdio_vsprintf + 276
        0x0001a030:    981b        ..      LDR      r0,[sp,#0x6c]
        0x0001a032:    3001        .0      ADDS     r0,#1
        0x0001a034:    901b        ..      STR      r0,[sp,#0x6c]
        0x0001a036:    2001        .       MOVS     r0,#1
        0x0001a038:    f88d0040    ..@.    STRB     r0,[sp,#0x40]
        0x0001a03c:    e7ff        ..      B        0x1a03e ; am_util_stdio_vsprintf + 290
        0x0001a03e:    e7ff        ..      B        0x1a040 ; am_util_stdio_vsprintf + 292
        0x0001a040:    981b        ..      LDR      r0,[sp,#0x6c]
        0x0001a042:    7800        .x      LDRB     r0,[r0,#0]
        0x0001a044:    3846        F8      SUBS     r0,r0,#0x46
        0x0001a046:    4601        .F      MOV      r1,r0
        0x0001a048:    910b        ..      STR      r1,[sp,#0x2c]
        0x0001a04a:    2832        2(      CMP      r0,#0x32
        0x0001a04c:    f2008273    ..s.    BHI.W    0x1a536 ; am_util_stdio_vsprintf + 1562
        0x0001a050:    990b        ..      LDR      r1,[sp,#0x2c]
        0x0001a052:    e8dff011    ....    TBH      [pc,r1,LSL #1]
    $d.4
        0x0001a056:    0224        $.      DCW    548
        0x0001a058:    02700270    p.p.    DCD    40895088
        0x0001a05c:    02700270    p.p.    DCD    40895088
        0x0001a060:    02700270    p.p.    DCD    40895088
        0x0001a064:    02700270    p.p.    DCD    40895088
        0x0001a068:    02700270    p.p.    DCD    40895088
        0x0001a06c:    02700270    p.p.    DCD    40895088
        0x0001a070:    02700270    p.p.    DCD    40895088
        0x0001a074:    02700270    p.p.    DCD    40895088
        0x0001a078:    00bf0270    p...    DCD    12518000
        0x0001a07c:    02700270    p.p.    DCD    40895088
        0x0001a080:    02700270    p.p.    DCD    40895088
        0x0001a084:    02700270    p.p.    DCD    40895088
        0x0001a088:    02700270    p.p.    DCD    40895088
        0x0001a08c:    02700270    p.p.    DCD    40895088
        0x0001a090:    016f0033    3.o.    DCD    24051763
        0x0001a094:    02240270    p.$.    DCD    35914352
        0x0001a098:    02700270    p.p.    DCD    40895088
        0x0001a09c:    0270016f    o.p.    DCD    40894831
        0x0001a0a0:    02700270    p.p.    DCD    40895088
        0x0001a0a4:    02700270    p.p.    DCD    40895088
        0x0001a0a8:    02700270    p.p.    DCD    40895088
        0x0001a0ac:    02700270    p.p.    DCD    40895088
        0x0001a0b0:    02700047    G.p.    DCD    40894535
        0x0001a0b4:    02700119    ..p.    DCD    40894745
        0x0001a0b8:    00bb0270    p...    DCD    12255856
    $t.5
        0x0001a0bc:    981d        ..      LDR      r0,[sp,#0x74]
        0x0001a0be:    1d01        ..      ADDS     r1,r0,#4
        0x0001a0c0:    911d        ..      STR      r1,[sp,#0x74]
        0x0001a0c2:    6800        .h      LDR      r0,[r0,#0]
        0x0001a0c4:    f88d0043    ..C.    STRB     r0,[sp,#0x43]
        0x0001a0c8:    981c        ..      LDR      r0,[sp,#0x70]
        0x0001a0ca:    b138        8.      CBZ      r0,0x1a0dc ; am_util_stdio_vsprintf + 448
        0x0001a0cc:    e7ff        ..      B        0x1a0ce ; am_util_stdio_vsprintf + 434
        0x0001a0ce:    f89d0043    ..C.    LDRB     r0,[sp,#0x43]
        0x0001a0d2:    991c        ..      LDR      r1,[sp,#0x70]
        0x0001a0d4:    1c4a        J.      ADDS     r2,r1,#1
        0x0001a0d6:    921c        ..      STR      r2,[sp,#0x70]
        0x0001a0d8:    7008        .p      STRB     r0,[r1,#0]
        0x0001a0da:    e7ff        ..      B        0x1a0dc ; am_util_stdio_vsprintf + 448
        0x0001a0dc:    9814        ..      LDR      r0,[sp,#0x50]
        0x0001a0de:    3001        .0      ADDS     r0,#1
        0x0001a0e0:    9014        ..      STR      r0,[sp,#0x50]
        0x0001a0e2:    e236        6.      B        0x1a552 ; am_util_stdio_vsprintf + 1590
        0x0001a0e4:    981d        ..      LDR      r0,[sp,#0x74]
        0x0001a0e6:    1d01        ..      ADDS     r1,r0,#4
        0x0001a0e8:    911d        ..      STR      r1,[sp,#0x74]
        0x0001a0ea:    6800        .h      LDR      r0,[r0,#0]
        0x0001a0ec:    901a        ..      STR      r0,[sp,#0x68]
        0x0001a0ee:    981a        ..      LDR      r0,[sp,#0x68]
        0x0001a0f0:    f001fa68    ..h.    BL       simple_strlen ; 0x1b5c4
        0x0001a0f4:    900e        ..      STR      r0,[sp,#0x38]
        0x0001a0f6:    9813        ..      LDR      r0,[sp,#0x4c]
        0x0001a0f8:    2801        .(      CMP      r0,#1
        0x0001a0fa:    db25        %.      BLT      0x1a148 ; am_util_stdio_vsprintf + 556
        0x0001a0fc:    e7ff        ..      B        0x1a0fe ; am_util_stdio_vsprintf + 482
        0x0001a0fe:    980e        ..      LDR      r0,[sp,#0x38]
        0x0001a100:    9913        ..      LDR      r1,[sp,#0x4c]
        0x0001a102:    4288        .B      CMP      r0,r1
        0x0001a104:    d21f        ..      BCS      0x1a146 ; am_util_stdio_vsprintf + 554
        0x0001a106:    e7ff        ..      B        0x1a108 ; am_util_stdio_vsprintf + 492
        0x0001a108:    990e        ..      LDR      r1,[sp,#0x38]
        0x0001a10a:    9813        ..      LDR      r0,[sp,#0x4c]
        0x0001a10c:    1a40        @.      SUBS     r0,r0,r1
        0x0001a10e:    9013        ..      STR      r0,[sp,#0x4c]
        0x0001a110:    981c        ..      LDR      r0,[sp,#0x70]
        0x0001a112:    f89d1042    ..B.    LDRB     r1,[sp,#0x42]
        0x0001a116:    9a13        ..      LDR      r2,[sp,#0x4c]
        0x0001a118:    f001fa2c    ..,.    BL       padbuffer ; 0x1b574
        0x0001a11c:    9013        ..      STR      r0,[sp,#0x4c]
        0x0001a11e:    981c        ..      LDR      r0,[sp,#0x70]
        0x0001a120:    b118        ..      CBZ      r0,0x1a12a ; am_util_stdio_vsprintf + 526
        0x0001a122:    e7ff        ..      B        0x1a124 ; am_util_stdio_vsprintf + 520
        0x0001a124:    9813        ..      LDR      r0,[sp,#0x4c]
        0x0001a126:    900a        ..      STR      r0,[sp,#0x28]
        0x0001a128:    e002        ..      B        0x1a130 ; am_util_stdio_vsprintf + 532
        0x0001a12a:    2000        .       MOVS     r0,#0
        0x0001a12c:    900a        ..      STR      r0,[sp,#0x28]
        0x0001a12e:    e7ff        ..      B        0x1a130 ; am_util_stdio_vsprintf + 532
        0x0001a130:    990a        ..      LDR      r1,[sp,#0x28]
        0x0001a132:    981c        ..      LDR      r0,[sp,#0x70]
        0x0001a134:    4408        .D      ADD      r0,r0,r1
        0x0001a136:    901c        ..      STR      r0,[sp,#0x70]
        0x0001a138:    9913        ..      LDR      r1,[sp,#0x4c]
        0x0001a13a:    9814        ..      LDR      r0,[sp,#0x50]
        0x0001a13c:    4408        .D      ADD      r0,r0,r1
        0x0001a13e:    9014        ..      STR      r0,[sp,#0x50]
        0x0001a140:    2000        .       MOVS     r0,#0
        0x0001a142:    9013        ..      STR      r0,[sp,#0x4c]
        0x0001a144:    e7ff        ..      B        0x1a146 ; am_util_stdio_vsprintf + 554
        0x0001a146:    e7ff        ..      B        0x1a148 ; am_util_stdio_vsprintf + 556
        0x0001a148:    e7ff        ..      B        0x1a14a ; am_util_stdio_vsprintf + 558
        0x0001a14a:    981a        ..      LDR      r0,[sp,#0x68]
        0x0001a14c:    7800        .x      LDRB     r0,[r0,#0]
        0x0001a14e:    b188        ..      CBZ      r0,0x1a174 ; am_util_stdio_vsprintf + 600
        0x0001a150:    e7ff        ..      B        0x1a152 ; am_util_stdio_vsprintf + 566
        0x0001a152:    981c        ..      LDR      r0,[sp,#0x70]
        0x0001a154:    b138        8.      CBZ      r0,0x1a166 ; am_util_stdio_vsprintf + 586
        0x0001a156:    e7ff        ..      B        0x1a158 ; am_util_stdio_vsprintf + 572
        0x0001a158:    981a        ..      LDR      r0,[sp,#0x68]
        0x0001a15a:    7800        .x      LDRB     r0,[r0,#0]
        0x0001a15c:    991c        ..      LDR      r1,[sp,#0x70]
        0x0001a15e:    1c4a        J.      ADDS     r2,r1,#1
        0x0001a160:    921c        ..      STR      r2,[sp,#0x70]
        0x0001a162:    7008        .p      STRB     r0,[r1,#0]
        0x0001a164:    e7ff        ..      B        0x1a166 ; am_util_stdio_vsprintf + 586
        0x0001a166:    981a        ..      LDR      r0,[sp,#0x68]
        0x0001a168:    3001        .0      ADDS     r0,#1
        0x0001a16a:    901a        ..      STR      r0,[sp,#0x68]
        0x0001a16c:    9814        ..      LDR      r0,[sp,#0x50]
        0x0001a16e:    3001        .0      ADDS     r0,#1
        0x0001a170:    9014        ..      STR      r0,[sp,#0x50]
        0x0001a172:    e7ea        ..      B        0x1a14a ; am_util_stdio_vsprintf + 558
        0x0001a174:    9813        ..      LDR      r0,[sp,#0x4c]
        0x0001a176:    b340        @.      CBZ      r0,0x1a1ca ; am_util_stdio_vsprintf + 686
        0x0001a178:    e7ff        ..      B        0x1a17a ; am_util_stdio_vsprintf + 606
        0x0001a17a:    9813        ..      LDR      r0,[sp,#0x4c]
        0x0001a17c:    4240        @B      RSBS     r0,r0,#0
        0x0001a17e:    9013        ..      STR      r0,[sp,#0x4c]
        0x0001a180:    980e        ..      LDR      r0,[sp,#0x38]
        0x0001a182:    9913        ..      LDR      r1,[sp,#0x4c]
        0x0001a184:    4288        .B      CMP      r0,r1
        0x0001a186:    d21f        ..      BCS      0x1a1c8 ; am_util_stdio_vsprintf + 684
        0x0001a188:    e7ff        ..      B        0x1a18a ; am_util_stdio_vsprintf + 622
        0x0001a18a:    990e        ..      LDR      r1,[sp,#0x38]
        0x0001a18c:    9813        ..      LDR      r0,[sp,#0x4c]
        0x0001a18e:    1a40        @.      SUBS     r0,r0,r1
        0x0001a190:    9013        ..      STR      r0,[sp,#0x4c]
        0x0001a192:    981c        ..      LDR      r0,[sp,#0x70]
        0x0001a194:    f89d1042    ..B.    LDRB     r1,[sp,#0x42]
        0x0001a198:    9a13        ..      LDR      r2,[sp,#0x4c]
        0x0001a19a:    f001f9eb    ....    BL       padbuffer ; 0x1b574
        0x0001a19e:    9013        ..      STR      r0,[sp,#0x4c]
        0x0001a1a0:    981c        ..      LDR      r0,[sp,#0x70]
        0x0001a1a2:    b118        ..      CBZ      r0,0x1a1ac ; am_util_stdio_vsprintf + 656
        0x0001a1a4:    e7ff        ..      B        0x1a1a6 ; am_util_stdio_vsprintf + 650
        0x0001a1a6:    9813        ..      LDR      r0,[sp,#0x4c]
        0x0001a1a8:    9009        ..      STR      r0,[sp,#0x24]
        0x0001a1aa:    e002        ..      B        0x1a1b2 ; am_util_stdio_vsprintf + 662
        0x0001a1ac:    2000        .       MOVS     r0,#0
        0x0001a1ae:    9009        ..      STR      r0,[sp,#0x24]
        0x0001a1b0:    e7ff        ..      B        0x1a1b2 ; am_util_stdio_vsprintf + 662
        0x0001a1b2:    9909        ..      LDR      r1,[sp,#0x24]
        0x0001a1b4:    981c        ..      LDR      r0,[sp,#0x70]
        0x0001a1b6:    4408        .D      ADD      r0,r0,r1
        0x0001a1b8:    901c        ..      STR      r0,[sp,#0x70]
        0x0001a1ba:    9913        ..      LDR      r1,[sp,#0x4c]
        0x0001a1bc:    9814        ..      LDR      r0,[sp,#0x50]
        0x0001a1be:    4408        .D      ADD      r0,r0,r1
        0x0001a1c0:    9014        ..      STR      r0,[sp,#0x50]
        0x0001a1c2:    2000        .       MOVS     r0,#0
        0x0001a1c4:    9013        ..      STR      r0,[sp,#0x4c]
        0x0001a1c6:    e7ff        ..      B        0x1a1c8 ; am_util_stdio_vsprintf + 684
        0x0001a1c8:    e7ff        ..      B        0x1a1ca ; am_util_stdio_vsprintf + 686
        0x0001a1ca:    e1c2        ..      B        0x1a552 ; am_util_stdio_vsprintf + 1590
        0x0001a1cc:    2001        .       MOVS     r0,#1
        0x0001a1ce:    f88d0041    ..A.    STRB     r0,[sp,#0x41]
        0x0001a1d2:    e7ff        ..      B        0x1a1d4 ; am_util_stdio_vsprintf + 696
        0x0001a1d4:    f89d0040    ..@.    LDRB     r0,[sp,#0x40]
        0x0001a1d8:    07c0        ..      LSLS     r0,r0,#31
        0x0001a1da:    b160        `.      CBZ      r0,0x1a1f6 ; am_util_stdio_vsprintf + 730
        0x0001a1dc:    e7ff        ..      B        0x1a1de ; am_util_stdio_vsprintf + 706
        0x0001a1de:    981d        ..      LDR      r0,[sp,#0x74]
        0x0001a1e0:    3007        .0      ADDS     r0,#7
        0x0001a1e2:    f0200007     ...    BIC      r0,r0,#7
        0x0001a1e6:    f1000108    ....    ADD      r1,r0,#8
        0x0001a1ea:    911d        ..      STR      r1,[sp,#0x74]
        0x0001a1ec:    6801        .h      LDR      r1,[r0,#0]
        0x0001a1ee:    6840        @h      LDR      r0,[r0,#4]
        0x0001a1f0:    9107        ..      STR      r1,[sp,#0x1c]
        0x0001a1f2:    9008        ..      STR      r0,[sp,#0x20]
        0x0001a1f4:    e007        ..      B        0x1a206 ; am_util_stdio_vsprintf + 746
        0x0001a1f6:    981d        ..      LDR      r0,[sp,#0x74]
        0x0001a1f8:    1d01        ..      ADDS     r1,r0,#4
        0x0001a1fa:    911d        ..      STR      r1,[sp,#0x74]
        0x0001a1fc:    6801        .h      LDR      r1,[r0,#0]
        0x0001a1fe:    2000        .       MOVS     r0,#0
        0x0001a200:    9107        ..      STR      r1,[sp,#0x1c]
        0x0001a202:    9008        ..      STR      r0,[sp,#0x20]
        0x0001a204:    e7ff        ..      B        0x1a206 ; am_util_stdio_vsprintf + 746
        0x0001a206:    9907        ..      LDR      r1,[sp,#0x1c]
        0x0001a208:    9808        ..      LDR      r0,[sp,#0x20]
        0x0001a20a:    9118        ..      STR      r1,[sp,#0x60]
        0x0001a20c:    9019        ..      STR      r0,[sp,#0x64]
        0x0001a20e:    9813        ..      LDR      r0,[sp,#0x4c]
        0x0001a210:    b318        ..      CBZ      r0,0x1a25a ; am_util_stdio_vsprintf + 830
        0x0001a212:    e7ff        ..      B        0x1a214 ; am_util_stdio_vsprintf + 760
        0x0001a214:    9818        ..      LDR      r0,[sp,#0x60]
        0x0001a216:    9919        ..      LDR      r1,[sp,#0x64]
        0x0001a218:    f001f956    ..V.    BL       ndigits_in_hex ; 0x1b4c8
        0x0001a21c:    4601        .F      MOV      r1,r0
        0x0001a21e:    9813        ..      LDR      r0,[sp,#0x4c]
        0x0001a220:    1a40        @.      SUBS     r0,r0,r1
        0x0001a222:    9013        ..      STR      r0,[sp,#0x4c]
        0x0001a224:    981c        ..      LDR      r0,[sp,#0x70]
        0x0001a226:    f89d1042    ..B.    LDRB     r1,[sp,#0x42]
        0x0001a22a:    9a13        ..      LDR      r2,[sp,#0x4c]
        0x0001a22c:    f001f9a2    ....    BL       padbuffer ; 0x1b574
        0x0001a230:    9013        ..      STR      r0,[sp,#0x4c]
        0x0001a232:    981c        ..      LDR      r0,[sp,#0x70]
        0x0001a234:    b118        ..      CBZ      r0,0x1a23e ; am_util_stdio_vsprintf + 802
        0x0001a236:    e7ff        ..      B        0x1a238 ; am_util_stdio_vsprintf + 796
        0x0001a238:    9813        ..      LDR      r0,[sp,#0x4c]
        0x0001a23a:    9006        ..      STR      r0,[sp,#0x18]
        0x0001a23c:    e002        ..      B        0x1a244 ; am_util_stdio_vsprintf + 808
        0x0001a23e:    2000        .       MOVS     r0,#0
        0x0001a240:    9006        ..      STR      r0,[sp,#0x18]
        0x0001a242:    e7ff        ..      B        0x1a244 ; am_util_stdio_vsprintf + 808
        0x0001a244:    9906        ..      LDR      r1,[sp,#0x18]
        0x0001a246:    981c        ..      LDR      r0,[sp,#0x70]
        0x0001a248:    4408        .D      ADD      r0,r0,r1
        0x0001a24a:    901c        ..      STR      r0,[sp,#0x70]
        0x0001a24c:    9913        ..      LDR      r1,[sp,#0x4c]
        0x0001a24e:    9814        ..      LDR      r0,[sp,#0x50]
        0x0001a250:    4408        .D      ADD      r0,r0,r1
        0x0001a252:    9014        ..      STR      r0,[sp,#0x50]
        0x0001a254:    2000        .       MOVS     r0,#0
        0x0001a256:    9013        ..      STR      r0,[sp,#0x4c]
        0x0001a258:    e7ff        ..      B        0x1a25a ; am_util_stdio_vsprintf + 830
        0x0001a25a:    9818        ..      LDR      r0,[sp,#0x60]
        0x0001a25c:    9919        ..      LDR      r1,[sp,#0x64]
        0x0001a25e:    9a1c        ..      LDR      r2,[sp,#0x70]
        0x0001a260:    f89d3041    ..A0    LDRB     r3,[sp,#0x41]
        0x0001a264:    f0030301    ....    AND      r3,r3,#1
        0x0001a268:    f001f9f8    ....    BL       uint64_to_hexstr ; 0x1b65c
        0x0001a26c:    9012        ..      STR      r0,[sp,#0x48]
        0x0001a26e:    981c        ..      LDR      r0,[sp,#0x70]
        0x0001a270:    b128        (.      CBZ      r0,0x1a27e ; am_util_stdio_vsprintf + 866
        0x0001a272:    e7ff        ..      B        0x1a274 ; am_util_stdio_vsprintf + 856
        0x0001a274:    9912        ..      LDR      r1,[sp,#0x48]
        0x0001a276:    981c        ..      LDR      r0,[sp,#0x70]
        0x0001a278:    4408        .D      ADD      r0,r0,r1
        0x0001a27a:    901c        ..      STR      r0,[sp,#0x70]
        0x0001a27c:    e7ff        ..      B        0x1a27e ; am_util_stdio_vsprintf + 866
        0x0001a27e:    9912        ..      LDR      r1,[sp,#0x48]
        0x0001a280:    9814        ..      LDR      r0,[sp,#0x50]
        0x0001a282:    4408        .D      ADD      r0,r0,r1
        0x0001a284:    9014        ..      STR      r0,[sp,#0x50]
        0x0001a286:    e164        d.      B        0x1a552 ; am_util_stdio_vsprintf + 1590
        0x0001a288:    f89d0040    ..@.    LDRB     r0,[sp,#0x40]
        0x0001a28c:    07c0        ..      LSLS     r0,r0,#31
        0x0001a28e:    b160        `.      CBZ      r0,0x1a2aa ; am_util_stdio_vsprintf + 910
        0x0001a290:    e7ff        ..      B        0x1a292 ; am_util_stdio_vsprintf + 886
        0x0001a292:    981d        ..      LDR      r0,[sp,#0x74]
        0x0001a294:    3007        .0      ADDS     r0,#7
        0x0001a296:    f0200007     ...    BIC      r0,r0,#7
        0x0001a29a:    f1000108    ....    ADD      r1,r0,#8
        0x0001a29e:    911d        ..      STR      r1,[sp,#0x74]
        0x0001a2a0:    6801        .h      LDR      r1,[r0,#0]
        0x0001a2a2:    6840        @h      LDR      r0,[r0,#4]
        0x0001a2a4:    9104        ..      STR      r1,[sp,#0x10]
        0x0001a2a6:    9005        ..      STR      r0,[sp,#0x14]
        0x0001a2a8:    e007        ..      B        0x1a2ba ; am_util_stdio_vsprintf + 926
        0x0001a2aa:    981d        ..      LDR      r0,[sp,#0x74]
        0x0001a2ac:    1d01        ..      ADDS     r1,r0,#4
        0x0001a2ae:    911d        ..      STR      r1,[sp,#0x74]
        0x0001a2b0:    6801        .h      LDR      r1,[r0,#0]
        0x0001a2b2:    2000        .       MOVS     r0,#0
        0x0001a2b4:    9104        ..      STR      r1,[sp,#0x10]
        0x0001a2b6:    9005        ..      STR      r0,[sp,#0x14]
        0x0001a2b8:    e7ff        ..      B        0x1a2ba ; am_util_stdio_vsprintf + 926
        0x0001a2ba:    9904        ..      LDR      r1,[sp,#0x10]
        0x0001a2bc:    9805        ..      LDR      r0,[sp,#0x14]
        0x0001a2be:    9118        ..      STR      r1,[sp,#0x60]
        0x0001a2c0:    9019        ..      STR      r0,[sp,#0x64]
        0x0001a2c2:    9813        ..      LDR      r0,[sp,#0x4c]
        0x0001a2c4:    b318        ..      CBZ      r0,0x1a30e ; am_util_stdio_vsprintf + 1010
        0x0001a2c6:    e7ff        ..      B        0x1a2c8 ; am_util_stdio_vsprintf + 940
        0x0001a2c8:    9818        ..      LDR      r0,[sp,#0x60]
        0x0001a2ca:    9919        ..      LDR      r1,[sp,#0x64]
        0x0001a2cc:    f001f934    ..4.    BL       ndigits_in_u64 ; 0x1b538
        0x0001a2d0:    4601        .F      MOV      r1,r0
        0x0001a2d2:    9813        ..      LDR      r0,[sp,#0x4c]
        0x0001a2d4:    1a40        @.      SUBS     r0,r0,r1
        0x0001a2d6:    9013        ..      STR      r0,[sp,#0x4c]
        0x0001a2d8:    981c        ..      LDR      r0,[sp,#0x70]
        0x0001a2da:    f89d1042    ..B.    LDRB     r1,[sp,#0x42]
        0x0001a2de:    9a13        ..      LDR      r2,[sp,#0x4c]
        0x0001a2e0:    f001f948    ..H.    BL       padbuffer ; 0x1b574
        0x0001a2e4:    9013        ..      STR      r0,[sp,#0x4c]
        0x0001a2e6:    981c        ..      LDR      r0,[sp,#0x70]
        0x0001a2e8:    b118        ..      CBZ      r0,0x1a2f2 ; am_util_stdio_vsprintf + 982
        0x0001a2ea:    e7ff        ..      B        0x1a2ec ; am_util_stdio_vsprintf + 976
        0x0001a2ec:    9813        ..      LDR      r0,[sp,#0x4c]
        0x0001a2ee:    9003        ..      STR      r0,[sp,#0xc]
        0x0001a2f0:    e002        ..      B        0x1a2f8 ; am_util_stdio_vsprintf + 988
        0x0001a2f2:    2000        .       MOVS     r0,#0
        0x0001a2f4:    9003        ..      STR      r0,[sp,#0xc]
        0x0001a2f6:    e7ff        ..      B        0x1a2f8 ; am_util_stdio_vsprintf + 988
        0x0001a2f8:    9903        ..      LDR      r1,[sp,#0xc]
        0x0001a2fa:    981c        ..      LDR      r0,[sp,#0x70]
        0x0001a2fc:    4408        .D      ADD      r0,r0,r1
        0x0001a2fe:    901c        ..      STR      r0,[sp,#0x70]
        0x0001a300:    9913        ..      LDR      r1,[sp,#0x4c]
        0x0001a302:    9814        ..      LDR      r0,[sp,#0x50]
        0x0001a304:    4408        .D      ADD      r0,r0,r1
        0x0001a306:    9014        ..      STR      r0,[sp,#0x50]
        0x0001a308:    2000        .       MOVS     r0,#0
        0x0001a30a:    9013        ..      STR      r0,[sp,#0x4c]
        0x0001a30c:    e7ff        ..      B        0x1a30e ; am_util_stdio_vsprintf + 1010
        0x0001a30e:    9818        ..      LDR      r0,[sp,#0x60]
        0x0001a310:    9919        ..      LDR      r1,[sp,#0x64]
        0x0001a312:    9a1c        ..      LDR      r2,[sp,#0x70]
        0x0001a314:    f001fa02    ....    BL       uint64_to_str ; 0x1b71c
        0x0001a318:    9012        ..      STR      r0,[sp,#0x48]
        0x0001a31a:    981c        ..      LDR      r0,[sp,#0x70]
        0x0001a31c:    b128        (.      CBZ      r0,0x1a32a ; am_util_stdio_vsprintf + 1038
        0x0001a31e:    e7ff        ..      B        0x1a320 ; am_util_stdio_vsprintf + 1028
        0x0001a320:    9912        ..      LDR      r1,[sp,#0x48]
        0x0001a322:    981c        ..      LDR      r0,[sp,#0x70]
        0x0001a324:    4408        .D      ADD      r0,r0,r1
        0x0001a326:    901c        ..      STR      r0,[sp,#0x70]
        0x0001a328:    e7ff        ..      B        0x1a32a ; am_util_stdio_vsprintf + 1038
        0x0001a32a:    9912        ..      LDR      r1,[sp,#0x48]
        0x0001a32c:    9814        ..      LDR      r0,[sp,#0x50]
        0x0001a32e:    4408        .D      ADD      r0,r0,r1
        0x0001a330:    9014        ..      STR      r0,[sp,#0x50]
        0x0001a332:    e10e        ..      B        0x1a552 ; am_util_stdio_vsprintf + 1590
        0x0001a334:    f89d0040    ..@.    LDRB     r0,[sp,#0x40]
        0x0001a338:    07c0        ..      LSLS     r0,r0,#31
        0x0001a33a:    b160        `.      CBZ      r0,0x1a356 ; am_util_stdio_vsprintf + 1082
        0x0001a33c:    e7ff        ..      B        0x1a33e ; am_util_stdio_vsprintf + 1058
        0x0001a33e:    981d        ..      LDR      r0,[sp,#0x74]
        0x0001a340:    3007        .0      ADDS     r0,#7
        0x0001a342:    f0200007     ...    BIC      r0,r0,#7
        0x0001a346:    f1000108    ....    ADD      r1,r0,#8
        0x0001a34a:    911d        ..      STR      r1,[sp,#0x74]
        0x0001a34c:    6801        .h      LDR      r1,[r0,#0]
        0x0001a34e:    6840        @h      LDR      r0,[r0,#4]
        0x0001a350:    9101        ..      STR      r1,[sp,#4]
        0x0001a352:    9002        ..      STR      r0,[sp,#8]
        0x0001a354:    e007        ..      B        0x1a366 ; am_util_stdio_vsprintf + 1098
        0x0001a356:    981d        ..      LDR      r0,[sp,#0x74]
        0x0001a358:    1d01        ..      ADDS     r1,r0,#4
        0x0001a35a:    911d        ..      STR      r1,[sp,#0x74]
        0x0001a35c:    6801        .h      LDR      r1,[r0,#0]
        0x0001a35e:    17c8        ..      ASRS     r0,r1,#31
        0x0001a360:    9101        ..      STR      r1,[sp,#4]
        0x0001a362:    9002        ..      STR      r0,[sp,#8]
        0x0001a364:    e7ff        ..      B        0x1a366 ; am_util_stdio_vsprintf + 1098
        0x0001a366:    9901        ..      LDR      r1,[sp,#4]
        0x0001a368:    9802        ..      LDR      r0,[sp,#8]
        0x0001a36a:    9116        ..      STR      r1,[sp,#0x58]
        0x0001a36c:    9017        ..      STR      r0,[sp,#0x5c]
        0x0001a36e:    9817        ..      LDR      r0,[sp,#0x5c]
        0x0001a370:    f1b03fff    ...?    CMP      r0,#0xffffffff
        0x0001a374:    dc0c        ..      BGT      0x1a390 ; am_util_stdio_vsprintf + 1140
        0x0001a376:    e7ff        ..      B        0x1a378 ; am_util_stdio_vsprintf + 1116
        0x0001a378:    9816        ..      LDR      r0,[sp,#0x58]
        0x0001a37a:    9a17        ..      LDR      r2,[sp,#0x5c]
        0x0001a37c:    4241        AB      RSBS     r1,r0,#0
        0x0001a37e:    f04f0000    O...    MOV      r0,#0
        0x0001a382:    4190        .A      SBCS     r0,r0,r2
        0x0001a384:    9118        ..      STR      r1,[sp,#0x60]
        0x0001a386:    9019        ..      STR      r0,[sp,#0x64]
        0x0001a388:    2001        .       MOVS     r0,#1
        0x0001a38a:    f88d003f    ..?.    STRB     r0,[sp,#0x3f]
        0x0001a38e:    e007        ..      B        0x1a3a0 ; am_util_stdio_vsprintf + 1156
        0x0001a390:    9816        ..      LDR      r0,[sp,#0x58]
        0x0001a392:    9917        ..      LDR      r1,[sp,#0x5c]
        0x0001a394:    9119        ..      STR      r1,[sp,#0x64]
        0x0001a396:    9018        ..      STR      r0,[sp,#0x60]
        0x0001a398:    2000        .       MOVS     r0,#0
        0x0001a39a:    f88d003f    ..?.    STRB     r0,[sp,#0x3f]
        0x0001a39e:    e7ff        ..      B        0x1a3a0 ; am_util_stdio_vsprintf + 1156
        0x0001a3a0:    9813        ..      LDR      r0,[sp,#0x4c]
        0x0001a3a2:    2800        .(      CMP      r0,#0
        0x0001a3a4:    d055        U.      BEQ      0x1a452 ; am_util_stdio_vsprintf + 1334
        0x0001a3a6:    e7ff        ..      B        0x1a3a8 ; am_util_stdio_vsprintf + 1164
        0x0001a3a8:    9818        ..      LDR      r0,[sp,#0x60]
        0x0001a3aa:    9919        ..      LDR      r1,[sp,#0x64]
        0x0001a3ac:    f001f8ac    ....    BL       ndigits_in_i64 ; 0x1b508
        0x0001a3b0:    4601        .F      MOV      r1,r0
        0x0001a3b2:    9813        ..      LDR      r0,[sp,#0x4c]
        0x0001a3b4:    1a40        @.      SUBS     r0,r0,r1
        0x0001a3b6:    9013        ..      STR      r0,[sp,#0x4c]
        0x0001a3b8:    f89d003f    ..?.    LDRB     r0,[sp,#0x3f]
        0x0001a3bc:    07c0        ..      LSLS     r0,r0,#31
        0x0001a3be:    b1b0        ..      CBZ      r0,0x1a3ee ; am_util_stdio_vsprintf + 1234
        0x0001a3c0:    e7ff        ..      B        0x1a3c2 ; am_util_stdio_vsprintf + 1190
        0x0001a3c2:    9813        ..      LDR      r0,[sp,#0x4c]
        0x0001a3c4:    3801        .8      SUBS     r0,#1
        0x0001a3c6:    9013        ..      STR      r0,[sp,#0x4c]
        0x0001a3c8:    f89d0042    ..B.    LDRB     r0,[sp,#0x42]
        0x0001a3cc:    2830        0(      CMP      r0,#0x30
        0x0001a3ce:    d10d        ..      BNE      0x1a3ec ; am_util_stdio_vsprintf + 1232
        0x0001a3d0:    e7ff        ..      B        0x1a3d2 ; am_util_stdio_vsprintf + 1206
        0x0001a3d2:    981c        ..      LDR      r0,[sp,#0x70]
        0x0001a3d4:    b130        0.      CBZ      r0,0x1a3e4 ; am_util_stdio_vsprintf + 1224
        0x0001a3d6:    e7ff        ..      B        0x1a3d8 ; am_util_stdio_vsprintf + 1212
        0x0001a3d8:    991c        ..      LDR      r1,[sp,#0x70]
        0x0001a3da:    1c48        H.      ADDS     r0,r1,#1
        0x0001a3dc:    901c        ..      STR      r0,[sp,#0x70]
        0x0001a3de:    202d        -       MOVS     r0,#0x2d
        0x0001a3e0:    7008        .p      STRB     r0,[r1,#0]
        0x0001a3e2:    e7ff        ..      B        0x1a3e4 ; am_util_stdio_vsprintf + 1224
        0x0001a3e4:    9814        ..      LDR      r0,[sp,#0x50]
        0x0001a3e6:    3001        .0      ADDS     r0,#1
        0x0001a3e8:    9014        ..      STR      r0,[sp,#0x50]
        0x0001a3ea:    e7ff        ..      B        0x1a3ec ; am_util_stdio_vsprintf + 1232
        0x0001a3ec:    e7ff        ..      B        0x1a3ee ; am_util_stdio_vsprintf + 1234
        0x0001a3ee:    981c        ..      LDR      r0,[sp,#0x70]
        0x0001a3f0:    f89d1042    ..B.    LDRB     r1,[sp,#0x42]
        0x0001a3f4:    9a13        ..      LDR      r2,[sp,#0x4c]
        0x0001a3f6:    f001f8bd    ....    BL       padbuffer ; 0x1b574
        0x0001a3fa:    9013        ..      STR      r0,[sp,#0x4c]
        0x0001a3fc:    981c        ..      LDR      r0,[sp,#0x70]
        0x0001a3fe:    b118        ..      CBZ      r0,0x1a408 ; am_util_stdio_vsprintf + 1260
        0x0001a400:    e7ff        ..      B        0x1a402 ; am_util_stdio_vsprintf + 1254
        0x0001a402:    9813        ..      LDR      r0,[sp,#0x4c]
        0x0001a404:    9000        ..      STR      r0,[sp,#0]
        0x0001a406:    e002        ..      B        0x1a40e ; am_util_stdio_vsprintf + 1266
        0x0001a408:    2000        .       MOVS     r0,#0
        0x0001a40a:    9000        ..      STR      r0,[sp,#0]
        0x0001a40c:    e7ff        ..      B        0x1a40e ; am_util_stdio_vsprintf + 1266
        0x0001a40e:    9900        ..      LDR      r1,[sp,#0]
        0x0001a410:    981c        ..      LDR      r0,[sp,#0x70]
        0x0001a412:    4408        .D      ADD      r0,r0,r1
        0x0001a414:    901c        ..      STR      r0,[sp,#0x70]
        0x0001a416:    9913        ..      LDR      r1,[sp,#0x4c]
        0x0001a418:    9814        ..      LDR      r0,[sp,#0x50]
        0x0001a41a:    4408        .D      ADD      r0,r0,r1
        0x0001a41c:    9014        ..      STR      r0,[sp,#0x50]
        0x0001a41e:    2000        .       MOVS     r0,#0
        0x0001a420:    9013        ..      STR      r0,[sp,#0x4c]
        0x0001a422:    f89d003f    ..?.    LDRB     r0,[sp,#0x3f]
        0x0001a426:    07c0        ..      LSLS     r0,r0,#31
        0x0001a428:    b190        ..      CBZ      r0,0x1a450 ; am_util_stdio_vsprintf + 1332
        0x0001a42a:    e7ff        ..      B        0x1a42c ; am_util_stdio_vsprintf + 1296
        0x0001a42c:    f89d0042    ..B.    LDRB     r0,[sp,#0x42]
        0x0001a430:    2820         (      CMP      r0,#0x20
        0x0001a432:    d10d        ..      BNE      0x1a450 ; am_util_stdio_vsprintf + 1332
        0x0001a434:    e7ff        ..      B        0x1a436 ; am_util_stdio_vsprintf + 1306
        0x0001a436:    981c        ..      LDR      r0,[sp,#0x70]
        0x0001a438:    b130        0.      CBZ      r0,0x1a448 ; am_util_stdio_vsprintf + 1324
        0x0001a43a:    e7ff        ..      B        0x1a43c ; am_util_stdio_vsprintf + 1312
        0x0001a43c:    991c        ..      LDR      r1,[sp,#0x70]
        0x0001a43e:    1c48        H.      ADDS     r0,r1,#1
        0x0001a440:    901c        ..      STR      r0,[sp,#0x70]
        0x0001a442:    202d        -       MOVS     r0,#0x2d
        0x0001a444:    7008        .p      STRB     r0,[r1,#0]
        0x0001a446:    e7ff        ..      B        0x1a448 ; am_util_stdio_vsprintf + 1324
        0x0001a448:    9814        ..      LDR      r0,[sp,#0x50]
        0x0001a44a:    3001        .0      ADDS     r0,#1
        0x0001a44c:    9014        ..      STR      r0,[sp,#0x50]
        0x0001a44e:    e7ff        ..      B        0x1a450 ; am_util_stdio_vsprintf + 1332
        0x0001a450:    e012        ..      B        0x1a478 ; am_util_stdio_vsprintf + 1372
        0x0001a452:    f89d003f    ..?.    LDRB     r0,[sp,#0x3f]
        0x0001a456:    07c0        ..      LSLS     r0,r0,#31
        0x0001a458:    b168        h.      CBZ      r0,0x1a476 ; am_util_stdio_vsprintf + 1370
        0x0001a45a:    e7ff        ..      B        0x1a45c ; am_util_stdio_vsprintf + 1344
        0x0001a45c:    981c        ..      LDR      r0,[sp,#0x70]
        0x0001a45e:    b130        0.      CBZ      r0,0x1a46e ; am_util_stdio_vsprintf + 1362
        0x0001a460:    e7ff        ..      B        0x1a462 ; am_util_stdio_vsprintf + 1350
        0x0001a462:    991c        ..      LDR      r1,[sp,#0x70]
        0x0001a464:    1c48        H.      ADDS     r0,r1,#1
        0x0001a466:    901c        ..      STR      r0,[sp,#0x70]
        0x0001a468:    202d        -       MOVS     r0,#0x2d
        0x0001a46a:    7008        .p      STRB     r0,[r1,#0]
        0x0001a46c:    e7ff        ..      B        0x1a46e ; am_util_stdio_vsprintf + 1362
        0x0001a46e:    9814        ..      LDR      r0,[sp,#0x50]
        0x0001a470:    3001        .0      ADDS     r0,#1
        0x0001a472:    9014        ..      STR      r0,[sp,#0x50]
        0x0001a474:    e7ff        ..      B        0x1a476 ; am_util_stdio_vsprintf + 1370
        0x0001a476:    e7ff        ..      B        0x1a478 ; am_util_stdio_vsprintf + 1372
        0x0001a478:    9818        ..      LDR      r0,[sp,#0x60]
        0x0001a47a:    9919        ..      LDR      r1,[sp,#0x64]
        0x0001a47c:    9a1c        ..      LDR      r2,[sp,#0x70]
        0x0001a47e:    f001f94d    ..M.    BL       uint64_to_str ; 0x1b71c
        0x0001a482:    9012        ..      STR      r0,[sp,#0x48]
        0x0001a484:    981c        ..      LDR      r0,[sp,#0x70]
        0x0001a486:    b128        (.      CBZ      r0,0x1a494 ; am_util_stdio_vsprintf + 1400
        0x0001a488:    e7ff        ..      B        0x1a48a ; am_util_stdio_vsprintf + 1390
        0x0001a48a:    9912        ..      LDR      r1,[sp,#0x48]
        0x0001a48c:    981c        ..      LDR      r0,[sp,#0x70]
        0x0001a48e:    4408        .D      ADD      r0,r0,r1
        0x0001a490:    901c        ..      STR      r0,[sp,#0x70]
        0x0001a492:    e7ff        ..      B        0x1a494 ; am_util_stdio_vsprintf + 1400
        0x0001a494:    9912        ..      LDR      r1,[sp,#0x48]
        0x0001a496:    9814        ..      LDR      r0,[sp,#0x50]
        0x0001a498:    4408        .D      ADD      r0,r0,r1
        0x0001a49a:    9014        ..      STR      r0,[sp,#0x50]
        0x0001a49c:    e059        Y.      B        0x1a552 ; am_util_stdio_vsprintf + 1590
        0x0001a49e:    981c        ..      LDR      r0,[sp,#0x70]
        0x0001a4a0:    2800        .(      CMP      r0,#0
        0x0001a4a2:    d047        G.      BEQ      0x1a534 ; am_util_stdio_vsprintf + 1560
        0x0001a4a4:    e7ff        ..      B        0x1a4a6 ; am_util_stdio_vsprintf + 1418
        0x0001a4a6:    981d        ..      LDR      r0,[sp,#0x74]
        0x0001a4a8:    3007        .0      ADDS     r0,#7
        0x0001a4aa:    f0200007     ...    BIC      r0,r0,#7
        0x0001a4ae:    f1000108    ....    ADD      r1,r0,#8
        0x0001a4b2:    911d        ..      STR      r1,[sp,#0x74]
        0x0001a4b4:    ed900b00    ....    VLDR     d0,[r0,#0]
        0x0001a4b8:    ec510b10    Q...    VMOV     r0,r1,d0
        0x0001a4bc:    f001f972    ..r.    BL       __aeabi_d2f ; 0x1b7a4
        0x0001a4c0:    900d        ..      STR      r0,[sp,#0x34]
        0x0001a4c2:    991c        ..      LDR      r1,[sp,#0x70]
        0x0001a4c4:    2014        .       MOVS     r0,#0x14
        0x0001a4c6:    6008        .`      STR      r0,[r1,#0]
        0x0001a4c8:    ed9d0a0d    ....    VLDR     s0,[sp,#0x34]
        0x0001a4cc:    981c        ..      LDR      r0,[sp,#0x70]
        0x0001a4ce:    9911        ..      LDR      r1,[sp,#0x44]
        0x0001a4d0:    f000f9a8    ....    BL       ftoa ; 0x1a824
        0x0001a4d4:    9012        ..      STR      r0,[sp,#0x48]
        0x0001a4d6:    9812        ..      LDR      r0,[sp,#0x48]
        0x0001a4d8:    f1b03fff    ...?    CMP      r0,#0xffffffff
        0x0001a4dc:    dc21        !.      BGT      0x1a522 ; am_util_stdio_vsprintf + 1542
        0x0001a4de:    e7ff        ..      B        0x1a4e0 ; am_util_stdio_vsprintf + 1476
        0x0001a4e0:    9812        ..      LDR      r0,[sp,#0x48]
        0x0001a4e2:    3001        .0      ADDS     r0,#1
        0x0001a4e4:    b930        0.      CBNZ     r0,0x1a4f4 ; am_util_stdio_vsprintf + 1496
        0x0001a4e6:    e7ff        ..      B        0x1a4e8 ; am_util_stdio_vsprintf + 1484
        0x0001a4e8:    f6426030    B.0`    MOV      r0,#0x2e30
        0x0001a4ec:    f2c00030    ..0.    MOVT     r0,#0x30
        0x0001a4f0:    900c        ..      STR      r0,[sp,#0x30]
        0x0001a4f2:    e010        ..      B        0x1a516 ; am_util_stdio_vsprintf + 1530
        0x0001a4f4:    9812        ..      LDR      r0,[sp,#0x48]
        0x0001a4f6:    3002        .0      ADDS     r0,#2
        0x0001a4f8:    b930        0.      CBNZ     r0,0x1a508 ; am_util_stdio_vsprintf + 1516
        0x0001a4fa:    e7ff        ..      B        0x1a4fc ; am_util_stdio_vsprintf + 1504
        0x0001a4fc:    f6426023    B.#`    MOV      r0,#0x2e23
        0x0001a500:    f2c00023    ..#.    MOVT     r0,#0x23
        0x0001a504:    900c        ..      STR      r0,[sp,#0x30]
        0x0001a506:    e005        ..      B        0x1a514 ; am_util_stdio_vsprintf + 1528
        0x0001a508:    f642603f    B.?`    MOV      r0,#0x2e3f
        0x0001a50c:    f2c0003f    ..?.    MOVT     r0,#0x3f
        0x0001a510:    900c        ..      STR      r0,[sp,#0x30]
        0x0001a512:    e7ff        ..      B        0x1a514 ; am_util_stdio_vsprintf + 1528
        0x0001a514:    e7ff        ..      B        0x1a516 ; am_util_stdio_vsprintf + 1530
        0x0001a516:    980c        ..      LDR      r0,[sp,#0x30]
        0x0001a518:    991c        ..      LDR      r1,[sp,#0x70]
        0x0001a51a:    6008        .`      STR      r0,[r1,#0]
        0x0001a51c:    2003        .       MOVS     r0,#3
        0x0001a51e:    9012        ..      STR      r0,[sp,#0x48]
        0x0001a520:    e7ff        ..      B        0x1a522 ; am_util_stdio_vsprintf + 1542
        0x0001a522:    9912        ..      LDR      r1,[sp,#0x48]
        0x0001a524:    9814        ..      LDR      r0,[sp,#0x50]
        0x0001a526:    4408        .D      ADD      r0,r0,r1
        0x0001a528:    9014        ..      STR      r0,[sp,#0x50]
        0x0001a52a:    9912        ..      LDR      r1,[sp,#0x48]
        0x0001a52c:    981c        ..      LDR      r0,[sp,#0x70]
        0x0001a52e:    4408        .D      ADD      r0,r0,r1
        0x0001a530:    901c        ..      STR      r0,[sp,#0x70]
        0x0001a532:    e7ff        ..      B        0x1a534 ; am_util_stdio_vsprintf + 1560
        0x0001a534:    e00d        ..      B        0x1a552 ; am_util_stdio_vsprintf + 1590
        0x0001a536:    981c        ..      LDR      r0,[sp,#0x70]
        0x0001a538:    b138        8.      CBZ      r0,0x1a54a ; am_util_stdio_vsprintf + 1582
        0x0001a53a:    e7ff        ..      B        0x1a53c ; am_util_stdio_vsprintf + 1568
        0x0001a53c:    981b        ..      LDR      r0,[sp,#0x6c]
        0x0001a53e:    7800        .x      LDRB     r0,[r0,#0]
        0x0001a540:    991c        ..      LDR      r1,[sp,#0x70]
        0x0001a542:    1c4a        J.      ADDS     r2,r1,#1
        0x0001a544:    921c        ..      STR      r2,[sp,#0x70]
        0x0001a546:    7008        .p      STRB     r0,[r1,#0]
        0x0001a548:    e7ff        ..      B        0x1a54a ; am_util_stdio_vsprintf + 1582
        0x0001a54a:    9814        ..      LDR      r0,[sp,#0x50]
        0x0001a54c:    3001        .0      ADDS     r0,#1
        0x0001a54e:    9014        ..      STR      r0,[sp,#0x50]
        0x0001a550:    e7ff        ..      B        0x1a552 ; am_util_stdio_vsprintf + 1590
        0x0001a552:    981b        ..      LDR      r0,[sp,#0x6c]
        0x0001a554:    3001        .0      ADDS     r0,#1
        0x0001a556:    901b        ..      STR      r0,[sp,#0x6c]
        0x0001a558:    f7ffbce9    ....    B.W      0x19f2e ; am_util_stdio_vsprintf + 18
        0x0001a55c:    981c        ..      LDR      r0,[sp,#0x70]
        0x0001a55e:    b120         .      CBZ      r0,0x1a56a ; am_util_stdio_vsprintf + 1614
        0x0001a560:    e7ff        ..      B        0x1a562 ; am_util_stdio_vsprintf + 1606
        0x0001a562:    991c        ..      LDR      r1,[sp,#0x70]
        0x0001a564:    2000        .       MOVS     r0,#0
        0x0001a566:    7008        .p      STRB     r0,[r1,#0]
        0x0001a568:    e7ff        ..      B        0x1a56a ; am_util_stdio_vsprintf + 1614
        0x0001a56a:    9814        ..      LDR      r0,[sp,#0x50]
        0x0001a56c:    b01e        ..      ADD      sp,sp,#0x78
        0x0001a56e:    bd80        ..      POP      {r7,pc}
    buck_ldo_update_override
        0x0001a570:    2160        `!      MOVS     r1,#0x60
        0x0001a572:    f2c40102    ....    MOVT     r1,#0x4002
        0x0001a576:    680a        .h      LDR      r2,[r1,#0]
        0x0001a578:    f4223280    "..2    BIC      r2,r2,#0x10000
        0x0001a57c:    f3604210    `..B    BFI      r2,r0,#16,#1
        0x0001a580:    600a        .`      STR      r2,[r1,#0]
        0x0001a582:    680a        .h      LDR      r2,[r1,#0]
        0x0001a584:    f0220201    "...    BIC      r2,r2,#1
        0x0001a588:    4402        .D      ADD      r2,r2,r0
        0x0001a58a:    600a        .`      STR      r2,[r1,#0]
        0x0001a58c:    680a        .h      LDR      r2,[r1,#0]
        0x0001a58e:    f0220220    ". .    BIC      r2,r2,#0x20
        0x0001a592:    f3601245    `.E.    BFI      r2,r0,#5,#1
        0x0001a596:    600a        .`      STR      r2,[r1,#0]
        0x0001a598:    4770        pG      BX       lr
        0x0001a59a:    0000        ..      MOVS     r0,r0
    crypto_boost_trims
        0x0001a59c:    e92d43f0    -..C    PUSH     {r4-r9,lr}
        0x0001a5a0:    b081        ..      SUB      sp,sp,#4
        0x0001a5a2:    f24009f0    @...    MOVW     r9,#0xf0
        0x0001a5a6:    f2c10900    ....    MOVT     r9,#0x1000
        0x0001a5aa:    f8992000    ...     LDRB     r2,[r9,#0]
        0x0001a5ae:    4604        .F      MOV      r4,r0
        0x0001a5b0:    fab2f082    ....    CLZ      r0,r2
        0x0001a5b4:    0940        @.      LSRS     r0,r0,#5
        0x0001a5b6:    4060        `@      EORS     r0,r0,r4
        0x0001a5b8:    bf1c        ..      ITT      NE
        0x0001a5ba:    b001        ..      ADDNE    sp,sp,#4
        0x0001a5bc:    e8bd83f0    ....    POPNE    {r4-r9,pc}
        0x0001a5c0:    f2400888    @...    MOVW     r8,#0x88
        0x0001a5c4:    460d        .F      MOV      r5,r1
        0x0001a5c6:    f2c40802    ....    MOVT     r8,#0x4002
        0x0001a5ca:    f7fefa19    ....    BL       am_hal_interrupt_master_disable ; 0x18a00
        0x0001a5ce:    9000        ..      STR      r0,[sp,#0]
        0x0001a5d0:    f8894000    ...@    STRB     r4,[r9,#0]
        0x0001a5d4:    2c00        .,      CMP      r4,#0
        0x0001a5d6:    bf08        ..      IT       EQ
        0x0001a5d8:    426d        mB      RSBEQ    r5,r5,#0
        0x0001a5da:    e9d90101    ....    LDRD     r0,r1,[r9,#4]
        0x0001a5de:    223f        ?"      MOVS     r2,#0x3f
        0x0001a5e0:    4428        (D      ADD      r0,r0,r5
        0x0001a5e2:    283f        ?(      CMP      r0,#0x3f
        0x0001a5e4:    bf38        8.      IT       CC
        0x0001a5e6:    4602        .F      MOVCC    r2,r0
        0x0001a5e8:    0517        ..      LSLS     r7,r2,#20
        0x0001a5ea:    2800        .(      CMP      r0,#0
        0x0001a5ec:    4429        )D      ADD      r1,r1,r5
        0x0001a5ee:    f04f063f    O.?.    MOV      r6,#0x3f
        0x0001a5f2:    bf48        H.      IT       MI
        0x0001a5f4:    2700        .'      MOVMI    r7,#0
        0x0001a5f6:    293f        ?)      CMP      r1,#0x3f
        0x0001a5f8:    f8c90004    ....    STR      r0,[r9,#4]
        0x0001a5fc:    bf38        8.      IT       CC
        0x0001a5fe:    460e        .F      MOVCC    r6,r1
        0x0001a600:    2900        .)      CMP      r1,#0
        0x0001a602:    bf48        H.      IT       MI
        0x0001a604:    2600        .&      MOVMI    r6,#0
        0x0001a606:    f8c91008    ....    STR      r1,[r9,#8]
        0x0001a60a:    b18c        ..      CBZ      r4,0x1a630 ; crypto_boost_trims + 148
        0x0001a60c:    f8d802e4    ....    LDR      r0,[r8,#0x2e4]
        0x0001a610:    f020707c     .|p    BIC      r0,r0,#0x3f00000
        0x0001a614:    4338        8C      ORRS     r0,r0,r7
        0x0001a616:    f8c802e4    ....    STR      r0,[r8,#0x2e4]
        0x0001a61a:    2014        .       MOVS     r0,#0x14
        0x0001a61c:    f7fef8aa    ....    BL       am_hal_delay_us ; 0x18774
        0x0001a620:    f8d80000    ....    LDR      r0,[r8,#0]
        0x0001a624:    f020003f     .?.    BIC      r0,r0,#0x3f
        0x0001a628:    4330        0C      ORRS     r0,r0,r6
        0x0001a62a:    f8c80000    ....    STR      r0,[r8,#0]
        0x0001a62e:    e010        ..      B        0x1a652 ; crypto_boost_trims + 182
        0x0001a630:    f8d80000    ....    LDR      r0,[r8,#0]
        0x0001a634:    f020003f     .?.    BIC      r0,r0,#0x3f
        0x0001a638:    4330        0C      ORRS     r0,r0,r6
        0x0001a63a:    f8c80000    ....    STR      r0,[r8,#0]
        0x0001a63e:    2014        .       MOVS     r0,#0x14
        0x0001a640:    f7fef898    ....    BL       am_hal_delay_us ; 0x18774
        0x0001a644:    f8d802e4    ....    LDR      r0,[r8,#0x2e4]
        0x0001a648:    f020707c     .|p    BIC      r0,r0,#0x3f00000
        0x0001a64c:    4338        8C      ORRS     r0,r0,r7
        0x0001a64e:    f8c802e4    ....    STR      r0,[r8,#0x2e4]
        0x0001a652:    9800        ..      LDR      r0,[sp,#0]
        0x0001a654:    f7fef9dc    ....    BL       am_hal_interrupt_master_set ; 0x18a10
        0x0001a658:    2014        .       MOVS     r0,#0x14
        0x0001a65a:    b001        ..      ADD      sp,sp,#4
        0x0001a65c:    e8bd43f0    ...C    POP      {r4-r9,lr}
        0x0001a660:    f7feb888    ....    B        am_hal_delay_us ; 0x18774
    decstr_to_int
        0x0001a664:    b087        ..      SUB      sp,sp,#0x1c
        0x0001a666:    9006        ..      STR      r0,[sp,#0x18]
        0x0001a668:    9105        ..      STR      r1,[sp,#0x14]
        0x0001a66a:    2000        .       MOVS     r0,#0
        0x0001a66c:    f88d0013    ....    STRB     r0,[sp,#0x13]
        0x0001a670:    9003        ..      STR      r0,[sp,#0xc]
        0x0001a672:    9002        ..      STR      r0,[sp,#8]
        0x0001a674:    9806        ..      LDR      r0,[sp,#0x18]
        0x0001a676:    7800        .x      LDRB     r0,[r0,#0]
        0x0001a678:    282d        -(      CMP      r0,#0x2d
        0x0001a67a:    d10a        ..      BNE      0x1a692 ; decstr_to_int + 46
        0x0001a67c:    e7ff        ..      B        0x1a67e ; decstr_to_int + 26
        0x0001a67e:    2001        .       MOVS     r0,#1
        0x0001a680:    f88d0013    ....    STRB     r0,[sp,#0x13]
        0x0001a684:    9806        ..      LDR      r0,[sp,#0x18]
        0x0001a686:    3001        .0      ADDS     r0,#1
        0x0001a688:    9006        ..      STR      r0,[sp,#0x18]
        0x0001a68a:    9802        ..      LDR      r0,[sp,#8]
        0x0001a68c:    3001        .0      ADDS     r0,#1
        0x0001a68e:    9002        ..      STR      r0,[sp,#8]
        0x0001a690:    e7ff        ..      B        0x1a692 ; decstr_to_int + 46
        0x0001a692:    e7ff        ..      B        0x1a694 ; decstr_to_int + 48
        0x0001a694:    9806        ..      LDR      r0,[sp,#0x18]
        0x0001a696:    7801        .x      LDRB     r1,[r0,#0]
        0x0001a698:    2000        .       MOVS     r0,#0
        0x0001a69a:    2930        0)      CMP      r1,#0x30
        0x0001a69c:    9001        ..      STR      r0,[sp,#4]
        0x0001a69e:    db08        ..      BLT      0x1a6b2 ; decstr_to_int + 78
        0x0001a6a0:    e7ff        ..      B        0x1a6a2 ; decstr_to_int + 62
        0x0001a6a2:    9806        ..      LDR      r0,[sp,#0x18]
        0x0001a6a4:    7801        .x      LDRB     r1,[r0,#0]
        0x0001a6a6:    2000        .       MOVS     r0,#0
        0x0001a6a8:    293a        :)      CMP      r1,#0x3a
        0x0001a6aa:    bfb8        ..      IT       LT
        0x0001a6ac:    2001        .       MOVLT    r0,#1
        0x0001a6ae:    9001        ..      STR      r0,[sp,#4]
        0x0001a6b0:    e7ff        ..      B        0x1a6b2 ; decstr_to_int + 78
        0x0001a6b2:    9801        ..      LDR      r0,[sp,#4]
        0x0001a6b4:    07c0        ..      LSLS     r0,r0,#31
        0x0001a6b6:    b190        ..      CBZ      r0,0x1a6de ; decstr_to_int + 122
        0x0001a6b8:    e7ff        ..      B        0x1a6ba ; decstr_to_int + 86
        0x0001a6ba:    9802        ..      LDR      r0,[sp,#8]
        0x0001a6bc:    3001        .0      ADDS     r0,#1
        0x0001a6be:    9002        ..      STR      r0,[sp,#8]
        0x0001a6c0:    9803        ..      LDR      r0,[sp,#0xc]
        0x0001a6c2:    eb000080    ....    ADD      r0,r0,r0,LSL #2
        0x0001a6c6:    0040        @.      LSLS     r0,r0,#1
        0x0001a6c8:    9003        ..      STR      r0,[sp,#0xc]
        0x0001a6ca:    9806        ..      LDR      r0,[sp,#0x18]
        0x0001a6cc:    7800        .x      LDRB     r0,[r0,#0]
        0x0001a6ce:    9903        ..      LDR      r1,[sp,#0xc]
        0x0001a6d0:    4408        .D      ADD      r0,r0,r1
        0x0001a6d2:    3830        08      SUBS     r0,r0,#0x30
        0x0001a6d4:    9003        ..      STR      r0,[sp,#0xc]
        0x0001a6d6:    9806        ..      LDR      r0,[sp,#0x18]
        0x0001a6d8:    3001        .0      ADDS     r0,#1
        0x0001a6da:    9006        ..      STR      r0,[sp,#0x18]
        0x0001a6dc:    e7da        ..      B        0x1a694 ; decstr_to_int + 48
        0x0001a6de:    9805        ..      LDR      r0,[sp,#0x14]
        0x0001a6e0:    b120         .      CBZ      r0,0x1a6ec ; decstr_to_int + 136
        0x0001a6e2:    e7ff        ..      B        0x1a6e4 ; decstr_to_int + 128
        0x0001a6e4:    9802        ..      LDR      r0,[sp,#8]
        0x0001a6e6:    9905        ..      LDR      r1,[sp,#0x14]
        0x0001a6e8:    6008        .`      STR      r0,[r1,#0]
        0x0001a6ea:    e7ff        ..      B        0x1a6ec ; decstr_to_int + 136
        0x0001a6ec:    f89d0013    ....    LDRB     r0,[sp,#0x13]
        0x0001a6f0:    07c0        ..      LSLS     r0,r0,#31
        0x0001a6f2:    b120         .      CBZ      r0,0x1a6fe ; decstr_to_int + 154
        0x0001a6f4:    e7ff        ..      B        0x1a6f6 ; decstr_to_int + 146
        0x0001a6f6:    9803        ..      LDR      r0,[sp,#0xc]
        0x0001a6f8:    4240        @B      RSBS     r0,r0,#0
        0x0001a6fa:    9000        ..      STR      r0,[sp,#0]
        0x0001a6fc:    e002        ..      B        0x1a704 ; decstr_to_int + 160
        0x0001a6fe:    9803        ..      LDR      r0,[sp,#0xc]
        0x0001a700:    9000        ..      STR      r0,[sp,#0]
        0x0001a702:    e7ff        ..      B        0x1a704 ; decstr_to_int + 160
        0x0001a704:    9800        ..      LDR      r0,[sp,#0]
        0x0001a706:    b007        ..      ADD      sp,sp,#0x1c
        0x0001a708:    4770        pG      BX       lr
        0x0001a70a:    0000        ..      MOVS     r0,r0
    divu64_10
        0x0001a70c:    b08c        ..      SUB      sp,sp,#0x30
        0x0001a70e:    9109        ..      STR      r1,[sp,#0x24]
        0x0001a710:    9008        ..      STR      r0,[sp,#0x20]
        0x0001a712:    9809        ..      LDR      r0,[sp,#0x24]
        0x0001a714:    2800        .(      CMP      r0,#0
        0x0001a716:    d05b        [.      BEQ      0x1a7d0 ; divu64_10 + 196
        0x0001a718:    e7ff        ..      B        0x1a71a ; divu64_10 + 14
        0x0001a71a:    9b08        ..      LDR      r3,[sp,#0x20]
        0x0001a71c:    9a09        ..      LDR      r2,[sp,#0x24]
        0x0001a71e:    ea5f0052    _.R.    LSRS.W   r0,r2,#1
        0x0001a722:    ea4f0133    O.3.    RRX      r1,r3
        0x0001a726:    089b        ..      LSRS     r3,r3,#2
        0x0001a728:    ea437382    C..s    ORR      r3,r3,r2,LSL #30
        0x0001a72c:    18c9        ..      ADDS     r1,r1,r3
        0x0001a72e:    eb400092    @...    ADC      r0,r0,r2,LSR #2
        0x0001a732:    9106        ..      STR      r1,[sp,#0x18]
        0x0001a734:    9007        ..      STR      r0,[sp,#0x1c]
        0x0001a736:    9906        ..      LDR      r1,[sp,#0x18]
        0x0001a738:    9807        ..      LDR      r0,[sp,#0x1c]
        0x0001a73a:    090a        ..      LSRS     r2,r1,#4
        0x0001a73c:    ea427200    B..r    ORR      r2,r2,r0,LSL #28
        0x0001a740:    1889        ..      ADDS     r1,r1,r2
        0x0001a742:    eb401010    @...    ADC      r0,r0,r0,LSR #4
        0x0001a746:    9106        ..      STR      r1,[sp,#0x18]
        0x0001a748:    9007        ..      STR      r0,[sp,#0x1c]
        0x0001a74a:    9906        ..      LDR      r1,[sp,#0x18]
        0x0001a74c:    9807        ..      LDR      r0,[sp,#0x1c]
        0x0001a74e:    0a0a        ..      LSRS     r2,r1,#8
        0x0001a750:    ea426200    B..b    ORR      r2,r2,r0,LSL #24
        0x0001a754:    1889        ..      ADDS     r1,r1,r2
        0x0001a756:    eb402010    @..     ADC      r0,r0,r0,LSR #8
        0x0001a75a:    9106        ..      STR      r1,[sp,#0x18]
        0x0001a75c:    9007        ..      STR      r0,[sp,#0x1c]
        0x0001a75e:    9906        ..      LDR      r1,[sp,#0x18]
        0x0001a760:    9807        ..      LDR      r0,[sp,#0x1c]
        0x0001a762:    0c0a        ..      LSRS     r2,r1,#16
        0x0001a764:    ea424200    B..B    ORR      r2,r2,r0,LSL #16
        0x0001a768:    1889        ..      ADDS     r1,r1,r2
        0x0001a76a:    eb404010    @..@    ADC      r0,r0,r0,LSR #16
        0x0001a76e:    9106        ..      STR      r1,[sp,#0x18]
        0x0001a770:    9007        ..      STR      r0,[sp,#0x1c]
        0x0001a772:    9906        ..      LDR      r1,[sp,#0x18]
        0x0001a774:    9807        ..      LDR      r0,[sp,#0x1c]
        0x0001a776:    1809        ..      ADDS     r1,r1,r0
        0x0001a778:    f1400000    @...    ADC      r0,r0,#0
        0x0001a77c:    9106        ..      STR      r1,[sp,#0x18]
        0x0001a77e:    9007        ..      STR      r0,[sp,#0x1c]
        0x0001a780:    9806        ..      LDR      r0,[sp,#0x18]
        0x0001a782:    9907        ..      LDR      r1,[sp,#0x1c]
        0x0001a784:    08c0        ..      LSRS     r0,r0,#3
        0x0001a786:    ea407041    @.Ap    ORR      r0,r0,r1,LSL #29
        0x0001a78a:    08c9        ..      LSRS     r1,r1,#3
        0x0001a78c:    9107        ..      STR      r1,[sp,#0x1c]
        0x0001a78e:    9006        ..      STR      r0,[sp,#0x18]
        0x0001a790:    9908        ..      LDR      r1,[sp,#0x20]
        0x0001a792:    9809        ..      LDR      r0,[sp,#0x24]
        0x0001a794:    9a06        ..      LDR      r2,[sp,#0x18]
        0x0001a796:    f8ddc01c    ....    LDR      r12,[sp,#0x1c]
        0x0001a79a:    230a        .#      MOVS     r3,#0xa
        0x0001a79c:    fba23203    ...2    UMULL    r3,r2,r2,r3
        0x0001a7a0:    eb0c0c8c    ....    ADD      r12,r12,r12,LSL #2
        0x0001a7a4:    eb02024c    ..L.    ADD      r2,r2,r12,LSL #1
        0x0001a7a8:    1ac9        ..      SUBS     r1,r1,r3
        0x0001a7aa:    4190        .A      SBCS     r0,r0,r2
        0x0001a7ac:    9104        ..      STR      r1,[sp,#0x10]
        0x0001a7ae:    9005        ..      STR      r0,[sp,#0x14]
        0x0001a7b0:    9906        ..      LDR      r1,[sp,#0x18]
        0x0001a7b2:    9807        ..      LDR      r0,[sp,#0x1c]
        0x0001a7b4:    9b04        ..      LDR      r3,[sp,#0x10]
        0x0001a7b6:    9a05        ..      LDR      r2,[sp,#0x14]
        0x0001a7b8:    3306        .3      ADDS     r3,#6
        0x0001a7ba:    f1420200    B...    ADC      r2,r2,#0
        0x0001a7be:    091b        ..      LSRS     r3,r3,#4
        0x0001a7c0:    ea437302    C..s    ORR      r3,r3,r2,LSL #28
        0x0001a7c4:    18c9        ..      ADDS     r1,r1,r3
        0x0001a7c6:    eb401012    @...    ADC      r0,r0,r2,LSR #4
        0x0001a7ca:    910a        ..      STR      r1,[sp,#0x28]
        0x0001a7cc:    900b        ..      STR      r0,[sp,#0x2c]
        0x0001a7ce:    e025        %.      B        0x1a81c ; divu64_10 + 272
        0x0001a7d0:    9808        ..      LDR      r0,[sp,#0x20]
        0x0001a7d2:    9001        ..      STR      r0,[sp,#4]
        0x0001a7d4:    9901        ..      LDR      r1,[sp,#4]
        0x0001a7d6:    0848        H.      LSRS     r0,r1,#1
        0x0001a7d8:    eb000091    ....    ADD      r0,r0,r1,LSR #2
        0x0001a7dc:    9003        ..      STR      r0,[sp,#0xc]
        0x0001a7de:    9803        ..      LDR      r0,[sp,#0xc]
        0x0001a7e0:    eb001010    ....    ADD      r0,r0,r0,LSR #4
        0x0001a7e4:    9003        ..      STR      r0,[sp,#0xc]
        0x0001a7e6:    9803        ..      LDR      r0,[sp,#0xc]
        0x0001a7e8:    eb002010    ...     ADD      r0,r0,r0,LSR #8
        0x0001a7ec:    9003        ..      STR      r0,[sp,#0xc]
        0x0001a7ee:    9803        ..      LDR      r0,[sp,#0xc]
        0x0001a7f0:    eb004010    ...@    ADD      r0,r0,r0,LSR #16
        0x0001a7f4:    9003        ..      STR      r0,[sp,#0xc]
        0x0001a7f6:    9803        ..      LDR      r0,[sp,#0xc]
        0x0001a7f8:    08c0        ..      LSRS     r0,r0,#3
        0x0001a7fa:    9003        ..      STR      r0,[sp,#0xc]
        0x0001a7fc:    9801        ..      LDR      r0,[sp,#4]
        0x0001a7fe:    9903        ..      LDR      r1,[sp,#0xc]
        0x0001a800:    eb010181    ....    ADD      r1,r1,r1,LSL #2
        0x0001a804:    eba00041    ..A.    SUB      r0,r0,r1,LSL #1
        0x0001a808:    9002        ..      STR      r0,[sp,#8]
        0x0001a80a:    9803        ..      LDR      r0,[sp,#0xc]
        0x0001a80c:    9902        ..      LDR      r1,[sp,#8]
        0x0001a80e:    3106        .1      ADDS     r1,#6
        0x0001a810:    eb001011    ....    ADD      r0,r0,r1,LSR #4
        0x0001a814:    2100        .!      MOVS     r1,#0
        0x0001a816:    910b        ..      STR      r1,[sp,#0x2c]
        0x0001a818:    900a        ..      STR      r0,[sp,#0x28]
        0x0001a81a:    e7ff        ..      B        0x1a81c ; divu64_10 + 272
        0x0001a81c:    980a        ..      LDR      r0,[sp,#0x28]
        0x0001a81e:    990b        ..      LDR      r1,[sp,#0x2c]
        0x0001a820:    b00c        ..      ADD      sp,sp,#0x30
        0x0001a822:    4770        pG      BX       lr
    ftoa
        0x0001a824:    b580        ..      PUSH     {r7,lr}
        0x0001a826:    b090        ..      SUB      sp,sp,#0x40
        0x0001a828:    ed8d0a0e    ....    VSTR     s0,[sp,#0x38]
        0x0001a82c:    900d        ..      STR      r0,[sp,#0x34]
        0x0001a82e:    910c        ..      STR      r1,[sp,#0x30]
        0x0001a830:    980d        ..      LDR      r0,[sp,#0x34]
        0x0001a832:    6800        .h      LDR      r0,[r0,#0]
        0x0001a834:    9009        ..      STR      r0,[sp,#0x24]
        0x0001a836:    9809        ..      LDR      r0,[sp,#0x24]
        0x0001a838:    2803        .(      CMP      r0,#3
        0x0001a83a:    dc04        ..      BGT      0x1a846 ; ftoa + 34
        0x0001a83c:    e7ff        ..      B        0x1a83e ; ftoa + 26
        0x0001a83e:    f06f0002    o...    MVN      r0,#2
        0x0001a842:    900f        ..      STR      r0,[sp,#0x3c]
        0x0001a844:    e103        ..      B        0x1aa4e ; ftoa + 554
        0x0001a846:    ed9d0a0e    ....    VLDR     s0,[sp,#0x38]
        0x0001a84a:    eeb50a40    ..@.    VCMP.F32 s0,#0.0
        0x0001a84e:    eef1fa10    ....    VMRS     APSR_nzcv,FPSCR
        0x0001a852:    d109        ..      BNE      0x1a868 ; ftoa + 68
        0x0001a854:    e7ff        ..      B        0x1a856 ; ftoa + 50
        0x0001a856:    990d        ..      LDR      r1,[sp,#0x34]
        0x0001a858:    f6426030    B.0`    MOV      r0,#0x2e30
        0x0001a85c:    f2c00030    ..0.    MOVT     r0,#0x30
        0x0001a860:    6008        .`      STR      r0,[r1,#0]
        0x0001a862:    2003        .       MOVS     r0,#3
        0x0001a864:    900f        ..      STR      r0,[sp,#0x3c]
        0x0001a866:    e0f2        ..      B        0x1aa4e ; ftoa + 554
        0x0001a868:    980d        ..      LDR      r0,[sp,#0x34]
        0x0001a86a:    9005        ..      STR      r0,[sp,#0x14]
        0x0001a86c:    980e        ..      LDR      r0,[sp,#0x38]
        0x0001a86e:    900b        ..      STR      r0,[sp,#0x2c]
        0x0001a870:    980b        ..      LDR      r0,[sp,#0x2c]
        0x0001a872:    0dc1        ..      LSRS     r1,r0,#23
        0x0001a874:    f06f007e    o.~.    MVN      r0,#0x7e
        0x0001a878:    fa50f081    P...    UXTAB    r0,r0,r1
        0x0001a87c:    900a        ..      STR      r0,[sp,#0x28]
        0x0001a87e:    980b        ..      LDR      r0,[sp,#0x2c]
        0x0001a880:    f4400000    @...    ORR      r0,r0,#0x800000
        0x0001a884:    f020407f     ..@    BIC      r0,r0,#0xff000000
        0x0001a888:    9008        ..      STR      r0,[sp,#0x20]
        0x0001a88a:    2000        .       MOVS     r0,#0
        0x0001a88c:    9006        ..      STR      r0,[sp,#0x18]
        0x0001a88e:    9007        ..      STR      r0,[sp,#0x1c]
        0x0001a890:    980a        ..      LDR      r0,[sp,#0x28]
        0x0001a892:    281f        .(      CMP      r0,#0x1f
        0x0001a894:    db04        ..      BLT      0x1a8a0 ; ftoa + 124
        0x0001a896:    e7ff        ..      B        0x1a898 ; ftoa + 116
        0x0001a898:    f06f0001    o...    MVN      r0,#1
        0x0001a89c:    900f        ..      STR      r0,[sp,#0x3c]
        0x0001a89e:    e0d6        ..      B        0x1aa4e ; ftoa + 554
        0x0001a8a0:    980a        ..      LDR      r0,[sp,#0x28]
        0x0001a8a2:    f1100f18    ....    CMN      r0,#0x18
        0x0001a8a6:    dc04        ..      BGT      0x1a8b2 ; ftoa + 142
        0x0001a8a8:    e7ff        ..      B        0x1a8aa ; ftoa + 134
        0x0001a8aa:    f04f30ff    O..0    MOV      r0,#0xffffffff
        0x0001a8ae:    900f        ..      STR      r0,[sp,#0x3c]
        0x0001a8b0:    e0cd        ..      B        0x1aa4e ; ftoa + 554
        0x0001a8b2:    980a        ..      LDR      r0,[sp,#0x28]
        0x0001a8b4:    2817        .(      CMP      r0,#0x17
        0x0001a8b6:    db06        ..      BLT      0x1a8c6 ; ftoa + 162
        0x0001a8b8:    e7ff        ..      B        0x1a8ba ; ftoa + 150
        0x0001a8ba:    9808        ..      LDR      r0,[sp,#0x20]
        0x0001a8bc:    990a        ..      LDR      r1,[sp,#0x28]
        0x0001a8be:    3917        .9      SUBS     r1,r1,#0x17
        0x0001a8c0:    4088        .@      LSLS     r0,r0,r1
        0x0001a8c2:    9007        ..      STR      r0,[sp,#0x1c]
        0x0001a8c4:    e01a        ..      B        0x1a8fc ; ftoa + 216
        0x0001a8c6:    980a        ..      LDR      r0,[sp,#0x28]
        0x0001a8c8:    2800        .(      CMP      r0,#0
        0x0001a8ca:    d40e        ..      BMI      0x1a8ea ; ftoa + 198
        0x0001a8cc:    e7ff        ..      B        0x1a8ce ; ftoa + 170
        0x0001a8ce:    9808        ..      LDR      r0,[sp,#0x20]
        0x0001a8d0:    990a        ..      LDR      r1,[sp,#0x28]
        0x0001a8d2:    f1c10117    ....    RSB      r1,r1,#0x17
        0x0001a8d6:    4108        .A      ASRS     r0,r0,r1
        0x0001a8d8:    9007        ..      STR      r0,[sp,#0x1c]
        0x0001a8da:    9808        ..      LDR      r0,[sp,#0x20]
        0x0001a8dc:    990a        ..      LDR      r1,[sp,#0x28]
        0x0001a8de:    3101        .1      ADDS     r1,#1
        0x0001a8e0:    4088        .@      LSLS     r0,r0,r1
        0x0001a8e2:    f020407f     ..@    BIC      r0,r0,#0xff000000
        0x0001a8e6:    9006        ..      STR      r0,[sp,#0x18]
        0x0001a8e8:    e007        ..      B        0x1a8fa ; ftoa + 214
        0x0001a8ea:    9808        ..      LDR      r0,[sp,#0x20]
        0x0001a8ec:    f020407f     ..@    BIC      r0,r0,#0xff000000
        0x0001a8f0:    990a        ..      LDR      r1,[sp,#0x28]
        0x0001a8f2:    43c9        .C      MVNS     r1,r1
        0x0001a8f4:    40c8        .@      LSRS     r0,r0,r1
        0x0001a8f6:    9006        ..      STR      r0,[sp,#0x18]
        0x0001a8f8:    e7ff        ..      B        0x1a8fa ; ftoa + 214
        0x0001a8fa:    e7ff        ..      B        0x1a8fc ; ftoa + 216
        0x0001a8fc:    e7ff        ..      B        0x1a8fe ; ftoa + 218
        0x0001a8fe:    e7ff        ..      B        0x1a900 ; ftoa + 220
        0x0001a900:    980b        ..      LDR      r0,[sp,#0x2c]
        0x0001a902:    f1b03fff    ...?    CMP      r0,#0xffffffff
        0x0001a906:    dc06        ..      BGT      0x1a916 ; ftoa + 242
        0x0001a908:    e7ff        ..      B        0x1a90a ; ftoa + 230
        0x0001a90a:    990d        ..      LDR      r1,[sp,#0x34]
        0x0001a90c:    1c48        H.      ADDS     r0,r1,#1
        0x0001a90e:    900d        ..      STR      r0,[sp,#0x34]
        0x0001a910:    202d        -       MOVS     r0,#0x2d
        0x0001a912:    7008        .p      STRB     r0,[r1,#0]
        0x0001a914:    e7ff        ..      B        0x1a916 ; ftoa + 242
        0x0001a916:    9807        ..      LDR      r0,[sp,#0x1c]
        0x0001a918:    b930        0.      CBNZ     r0,0x1a928 ; ftoa + 260
        0x0001a91a:    e7ff        ..      B        0x1a91c ; ftoa + 248
        0x0001a91c:    990d        ..      LDR      r1,[sp,#0x34]
        0x0001a91e:    1c48        H.      ADDS     r0,r1,#1
        0x0001a920:    900d        ..      STR      r0,[sp,#0x34]
        0x0001a922:    2030        0       MOVS     r0,#0x30
        0x0001a924:    7008        .p      STRB     r0,[r1,#0]
        0x0001a926:    e01f        ..      B        0x1a968 ; ftoa + 324
        0x0001a928:    9807        ..      LDR      r0,[sp,#0x1c]
        0x0001a92a:    2801        .(      CMP      r0,#1
        0x0001a92c:    db06        ..      BLT      0x1a93c ; ftoa + 280
        0x0001a92e:    e7ff        ..      B        0x1a930 ; ftoa + 268
        0x0001a930:    9807        ..      LDR      r0,[sp,#0x1c]
        0x0001a932:    17c1        ..      ASRS     r1,r0,#31
        0x0001a934:    9a0d        ..      LDR      r2,[sp,#0x34]
        0x0001a936:    f000fef1    ....    BL       uint64_to_str ; 0x1b71c
        0x0001a93a:    e00b        ..      B        0x1a954 ; ftoa + 304
        0x0001a93c:    990d        ..      LDR      r1,[sp,#0x34]
        0x0001a93e:    1c48        H.      ADDS     r0,r1,#1
        0x0001a940:    900d        ..      STR      r0,[sp,#0x34]
        0x0001a942:    202d        -       MOVS     r0,#0x2d
        0x0001a944:    7008        .p      STRB     r0,[r1,#0]
        0x0001a946:    9807        ..      LDR      r0,[sp,#0x1c]
        0x0001a948:    4240        @B      RSBS     r0,r0,#0
        0x0001a94a:    17c1        ..      ASRS     r1,r0,#31
        0x0001a94c:    9a0d        ..      LDR      r2,[sp,#0x34]
        0x0001a94e:    f000fee5    ....    BL       uint64_to_str ; 0x1b71c
        0x0001a952:    e7ff        ..      B        0x1a954 ; ftoa + 304
        0x0001a954:    e7ff        ..      B        0x1a956 ; ftoa + 306
        0x0001a956:    980d        ..      LDR      r0,[sp,#0x34]
        0x0001a958:    7800        .x      LDRB     r0,[r0,#0]
        0x0001a95a:    b120         .      CBZ      r0,0x1a966 ; ftoa + 322
        0x0001a95c:    e7ff        ..      B        0x1a95e ; ftoa + 314
        0x0001a95e:    980d        ..      LDR      r0,[sp,#0x34]
        0x0001a960:    3001        .0      ADDS     r0,#1
        0x0001a962:    900d        ..      STR      r0,[sp,#0x34]
        0x0001a964:    e7f7        ..      B        0x1a956 ; ftoa + 306
        0x0001a966:    e7ff        ..      B        0x1a968 ; ftoa + 324
        0x0001a968:    990d        ..      LDR      r1,[sp,#0x34]
        0x0001a96a:    1c48        H.      ADDS     r0,r1,#1
        0x0001a96c:    900d        ..      STR      r0,[sp,#0x34]
        0x0001a96e:    202e        .       MOVS     r0,#0x2e
        0x0001a970:    7008        .p      STRB     r0,[r1,#0]
        0x0001a972:    9806        ..      LDR      r0,[sp,#0x18]
        0x0001a974:    b930        0.      CBNZ     r0,0x1a984 ; ftoa + 352
        0x0001a976:    e7ff        ..      B        0x1a978 ; ftoa + 340
        0x0001a978:    990d        ..      LDR      r1,[sp,#0x34]
        0x0001a97a:    1c48        H.      ADDS     r0,r1,#1
        0x0001a97c:    900d        ..      STR      r0,[sp,#0x34]
        0x0001a97e:    2030        0       MOVS     r0,#0x30
        0x0001a980:    7008        .p      STRB     r0,[r1,#0]
        0x0001a982:    e05c        \.      B        0x1aa3e ; ftoa + 538
        0x0001a984:    9909        ..      LDR      r1,[sp,#0x24]
        0x0001a986:    980d        ..      LDR      r0,[sp,#0x34]
        0x0001a988:    9a05        ..      LDR      r2,[sp,#0x14]
        0x0001a98a:    1a80        ..      SUBS     r0,r0,r2
        0x0001a98c:    43c0        .C      MVNS     r0,r0
        0x0001a98e:    4408        .D      ADD      r0,r0,r1
        0x0001a990:    9002        ..      STR      r0,[sp,#8]
        0x0001a992:    9802        ..      LDR      r0,[sp,#8]
        0x0001a994:    990c        ..      LDR      r1,[sp,#0x30]
        0x0001a996:    4288        .B      CMP      r0,r1
        0x0001a998:    dd03        ..      BLE      0x1a9a2 ; ftoa + 382
        0x0001a99a:    e7ff        ..      B        0x1a99c ; ftoa + 376
        0x0001a99c:    980c        ..      LDR      r0,[sp,#0x30]
        0x0001a99e:    9001        ..      STR      r0,[sp,#4]
        0x0001a9a0:    e002        ..      B        0x1a9a8 ; ftoa + 388
        0x0001a9a2:    9802        ..      LDR      r0,[sp,#8]
        0x0001a9a4:    9001        ..      STR      r0,[sp,#4]
        0x0001a9a6:    e7ff        ..      B        0x1a9a8 ; ftoa + 388
        0x0001a9a8:    9801        ..      LDR      r0,[sp,#4]
        0x0001a9aa:    9002        ..      STR      r0,[sp,#8]
        0x0001a9ac:    2000        .       MOVS     r0,#0
        0x0001a9ae:    9003        ..      STR      r0,[sp,#0xc]
        0x0001a9b0:    e7ff        ..      B        0x1a9b2 ; ftoa + 398
        0x0001a9b2:    9803        ..      LDR      r0,[sp,#0xc]
        0x0001a9b4:    9902        ..      LDR      r1,[sp,#8]
        0x0001a9b6:    4288        .B      CMP      r0,r1
        0x0001a9b8:    da15        ..      BGE      0x1a9e6 ; ftoa + 450
        0x0001a9ba:    e7ff        ..      B        0x1a9bc ; ftoa + 408
        0x0001a9bc:    9806        ..      LDR      r0,[sp,#0x18]
        0x0001a9be:    eb000080    ....    ADD      r0,r0,r0,LSL #2
        0x0001a9c2:    0040        @.      LSLS     r0,r0,#1
        0x0001a9c4:    9006        ..      STR      r0,[sp,#0x18]
        0x0001a9c6:    f89d001b    ....    LDRB     r0,[sp,#0x1b]
        0x0001a9ca:    3030        00      ADDS     r0,r0,#0x30
        0x0001a9cc:    990d        ..      LDR      r1,[sp,#0x34]
        0x0001a9ce:    1c4a        J.      ADDS     r2,r1,#1
        0x0001a9d0:    920d        ..      STR      r2,[sp,#0x34]
        0x0001a9d2:    7008        .p      STRB     r0,[r1,#0]
        0x0001a9d4:    9806        ..      LDR      r0,[sp,#0x18]
        0x0001a9d6:    f020407f     ..@    BIC      r0,r0,#0xff000000
        0x0001a9da:    9006        ..      STR      r0,[sp,#0x18]
        0x0001a9dc:    e7ff        ..      B        0x1a9de ; ftoa + 442
        0x0001a9de:    9803        ..      LDR      r0,[sp,#0xc]
        0x0001a9e0:    3001        .0      ADDS     r0,#1
        0x0001a9e2:    9003        ..      STR      r0,[sp,#0xc]
        0x0001a9e4:    e7e5        ..      B        0x1a9b2 ; ftoa + 398
        0x0001a9e6:    9806        ..      LDR      r0,[sp,#0x18]
        0x0001a9e8:    eb000080    ....    ADD      r0,r0,r0,LSL #2
        0x0001a9ec:    f34050c7    @..P    SBFX     r0,r0,#23,#8
        0x0001a9f0:    2805        .(      CMP      r0,#5
        0x0001a9f2:    db23        #.      BLT      0x1aa3c ; ftoa + 536
        0x0001a9f4:    e7ff        ..      B        0x1a9f6 ; ftoa + 466
        0x0001a9f6:    980d        ..      LDR      r0,[sp,#0x34]
        0x0001a9f8:    3801        .8      SUBS     r0,#1
        0x0001a9fa:    9004        ..      STR      r0,[sp,#0x10]
        0x0001a9fc:    e7ff        ..      B        0x1a9fe ; ftoa + 474
        0x0001a9fe:    9804        ..      LDR      r0,[sp,#0x10]
        0x0001aa00:    9905        ..      LDR      r1,[sp,#0x14]
        0x0001aa02:    4288        .B      CMP      r0,r1
        0x0001aa04:    d319        ..      BCC      0x1aa3a ; ftoa + 534
        0x0001aa06:    e7ff        ..      B        0x1aa08 ; ftoa + 484
        0x0001aa08:    9804        ..      LDR      r0,[sp,#0x10]
        0x0001aa0a:    7800        .x      LDRB     r0,[r0,#0]
        0x0001aa0c:    282e        .(      CMP      r0,#0x2e
        0x0001aa0e:    d101        ..      BNE      0x1aa14 ; ftoa + 496
        0x0001aa10:    e7ff        ..      B        0x1aa12 ; ftoa + 494
        0x0001aa12:    e00e        ..      B        0x1aa32 ; ftoa + 526
        0x0001aa14:    9804        ..      LDR      r0,[sp,#0x10]
        0x0001aa16:    7800        .x      LDRB     r0,[r0,#0]
        0x0001aa18:    2839        9(      CMP      r0,#0x39
        0x0001aa1a:    d104        ..      BNE      0x1aa26 ; ftoa + 514
        0x0001aa1c:    e7ff        ..      B        0x1aa1e ; ftoa + 506
        0x0001aa1e:    9904        ..      LDR      r1,[sp,#0x10]
        0x0001aa20:    2030        0       MOVS     r0,#0x30
        0x0001aa22:    7008        .p      STRB     r0,[r1,#0]
        0x0001aa24:    e004        ..      B        0x1aa30 ; ftoa + 524
        0x0001aa26:    9904        ..      LDR      r1,[sp,#0x10]
        0x0001aa28:    7808        .x      LDRB     r0,[r1,#0]
        0x0001aa2a:    3001        .0      ADDS     r0,#1
        0x0001aa2c:    7008        .p      STRB     r0,[r1,#0]
        0x0001aa2e:    e004        ..      B        0x1aa3a ; ftoa + 534
        0x0001aa30:    e7ff        ..      B        0x1aa32 ; ftoa + 526
        0x0001aa32:    9804        ..      LDR      r0,[sp,#0x10]
        0x0001aa34:    3801        .8      SUBS     r0,#1
        0x0001aa36:    9004        ..      STR      r0,[sp,#0x10]
        0x0001aa38:    e7e1        ..      B        0x1a9fe ; ftoa + 474
        0x0001aa3a:    e7ff        ..      B        0x1aa3c ; ftoa + 536
        0x0001aa3c:    e7ff        ..      B        0x1aa3e ; ftoa + 538
        0x0001aa3e:    990d        ..      LDR      r1,[sp,#0x34]
        0x0001aa40:    2000        .       MOVS     r0,#0
        0x0001aa42:    7008        .p      STRB     r0,[r1,#0]
        0x0001aa44:    980d        ..      LDR      r0,[sp,#0x34]
        0x0001aa46:    9905        ..      LDR      r1,[sp,#0x14]
        0x0001aa48:    1a40        @.      SUBS     r0,r0,r1
        0x0001aa4a:    900f        ..      STR      r0,[sp,#0x3c]
        0x0001aa4c:    e7ff        ..      B        0x1aa4e ; ftoa + 554
        0x0001aa4e:    980f        ..      LDR      r0,[sp,#0x3c]
        0x0001aa50:    b010        ..      ADD      sp,sp,#0x40
        0x0001aa52:    bd80        ..      POP      {r7,pc}
    get_raw_dcu_mask
        0x0001aa54:    b5b0        ..      PUSH     {r4,r5,r7,lr}
        0x0001aa56:    4684        .F      MOV      r12,r0
        0x0001aa58:    f2401020    @. .    MOVW     r0,#0x120
        0x0001aa5c:    f2c10000    ....    MOVT     r0,#0x1000
        0x0001aa60:    f8d0e000    ....    LDR      lr,[r0,#0]
        0x0001aa64:    2207        ."      MOVS     r2,#7
        0x0001aa66:    f1ce0320    .. .    RSB      r3,lr,#0x20
        0x0001aa6a:    fa22f303    "...    LSR      r3,r2,r3
        0x0001aa6e:    ea4f708c    O..p    LSL      r0,r12,#30
        0x0001aa72:    f1be0120    .. .    SUBS     r1,lr,#0x20
        0x0001aa76:    bf58        X.      IT       PL
        0x0001aa78:    fa02f301    ....    LSLPL    r3,r2,r1
        0x0001aa7c:    fa02f40e    ....    LSL      r4,r2,lr
        0x0001aa80:    bf58        X.      IT       PL
        0x0001aa82:    2400        .$      MOVPL    r4,#0
        0x0001aa84:    ea0371e0    ...q    AND      r1,r3,r0,ASR #31
        0x0001aa88:    ea5f734c    _.Ls    LSLS     r3,r12,#29
        0x0001aa8c:    ea0470e0    ...p    AND      r0,r4,r0,ASR #31
        0x0001aa90:    d470        p.      BMI      0x1ab74 ; get_raw_dcu_mask + 288
        0x0001aa92:    ea5f720c    _..r    LSLS     r2,r12,#28
        0x0001aa96:    f1008082    ....    BMI.W    0x1ab9e ; get_raw_dcu_mask + 330
        0x0001aa9a:    ea5f62cc    _..b    LSLS     r2,r12,#27
        0x0001aa9e:    f1008094    ....    BMI.W    0x1abca ; get_raw_dcu_mask + 374
        0x0001aaa2:    ea5f628c    _..b    LSLS     r2,r12,#26
        0x0001aaa6:    f10080a6    ....    BMI.W    0x1abf6 ; get_raw_dcu_mask + 418
        0x0001aaaa:    ea5f624c    _.Lb    LSLS     r2,r12,#25
        0x0001aaae:    f10080b8    ....    BMI.W    0x1ac22 ; get_raw_dcu_mask + 462
        0x0001aab2:    ea5f620c    _..b    LSLS     r2,r12,#24
        0x0001aab6:    f10080ca    ....    BMI.W    0x1ac4e ; get_raw_dcu_mask + 506
        0x0001aaba:    ea5f52cc    _..R    LSLS     r2,r12,#23
        0x0001aabe:    f10080dc    ....    BMI.W    0x1ac7a ; get_raw_dcu_mask + 550
        0x0001aac2:    ea5f528c    _..R    LSLS     r2,r12,#22
        0x0001aac6:    f10080ee    ....    BMI.W    0x1aca6 ; get_raw_dcu_mask + 594
        0x0001aaca:    ea5f524c    _.LR    LSLS     r2,r12,#21
        0x0001aace:    f1008100    ....    BMI.W    0x1acd2 ; get_raw_dcu_mask + 638
        0x0001aad2:    ea5f520c    _..R    LSLS     r2,r12,#20
        0x0001aad6:    f1008112    ....    BMI.W    0x1acfe ; get_raw_dcu_mask + 682
        0x0001aada:    ea5f42cc    _..B    LSLS     r2,r12,#19
        0x0001aade:    f1008124    ..$.    BMI.W    0x1ad2a ; get_raw_dcu_mask + 726
        0x0001aae2:    ea5f428c    _..B    LSLS     r2,r12,#18
        0x0001aae6:    f1008136    ..6.    BMI.W    0x1ad56 ; get_raw_dcu_mask + 770
        0x0001aaea:    ea5f424c    _.LB    LSLS     r2,r12,#17
        0x0001aaee:    f100814a    ..J.    BMI.W    0x1ad86 ; get_raw_dcu_mask + 818
        0x0001aaf2:    ea5f420c    _..B    LSLS     r2,r12,#16
        0x0001aaf6:    f100815e    ..^.    BMI.W    0x1adb6 ; get_raw_dcu_mask + 866
        0x0001aafa:    ea5f32cc    _..2    LSLS     r2,r12,#15
        0x0001aafe:    f1008172    ..r.    BMI.W    0x1ade6 ; get_raw_dcu_mask + 914
        0x0001ab02:    ea5f328c    _..2    LSLS     r2,r12,#14
        0x0001ab06:    f1008186    ....    BMI.W    0x1ae16 ; get_raw_dcu_mask + 962
        0x0001ab0a:    ea5f324c    _.L2    LSLS     r2,r12,#13
        0x0001ab0e:    f100819a    ....    BMI.W    0x1ae46 ; get_raw_dcu_mask + 1010
        0x0001ab12:    ea5f320c    _..2    LSLS     r2,r12,#12
        0x0001ab16:    d513        ..      BPL      0x1ab40 ; get_raw_dcu_mask + 236
        0x0001ab18:    f06f0515    o...    MVN      r5,#0x15
        0x0001ab1c:    f10e0236    ..6.    ADD      r2,lr,#0x36
        0x0001ab20:    2407        .$      MOVS     r4,#7
        0x0001ab22:    eba5050e    ....    SUB      r5,r5,lr
        0x0001ab26:    fa24f505    $...    LSR      r5,r4,r5
        0x0001ab2a:    fa04f202    ....    LSL      r2,r4,r2
        0x0001ab2e:    f11e0316    ....    ADDS     r3,lr,#0x16
        0x0001ab32:    bf58        X.      IT       PL
        0x0001ab34:    fa04f503    ....    LSLPL    r5,r4,r3
        0x0001ab38:    bf58        X.      IT       PL
        0x0001ab3a:    2200        ."      MOVPL    r2,#0
        0x0001ab3c:    4329        )C      ORRS     r1,r1,r5
        0x0001ab3e:    4310        .C      ORRS     r0,r0,r2
        0x0001ab40:    ea5f22cc    _.."    LSLS     r2,r12,#11
        0x0001ab44:    bf58        X.      IT       PL
        0x0001ab46:    bdb0        ..      POPPL    {r4,r5,r7,pc}
        0x0001ab48:    f06f0418    o...    MVN      r4,#0x18
        0x0001ab4c:    f10e0239    ..9.    ADD      r2,lr,#0x39
        0x0001ab50:    2507        .%      MOVS     r5,#7
        0x0001ab52:    eba4040e    ....    SUB      r4,r4,lr
        0x0001ab56:    fa25f404    %...    LSR      r4,r5,r4
        0x0001ab5a:    fa05f202    ....    LSL      r2,r5,r2
        0x0001ab5e:    f11e0319    ....    ADDS     r3,lr,#0x19
        0x0001ab62:    bf58        X.      IT       PL
        0x0001ab64:    fa05f403    ....    LSLPL    r4,r5,r3
        0x0001ab68:    bf58        X.      IT       PL
        0x0001ab6a:    2200        ."      MOVPL    r2,#0
        0x0001ab6c:    4321        !C      ORRS     r1,r1,r4
        0x0001ab6e:    4310        .C      ORRS     r0,r0,r2
        0x0001ab70:    bdb0        ..      POP      {r4,r5,r7,pc}
        0x0001ab72:    bf00        ..      NOP      
        0x0001ab74:    f1ce051d    ....    RSB      r5,lr,#0x1d
        0x0001ab78:    f10e0303    ....    ADD      r3,lr,#3
        0x0001ab7c:    fa22f505    "...    LSR      r5,r2,r5
        0x0001ab80:    f1be041d    ....    SUBS     r4,lr,#0x1d
        0x0001ab84:    bf58        X.      IT       PL
        0x0001ab86:    fa02f504    ....    LSLPL    r5,r2,r4
        0x0001ab8a:    fa02f203    ....    LSL      r2,r2,r3
        0x0001ab8e:    bf58        X.      IT       PL
        0x0001ab90:    2200        ."      MOVPL    r2,#0
        0x0001ab92:    4329        )C      ORRS     r1,r1,r5
        0x0001ab94:    4310        .C      ORRS     r0,r0,r2
        0x0001ab96:    ea5f720c    _..r    LSLS     r2,r12,#28
        0x0001ab9a:    f57faf7e    ..~.    BPL      0x1aa9a ; get_raw_dcu_mask + 70
        0x0001ab9e:    f10e0206    ....    ADD      r2,lr,#6
        0x0001aba2:    2407        .$      MOVS     r4,#7
        0x0001aba4:    f1ce051a    ....    RSB      r5,lr,#0x1a
        0x0001aba8:    fa24f505    $...    LSR      r5,r4,r5
        0x0001abac:    fa04f202    ....    LSL      r2,r4,r2
        0x0001abb0:    f1be031a    ....    SUBS     r3,lr,#0x1a
        0x0001abb4:    bf58        X.      IT       PL
        0x0001abb6:    fa04f503    ....    LSLPL    r5,r4,r3
        0x0001abba:    bf58        X.      IT       PL
        0x0001abbc:    2200        ."      MOVPL    r2,#0
        0x0001abbe:    4329        )C      ORRS     r1,r1,r5
        0x0001abc0:    4310        .C      ORRS     r0,r0,r2
        0x0001abc2:    ea5f62cc    _..b    LSLS     r2,r12,#27
        0x0001abc6:    f57faf6c    ..l.    BPL      0x1aaa2 ; get_raw_dcu_mask + 78
        0x0001abca:    f10e0209    ....    ADD      r2,lr,#9
        0x0001abce:    2407        .$      MOVS     r4,#7
        0x0001abd0:    f1ce0517    ....    RSB      r5,lr,#0x17
        0x0001abd4:    fa24f505    $...    LSR      r5,r4,r5
        0x0001abd8:    fa04f202    ....    LSL      r2,r4,r2
        0x0001abdc:    f1be0317    ....    SUBS     r3,lr,#0x17
        0x0001abe0:    bf58        X.      IT       PL
        0x0001abe2:    fa04f503    ....    LSLPL    r5,r4,r3
        0x0001abe6:    bf58        X.      IT       PL
        0x0001abe8:    2200        ."      MOVPL    r2,#0
        0x0001abea:    4329        )C      ORRS     r1,r1,r5
        0x0001abec:    4310        .C      ORRS     r0,r0,r2
        0x0001abee:    ea5f628c    _..b    LSLS     r2,r12,#26
        0x0001abf2:    f57faf5a    ..Z.    BPL      0x1aaaa ; get_raw_dcu_mask + 86
        0x0001abf6:    f10e020c    ....    ADD      r2,lr,#0xc
        0x0001abfa:    2407        .$      MOVS     r4,#7
        0x0001abfc:    f1ce0514    ....    RSB      r5,lr,#0x14
        0x0001ac00:    fa24f505    $...    LSR      r5,r4,r5
        0x0001ac04:    fa04f202    ....    LSL      r2,r4,r2
        0x0001ac08:    f1be0314    ....    SUBS     r3,lr,#0x14
        0x0001ac0c:    bf58        X.      IT       PL
        0x0001ac0e:    fa04f503    ....    LSLPL    r5,r4,r3
        0x0001ac12:    bf58        X.      IT       PL
        0x0001ac14:    2200        ."      MOVPL    r2,#0
        0x0001ac16:    4329        )C      ORRS     r1,r1,r5
        0x0001ac18:    4310        .C      ORRS     r0,r0,r2
        0x0001ac1a:    ea5f624c    _.Lb    LSLS     r2,r12,#25
        0x0001ac1e:    f57faf48    ..H.    BPL      0x1aab2 ; get_raw_dcu_mask + 94
        0x0001ac22:    f10e020f    ....    ADD      r2,lr,#0xf
        0x0001ac26:    2407        .$      MOVS     r4,#7
        0x0001ac28:    f1ce0511    ....    RSB      r5,lr,#0x11
        0x0001ac2c:    fa24f505    $...    LSR      r5,r4,r5
        0x0001ac30:    fa04f202    ....    LSL      r2,r4,r2
        0x0001ac34:    f1be0311    ....    SUBS     r3,lr,#0x11
        0x0001ac38:    bf58        X.      IT       PL
        0x0001ac3a:    fa04f503    ....    LSLPL    r5,r4,r3
        0x0001ac3e:    bf58        X.      IT       PL
        0x0001ac40:    2200        ."      MOVPL    r2,#0
        0x0001ac42:    4329        )C      ORRS     r1,r1,r5
        0x0001ac44:    4310        .C      ORRS     r0,r0,r2
        0x0001ac46:    ea5f620c    _..b    LSLS     r2,r12,#24
        0x0001ac4a:    f57faf36    ..6.    BPL      0x1aaba ; get_raw_dcu_mask + 102
        0x0001ac4e:    f10e0212    ....    ADD      r2,lr,#0x12
        0x0001ac52:    2407        .$      MOVS     r4,#7
        0x0001ac54:    f1ce050e    ....    RSB      r5,lr,#0xe
        0x0001ac58:    fa24f505    $...    LSR      r5,r4,r5
        0x0001ac5c:    fa04f202    ....    LSL      r2,r4,r2
        0x0001ac60:    f1be030e    ....    SUBS     r3,lr,#0xe
        0x0001ac64:    bf58        X.      IT       PL
        0x0001ac66:    fa04f503    ....    LSLPL    r5,r4,r3
        0x0001ac6a:    bf58        X.      IT       PL
        0x0001ac6c:    2200        ."      MOVPL    r2,#0
        0x0001ac6e:    4329        )C      ORRS     r1,r1,r5
        0x0001ac70:    4310        .C      ORRS     r0,r0,r2
        0x0001ac72:    ea5f52cc    _..R    LSLS     r2,r12,#23
        0x0001ac76:    f57faf24    ..$.    BPL      0x1aac2 ; get_raw_dcu_mask + 110
        0x0001ac7a:    f10e0215    ....    ADD      r2,lr,#0x15
        0x0001ac7e:    2407        .$      MOVS     r4,#7
        0x0001ac80:    f1ce050b    ....    RSB      r5,lr,#0xb
        0x0001ac84:    fa24f505    $...    LSR      r5,r4,r5
        0x0001ac88:    fa04f202    ....    LSL      r2,r4,r2
        0x0001ac8c:    f1be030b    ....    SUBS     r3,lr,#0xb
        0x0001ac90:    bf58        X.      IT       PL
        0x0001ac92:    fa04f503    ....    LSLPL    r5,r4,r3
        0x0001ac96:    bf58        X.      IT       PL
        0x0001ac98:    2200        ."      MOVPL    r2,#0
        0x0001ac9a:    4329        )C      ORRS     r1,r1,r5
        0x0001ac9c:    4310        .C      ORRS     r0,r0,r2
        0x0001ac9e:    ea5f528c    _..R    LSLS     r2,r12,#22
        0x0001aca2:    f57faf12    ....    BPL      0x1aaca ; get_raw_dcu_mask + 118
        0x0001aca6:    f10e0218    ....    ADD      r2,lr,#0x18
        0x0001acaa:    2407        .$      MOVS     r4,#7
        0x0001acac:    f1ce0508    ....    RSB      r5,lr,#8
        0x0001acb0:    fa24f505    $...    LSR      r5,r4,r5
        0x0001acb4:    fa04f202    ....    LSL      r2,r4,r2
        0x0001acb8:    f1be0308    ....    SUBS     r3,lr,#8
        0x0001acbc:    bf58        X.      IT       PL
        0x0001acbe:    fa04f503    ....    LSLPL    r5,r4,r3
        0x0001acc2:    bf58        X.      IT       PL
        0x0001acc4:    2200        ."      MOVPL    r2,#0
        0x0001acc6:    4329        )C      ORRS     r1,r1,r5
        0x0001acc8:    4310        .C      ORRS     r0,r0,r2
        0x0001acca:    ea5f524c    _.LR    LSLS     r2,r12,#21
        0x0001acce:    f57faf00    ....    BPL      0x1aad2 ; get_raw_dcu_mask + 126
        0x0001acd2:    f10e021b    ....    ADD      r2,lr,#0x1b
        0x0001acd6:    2407        .$      MOVS     r4,#7
        0x0001acd8:    f1ce0505    ....    RSB      r5,lr,#5
        0x0001acdc:    fa24f505    $...    LSR      r5,r4,r5
        0x0001ace0:    fa04f202    ....    LSL      r2,r4,r2
        0x0001ace4:    f1be0305    ....    SUBS     r3,lr,#5
        0x0001ace8:    bf58        X.      IT       PL
        0x0001acea:    fa04f503    ....    LSLPL    r5,r4,r3
        0x0001acee:    bf58        X.      IT       PL
        0x0001acf0:    2200        ."      MOVPL    r2,#0
        0x0001acf2:    4329        )C      ORRS     r1,r1,r5
        0x0001acf4:    4310        .C      ORRS     r0,r0,r2
        0x0001acf6:    ea5f520c    _..R    LSLS     r2,r12,#20
        0x0001acfa:    f57faeee    ....    BPL      0x1aada ; get_raw_dcu_mask + 134
        0x0001acfe:    f10e021e    ....    ADD      r2,lr,#0x1e
        0x0001ad02:    2407        .$      MOVS     r4,#7
        0x0001ad04:    f1ce0502    ....    RSB      r5,lr,#2
        0x0001ad08:    fa24f505    $...    LSR      r5,r4,r5
        0x0001ad0c:    fa04f202    ....    LSL      r2,r4,r2
        0x0001ad10:    f1be0302    ....    SUBS     r3,lr,#2
        0x0001ad14:    bf58        X.      IT       PL
        0x0001ad16:    fa04f503    ....    LSLPL    r5,r4,r3
        0x0001ad1a:    bf58        X.      IT       PL
        0x0001ad1c:    2200        ."      MOVPL    r2,#0
        0x0001ad1e:    4329        )C      ORRS     r1,r1,r5
        0x0001ad20:    4310        .C      ORRS     r0,r0,r2
        0x0001ad22:    ea5f42cc    _..B    LSLS     r2,r12,#19
        0x0001ad26:    f57faedc    ....    BPL      0x1aae2 ; get_raw_dcu_mask + 142
        0x0001ad2a:    f10e0221    ..!.    ADD      r2,lr,#0x21
        0x0001ad2e:    2407        .$      MOVS     r4,#7
        0x0001ad30:    ea6f050e    o...    MVN      r5,lr
        0x0001ad34:    fa24f505    $...    LSR      r5,r4,r5
        0x0001ad38:    fa04f202    ....    LSL      r2,r4,r2
        0x0001ad3c:    f11e0301    ....    ADDS     r3,lr,#1
        0x0001ad40:    bf58        X.      IT       PL
        0x0001ad42:    fa04f503    ....    LSLPL    r5,r4,r3
        0x0001ad46:    bf58        X.      IT       PL
        0x0001ad48:    2200        ."      MOVPL    r2,#0
        0x0001ad4a:    4329        )C      ORRS     r1,r1,r5
        0x0001ad4c:    4310        .C      ORRS     r0,r0,r2
        0x0001ad4e:    ea5f428c    _..B    LSLS     r2,r12,#18
        0x0001ad52:    f57faeca    ....    BPL      0x1aaea ; get_raw_dcu_mask + 150
        0x0001ad56:    f06f0503    o...    MVN      r5,#3
        0x0001ad5a:    f10e0224    ..$.    ADD      r2,lr,#0x24
        0x0001ad5e:    2407        .$      MOVS     r4,#7
        0x0001ad60:    eba5050e    ....    SUB      r5,r5,lr
        0x0001ad64:    fa24f505    $...    LSR      r5,r4,r5
        0x0001ad68:    fa04f202    ....    LSL      r2,r4,r2
        0x0001ad6c:    f11e0304    ....    ADDS     r3,lr,#4
        0x0001ad70:    bf58        X.      IT       PL
        0x0001ad72:    fa04f503    ....    LSLPL    r5,r4,r3
        0x0001ad76:    bf58        X.      IT       PL
        0x0001ad78:    2200        ."      MOVPL    r2,#0
        0x0001ad7a:    4329        )C      ORRS     r1,r1,r5
        0x0001ad7c:    4310        .C      ORRS     r0,r0,r2
        0x0001ad7e:    ea5f424c    _.LB    LSLS     r2,r12,#17
        0x0001ad82:    f57faeb6    ....    BPL      0x1aaf2 ; get_raw_dcu_mask + 158
        0x0001ad86:    f06f0506    o...    MVN      r5,#6
        0x0001ad8a:    f10e0227    ..'.    ADD      r2,lr,#0x27
        0x0001ad8e:    2407        .$      MOVS     r4,#7
        0x0001ad90:    eba5050e    ....    SUB      r5,r5,lr
        0x0001ad94:    fa24f505    $...    LSR      r5,r4,r5
        0x0001ad98:    fa04f202    ....    LSL      r2,r4,r2
        0x0001ad9c:    f11e0307    ....    ADDS     r3,lr,#7
        0x0001ada0:    bf58        X.      IT       PL
        0x0001ada2:    fa04f503    ....    LSLPL    r5,r4,r3
        0x0001ada6:    bf58        X.      IT       PL
        0x0001ada8:    2200        ."      MOVPL    r2,#0
        0x0001adaa:    4329        )C      ORRS     r1,r1,r5
        0x0001adac:    4310        .C      ORRS     r0,r0,r2
        0x0001adae:    ea5f420c    _..B    LSLS     r2,r12,#16
        0x0001adb2:    f57faea2    ....    BPL      0x1aafa ; get_raw_dcu_mask + 166
        0x0001adb6:    f06f0509    o...    MVN      r5,#9
        0x0001adba:    f10e022a    ..*.    ADD      r2,lr,#0x2a
        0x0001adbe:    2407        .$      MOVS     r4,#7
        0x0001adc0:    eba5050e    ....    SUB      r5,r5,lr
        0x0001adc4:    fa24f505    $...    LSR      r5,r4,r5
        0x0001adc8:    fa04f202    ....    LSL      r2,r4,r2
        0x0001adcc:    f11e030a    ....    ADDS     r3,lr,#0xa
        0x0001add0:    bf58        X.      IT       PL
        0x0001add2:    fa04f503    ....    LSLPL    r5,r4,r3
        0x0001add6:    bf58        X.      IT       PL
        0x0001add8:    2200        ."      MOVPL    r2,#0
        0x0001adda:    4329        )C      ORRS     r1,r1,r5
        0x0001addc:    4310        .C      ORRS     r0,r0,r2
        0x0001adde:    ea5f32cc    _..2    LSLS     r2,r12,#15
        0x0001ade2:    f57fae8e    ....    BPL      0x1ab02 ; get_raw_dcu_mask + 174
        0x0001ade6:    f06f050c    o...    MVN      r5,#0xc
        0x0001adea:    f10e022d    ..-.    ADD      r2,lr,#0x2d
        0x0001adee:    2407        .$      MOVS     r4,#7
        0x0001adf0:    eba5050e    ....    SUB      r5,r5,lr
        0x0001adf4:    fa24f505    $...    LSR      r5,r4,r5
        0x0001adf8:    fa04f202    ....    LSL      r2,r4,r2
        0x0001adfc:    f11e030d    ....    ADDS     r3,lr,#0xd
        0x0001ae00:    bf58        X.      IT       PL
        0x0001ae02:    fa04f503    ....    LSLPL    r5,r4,r3
        0x0001ae06:    bf58        X.      IT       PL
        0x0001ae08:    2200        ."      MOVPL    r2,#0
        0x0001ae0a:    4329        )C      ORRS     r1,r1,r5
        0x0001ae0c:    4310        .C      ORRS     r0,r0,r2
        0x0001ae0e:    ea5f328c    _..2    LSLS     r2,r12,#14
        0x0001ae12:    f57fae7a    ..z.    BPL      0x1ab0a ; get_raw_dcu_mask + 182
        0x0001ae16:    f06f050f    o...    MVN      r5,#0xf
        0x0001ae1a:    f10e0230    ..0.    ADD      r2,lr,#0x30
        0x0001ae1e:    2407        .$      MOVS     r4,#7
        0x0001ae20:    eba5050e    ....    SUB      r5,r5,lr
        0x0001ae24:    fa24f505    $...    LSR      r5,r4,r5
        0x0001ae28:    fa04f202    ....    LSL      r2,r4,r2
        0x0001ae2c:    f11e0310    ....    ADDS     r3,lr,#0x10
        0x0001ae30:    bf58        X.      IT       PL
        0x0001ae32:    fa04f503    ....    LSLPL    r5,r4,r3
        0x0001ae36:    bf58        X.      IT       PL
        0x0001ae38:    2200        ."      MOVPL    r2,#0
        0x0001ae3a:    4329        )C      ORRS     r1,r1,r5
        0x0001ae3c:    4310        .C      ORRS     r0,r0,r2
        0x0001ae3e:    ea5f324c    _.L2    LSLS     r2,r12,#13
        0x0001ae42:    f57fae66    ..f.    BPL      0x1ab12 ; get_raw_dcu_mask + 190
        0x0001ae46:    f06f0512    o...    MVN      r5,#0x12
        0x0001ae4a:    f10e0233    ..3.    ADD      r2,lr,#0x33
        0x0001ae4e:    2407        .$      MOVS     r4,#7
        0x0001ae50:    eba5050e    ....    SUB      r5,r5,lr
        0x0001ae54:    fa24f505    $...    LSR      r5,r4,r5
        0x0001ae58:    fa04f202    ....    LSL      r2,r4,r2
        0x0001ae5c:    f11e0313    ....    ADDS     r3,lr,#0x13
        0x0001ae60:    bf58        X.      IT       PL
        0x0001ae62:    fa04f503    ....    LSLPL    r5,r4,r3
        0x0001ae66:    bf58        X.      IT       PL
        0x0001ae68:    2200        ."      MOVPL    r2,#0
        0x0001ae6a:    4329        )C      ORRS     r1,r1,r5
        0x0001ae6c:    4310        .C      ORRS     r0,r0,r2
        0x0001ae6e:    ea5f320c    _..2    LSLS     r2,r12,#12
        0x0001ae72:    f57fae65    ..e.    BPL      0x1ab40 ; get_raw_dcu_mask + 236
        0x0001ae76:    e64f        O.      B        0x1ab18 ; get_raw_dcu_mask + 196
    get_ui32_dcu_mask
        0x0001ae78:    f2401320    @. .    MOVW     r3,#0x120
        0x0001ae7c:    f2c10300    ....    MOVT     r3,#0x1000
        0x0001ae80:    f8d3c000    ....    LDR      r12,[r3,#0]
        0x0001ae84:    f1cc0320    .. .    RSB      r3,r12,#0x20
        0x0001ae88:    fa20f00c     ...    LSR      r0,r0,r12
        0x0001ae8c:    fa01f303    ....    LSL      r3,r1,r3
        0x0001ae90:    4303        .C      ORRS     r3,r3,r0
        0x0001ae92:    f1bc0020    .. .    SUBS     r0,r12,#0x20
        0x0001ae96:    bf58        X.      IT       PL
        0x0001ae98:    fa21f300    !...    LSRPL    r3,r1,r0
        0x0001ae9c:    f0030007    ....    AND      r0,r3,#7
        0x0001aea0:    ea800002    ....    EOR      r0,r0,r2
        0x0001aea4:    fa21fc0c    !...    LSR      r12,r1,r12
        0x0001aea8:    fab0f080    ....    CLZ      r0,r0
        0x0001aeac:    f3c301c2    ....    UBFX     r1,r3,#3,#3
        0x0001aeb0:    bf58        X.      IT       PL
        0x0001aeb2:    f04f0c00    O...    MOVPL    r12,#0
        0x0001aeb6:    0940        @.      LSRS     r0,r0,#5
        0x0001aeb8:    4051        Q@      EORS     r1,r1,r2
        0x0001aeba:    f3c31182    ....    UBFX     r1,r3,#6,#3
        0x0001aebe:    bf08        ..      IT       EQ
        0x0001aec0:    3002        .0      ADDEQ    r0,#2
        0x0001aec2:    4051        Q@      EORS     r1,r1,r2
        0x0001aec4:    f3c32142    ..B!    UBFX     r1,r3,#9,#3
        0x0001aec8:    bf08        ..      IT       EQ
        0x0001aeca:    3004        .0      ADDEQ    r0,#4
        0x0001aecc:    4051        Q@      EORS     r1,r1,r2
        0x0001aece:    f3c33102    ...1    UBFX     r1,r3,#12,#3
        0x0001aed2:    bf08        ..      IT       EQ
        0x0001aed4:    3008        .0      ADDEQ    r0,r0,#8
        0x0001aed6:    4051        Q@      EORS     r1,r1,r2
        0x0001aed8:    f3c331c2    ...1    UBFX     r1,r3,#15,#3
        0x0001aedc:    bf08        ..      IT       EQ
        0x0001aede:    f0400010    @...    ORREQ    r0,r0,#0x10
        0x0001aee2:    4051        Q@      EORS     r1,r1,r2
        0x0001aee4:    f3c34182    ...A    UBFX     r1,r3,#18,#3
        0x0001aee8:    bf08        ..      IT       EQ
        0x0001aeea:    f0400020    @. .    ORREQ    r0,r0,#0x20
        0x0001aeee:    4051        Q@      EORS     r1,r1,r2
        0x0001aef0:    f3c35142    ..BQ    UBFX     r1,r3,#21,#3
        0x0001aef4:    bf08        ..      IT       EQ
        0x0001aef6:    f0400040    @.@.    ORREQ    r0,r0,#0x40
        0x0001aefa:    4051        Q@      EORS     r1,r1,r2
        0x0001aefc:    f3c36102    ...a    UBFX     r1,r3,#24,#3
        0x0001af00:    bf08        ..      IT       EQ
        0x0001af02:    f0400080    @...    ORREQ    r0,r0,#0x80
        0x0001af06:    4051        Q@      EORS     r1,r1,r2
        0x0001af08:    f3c361c2    ...a    UBFX     r1,r3,#27,#3
        0x0001af0c:    bf08        ..      IT       EQ
        0x0001af0e:    f4407080    @..p    ORREQ    r0,r0,#0x100
        0x0001af12:    4051        Q@      EORS     r1,r1,r2
        0x0001af14:    ea4f7193    O..q    LSR      r1,r3,#30
        0x0001af18:    ea41018c    A...    ORR      r1,r1,r12,LSL #2
        0x0001af1c:    bf08        ..      IT       EQ
        0x0001af1e:    f4407000    @..p    ORREQ    r0,r0,#0x200
        0x0001af22:    f0010107    ....    AND      r1,r1,#7
        0x0001af26:    4051        Q@      EORS     r1,r1,r2
        0x0001af28:    bf08        ..      IT       EQ
        0x0001af2a:    f4406080    @..`    ORREQ    r0,r0,#0x400
        0x0001af2e:    f3cc0142    ..B.    UBFX     r1,r12,#1,#3
        0x0001af32:    4051        Q@      EORS     r1,r1,r2
        0x0001af34:    bf08        ..      IT       EQ
        0x0001af36:    f4406000    @..`    ORREQ    r0,r0,#0x800
        0x0001af3a:    f3cc1102    ....    UBFX     r1,r12,#4,#3
        0x0001af3e:    4051        Q@      EORS     r1,r1,r2
        0x0001af40:    bf08        ..      IT       EQ
        0x0001af42:    f4405080    @..P    ORREQ    r0,r0,#0x1000
        0x0001af46:    f3cc11c2    ....    UBFX     r1,r12,#7,#3
        0x0001af4a:    4051        Q@      EORS     r1,r1,r2
        0x0001af4c:    bf08        ..      IT       EQ
        0x0001af4e:    f4405000    @..P    ORREQ    r0,r0,#0x2000
        0x0001af52:    f3cc2182    ...!    UBFX     r1,r12,#10,#3
        0x0001af56:    4051        Q@      EORS     r1,r1,r2
        0x0001af58:    bf08        ..      IT       EQ
        0x0001af5a:    f4404080    @..@    ORREQ    r0,r0,#0x4000
        0x0001af5e:    f3cc3142    ..B1    UBFX     r1,r12,#13,#3
        0x0001af62:    4051        Q@      EORS     r1,r1,r2
        0x0001af64:    bf08        ..      IT       EQ
        0x0001af66:    f4404000    @..@    ORREQ    r0,r0,#0x8000
        0x0001af6a:    f3cc4102    ...A    UBFX     r1,r12,#16,#3
        0x0001af6e:    4051        Q@      EORS     r1,r1,r2
        0x0001af70:    bf08        ..      IT       EQ
        0x0001af72:    f4403080    @..0    ORREQ    r0,r0,#0x10000
        0x0001af76:    f3cc41c2    ...A    UBFX     r1,r12,#19,#3
        0x0001af7a:    4051        Q@      EORS     r1,r1,r2
        0x0001af7c:    bf08        ..      IT       EQ
        0x0001af7e:    f4403000    @..0    ORREQ    r0,r0,#0x20000
        0x0001af82:    f3cc5182    ...Q    UBFX     r1,r12,#22,#3
        0x0001af86:    4051        Q@      EORS     r1,r1,r2
        0x0001af88:    bf08        ..      IT       EQ
        0x0001af8a:    f4402080    @..     ORREQ    r0,r0,#0x40000
        0x0001af8e:    f3cc6142    ..Ba    UBFX     r1,r12,#25,#3
        0x0001af92:    4051        Q@      EORS     r1,r1,r2
        0x0001af94:    bf08        ..      IT       EQ
        0x0001af96:    f4402000    @..     ORREQ    r0,r0,#0x80000
        0x0001af9a:    4770        pG      BX       lr
    inform_host
        0x0001af9c:    b580        ..      PUSH     {r7,lr}
        0x0001af9e:    b084        ..      SUB      sp,sp,#0x10
        0x0001afa0:    2001        .       MOVS     r0,#1
        0x0001afa2:    9002        ..      STR      r0,[sp,#8]
        0x0001afa4:    9003        ..      STR      r0,[sp,#0xc]
        0x0001afa6:    f240105c    @.\.    MOVW     r0,#0x15c
        0x0001afaa:    f2c10000    ....    MOVT     r0,#0x1000
        0x0001afae:    9001        ..      STR      r0,[sp,#4]
        0x0001afb0:    6800        .h      LDR      r0,[r0,#0]
        0x0001afb2:    210c        .!      MOVS     r1,#0xc
        0x0001afb4:    2200        ."      MOVS     r2,#0
        0x0001afb6:    9200        ..      STR      r2,[sp,#0]
        0x0001afb8:    f7fdfdf4    ....    BL       am_hal_ios_control ; 0x18ba4
        0x0001afbc:    9900        ..      LDR      r1,[sp,#0]
        0x0001afbe:    9801        ..      LDR      r0,[sp,#4]
        0x0001afc0:    6800        .h      LDR      r0,[r0,#0]
        0x0001afc2:    aa03        ..      ADD      r2,sp,#0xc
        0x0001afc4:    f7fdfdee    ....    BL       am_hal_ios_control ; 0x18ba4
        0x0001afc8:    9902        ..      LDR      r1,[sp,#8]
        0x0001afca:    2011        .       MOVS     r0,#0x11
        0x0001afcc:    f7fdfc92    ....    BL       am_hal_gpio_state_write ; 0x188f4
        0x0001afd0:    b004        ..      ADD      sp,sp,#0x10
        0x0001afd2:    bd80        ..      POP      {r7,pc}
    init_sensors
        0x0001afd4:    b580        ..      PUSH     {r7,lr}
        0x0001afd6:    b094        ..      SUB      sp,sp,#0x50
        0x0001afd8:    a80f        ..      ADD      r0,sp,#0x3c
        0x0001afda:    9000        ..      STR      r0,[sp,#0]
        0x0001afdc:    f7fefe30    ..0.    BL       am_hal_timer_default_config_set ; 0x19c40
        0x0001afe0:    9900        ..      LDR      r1,[sp,#0]
        0x0001afe2:    2005        .       MOVS     r0,#5
        0x0001afe4:    9002        ..      STR      r0,[sp,#8]
        0x0001afe6:    f88d003c    ..<.    STRB     r0,[sp,#0x3c]
        0x0001afea:    2002        .       MOVS     r0,#2
        0x0001afec:    9004        ..      STR      r0,[sp,#0x10]
        0x0001afee:    f88d003d    ..=.    STRB     r0,[sp,#0x3d]
        0x0001aff2:    f44f60fa    O..`    MOV      r0,#0x7d0
        0x0001aff6:    9012        ..      STR      r0,[sp,#0x48]
        0x0001aff8:    2000        .       MOVS     r0,#0
        0x0001affa:    9001        ..      STR      r0,[sp,#4]
        0x0001affc:    f7fefe1e    ....    BL       am_hal_timer_config ; 0x19c3c
        0x0001b000:    9801        ..      LDR      r0,[sp,#4]
        0x0001b002:    f7fefdfd    ....    BL       am_hal_timer_clear_stop ; 0x19c00
        0x0001b006:    a80a        ..      ADD      r0,sp,#0x28
        0x0001b008:    9003        ..      STR      r0,[sp,#0xc]
        0x0001b00a:    f7fefe19    ....    BL       am_hal_timer_default_config_set ; 0x19c40
        0x0001b00e:    9a02        ..      LDR      r2,[sp,#8]
        0x0001b010:    9903        ..      LDR      r1,[sp,#0xc]
        0x0001b012:    9804        ..      LDR      r0,[sp,#0x10]
        0x0001b014:    f88d2028    ..(     STRB     r2,[sp,#0x28]
        0x0001b018:    f88d0029    ..).    STRB     r0,[sp,#0x29]
        0x0001b01c:    f6405264    @.dR    MOV      r2,#0xd64
        0x0001b020:    920d        ..      STR      r2,[sp,#0x34]
        0x0001b022:    f7fefe0b    ....    BL       am_hal_timer_config ; 0x19c3c
        0x0001b026:    9804        ..      LDR      r0,[sp,#0x10]
        0x0001b028:    f7fefdea    ....    BL       am_hal_timer_clear_stop ; 0x19c00
        0x0001b02c:    2001        .       MOVS     r0,#1
        0x0001b02e:    9005        ..      STR      r0,[sp,#0x14]
        0x0001b030:    f7fefe56    ..V.    BL       am_hal_timer_interrupt_clear ; 0x19ce0
        0x0001b034:    2010        .       MOVS     r0,#0x10
        0x0001b036:    9006        ..      STR      r0,[sp,#0x18]
        0x0001b038:    f7fefe52    ..R.    BL       am_hal_timer_interrupt_clear ; 0x19ce0
        0x0001b03c:    9805        ..      LDR      r0,[sp,#0x14]
        0x0001b03e:    f7fefe57    ..W.    BL       am_hal_timer_interrupt_enable ; 0x19cf0
        0x0001b042:    9806        ..      LDR      r0,[sp,#0x18]
        0x0001b044:    f7fefe54    ..T.    BL       am_hal_timer_interrupt_enable ; 0x19cf0
        0x0001b048:    2043        C       MOVS     r0,#0x43
        0x0001b04a:    9008        ..      STR      r0,[sp,#0x20]
        0x0001b04c:    2104        .!      MOVS     r1,#4
        0x0001b04e:    9107        ..      STR      r1,[sp,#0x1c]
        0x0001b050:    f7fdf9a2    ....    BL       __NVIC_SetPriority ; 0x18398
        0x0001b054:    9907        ..      LDR      r1,[sp,#0x1c]
        0x0001b056:    2045        E       MOVS     r0,#0x45
        0x0001b058:    9009        ..      STR      r0,[sp,#0x24]
        0x0001b05a:    f7fdf99d    ....    BL       __NVIC_SetPriority ; 0x18398
        0x0001b05e:    9808        ..      LDR      r0,[sp,#0x20]
        0x0001b060:    f7fdf982    ....    BL       __NVIC_EnableIRQ ; 0x18368
        0x0001b064:    9809        ..      LDR      r0,[sp,#0x24]
        0x0001b066:    f7fdf97f    ....    BL       __NVIC_EnableIRQ ; 0x18368
        0x0001b06a:    f7fdfccd    ....    BL       am_hal_interrupt_master_enable ; 0x18a08
        0x0001b06e:    b014        ..      ADD      sp,sp,#0x50
        0x0001b070:    bd80        ..      POP      {r7,pc}
        0x0001b072:    0000        ..      MOVS     r0,r0
    internal_timer_config
        0x0001b074:    b5f0        ..      PUSH     {r4-r7,lr}
        0x0001b076:    784c        Lx      LDRB     r4,[r1,#1]
        0x0001b078:    2207        ."      MOVS     r2,#7
        0x0001b07a:    1e65        e.      SUBS     r5,r4,#1
        0x0001b07c:    2d0c        .-      CMP      r5,#0xc
        0x0001b07e:    d842        B.      BHI      0x1b106 ; internal_timer_config + 146
        0x0001b080:    f1010e08    ....    ADD      lr,r1,#8
        0x0001b084:    e89e5008    ...P    LDM      lr,{r3,r12,lr}
        0x0001b088:    e8dff005    ....    TBB      [pc,r5]
    $d.1
        0x0001b08c:    0c3d0c40    @.=.    DCD    205327424
        0x0001b090:    3d3d3d3d    ====    DCD    1027423549
        0x0001b094:    083d3d3d    ===.    DCD    138231101
        0x0001b098:    bf000008    ....    DCD    3204448264
    $t.2
        0x0001b09c:    2b3f        ?+      CMP      r3,#0x3f
        0x0001b09e:    bf84        ..      ITT      HI
        0x0001b0a0:    2007        .       MOVHI    r0,#7
        0x0001b0a2:    bdf0        ..      POPHI    {r4-r7,pc}
        0x0001b0a4:    0122        ".      LSLS     r2,r4,#4
        0x0001b0a6:    780c        .x      LDRB     r4,[r1,#0]
        0x0001b0a8:    78ce        .x      LDRB     r6,[r1,#3]
        0x0001b0aa:    b2d2        ..      UXTB     r2,r2
        0x0001b0ac:    788d        .x      LDRB     r5,[r1,#2]
        0x0001b0ae:    ea422204    B.."    ORR      r2,r2,r4,LSL #8
        0x0001b0b2:    f006041f    ....    AND      r4,r6,#0x1f
        0x0001b0b6:    790f        .y      LDRB     r7,[r1,#4]
        0x0001b0b8:    ea4202c4    B...    ORR      r2,r2,r4,LSL #3
        0x0001b0bc:    f005043f    ..?.    AND      r4,r5,#0x3f
        0x0001b0c0:    ea420284    B...    ORR      r2,r2,r4,LSL #2
        0x0001b0c4:    f3674211    g..B    BFI      r2,r7,#16,#2
        0x0001b0c8:    ea426203    B..b    ORR      r2,r2,r3,LSL #24
        0x0001b0cc:    f2480300    H...    MOVW     r3,#0x8000
        0x0001b0d0:    f2c40300    ....    MOVT     r3,#0x4000
        0x0001b0d4:    eb031040    ..@.    ADD      r0,r3,r0,LSL #5
        0x0001b0d8:    7949        Iy      LDRB     r1,[r1,#5]
        0x0001b0da:    f8d03200    ...2    LDR      r3,[r0,#0x200]
        0x0001b0de:    0209        ..      LSLS     r1,r1,#8
        0x0001b0e0:    f0230301    #...    BIC      r3,r3,#1
        0x0001b0e4:    f8c03200    ...2    STR      r3,[r0,#0x200]
        0x0001b0e8:    f8c02200    ..."    STR      r2,[r0,#0x200]
        0x0001b0ec:    f8c01210    ....    STR      r1,[r0,#0x210]
        0x0001b0f0:    f8c0c208    ....    STR      r12,[r0,#0x208]
        0x0001b0f4:    f8c0e20c    ....    STR      lr,[r0,#0x20c]
        0x0001b0f8:    f8d01200    ....    LDR      r1,[r0,#0x200]
        0x0001b0fc:    2200        ."      MOVS     r2,#0
        0x0001b0fe:    f0410102    A...    ORR      r1,r1,#2
        0x0001b102:    f8c01200    ....    STR      r1,[r0,#0x200]
        0x0001b106:    4610        .F      MOV      r0,r2
        0x0001b108:    bdf0        ..      POP      {r4-r7,pc}
        0x0001b10a:    bf00        ..      NOP      
        0x0001b10c:    f11e0201    ....    ADDS     r2,lr,#1
        0x0001b110:    d0c8        ..      BEQ      0x1b0a4 ; internal_timer_config + 48
        0x0001b112:    45f4        .E      CMP      r12,lr
        0x0001b114:    bf9c        ..      ITT      LS
        0x0001b116:    2007        .       MOVLS    r0,#7
        0x0001b118:    bdf0        ..      POPLS    {r4-r7,pc}
        0x0001b11a:    e7c3        ..      B        0x1b0a4 ; internal_timer_config + 48
    ios_set_up
        0x0001b11c:    b580        ..      PUSH     {r7,lr}
        0x0001b11e:    b088        ..      SUB      sp,sp,#0x20
        0x0001b120:    f88d001f    ....    STRB     r0,[sp,#0x1f]
        0x0001b124:    f89d001f    ....    LDRB     r0,[sp,#0x1f]
        0x0001b128:    07c0        ..      LSLS     r0,r0,#31
        0x0001b12a:    b1e0        ..      CBZ      r0,0x1b166 ; ios_set_up + 74
        0x0001b12c:    e7ff        ..      B        0x1b12e ; ios_set_up + 18
        0x0001b12e:    2000        .       MOVS     r0,#0
        0x0001b130:    9005        ..      STR      r0,[sp,#0x14]
        0x0001b132:    2101        .!      MOVS     r1,#1
        0x0001b134:    f7fdf952    ..R.    BL       am_bsp_ios_pins_enable ; 0x183dc
        0x0001b138:    9805        ..      LDR      r0,[sp,#0x14]
        0x0001b13a:    f240115c    @.\.    MOVW     r1,#0x15c
        0x0001b13e:    f2c10100    ....    MOVT     r1,#0x1000
        0x0001b142:    9106        ..      STR      r1,[sp,#0x18]
        0x0001b144:    f7fdffdc    ....    BL       am_hal_ios_initialize ; 0x19100
        0x0001b148:    9a05        ..      LDR      r2,[sp,#0x14]
        0x0001b14a:    9806        ..      LDR      r0,[sp,#0x18]
        0x0001b14c:    6800        .h      LDR      r0,[r0,#0]
        0x0001b14e:    4611        .F      MOV      r1,r2
        0x0001b150:    f7fefa2c    ..,.    BL       am_hal_ios_power_ctrl ; 0x195ac
        0x0001b154:    9806        ..      LDR      r0,[sp,#0x18]
        0x0001b156:    6800        .h      LDR      r0,[r0,#0]
        0x0001b158:    f2400164    @.d.    MOVW     r1,#0x64
        0x0001b15c:    f2c10100    ....    MOVT     r1,#0x1000
        0x0001b160:    f7fdfc5a    ..Z.    BL       am_hal_ios_configure ; 0x18a18
        0x0001b164:    e01b        ..      B        0x1b19e ; ios_set_up + 130
        0x0001b166:    2100        .!      MOVS     r1,#0
        0x0001b168:    9103        ..      STR      r1,[sp,#0xc]
        0x0001b16a:    4608        .F      MOV      r0,r1
        0x0001b16c:    f7fdf936    ..6.    BL       am_bsp_ios_pins_enable ; 0x183dc
        0x0001b170:    9803        ..      LDR      r0,[sp,#0xc]
        0x0001b172:    f240115c    @.\.    MOVW     r1,#0x15c
        0x0001b176:    f2c10100    ....    MOVT     r1,#0x1000
        0x0001b17a:    9104        ..      STR      r1,[sp,#0x10]
        0x0001b17c:    f7fdffc0    ....    BL       am_hal_ios_initialize ; 0x19100
        0x0001b180:    9a03        ..      LDR      r2,[sp,#0xc]
        0x0001b182:    9804        ..      LDR      r0,[sp,#0x10]
        0x0001b184:    6800        .h      LDR      r0,[r0,#0]
        0x0001b186:    4611        .F      MOV      r1,r2
        0x0001b188:    f7fefa10    ....    BL       am_hal_ios_power_ctrl ; 0x195ac
        0x0001b18c:    9804        ..      LDR      r0,[sp,#0x10]
        0x0001b18e:    6800        .h      LDR      r0,[r0,#0]
        0x0001b190:    f2400144    @.D.    MOVW     r1,#0x44
        0x0001b194:    f2c10100    ....    MOVT     r1,#0x1000
        0x0001b198:    f7fdfc3e    ..>.    BL       am_hal_ios_configure ; 0x18a18
        0x0001b19c:    e7ff        ..      B        0x1b19e ; ios_set_up + 130
        0x0001b19e:    f240105c    @.\.    MOVW     r0,#0x15c
        0x0001b1a2:    f2c10000    ....    MOVT     r0,#0x1000
        0x0001b1a6:    9000        ..      STR      r0,[sp,#0]
        0x0001b1a8:    6800        .h      LDR      r0,[r0,#0]
        0x0001b1aa:    f04f31ff    O..1    MOV      r1,#0xffffffff
        0x0001b1ae:    f7fdffc3    ....    BL       am_hal_ios_interrupt_clear ; 0x19138
        0x0001b1b2:    9800        ..      LDR      r0,[sp,#0]
        0x0001b1b4:    6800        .h      LDR      r0,[r0,#0]
        0x0001b1b6:    210f        .!      MOVS     r1,#0xf
        0x0001b1b8:    f7fdffd2    ....    BL       am_hal_ios_interrupt_enable ; 0x19160
        0x0001b1bc:    9800        ..      LDR      r0,[sp,#0]
        0x0001b1be:    6800        .h      LDR      r0,[r0,#0]
        0x0001b1c0:    f44f7170    O.pq    MOV      r1,#0x3c0
        0x0001b1c4:    f7fdffcc    ....    BL       am_hal_ios_interrupt_enable ; 0x19160
        0x0001b1c8:    2104        .!      MOVS     r1,#4
        0x0001b1ca:    9101        ..      STR      r1,[sp,#4]
        0x0001b1cc:    4608        .F      MOV      r0,r1
        0x0001b1ce:    f7fdf8e3    ....    BL       __NVIC_SetPriority ; 0x18398
        0x0001b1d2:    9801        ..      LDR      r0,[sp,#4]
        0x0001b1d4:    f7fdf8c8    ....    BL       __NVIC_EnableIRQ ; 0x18368
        0x0001b1d8:    f64b20ec    K..     MOV      r0,#0xbaec
        0x0001b1dc:    f2c00001    ....    MOVT     r0,#1
        0x0001b1e0:    6801        .h      LDR      r1,[r0,#0]
        0x0001b1e2:    2011        .       MOVS     r0,#0x11
        0x0001b1e4:    9002        ..      STR      r0,[sp,#8]
        0x0001b1e6:    f7fdfb59    ..Y.    BL       am_hal_gpio_pinconfig ; 0x1889c
        0x0001b1ea:    9802        ..      LDR      r0,[sp,#8]
        0x0001b1ec:    2100        .!      MOVS     r1,#0
        0x0001b1ee:    f7fdfb81    ....    BL       am_hal_gpio_state_write ; 0x188f4
        0x0001b1f2:    b008        ..      ADD      sp,sp,#0x20
        0x0001b1f4:    bd80        ..      POP      {r7,pc}
        0x0001b1f6:    0000        ..      MOVS     r0,r0
    main
        0x0001b1f8:    b580        ..      PUSH     {r7,lr}
        0x0001b1fa:    b08a        ..      SUB      sp,sp,#0x28
        0x0001b1fc:    2000        .       MOVS     r0,#0
        0x0001b1fe:    9002        ..      STR      r0,[sp,#8]
        0x0001b200:    9009        ..      STR      r0,[sp,#0x24]
        0x0001b202:    f7fdf923    ..#.    BL       am_bsp_itm_printf_enable ; 0x1844c
        0x0001b206:    f7fefe81    ....    BL       am_util_stdio_terminal_clear ; 0x19f0c
        0x0001b20a:    f64b3051    K.Q0    MOV      r0,#0xbb51
        0x0001b20e:    f2c00001    ....    MOVT     r0,#1
        0x0001b212:    f7fefe43    ..C.    BL       am_util_stdio_printf ; 0x19e9c
        0x0001b216:    f64b3034    K.40    MOV      r0,#0xbb34
        0x0001b21a:    f2c00001    ....    MOVT     r0,#1
        0x0001b21e:    f7fefe3d    ..=.    BL       am_util_stdio_printf ; 0x19e9c
        0x0001b222:    f64b3063    K.c0    MOV      r0,#0xbb63
        0x0001b226:    f2c00001    ....    MOVT     r0,#1
        0x0001b22a:    f7fefe37    ..7.    BL       am_util_stdio_printf ; 0x19e9c
        0x0001b22e:    9a02        ..      LDR      r2,[sp,#8]
        0x0001b230:    f64b3042    K.B0    MOV      r0,#0xbb42
        0x0001b234:    f2c00001    ....    MOVT     r0,#1
        0x0001b238:    9001        ..      STR      r0,[sp,#4]
        0x0001b23a:    2108        .!      MOVS     r1,#8
        0x0001b23c:    f7fefe2e    ....    BL       am_util_stdio_printf ; 0x19e9c
        0x0001b240:    9801        ..      LDR      r0,[sp,#4]
        0x0001b242:    2109        .!      MOVS     r1,#9
        0x0001b244:    2201        ."      MOVS     r2,#1
        0x0001b246:    f7fefe29    ..).    BL       am_util_stdio_printf ; 0x19e9c
        0x0001b24a:    9801        ..      LDR      r0,[sp,#4]
        0x0001b24c:    210a        .!      MOVS     r1,#0xa
        0x0001b24e:    2202        ."      MOVS     r2,#2
        0x0001b250:    f7fefe24    ..$.    BL       am_util_stdio_printf ; 0x19e9c
        0x0001b254:    9801        ..      LDR      r0,[sp,#4]
        0x0001b256:    210b        .!      MOVS     r1,#0xb
        0x0001b258:    2203        ."      MOVS     r2,#3
        0x0001b25a:    f7fefe1f    ....    BL       am_util_stdio_printf ; 0x19e9c
        0x0001b25e:    9801        ..      LDR      r0,[sp,#4]
        0x0001b260:    2211        ."      MOVS     r2,#0x11
        0x0001b262:    4611        .F      MOV      r1,r2
        0x0001b264:    f7fefe1a    ....    BL       am_util_stdio_printf ; 0x19e9c
        0x0001b268:    9802        ..      LDR      r0,[sp,#8]
        0x0001b26a:    9008        ..      STR      r0,[sp,#0x20]
        0x0001b26c:    e7ff        ..      B        0x1b26e ; main + 118
        0x0001b26e:    9808        ..      LDR      r0,[sp,#0x20]
        0x0001b270:    f5b07f00    ....    CMP      r0,#0x200
        0x0001b274:    da0b        ..      BGE      0x1b28e ; main + 150
        0x0001b276:    e7ff        ..      B        0x1b278 ; main + 128
        0x0001b278:    9808        ..      LDR      r0,[sp,#0x20]
        0x0001b27a:    f2405164    @.dQ    MOV      r1,#0x564
        0x0001b27e:    f2c10100    ....    MOVT     r1,#0x1000
        0x0001b282:    5408        .T      STRB     r0,[r1,r0]
        0x0001b284:    e7ff        ..      B        0x1b286 ; main + 142
        0x0001b286:    9808        ..      LDR      r0,[sp,#0x20]
        0x0001b288:    3001        .0      ADDS     r0,#1
        0x0001b28a:    9008        ..      STR      r0,[sp,#0x20]
        0x0001b28c:    e7ef        ..      B        0x1b26e ; main + 118
        0x0001b28e:    f7fffea1    ....    BL       init_sensors ; 0x1afd4
        0x0001b292:    2001        .       MOVS     r0,#1
        0x0001b294:    f7ffff42    ..B.    BL       ios_set_up ; 0x1b11c
        0x0001b298:    f7fdfbb6    ....    BL       am_hal_interrupt_master_enable ; 0x18a08
        0x0001b29c:    e7ff        ..      B        0x1b29e ; main + 166
        0x0001b29e:    2000        .       MOVS     r0,#0
        0x0001b2a0:    9007        ..      STR      r0,[sp,#0x1c]
        0x0001b2a2:    9006        ..      STR      r0,[sp,#0x18]
        0x0001b2a4:    9004        ..      STR      r0,[sp,#0x10]
        0x0001b2a6:    f7fdfbab    ....    BL       am_hal_interrupt_master_disable ; 0x18a00
        0x0001b2aa:    9003        ..      STR      r0,[sp,#0xc]
        0x0001b2ac:    f2401058    @.X.    MOVW     r0,#0x158
        0x0001b2b0:    f2c10000    ....    MOVT     r0,#0x1000
        0x0001b2b4:    7800        .x      LDRB     r0,[r0,#0]
        0x0001b2b6:    07c0        ..      LSLS     r0,r0,#31
        0x0001b2b8:    b950        P.      CBNZ     r0,0x1b2d0 ; main + 216
        0x0001b2ba:    e7ff        ..      B        0x1b2bc ; main + 196
        0x0001b2bc:    f2401059    @.Y.    MOV      r0,#0x159
        0x0001b2c0:    f2c10000    ....    MOVT     r0,#0x1000
        0x0001b2c4:    7800        .x      LDRB     r0,[r0,#0]
        0x0001b2c6:    07c0        ..      LSLS     r0,r0,#31
        0x0001b2c8:    2800        .(      CMP      r0,#0
        0x0001b2ca:    f00080f5    ....    BEQ.W    0x1b4b8 ; main + 704
        0x0001b2ce:    e7ff        ..      B        0x1b2d0 ; main + 216
        0x0001b2d0:    9803        ..      LDR      r0,[sp,#0xc]
        0x0001b2d2:    f7fdfb9d    ....    BL       am_hal_interrupt_master_set ; 0x18a10
        0x0001b2d6:    f2401058    @.X.    MOVW     r0,#0x158
        0x0001b2da:    f2c10000    ....    MOVT     r0,#0x1000
        0x0001b2de:    7800        .x      LDRB     r0,[r0,#0]
        0x0001b2e0:    07c0        ..      LSLS     r0,r0,#31
        0x0001b2e2:    2800        .(      CMP      r0,#0
        0x0001b2e4:    d060        `.      BEQ      0x1b3a8 ; main + 432
        0x0001b2e6:    e7ff        ..      B        0x1b2e8 ; main + 240
        0x0001b2e8:    f6403078    @.x0    MOV      r0,#0xb78
        0x0001b2ec:    f2c10000    ....    MOVT     r0,#0x1000
        0x0001b2f0:    6800        .h      LDR      r0,[r0,#0]
        0x0001b2f2:    f5c07000    ...p    RSB      r0,r0,#0x200
        0x0001b2f6:    9005        ..      STR      r0,[sp,#0x14]
        0x0001b2f8:    9805        ..      LDR      r0,[sp,#0x14]
        0x0001b2fa:    28c9        .(      CMP      r0,#0xc9
        0x0001b2fc:    d314        ..      BCC      0x1b328 ; main + 304
        0x0001b2fe:    e7ff        ..      B        0x1b300 ; main + 264
        0x0001b300:    f240105c    @.\.    MOVW     r0,#0x15c
        0x0001b304:    f2c10000    ....    MOVT     r0,#0x1000
        0x0001b308:    6800        .h      LDR      r0,[r0,#0]
        0x0001b30a:    f6403178    @.x1    MOV      r1,#0xb78
        0x0001b30e:    f2c10100    ....    MOVT     r1,#0x1000
        0x0001b312:    680a        .h      LDR      r2,[r1,#0]
        0x0001b314:    f2405164    @.dQ    MOV      r1,#0x564
        0x0001b318:    f2c10100    ....    MOVT     r1,#0x1000
        0x0001b31c:    4411        .D      ADD      r1,r1,r2
        0x0001b31e:    22c8        ."      MOVS     r2,#0xc8
        0x0001b320:    ab07        ..      ADD      r3,sp,#0x1c
        0x0001b322:    f7fdfd3d    ..=.    BL       am_hal_ios_fifo_write ; 0x18da0
        0x0001b326:    e02c        ,.      B        0x1b382 ; main + 394
        0x0001b328:    f240105c    @.\.    MOVW     r0,#0x15c
        0x0001b32c:    f2c10000    ....    MOVT     r0,#0x1000
        0x0001b330:    6800        .h      LDR      r0,[r0,#0]
        0x0001b332:    f6403178    @.x1    MOV      r1,#0xb78
        0x0001b336:    f2c10100    ....    MOVT     r1,#0x1000
        0x0001b33a:    680a        .h      LDR      r2,[r1,#0]
        0x0001b33c:    f2405164    @.dQ    MOV      r1,#0x564
        0x0001b340:    f2c10100    ....    MOVT     r1,#0x1000
        0x0001b344:    4411        .D      ADD      r1,r1,r2
        0x0001b346:    9a05        ..      LDR      r2,[sp,#0x14]
        0x0001b348:    ab07        ..      ADD      r3,sp,#0x1c
        0x0001b34a:    f7fdfd29    ..).    BL       am_hal_ios_fifo_write ; 0x18da0
        0x0001b34e:    9807        ..      LDR      r0,[sp,#0x1c]
        0x0001b350:    9905        ..      LDR      r1,[sp,#0x14]
        0x0001b352:    4288        .B      CMP      r0,r1
        0x0001b354:    d114        ..      BNE      0x1b380 ; main + 392
        0x0001b356:    e7ff        ..      B        0x1b358 ; main + 352
        0x0001b358:    f240105c    @.\.    MOVW     r0,#0x15c
        0x0001b35c:    f2c10000    ....    MOVT     r0,#0x1000
        0x0001b360:    6800        .h      LDR      r0,[r0,#0]
        0x0001b362:    9905        ..      LDR      r1,[sp,#0x14]
        0x0001b364:    f1c102c8    ....    RSB      r2,r1,#0xc8
        0x0001b368:    f2405164    @.dQ    MOV      r1,#0x564
        0x0001b36c:    f2c10100    ....    MOVT     r1,#0x1000
        0x0001b370:    ab06        ..      ADD      r3,sp,#0x18
        0x0001b372:    f7fdfd15    ....    BL       am_hal_ios_fifo_write ; 0x18da0
        0x0001b376:    9906        ..      LDR      r1,[sp,#0x18]
        0x0001b378:    9807        ..      LDR      r0,[sp,#0x1c]
        0x0001b37a:    4408        .D      ADD      r0,r0,r1
        0x0001b37c:    9007        ..      STR      r0,[sp,#0x1c]
        0x0001b37e:    e7ff        ..      B        0x1b380 ; main + 392
        0x0001b380:    e7ff        ..      B        0x1b382 ; main + 394
        0x0001b382:    9a07        ..      LDR      r2,[sp,#0x1c]
        0x0001b384:    f6403178    @.x1    MOV      r1,#0xb78
        0x0001b388:    f2c10100    ....    MOVT     r1,#0x1000
        0x0001b38c:    6808        .h      LDR      r0,[r1,#0]
        0x0001b38e:    4410        .D      ADD      r0,r0,r2
        0x0001b390:    6008        .`      STR      r0,[r1,#0]
        0x0001b392:    6808        .h      LDR      r0,[r1,#0]
        0x0001b394:    f36f205f    o._     BFC      r0,#9,#23
        0x0001b398:    6008        .`      STR      r0,[r1,#0]
        0x0001b39a:    f2401158    @.X.    MOVW     r1,#0x158
        0x0001b39e:    f2c10100    ....    MOVT     r1,#0x1000
        0x0001b3a2:    2000        .       MOVS     r0,#0
        0x0001b3a4:    7008        .p      STRB     r0,[r1,#0]
        0x0001b3a6:    e7ff        ..      B        0x1b3a8 ; main + 432
        0x0001b3a8:    f2401059    @.Y.    MOV      r0,#0x159
        0x0001b3ac:    f2c10000    ....    MOVT     r0,#0x1000
        0x0001b3b0:    7800        .x      LDRB     r0,[r0,#0]
        0x0001b3b2:    07c0        ..      LSLS     r0,r0,#31
        0x0001b3b4:    2800        .(      CMP      r0,#0
        0x0001b3b6:    d062        b.      BEQ      0x1b47e ; main + 646
        0x0001b3b8:    e7ff        ..      B        0x1b3ba ; main + 450
        0x0001b3ba:    f6403078    @.x0    MOV      r0,#0xb78
        0x0001b3be:    f2c10000    ....    MOVT     r0,#0x1000
        0x0001b3c2:    6800        .h      LDR      r0,[r0,#0]
        0x0001b3c4:    f5c07000    ...p    RSB      r0,r0,#0x200
        0x0001b3c8:    9005        ..      STR      r0,[sp,#0x14]
        0x0001b3ca:    9805        ..      LDR      r0,[sp,#0x14]
        0x0001b3cc:    f5b07ffa    ....    CMP      r0,#0x1f4
        0x0001b3d0:    d915        ..      BLS      0x1b3fe ; main + 518
        0x0001b3d2:    e7ff        ..      B        0x1b3d4 ; main + 476
        0x0001b3d4:    f240105c    @.\.    MOVW     r0,#0x15c
        0x0001b3d8:    f2c10000    ....    MOVT     r0,#0x1000
        0x0001b3dc:    6800        .h      LDR      r0,[r0,#0]
        0x0001b3de:    f6403178    @.x1    MOV      r1,#0xb78
        0x0001b3e2:    f2c10100    ....    MOVT     r1,#0x1000
        0x0001b3e6:    680a        .h      LDR      r2,[r1,#0]
        0x0001b3e8:    f2405164    @.dQ    MOV      r1,#0x564
        0x0001b3ec:    f2c10100    ....    MOVT     r1,#0x1000
        0x0001b3f0:    4411        .D      ADD      r1,r1,r2
        0x0001b3f2:    f44f72fa    O..r    MOV      r2,#0x1f4
        0x0001b3f6:    ab07        ..      ADD      r3,sp,#0x1c
        0x0001b3f8:    f7fdfcd2    ....    BL       am_hal_ios_fifo_write ; 0x18da0
        0x0001b3fc:    e02c        ,.      B        0x1b458 ; main + 608
        0x0001b3fe:    f240105c    @.\.    MOVW     r0,#0x15c
        0x0001b402:    f2c10000    ....    MOVT     r0,#0x1000
        0x0001b406:    6800        .h      LDR      r0,[r0,#0]
        0x0001b408:    f6403178    @.x1    MOV      r1,#0xb78
        0x0001b40c:    f2c10100    ....    MOVT     r1,#0x1000
        0x0001b410:    680a        .h      LDR      r2,[r1,#0]
        0x0001b412:    f2405164    @.dQ    MOV      r1,#0x564
        0x0001b416:    f2c10100    ....    MOVT     r1,#0x1000
        0x0001b41a:    4411        .D      ADD      r1,r1,r2
        0x0001b41c:    9a05        ..      LDR      r2,[sp,#0x14]
        0x0001b41e:    ab07        ..      ADD      r3,sp,#0x1c
        0x0001b420:    f7fdfcbe    ....    BL       am_hal_ios_fifo_write ; 0x18da0
        0x0001b424:    9807        ..      LDR      r0,[sp,#0x1c]
        0x0001b426:    9905        ..      LDR      r1,[sp,#0x14]
        0x0001b428:    4288        .B      CMP      r0,r1
        0x0001b42a:    d114        ..      BNE      0x1b456 ; main + 606
        0x0001b42c:    e7ff        ..      B        0x1b42e ; main + 566
        0x0001b42e:    f240105c    @.\.    MOVW     r0,#0x15c
        0x0001b432:    f2c10000    ....    MOVT     r0,#0x1000
        0x0001b436:    6800        .h      LDR      r0,[r0,#0]
        0x0001b438:    9905        ..      LDR      r1,[sp,#0x14]
        0x0001b43a:    f5c172fa    ...r    RSB      r2,r1,#0x1f4
        0x0001b43e:    f2405164    @.dQ    MOV      r1,#0x564
        0x0001b442:    f2c10100    ....    MOVT     r1,#0x1000
        0x0001b446:    ab06        ..      ADD      r3,sp,#0x18
        0x0001b448:    f7fdfcaa    ....    BL       am_hal_ios_fifo_write ; 0x18da0
        0x0001b44c:    9906        ..      LDR      r1,[sp,#0x18]
        0x0001b44e:    9807        ..      LDR      r0,[sp,#0x1c]
        0x0001b450:    4408        .D      ADD      r0,r0,r1
        0x0001b452:    9007        ..      STR      r0,[sp,#0x1c]
        0x0001b454:    e7ff        ..      B        0x1b456 ; main + 606
        0x0001b456:    e7ff        ..      B        0x1b458 ; main + 608
        0x0001b458:    9a07        ..      LDR      r2,[sp,#0x1c]
        0x0001b45a:    f6403178    @.x1    MOV      r1,#0xb78
        0x0001b45e:    f2c10100    ....    MOVT     r1,#0x1000
        0x0001b462:    6808        .h      LDR      r0,[r1,#0]
        0x0001b464:    4410        .D      ADD      r0,r0,r2
        0x0001b466:    6008        .`      STR      r0,[r1,#0]
        0x0001b468:    6808        .h      LDR      r0,[r1,#0]
        0x0001b46a:    f36f205f    o._     BFC      r0,#9,#23
        0x0001b46e:    6008        .`      STR      r0,[r1,#0]
        0x0001b470:    f2401159    @.Y.    MOV      r1,#0x159
        0x0001b474:    f2c10100    ....    MOVT     r1,#0x1000
        0x0001b478:    2000        .       MOVS     r0,#0
        0x0001b47a:    7008        .p      STRB     r0,[r1,#0]
        0x0001b47c:    e7ff        ..      B        0x1b47e ; main + 646
        0x0001b47e:    f240105b    @.[.    MOV      r0,#0x15b
        0x0001b482:    f2c10000    ....    MOVT     r0,#0x1000
        0x0001b486:    7800        .x      LDRB     r0,[r0,#0]
        0x0001b488:    b9a8        ..      CBNZ     r0,0x1b4b6 ; main + 702
        0x0001b48a:    e7ff        ..      B        0x1b48c ; main + 660
        0x0001b48c:    f240105c    @.\.    MOVW     r0,#0x15c
        0x0001b490:    f2c10000    ....    MOVT     r0,#0x1000
        0x0001b494:    6800        .h      LDR      r0,[r0,#0]
        0x0001b496:    a904        ..      ADD      r1,sp,#0x10
        0x0001b498:    f7fdfc56    ..V.    BL       am_hal_ios_fifo_space_used ; 0x18d48
        0x0001b49c:    9804        ..      LDR      r0,[sp,#0x10]
        0x0001b49e:    b148        H.      CBZ      r0,0x1b4b4 ; main + 700
        0x0001b4a0:    e7ff        ..      B        0x1b4a2 ; main + 682
        0x0001b4a2:    f240115b    @.[.    MOV      r1,#0x15b
        0x0001b4a6:    f2c10100    ....    MOVT     r1,#0x1000
        0x0001b4aa:    2001        .       MOVS     r0,#1
        0x0001b4ac:    7008        .p      STRB     r0,[r1,#0]
        0x0001b4ae:    f7fffd75    ..u.    BL       inform_host ; 0x1af9c
        0x0001b4b2:    e7ff        ..      B        0x1b4b4 ; main + 700
        0x0001b4b4:    e7ff        ..      B        0x1b4b6 ; main + 702
        0x0001b4b6:    e006        ..      B        0x1b4c6 ; main + 718
        0x0001b4b8:    2000        .       MOVS     r0,#0
        0x0001b4ba:    f7fefafb    ....    BL       am_hal_sysctrl_sleep ; 0x19ab4
        0x0001b4be:    9803        ..      LDR      r0,[sp,#0xc]
        0x0001b4c0:    f7fdfaa6    ....    BL       am_hal_interrupt_master_set ; 0x18a10
        0x0001b4c4:    e7ff        ..      B        0x1b4c6 ; main + 718
        0x0001b4c6:    e6ea        ..      B        0x1b29e ; main + 166
    ndigits_in_hex
        0x0001b4c8:    b084        ..      SUB      sp,sp,#0x10
        0x0001b4ca:    9103        ..      STR      r1,[sp,#0xc]
        0x0001b4cc:    9002        ..      STR      r0,[sp,#8]
        0x0001b4ce:    9802        ..      LDR      r0,[sp,#8]
        0x0001b4d0:    9903        ..      LDR      r1,[sp,#0xc]
        0x0001b4d2:    4308        .C      ORRS     r0,r0,r1
        0x0001b4d4:    fab0f080    ....    CLZ      r0,r0
        0x0001b4d8:    0940        @.      LSRS     r0,r0,#5
        0x0001b4da:    9001        ..      STR      r0,[sp,#4]
        0x0001b4dc:    e7ff        ..      B        0x1b4de ; ndigits_in_hex + 22
        0x0001b4de:    9802        ..      LDR      r0,[sp,#8]
        0x0001b4e0:    9903        ..      LDR      r1,[sp,#0xc]
        0x0001b4e2:    4308        .C      ORRS     r0,r0,r1
        0x0001b4e4:    b160        `.      CBZ      r0,0x1b500 ; ndigits_in_hex + 56
        0x0001b4e6:    e7ff        ..      B        0x1b4e8 ; ndigits_in_hex + 32
        0x0001b4e8:    9802        ..      LDR      r0,[sp,#8]
        0x0001b4ea:    9903        ..      LDR      r1,[sp,#0xc]
        0x0001b4ec:    0900        ..      LSRS     r0,r0,#4
        0x0001b4ee:    ea407001    @..p    ORR      r0,r0,r1,LSL #28
        0x0001b4f2:    0909        ..      LSRS     r1,r1,#4
        0x0001b4f4:    9103        ..      STR      r1,[sp,#0xc]
        0x0001b4f6:    9002        ..      STR      r0,[sp,#8]
        0x0001b4f8:    9801        ..      LDR      r0,[sp,#4]
        0x0001b4fa:    3001        .0      ADDS     r0,#1
        0x0001b4fc:    9001        ..      STR      r0,[sp,#4]
        0x0001b4fe:    e7ee        ..      B        0x1b4de ; ndigits_in_hex + 22
        0x0001b500:    9801        ..      LDR      r0,[sp,#4]
        0x0001b502:    b004        ..      ADD      sp,sp,#0x10
        0x0001b504:    4770        pG      BX       lr
        0x0001b506:    0000        ..      MOVS     r0,r0
    ndigits_in_i64
        0x0001b508:    b580        ..      PUSH     {r7,lr}
        0x0001b50a:    b082        ..      SUB      sp,sp,#8
        0x0001b50c:    9101        ..      STR      r1,[sp,#4]
        0x0001b50e:    9000        ..      STR      r0,[sp,#0]
        0x0001b510:    9801        ..      LDR      r0,[sp,#4]
        0x0001b512:    f1b03fff    ...?    CMP      r0,#0xffffffff
        0x0001b516:    dc09        ..      BGT      0x1b52c ; ndigits_in_i64 + 36
        0x0001b518:    e7ff        ..      B        0x1b51a ; ndigits_in_i64 + 18
        0x0001b51a:    9800        ..      LDR      r0,[sp,#0]
        0x0001b51c:    9a01        ..      LDR      r2,[sp,#4]
        0x0001b51e:    4241        AB      RSBS     r1,r0,#0
        0x0001b520:    f04f0000    O...    MOV      r0,#0
        0x0001b524:    4190        .A      SBCS     r0,r0,r2
        0x0001b526:    9100        ..      STR      r1,[sp,#0]
        0x0001b528:    9001        ..      STR      r0,[sp,#4]
        0x0001b52a:    e7ff        ..      B        0x1b52c ; ndigits_in_i64 + 36
        0x0001b52c:    9800        ..      LDR      r0,[sp,#0]
        0x0001b52e:    9901        ..      LDR      r1,[sp,#4]
        0x0001b530:    f000f802    ....    BL       ndigits_in_u64 ; 0x1b538
        0x0001b534:    b002        ..      ADD      sp,sp,#8
        0x0001b536:    bd80        ..      POP      {r7,pc}
    ndigits_in_u64
        0x0001b538:    b580        ..      PUSH     {r7,lr}
        0x0001b53a:    b084        ..      SUB      sp,sp,#0x10
        0x0001b53c:    9103        ..      STR      r1,[sp,#0xc]
        0x0001b53e:    9002        ..      STR      r0,[sp,#8]
        0x0001b540:    9802        ..      LDR      r0,[sp,#8]
        0x0001b542:    9903        ..      LDR      r1,[sp,#0xc]
        0x0001b544:    4308        .C      ORRS     r0,r0,r1
        0x0001b546:    fab0f080    ....    CLZ      r0,r0
        0x0001b54a:    0940        @.      LSRS     r0,r0,#5
        0x0001b54c:    9001        ..      STR      r0,[sp,#4]
        0x0001b54e:    e7ff        ..      B        0x1b550 ; ndigits_in_u64 + 24
        0x0001b550:    9802        ..      LDR      r0,[sp,#8]
        0x0001b552:    9903        ..      LDR      r1,[sp,#0xc]
        0x0001b554:    4308        .C      ORRS     r0,r0,r1
        0x0001b556:    b150        P.      CBZ      r0,0x1b56e ; ndigits_in_u64 + 54
        0x0001b558:    e7ff        ..      B        0x1b55a ; ndigits_in_u64 + 34
        0x0001b55a:    9802        ..      LDR      r0,[sp,#8]
        0x0001b55c:    9903        ..      LDR      r1,[sp,#0xc]
        0x0001b55e:    f7fff8d5    ....    BL       divu64_10 ; 0x1a70c
        0x0001b562:    9103        ..      STR      r1,[sp,#0xc]
        0x0001b564:    9002        ..      STR      r0,[sp,#8]
        0x0001b566:    9801        ..      LDR      r0,[sp,#4]
        0x0001b568:    3001        .0      ADDS     r0,#1
        0x0001b56a:    9001        ..      STR      r0,[sp,#4]
        0x0001b56c:    e7f0        ..      B        0x1b550 ; ndigits_in_u64 + 24
        0x0001b56e:    9801        ..      LDR      r0,[sp,#4]
        0x0001b570:    b004        ..      ADD      sp,sp,#0x10
        0x0001b572:    bd80        ..      POP      {r7,pc}
    padbuffer
        0x0001b574:    b085        ..      SUB      sp,sp,#0x14
        0x0001b576:    9003        ..      STR      r0,[sp,#0xc]
        0x0001b578:    f88d100b    ....    STRB     r1,[sp,#0xb]
        0x0001b57c:    9201        ..      STR      r2,[sp,#4]
        0x0001b57e:    2000        .       MOVS     r0,#0
        0x0001b580:    9000        ..      STR      r0,[sp,#0]
        0x0001b582:    9801        ..      LDR      r0,[sp,#4]
        0x0001b584:    2800        .(      CMP      r0,#0
        0x0001b586:    dc03        ..      BGT      0x1b590 ; padbuffer + 28
        0x0001b588:    e7ff        ..      B        0x1b58a ; padbuffer + 22
        0x0001b58a:    9800        ..      LDR      r0,[sp,#0]
        0x0001b58c:    9004        ..      STR      r0,[sp,#0x10]
        0x0001b58e:    e016        ..      B        0x1b5be ; padbuffer + 74
        0x0001b590:    e7ff        ..      B        0x1b592 ; padbuffer + 30
        0x0001b592:    9801        ..      LDR      r0,[sp,#4]
        0x0001b594:    1e41        A.      SUBS     r1,r0,#1
        0x0001b596:    9101        ..      STR      r1,[sp,#4]
        0x0001b598:    b170        p.      CBZ      r0,0x1b5b8 ; padbuffer + 68
        0x0001b59a:    e7ff        ..      B        0x1b59c ; padbuffer + 40
        0x0001b59c:    9803        ..      LDR      r0,[sp,#0xc]
        0x0001b59e:    b138        8.      CBZ      r0,0x1b5b0 ; padbuffer + 60
        0x0001b5a0:    e7ff        ..      B        0x1b5a2 ; padbuffer + 46
        0x0001b5a2:    f89d000b    ....    LDRB     r0,[sp,#0xb]
        0x0001b5a6:    9903        ..      LDR      r1,[sp,#0xc]
        0x0001b5a8:    1c4a        J.      ADDS     r2,r1,#1
        0x0001b5aa:    9203        ..      STR      r2,[sp,#0xc]
        0x0001b5ac:    7008        .p      STRB     r0,[r1,#0]
        0x0001b5ae:    e7ff        ..      B        0x1b5b0 ; padbuffer + 60
        0x0001b5b0:    9800        ..      LDR      r0,[sp,#0]
        0x0001b5b2:    3001        .0      ADDS     r0,#1
        0x0001b5b4:    9000        ..      STR      r0,[sp,#0]
        0x0001b5b6:    e7ec        ..      B        0x1b592 ; padbuffer + 30
        0x0001b5b8:    9800        ..      LDR      r0,[sp,#0]
        0x0001b5ba:    9004        ..      STR      r0,[sp,#0x10]
        0x0001b5bc:    e7ff        ..      B        0x1b5be ; padbuffer + 74
        0x0001b5be:    9804        ..      LDR      r0,[sp,#0x10]
        0x0001b5c0:    b005        ..      ADD      sp,sp,#0x14
        0x0001b5c2:    4770        pG      BX       lr
    simple_strlen
        0x0001b5c4:    b083        ..      SUB      sp,sp,#0xc
        0x0001b5c6:    9001        ..      STR      r0,[sp,#4]
        0x0001b5c8:    2000        .       MOVS     r0,#0
        0x0001b5ca:    9000        ..      STR      r0,[sp,#0]
        0x0001b5cc:    9801        ..      LDR      r0,[sp,#4]
        0x0001b5ce:    b918        ..      CBNZ     r0,0x1b5d8 ; simple_strlen + 20
        0x0001b5d0:    e7ff        ..      B        0x1b5d2 ; simple_strlen + 14
        0x0001b5d2:    9800        ..      LDR      r0,[sp,#0]
        0x0001b5d4:    9002        ..      STR      r0,[sp,#8]
        0x0001b5d6:    e00d        ..      B        0x1b5f4 ; simple_strlen + 48
        0x0001b5d8:    e7ff        ..      B        0x1b5da ; simple_strlen + 22
        0x0001b5da:    9801        ..      LDR      r0,[sp,#4]
        0x0001b5dc:    1c41        A.      ADDS     r1,r0,#1
        0x0001b5de:    9101        ..      STR      r1,[sp,#4]
        0x0001b5e0:    7800        .x      LDRB     r0,[r0,#0]
        0x0001b5e2:    b120         .      CBZ      r0,0x1b5ee ; simple_strlen + 42
        0x0001b5e4:    e7ff        ..      B        0x1b5e6 ; simple_strlen + 34
        0x0001b5e6:    9800        ..      LDR      r0,[sp,#0]
        0x0001b5e8:    3001        .0      ADDS     r0,#1
        0x0001b5ea:    9000        ..      STR      r0,[sp,#0]
        0x0001b5ec:    e7f5        ..      B        0x1b5da ; simple_strlen + 22
        0x0001b5ee:    9800        ..      LDR      r0,[sp,#0]
        0x0001b5f0:    9002        ..      STR      r0,[sp,#8]
        0x0001b5f2:    e7ff        ..      B        0x1b5f4 ; simple_strlen + 48
        0x0001b5f4:    9802        ..      LDR      r0,[sp,#8]
        0x0001b5f6:    b003        ..      ADD      sp,sp,#0xc
        0x0001b5f8:    4770        pG      BX       lr
        0x0001b5fa:    0000        ..      MOVS     r0,r0
    start_sensors
        0x0001b5fc:    b580        ..      PUSH     {r7,lr}
        0x0001b5fe:    b082        ..      SUB      sp,sp,#8
        0x0001b600:    f000f814    ....    BL       stop_sensors ; 0x1b62c
        0x0001b604:    f6403178    @.x1    MOV      r1,#0xb78
        0x0001b608:    f2c10100    ....    MOVT     r1,#0x1000
        0x0001b60c:    2000        .       MOVS     r0,#0
        0x0001b60e:    9001        ..      STR      r0,[sp,#4]
        0x0001b610:    6008        .`      STR      r0,[r1,#0]
        0x0001b612:    f7fefb3b    ..;.    BL       am_hal_timer_enable ; 0x19c8c
        0x0001b616:    2002        .       MOVS     r0,#2
        0x0001b618:    f7fefb38    ..8.    BL       am_hal_timer_enable ; 0x19c8c
        0x0001b61c:    9801        ..      LDR      r0,[sp,#4]
        0x0001b61e:    f240115b    @.[.    MOV      r1,#0x15b
        0x0001b622:    f2c10100    ....    MOVT     r1,#0x1000
        0x0001b626:    7008        .p      STRB     r0,[r1,#0]
        0x0001b628:    b002        ..      ADD      sp,sp,#8
        0x0001b62a:    bd80        ..      POP      {r7,pc}
    stop_sensors
        0x0001b62c:    b580        ..      PUSH     {r7,lr}
        0x0001b62e:    2000        .       MOVS     r0,#0
        0x0001b630:    f7fefb16    ....    BL       am_hal_timer_disable ; 0x19c60
        0x0001b634:    2002        .       MOVS     r0,#2
        0x0001b636:    f7fefb13    ....    BL       am_hal_timer_disable ; 0x19c60
        0x0001b63a:    bd80        ..      POP      {r7,pc}
    timer0_handler
        0x0001b63c:    f2401158    @.X.    MOVW     r1,#0x158
        0x0001b640:    f2c10100    ....    MOVT     r1,#0x1000
        0x0001b644:    2001        .       MOVS     r0,#1
        0x0001b646:    7008        .p      STRB     r0,[r1,#0]
        0x0001b648:    4770        pG      BX       lr
        0x0001b64a:    0000        ..      MOVS     r0,r0
    timer1_handler
        0x0001b64c:    f2401159    @.Y.    MOV      r1,#0x159
        0x0001b650:    f2c10100    ....    MOVT     r1,#0x1000
        0x0001b654:    2001        .       MOVS     r0,#1
        0x0001b656:    7008        .p      STRB     r0,[r1,#0]
        0x0001b658:    4770        pG      BX       lr
        0x0001b65a:    0000        ..      MOVS     r0,r0
    uint64_to_hexstr
        0x0001b65c:    b08c        ..      SUB      sp,sp,#0x30
        0x0001b65e:    910b        ..      STR      r1,[sp,#0x2c]
        0x0001b660:    900a        ..      STR      r0,[sp,#0x28]
        0x0001b662:    9209        ..      STR      r2,[sp,#0x24]
        0x0001b664:    f88d3023    ..#0    STRB     r3,[sp,#0x23]
        0x0001b668:    2000        .       MOVS     r0,#0
        0x0001b66a:    9006        ..      STR      r0,[sp,#0x18]
        0x0001b66c:    980a        ..      LDR      r0,[sp,#0x28]
        0x0001b66e:    990b        ..      LDR      r1,[sp,#0x2c]
        0x0001b670:    4308        .C      ORRS     r0,r0,r1
        0x0001b672:    b940        @.      CBNZ     r0,0x1b686 ; uint64_to_hexstr + 42
        0x0001b674:    e7ff        ..      B        0x1b676 ; uint64_to_hexstr + 26
        0x0001b676:    9a06        ..      LDR      r2,[sp,#0x18]
        0x0001b678:    1c50        P.      ADDS     r0,r2,#1
        0x0001b67a:    9006        ..      STR      r0,[sp,#0x18]
        0x0001b67c:    f10d0103    ....    ADD      r1,sp,#3
        0x0001b680:    2030        0       MOVS     r0,#0x30
        0x0001b682:    5488        .T      STRB     r0,[r1,r2]
        0x0001b684:    e7ff        ..      B        0x1b686 ; uint64_to_hexstr + 42
        0x0001b686:    e7ff        ..      B        0x1b688 ; uint64_to_hexstr + 44
        0x0001b688:    980a        ..      LDR      r0,[sp,#0x28]
        0x0001b68a:    990b        ..      LDR      r1,[sp,#0x2c]
        0x0001b68c:    4308        .C      ORRS     r0,r0,r1
        0x0001b68e:    b350        P.      CBZ      r0,0x1b6e6 ; uint64_to_hexstr + 138
        0x0001b690:    e7ff        ..      B        0x1b692 ; uint64_to_hexstr + 54
        0x0001b692:    f89d0028    ..(.    LDRB     r0,[sp,#0x28]
        0x0001b696:    f000000f    ....    AND      r0,r0,#0xf
        0x0001b69a:    f88d0017    ....    STRB     r0,[sp,#0x17]
        0x0001b69e:    f89d0017    ....    LDRB     r0,[sp,#0x17]
        0x0001b6a2:    280a        .(      CMP      r0,#0xa
        0x0001b6a4:    db0d        ..      BLT      0x1b6c2 ; uint64_to_hexstr + 102
        0x0001b6a6:    e7ff        ..      B        0x1b6a8 ; uint64_to_hexstr + 76
        0x0001b6a8:    f89d0023    ..#.    LDRB     r0,[sp,#0x23]
        0x0001b6ac:    07c0        ..      LSLS     r0,r0,#31
        0x0001b6ae:    2107        .!      MOVS     r1,#7
        0x0001b6b0:    2800        .(      CMP      r0,#0
        0x0001b6b2:    bf18        ..      IT       NE
        0x0001b6b4:    2127        '!      MOVNE    r1,#0x27
        0x0001b6b6:    f89d0017    ....    LDRB     r0,[sp,#0x17]
        0x0001b6ba:    4408        .D      ADD      r0,r0,r1
        0x0001b6bc:    f88d0017    ....    STRB     r0,[sp,#0x17]
        0x0001b6c0:    e7ff        ..      B        0x1b6c2 ; uint64_to_hexstr + 102
        0x0001b6c2:    f89d0017    ....    LDRB     r0,[sp,#0x17]
        0x0001b6c6:    3030        00      ADDS     r0,r0,#0x30
        0x0001b6c8:    9a06        ..      LDR      r2,[sp,#0x18]
        0x0001b6ca:    1c51        Q.      ADDS     r1,r2,#1
        0x0001b6cc:    9106        ..      STR      r1,[sp,#0x18]
        0x0001b6ce:    f10d0103    ....    ADD      r1,sp,#3
        0x0001b6d2:    5488        .T      STRB     r0,[r1,r2]
        0x0001b6d4:    980a        ..      LDR      r0,[sp,#0x28]
        0x0001b6d6:    990b        ..      LDR      r1,[sp,#0x2c]
        0x0001b6d8:    0900        ..      LSRS     r0,r0,#4
        0x0001b6da:    ea407001    @..p    ORR      r0,r0,r1,LSL #28
        0x0001b6de:    0909        ..      LSRS     r1,r1,#4
        0x0001b6e0:    910b        ..      STR      r1,[sp,#0x2c]
        0x0001b6e2:    900a        ..      STR      r0,[sp,#0x28]
        0x0001b6e4:    e7d0        ..      B        0x1b688 ; uint64_to_hexstr + 44
        0x0001b6e6:    9806        ..      LDR      r0,[sp,#0x18]
        0x0001b6e8:    9007        ..      STR      r0,[sp,#0x1c]
        0x0001b6ea:    9809        ..      LDR      r0,[sp,#0x24]
        0x0001b6ec:    b198        ..      CBZ      r0,0x1b716 ; uint64_to_hexstr + 186
        0x0001b6ee:    e7ff        ..      B        0x1b6f0 ; uint64_to_hexstr + 148
        0x0001b6f0:    e7ff        ..      B        0x1b6f2 ; uint64_to_hexstr + 150
        0x0001b6f2:    9806        ..      LDR      r0,[sp,#0x18]
        0x0001b6f4:    1e41        A.      SUBS     r1,r0,#1
        0x0001b6f6:    9106        ..      STR      r1,[sp,#0x18]
        0x0001b6f8:    b148        H.      CBZ      r0,0x1b70e ; uint64_to_hexstr + 178
        0x0001b6fa:    e7ff        ..      B        0x1b6fc ; uint64_to_hexstr + 160
        0x0001b6fc:    9906        ..      LDR      r1,[sp,#0x18]
        0x0001b6fe:    f10d0003    ....    ADD      r0,sp,#3
        0x0001b702:    5c40        @\      LDRB     r0,[r0,r1]
        0x0001b704:    9909        ..      LDR      r1,[sp,#0x24]
        0x0001b706:    1c4a        J.      ADDS     r2,r1,#1
        0x0001b708:    9209        ..      STR      r2,[sp,#0x24]
        0x0001b70a:    7008        .p      STRB     r0,[r1,#0]
        0x0001b70c:    e7f1        ..      B        0x1b6f2 ; uint64_to_hexstr + 150
        0x0001b70e:    9909        ..      LDR      r1,[sp,#0x24]
        0x0001b710:    2000        .       MOVS     r0,#0
        0x0001b712:    7008        .p      STRB     r0,[r1,#0]
        0x0001b714:    e7ff        ..      B        0x1b716 ; uint64_to_hexstr + 186
        0x0001b716:    9807        ..      LDR      r0,[sp,#0x1c]
        0x0001b718:    b00c        ..      ADD      sp,sp,#0x30
        0x0001b71a:    4770        pG      BX       lr
    uint64_to_str
        0x0001b71c:    b580        ..      PUSH     {r7,lr}
        0x0001b71e:    b090        ..      SUB      sp,sp,#0x40
        0x0001b720:    910f        ..      STR      r1,[sp,#0x3c]
        0x0001b722:    900e        ..      STR      r0,[sp,#0x38]
        0x0001b724:    920d        ..      STR      r2,[sp,#0x34]
        0x0001b726:    2000        .       MOVS     r0,#0
        0x0001b728:    9005        ..      STR      r0,[sp,#0x14]
        0x0001b72a:    9004        ..      STR      r0,[sp,#0x10]
        0x0001b72c:    e7ff        ..      B        0x1b72e ; uint64_to_str + 18
        0x0001b72e:    980e        ..      LDR      r0,[sp,#0x38]
        0x0001b730:    990f        ..      LDR      r1,[sp,#0x3c]
        0x0001b732:    f7feffeb    ....    BL       divu64_10 ; 0x1a70c
        0x0001b736:    9101        ..      STR      r1,[sp,#4]
        0x0001b738:    9000        ..      STR      r0,[sp,#0]
        0x0001b73a:    980e        ..      LDR      r0,[sp,#0x38]
        0x0001b73c:    9900        ..      LDR      r1,[sp,#0]
        0x0001b73e:    eb010181    ....    ADD      r1,r1,r1,LSL #2
        0x0001b742:    eba00041    ..A.    SUB      r0,r0,r1,LSL #1
        0x0001b746:    9003        ..      STR      r0,[sp,#0xc]
        0x0001b748:    9803        ..      LDR      r0,[sp,#0xc]
        0x0001b74a:    3030        00      ADDS     r0,r0,#0x30
        0x0001b74c:    9a05        ..      LDR      r2,[sp,#0x14]
        0x0001b74e:    1c51        Q.      ADDS     r1,r2,#1
        0x0001b750:    9105        ..      STR      r1,[sp,#0x14]
        0x0001b752:    f10d011b    ....    ADD      r1,sp,#0x1b
        0x0001b756:    5488        .T      STRB     r0,[r1,r2]
        0x0001b758:    9800        ..      LDR      r0,[sp,#0]
        0x0001b75a:    9901        ..      LDR      r1,[sp,#4]
        0x0001b75c:    910f        ..      STR      r1,[sp,#0x3c]
        0x0001b75e:    900e        ..      STR      r0,[sp,#0x38]
        0x0001b760:    e7ff        ..      B        0x1b762 ; uint64_to_str + 70
        0x0001b762:    980e        ..      LDR      r0,[sp,#0x38]
        0x0001b764:    990f        ..      LDR      r1,[sp,#0x3c]
        0x0001b766:    4308        .C      ORRS     r0,r0,r1
        0x0001b768:    2800        .(      CMP      r0,#0
        0x0001b76a:    d1e0        ..      BNE      0x1b72e ; uint64_to_str + 18
        0x0001b76c:    e7ff        ..      B        0x1b76e ; uint64_to_str + 82
        0x0001b76e:    9805        ..      LDR      r0,[sp,#0x14]
        0x0001b770:    9004        ..      STR      r0,[sp,#0x10]
        0x0001b772:    980d        ..      LDR      r0,[sp,#0x34]
        0x0001b774:    b198        ..      CBZ      r0,0x1b79e ; uint64_to_str + 130
        0x0001b776:    e7ff        ..      B        0x1b778 ; uint64_to_str + 92
        0x0001b778:    e7ff        ..      B        0x1b77a ; uint64_to_str + 94
        0x0001b77a:    9805        ..      LDR      r0,[sp,#0x14]
        0x0001b77c:    1e41        A.      SUBS     r1,r0,#1
        0x0001b77e:    9105        ..      STR      r1,[sp,#0x14]
        0x0001b780:    b148        H.      CBZ      r0,0x1b796 ; uint64_to_str + 122
        0x0001b782:    e7ff        ..      B        0x1b784 ; uint64_to_str + 104
        0x0001b784:    9905        ..      LDR      r1,[sp,#0x14]
        0x0001b786:    f10d001b    ....    ADD      r0,sp,#0x1b
        0x0001b78a:    5c40        @\      LDRB     r0,[r0,r1]
        0x0001b78c:    990d        ..      LDR      r1,[sp,#0x34]
        0x0001b78e:    1c4a        J.      ADDS     r2,r1,#1
        0x0001b790:    920d        ..      STR      r2,[sp,#0x34]
        0x0001b792:    7008        .p      STRB     r0,[r1,#0]
        0x0001b794:    e7f1        ..      B        0x1b77a ; uint64_to_str + 94
        0x0001b796:    990d        ..      LDR      r1,[sp,#0x34]
        0x0001b798:    2000        .       MOVS     r0,#0
        0x0001b79a:    7008        .p      STRB     r0,[r1,#0]
        0x0001b79c:    e7ff        ..      B        0x1b79e ; uint64_to_str + 130
        0x0001b79e:    9804        ..      LDR      r0,[sp,#0x10]
        0x0001b7a0:    b010        ..      ADD      sp,sp,#0x40
        0x0001b7a2:    bd80        ..      POP      {r7,pc}
    $t
    x$fpl$d2f
    $v0
    __aeabi_d2f
    _d2f
        0x0001b7a4:    f0214200    !..B    BIC      r2,r1,#0x80000000
        0x0001b7a8:    f0014300    ...C    AND      r3,r1,#0x80000000
        0x0001b7ac:    f1a25260    ..`R    SUB      r2,r2,#0x38000000
        0x0001b7b0:    f5b21f80    ....    CMP      r2,#0x100000
        0x0001b7b4:    bf28        (.      IT       CS
        0x0001b7b6:    f1d26c7f    ...l    RSBSCS   r12,r2,#0xff00000
        0x0001b7ba:    d90b        ..      BLS      0x1b7d4 ; __aeabi_d2f + 48
        0x0001b7bc:    ea5f1c00    _...    LSLS     r12,r0,#4
        0x0001b7c0:    ea4302c2    C...    ORR      r2,r3,r2,LSL #3
        0x0001b7c4:    eb427050    B.Pp    ADC      r0,r2,r0,LSR #29
        0x0001b7c8:    bf18        ..      IT       NE
        0x0001b7ca:    4770        pG      BXNE     lr
        0x0001b7cc:    bf28        (.      IT       CS
        0x0001b7ce:    f0200001     ...    BICCS    r0,r0,#1
        0x0001b7d2:    4770        pG      BX       lr
        0x0001b7d4:    f5b21f80    ....    CMP      r2,#0x100000
        0x0001b7d8:    bfbc        ..      ITT      LT
        0x0001b7da:    4618        .F      MOVLT    r0,r3
        0x0001b7dc:    4770        pG      BXLT     lr
        0x0001b7de:    ea4f0c41    O.A.    LSL      r12,r1,#1
        0x0001b7e2:    f51c1f00    ....    CMN      r12,#0x200000
        0x0001b7e6:    d202        ..      BCS      0x1b7ee ; __aeabi_d2f + 74
        0x0001b7e8:    4608        .F      MOV      r0,r1
        0x0001b7ea:    f000b867    ..g.    B.W      __fpl_fretinf ; 0x1b8bc
        0x0001b7ee:    b570        p.      PUSH     {r4-r6,lr}
        0x0001b7f0:    f000f809    ....    BL       __fpl_dnaninf ; 0x1b806
    $d
        0x0001b7f4:    89000000    ....    DCD    2298478592
    $t
        0x0001b7f8:    f7ffbff6    ....    B.W      0x1b7e8 ; __aeabi_d2f + 68
        0x0001b7fc:    f04f4000    O..@    MOV      r0,#0x80000000
        0x0001b800:    f5a00080    ....    SUB      r0,r0,#0x400000
        0x0001b804:    4770        pG      BX       lr
    x$fpl$dnaninf
    $v0
    __fpl_dnaninf
        0x0001b806:    f10e0e02    ....    ADD      lr,lr,#2
        0x0001b80a:    f02e0e03    ....    BIC      lr,lr,#3
        0x0001b80e:    f85e6b04    ^..k    LDR      r6,[lr],#4
        0x0001b812:    4236        6B      TST      r6,r6
        0x0001b814:    d405        ..      BMI      0x1b822 ; __fpl_dnaninf + 28
        0x0001b816:    2a01        .*      CMP      r2,#1
        0x0001b818:    eb430503    C...    ADC      r5,r3,r3
        0x0001b81c:    f5151f00    ....    CMN      r5,#0x200000
        0x0001b820:    d812        ..      BHI      0x1b848 ; __fpl_dnaninf + 66
        0x0001b822:    2801        .(      CMP      r0,#1
        0x0001b824:    eb410c01    A...    ADC      r12,r1,r1
        0x0001b828:    f51c1f00    ....    CMN      r12,#0x200000
        0x0001b82c:    d80c        ..      BHI      0x1b848 ; __fpl_dnaninf + 66
        0x0001b82e:    d10e        ..      BNE      0x1b84e ; __fpl_dnaninf + 72
        0x0001b830:    ea4f7cd1    O..|    LSR      r12,r1,#31
        0x0001b834:    eb0c0c4c    ..L.    ADD      r12,r12,r12,LSL #1
        0x0001b838:    f10c0c02    ....    ADD      r12,r12,#2
        0x0001b83c:    f5151f00    ....    CMN      r5,#0x200000
        0x0001b840:    bf08        ..      IT       EQ
        0x0001b842:    eb4c7cd3    L..|    ADCEQ    r12,r12,r3,LSR #31
        0x0001b846:    e004        ..      B        0x1b852 ; __fpl_dnaninf + 76
        0x0001b848:    f04f0c08    O...    MOV      r12,#8
        0x0001b84c:    e001        ..      B        0x1b852 ; __fpl_dnaninf + 76
        0x0001b84e:    ea4f7cd3    O..|    LSR      r12,r3,#31
        0x0001b852:    eb0c054c    ..L.    ADD      r5,r12,r12,LSL #1
        0x0001b856:    fa26f605    &...    LSR      r6,r6,r5
        0x0001b85a:    f0060607    ....    AND      r6,r6,#7
        0x0001b85e:    f1b60c04    ....    SUBS     r12,r6,#4
        0x0001b862:    d206        ..      BCS      0x1b872 ; __fpl_dnaninf + 108
        0x0001b864:    eb0e0c86    ....    ADD      r12,lr,r6,LSL #2
        0x0001b868:    e8bd4070    ..p@    POP      {r4-r6,lr}
        0x0001b86c:    f04c0c01    L...    ORR      r12,r12,#1
        0x0001b870:    4760        `G      BX       r12
        0x0001b872:    e8dff00c    ....    TBB      [pc,r12]
    $d
        0x0001b876:    0b09        ..      DCW    2825
        0x0001b878:    0202        ..      DCW    514
    $t
        0x0001b87a:    f04f4100    O..A    MOV      r1,#0x80000000
        0x0001b87e:    f5a12100    ...!    SUB      r1,r1,#0x80000
        0x0001b882:    f04f0000    O...    MOV      r0,#0
        0x0001b886:    bd70        p.      POP      {r4-r6,pc}
        0x0001b888:    4619        .F      MOV      r1,r3
        0x0001b88a:    4610        .F      MOV      r0,r2
        0x0001b88c:    2801        .(      CMP      r0,#1
        0x0001b88e:    eb510401    Q...    ADCS     r4,r1,r1
        0x0001b892:    bf18        ..      IT       NE
        0x0001b894:    f5d41400    ....    RSBSNE   r4,r4,#0x200000
        0x0001b898:    bf84        ..      ITT      HI
        0x0001b89a:    2000        .       MOVHI    r0,#0
        0x0001b89c:    f0014100    ...A    ANDHI    r1,r1,#0x80000000
        0x0001b8a0:    bd70        p.      POP      {r4-r6,pc}
    x$fpl$fpinit
    $v0
    _fp_init
        0x0001b8a2:    eef10a10    ....    VMRS     r0,FPSCR
        0x0001b8a6:    f64f71ff    O..q    MOV      r1,#0xffff
        0x0001b8aa:    f2c031c0    ...1    MOVT     r1,#0x3c0
        0x0001b8ae:    ea200001     ...    BIC      r0,r0,r1
        0x0001b8b2:    f0407040    @.@p    ORR      r0,r0,#0x3000000
        0x0001b8b6:    eee10a10    ....    VMSR     FPSCR,r0
    __fplib_config_fpu_vfp
    __fplib_config_pureend_doubles
        0x0001b8ba:    4770        pG      BX       lr
    x$fpl$fretinf
    $v0
    __fpl_fretinf
        0x0001b8bc:    21ff        .!      MOVS     r1,#0xff
        0x0001b8be:    ea4150d0    A..P    ORR      r0,r1,r0,LSR #23
        0x0001b8c2:    05c0        ..      LSLS     r0,r0,#23
        0x0001b8c4:    4770        pG      BX       lr
    x$fpl$usenofp
    __I$use$fp
        0x0001b8c6:    0000        ..      MOVS     r0,r0
    $d.realdata
    am_hal_ios_pui8LRAM
        0x0001b8c8:    40034000    .@.@    DCD    1073954816
    am_hal_pwrctrl_peripheral_control
        0x0001b8cc:    40021004    ...@    DCD    1073876996
        0x0001b8d0:    00000001    ....    DCD    1
        0x0001b8d4:    40021008    ...@    DCD    1073877000
        0x0001b8d8:    00000001    ....    DCD    1
        0x0001b8dc:    40021004    ...@    DCD    1073876996
        0x0001b8e0:    00000002    ....    DCD    2
        0x0001b8e4:    40021008    ...@    DCD    1073877000
        0x0001b8e8:    0000001e    ....    DCD    30
        0x0001b8ec:    40021004    ...@    DCD    1073876996
        0x0001b8f0:    00000004    ....    DCD    4
        0x0001b8f4:    40021008    ...@    DCD    1073877000
        0x0001b8f8:    0000001e    ....    DCD    30
        0x0001b8fc:    40021004    ...@    DCD    1073876996
        0x0001b900:    00000008    ....    DCD    8
        0x0001b904:    40021008    ...@    DCD    1073877000
        0x0001b908:    0000001e    ....    DCD    30
        0x0001b90c:    40021004    ...@    DCD    1073876996
        0x0001b910:    00000010    ....    DCD    16
        0x0001b914:    40021008    ...@    DCD    1073877000
        0x0001b918:    0000001e    ....    DCD    30
        0x0001b91c:    40021004    ...@    DCD    1073876996
        0x0001b920:    00000020     ...    DCD    32
        0x0001b924:    40021008    ...@    DCD    1073877000
        0x0001b928:    000001e0    ....    DCD    480
        0x0001b92c:    40021004    ...@    DCD    1073876996
        0x0001b930:    00000040    @...    DCD    64
        0x0001b934:    40021008    ...@    DCD    1073877000
        0x0001b938:    000001e0    ....    DCD    480
        0x0001b93c:    40021004    ...@    DCD    1073876996
        0x0001b940:    00000080    ....    DCD    128
        0x0001b944:    40021008    ...@    DCD    1073877000
        0x0001b948:    000001e0    ....    DCD    480
        0x0001b94c:    40021004    ...@    DCD    1073876996
        0x0001b950:    00000100    ....    DCD    256
        0x0001b954:    40021008    ...@    DCD    1073877000
        0x0001b958:    000001e0    ....    DCD    480
        0x0001b95c:    40021004    ...@    DCD    1073876996
        0x0001b960:    00000200    ....    DCD    512
        0x0001b964:    40021008    ...@    DCD    1073877000
        0x0001b968:    00001e00    ....    DCD    7680
        0x0001b96c:    40021004    ...@    DCD    1073876996
        0x0001b970:    00000400    ....    DCD    1024
        0x0001b974:    40021008    ...@    DCD    1073877000
        0x0001b978:    00001e00    ....    DCD    7680
        0x0001b97c:    40021004    ...@    DCD    1073876996
        0x0001b980:    00000800    ....    DCD    2048
        0x0001b984:    40021008    ...@    DCD    1073877000
        0x0001b988:    00001e00    ....    DCD    7680
        0x0001b98c:    40021004    ...@    DCD    1073876996
        0x0001b990:    00001000    ....    DCD    4096
        0x0001b994:    40021008    ...@    DCD    1073877000
        0x0001b998:    00001e00    ....    DCD    7680
        0x0001b99c:    40021004    ...@    DCD    1073876996
        0x0001b9a0:    00002000    . ..    DCD    8192
        0x0001b9a4:    40021008    ...@    DCD    1073877000
        0x0001b9a8:    00002000    . ..    DCD    8192
        0x0001b9ac:    40021004    ...@    DCD    1073876996
        0x0001b9b0:    00004000    .@..    DCD    16384
        0x0001b9b4:    40021008    ...@    DCD    1073877000
        0x0001b9b8:    0001c000    ....    DCD    114688
        0x0001b9bc:    40021004    ...@    DCD    1073876996
        0x0001b9c0:    00008000    ....    DCD    32768
        0x0001b9c4:    40021008    ...@    DCD    1073877000
        0x0001b9c8:    0001c000    ....    DCD    114688
        0x0001b9cc:    40021004    ...@    DCD    1073876996
        0x0001b9d0:    00010000    ....    DCD    65536
        0x0001b9d4:    40021008    ...@    DCD    1073877000
        0x0001b9d8:    0001c000    ....    DCD    114688
        0x0001b9dc:    40021004    ...@    DCD    1073876996
        0x0001b9e0:    00020000    ....    DCD    131072
        0x0001b9e4:    40021008    ...@    DCD    1073877000
        0x0001b9e8:    00020000    ....    DCD    131072
        0x0001b9ec:    40021004    ...@    DCD    1073876996
        0x0001b9f0:    00040000    ....    DCD    262144
        0x0001b9f4:    40021008    ...@    DCD    1073877000
        0x0001b9f8:    00040000    ....    DCD    262144
        0x0001b9fc:    40021004    ...@    DCD    1073876996
        0x0001ba00:    00080000    ....    DCD    524288
        0x0001ba04:    40021008    ...@    DCD    1073877000
        0x0001ba08:    00080000    ....    DCD    524288
        0x0001ba0c:    40021004    ...@    DCD    1073876996
        0x0001ba10:    00100000    ....    DCD    1048576
        0x0001ba14:    40021008    ...@    DCD    1073877000
        0x0001ba18:    00100000    ....    DCD    1048576
        0x0001ba1c:    40021004    ...@    DCD    1073876996
        0x0001ba20:    00200000    .. .    DCD    2097152
        0x0001ba24:    40021008    ...@    DCD    1073877000
        0x0001ba28:    00200000    .. .    DCD    2097152
        0x0001ba2c:    40021004    ...@    DCD    1073876996
        0x0001ba30:    00400000    ..@.    DCD    4194304
        0x0001ba34:    40021008    ...@    DCD    1073877000
        0x0001ba38:    00400000    ..@.    DCD    4194304
        0x0001ba3c:    40021004    ...@    DCD    1073876996
        0x0001ba40:    00800000    ....    DCD    8388608
        0x0001ba44:    40021008    ...@    DCD    1073877000
        0x0001ba48:    00800000    ....    DCD    8388608
        0x0001ba4c:    40021004    ...@    DCD    1073876996
        0x0001ba50:    01000000    ....    DCD    16777216
        0x0001ba54:    40021008    ...@    DCD    1073877000
        0x0001ba58:    01000000    ....    DCD    16777216
        0x0001ba5c:    4002100c    ...@    DCD    1073877004
        0x0001ba60:    00000001    ....    DCD    1
        0x0001ba64:    40021010    ...@    DCD    1073877008
        0x0001ba68:    000000ff    ....    DCD    255
        0x0001ba6c:    4002100c    ...@    DCD    1073877004
        0x0001ba70:    00000002    ....    DCD    2
        0x0001ba74:    40021010    ...@    DCD    1073877008
        0x0001ba78:    000000ff    ....    DCD    255
        0x0001ba7c:    4002100c    ...@    DCD    1073877004
        0x0001ba80:    00000004    ....    DCD    4
        0x0001ba84:    40021010    ...@    DCD    1073877008
        0x0001ba88:    000000ff    ....    DCD    255
        0x0001ba8c:    4002100c    ...@    DCD    1073877004
        0x0001ba90:    00000008    ....    DCD    8
        0x0001ba94:    40021010    ...@    DCD    1073877008
        0x0001ba98:    000000ff    ....    DCD    255
        0x0001ba9c:    4002100c    ...@    DCD    1073877004
        0x0001baa0:    00000010    ....    DCD    16
        0x0001baa4:    40021010    ...@    DCD    1073877008
        0x0001baa8:    000000ff    ....    DCD    255
        0x0001baac:    4002100c    ...@    DCD    1073877004
        0x0001bab0:    00000020     ...    DCD    32
        0x0001bab4:    40021010    ...@    DCD    1073877008
        0x0001bab8:    000000ff    ....    DCD    255
        0x0001babc:    4002100c    ...@    DCD    1073877004
        0x0001bac0:    00000040    @...    DCD    64
        0x0001bac4:    40021010    ...@    DCD    1073877008
        0x0001bac8:    000000ff    ....    DCD    255
        0x0001bacc:    4002100c    ...@    DCD    1073877004
        0x0001bad0:    00000080    ....    DCD    128
        0x0001bad4:    40021010    ...@    DCD    1073877008
        0x0001bad8:    000000ff    ....    DCD    255
        0x0001badc:    4002100c    ...@    DCD    1073877004
        0x0001bae0:    00000400    ....    DCD    1024
        0x0001bae4:    40021010    ...@    DCD    1073877008
        0x0001bae8:    00000400    ....    DCD    1024
    g_AM_BSP_GPIO_OUTPUT
        0x0001baec:    0040a203    ..@.    DCD    4235779
    g_am_hal_bootrom_helper
        0x0001baf0:    0800004d    M...    DCD    134217805
        0x0001baf4:    08000051    Q...    DCD    134217809
        0x0001baf8:    08000055    U...    DCD    134217813
        0x0001bafc:    08000059    Y...    DCD    134217817
        0x0001bb00:    0800006d    m...    DCD    134217837
        0x0001bb04:    08000075    u...    DCD    134217845
        0x0001bb08:    08000079    y...    DCD    134217849
        0x0001bb0c:    08000081    ....    DCD    134217857
        0x0001bb10:    08000099    ....    DCD    134217881
        0x0001bb14:    0800009d    ....    DCD    134217885
    __tagsym$$used.7
    sGlobalAccess
        0x0001bb18:    0001bc08    ....    DCD    113672
        0x0001bb1c:    0001bbf4    ....    DCD    113652
        0x0001bb20:    0001bbcc    ....    DCD    113612
        0x0001bb24:    0001bbe0    ....    DCD    113632
        0x0001bb28:    10060004    ....    DCD    268828676
        0x0001bb2c:    10060018    ....    DCD    268828696
        0x0001bb30:    1006002c    ,...    DCD    268828716
    .L.str.2
        0x0001bb34:    6e6e6f43    Conn    DCD    1852731203
        0x0001bb38:    69746365    ecti    DCD    1769235301
        0x0001bb3c:    3a736e6f    ons:    DCD    980643439
        0x0001bb40:    000a        ..      DCW    10
    .L.str.4
        0x0001bb42:    5047        GP      DCW    20551
        0x0001bb44:    2d3c6425    %d<-    DCD    758932517
        0x0001bb48:    473e2d2d    -->G    DCD    1195257133
        0x0001bb4c:    0a642550    P%d.    DCD    174335312
        0x0001bb50:    00          .       DCB    0
    .L.str.1
        0x0001bb51:    494f53      IOS     DCB    73,79,83
        0x0001bb54:    46494620     FIF    DCD    1179207200
        0x0001bb58:    7845204f    O Ex    DCD    2017796175
        0x0001bb5c:    6c706d61    ampl    DCD    1819307361
        0x0001bb60:    0a65        e.      DCW    2661
        0x0001bb62:    00          .       DCB    0
    .L.str.3
        0x0001bb63:    48          H       DCB    72
        0x0001bb64:    0974736f    ost.    DCD    158626671
        0x0001bb68:    616c5309    .Sla    DCD    1634489097
        0x0001bb6c:    000a6576    ve..    DCD    681334
    .L.str
        0x0001bb70:    74746948    Hitt    DCD    1953786184
        0x0001bb74:    20676e69    ing     DCD    543649385
        0x0001bb78:    65646e75    unde    DCD    1701080693
        0x0001bb7c:    6f6c6672    rflo    DCD    1869375090
        0x0001bb80:    6f662077    w fo    DCD    1868963959
        0x0001bb84:    68742072    r th    DCD    1752440946
        0x0001bb88:    65722065    e re    DCD    1701978213
        0x0001bb8c:    73657571    ques    DCD    1936029041
        0x0001bb90:    20646574    ted     DCD    543450484
        0x0001bb94:    20534f49    IOS     DCD    542330697
        0x0001bb98:    4f464946    FIFO    DCD    1330006342
        0x0001bb9c:    61727420     tra    DCD    1634890784
        0x0001bba0:    6566736e    nsfe    DCD    1701213038
        0x0001bba4:    0a72        r.      DCW    2674
        0x0001bba6:    00          .       DCB    0
    .L.str
        0x0001bba7:    0a          .       DCB    10
        0x0001bba8:    0a0a0a0a    ....    DCD    168430090
        0x0001bbac:    0a0a0a0a    ....    DCD    168430090
        0x0001bbb0:    0a0a0a0a    ....    DCD    168430090
        0x0001bbb4:    0a0a0a0a    ....    DCD    168430090
        0x0001bbb8:    0000000a    ....    DCD    10
    g_ui32DSpintbl
        0x0001bbbc:    8fc007e0    ....    DCD    2411726816
        0x0001bbc0:    e3fbffff    ....    DCD    3824943103
        0x0001bbc4:    01ffffff    ....    DCD    33554431
        0x0001bbc8:    00000000    ....    DCD    0
    __tagsym$$used.1
    ui32DSP0Allowed
        0x0001bbcc:    00000000    ....    DCD    0
        0x0001bbd0:    00000000    ....    DCD    0
        0x0001bbd4:    00000000    ....    DCD    0
        0x0001bbd8:    00000000    ....    DCD    0
        0x0001bbdc:    00000000    ....    DCD    0
    __tagsym$$used.2
    ui32DSP1Allowed
        0x0001bbe0:    00000000    ....    DCD    0
        0x0001bbe4:    00000000    ....    DCD    0
        0x0001bbe8:    00000000    ....    DCD    0
        0x0001bbec:    00000000    ....    DCD    0
        0x0001bbf0:    00000000    ....    DCD    0
    __tagsym$$used.0
    ui32MCUAllowed
        0x0001bbf4:    00000000    ....    DCD    0
        0x0001bbf8:    00000000    ....    DCD    0
        0x0001bbfc:    00000000    ....    DCD    0
        0x0001bc00:    00000000    ....    DCD    0
        0x0001bc04:    00000000    ....    DCD    0
    __tagsym$$used.3
    ui32SharedAccess
        0x0001bc08:    00000000    ....    DCD    0
        0x0001bc0c:    00000000    ....    DCD    0
        0x0001bc10:    00000000    ....    DCD    0
        0x0001bc14:    00000000    ....    DCD    0
        0x0001bc18:    00000000    ....    DCD    0
    Region$$Table$$Base
        0x0001bc1c:    0001bc50    P...    DCD    113744
        0x0001bc20:    10000000    ....    DCD    268435456
        0x0001bc24:    00000088    ....    DCD    136
        0x0001bc28:    00018270    p...    DCD    98928
        0x0001bc2c:    0001bcd8    ....    DCD    113880
        0x0001bc30:    10060000    ....    DCD    268828672
        0x0001bc34:    00000040    @...    DCD    64
        0x0001bc38:    00018270    p...    DCD    98928
        0x0001bc3c:    0001bcd8    ....    DCD    113880
        0x0001bc40:    10000088    ....    DCD    268435592
        0x0001bc44:    00001af8    ....    DCD    6904
        0x0001bc48:    0001828c    ....    DCD    98956
    Region$$Table$$Limit

** Section #2 'MCU_TCM' (SHT_PROGBITS) [SHF_ALLOC + SHF_WRITE]
    Size   : 136 bytes (alignment 8)
    Address: 0x10000000

    0x10000000:   08 1e 0c 40 18 1e 0c 40 6d db 02 40 d1 02 00 00    ...@...@m..@....
    0x10000010:   92 24 01 80 20 01 00 00 ff ff ff ff ff ff ff ff    .$.. ...........
    0x10000020:   00 01 02 0f 01 00 00 00 91 04 00 00 01 04 00 00    ................
    0x10000030:   12 00 00 00 12 00 00 00 11 00 00 00 01 41 00 00    .............A..
    0x10000040:   00 04 00 00 00 20 00 00 78 00 00 00 80 00 00 00    ..... ..x.......
    0x10000050:   00 01 00 00 40 00 00 00 64 07 00 10 ff 03 00 00    ....@...d.......
    0x10000060:   00 00 00 00 01 00 00 00 78 00 00 00 80 00 00 00    ........x.......
    0x10000070:   00 01 00 00 20 00 00 00 64 07 00 10 ff 03 00 00    .... ...d.......
    0x10000080:   00 00 00 00 00 00 00 00                            ........


** Section #3 'MCU_TCM' (SHT_NOBITS) [SHF_ALLOC + SHF_WRITE]
    Size   : 6904 bytes (alignment 8)
    Address: 0x10000088


** Section #4 'SHARED_SRAM' (SHT_PROGBITS) [SHF_ALLOC + SHF_WRITE]
    Size   : 64 bytes (alignment 4)
    Address: 0x10060000

    0x10060000:   18 bb 01 00 00 00 00 00 00 00 00 00 00 00 00 00    ................
    0x10060010:   00 00 00 00 00 00 00 00 00 00 00 00 00 00 00 00    ................
    0x10060020:   00 00 00 00 00 00 00 00 00 00 00 00 00 00 00 00    ................
    0x10060030:   00 00 00 00 00 00 00 00 00 00 00 00 00 00 00 00    ................


** Section #5 '.debug_abbrev' (SHT_PROGBITS)
    Size   : 1016 bytes


** Section #6 '.debug_frame' (SHT_PROGBITS)
    Size   : 5176 bytes


** Section #7 '.debug_info' (SHT_PROGBITS)
    Size   : 8882 bytes


** Section #8 '.debug_line' (SHT_PROGBITS)
    Size   : 5604 bytes


** Section #9 '.debug_ranges' (SHT_PROGBITS)
    Size   : 280 bytes


** Section #10 '.debug_str' (SHT_PROGBITS)
    Size   : 15110 bytes


** Section #11 '.symtab' (SHT_SYMTAB)
    Size   : 7856 bytes (alignment 4)
    String table #12 '.strtab'
    Last local symbol no. 241

    Symbol table .symtab (490 symbols, 241 local)

      #  Symbol Name                Value      Bind  Sec  Type  Vis  Size
    ========================================================================

      1  $d                         0x00018000   Lc    1   --   De 
      2  $t                         0x00018200   Lc    1   --   De 
      3  $d                         0x00018230   Lc    1   --   De 
      4  $t                         0x00018234   Lc    1   --   De 
      5  $d                         0x00018268   Lc    1   --   De 
      6  $t                         0x00018270   Lc    1   --   De 
      7  $d                         0x000182de   Lc    1   --   De 
      8  $t                         0x000182ec   Lc    1   --   De 
      9  $d                         0x00018354   Lc    1   --   De 
     10  $t                         0x00018358   Lc    1   --   De 
     11  $d                         0x00018360   Lc    1   --   De 
     12  $t                         0x00018364   Lc    1   --   De 
     13  $t.8                       0x00018368   Lc    1   --   De 
     14  $d.9                       0x00018584   Lc    1   --   De 
     15  $t.10                      0x00018588   Lc    1   --   De 
     16  $d.5                       0x00018902   Lc    1   --   De 
     17  $t.6                       0x00018908   Lc    1   --   De 
     18  $d.15                      0x00018be4   Lc    1   --   De 
     19  $t.16                      0x00018bf4   Lc    1   --   De 
     20  $d.4                       0x0001a056   Lc    1   --   De 
     21  $t.5                       0x0001a0bc   Lc    1   --   De 
     22  $d.1                       0x0001b08c   Lc    1   --   De 
     23  $t.2                       0x0001b09c   Lc    1   --   De 
     24  $t                         0x0001b7a4   Lc    1   --   De 
     25  $d                         0x0001b7f4   Lc    1   --   De 
     26  $t                         0x0001b7f8   Lc    1   --   De 
     27  $d                         0x0001b876   Lc    1   --   De 
     28  $t                         0x0001b87a   Lc    1   --   De 
     29  $d.realdata                0x0001b8c8   Lc    1   --   De 
     30  $d.realdata                0x10000000   Lc    2   --   De 
     31  $d.realdata                0x10060000   Lc    4   --   De 
     32  am_resources.c             0x00000000   Lc  Abs  File  De 
     33  __tagsym$$used.0           0x0001bbf4   Lc    1   --   De 
     34  __tagsym$$used.1           0x0001bbcc   Lc    1   --   De 
     35  __tagsym$$used.2           0x0001bbe0   Lc    1   --   De 
     36  __tagsym$$used.3           0x0001bc08   Lc    1   --   De 
     37  __tagsym$$used.4           0x10060004   Lc    4   --   De 
     38  __tagsym$$used.5           0x10060018   Lc    4   --   De 
     39  __tagsym$$used.6           0x1006002c   Lc    4   --   De 
     40  __tagsym$$used.7           0x0001bb18   Lc    1   --   De 
     41  __tagsym$$used.8           0x10060000   Lc    4   --   De 
     42  ios_fifo.c                 0x00000000   Lc  Abs  File  De 
     43  __NVIC_SetPriority         0x00018399   Lc    1  Code  De   0x42
     44  __NVIC_EnableIRQ           0x00018369   Lc    1  Code  De   0x30
     45  ios_set_up                 0x0001b11d   Lc    1  Code  De   0xda
     46  g_pIOSHandle               0x1000015c   Lc    3  Data  De   0x4
     47  .L.str.2                   0x0001bb34   Lc    1  Data  De   0xe
     48  .L.str.4                   0x0001bb42   Lc    1  Data  De   0xf
     49  .L.str.1                   0x0001bb51   Lc    1  Data  De   0x12
     50  .L.str.3                   0x0001bb63   Lc    1  Data  De   0xd
     51  .L.str                     0x0001bb70   Lc    1  Data  De   0x37
     52  g_sIOSSpiConfig            0x10000064   Lc    2  Data  De   0x20
     53  am_util_delay.c            0x00000000   Lc  Abs  File  De 
     54  am_util_stdio.c            0x00000000   Lc  Abs  File  De 
     55  decstr_to_int              0x0001a665   Lc    1  Code  De   0xa6
     56  simple_strlen              0x0001b5c5   Lc    1  Code  De   0x36
     57  padbuffer                  0x0001b575   Lc    1  Code  De   0x50
     58  ndigits_in_hex             0x0001b4c9   Lc    1  Code  De   0x3e
     59  uint64_to_hexstr           0x0001b65d   Lc    1  Code  De   0xc0
     60  ndigits_in_u64             0x0001b539   Lc    1  Code  De   0x3c
     61  uint64_to_str              0x0001b71d   Lc    1  Code  De   0x88
     62  ndigits_in_i64             0x0001b509   Lc    1  Code  De   0x30
     63  ftoa                       0x0001a825   Lc    1  Code  De   0x230
     64  divu64_10                  0x0001a70d   Lc    1  Code  De   0x118
     65  g_bTxtXlate                0x1000015a   Lc    3  Data  De   0x1
     66  g_prfbuf                   0x10000164   Lc    3  Data  De   0x400
     67  .L.str                     0x0001bba7   Lc    1  Data  De   0x13
     68  ../keil6/startup_keil6.s   0x00000000   Lc  Abs  File  De 
     69  STACK                      0x10000b80   Lc    3  Sect  De   0x1000
     70  StackMem                   0x10000b80   Lc    3  Data  De 
     71  HEAP                       0x10000b80   Lc    3  Sect  De 
     72  HeapMem                    0x10000b80   Lc    3  Data  De 
     73  RESET                      0x00018000   Lc    1  Sect  De   0x234
     74  $v0                        0x00018200   Lc    1   --   De 
     75  am_cryptosec_isr           0x0001822f   Lc    1  Code  De 
     76  am_default_isr             0x0001822f   Lc    1  Code  De   0x2
     77  .text                      0x000182d4   Lc    1  Sect  De   0x18
     78  $v0                        0x000182d4   Lc    1   --   De 
     79  am_bsp.c                   0x00000000   Lc  Abs  File  De 
     80  .L_MergedGlobals           0x100000e8   Lc    3  Data  De   0x8
     81  g_ePrintInterface          0x100000e8   Lc    3  Data  De   0x1
     82  g_sCOMUART                 0x100000ec   Lc    3  Data  De   0x4
     83  am_hal_gpio.c              0x00000000   Lc  Abs  File  De 
     84  g_ui32DSpintbl             0x0001bbbc   Lc    1  Data  De   0x10
     85  am_hal_timer.c             0x00000000   Lc  Abs  File  De 
     86  am_hal_interrupt.c         0x00000000   Lc  Abs  File  De 
     87  am_hal_ios.c               0x00000000   Lc  Abs  File  De 
     88  am_hal_sysctrl.c           0x00000000   Lc  Abs  File  De 
     89  am_hal_utils.c             0x00000000   Lc  Abs  File  De 
     90  am_bsp_pins.c              0x00000000   Lc  Abs  File  De 
     91  am_hal_dcu.c               0x00000000   Lc  Abs  File  De 
     92  get_ui32_dcu_mask          0x0001ae79   Lc    1  Code  De   0x124
     93  get_raw_dcu_mask           0x0001aa55   Lc    1  Code  De   0x424
     94  .L_MergedGlobals           0x10000000   Lc    2  Data  De   0x18
     95  am_hal_global.c            0x00000000   Lc  Abs  File  De 
     96  am_hal_pin.c               0x00000000   Lc  Abs  File  De 
     97  am_hal_pwrctrl.c           0x00000000   Lc  Abs  File  De 
     98  .L_MergedGlobals           0x10000018   Lc    2  Data  De   0x8
     99  .L_MergedGlobals.1         0x100000f0   Lc    3  Data  De   0x30
    100  g_bBoostForCryptoApplied   0x100000f0   Lc    3  Data  De   0x1
    101  g_bOrigTrimsStored         0x100000f1   Lc    3  Data  De   0x1
    102  g_bTempcoValid             0x100000f2   Lc    3  Data  De   0x1
    103  g_i32LatestVddfActTrim     0x100000f4   Lc    3  Data  De   0x4
    104  g_i32LatestLDOActTrim      0x100000f8   Lc    3  Data  De   0x4
    105  g_ui32VDDFAdjustCodes      0x100000fc   Lc    3  Data  De   0x4
    106  g_orig_ACTTRIMVDDF         0x10000100   Lc    3  Data  De   0x4
    107  g_orig_MEMLDOACTIVETRIM    0x10000104   Lc    3  Data  De   0x4
    108  g_orig_LPTRIMVDDF          0x10000108   Lc    3  Data  De   0x4
    109  g_orig_MEMLPLDOTRIM        0x1000010c   Lc    3  Data  De   0x4
    110  g_orig_TVRGVREFTRIM        0x10000110   Lc    3  Data  De   0x4
    111  g_orig_CORELDOACTIVETRIM   0x10000114   Lc    3  Data  De   0x4
    112  g_pfTempMeasured           0x10000118   Lc    3  Data  De   0x4
    113  g_TempcoADCHandle          0x1000011c   Lc    3  Data  De   0x4
    114  am_hal_bootrom_helper.c    0x00000000   Lc  Abs  File  De 
    115  am_hal_cachectrl.c         0x00000000   Lc  Abs  File  De 
    116  am_hal_itm.c               0x00000000   Lc  Abs  File  De 
    117  am_hal_rtc.c               0x00000000   Lc  Abs  File  De 
    118  am_hal_tpiu.c              0x00000000   Lc  Abs  File  De 
    119  am_hal_uart.c              0x00000000   Lc  Abs  File  De 
    120  am_hal_adc.c               0x00000000   Lc  Abs  File  De 
    121  am_hal_queue.c             0x00000000   Lc  Abs  File  De 
    122  am_hal_mram.c              0x00000000   Lc  Abs  File  De 
    123  dc.s                       0x00000000   Lc  Abs  File  De 
    124  ../clib/heapaux.c          0x00000000   Lc  Abs  File  De 
    125  .text                      0x000182ec   Lc    1  Sect  De 
    126  ../clib/angel/startup.s    0x00000000   Lc  Abs  File  De 
    127  !!!main                    0x00018234   Lc    1  Sect  De   0x8
    128  ../clib/angel/handlers.s   0x00000000   Lc  Abs  File  De 
    129  !!handler_copy             0x00018270   Lc    1  Sect  De   0x1a
    130  ../fplib/d2f.s             0x00000000   Lc  Abs  File  De 
    131  x$fpl$d2f                  0x0001b7a4   Lc    1  Sect  De   0x62
    132  $v0                        0x0001b7a4   Lc    1   --   De 
    133  ../clib/angel/kernel.s     0x00000000   Lc  Abs  File  De 
    134  .ARM.Collect$$rtentry$$00000000
                                    0x000182b4   Lc    1  Sect  De 
    135  ../fplib/dnaninf.s         0x00000000   Lc  Abs  File  De 
    136  x$fpl$dnaninf              0x0001b806   Lc    1  Sect  De   0x9c
    137  $v0                        0x0001b806   Lc    1   --   De 
    138  ../fplib/fretinf.s         0x00000000   Lc  Abs  File  De 
    139  x$fpl$fretinf              0x0001b8bc   Lc    1  Sect  De   0xa
    140  $v0                        0x0001b8bc   Lc    1   --   De 
    141  ../fplib/usenofp.s         0x00000000   Lc  Abs  File  De 
    142  x$fpl$usenofp              0x0001b8c6   Lc    1  Sect  De 
    143  ../clib/angel/kernel.s     0x00000000   Lc  Abs  File  De 
    144  .ARM.Collect$$rtentry$$00000002
                                    0x000182b4   Lc    1  Sect  De 
    145  .ARM.Collect$$rtentry$$00000009
                                    0x000182ba   Lc    1  Sect  De 
    146  .ARM.Collect$$rtentry$$0000000A
                                    0x000182ba   Lc    1  Sect  De   0x4
    147  .ARM.Collect$$rtentry$$0000000C
                                    0x000182be   Lc    1  Sect  De 
    148  .ARM.Collect$$rtentry$$0000000D
                                    0x000182be   Lc    1  Sect  De   0x8
    149  ../clib/angel/kernel.s     0x00000000   Lc  Abs  File  De 
    150  .ARM.Collect$$rtentry$$00000004
                                    0x000182b4   Lc    1  Sect  De   0x6
    151  ../clib/angel/sys.s        0x00000000   Lc  Abs  File  De 
    152  .text                      0x000182f2   Lc    1  Sect  De   0x4a
    153  ../clib/stdlib.c           0x00000000   Lc  Abs  File  De 
    154  .text                      0x0001833c   Lc    1  Sect  De 
    155  ../clib/angel/boardlib.s   0x00000000   Lc  Abs  File  De 
    156  ../clib/angel/boardlib.s   0x00000000   Lc  Abs  File  De 
    157  ../clib/angel/boardlib.s   0x00000000   Lc  Abs  File  De 
    158  ../clib/libinit.s          0x00000000   Lc  Abs  File  De 
    159  .ARM.Collect$$libinit$$00000000
                                    0x000182a8   Lc    1  Sect  De   0x2
    160  ../clib/angel/sys.s        0x00000000   Lc  Abs  File  De 
    161  .text                      0x00018350   Lc    1  Sect  De   0x8
    162  .bss                       0x10000088   Lc    3  Sect  De   0x60
    163  ../clib/angel/kernel.s     0x00000000   Lc  Abs  File  De 
    164  .ARM.Collect$$rtexit$$00000000
                                    0x000182c6   Lc    1  Sect  De   0x2
    165  ../clib/libinit.s          0x00000000   Lc  Abs  File  De 
    166  .ARM.Collect$$libinit$$00000001
                                    0x000182aa   Lc    1  Sect  De   0x4
    167  .ARM.Collect$$libinit$$00000004
                                    0x000182ae   Lc    1  Sect  De 
    168  .ARM.Collect$$libinit$$00000006
                                    0x000182ae   Lc    1  Sect  De 
    169  .ARM.Collect$$libinit$$0000000C
                                    0x000182ae   Lc    1  Sect  De 
    170  .ARM.Collect$$libinit$$0000000E
                                    0x000182ae   Lc    1  Sect  De 
    171  .ARM.Collect$$libinit$$00000010
                                    0x000182ae   Lc    1  Sect  De 
    172  .ARM.Collect$$libinit$$00000013
                                    0x000182ae   Lc    1  Sect  De 
    173  .ARM.Collect$$libinit$$00000015
                                    0x000182ae   Lc    1  Sect  De 
    174  .ARM.Collect$$libinit$$00000017
                                    0x000182ae   Lc    1  Sect  De 
    175  .ARM.Collect$$libinit$$00000019
                                    0x000182ae   Lc    1  Sect  De 
    176  .ARM.Collect$$libinit$$0000001B
                                    0x000182ae   Lc    1  Sect  De 
    177  .ARM.Collect$$libinit$$0000001D
                                    0x000182ae   Lc    1  Sect  De 
    178  .ARM.Collect$$libinit$$0000001F
                                    0x000182ae   Lc    1  Sect  De 
    179  .ARM.Collect$$libinit$$00000021
                                    0x000182ae   Lc    1  Sect  De 
    180  .ARM.Collect$$libinit$$00000023
                                    0x000182ae   Lc    1  Sect  De 
    181  .ARM.Collect$$libinit$$00000025
                                    0x000182ae   Lc    1  Sect  De 
    182  .ARM.Collect$$libinit$$00000027
                                    0x000182ae   Lc    1  Sect  De 
    183  .ARM.Collect$$libinit$$0000002E
                                    0x000182ae   Lc    1  Sect  De 
    184  .ARM.Collect$$libinit$$00000030
                                    0x000182ae   Lc    1  Sect  De 
    185  .ARM.Collect$$libinit$$00000032
                                    0x000182ae   Lc    1  Sect  De 
    186  .ARM.Collect$$libinit$$00000034
                                    0x000182ae   Lc    1  Sect  De 
    187  .ARM.Collect$$libinit$$00000035
                                    0x000182ae   Lc    1  Sect  De   0x2
    188  ../clib/angel/kernel.s     0x00000000   Lc  Abs  File  De 
    189  .ARM.Collect$$rtexit$$00000002
                                    0x000182c8   Lc    1  Sect  De 
    190  .ARM.Collect$$rtexit$$00000003
                                    0x000182c8   Lc    1  Sect  De   0x4
    191  .ARM.Collect$$rtexit$$00000004
                                    0x000182cc   Lc    1  Sect  De   0x6
    192  ../clib/armsys.c           0x00000000   Lc  Abs  File  De 
    193  ../clib/armsys.c           0x00000000   Lc  Abs  File  De 
    194  ../fplib/fpinit.s          0x00000000   Lc  Abs  File  De 
    195  x$fpl$fpinit               0x0001b8a2   Lc    1  Sect  De   0x1a
    196  $v0                        0x0001b8a2   Lc    1   --   De 
    197  ../clib/angel/sysapp.c     0x00000000   Lc  Abs  File  De 
    198  .text                      0x00018358   Lc    1  Sect  De 
    199  ../clib/angel/sysapp.c     0x00000000   Lc  Abs  File  De 
    200  ../clib/angel/boardlib.s   0x00000000   Lc  Abs  File  De 
    201  ../clib/armsys.c           0x00000000   Lc  Abs  File  De 
    202  ../clib/armsys.c           0x00000000   Lc  Abs  File  De 
    203  ../clib/libinit.s          0x00000000   Lc  Abs  File  De 
    204  .ARM.Collect$$libshutdown$$00000000
                                    0x000182b0   Lc    1  Sect  De   0x2
    205  ../clib/angel/sysapp.c     0x00000000   Lc  Abs  File  De 
    206  ../clib/angel/sysapp.c     0x00000000   Lc  Abs  File  De 
    207  ../clib/angel/sys.s        0x00000000   Lc  Abs  File  De 
    208  .text                      0x00018364   Lc    1  Sect  De   0x2
    209  ../clib/angel/sys.s        0x00000000   Lc  Abs  File  De 
    210  .text                      0x00018366   Lc    1  Sect  De 
    211  ../clib/heapalloc.c        0x00000000   Lc  Abs  File  De 
    212  ../clib/signal.c           0x00000000   Lc  Abs  File  De 
    213  ../clib/signal.c           0x00000000   Lc  Abs  File  De 
    214  ../clib/libinit.s          0x00000000   Lc  Abs  File  De 
    215  .ARM.Collect$$libshutdown$$00000002
                                    0x000182b2   Lc    1  Sect  De 
    216  .ARM.Collect$$libshutdown$$00000004
                                    0x000182b2   Lc    1  Sect  De 
    217  .ARM.Collect$$libshutdown$$00000007
                                    0x000182b2   Lc    1  Sect  De 
    218  .ARM.Collect$$libshutdown$$0000000A
                                    0x000182b2   Lc    1  Sect  De 
    219  .ARM.Collect$$libshutdown$$0000000C
                                    0x000182b2   Lc    1  Sect  De 
    220  .ARM.Collect$$libshutdown$$0000000F
                                    0x000182b2   Lc    1  Sect  De 
    221  .ARM.Collect$$libshutdown$$00000010
                                    0x000182b2   Lc    1  Sect  De   0x2
    222  ../clib/angel/rt.s         0x00000000   Lc  Abs  File  De 
    223  ../clib/signal.c           0x00000000   Lc  Abs  File  De 
    224  ../clib/signal.c           0x00000000   Lc  Abs  File  De 
    225  ../clib/signal.c           0x00000000   Lc  Abs  File  De 
    226  ../clib/signal.c           0x00000000   Lc  Abs  File  De 
    227  ../clib/angel/sysapp.c     0x00000000   Lc  Abs  File  De 
    228  ../clib/angel/sysapp.c     0x00000000   Lc  Abs  File  De 
    229  ../clib/signal.s           0x00000000   Lc  Abs  File  De 
    230  ../clib/signal.c           0x00000000   Lc  Abs  File  De 
    231  ../clib/signal.c           0x00000000   Lc  Abs  File  De 
    232  ../clib/signal.c           0x00000000   Lc  Abs  File  De 
    233  ../clib/signal.c           0x00000000   Lc  Abs  File  De 
    234  ../clib/signal.c           0x00000000   Lc  Abs  File  De 
    235  ../clib/signal.c           0x00000000   Lc  Abs  File  De 
    236  ../clib/signal.c           0x00000000   Lc  Abs  File  De 
    237  ../clib/signal.c           0x00000000   Lc  Abs  File  De 
    238  ../clib/angel/scatter.s    0x00000000   Lc  Abs  File  De 
    239  !!!scatter                 0x0001823c   Lc    1  Sect  De   0x34
    240  ../clib/angel/handlers.s   0x00000000   Lc  Abs  File  De 
    241  !!handler_zi               0x0001828c   Lc    1  Sect  De   0x1c
    242  BuildAttributes$$THM_ISAv4$E$P$D$K$B$S$7EM$VFPi3$EXTD16$VFPS$VFMA$PE$A:L22UL41UL21$X:L11$S22US41US21$IEEE1$IW$~IW$USESV6$~STKCKD$USESV7$~SHL$OTIME$ROPI$EBA8$UX$STANDARDLIB$REQ8$PRES8$EABIv2
                                    0x00000000   Gb  Abs   --   Hi 
    243  __Vectors                  0x00018000   Gb    1  Data  Hi 
    244  __Patchable                0x00018190   Gb    1  Data  Hi 
    245  Reset_Handler              0x00018201   Wk    1  Code  Hi   0x1c
    246  HardFault_Handler          0x0001821d   Wk    1  Code  Hi   0x2
    247  NMI_Handler                0x0001821f   Wk    1  Code  Hi   0x2
    248  MemManage_Handler          0x00018221   Wk    1  Code  Hi   0x2
    249  BusFault_Handler           0x00018223   Wk    1  Code  Hi   0x2
    250  UsageFault_Handler         0x00018225   Wk    1  Code  Hi   0x2
    251  SVC_Handler                0x00018227   Wk    1  Code  Hi   0x2
    252  DebugMon_Handler           0x00018229   Wk    1  Code  Hi   0x2
    253  PendSV_Handler             0x0001822b   Wk    1  Code  Hi   0x2
    254  SysTick_Handler            0x0001822d   Wk    1  Code  Hi   0x2
    255  am_adc_isr                 0x0001822f   Wk    1  Code  Hi 
    256  am_audadc0_isr             0x0001822f   Wk    1  Code  Hi 
    257  am_brownout_isr            0x0001822f   Wk    1  Code  Hi 
    258  am_cachecpu_isr            0x0001822f   Wk    1  Code  Hi 
    259  am_clkgen_isr              0x0001822f   Wk    1  Code  Hi 
    260  am_ctimer_isr              0x0001822f   Wk    1  Code  Hi 
    261  am_disp_isr                0x0001822f   Wk    1  Code  Hi 
    262  am_dsi_isr                 0x0001822f   Wk    1  Code  Hi 
    263  am_dspi2s0_isr             0x0001822f   Wk    1  Code  Hi 
    264  am_dspi2s1_isr             0x0001822f   Wk    1  Code  Hi 
    265  am_dspi2s2_isr             0x0001822f   Wk    1  Code  Hi 
    266  am_dspi2s3_isr             0x0001822f   Wk    1  Code  Hi 
    267  am_gpio0_001f_isr          0x0001822f   Wk    1  Code  Hi 
    268  am_gpio0_203f_isr          0x0001822f   Wk    1  Code  Hi 
    269  am_gpio0_405f_isr          0x0001822f   Wk    1  Code  Hi 
    270  am_gpio0_607f_isr          0x0001822f   Wk    1  Code  Hi 
    271  am_gpio1_001f_isr          0x0001822f   Wk    1  Code  Hi 
    272  am_gpio1_203f_isr          0x0001822f   Wk    1  Code  Hi 
    273  am_gpio1_405f_isr          0x0001822f   Wk    1  Code  Hi 
    274  am_gpio1_607f_isr          0x0001822f   Wk    1  Code  Hi 
    275  am_gpu_isr                 0x0001822f   Wk    1  Code  Hi 
    276  am_iomaster0_isr           0x0001822f   Wk    1  Code  Hi 
    277  am_iomaster1_isr           0x0001822f   Wk    1  Code  Hi 
    278  am_iomaster2_isr           0x0001822f   Wk    1  Code  Hi 
    279  am_iomaster3_isr           0x0001822f   Wk    1  Code  Hi 
    280  am_iomaster4_isr           0x0001822f   Wk    1  Code  Hi 
    281  am_iomaster5_isr           0x0001822f   Wk    1  Code  Hi 
    282  am_iomaster6_isr           0x0001822f   Wk    1  Code  Hi 
    283  am_iomaster7_isr           0x0001822f   Wk    1  Code  Hi 
    284  am_ioslave_acc_isr         0x0001822f   Wk    1  Code  Hi 
    285  am_mspi0_isr               0x0001822f   Wk    1  Code  Hi 
    286  am_mspi1_isr               0x0001822f   Wk    1  Code  Hi 
    287  am_mspi2_isr               0x0001822f   Wk    1  Code  Hi 
    288  am_pdm0_isr                0x0001822f   Wk    1  Code  Hi 
    289  am_pdm1_isr                0x0001822f   Wk    1  Code  Hi 
    290  am_pdm2_isr                0x0001822f   Wk    1  Code  Hi 
    291  am_pdm3_isr                0x0001822f   Wk    1  Code  Hi 
    292  am_rtc_isr                 0x0001822f   Wk    1  Code  Hi 
    293  am_sdio_isr                0x0001822f   Wk    1  Code  Hi 
    294  am_stimer_cmpr0_isr        0x0001822f   Wk    1  Code  Hi 
    295  am_stimer_cmpr1_isr        0x0001822f   Wk    1  Code  Hi 
    296  am_stimer_cmpr2_isr        0x0001822f   Wk    1  Code  Hi 
    297  am_stimer_cmpr3_isr        0x0001822f   Wk    1  Code  Hi 
    298  am_stimer_cmpr4_isr        0x0001822f   Wk    1  Code  Hi 
    299  am_stimer_cmpr5_isr        0x0001822f   Wk    1  Code  Hi 
    300  am_stimer_cmpr6_isr        0x0001822f   Wk    1  Code  Hi 
    301  am_stimer_cmpr7_isr        0x0001822f   Wk    1  Code  Hi 
    302  am_stimerof_isr            0x0001822f   Wk    1  Code  Hi 
    303  am_timer01_isr             0x0001822f   Wk    1  Code  Hi 
    304  am_timer03_isr             0x0001822f   Wk    1  Code  Hi 
    305  am_timer04_isr             0x0001822f   Wk    1  Code  Hi 
    306  am_timer05_isr             0x0001822f   Wk    1  Code  Hi 
    307  am_timer06_isr             0x0001822f   Wk    1  Code  Hi 
    308  am_timer07_isr             0x0001822f   Wk    1  Code  Hi 
    309  am_timer08_isr             0x0001822f   Wk    1  Code  Hi 
    310  am_timer09_isr             0x0001822f   Wk    1  Code  Hi 
    311  am_timer10_isr             0x0001822f   Wk    1  Code  Hi 
    312  am_timer11_isr             0x0001822f   Wk    1  Code  Hi 
    313  am_timer12_isr             0x0001822f   Wk    1  Code  Hi 
    314  am_timer13_isr             0x0001822f   Wk    1  Code  Hi 
    315  am_timer14_isr             0x0001822f   Wk    1  Code  Hi 
    316  am_timer15_isr             0x0001822f   Wk    1  Code  Hi 
    317  am_uart1_isr               0x0001822f   Wk    1  Code  Hi 
    318  am_uart2_isr               0x0001822f   Wk    1  Code  Hi 
    319  am_uart3_isr               0x0001822f   Wk    1  Code  Hi 
    320  am_uart_isr                0x0001822f   Wk    1  Code  Hi 
    321  am_usb_isr                 0x0001822f   Wk    1  Code  Hi 
    322  am_vcomp_isr               0x0001822f   Wk    1  Code  Hi 
    323  am_watchdog_isr            0x0001822f   Wk    1  Code  Hi 
    324  __main                     0x00018235   Gb    1  Code  Hi   0x8
    325  __scatterload              0x0001823d   Gb    1  Code  Hi 
    326  __scatterload_rt2          0x0001823d   Gb    1  Code  Hi   0x2c
    327  __scatterload_rt2_thumb_only
                                    0x0001823d   Gb    1  Code  Hi 
    328  __scatterload_null         0x0001824b   Gb    1  Code  Hi 
    329  __scatterload_copy         0x00018271   Gb    1  Code  Hi   0x1a
    330  __scatterload_zeroinit     0x0001828d   Gb    1  Code  Hi   0x1c
    331  __rt_lib_init              0x000182a9   Gb    1  Code  De 
    332  __rt_lib_init_fp_1         0x000182ab   Gb    1  Code  Hi 
    333  __rt_lib_init_alloca_1     0x000182af   Gb    1  Code  Hi 
    334  __rt_lib_init_argv_1       0x000182af   Gb    1  Code  Hi 
    335  __rt_lib_init_atexit_1     0x000182af   Gb    1  Code  Hi 
    336  __rt_lib_init_clock_1      0x000182af   Gb    1  Code  Hi 
    337  __rt_lib_init_cpp_1        0x000182af   Gb    1  Code  Hi 
    338  __rt_lib_init_exceptions_1 0x000182af   Gb    1  Code  Hi 
    339  __rt_lib_init_fp_trap_1    0x000182af   Gb    1  Code  Hi 
    340  __rt_lib_init_getenv_1     0x000182af   Gb    1  Code  Hi 
    341  __rt_lib_init_heap_1       0x000182af   Gb    1  Code  Hi 
    342  __rt_lib_init_lc_collate_1 0x000182af   Gb    1  Code  Hi 
    343  __rt_lib_init_lc_ctype_1   0x000182af   Gb    1  Code  Hi 
    344  __rt_lib_init_lc_monetary_1
                                    0x000182af   Gb    1  Code  Hi 
    345  __rt_lib_init_lc_numeric_1 0x000182af   Gb    1  Code  Hi 
    346  __rt_lib_init_lc_time_1    0x000182af   Gb    1  Code  Hi 
    347  __rt_lib_init_preinit_1    0x000182af   Gb    1  Code  Hi 
    348  __rt_lib_init_rand_1       0x000182af   Gb    1  Code  Hi 
    349  __rt_lib_init_relocate_pie_1
                                    0x000182af   Gb    1  Code  Hi 
    350  __rt_lib_init_return       0x000182af   Gb    1  Code  Hi 
    351  __rt_lib_init_signal_1     0x000182af   Gb    1  Code  Hi 
    352  __rt_lib_init_stdio_1      0x000182af   Gb    1  Code  Hi 
    353  __rt_lib_init_user_alloc_1 0x000182af   Gb    1  Code  Hi 
    354  __rt_lib_shutdown          0x000182b1   Gb    1  Code  De 
    355  __rt_lib_shutdown_cpp_1    0x000182b3   Gb    1  Code  Hi 
    356  __rt_lib_shutdown_fp_trap_1
                                    0x000182b3   Gb    1  Code  Hi 
    357  __rt_lib_shutdown_heap_1   0x000182b3   Gb    1  Code  Hi 
    358  __rt_lib_shutdown_return   0x000182b3   Gb    1  Code  Hi 
    359  __rt_lib_shutdown_signal_1 0x000182b3   Gb    1  Code  Hi 
    360  __rt_lib_shutdown_stdio_1  0x000182b3   Gb    1  Code  Hi 
    361  __rt_lib_shutdown_user_alloc_1
                                    0x000182b3   Gb    1  Code  Hi 
    362  __rt_entry                 0x000182b5   Gb    1  Code  Hi 
    363  __rt_entry_presh_1         0x000182b5   Gb    1  Code  Hi 
    364  __rt_entry_sh              0x000182b5   Gb    1  Code  Hi 
    365  __rt_entry_li              0x000182bb   Gb    1  Code  Hi 
    366  __rt_entry_postsh_1        0x000182bb   Gb    1  Code  Hi 
    367  __rt_entry_main            0x000182bf   Gb    1  Code  Hi 
    368  __rt_entry_postli_1        0x000182bf   Gb    1  Code  Hi 
    369  __rt_exit                  0x000182c7   Gb    1  Code  De 
    370  __rt_exit_ls               0x000182c9   Gb    1  Code  Hi 
    371  __rt_exit_prels_1          0x000182c9   Gb    1  Code  Hi 
    372  __rt_exit_exit             0x000182cd   Gb    1  Code  Hi 
    373  __user_initial_stackheap   0x000182d5   Gb    1  Code  Hi   0xa
    374  __use_two_region_memory    0x000182ed   Gb    1  Code  Hi   0x2
    375  __rt_heap_escrow$2region   0x000182ef   Gb    1  Code  De   0x2
    376  __rt_heap_expand$2region   0x000182f1   Gb    1  Code  De   0x2
    377  __user_setup_stackheap     0x000182f3   Gb    1  Code  De   0x4a
    378  exit                       0x0001833d   Gb    1  Code  De   0x12
    379  __user_libspace            0x00018351   Wk    1  Code  De   0x8
    380  __user_perproc_libspace    0x00018351   Wk    1  Code  De 
    381  __user_perthread_libspace  0x00018351   Wk    1  Code  De 
    382  _sys_exit                  0x00018359   Gb    1  Code  De   0x8
    383  __I$use$semihosting        0x00018365   Gb    1  Code  Hi 
    384  __use_no_semihosting_swi   0x00018365   Gb    1  Code  Hi   0x2
    385  __semihosting_library_function
                                    0x00018367   Gb    1  Code  Hi 
    386  am_bsp_ios_pins_enable     0x000183dd   Gb    1  Code  Hi   0x6e
    387  am_bsp_itm_printf_enable   0x0001844d   Gb    1  Code  Hi   0x7e
    388  am_hal_daxi_config         0x000184cd   Gb    1  Code  Hi   0xac
    389  am_hal_daxi_control        0x00018579   Gb    1  Code  Hi   0x116
    390  am_hal_dcu_get             0x00018691   Gb    1  Code  Hi   0x3e
    391  am_hal_dcu_update          0x000186d1   Gb    1  Code  Hi   0xa2
    392  am_hal_delay_us            0x00018775   Gb    1  Code  Hi   0x36
    393  am_hal_delay_us_status_change
                                    0x000187ad   Gb    1  Code  Hi   0x58
    394  am_hal_delay_us_status_check
                                    0x00018805   Gb    1  Code  Hi   0x98
    395  am_hal_gpio_pinconfig      0x0001889d   Gb    1  Code  Hi   0x56
    396  am_hal_gpio_state_write    0x000188f5   Gb    1  Code  Hi   0x10a
    397  am_hal_interrupt_master_disable
                                    0x00018a01   Gb    1  Code  Hi   0x8
    398  am_hal_interrupt_master_enable
                                    0x00018a09   Gb    1  Code  Hi   0x8
    399  am_hal_interrupt_master_set
                                    0x00018a11   Gb    1  Code  Hi   0x6
    400  am_hal_ios_configure       0x00018a19   Gb    1  Code  Hi   0x18c
    401  am_hal_ios_control         0x00018ba5   Gb    1  Code  Hi   0x1a2
    402  am_hal_ios_fifo_space_used 0x00018d49   Gb    1  Code  Hi   0x56
    403  am_hal_ios_fifo_write      0x00018da1   Gb    1  Code  Hi   0x360
    404  am_hal_ios_initialize      0x00019101   Gb    1  Code  Hi   0x38
    405  am_hal_ios_interrupt_clear 0x00019139   Gb    1  Code  Hi   0x28
    406  am_hal_ios_interrupt_enable
                                    0x00019161   Gb    1  Code  Hi   0x2c
    407  am_hal_ios_interrupt_service
                                    0x0001918d   Gb    1  Code  Hi   0x3e8
    408  am_hal_ios_interrupt_status_get
                                    0x00019575   Gb    1  Code  Hi   0x38
    409  am_hal_ios_power_ctrl      0x000195ad   Gb    1  Code  Hi   0xa0
    410  am_hal_itm_enable          0x0001964d   Gb    1  Code  Hi   0x56
    411  am_hal_itm_print           0x000196a5   Gb    1  Code  Hi   0x136
    412  am_hal_pwrctrl_periph_disable
                                    0x000197dd   Gb    1  Code  Hi   0x130
    413  am_hal_pwrctrl_periph_enable
                                    0x0001990d   Gb    1  Code  Hi   0x1a8
    414  am_hal_sysctrl_sleep       0x00019ab5   Gb    1  Code  Hi   0x106
    415  am_hal_timer_clear         0x00019bbd   Gb    1  Code  Hi   0x42
    416  am_hal_timer_clear_stop    0x00019c01   Gb    1  Code  Hi   0x3a
    417  am_hal_timer_config        0x00019c3d   Gb    1  Code  Hi   0x4
    418  am_hal_timer_default_config_set
                                    0x00019c41   Gb    1  Code  Hi   0x20
    419  am_hal_timer_disable       0x00019c61   Gb    1  Code  Hi   0x2a
    420  am_hal_timer_enable        0x00019c8d   Gb    1  Code  Hi   0x52
    421  am_hal_timer_interrupt_clear
                                    0x00019ce1   Gb    1  Code  Hi   0x10
    422  am_hal_timer_interrupt_enable
                                    0x00019cf1   Gb    1  Code  Hi   0x12
    423  am_hal_tpiu_enable         0x00019d05   Gb    1  Code  Hi   0x6e
    424  am_ioslave_ios_isr         0x00019d75   Gb    1  Code  Hi   0xfe
    425  am_timer00_isr             0x00019e75   Gb    1  Code  Hi   0x14
    426  am_timer02_isr             0x00019e89   Gb    1  Code  Hi   0x14
    427  am_util_stdio_printf       0x00019e9d   Gb    1  Code  Hi   0x5c
    428  am_util_stdio_printf_init  0x00019ef9   Gb    1  Code  Hi   0x14
    429  am_util_stdio_terminal_clear
                                    0x00019f0d   Gb    1  Code  Hi   0x10
    430  am_util_stdio_vsprintf     0x00019f1d   Gb    1  Code  Hi   0x654
    431  buck_ldo_update_override   0x0001a571   Gb    1  Code  Hi   0x2a
    432  crypto_boost_trims         0x0001a59d   Gb    1  Code  Hi   0xc8
    433  inform_host                0x0001af9d   Gb    1  Code  Hi   0x38
    434  init_sensors               0x0001afd5   Gb    1  Code  Hi   0x9e
    435  internal_timer_config      0x0001b075   Gb    1  Code  Hi   0xa8
    436  main                       0x0001b1f9   Gb    1  Code  Hi   0x2d0
    437  start_sensors              0x0001b5fd   Gb    1  Code  Hi   0x30
    438  stop_sensors               0x0001b62d   Gb    1  Code  Hi   0x10
    439  timer0_handler             0x0001b63d   Gb    1  Code  Hi   0xe
    440  timer1_handler             0x0001b64d   Gb    1  Code  Hi   0xe
    441  __aeabi_d2f                0x0001b7a5   Gb    1  Code  De 
    442  _d2f                       0x0001b7a5   Gb    1  Code  De   0x62
    443  __fpl_dnaninf              0x0001b807   Gb    1  Code  De   0x9c
    444  _fp_init                   0x0001b8a3   Gb    1  Code  De   0x1a
    445  __fplib_config_fpu_vfp     0x0001b8bb   Gb    1  Code  De 
    446  __fplib_config_pureend_doubles
                                    0x0001b8bb   Gb    1  Code  De 
    447  __fpl_fretinf              0x0001b8bd   Gb    1  Code  De   0xa
    448  __I$use$fp                 0x0001b8c6   Gb    1   --   De 
    449  am_hal_ios_pui8LRAM        0x0001b8c8   Gb    1  Data  Hi   0x4
    450  am_hal_pwrctrl_peripheral_control
                                    0x0001b8cc   Gb    1  Data  Hi   0x220
    451  g_AM_BSP_GPIO_OUTPUT       0x0001baec   Gb    1  Data  Hi   0x4
    452  g_am_hal_bootrom_helper    0x0001baf0   Gb    1  Data  Hi   0x28
    453  sGlobalAccess              0x0001bb18   Gb    1  Data  Hi   0x1c
    454  ui32DSP0Allowed            0x0001bbcc   Gb    1  Data  Hi   0x14
    455  ui32DSP1Allowed            0x0001bbe0   Gb    1  Data  Hi   0x14
    456  ui32MCUAllowed             0x0001bbf4   Gb    1  Data  Hi   0x14
    457  ui32SharedAccess           0x0001bc08   Gb    1  Data  Hi   0x14
    458  Region$$Table$$Base        0x0001bc1c   Gb    1   --   Hi 
    459  Region$$Table$$Limit       0x0001bc4c   Gb    1   --   Hi 
    460  gpDcuEnable                0x10000000   Gb    2  Data  Hi   0x4
    461  gpDcuLock                  0x10000004   Gb    2  Data  Hi   0x4
    462  gDcuEnable                 0x10000008   Gb    2  Data  Hi   0x8
    463  gDcuDisable                0x10000010   Gb    2  Data  Hi   0x8
    464  g_ui32TrimVer              0x10000018   Gb    2  Data  Hi   0x4
    465  g_ui32origSimobuckVDDStrim 0x1000001c   Gb    2  Data  Hi   0x4
    466  gDaxiConfig                0x10000020   Gb    2  Data  Hi   0x5
    467  g_AM_BSP_GPIO_IOS_CE       0x10000028   Gb    2  Data  Hi   0x4
    468  g_AM_BSP_GPIO_IOS_MISO     0x1000002c   Gb    2  Data  Hi   0x4
    469  g_AM_BSP_GPIO_IOS_MOSI     0x10000030   Gb    2  Data  Hi   0x4
    470  g_AM_BSP_GPIO_IOS_SCK      0x10000034   Gb    2  Data  Hi   0x4
    471  g_AM_BSP_GPIO_IOS_SCL      0x10000038   Gb    2  Data  Hi   0x4
    472  g_AM_BSP_GPIO_IOS_SDA      0x1000003c   Gb    2  Data  Hi   0x4
    473  g_AM_BSP_GPIO_ITM_SWO      0x10000040   Gb    2  Data  Hi   0x4
    474  g_sIOSI2cConfig            0x10000044   Gb    2  Data  Hi   0x20
    475  __libspace_start           0x10000088   Gb    3  Data  De   0x60
    476  __temporary_stack_top$libspace
                                    0x100000e8   Gb    3  Data  De 
    477  gStartOff                  0x10000120   Gb    3  Data  Hi   0x4
    478  g_IOShandles               0x10000124   Gb    3  Data  Hi   0x34
    479  g_bSensor0Data             0x10000158   Gb    3  Data  Hi   0x1
    480  g_bSensor1Data             0x10000159   Gb    3  Data  Hi   0x1
    481  g_iosState                 0x1000015b   Gb    3  Data  Hi   0x1
    482  g_pfnCharPrint             0x10000160   Gb    3  Data  Hi   0x4
    483  g_pui8TestBuf              0x10000564   Gb    3  Data  Hi   0x200
    484  g_pui8TxFifoBuffer         0x10000764   Gb    3  Data  Hi   0x3ff
    485  g_sSRAMBuffer              0x10000b64   Gb    3  Data  Hi   0x14
    486  g_sendIdx                  0x10000b78   Gb    3  Data  Hi   0x4
    487  psGlobalAccessPtr          0x10060000   Gb    4  Data  Hi   0x4
    488  ui32MCUClaimed             0x10060004   Gb    4  Data  Hi   0x14
    489  ui32DSP0Claimed            0x10060018   Gb    4  Data  Hi   0x14
    490  ui32DSP1Claimed            0x1006002c   Gb    4  Data  Hi   0x14


** Section #12 '.strtab' (SHT_STRTAB)
    Size   : 8084 bytes

            #  Offset String
        ====================================

            1      1: $d
            2      4: $t
            3      7: $t.8
            4     12: $d.9
            5     17: $t.10
            6     23: $d.5
            7     28: $t.6
            8     33: $d.15
            9     39: $t.16
           10     45: $d.4
           11     50: $t.5
           12     55: $d.1
           13     60: $t.2
           14     65: $d.realdata
           15     77: am_resources.c
           16     92: __tagsym$$used.0
           17    109: __tagsym$$used.1
           18    126: __tagsym$$used.2
           19    143: __tagsym$$used.3
           20    160: __tagsym$$used.4
           21    177: __tagsym$$used.5
           22    194: __tagsym$$used.6
           23    211: __tagsym$$used.7
           24    228: __tagsym$$used.8
           25    245: ios_fifo.c
           26    256: __NVIC_SetPriority
           27    275: __NVIC_EnableIRQ
           28    292: ios_set_up
           29    303: g_pIOSHandle
           30    316: .L.str.2
           31    325: .L.str.4
           32    334: .L.str.1
           33    343: .L.str.3
           34    352: .L.str
           35    359: g_sIOSSpiConfig
           36    375: am_util_delay.c
           37    391: am_util_stdio.c
           38    407: decstr_to_int
           39    421: simple_strlen
           40    435: padbuffer
           41    445: ndigits_in_hex
           42    460: uint64_to_hexstr
           43    477: ndigits_in_u64
           44    492: uint64_to_str
           45    506: ndigits_in_i64
           46    521: ftoa
           47    526: divu64_10
           48    536: g_bTxtXlate
           49    548: g_prfbuf
           50    557: ../keil6/startup_keil6.s
           51    582: STACK
           52    588: StackMem
           53    597: HEAP
           54    602: HeapMem
           55    610: RESET
           56    616: $v0
           57    620: am_cryptosec_isr
           58    637: am_default_isr
           59    652: .text
           60    658: am_bsp.c
           61    667: .L_MergedGlobals
           62    684: g_ePrintInterface
           63    702: g_sCOMUART
           64    713: am_hal_gpio.c
           65    727: g_ui32DSpintbl
           66    742: am_hal_timer.c
           67    757: am_hal_interrupt.c
           68    776: am_hal_ios.c
           69    789: am_hal_sysctrl.c
           70    806: am_hal_utils.c
           71    821: am_bsp_pins.c
           72    835: am_hal_dcu.c
           73    848: get_ui32_dcu_mask
           74    866: get_raw_dcu_mask
           75    883: am_hal_global.c
           76    899: am_hal_pin.c
           77    912: am_hal_pwrctrl.c
           78    929: .L_MergedGlobals.1
           79    948: g_bBoostForCryptoApplied
           80    973: g_bOrigTrimsStored
           81    992: g_bTempcoValid
           82   1007: g_i32LatestVddfActTrim
           83   1030: g_i32LatestLDOActTrim
           84   1052: g_ui32VDDFAdjustCodes
           85   1074: g_orig_ACTTRIMVDDF
           86   1093: g_orig_MEMLDOACTIVETRIM
           87   1117: g_orig_LPTRIMVDDF
           88   1135: g_orig_MEMLPLDOTRIM
           89   1155: g_orig_TVRGVREFTRIM
           90   1175: g_orig_CORELDOACTIVETRIM
           91   1200: g_pfTempMeasured
           92   1217: g_TempcoADCHandle
           93   1235: am_hal_bootrom_helper.c
           94   1259: am_hal_cachectrl.c
           95   1278: am_hal_itm.c
           96   1291: am_hal_rtc.c
           97   1304: am_hal_tpiu.c
           98   1318: am_hal_uart.c
           99   1332: am_hal_adc.c
          100   1345: am_hal_queue.c
          101   1360: am_hal_mram.c
          102   1374: dc.s
          103   1379: ../clib/heapaux.c
          104   1397: ../clib/angel/startup.s
          105   1421: !!!main
          106   1429: ../clib/angel/handlers.s
          107   1454: !!handler_copy
          108   1469: ../fplib/d2f.s
          109   1484: x$fpl$d2f
          110   1494: ../clib/angel/kernel.s
          111   1517: .ARM.Collect$$rtentry$$00000000
          112   1549: ../fplib/dnaninf.s
          113   1568: x$fpl$dnaninf
          114   1582: ../fplib/fretinf.s
          115   1601: x$fpl$fretinf
          116   1615: ../fplib/usenofp.s
          117   1634: x$fpl$usenofp
          118   1648: .ARM.Collect$$rtentry$$00000002
          119   1680: .ARM.Collect$$rtentry$$00000009
          120   1712: .ARM.Collect$$rtentry$$0000000A
          121   1744: .ARM.Collect$$rtentry$$0000000C
          122   1776: .ARM.Collect$$rtentry$$0000000D
          123   1808: .ARM.Collect$$rtentry$$00000004
          124   1840: ../clib/angel/sys.s
          125   1860: ../clib/stdlib.c
          126   1877: ../clib/angel/boardlib.s
          127   1902: ../clib/libinit.s
          128   1920: .ARM.Collect$$libinit$$00000000
          129   1952: .bss
          130   1957: .ARM.Collect$$rtexit$$00000000
          131   1988: .ARM.Collect$$libinit$$00000001
          132   2020: .ARM.Collect$$libinit$$00000004
          133   2052: .ARM.Collect$$libinit$$00000006
          134   2084: .ARM.Collect$$libinit$$0000000C
          135   2116: .ARM.Collect$$libinit$$0000000E
          136   2148: .ARM.Collect$$libinit$$00000010
          137   2180: .ARM.Collect$$libinit$$00000013
          138   2212: .ARM.Collect$$libinit$$00000015
          139   2244: .ARM.Collect$$libinit$$00000017
          140   2276: .ARM.Collect$$libinit$$00000019
          141   2308: .ARM.Collect$$libinit$$0000001B
          142   2340: .ARM.Collect$$libinit$$0000001D
          143   2372: .ARM.Collect$$libinit$$0000001F
          144   2404: .ARM.Collect$$libinit$$00000021
          145   2436: .ARM.Collect$$libinit$$00000023
          146   2468: .ARM.Collect$$libinit$$00000025
          147   2500: .ARM.Collect$$libinit$$00000027
          148   2532: .ARM.Collect$$libinit$$0000002E
          149   2564: .ARM.Collect$$libinit$$00000030
          150   2596: .ARM.Collect$$libinit$$00000032
          151   2628: .ARM.Collect$$libinit$$00000034
          152   2660: .ARM.Collect$$libinit$$00000035
          153   2692: .ARM.Collect$$rtexit$$00000002
          154   2723: .ARM.Collect$$rtexit$$00000003
          155   2754: .ARM.Collect$$rtexit$$00000004
          156   2785: ../clib/armsys.c
          157   2802: ../fplib/fpinit.s
          158   2820: x$fpl$fpinit
          159   2833: ../clib/angel/sysapp.c
          160   2856: .ARM.Collect$$libshutdown$$00000000
          161   2892: ../clib/heapalloc.c
          162   2912: ../clib/signal.c
          163   2929: .ARM.Collect$$libshutdown$$00000002
          164   2965: .ARM.Collect$$libshutdown$$00000004
          165   3001: .ARM.Collect$$libshutdown$$00000007
          166   3037: .ARM.Collect$$libshutdown$$0000000A
          167   3073: .ARM.Collect$$libshutdown$$0000000C
          168   3109: .ARM.Collect$$libshutdown$$0000000F
          169   3145: .ARM.Collect$$libshutdown$$00000010
          170   3181: ../clib/angel/rt.s
          171   3200: ../clib/signal.s
          172   3217: ../clib/angel/scatter.s
          173   3241: !!!scatter
          174   3252: !!handler_zi
          175   3265: BuildAttributes$$THM_ISAv4$E$P$D$K$B$S$7EM$VFPi3$EXTD16$VFPS$VFMA$PE$A:L22UL41UL21$X:L11$S22US41US21$IEEE1$IW$~IW$USESV6$~STKCKD$USESV7$~SHL$OTIME$ROPI$EBA8$UX$STANDARDLIB$REQ8$PRES8$EABIv2
          176   3455: __Vectors
          177   3465: __Patchable
          178   3477: Reset_Handler
          179   3491: HardFault_Handler
          180   3509: NMI_Handler
          181   3521: MemManage_Handler
          182   3539: BusFault_Handler
          183   3556: UsageFault_Handler
          184   3575: SVC_Handler
          185   3587: DebugMon_Handler
          186   3604: PendSV_Handler
          187   3619: SysTick_Handler
          188   3635: am_adc_isr
          189   3646: am_audadc0_isr
          190   3661: am_brownout_isr
          191   3677: am_cachecpu_isr
          192   3693: am_clkgen_isr
          193   3707: am_ctimer_isr
          194   3721: am_disp_isr
          195   3733: am_dsi_isr
          196   3744: am_dspi2s0_isr
          197   3759: am_dspi2s1_isr
          198   3774: am_dspi2s2_isr
          199   3789: am_dspi2s3_isr
          200   3804: am_gpio0_001f_isr
          201   3822: am_gpio0_203f_isr
          202   3840: am_gpio0_405f_isr
          203   3858: am_gpio0_607f_isr
          204   3876: am_gpio1_001f_isr
          205   3894: am_gpio1_203f_isr
          206   3912: am_gpio1_405f_isr
          207   3930: am_gpio1_607f_isr
          208   3948: am_gpu_isr
          209   3959: am_iomaster0_isr
          210   3976: am_iomaster1_isr
          211   3993: am_iomaster2_isr
          212   4010: am_iomaster3_isr
          213   4027: am_iomaster4_isr
          214   4044: am_iomaster5_isr
          215   4061: am_iomaster6_isr
          216   4078: am_iomaster7_isr
          217   4095: am_ioslave_acc_isr
          218   4114: am_mspi0_isr
          219   4127: am_mspi1_isr
          220   4140: am_mspi2_isr
          221   4153: am_pdm0_isr
          222   4165: am_pdm1_isr
          223   4177: am_pdm2_isr
          224   4189: am_pdm3_isr
          225   4201: am_rtc_isr
          226   4212: am_sdio_isr
          227   4224: am_stimer_cmpr0_isr
          228   4244: am_stimer_cmpr1_isr
          229   4264: am_stimer_cmpr2_isr
          230   4284: am_stimer_cmpr3_isr
          231   4304: am_stimer_cmpr4_isr
          232   4324: am_stimer_cmpr5_isr
          233   4344: am_stimer_cmpr6_isr
          234   4364: am_stimer_cmpr7_isr
          235   4384: am_stimerof_isr
          236   4400: am_timer01_isr
          237   4415: am_timer03_isr
          238   4430: am_timer04_isr
          239   4445: am_timer05_isr
          240   4460: am_timer06_isr
          241   4475: am_timer07_isr
          242   4490: am_timer08_isr
          243   4505: am_timer09_isr
          244   4520: am_timer10_isr
          245   4535: am_timer11_isr
          246   4550: am_timer12_isr
          247   4565: am_timer13_isr
          248   4580: am_timer14_isr
          249   4595: am_timer15_isr
          250   4610: am_uart1_isr
          251   4623: am_uart2_isr
          252   4636: am_uart3_isr
          253   4649: am_uart_isr
          254   4661: am_usb_isr
          255   4672: am_vcomp_isr
          256   4685: am_watchdog_isr
          257   4701: __main
          258   4708: __scatterload
          259   4722: __scatterload_rt2
          260   4740: __scatterload_rt2_thumb_only
          261   4769: __scatterload_null
          262   4788: __scatterload_copy
          263   4807: __scatterload_zeroinit
          264   4830: __rt_lib_init
          265   4844: __rt_lib_init_fp_1
          266   4863: __rt_lib_init_alloca_1
          267   4886: __rt_lib_init_argv_1
          268   4907: __rt_lib_init_atexit_1
          269   4930: __rt_lib_init_clock_1
          270   4952: __rt_lib_init_cpp_1
          271   4972: __rt_lib_init_exceptions_1
          272   4999: __rt_lib_init_fp_trap_1
          273   5023: __rt_lib_init_getenv_1
          274   5046: __rt_lib_init_heap_1
          275   5067: __rt_lib_init_lc_collate_1
          276   5094: __rt_lib_init_lc_ctype_1
          277   5119: __rt_lib_init_lc_monetary_1
          278   5147: __rt_lib_init_lc_numeric_1
          279   5174: __rt_lib_init_lc_time_1
          280   5198: __rt_lib_init_preinit_1
          281   5222: __rt_lib_init_rand_1
          282   5243: __rt_lib_init_relocate_pie_1
          283   5272: __rt_lib_init_return
          284   5293: __rt_lib_init_signal_1
          285   5316: __rt_lib_init_stdio_1
          286   5338: __rt_lib_init_user_alloc_1
          287   5365: __rt_lib_shutdown
          288   5383: __rt_lib_shutdown_cpp_1
          289   5407: __rt_lib_shutdown_fp_trap_1
          290   5435: __rt_lib_shutdown_heap_1
          291   5460: __rt_lib_shutdown_return
          292   5485: __rt_lib_shutdown_signal_1
          293   5512: __rt_lib_shutdown_stdio_1
          294   5538: __rt_lib_shutdown_user_alloc_1
          295   5569: __rt_entry
          296   5580: __rt_entry_presh_1
          297   5599: __rt_entry_sh
          298   5613: __rt_entry_li
          299   5627: __rt_entry_postsh_1
          300   5647: __rt_entry_main
          301   5663: __rt_entry_postli_1
          302   5683: __rt_exit
          303   5693: __rt_exit_ls
          304   5706: __rt_exit_prels_1
          305   5724: __rt_exit_exit
          306   5739: __user_initial_stackheap
          307   5764: __use_two_region_memory
          308   5788: __rt_heap_escrow$2region
          309   5813: __rt_heap_expand$2region
          310   5838: __user_setup_stackheap
          311   5861: exit
          312   5866: __user_libspace
          313   5882: __user_perproc_libspace
          314   5906: __user_perthread_libspace
          315   5932: _sys_exit
          316   5942: __I$use$semihosting
          317   5962: __use_no_semihosting_swi
          318   5987: __semihosting_library_function
          319   6018: am_bsp_ios_pins_enable
          320   6041: am_bsp_itm_printf_enable
          321   6066: am_hal_daxi_config
          322   6085: am_hal_daxi_control
          323   6105: am_hal_dcu_get
          324   6120: am_hal_dcu_update
          325   6138: am_hal_delay_us
          326   6154: am_hal_delay_us_status_change
          327   6184: am_hal_delay_us_status_check
          328   6213: am_hal_gpio_pinconfig
          329   6235: am_hal_gpio_state_write
          330   6259: am_hal_interrupt_master_disable
          331   6291: am_hal_interrupt_master_enable
          332   6322: am_hal_interrupt_master_set
          333   6350: am_hal_ios_configure
          334   6371: am_hal_ios_control
          335   6390: am_hal_ios_fifo_space_used
          336   6417: am_hal_ios_fifo_write
          337   6439: am_hal_ios_initialize
          338   6461: am_hal_ios_interrupt_clear
          339   6488: am_hal_ios_interrupt_enable
          340   6516: am_hal_ios_interrupt_service
          341   6545: am_hal_ios_interrupt_status_get
          342   6577: am_hal_ios_power_ctrl
          343   6599: am_hal_itm_enable
          344   6617: am_hal_itm_print
          345   6634: am_hal_pwrctrl_periph_disable
          346   6664: am_hal_pwrctrl_periph_enable
          347   6693: am_hal_sysctrl_sleep
          348   6714: am_hal_timer_clear
          349   6733: am_hal_timer_clear_stop
          350   6757: am_hal_timer_config
          351   6777: am_hal_timer_default_config_set
          352   6809: am_hal_timer_disable
          353   6830: am_hal_timer_enable
          354   6850: am_hal_timer_interrupt_clear
          355   6879: am_hal_timer_interrupt_enable
          356   6909: am_hal_tpiu_enable
          357   6928: am_ioslave_ios_isr
          358   6947: am_timer00_isr
          359   6962: am_timer02_isr
          360   6977: am_util_stdio_printf
          361   6998: am_util_stdio_printf_init
          362   7024: am_util_stdio_terminal_clear
          363   7053: am_util_stdio_vsprintf
          364   7076: buck_ldo_update_override
          365   7101: crypto_boost_trims
          366   7120: inform_host
          367   7132: init_sensors
          368   7145: internal_timer_config
          369   7167: main
          370   7172: start_sensors
          371   7186: stop_sensors
          372   7199: timer0_handler
          373   7214: timer1_handler
          374   7229: __aeabi_d2f
          375   7241: _d2f
          376   7246: __fpl_dnaninf
          377   7260: _fp_init
          378   7269: __fplib_config_fpu_vfp
          379   7292: __fplib_config_pureend_doubles
          380   7323: __fpl_fretinf
          381   7337: __I$use$fp
          382   7348: am_hal_ios_pui8LRAM
          383   7368: am_hal_pwrctrl_peripheral_control
          384   7402: g_AM_BSP_GPIO_OUTPUT
          385   7423: g_am_hal_bootrom_helper
          386   7447: sGlobalAccess
          387   7461: ui32DSP0Allowed
          388   7477: ui32DSP1Allowed
          389   7493: ui32MCUAllowed
          390   7508: ui32SharedAccess
          391   7525: Region$$Table$$Base
          392   7545: Region$$Table$$Limit
          393   7566: gpDcuEnable
          394   7578: gpDcuLock
          395   7588: gDcuEnable
          396   7599: gDcuDisable
          397   7611: g_ui32TrimVer
          398   7625: g_ui32origSimobuckVDDStrim
          399   7652: gDaxiConfig
          400   7664: g_AM_BSP_GPIO_IOS_CE
          401   7685: g_AM_BSP_GPIO_IOS_MISO
          402   7708: g_AM_BSP_GPIO_IOS_MOSI
          403   7731: g_AM_BSP_GPIO_IOS_SCK
          404   7753: g_AM_BSP_GPIO_IOS_SCL
          405   7775: g_AM_BSP_GPIO_IOS_SDA
          406   7797: g_AM_BSP_GPIO_ITM_SWO
          407   7819: g_sIOSI2cConfig
          408   7835: __libspace_start
          409   7852: __temporary_stack_top$libspace
          410   7883: gStartOff
          411   7893: g_IOShandles
          412   7906: g_bSensor0Data
          413   7921: g_bSensor1Data
          414   7936: g_iosState
          415   7947: g_pfnCharPrint
          416   7962: g_pui8TestBuf
          417   7976: g_pui8TxFifoBuffer
          418   7995: g_sSRAMBuffer
          419   8009: g_sendIdx
          420   8019: psGlobalAccessPtr
          421   8037: ui32MCUClaimed
          422   8052: ui32DSP0Claimed
          423   8068: ui32DSP1Claimed


** Section #13 '.note' (SHT_NOTE)
    Size   : 32 bytes (alignment 4)


** Section #14 '.comment' (SHT_PROGBITS)
    Size   : 1560 bytes


** Section #15 '.shstrtab' (SHT_STRTAB)
    Size   : 148 bytes

            #  Offset String
        ====================================

            1      1: MCU_MRAM
            2     10: MCU_TCM
            3     18: SHARED_SRAM
            4     30: .debug_abbrev
            5     44: .debug_frame
            6     57: .debug_info
            7     69: .debug_line
            8     81: .debug_ranges
            9     95: .debug_str
           10    106: .symtab
           11    114: .strtab
           12    122: .note
           13    128: .comment
           14    137: .shstrtab
           15    147: 


