
========================================================================

** ELF Header Information

    File Name: bin\pwr_iom_spi.axf

    Machine class: ELFCLASS32 (32-bit)
    Data encoding: ELFDATA2LSB (Little endian)
    Header version: EV_CURRENT (Current version)
    Operating System ABI: none
    ABI Version: 0
    File Type: ET_EXEC (Executable) (2)
    Machine: EM_ARM (ARM)

    Image Entry point: 0x00018235
    Flags: EF_ARM_HASENTRY + EF_ARM_ABI_FLOAT_HARD (0x05000402)

    ARM ELF revision: 5 (ABI version 2)

    Conforms to Hard float procedure-call standard

    Built with
    Component: Arm Compiler for Embedded 6.19 Tool: armasm [5e73cb00]
    Component: Arm Compiler for Embedded 6.19 Tool: armlink [5e73cb00]

    Header size: 52 bytes (0x34)
    Program header entry size: 32 bytes (0x20)
    Section header entry size: 40 bytes (0x28)

    Program header entries: 1
    Section header entries: 16

    Program header offset: 191300 (0x0002eb44)
    Section header offset: 191332 (0x0002eb64)

    Section header string table index: 15

========================================================================

** Program header #0 (PT_LOAD) [PF_X + PF_W + PF_R + PF_ARM_ENTRY]
    Size : 54320 bytes (16888 bytes in file)
    Virtual address: 0x00018000 (Alignment 8)


========================================================================

** Section #1 'MCU_MRAM' (SHT_PROGBITS) [SHF_ALLOC + SHF_EXECINSTR]
    Size   : 16644 bytes (alignment 4)
    Address: 0x00018000

    $d
    RESET
    __Vectors
        0x00018000:    100092e8    ....    DCD    268473064
        0x00018004:    00018201    ....    DCD    98817
        0x00018008:    0001821f    ....    DCD    98847
        0x0001800c:    00018369    i...    DCD    99177
        0x00018010:    00018221    !...    DCD    98849
        0x00018014:    00018223    #...    DCD    98851
        0x00018018:    00018225    %...    DCD    98853
        0x0001801c:    00000000    ....    DCD    0
        0x00018020:    00000000    ....    DCD    0
        0x00018024:    00000000    ....    DCD    0
        0x00018028:    00000000    ....    DCD    0
        0x0001802c:    00018227    '...    DCD    98855
        0x00018030:    00018229    )...    DCD    98857
        0x00018034:    00000000    ....    DCD    0
        0x00018038:    0001822b    +...    DCD    98859
        0x0001803c:    0001822d    -...    DCD    98861
        0x00018040:    0001822f    /...    DCD    98863
        0x00018044:    0001822f    /...    DCD    98863
        0x00018048:    0001822f    /...    DCD    98863
        0x0001804c:    0001822f    /...    DCD    98863
        0x00018050:    0001822f    /...    DCD    98863
        0x00018054:    0001822f    /...    DCD    98863
        0x00018058:    0001822f    /...    DCD    98863
        0x0001805c:    0001822f    /...    DCD    98863
        0x00018060:    0001822f    /...    DCD    98863
        0x00018064:    0001822f    /...    DCD    98863
        0x00018068:    0001822f    /...    DCD    98863
        0x0001806c:    0001822f    /...    DCD    98863
        0x00018070:    0001822f    /...    DCD    98863
        0x00018074:    0001a7bd    ....    DCD    108477
        0x00018078:    0001822f    /...    DCD    98863
        0x0001807c:    0001822f    /...    DCD    98863
        0x00018080:    0001822f    /...    DCD    98863
        0x00018084:    0001822f    /...    DCD    98863
        0x00018088:    0001822f    /...    DCD    98863
        0x0001808c:    0001822f    /...    DCD    98863
        0x00018090:    0001822f    /...    DCD    98863
        0x00018094:    0001822f    /...    DCD    98863
        0x00018098:    0001822f    /...    DCD    98863
        0x0001809c:    0001822f    /...    DCD    98863
        0x000180a0:    0001822f    /...    DCD    98863
        0x000180a4:    0001822f    /...    DCD    98863
        0x000180a8:    0001822f    /...    DCD    98863
        0x000180ac:    0001822f    /...    DCD    98863
        0x000180b0:    0001822f    /...    DCD    98863
        0x000180b4:    0001822f    /...    DCD    98863
        0x000180b8:    0001822f    /...    DCD    98863
        0x000180bc:    0001822f    /...    DCD    98863
        0x000180c0:    0001822f    /...    DCD    98863
        0x000180c4:    0001822f    /...    DCD    98863
        0x000180c8:    0001822f    /...    DCD    98863
        0x000180cc:    0001822f    /...    DCD    98863
        0x000180d0:    0001822f    /...    DCD    98863
        0x000180d4:    0001822f    /...    DCD    98863
        0x000180d8:    0001822f    /...    DCD    98863
        0x000180dc:    0001822f    /...    DCD    98863
        0x000180e0:    0001822f    /...    DCD    98863
        0x000180e4:    0001822f    /...    DCD    98863
        0x000180e8:    0001822f    /...    DCD    98863
        0x000180ec:    0001822f    /...    DCD    98863
        0x000180f0:    0001822f    /...    DCD    98863
        0x000180f4:    0001822f    /...    DCD    98863
        0x000180f8:    0001822f    /...    DCD    98863
        0x000180fc:    0001822f    /...    DCD    98863
        0x00018100:    0001822f    /...    DCD    98863
        0x00018104:    0001822f    /...    DCD    98863
        0x00018108:    0001822f    /...    DCD    98863
        0x0001810c:    0001822f    /...    DCD    98863
        0x00018110:    0001822f    /...    DCD    98863
        0x00018114:    0001822f    /...    DCD    98863
        0x00018118:    0001822f    /...    DCD    98863
        0x0001811c:    0001822f    /...    DCD    98863
        0x00018120:    0001822f    /...    DCD    98863
        0x00018124:    0001822f    /...    DCD    98863
        0x00018128:    0001822f    /...    DCD    98863
        0x0001812c:    0001822f    /...    DCD    98863
        0x00018130:    0001822f    /...    DCD    98863
        0x00018134:    0001822f    /...    DCD    98863
        0x00018138:    0001822f    /...    DCD    98863
        0x0001813c:    0001822f    /...    DCD    98863
        0x00018140:    0001822f    /...    DCD    98863
        0x00018144:    0001822f    /...    DCD    98863
        0x00018148:    0001822f    /...    DCD    98863
        0x0001814c:    0001a801    ....    DCD    108545
        0x00018150:    0001822f    /...    DCD    98863
        0x00018154:    0001822f    /...    DCD    98863
        0x00018158:    0001822f    /...    DCD    98863
        0x0001815c:    0001822f    /...    DCD    98863
        0x00018160:    0001822f    /...    DCD    98863
        0x00018164:    0001822f    /...    DCD    98863
        0x00018168:    0001822f    /...    DCD    98863
        0x0001816c:    0001822f    /...    DCD    98863
        0x00018170:    0001822f    /...    DCD    98863
        0x00018174:    0001822f    /...    DCD    98863
        0x00018178:    0001822f    /...    DCD    98863
        0x0001817c:    0001822f    /...    DCD    98863
        0x00018180:    0001822f    /...    DCD    98863
        0x00018184:    0001822f    /...    DCD    98863
        0x00018188:    0001822f    /...    DCD    98863
        0x0001818c:    0001822f    /...    DCD    98863
    __Patchable
        0x00018190:    00000000    ....    DCD    0
        0x00018194:    00000000    ....    DCD    0
        0x00018198:    00000000    ....    DCD    0
        0x0001819c:    00000000    ....    DCD    0
        0x000181a0:    00000000    ....    DCD    0
        0x000181a4:    00000000    ....    DCD    0
        0x000181a8:    00000000    ....    DCD    0
        0x000181ac:    00000000    ....    DCD    0
        0x000181b0:    00000000    ....    DCD    0
        0x000181b4:    00000000    ....    DCD    0
        0x000181b8:    00000000    ....    DCD    0
        0x000181bc:    00000000    ....    DCD    0
        0x000181c0:    00000000    ....    DCD    0
        0x000181c4:    00000000    ....    DCD    0
        0x000181c8:    00000000    ....    DCD    0
        0x000181cc:    00000000    ....    DCD    0
        0x000181d0:    00000000    ....    DCD    0
        0x000181d4:    00000000    ....    DCD    0
        0x000181d8:    00000000    ....    DCD    0
        0x000181dc:    00000000    ....    DCD    0
        0x000181e0:    00000000    ....    DCD    0
        0x000181e4:    00000000    ....    DCD    0
        0x000181e8:    00000000    ....    DCD    0
        0x000181ec:    00000000    ....    DCD    0
        0x000181f0:    00000000    ....    DCD    0
        0x000181f4:    00000000    ....    DCD    0
        0x000181f8:    00000000    ....    DCD    0
        0x000181fc:    00000000    ....    DCD    0
    $t
    $v0
    Reset_Handler
        0x00018200:    f64e5088    N..P    MOV      r0,#0xed88
        0x00018204:    f2ce0000    ....    MOVT     r0,#0xe000
        0x00018208:    6801        .h      LDR      r1,[r0,#0]
        0x0001820a:    f4410170    A.p.    ORR      r1,r1,#0xf00000
        0x0001820e:    6001        .`      STR      r1,[r0,#0]
        0x00018210:    f3bf8f4f    ..O.    DSB      
        0x00018214:    f3bf8f6f    ..o.    ISB      
        0x00018218:    4805        .H      LDR      r0,[pc,#20] ; [0x18230] = 0x18235
        0x0001821a:    4700        .G      BX       r0
        0x0001821c:    e7fe        ..      B        0x1821c ; Reset_Handler + 28
    NMI_Handler
        0x0001821e:    e7fe        ..      B        NMI_Handler ; 0x1821e
    MemManage_Handler
        0x00018220:    e7fe        ..      B        MemManage_Handler ; 0x18220
    BusFault_Handler
        0x00018222:    e7fe        ..      B        BusFault_Handler ; 0x18222
    UsageFault_Handler
        0x00018224:    e7fe        ..      B        UsageFault_Handler ; 0x18224
    SVC_Handler
        0x00018226:    e7fe        ..      B        SVC_Handler ; 0x18226
    DebugMon_Handler
        0x00018228:    e7fe        ..      B        DebugMon_Handler ; 0x18228
    PendSV_Handler
        0x0001822a:    e7fe        ..      B        PendSV_Handler ; 0x1822a
    SysTick_Handler
        0x0001822c:    e7fe        ..      B        SysTick_Handler ; 0x1822c
    am_cryptosec_isr
    am_default_isr
    am_adc_isr
    am_audadc0_isr
    am_brownout_isr
    am_cachecpu_isr
    am_clkgen_isr
    am_ctimer_isr
    am_disp_isr
    am_dsi_isr
    am_dspi2s0_isr
    am_dspi2s1_isr
    am_dspi2s2_isr
    am_dspi2s3_isr
    am_gpio0_001f_isr
    am_gpio0_203f_isr
    am_gpio0_405f_isr
    am_gpio0_607f_isr
    am_gpio1_001f_isr
    am_gpio1_203f_isr
    am_gpio1_405f_isr
    am_gpio1_607f_isr
    am_gpu_isr
    am_iomaster0_isr
    am_iomaster1_isr
    am_iomaster2_isr
    am_iomaster3_isr
    am_iomaster4_isr
    am_iomaster5_isr
    am_iomaster6_isr
    am_ioslave_acc_isr
    am_ioslave_ios_isr
    am_mspi0_isr
    am_mspi1_isr
    am_mspi2_isr
    am_pdm0_isr
    am_pdm1_isr
    am_pdm2_isr
    am_pdm3_isr
    am_rtc_isr
    am_sdio_isr
    am_stimer_cmpr0_isr
    am_stimer_cmpr1_isr
    am_stimer_cmpr2_isr
    am_stimer_cmpr3_isr
    am_stimer_cmpr4_isr
    am_stimer_cmpr5_isr
    am_stimer_cmpr6_isr
    am_stimer_cmpr7_isr
    am_stimerof_isr
    am_timer01_isr
    am_timer02_isr
    am_timer03_isr
    am_timer04_isr
    am_timer05_isr
    am_timer06_isr
    am_timer07_isr
    am_timer08_isr
    am_timer09_isr
    am_timer10_isr
    am_timer11_isr
    am_timer12_isr
    am_timer13_isr
    am_timer14_isr
    am_timer15_isr
    am_uart1_isr
    am_uart2_isr
    am_uart3_isr
    am_uart_isr
    am_usb_isr
    am_vcomp_isr
    am_watchdog_isr
        0x0001822e:    e7fe        ..      B        am_cryptosec_isr ; 0x1822e
    $d
        0x00018230:    00018235    5...    DCD    98869
    $t
    !!!main
    __main
        0x00018234:    f000f802    ....    BL       __scatterload ; 0x1823c
        0x00018238:    f000f83c    ..<.    BL       __rt_entry ; 0x182b4
    !!!scatter
    __scatterload
    __scatterload_rt2
    __scatterload_rt2_thumb_only
        0x0001823c:    a00a        ..      ADR      r0,{pc}+0x2c ; 0x18268
        0x0001823e:    e8900c00    ....    LDM      r0,{r10,r11}
        0x00018242:    4482        .D      ADD      r10,r10,r0
        0x00018244:    4483        .D      ADD      r11,r11,r0
        0x00018246:    f1aa0701    ....    SUB      r7,r10,#1
    __scatterload_null
        0x0001824a:    45da        .E      CMP      r10,r11
        0x0001824c:    d101        ..      BNE      0x18252 ; __scatterload_null + 8
        0x0001824e:    f000f831    ..1.    BL       __rt_entry ; 0x182b4
        0x00018252:    f2af0e09    ....    ADR      lr,{pc}-7 ; 0x1824b
        0x00018256:    e8ba000f    ....    LDM      r10!,{r0-r3}
        0x0001825a:    f0130f01    ....    TST      r3,#1
        0x0001825e:    bf18        ..      IT       NE
        0x00018260:    1afb        ..      SUBNE    r3,r7,r3
        0x00018262:    f0430301    C...    ORR      r3,r3,#1
        0x00018266:    4718        .G      BX       r3
    $d
        0x00018268:    00003e6c    l>..    DCD    15980
        0x0001826c:    00003e9c    .>..    DCD    16028
    $t
    !!handler_copy
    __scatterload_copy
        0x00018270:    3a10        .:      SUBS     r2,r2,#0x10
        0x00018272:    bf24        $.      ITT      CS
        0x00018274:    c878        x.      LDMCS    r0!,{r3-r6}
        0x00018276:    c178        x.      STMCS    r1!,{r3-r6}
        0x00018278:    d8fa        ..      BHI      __scatterload_copy ; 0x18270
        0x0001827a:    0752        R.      LSLS     r2,r2,#29
        0x0001827c:    bf24        $.      ITT      CS
        0x0001827e:    c830        0.      LDMCS    r0!,{r4,r5}
        0x00018280:    c130        0.      STMCS    r1!,{r4,r5}
        0x00018282:    bf44        D.      ITT      MI
        0x00018284:    6804        .h      LDRMI    r4,[r0,#0]
        0x00018286:    600c        .`      STRMI    r4,[r1,#0]
        0x00018288:    4770        pG      BX       lr
        0x0001828a:    0000        ..      MOVS     r0,r0
    !!handler_zi
    __scatterload_zeroinit
        0x0001828c:    2300        .#      MOVS     r3,#0
        0x0001828e:    2400        .$      MOVS     r4,#0
        0x00018290:    2500        .%      MOVS     r5,#0
        0x00018292:    2600        .&      MOVS     r6,#0
        0x00018294:    3a10        .:      SUBS     r2,r2,#0x10
        0x00018296:    bf28        (.      IT       CS
        0x00018298:    c178        x.      STMCS    r1!,{r3-r6}
        0x0001829a:    d8fb        ..      BHI      0x18294 ; __scatterload_zeroinit + 8
        0x0001829c:    0752        R.      LSLS     r2,r2,#29
        0x0001829e:    bf28        (.      IT       CS
        0x000182a0:    c130        0.      STMCS    r1!,{r4,r5}
        0x000182a2:    bf48        H.      IT       MI
        0x000182a4:    600b        .`      STRMI    r3,[r1,#0]
        0x000182a6:    4770        pG      BX       lr
    .ARM.Collect$$libinit$$00000000
    __rt_lib_init
        0x000182a8:    b51f        ..      PUSH     {r0-r4,lr}
    .ARM.Collect$$libinit$$00000001
    __rt_lib_init_fp_1
        0x000182aa:    f003fbca    ....    BL       _fp_init ; 0x1ba42
    .ARM.Collect$$libinit$$00000004
    .ARM.Collect$$libinit$$00000006
    .ARM.Collect$$libinit$$0000000C
    .ARM.Collect$$libinit$$0000000E
    .ARM.Collect$$libinit$$00000010
    .ARM.Collect$$libinit$$00000013
    .ARM.Collect$$libinit$$00000015
    .ARM.Collect$$libinit$$00000017
    .ARM.Collect$$libinit$$00000019
    .ARM.Collect$$libinit$$0000001B
    .ARM.Collect$$libinit$$0000001D
    .ARM.Collect$$libinit$$0000001F
    .ARM.Collect$$libinit$$00000021
    .ARM.Collect$$libinit$$00000023
    .ARM.Collect$$libinit$$00000025
    .ARM.Collect$$libinit$$00000027
    .ARM.Collect$$libinit$$0000002E
    .ARM.Collect$$libinit$$00000030
    .ARM.Collect$$libinit$$00000032
    .ARM.Collect$$libinit$$00000034
    .ARM.Collect$$libinit$$00000035
    __rt_lib_init_alloca_1
    __rt_lib_init_argv_1
    __rt_lib_init_atexit_1
    __rt_lib_init_clock_1
    __rt_lib_init_cpp_1
    __rt_lib_init_exceptions_1
    __rt_lib_init_fp_trap_1
    __rt_lib_init_getenv_1
    __rt_lib_init_heap_1
    __rt_lib_init_lc_collate_1
    __rt_lib_init_lc_ctype_1
    __rt_lib_init_lc_monetary_1
    __rt_lib_init_lc_numeric_1
    __rt_lib_init_lc_time_1
    __rt_lib_init_preinit_1
    __rt_lib_init_rand_1
    __rt_lib_init_relocate_pie_1
    __rt_lib_init_return
    __rt_lib_init_signal_1
    __rt_lib_init_stdio_1
    __rt_lib_init_user_alloc_1
        0x000182ae:    bd1f        ..      POP      {r0-r4,pc}
    .ARM.Collect$$libshutdown$$00000000
    __rt_lib_shutdown
        0x000182b0:    b510        ..      PUSH     {r4,lr}
    .ARM.Collect$$libshutdown$$00000002
    .ARM.Collect$$libshutdown$$00000004
    .ARM.Collect$$libshutdown$$00000007
    .ARM.Collect$$libshutdown$$0000000A
    .ARM.Collect$$libshutdown$$0000000C
    .ARM.Collect$$libshutdown$$0000000F
    .ARM.Collect$$libshutdown$$00000010
    __rt_lib_shutdown_cpp_1
    __rt_lib_shutdown_fp_trap_1
    __rt_lib_shutdown_heap_1
    __rt_lib_shutdown_return
    __rt_lib_shutdown_signal_1
    __rt_lib_shutdown_stdio_1
    __rt_lib_shutdown_user_alloc_1
        0x000182b2:    bd10        ..      POP      {r4,pc}
    .ARM.Collect$$rtentry$$00000000
    .ARM.Collect$$rtentry$$00000002
    .ARM.Collect$$rtentry$$00000004
    __rt_entry
    __rt_entry_presh_1
    __rt_entry_sh
        0x000182b4:    f000f81d    ....    BL       __user_setup_stackheap ; 0x182f2
        0x000182b8:    4611        .F      MOV      r1,r2
    .ARM.Collect$$rtentry$$00000009
    .ARM.Collect$$rtentry$$0000000A
    __rt_entry_li
    __rt_entry_postsh_1
        0x000182ba:    f7fffff5    ....    BL       __rt_lib_init ; 0x182a8
    .ARM.Collect$$rtentry$$0000000C
    .ARM.Collect$$rtentry$$0000000D
    __rt_entry_main
    __rt_entry_postli_1
        0x000182be:    f003f90f    ....    BL       main ; 0x1b4e0
        0x000182c2:    f000f83b    ..;.    BL       exit ; 0x1833c
    .ARM.Collect$$rtexit$$00000000
    __rt_exit
        0x000182c6:    b403        ..      PUSH     {r0,r1}
    .ARM.Collect$$rtexit$$00000002
    .ARM.Collect$$rtexit$$00000003
    __rt_exit_ls
    __rt_exit_prels_1
        0x000182c8:    f7fffff2    ....    BL       __rt_lib_shutdown ; 0x182b0
    .ARM.Collect$$rtexit$$00000004
    __rt_exit_exit
        0x000182cc:    bc03        ..      POP      {r0,r1}
        0x000182ce:    f000f843    ..C.    BL       _sys_exit ; 0x18358
        0x000182d2:    0000        ..      MOVS     r0,r0
    .text
    $v0
    __user_initial_stackheap
        0x000182d4:    4802        .H      LDR      r0,[pc,#8] ; [0x182e0] = 0x100082e8
        0x000182d6:    4903        .I      LDR      r1,[pc,#12] ; [0x182e4] = 0x100092e8
        0x000182d8:    4a01        .J      LDR      r2,[pc,#4] ; [0x182e0] = 0x100082e8
        0x000182da:    4b03        .K      LDR      r3,[pc,#12] ; [0x182e8] = 0x100082e8
        0x000182dc:    4770        pG      BX       lr
    $d
        0x000182de:    0000        ..      DCW    0
        0x000182e0:    100082e8    ....    DCD    268468968
        0x000182e4:    100092e8    ....    DCD    268473064
        0x000182e8:    100082e8    ....    DCD    268468968
    $t
    .text
    __use_two_region_memory
        0x000182ec:    4770        pG      BX       lr
    __rt_heap_escrow$2region
        0x000182ee:    4770        pG      BX       lr
    __rt_heap_expand$2region
        0x000182f0:    4770        pG      BX       lr
    .text
    __user_setup_stackheap
        0x000182f2:    4675        uF      MOV      r5,lr
        0x000182f4:    f000f82c    ..,.    BL       __user_libspace ; 0x18350
        0x000182f8:    46ae        .F      MOV      lr,r5
        0x000182fa:    0005        ..      MOVS     r5,r0
        0x000182fc:    4669        iF      MOV      r1,sp
        0x000182fe:    4653        SF      MOV      r3,r10
        0x00018300:    f0200007     ...    BIC      r0,r0,#7
        0x00018304:    4685        .F      MOV      sp,r0
        0x00018306:    b018        ..      ADD      sp,sp,#0x60
        0x00018308:    b520         .      PUSH     {r5,lr}
        0x0001830a:    f7ffffe3    ....    BL       __user_initial_stackheap ; 0x182d4
        0x0001830e:    e8bd4020    .. @    POP      {r5,lr}
        0x00018312:    f04f0600    O...    MOV      r6,#0
        0x00018316:    f04f0700    O...    MOV      r7,#0
        0x0001831a:    f04f0800    O...    MOV      r8,#0
        0x0001831e:    f04f0b00    O...    MOV      r11,#0
        0x00018322:    46ac        .F      MOV      r12,r5
        0x00018324:    e8ac09c0    ....    STM      r12!,{r6-r8,r11}
        0x00018328:    e8ac09c0    ....    STM      r12!,{r6-r8,r11}
        0x0001832c:    e8ac09c0    ....    STM      r12!,{r6-r8,r11}
        0x00018330:    e8ac09c0    ....    STM      r12!,{r6-r8,r11}
        0x00018334:    f0210107    !...    BIC      r1,r1,#7
        0x00018338:    468d        .F      MOV      sp,r1
        0x0001833a:    4770        pG      BX       lr
    .text
    exit
        0x0001833c:    b510        ..      PUSH     {r4,lr}
        0x0001833e:    4604        .F      MOV      r4,r0
        0x00018340:    f3af8000    ....    NOP.W    
        0x00018344:    4620         F      MOV      r0,r4
        0x00018346:    e8bd4010    ...@    POP      {r4,lr}
        0x0001834a:    f7ffbfbc    ....    B.W      __rt_exit ; 0x182c6
        0x0001834e:    0000        ..      MOVS     r0,r0
    .text
    __user_libspace
    __user_perproc_libspace
    __user_perthread_libspace
        0x00018350:    4800        .H      LDR      r0,[pc,#0] ; [0x18354] = 0x100000b0
        0x00018352:    4770        pG      BX       lr
    $d
        0x00018354:    100000b0    ....    DCD    268435632
    $t
    .text
    _sys_exit
        0x00018358:    4901        .I      LDR      r1,[pc,#4] ; [0x18360] = 0x20026
        0x0001835a:    2018        .       MOVS     r0,#0x18
        0x0001835c:    beab        ..      BKPT     #0xab
        0x0001835e:    e7fe        ..      B        0x1835e ; _sys_exit + 6
    $d
        0x00018360:    00020026    &...    DCD    131110
    $t
    .text
    __I$use$semihosting
    __use_no_semihosting_swi
        0x00018364:    4770        pG      BX       lr
    .text
    __semihosting_library_function
        0x00018366:    0000        ..      MOVS     r0,r0
    $t.0
    HardFault_Handler
        0x00018368:    f01e0f04    ....    TST      lr,#4
        0x0001836c:    bf0c        ..      ITE      EQ
        0x0001836e:    f3ef8008    ....    MRSEQ    r0,MSP
        0x00018372:    f3ef8009    ....    MRSNE    r0,PSP
        0x00018376:    4904        .I      LDR      r1,[pc,#16] ; [0x18388] = 0x10000328
        0x00018378:    f5017100    ...q    ADD      r1,r1,#0x200
        0x0001837c:    f0210103    !...    BIC      r1,r1,#3
        0x00018380:    468d        .F      MOV      sp,r1
        0x00018382:    f002ba53    ..S.    B.W      am_util_faultisr_collect_data ; 0x1a82c
        0x00018386:    0000        ..      MOVS     r0,r0
    $d.4
        0x00018388:    10000328    (...    DCD    268436264
    $t.4
    __NVIC_ClearPendingIRQ
        0x0001838c:    b081        ..      SUB      sp,sp,#4
        0x0001838e:    f88d0003    ....    STRB     r0,[sp,#3]
        0x00018392:    f99d0003    ....    LDRSB    r0,[sp,#3]
        0x00018396:    2800        .(      CMP      r0,#0
        0x00018398:    d40e        ..      BMI      0x183b8 ; __NVIC_ClearPendingIRQ + 44
        0x0001839a:    e7ff        ..      B        0x1839c ; __NVIC_ClearPendingIRQ + 16
        0x0001839c:    f99d1003    ....    LDRSB    r1,[sp,#3]
        0x000183a0:    f001021f    ....    AND      r2,r1,#0x1f
        0x000183a4:    2001        .       MOVS     r0,#1
        0x000183a6:    4090        .@      LSLS     r0,r0,r2
        0x000183a8:    094a        J.      LSRS     r2,r1,#5
        0x000183aa:    f24e2180    N..!    MOV      r1,#0xe280
        0x000183ae:    f2ce0100    ....    MOVT     r1,#0xe000
        0x000183b2:    f8410022    A.".    STR      r0,[r1,r2,LSL #2]
        0x000183b6:    e7ff        ..      B        0x183b8 ; __NVIC_ClearPendingIRQ + 44
        0x000183b8:    b001        ..      ADD      sp,sp,#4
        0x000183ba:    4770        pG      BX       lr
    __NVIC_DisableIRQ
        0x000183bc:    b081        ..      SUB      sp,sp,#4
        0x000183be:    f88d0003    ....    STRB     r0,[sp,#3]
        0x000183c2:    f99d0003    ....    LDRSB    r0,[sp,#3]
        0x000183c6:    2800        .(      CMP      r0,#0
        0x000183c8:    d412        ..      BMI      0x183f0 ; __NVIC_DisableIRQ + 52
        0x000183ca:    e7ff        ..      B        0x183cc ; __NVIC_DisableIRQ + 16
        0x000183cc:    f99d1003    ....    LDRSB    r1,[sp,#3]
        0x000183d0:    f001021f    ....    AND      r2,r1,#0x1f
        0x000183d4:    2001        .       MOVS     r0,#1
        0x000183d6:    4090        .@      LSLS     r0,r0,r2
        0x000183d8:    094a        J.      LSRS     r2,r1,#5
        0x000183da:    f24e1180    N...    MOV      r1,#0xe180
        0x000183de:    f2ce0100    ....    MOVT     r1,#0xe000
        0x000183e2:    f8410022    A.".    STR      r0,[r1,r2,LSL #2]
        0x000183e6:    f3bf8f4f    ..O.    DSB      
        0x000183ea:    f3bf8f6f    ..o.    ISB      
        0x000183ee:    e7ff        ..      B        0x183f0 ; __NVIC_DisableIRQ + 52
        0x000183f0:    b001        ..      ADD      sp,sp,#4
        0x000183f2:    4770        pG      BX       lr
    __NVIC_DisableIRQ
        0x000183f4:    b081        ..      SUB      sp,sp,#4
        0x000183f6:    f88d0003    ....    STRB     r0,[sp,#3]
        0x000183fa:    f99d0003    ....    LDRSB    r0,[sp,#3]
        0x000183fe:    2800        .(      CMP      r0,#0
        0x00018400:    d412        ..      BMI      0x18428 ; __NVIC_DisableIRQ + 52
        0x00018402:    e7ff        ..      B        0x18404 ; __NVIC_DisableIRQ + 16
        0x00018404:    f99d1003    ....    LDRSB    r1,[sp,#3]
        0x00018408:    f001021f    ....    AND      r2,r1,#0x1f
        0x0001840c:    2001        .       MOVS     r0,#1
        0x0001840e:    4090        .@      LSLS     r0,r0,r2
        0x00018410:    094a        J.      LSRS     r2,r1,#5
        0x00018412:    f24e1180    N...    MOV      r1,#0xe180
        0x00018416:    f2ce0100    ....    MOVT     r1,#0xe000
        0x0001841a:    f8410022    A.".    STR      r0,[r1,r2,LSL #2]
        0x0001841e:    f3bf8f4f    ..O.    DSB      
        0x00018422:    f3bf8f6f    ..o.    ISB      
        0x00018426:    e7ff        ..      B        0x18428 ; __NVIC_DisableIRQ + 52
        0x00018428:    b001        ..      ADD      sp,sp,#4
        0x0001842a:    4770        pG      BX       lr
    __NVIC_EnableIRQ
        0x0001842c:    b081        ..      SUB      sp,sp,#4
        0x0001842e:    f88d0003    ....    STRB     r0,[sp,#3]
        0x00018432:    f99d0003    ....    LDRSB    r0,[sp,#3]
        0x00018436:    2800        .(      CMP      r0,#0
        0x00018438:    d40e        ..      BMI      0x18458 ; __NVIC_EnableIRQ + 44
        0x0001843a:    e7ff        ..      B        0x1843c ; __NVIC_EnableIRQ + 16
        0x0001843c:    f99d1003    ....    LDRSB    r1,[sp,#3]
        0x00018440:    f001021f    ....    AND      r2,r1,#0x1f
        0x00018444:    2001        .       MOVS     r0,#1
        0x00018446:    4090        .@      LSLS     r0,r0,r2
        0x00018448:    094a        J.      LSRS     r2,r1,#5
        0x0001844a:    f24e1100    N...    MOVW     r1,#0xe100
        0x0001844e:    f2ce0100    ....    MOVT     r1,#0xe000
        0x00018452:    f8410022    A.".    STR      r0,[r1,r2,LSL #2]
        0x00018456:    e7ff        ..      B        0x18458 ; __NVIC_EnableIRQ + 44
        0x00018458:    b001        ..      ADD      sp,sp,#4
        0x0001845a:    4770        pG      BX       lr
    __NVIC_EnableIRQ
        0x0001845c:    b081        ..      SUB      sp,sp,#4
        0x0001845e:    f88d0003    ....    STRB     r0,[sp,#3]
        0x00018462:    f99d0003    ....    LDRSB    r0,[sp,#3]
        0x00018466:    2800        .(      CMP      r0,#0
        0x00018468:    d40e        ..      BMI      0x18488 ; __NVIC_EnableIRQ + 44
        0x0001846a:    e7ff        ..      B        0x1846c ; __NVIC_EnableIRQ + 16
        0x0001846c:    f99d1003    ....    LDRSB    r1,[sp,#3]
        0x00018470:    f001021f    ....    AND      r2,r1,#0x1f
        0x00018474:    2001        .       MOVS     r0,#1
        0x00018476:    4090        .@      LSLS     r0,r0,r2
        0x00018478:    094a        J.      LSRS     r2,r1,#5
        0x0001847a:    f24e1100    N...    MOVW     r1,#0xe100
        0x0001847e:    f2ce0100    ....    MOVT     r1,#0xe000
        0x00018482:    f8410022    A.".    STR      r0,[r1,r2,LSL #2]
        0x00018486:    e7ff        ..      B        0x18488 ; __NVIC_EnableIRQ + 44
        0x00018488:    b001        ..      ADD      sp,sp,#4
        0x0001848a:    4770        pG      BX       lr
    __NVIC_SetPriority
        0x0001848c:    b082        ..      SUB      sp,sp,#8
        0x0001848e:    f88d0007    ....    STRB     r0,[sp,#7]
        0x00018492:    9100        ..      STR      r1,[sp,#0]
        0x00018494:    f99d0007    ....    LDRSB    r0,[sp,#7]
        0x00018498:    2800        .(      CMP      r0,#0
        0x0001849a:    d40a        ..      BMI      0x184b2 ; __NVIC_SetPriority + 38
        0x0001849c:    e7ff        ..      B        0x1849e ; __NVIC_SetPriority + 18
        0x0001849e:    9800        ..      LDR      r0,[sp,#0]
        0x000184a0:    0140        @.      LSLS     r0,r0,#5
        0x000184a2:    f99d1007    ....    LDRSB    r1,[sp,#7]
        0x000184a6:    f24e4200    N..B    MOVW     r2,#0xe400
        0x000184aa:    f2ce0200    ....    MOVT     r2,#0xe000
        0x000184ae:    5488        .T      STRB     r0,[r1,r2]
        0x000184b0:    e00b        ..      B        0x184ca ; __NVIC_SetPriority + 62
        0x000184b2:    9800        ..      LDR      r0,[sp,#0]
        0x000184b4:    0140        @.      LSLS     r0,r0,#5
        0x000184b6:    f89d1007    ....    LDRB     r1,[sp,#7]
        0x000184ba:    f001010f    ....    AND      r1,r1,#0xf
        0x000184be:    f64e5214    N..R    MOV      r2,#0xed14
        0x000184c2:    f2ce0200    ....    MOVT     r2,#0xe000
        0x000184c6:    5488        .T      STRB     r0,[r1,r2]
        0x000184c8:    e7ff        ..      B        0x184ca ; __NVIC_SetPriority + 62
        0x000184ca:    b002        ..      ADD      sp,sp,#8
        0x000184cc:    4770        pG      BX       lr
        0x000184ce:    0000        ..      MOVS     r0,r0
    am_bsp_iom_pins_enable
        0x000184d0:    b5b0        ..      PUSH     {r4,r5,r7,lr}
        0x000184d2:    2807        .(      CMP      r0,#7
        0x000184d4:    d900        ..      BLS      0x184d8 ; am_bsp_iom_pins_enable + 8
        0x000184d6:    bdb0        ..      POP      {r4,r5,r7,pc}
        0x000184d8:    ea410280    A...    ORR      r2,r1,r0,LSL #2
        0x000184dc:    2a1d        .*      CMP      r2,#0x1d
        0x000184de:    bf88        ..      IT       HI
        0x000184e0:    bdb0        ..      POPHI    {r4,r5,r7,pc}
        0x000184e2:    f2400520    @. .    MOVW     r5,#0x20
        0x000184e6:    f240011c    @...    MOVW     r1,#0x1c
        0x000184ea:    2406        .$      MOVS     r4,#6
        0x000184ec:    f2c10500    ....    MOVT     r5,#0x1000
        0x000184f0:    2005        .       MOVS     r0,#5
        0x000184f2:    f2c10100    ....    MOVT     r1,#0x1000
        0x000184f6:    e8dff012    ....    TBH      [pc,r2,LSL #1]
    $d.23
        0x000184fa:    0021        !.      DCW    33
        0x000184fc:    001f0147    G...    DCD    2031943
        0x00018500:    003d001f    ..=.    DCD    3997727
        0x00018504:    001f0059    Y...    DCD    2031705
        0x00018508:    0065001f    ..e.    DCD    6619167
        0x0001850c:    001f0081    ....    DCD    2031745
        0x00018510:    008d001f    ....    DCD    9240607
        0x00018514:    001f00a9    ....    DCD    2031785
        0x00018518:    00b5001f    ....    DCD    11862047
        0x0001851c:    001f001f    ....    DCD    2031647
        0x00018520:    00d1001f    ....    DCD    13697055
        0x00018524:    001f00ed    ....    DCD    2031853
        0x00018528:    00f9001f    ....    DCD    16318495
        0x0001852c:    001f0115    ....    DCD    2031893
        0x00018530:    0121001f    ..!.    DCD    18939935
        0x00018534:    bf00013d    =...    DCD    3204448573
    $t.24
        0x00018538:    e7cd        ..      B        0x184d6 ; am_bsp_iom_pins_enable + 6
        0x0001853a:    bf00        ..      NOP      
        0x0001853c:    f2400018    @...    MOVW     r0,#0x18
        0x00018540:    f2c10000    ....    MOVT     r0,#0x1000
        0x00018544:    6801        .h      LDR      r1,[r0,#0]
        0x00018546:    2005        .       MOVS     r0,#5
        0x00018548:    f000fd04    ....    BL       am_hal_gpio_pinconfig ; 0x18f54
        0x0001854c:    f2405028    @.(P    MOVW     r0,#0x528
        0x00018550:    f2c10000    ....    MOVT     r0,#0x1000
        0x00018554:    6801        .h      LDR      r1,[r0,#0]
        0x00018556:    2007        .       MOVS     r0,#7
        0x00018558:    f000fcfc    ....    BL       am_hal_gpio_pinconfig ; 0x18f54
        0x0001855c:    f2400510    @...    MOVW     r5,#0x10
        0x00018560:    f2400114    @...    MOVW     r1,#0x14
        0x00018564:    2448        H$      MOVS     r4,#0x48
        0x00018566:    f2c10500    ....    MOVT     r5,#0x1000
        0x0001856a:    2006        .       MOVS     r0,#6
        0x0001856c:    f2c10100    ....    MOVT     r1,#0x1000
        0x00018570:    e10a        ..      B        0x18788 ; am_bsp_iom_pins_enable + 696
        0x00018572:    bf00        ..      NOP      
        0x00018574:    f2400030    @.0.    MOVW     r0,#0x30
        0x00018578:    f2c10000    ....    MOVT     r0,#0x1000
        0x0001857c:    6801        .h      LDR      r1,[r0,#0]
        0x0001857e:    2008        .       MOVS     r0,#8
        0x00018580:    f000fce8    ....    BL       am_hal_gpio_pinconfig ; 0x18f54
        0x00018584:    f2400028    @.(.    MOVW     r0,#0x28
        0x00018588:    f2c10000    ....    MOVT     r0,#0x1000
        0x0001858c:    6801        .h      LDR      r1,[r0,#0]
        0x0001858e:    200a        .       MOVS     r0,#0xa
        0x00018590:    f000fce0    ....    BL       am_hal_gpio_pinconfig ; 0x18f54
        0x00018594:    f2400524    @.$.    MOVW     r5,#0x24
        0x00018598:    f240012c    @.,.    MOVW     r1,#0x2c
        0x0001859c:    240b        .$      MOVS     r4,#0xb
        0x0001859e:    f2c10500    ....    MOVT     r5,#0x1000
        0x000185a2:    2009        .       MOVS     r0,#9
        0x000185a4:    f2c10100    ....    MOVT     r1,#0x1000
        0x000185a8:    e0ee        ..      B        0x18788 ; am_bsp_iom_pins_enable + 696
        0x000185aa:    bf00        ..      NOP      
        0x000185ac:    f2400538    @.8.    MOVW     r5,#0x38
        0x000185b0:    f2400134    @.4.    MOVW     r1,#0x34
        0x000185b4:    2409        .$      MOVS     r4,#9
        0x000185b6:    f2c10500    ....    MOVT     r5,#0x1000
        0x000185ba:    2008        .       MOVS     r0,#8
        0x000185bc:    f2c10100    ....    MOVT     r1,#0x1000
        0x000185c0:    e0e2        ..      B        0x18788 ; am_bsp_iom_pins_enable + 696
        0x000185c2:    bf00        ..      NOP      
        0x000185c4:    f2400044    @.D.    MOVW     r0,#0x44
        0x000185c8:    f2c10000    ....    MOVT     r0,#0x1000
        0x000185cc:    6801        .h      LDR      r1,[r0,#0]
        0x000185ce:    2019        .       MOVS     r0,#0x19
        0x000185d0:    f000fcc0    ....    BL       am_hal_gpio_pinconfig ; 0x18f54
        0x000185d4:    f240502c    @.,P    MOV      r0,#0x52c
        0x000185d8:    f2c10000    ....    MOVT     r0,#0x1000
        0x000185dc:    6801        .h      LDR      r1,[r0,#0]
        0x000185de:    201b        .       MOVS     r0,#0x1b
        0x000185e0:    f000fcb8    ....    BL       am_hal_gpio_pinconfig ; 0x18f54
        0x000185e4:    f240053c    @.<.    MOVW     r5,#0x3c
        0x000185e8:    f2400140    @.@.    MOVW     r1,#0x40
        0x000185ec:    2425        %$      MOVS     r4,#0x25
        0x000185ee:    f2c10500    ....    MOVT     r5,#0x1000
        0x000185f2:    201a        .       MOVS     r0,#0x1a
        0x000185f4:    f2c10100    ....    MOVT     r1,#0x1000
        0x000185f8:    e0c6        ..      B        0x18788 ; am_bsp_iom_pins_enable + 696
        0x000185fa:    bf00        ..      NOP      
        0x000185fc:    f240054c    @.L.    MOVW     r5,#0x4c
        0x00018600:    f2400148    @.H.    MOVW     r1,#0x48
        0x00018604:    241a        .$      MOVS     r4,#0x1a
        0x00018606:    f2c10500    ....    MOVT     r5,#0x1000
        0x0001860a:    2019        .       MOVS     r0,#0x19
        0x0001860c:    f2c10100    ....    MOVT     r1,#0x1000
        0x00018610:    e0ba        ..      B        0x18788 ; am_bsp_iom_pins_enable + 696
        0x00018612:    bf00        ..      NOP      
        0x00018614:    f2400058    @.X.    MOVW     r0,#0x58
        0x00018618:    f2c10000    ....    MOVT     r0,#0x1000
        0x0001861c:    6801        .h      LDR      r1,[r0,#0]
        0x0001861e:    201f        .       MOVS     r0,#0x1f
        0x00018620:    f000fc98    ....    BL       am_hal_gpio_pinconfig ; 0x18f54
        0x00018624:    f2405030    @.0P    MOVW     r0,#0x530
        0x00018628:    f2c10000    ....    MOVT     r0,#0x1000
        0x0001862c:    6801        .h      LDR      r1,[r0,#0]
        0x0001862e:    2021        !       MOVS     r0,#0x21
        0x00018630:    f000fc90    ....    BL       am_hal_gpio_pinconfig ; 0x18f54
        0x00018634:    f2400550    @.P.    MOVW     r5,#0x50
        0x00018638:    f2400154    @.T.    MOVW     r1,#0x54
        0x0001863c:    2455        U$      MOVS     r4,#0x55
        0x0001863e:    f2c10500    ....    MOVT     r5,#0x1000
        0x00018642:    2020                MOVS     r0,#0x20
        0x00018644:    f2c10100    ....    MOVT     r1,#0x1000
        0x00018648:    e09e        ..      B        0x18788 ; am_bsp_iom_pins_enable + 696
        0x0001864a:    bf00        ..      NOP      
        0x0001864c:    f2400560    @.`.    MOVW     r5,#0x60
        0x00018650:    f240015c    @.\.    MOVW     r1,#0x5c
        0x00018654:    2420         $      MOVS     r4,#0x20
        0x00018656:    f2c10500    ....    MOVT     r5,#0x1000
        0x0001865a:    201f        .       MOVS     r0,#0x1f
        0x0001865c:    f2c10100    ....    MOVT     r1,#0x1000
        0x00018660:    e092        ..      B        0x18788 ; am_bsp_iom_pins_enable + 696
        0x00018662:    bf00        ..      NOP      
        0x00018664:    f240006c    @.l.    MOVW     r0,#0x6c
        0x00018668:    f2c10000    ....    MOVT     r0,#0x1000
        0x0001866c:    6801        .h      LDR      r1,[r0,#0]
        0x0001866e:    2022        "       MOVS     r0,#0x22
        0x00018670:    f000fc70    ..p.    BL       am_hal_gpio_pinconfig ; 0x18f54
        0x00018674:    f2405034    @.4P    MOV      r0,#0x534
        0x00018678:    f2c10000    ....    MOVT     r0,#0x1000
        0x0001867c:    6801        .h      LDR      r1,[r0,#0]
        0x0001867e:    2024        $       MOVS     r0,#0x24
        0x00018680:    f000fc68    ..h.    BL       am_hal_gpio_pinconfig ; 0x18f54
        0x00018684:    f2400564    @.d.    MOVW     r5,#0x64
        0x00018688:    f2400168    @.h.    MOVW     r1,#0x68
        0x0001868c:    242b        +$      MOVS     r4,#0x2b
        0x0001868e:    f2c10500    ....    MOVT     r5,#0x1000
        0x00018692:    2023        #       MOVS     r0,#0x23
        0x00018694:    f2c10100    ....    MOVT     r1,#0x1000
        0x00018698:    e076        v.      B        0x18788 ; am_bsp_iom_pins_enable + 696
        0x0001869a:    bf00        ..      NOP      
        0x0001869c:    f2400078    @.x.    MOVW     r0,#0x78
        0x000186a0:    f2c10000    ....    MOVT     r0,#0x1000
        0x000186a4:    6801        .h      LDR      r1,[r0,#0]
        0x000186a6:    202f        /       MOVS     r0,#0x2f
        0x000186a8:    f000fc54    ..T.    BL       am_hal_gpio_pinconfig ; 0x18f54
        0x000186ac:    f2405038    @.8P    MOVW     r0,#0x538
        0x000186b0:    f2c10000    ....    MOVT     r0,#0x1000
        0x000186b4:    6801        .h      LDR      r1,[r0,#0]
        0x000186b6:    2031        1       MOVS     r0,#0x31
        0x000186b8:    f000fc4c    ..L.    BL       am_hal_gpio_pinconfig ; 0x18f54
        0x000186bc:    f2400570    @.p.    MOVW     r5,#0x70
        0x000186c0:    f2400174    @.t.    MOVW     r1,#0x74
        0x000186c4:    243c        <$      MOVS     r4,#0x3c
        0x000186c6:    f2c10500    ....    MOVT     r5,#0x1000
        0x000186ca:    2030        0       MOVS     r0,#0x30
        0x000186cc:    f2c10100    ....    MOVT     r1,#0x1000
        0x000186d0:    e05a        Z.      B        0x18788 ; am_bsp_iom_pins_enable + 696
        0x000186d2:    bf00        ..      NOP      
        0x000186d4:    f2400580    @...    MOVW     r5,#0x80
        0x000186d8:    f240017c    @.|.    MOVW     r1,#0x7c
        0x000186dc:    2430        0$      MOVS     r4,#0x30
        0x000186de:    f2c10500    ....    MOVT     r5,#0x1000
        0x000186e2:    202f        /       MOVS     r0,#0x2f
        0x000186e4:    f2c10100    ....    MOVT     r1,#0x1000
        0x000186e8:    e04e        N.      B        0x18788 ; am_bsp_iom_pins_enable + 696
        0x000186ea:    bf00        ..      NOP      
        0x000186ec:    f240008c    @...    MOVW     r0,#0x8c
        0x000186f0:    f2c10000    ....    MOVT     r0,#0x1000
        0x000186f4:    6801        .h      LDR      r1,[r0,#0]
        0x000186f6:    203d        =       MOVS     r0,#0x3d
        0x000186f8:    f000fc2c    ..,.    BL       am_hal_gpio_pinconfig ; 0x18f54
        0x000186fc:    f240503c    @.<P    MOV      r0,#0x53c
        0x00018700:    f2c10000    ....    MOVT     r0,#0x1000
        0x00018704:    6801        .h      LDR      r1,[r0,#0]
        0x00018706:    203f        ?       MOVS     r0,#0x3f
        0x00018708:    f000fc24    ..$.    BL       am_hal_gpio_pinconfig ; 0x18f54
        0x0001870c:    f2400584    @...    MOVW     r5,#0x84
        0x00018710:    f2400188    @...    MOVW     r1,#0x88
        0x00018714:    241e        .$      MOVS     r4,#0x1e
        0x00018716:    f2c10500    ....    MOVT     r5,#0x1000
        0x0001871a:    203e        >       MOVS     r0,#0x3e
        0x0001871c:    f2c10100    ....    MOVT     r1,#0x1000
        0x00018720:    e032        2.      B        0x18788 ; am_bsp_iom_pins_enable + 696
        0x00018722:    bf00        ..      NOP      
        0x00018724:    f2400594    @...    MOVW     r5,#0x94
        0x00018728:    f2400190    @...    MOVW     r1,#0x90
        0x0001872c:    243e        >$      MOVS     r4,#0x3e
        0x0001872e:    f2c10500    ....    MOVT     r5,#0x1000
        0x00018732:    203d        =       MOVS     r0,#0x3d
        0x00018734:    f2c10100    ....    MOVT     r1,#0x1000
        0x00018738:    e026        &.      B        0x18788 ; am_bsp_iom_pins_enable + 696
        0x0001873a:    bf00        ..      NOP      
        0x0001873c:    f24000a0    @...    MOVW     r0,#0xa0
        0x00018740:    f2c10000    ....    MOVT     r0,#0x1000
        0x00018744:    6801        .h      LDR      r1,[r0,#0]
        0x00018746:    2016        .       MOVS     r0,#0x16
        0x00018748:    f000fc04    ....    BL       am_hal_gpio_pinconfig ; 0x18f54
        0x0001874c:    f2405040    @.@P    MOVW     r0,#0x540
        0x00018750:    f2c10000    ....    MOVT     r0,#0x1000
        0x00018754:    6801        .h      LDR      r1,[r0,#0]
        0x00018756:    2018        .       MOVS     r0,#0x18
        0x00018758:    f000fbfc    ....    BL       am_hal_gpio_pinconfig ; 0x18f54
        0x0001875c:    f2400598    @...    MOVW     r5,#0x98
        0x00018760:    f240019c    @...    MOVW     r1,#0x9c
        0x00018764:    2458        X$      MOVS     r4,#0x58
        0x00018766:    f2c10500    ....    MOVT     r5,#0x1000
        0x0001876a:    2017        .       MOVS     r0,#0x17
        0x0001876c:    f2c10100    ....    MOVT     r1,#0x1000
        0x00018770:    e00a        ..      B        0x18788 ; am_bsp_iom_pins_enable + 696
        0x00018772:    bf00        ..      NOP      
        0x00018774:    f24005a8    @...    MOVW     r5,#0xa8
        0x00018778:    f24001a4    @...    MOVW     r1,#0xa4
        0x0001877c:    2417        .$      MOVS     r4,#0x17
        0x0001877e:    f2c10500    ....    MOVT     r5,#0x1000
        0x00018782:    2016        .       MOVS     r0,#0x16
        0x00018784:    f2c10100    ....    MOVT     r1,#0x1000
        0x00018788:    6809        .h      LDR      r1,[r1,#0]
        0x0001878a:    f000fbe3    ....    BL       am_hal_gpio_pinconfig ; 0x18f54
        0x0001878e:    6829        )h      LDR      r1,[r5,#0]
        0x00018790:    4620         F      MOV      r0,r4
        0x00018792:    e8bd40b0    ...@    POP      {r4,r5,r7,lr}
        0x00018796:    f000bbdd    ....    B.W      am_hal_gpio_pinconfig ; 0x18f54
        0x0001879a:    0000        ..      MOVS     r0,r0
    am_bsp_low_power_init
        0x0001879c:    b580        ..      PUSH     {r7,lr}
        0x0001879e:    f001fbe1    ....    BL       am_hal_pwrctrl_low_power_init ; 0x19f64
        0x000187a2:    2000        .       MOVS     r0,#0
        0x000187a4:    2100        .!      MOVS     r1,#0
        0x000187a6:    f001facf    ....    BL       am_hal_pwrctrl_control ; 0x19d48
        0x000187aa:    f001fee9    ....    BL       am_hal_rtc_osc_disable ; 0x1a580
        0x000187ae:    f64b206c    K.l     MOV      r0,#0xba6c
        0x000187b2:    f2c00001    ....    MOVT     r0,#1
        0x000187b6:    6801        .h      LDR      r1,[r0,#0]
        0x000187b8:    202a        *       MOVS     r0,#0x2a
        0x000187ba:    f000fbcb    ....    BL       am_hal_gpio_pinconfig ; 0x18f54
        0x000187be:    202a        *       MOVS     r0,#0x2a
        0x000187c0:    2100        .!      MOVS     r1,#0
        0x000187c2:    e8bd4080    ...@    POP      {r7,lr}
        0x000187c6:    f000bc01    ....    B.W      am_hal_gpio_state_write ; 0x18fcc
        0x000187ca:    0000        ..      MOVS     r0,r0
    am_getStackedReg
        0x000187cc:    b082        ..      SUB      sp,sp,#8
        0x000187ce:    9001        ..      STR      r0,[sp,#4]
        0x000187d0:    9100        ..      STR      r1,[sp,#0]
        0x000187d2:    9800        ..      LDR      r0,[sp,#0]
        0x000187d4:    9901        ..      LDR      r1,[sp,#4]
        0x000187d6:    f8500021    P.!.    LDR      r0,[r0,r1,LSL #2]
        0x000187da:    b002        ..      ADD      sp,sp,#8
        0x000187dc:    4770        pG      BX       lr
        0x000187de:    0000        ..      MOVS     r0,r0
    am_hal_cachectrl_config
        0x000187e0:    b5b0        ..      PUSH     {r4,r5,r7,lr}
        0x000187e2:    b082        ..      SUB      sp,sp,#8
        0x000187e4:    4604        .F      MOV      r4,r0
        0x000187e6:    f000fc77    ..w.    BL       am_hal_interrupt_master_disable ; 0x190d8
        0x000187ea:    9001        ..      STR      r0,[sp,#4]
        0x000187ec:    f04f4590    O..E    MOV      r5,#0x48000000
        0x000187f0:    6828        (h      LDR      r0,[r5,#0]
        0x000187f2:    f4207040     .@p    BIC      r0,r0,#0x300
        0x000187f6:    6028        (`      STR      r0,[r5,#0]
        0x000187f8:    9801        ..      LDR      r0,[sp,#4]
        0x000187fa:    f000fc75    ..u.    BL       am_hal_interrupt_master_set ; 0x190e8
        0x000187fe:    78a1        .x      LDRB     r1,[r4,#2]
        0x00018800:    7820         x      LDRB     r0,[r4,#0]
        0x00018802:    7862        bx      LDRB     r2,[r4,#1]
        0x00018804:    0049        I.      LSLS     r1,r1,#1
        0x00018806:    b2c9        ..      UXTB     r1,r1
        0x00018808:    f0020203    ....    AND      r2,r2,#3
        0x0001880c:    f3601107    `...    BFI      r1,r0,#4,#4
        0x00018810:    ea412002    A..     ORR      r0,r1,r2,LSL #8
        0x00018814:    f4401080    @...    ORR      r0,r0,#0x100000
        0x00018818:    f4406180    @..a    ORR      r1,r0,#0x400
        0x0001881c:    2000        .       MOVS     r0,#0
        0x0001881e:    6029        )`      STR      r1,[r5,#0]
        0x00018820:    b002        ..      ADD      sp,sp,#8
        0x00018822:    bdb0        ..      POP      {r4,r5,r7,pc}
    am_hal_cachectrl_enable
        0x00018824:    f04f4090    O..@    MOV      r0,#0x48000000
        0x00018828:    6801        .h      LDR      r1,[r0,#0]
        0x0001882a:    f0410101    A...    ORR      r1,r1,#1
        0x0001882e:    6001        .`      STR      r1,[r0,#0]
        0x00018830:    2108        .!      MOVS     r1,#8
        0x00018832:    f6c40100    ....    MOVT     r1,#0x4800
        0x00018836:    6808        .h      LDR      r0,[r1,#0]
        0x00018838:    f0400201    @...    ORR      r2,r0,#1
        0x0001883c:    2000        .       MOVS     r0,#0
        0x0001883e:    600a        .`      STR      r2,[r1,#0]
        0x00018840:    4770        pG      BX       lr
        0x00018842:    0000        ..      MOVS     r0,r0
    am_hal_cmdq_alloc_block
        0x00018844:    b5f0        ..      PUSH     {r4-r7,lr}
        0x00018846:    b081        ..      SUB      sp,sp,#4
        0x00018848:    b3a0        ..      CBZ      r0,0x188b4 ; am_hal_cmdq_alloc_block + 112
        0x0001884a:    4605        .F      MOV      r5,r0
        0x0001884c:    6800        .h      LDR      r0,[r0,#0]
        0x0001884e:    460f        .F      MOV      r7,r1
        0x00018850:    f64c51cd    L..Q    MOV      r1,#0xcdcd
        0x00018854:    f020407e     .~@    BIC      r0,r0,#0xfe000000
        0x00018858:    f2c011cd    ....    MOVT     r1,#0x1cd
        0x0001885c:    4288        .B      CMP      r0,r1
        0x0001885e:    d129        ).      BNE      0x188b4 ; am_hal_cmdq_alloc_block + 112
        0x00018860:    4616        .F      MOV      r6,r2
        0x00018862:    2a00        .*      CMP      r2,#0
        0x00018864:    f04f0006    O...    MOV      r0,#6
        0x00018868:    d051        Q.      BEQ      0x1890e ; am_hal_cmdq_alloc_block + 202
        0x0001886a:    461c        .F      MOV      r4,r3
        0x0001886c:    2b00        .+      CMP      r3,#0
        0x0001886e:    d04e        N.      BEQ      0x1890e ; am_hal_cmdq_alloc_block + 202
        0x00018870:    e9d50104    ....    LDRD     r0,r1,[r5,#0x10]
        0x00018874:    4288        .B      CMP      r0,r1
        0x00018876:    d121        !.      BNE      0x188bc ; am_hal_cmdq_alloc_block + 120
        0x00018878:    f000fc2e    ....    BL       am_hal_interrupt_master_disable ; 0x190d8
        0x0001887c:    9000        ..      STR      r0,[sp,#0]
        0x0001887e:    e9d51008    ....    LDRD     r1,r0,[r5,#0x20]
        0x00018882:    e9d00201    ....    LDRD     r0,r2,[r0,#4]
        0x00018886:    460b        .F      MOV      r3,r1
        0x00018888:    6812        .h      LDR      r2,[r2,#0]
        0x0001888a:    f3620307    b...    BFI      r3,r2,#0,#8
        0x0001888e:    4299        .B      CMP      r1,r3
        0x00018890:    bfb8        ..      IT       LT
        0x00018892:    f5a37380    ...s    SUBLT    r3,r3,#0x100
        0x00018896:    61eb        .a      STR      r3,[r5,#0x1c]
        0x00018898:    6800        .h      LDR      r0,[r0,#0]
        0x0001889a:    60e8        .`      STR      r0,[r5,#0xc]
        0x0001889c:    9800        ..      LDR      r0,[sp,#0]
        0x0001889e:    f000fc23    ..#.    BL       am_hal_interrupt_master_set ; 0x190e8
        0x000188a2:    e9d51007    ....    LDRD     r1,r0,[r5,#0x1c]
        0x000188a6:    31fe        .1      ADDS     r1,r1,#0xfe
        0x000188a8:    4281        .B      CMP      r1,r0
        0x000188aa:    da0b        ..      BGE      0x188c4 ; am_hal_cmdq_alloc_block + 128
        0x000188ac:    2005        .       MOVS     r0,#5
        0x000188ae:    b001        ..      ADD      sp,sp,#4
        0x000188b0:    bdf0        ..      POP      {r4-r7,pc}
        0x000188b2:    bf00        ..      NOP      
        0x000188b4:    2002        .       MOVS     r0,#2
        0x000188b6:    b001        ..      ADD      sp,sp,#4
        0x000188b8:    bdf0        ..      POP      {r4-r7,pc}
        0x000188ba:    bf00        ..      NOP      
        0x000188bc:    2007        .       MOVS     r0,#7
        0x000188be:    b001        ..      ADD      sp,sp,#4
        0x000188c0:    bdf0        ..      POP      {r4-r7,pc}
        0x000188c2:    bf00        ..      NOP      
        0x000188c4:    e9d53103    ...1    LDRD     r3,r1,[r5,#0xc]
        0x000188c8:    00fa        ..      LSLS     r2,r7,#3
        0x000188ca:    4299        .B      CMP      r1,r3
        0x000188cc:    d204        ..      BCS      0x188d8 ; am_hal_cmdq_alloc_block + 148
        0x000188ce:    1857        W.      ADDS     r7,r2,r1
        0x000188d0:    3708        .7      ADDS     r7,r7,#8
        0x000188d2:    429f        .B      CMP      r7,r3
        0x000188d4:    d2ea        ..      BCS      0x188ac ; am_hal_cmdq_alloc_block + 104
        0x000188d6:    e013        ..      B        0x18900 ; am_hal_cmdq_alloc_block + 188
        0x000188d8:    eb020c01    ....    ADD      r12,r2,r1
        0x000188dc:    f8d5e008    ....    LDR      lr,[r5,#8]
        0x000188e0:    f10c0710    ....    ADD      r7,r12,#0x10
        0x000188e4:    4577        wE      CMP      r7,lr
        0x000188e6:    d90b        ..      BLS      0x18900 ; am_hal_cmdq_alloc_block + 188
        0x000188e8:    f8d5c004    ....    LDR      r12,[r5,#4]
        0x000188ec:    eb02070c    ....    ADD      r7,r2,r12
        0x000188f0:    3708        .7      ADDS     r7,r7,#8
        0x000188f2:    429f        .B      CMP      r7,r3
        0x000188f4:    d2da        ..      BCS      0x188ac ; am_hal_cmdq_alloc_block + 104
        0x000188f6:    6a6b        kj      LDR      r3,[r5,#0x24]
        0x000188f8:    685b        [h      LDR      r3,[r3,#4]
        0x000188fa:    e9c13c00    ...<    STRD     r3,r12,[r1,#0]
        0x000188fe:    4661        aF      MOV      r1,r12
        0x00018900:    3001        .0      ADDS     r0,#1
        0x00018902:    6228        (b      STR      r0,[r5,#0x20]
        0x00018904:    6020         `      STR      r0,[r4,#0]
        0x00018906:    1888        ..      ADDS     r0,r1,r2
        0x00018908:    6168        ha      STR      r0,[r5,#0x14]
        0x0001890a:    2000        .       MOVS     r0,#0
        0x0001890c:    6031        1`      STR      r1,[r6,#0]
        0x0001890e:    b001        ..      ADD      sp,sp,#4
        0x00018910:    bdf0        ..      POP      {r4-r7,pc}
        0x00018912:    0000        ..      MOVS     r0,r0
    am_hal_cmdq_disable
        0x00018914:    b1c0        ..      CBZ      r0,0x18948 ; am_hal_cmdq_disable + 52
        0x00018916:    6801        .h      LDR      r1,[r0,#0]
        0x00018918:    f64c53cd    L..S    MOV      r3,#0xcdcd
        0x0001891c:    f021427e    !.~B    BIC      r2,r1,#0xfe000000
        0x00018920:    f2c013cd    ....    MOVT     r3,#0x1cd
        0x00018924:    429a        .B      CMP      r2,r3
        0x00018926:    d10f        ..      BNE      0x18948 ; am_hal_cmdq_disable + 52
        0x00018928:    0189        ..      LSLS     r1,r1,#6
        0x0001892a:    bf5c        \.      ITT      PL
        0x0001892c:    2000        .       MOVPL    r0,#0
        0x0001892e:    4770        pG      BXPL     lr
        0x00018930:    6a41        Aj      LDR      r1,[r0,#0x24]
        0x00018932:    6809        .h      LDR      r1,[r1,#0]
        0x00018934:    680a        .h      LDR      r2,[r1,#0]
        0x00018936:    f0220201    "...    BIC      r2,r2,#1
        0x0001893a:    600a        .`      STR      r2,[r1,#0]
        0x0001893c:    6801        .h      LDR      r1,[r0,#0]
        0x0001893e:    f0217100    !..q    BIC      r1,r1,#0x2000000
        0x00018942:    6001        .`      STR      r1,[r0,#0]
        0x00018944:    2000        .       MOVS     r0,#0
        0x00018946:    4770        pG      BX       lr
        0x00018948:    2002        .       MOVS     r0,#2
        0x0001894a:    4770        pG      BX       lr
    am_hal_cmdq_enable
        0x0001894c:    b510        ..      PUSH     {r4,lr}
        0x0001894e:    b318        ..      CBZ      r0,0x18998 ; am_hal_cmdq_enable + 76
        0x00018950:    4604        .F      MOV      r4,r0
        0x00018952:    6800        .h      LDR      r0,[r0,#0]
        0x00018954:    f64c52cd    L..R    MOV      r2,#0xcdcd
        0x00018958:    f020417e     .~A    BIC      r1,r0,#0xfe000000
        0x0001895c:    f2c012cd    ....    MOVT     r2,#0x1cd
        0x00018960:    4291        .B      CMP      r1,r2
        0x00018962:    d119        ..      BNE      0x18998 ; am_hal_cmdq_enable + 76
        0x00018964:    0180        ..      LSLS     r0,r0,#6
        0x00018966:    bf44        D.      ITT      MI
        0x00018968:    2000        .       MOVMI    r0,#0
        0x0001896a:    bd10        ..      POPMI    {r4,pc}
        0x0001896c:    68a0        .h      LDR      r0,[r4,#8]
        0x0001896e:    2100        .!      MOVS     r1,#0
        0x00018970:    f2c10106    ....    MOVT     r1,#0x1006
        0x00018974:    4288        .B      CMP      r0,r1
        0x00018976:    d303        ..      BCC      0x18980 ; am_hal_cmdq_enable + 52
        0x00018978:    2001        .       MOVS     r0,#1
        0x0001897a:    2100        .!      MOVS     r1,#0
        0x0001897c:    f000f9ac    ....    BL       am_hal_daxi_control ; 0x18cd8
        0x00018980:    6a60        `j      LDR      r0,[r4,#0x24]
        0x00018982:    6800        .h      LDR      r0,[r0,#0]
        0x00018984:    6801        .h      LDR      r1,[r0,#0]
        0x00018986:    f0410101    A...    ORR      r1,r1,#1
        0x0001898a:    6001        .`      STR      r1,[r0,#0]
        0x0001898c:    6820         h      LDR      r0,[r4,#0]
        0x0001898e:    f0407000    @..p    ORR      r0,r0,#0x2000000
        0x00018992:    6020         `      STR      r0,[r4,#0]
        0x00018994:    2000        .       MOVS     r0,#0
        0x00018996:    bd10        ..      POP      {r4,pc}
        0x00018998:    2002        .       MOVS     r0,#2
        0x0001899a:    bd10        ..      POP      {r4,pc}
    am_hal_cmdq_error_resume
        0x0001899c:    b580        ..      PUSH     {r7,lr}
        0x0001899e:    2800        .(      CMP      r0,#0
        0x000189a0:    d048        H.      BEQ      0x18a34 ; am_hal_cmdq_error_resume + 152
        0x000189a2:    6801        .h      LDR      r1,[r0,#0]
        0x000189a4:    f64c53cd    L..S    MOV      r3,#0xcdcd
        0x000189a8:    f021427e    !.~B    BIC      r2,r1,#0xfe000000
        0x000189ac:    f2c013cd    ....    MOVT     r3,#0x1cd
        0x000189b0:    429a        .B      CMP      r2,r3
        0x000189b2:    d13f        ?.      BNE      0x18a34 ; am_hal_cmdq_error_resume + 152
        0x000189b4:    0189        ..      LSLS     r1,r1,#6
        0x000189b6:    bf5c        \.      ITT      PL
        0x000189b8:    2000        .       MOVPL    r0,#0
        0x000189ba:    bd80        ..      POPPL    {r7,pc}
        0x000189bc:    6a41        Aj      LDR      r1,[r0,#0x24]
        0x000189be:    e8915008    ...P    LDM      r1,{r3,r12,lr}
        0x000189c2:    6819        .h      LDR      r1,[r3,#0]
        0x000189c4:    f0210101    !...    BIC      r1,r1,#1
        0x000189c8:    6019        .`      STR      r1,[r3,#0]
        0x000189ca:    f8dc3000    ...0    LDR      r3,[r12,#0]
        0x000189ce:    6819        .h      LDR      r1,[r3,#0]
        0x000189d0:    f0210201    !...    BIC      r2,r1,#1
        0x000189d4:    4572        rE      CMP      r2,lr
        0x000189d6:    d023        #.      BEQ      0x18a20 ; am_hal_cmdq_error_resume + 132
        0x000189d8:    4561        aE      CMP      r1,r12
        0x000189da:    bf14        ..      ITE      NE
        0x000189dc:    3308        .3      ADDNE    r3,r3,#8
        0x000189de:    685b        [h      LDREQ    r3,[r3,#4]
        0x000189e0:    6819        .h      LDR      r1,[r3,#0]
        0x000189e2:    f0210201    !...    BIC      r2,r1,#1
        0x000189e6:    4572        rE      CMP      r2,lr
        0x000189e8:    d01a        ..      BEQ      0x18a20 ; am_hal_cmdq_error_resume + 132
        0x000189ea:    4561        aE      CMP      r1,r12
        0x000189ec:    bf0c        ..      ITE      EQ
        0x000189ee:    685b        [h      LDREQ    r3,[r3,#4]
        0x000189f0:    3308        .3      ADDNE    r3,r3,#8
        0x000189f2:    6819        .h      LDR      r1,[r3,#0]
        0x000189f4:    f0210201    !...    BIC      r2,r1,#1
        0x000189f8:    4572        rE      CMP      r2,lr
        0x000189fa:    d011        ..      BEQ      0x18a20 ; am_hal_cmdq_error_resume + 132
        0x000189fc:    4561        aE      CMP      r1,r12
        0x000189fe:    bf0c        ..      ITE      EQ
        0x00018a00:    685b        [h      LDREQ    r3,[r3,#4]
        0x00018a02:    3308        .3      ADDNE    r3,r3,#8
        0x00018a04:    6819        .h      LDR      r1,[r3,#0]
        0x00018a06:    f0210201    !...    BIC      r2,r1,#1
        0x00018a0a:    4572        rE      CMP      r2,lr
        0x00018a0c:    d008        ..      BEQ      0x18a20 ; am_hal_cmdq_error_resume + 132
        0x00018a0e:    4561        aE      CMP      r1,r12
        0x00018a10:    bf0c        ..      ITE      EQ
        0x00018a12:    685b        [h      LDREQ    r3,[r3,#4]
        0x00018a14:    3308        .3      ADDNE    r3,r3,#8
        0x00018a16:    6819        .h      LDR      r1,[r3,#0]
        0x00018a18:    f0210201    !...    BIC      r2,r1,#1
        0x00018a1c:    4572        rE      CMP      r2,lr
        0x00018a1e:    d1db        ..      BNE      0x189d8 ; am_hal_cmdq_error_resume + 60
        0x00018a20:    f8c3e000    ....    STR      lr,[r3,#0]
        0x00018a24:    f8cc3000    ...0    STR      r3,[r12,#0]
        0x00018a28:    6801        .h      LDR      r1,[r0,#0]
        0x00018a2a:    f0217100    !..q    BIC      r1,r1,#0x2000000
        0x00018a2e:    6001        .`      STR      r1,[r0,#0]
        0x00018a30:    2000        .       MOVS     r0,#0
        0x00018a32:    bd80        ..      POP      {r7,pc}
        0x00018a34:    2002        .       MOVS     r0,#2
        0x00018a36:    bd80        ..      POP      {r7,pc}
    am_hal_cmdq_get_status
        0x00018a38:    b5b0        ..      PUSH     {r4,r5,r7,lr}
        0x00018a3a:    b082        ..      SUB      sp,sp,#8
        0x00018a3c:    2800        .(      CMP      r0,#0
        0x00018a3e:    d041        A.      BEQ      0x18ac4 ; am_hal_cmdq_get_status + 140
        0x00018a40:    4605        .F      MOV      r5,r0
        0x00018a42:    6800        .h      LDR      r0,[r0,#0]
        0x00018a44:    460c        .F      MOV      r4,r1
        0x00018a46:    f64c51cd    L..Q    MOV      r1,#0xcdcd
        0x00018a4a:    f020407e     .~@    BIC      r0,r0,#0xfe000000
        0x00018a4e:    f2c011cd    ....    MOVT     r1,#0x1cd
        0x00018a52:    4288        .B      CMP      r0,r1
        0x00018a54:    d136        6.      BNE      0x18ac4 ; am_hal_cmdq_get_status + 140
        0x00018a56:    b3cc        ..      CBZ      r4,0x18acc ; am_hal_cmdq_get_status + 148
        0x00018a58:    f000fb3e    ..>.    BL       am_hal_interrupt_master_disable ; 0x190d8
        0x00018a5c:    9001        ..      STR      r0,[sp,#4]
        0x00018a5e:    e9d51008    ....    LDRD     r1,r0,[r5,#0x20]
        0x00018a62:    e9d00201    ....    LDRD     r0,r2,[r0,#4]
        0x00018a66:    460b        .F      MOV      r3,r1
        0x00018a68:    6812        .h      LDR      r2,[r2,#0]
        0x00018a6a:    f3620307    b...    BFI      r3,r2,#0,#8
        0x00018a6e:    4299        .B      CMP      r1,r3
        0x00018a70:    bfb8        ..      IT       LT
        0x00018a72:    f5a37380    ...s    SUBLT    r3,r3,#0x100
        0x00018a76:    61eb        .a      STR      r3,[r5,#0x1c]
        0x00018a78:    6800        .h      LDR      r0,[r0,#0]
        0x00018a7a:    60e8        .`      STR      r0,[r5,#0xc]
        0x00018a7c:    9801        ..      LDR      r0,[sp,#4]
        0x00018a7e:    f000fb33    ..3.    BL       am_hal_interrupt_master_set ; 0x190e8
        0x00018a82:    e9d50104    ....    LDRD     r0,r1,[r5,#0x10]
        0x00018a86:    e9d52307    ...#    LDRD     r2,r3,[r5,#0x1c]
        0x00018a8a:    4281        .B      CMP      r1,r0
        0x00018a8c:    60a3        .`      STR      r3,[r4,#8]
        0x00018a8e:    bf18        ..      IT       NE
        0x00018a90:    3b01        .;      SUBNE    r3,#1
        0x00018a92:    6a68        hj      LDR      r0,[r5,#0x24]
        0x00018a94:    6063        c`      STR      r3,[r4,#4]
        0x00018a96:    f1000318    ....    ADD      r3,r0,#0x18
        0x00018a9a:    6022        "`      STR      r2,[r4,#0]
        0x00018a9c:    cb0e        ..      LDM      r3,{r1-r3}
        0x00018a9e:    6a40        @j      LDR      r0,[r0,#0x24]
        0x00018aa0:    6809        .h      LDR      r1,[r1,#0]
        0x00018aa2:    400a        .@      ANDS     r2,r2,r1
        0x00018aa4:    bf18        ..      IT       NE
        0x00018aa6:    2201        ."      MOVNE    r2,#1
        0x00018aa8:    4008        .@      ANDS     r0,r0,r1
        0x00018aaa:    7322        "s      STRB     r2,[r4,#0xc]
        0x00018aac:    bf18        ..      IT       NE
        0x00018aae:    2001        .       MOVNE    r0,#1
        0x00018ab0:    7360        `s      STRB     r0,[r4,#0xd]
        0x00018ab2:    ea130001    ....    ANDS     r0,r3,r1
        0x00018ab6:    bf18        ..      IT       NE
        0x00018ab8:    2001        .       MOVNE    r0,#1
        0x00018aba:    73a0        .s      STRB     r0,[r4,#0xe]
        0x00018abc:    2000        .       MOVS     r0,#0
        0x00018abe:    b002        ..      ADD      sp,sp,#8
        0x00018ac0:    bdb0        ..      POP      {r4,r5,r7,pc}
        0x00018ac2:    bf00        ..      NOP      
        0x00018ac4:    2002        .       MOVS     r0,#2
        0x00018ac6:    b002        ..      ADD      sp,sp,#8
        0x00018ac8:    bdb0        ..      POP      {r4,r5,r7,pc}
        0x00018aca:    bf00        ..      NOP      
        0x00018acc:    2006        .       MOVS     r0,#6
        0x00018ace:    b002        ..      ADD      sp,sp,#8
        0x00018ad0:    bdb0        ..      POP      {r4,r5,r7,pc}
        0x00018ad2:    0000        ..      MOVS     r0,r0
    am_hal_cmdq_init
        0x00018ad4:    e92d41f0    -..A    PUSH     {r4-r8,lr}
        0x00018ad8:    280a        .(      CMP      r0,#0xa
        0x00018ada:    bf84        ..      ITT      HI
        0x00018adc:    2005        .       MOVHI    r0,#5
        0x00018ade:    e8bd81f0    ....    POPHI    {r4-r8,pc}
        0x00018ae2:    b171        q.      CBZ      r1,0x18b02 ; am_hal_cmdq_init + 46
        0x00018ae4:    4603        .F      MOV      r3,r0
        0x00018ae6:    2a00        .*      CMP      r2,#0
        0x00018ae8:    f04f0006    O...    MOV      r0,#6
        0x00018aec:    d04f        O.      BEQ      0x18b8e ; am_hal_cmdq_init + 186
        0x00018aee:    f8d1e004    ....    LDR      lr,[r1,#4]
        0x00018af2:    f1be0f00    ....    CMP      lr,#0
        0x00018af6:    bf08        ..      IT       EQ
        0x00018af8:    e8bd81f0    ....    POPEQ    {r4-r8,pc}
        0x00018afc:    6808        .h      LDR      r0,[r1,#0]
        0x00018afe:    2802        .(      CMP      r0,#2
        0x00018b00:    d202        ..      BCS      0x18b08 ; am_hal_cmdq_init + 52
        0x00018b02:    2006        .       MOVS     r0,#6
        0x00018b04:    e8bd81f0    ....    POP      {r4-r8,pc}
        0x00018b08:    f2401c40    @.@.    MOVW     r12,#0x140
        0x00018b0c:    252c        ,%      MOVS     r5,#0x2c
        0x00018b0e:    f2c10c00    ....    MOVT     r12,#0x1000
        0x00018b12:    fb03f405    ....    MUL      r4,r3,r5
        0x00018b16:    f85c4004    \..@    LDR      r4,[r12,r4]
        0x00018b1a:    01e6        ..      LSLS     r6,r4,#7
        0x00018b1c:    bf44        D.      ITT      MI
        0x00018b1e:    2007        .       MOVMI    r0,#7
        0x00018b20:    e8bd81f0    ....    POPMI    {r4-r8,pc}
        0x00018b24:    f64b4894    K..H    MOV      r8,#0xbc94
        0x00018b28:    fb13cc05    ....    SMLABB   r12,r3,r5,r12
        0x00018b2c:    00c5        ..      LSLS     r5,r0,#3
        0x00018b2e:    eb0e06c0    ....    ADD      r6,lr,r0,LSL #3
        0x00018b32:    f64c50cd    L..P    MOV      r0,#0xcdcd
        0x00018b36:    eb030383    ....    ADD      r3,r3,r3,LSL #2
        0x00018b3a:    f2c00801    ....    MOVT     r8,#1
        0x00018b3e:    f2c010cd    ....    MOVT     r0,#0x1cd
        0x00018b42:    eb0807c3    ....    ADD      r7,r8,r3,LSL #3
        0x00018b46:    f3600419    `...    BFI      r4,r0,#0,#26
        0x00018b4a:    e9cce601    ....    STRD     lr,r6,[r12,#4]
        0x00018b4e:    e9cce505    ....    STRD     lr,r5,[r12,#0x14]
        0x00018b52:    e9d76502    ...e    LDRD     r6,r5,[r7,#8]
        0x00018b56:    f8cc4000    ...@    STR      r4,[r12,#0]
        0x00018b5a:    2000        .       MOVS     r0,#0
        0x00018b5c:    693c        <i      LDR      r4,[r7,#0x10]
        0x00018b5e:    f8cc7024    ..$p    STR      r7,[r12,#0x24]
        0x00018b62:    e9ccee03    ....    STRD     lr,lr,[r12,#0xc]
        0x00018b66:    e9cc0007    ....    STRD     r0,r0,[r12,#0x1c]
        0x00018b6a:    6030        0`      STR      r0,[r6,#0]
        0x00018b6c:    6028        (`      STR      r0,[r5,#0]
        0x00018b6e:    697e        ~i      LDR      r6,[r7,#0x14]
        0x00018b70:    6825        %h      LDR      r5,[r4,#0]
        0x00018b72:    687f        .h      LDR      r7,[r7,#4]
        0x00018b74:    432e        .C      ORRS     r6,r6,r5
        0x00018b76:    6026        &`      STR      r6,[r4,#0]
        0x00018b78:    684e        Nh      LDR      r6,[r1,#4]
        0x00018b7a:    f8583033    X.30    LDR      r3,[r8,r3,LSL #3]
        0x00018b7e:    603e        >`      STR      r6,[r7,#0]
        0x00018b80:    7a09        .z      LDRB     r1,[r1,#8]
        0x00018b82:    2702        .'      MOVS     r7,#2
        0x00018b84:    ea070141    ..A.    AND      r1,r7,r1,LSL #1
        0x00018b88:    6019        .`      STR      r1,[r3,#0]
        0x00018b8a:    f8c2c000    ....    STR      r12,[r2,#0]
        0x00018b8e:    e8bd81f0    ....    POP      {r4-r8,pc}
        0x00018b92:    0000        ..      MOVS     r0,r0
    am_hal_cmdq_post_block
        0x00018b94:    b510        ..      PUSH     {r4,lr}
        0x00018b96:    b378        x.      CBZ      r0,0x18bf8 ; am_hal_cmdq_post_block + 100
        0x00018b98:    4604        .F      MOV      r4,r0
        0x00018b9a:    6800        .h      LDR      r0,[r0,#0]
        0x00018b9c:    f64c52cd    L..R    MOV      r2,#0xcdcd
        0x00018ba0:    f020407e     .~@    BIC      r0,r0,#0xfe000000
        0x00018ba4:    f2c012cd    ....    MOVT     r2,#0x1cd
        0x00018ba8:    4290        .B      CMP      r0,r2
        0x00018baa:    d125        %.      BNE      0x18bf8 ; am_hal_cmdq_post_block + 100
        0x00018bac:    e9d40304    ....    LDRD     r0,r3,[r4,#0x10]
        0x00018bb0:    4298        .B      CMP      r0,r3
        0x00018bb2:    bf04        ..      ITT      EQ
        0x00018bb4:    2007        .       MOVEQ    r0,#7
        0x00018bb6:    bd10        ..      POPEQ    {r4,pc}
        0x00018bb8:    6a62        bj      LDR      r2,[r4,#0x24]
        0x00018bba:    f8d4c008    ....    LDR      r12,[r4,#8]
        0x00018bbe:    6890        .h      LDR      r0,[r2,#8]
        0x00018bc0:    f8d4e020    .. .    LDR      lr,[r4,#0x20]
        0x00018bc4:    4308        .C      ORRS     r0,r0,r1
        0x00018bc6:    2100        .!      MOVS     r1,#0
        0x00018bc8:    f2c10106    ....    MOVT     r1,#0x1006
        0x00018bcc:    e9c30e00    ....    STRD     r0,lr,[r3,#0]
        0x00018bd0:    f1030008    ....    ADD      r0,r3,#8
        0x00018bd4:    458c        .E      CMP      r12,r1
        0x00018bd6:    6120         a      STR      r0,[r4,#0x10]
        0x00018bd8:    6160        `a      STR      r0,[r4,#0x14]
        0x00018bda:    d306        ..      BCC      0x18bea ; am_hal_cmdq_post_block + 86
        0x00018bdc:    2001        .       MOVS     r0,#1
        0x00018bde:    2100        .!      MOVS     r1,#0
        0x00018be0:    f000f87a    ..z.    BL       am_hal_daxi_control ; 0x18cd8
        0x00018be4:    f894e020    .. .    LDRB     lr,[r4,#0x20]
        0x00018be8:    6a62        bj      LDR      r2,[r4,#0x24]
        0x00018bea:    68d0        .h      LDR      r0,[r2,#0xc]
        0x00018bec:    fa5ff18e    _...    UXTB     r1,lr
        0x00018bf0:    6001        .`      STR      r1,[r0,#0]
        0x00018bf2:    2000        .       MOVS     r0,#0
        0x00018bf4:    bd10        ..      POP      {r4,pc}
        0x00018bf6:    bf00        ..      NOP      
        0x00018bf8:    2002        .       MOVS     r0,#2
        0x00018bfa:    bd10        ..      POP      {r4,pc}
    am_hal_cmdq_release_block
        0x00018bfc:    b1a0        ..      CBZ      r0,0x18c28 ; am_hal_cmdq_release_block + 44
        0x00018bfe:    6801        .h      LDR      r1,[r0,#0]
        0x00018c00:    f64c52cd    L..R    MOV      r2,#0xcdcd
        0x00018c04:    f021417e    !.~A    BIC      r1,r1,#0xfe000000
        0x00018c08:    f2c012cd    ....    MOVT     r2,#0x1cd
        0x00018c0c:    4291        .B      CMP      r1,r2
        0x00018c0e:    d10b        ..      BNE      0x18c28 ; am_hal_cmdq_release_block + 44
        0x00018c10:    e9d01204    ....    LDRD     r1,r2,[r0,#0x10]
        0x00018c14:    4291        .B      CMP      r1,r2
        0x00018c16:    bf04        ..      ITT      EQ
        0x00018c18:    2007        .       MOVEQ    r0,#7
        0x00018c1a:    4770        pG      BXEQ     lr
        0x00018c1c:    6a02        .j      LDR      r2,[r0,#0x20]
        0x00018c1e:    6141        Aa      STR      r1,[r0,#0x14]
        0x00018c20:    1e51        Q.      SUBS     r1,r2,#1
        0x00018c22:    6201        .b      STR      r1,[r0,#0x20]
        0x00018c24:    2000        .       MOVS     r0,#0
        0x00018c26:    4770        pG      BX       lr
        0x00018c28:    2002        .       MOVS     r0,#2
        0x00018c2a:    4770        pG      BX       lr
    am_hal_daxi_config
        0x00018c2c:    b570        p.      PUSH     {r4-r6,lr}
        0x00018c2e:    b082        ..      SUB      sp,sp,#8
        0x00018c30:    2654        T&      MOVS     r6,#0x54
        0x00018c32:    2500        .%      MOVS     r5,#0
        0x00018c34:    4604        .F      MOV      r4,r0
        0x00018c36:    f6c40600    ....    MOVT     r6,#0x4800
        0x00018c3a:    f2c475ff    ...u    MOVT     r5,#0x47ff
        0x00018c3e:    f000fa4b    ..K.    BL       am_hal_interrupt_master_disable ; 0x190d8
        0x00018c42:    9000        ..      STR      r0,[sp,#0]
        0x00018c44:    f000fa48    ..H.    BL       am_hal_interrupt_master_disable ; 0x190d8
        0x00018c48:    9001        ..      STR      r0,[sp,#4]
        0x00018c4a:    f8560c04    V...    LDR      r0,[r6,#-4]
        0x00018c4e:    0740        @.      LSLS     r0,r0,#29
        0x00018c50:    d418        ..      BMI      0x18c84 ; am_hal_daxi_config + 88
        0x00018c52:    f3bf8f4f    ..O.    DSB      
        0x00018c56:    6830        0h      LDR      r0,[r6,#0]
        0x00018c58:    f0400001    @...    ORR      r0,r0,#1
        0x00018c5c:    6030        0`      STR      r0,[r6,#0]
        0x00018c5e:    6828        (h      LDR      r0,[r5,#0]
        0x00018c60:    6830        0h      LDR      r0,[r6,#0]
        0x00018c62:    0740        @.      LSLS     r0,r0,#29
        0x00018c64:    d409        ..      BMI      0x18c7a ; am_hal_daxi_config + 78
        0x00018c66:    6830        0h      LDR      r0,[r6,#0]
        0x00018c68:    0740        @.      LSLS     r0,r0,#29
        0x00018c6a:    bf5c        \.      ITT      PL
        0x00018c6c:    6830        0h      LDRPL    r0,[r6,#0]
        0x00018c6e:    ea5f7040    _.@p    LSLSPL   r0,r0,#29
        0x00018c72:    d402        ..      BMI      0x18c7a ; am_hal_daxi_config + 78
        0x00018c74:    6830        0h      LDR      r0,[r6,#0]
        0x00018c76:    0740        @.      LSLS     r0,r0,#29
        0x00018c78:    d5f2        ..      BPL      0x18c60 ; am_hal_daxi_config + 52
        0x00018c7a:    6830        0h      LDR      r0,[r6,#0]
        0x00018c7c:    f0400002    @...    ORR      r0,r0,#2
        0x00018c80:    6030        0`      STR      r0,[r6,#0]
        0x00018c82:    6828        (h      LDR      r0,[r5,#0]
        0x00018c84:    9801        ..      LDR      r0,[sp,#4]
        0x00018c86:    f000fa2f    ../.    BL       am_hal_interrupt_master_set ; 0x190e8
        0x00018c8a:    b1dc        ..      CBZ      r4,0x18cc4 ; am_hal_daxi_config + 152
        0x00018c8c:    7860        `x      LDRB     r0,[r4,#1]
        0x00018c8e:    7922        "y      LDRB     r2,[r4,#4]
        0x00018c90:    78a1        .x      LDRB     r1,[r4,#2]
        0x00018c92:    78e3        .x      LDRB     r3,[r4,#3]
        0x00018c94:    f0020201    ....    AND      r2,r2,#1
        0x00018c98:    f000007f    ....    AND      r0,r0,#0x7f
        0x00018c9c:    ea420040    B.@.    ORR      r0,r2,r0,LSL #1
        0x00018ca0:    f363200b    c..     BFI      r0,r3,#8,#4
        0x00018ca4:    f001011f    ....    AND      r1,r1,#0x1f
        0x00018ca8:    ea404001    @..@    ORR      r0,r0,r1,LSL #16
        0x00018cac:    f8460c04    F...    STR      r0,[r6,#-4]
        0x00018cb0:    7920         y      LDRB     r0,[r4,#4]
        0x00018cb2:    f2400108    @...    MOVW     r1,#8
        0x00018cb6:    f2c10100    ....    MOVT     r1,#0x1000
        0x00018cba:    7108        .q      STRB     r0,[r1,#4]
        0x00018cbc:    6820         h      LDR      r0,[r4,#0]
        0x00018cbe:    6008        .`      STR      r0,[r1,#0]
        0x00018cc0:    e003        ..      B        0x18cca ; am_hal_daxi_config + 158
        0x00018cc2:    bf00        ..      NOP      
        0x00018cc4:    2006        .       MOVS     r0,#6
        0x00018cc6:    f8460c04    F...    STR      r0,[r6,#-4]
        0x00018cca:    6828        (h      LDR      r0,[r5,#0]
        0x00018ccc:    9800        ..      LDR      r0,[sp,#0]
        0x00018cce:    f000fa0b    ....    BL       am_hal_interrupt_master_set ; 0x190e8
        0x00018cd2:    2000        .       MOVS     r0,#0
        0x00018cd4:    b002        ..      ADD      sp,sp,#8
        0x00018cd6:    bd70        p.      POP      {r4-r6,pc}
    am_hal_daxi_control
        0x00018cd8:    b5b0        ..      PUSH     {r4,r5,r7,lr}
        0x00018cda:    b084        ..      SUB      sp,sp,#0x10
        0x00018cdc:    2803        .(      CMP      r0,#3
        0x00018cde:    d817        ..      BHI      0x18d10 ; am_hal_daxi_control + 56
        0x00018ce0:    e8dff000    ....    TBB      [pc,r0]
    $d.9
        0x00018ce4:    7c461a02    ..F|    DCD    2084968962
    $t.10
        0x00018ce8:    2054        T       MOVS     r0,#0x54
        0x00018cea:    f6c40000    ....    MOVT     r0,#0x4800
        0x00018cee:    f8501c04    P...    LDR      r1,[r0,#-4]
        0x00018cf2:    0749        I.      LSLS     r1,r1,#29
        0x00018cf4:    d409        ..      BMI      0x18d0a ; am_hal_daxi_control + 50
        0x00018cf6:    f3bf8f4f    ..O.    DSB      
        0x00018cfa:    6801        .h      LDR      r1,[r0,#0]
        0x00018cfc:    f0410102    A...    ORR      r1,r1,#2
        0x00018d00:    6001        .`      STR      r1,[r0,#0]
        0x00018d02:    2000        .       MOVS     r0,#0
        0x00018d04:    f2c470ff    ...p    MOVT     r0,#0x47ff
        0x00018d08:    6800        .h      LDR      r0,[r0,#0]
        0x00018d0a:    2000        .       MOVS     r0,#0
        0x00018d0c:    b004        ..      ADD      sp,sp,#0x10
        0x00018d0e:    bdb0        ..      POP      {r4,r5,r7,pc}
        0x00018d10:    2006        .       MOVS     r0,#6
        0x00018d12:    b004        ..      ADD      sp,sp,#0x10
        0x00018d14:    bdb0        ..      POP      {r4,r5,r7,pc}
        0x00018d16:    bf00        ..      NOP      
        0x00018d18:    2454        T$      MOVS     r4,#0x54
        0x00018d1a:    f6c40400    ....    MOVT     r4,#0x4800
        0x00018d1e:    f000f9db    ....    BL       am_hal_interrupt_master_disable ; 0x190d8
        0x00018d22:    9001        ..      STR      r0,[sp,#4]
        0x00018d24:    f8540c04    T...    LDR      r0,[r4,#-4]
        0x00018d28:    0740        @.      LSLS     r0,r0,#29
        0x00018d2a:    d41b        ..      BMI      0x18d64 ; am_hal_daxi_control + 140
        0x00018d2c:    f3bf8f4f    ..O.    DSB      
        0x00018d30:    6821        !h      LDR      r1,[r4,#0]
        0x00018d32:    2000        .       MOVS     r0,#0
        0x00018d34:    f0410101    A...    ORR      r1,r1,#1
        0x00018d38:    f2c470ff    ...p    MOVT     r0,#0x47ff
        0x00018d3c:    6021        !`      STR      r1,[r4,#0]
        0x00018d3e:    6801        .h      LDR      r1,[r0,#0]
        0x00018d40:    6821        !h      LDR      r1,[r4,#0]
        0x00018d42:    0749        I.      LSLS     r1,r1,#29
        0x00018d44:    d409        ..      BMI      0x18d5a ; am_hal_daxi_control + 130
        0x00018d46:    6821        !h      LDR      r1,[r4,#0]
        0x00018d48:    0749        I.      LSLS     r1,r1,#29
        0x00018d4a:    bf5c        \.      ITT      PL
        0x00018d4c:    6821        !h      LDRPL    r1,[r4,#0]
        0x00018d4e:    ea5f7141    _.Aq    LSLSPL   r1,r1,#29
        0x00018d52:    d402        ..      BMI      0x18d5a ; am_hal_daxi_control + 130
        0x00018d54:    6821        !h      LDR      r1,[r4,#0]
        0x00018d56:    0749        I.      LSLS     r1,r1,#29
        0x00018d58:    d5f2        ..      BPL      0x18d40 ; am_hal_daxi_control + 104
        0x00018d5a:    6821        !h      LDR      r1,[r4,#0]
        0x00018d5c:    f0410102    A...    ORR      r1,r1,#2
        0x00018d60:    6021        !`      STR      r1,[r4,#0]
        0x00018d62:    6800        .h      LDR      r0,[r0,#0]
        0x00018d64:    9801        ..      LDR      r0,[sp,#4]
        0x00018d66:    f000f9bf    ....    BL       am_hal_interrupt_master_set ; 0x190e8
        0x00018d6a:    2000        .       MOVS     r0,#0
        0x00018d6c:    b004        ..      ADD      sp,sp,#0x10
        0x00018d6e:    bdb0        ..      POP      {r4,r5,r7,pc}
        0x00018d70:    2454        T$      MOVS     r4,#0x54
        0x00018d72:    2500        .%      MOVS     r5,#0
        0x00018d74:    f6c40400    ....    MOVT     r4,#0x4800
        0x00018d78:    f2c475ff    ...u    MOVT     r5,#0x47ff
        0x00018d7c:    f000f9ac    ....    BL       am_hal_interrupt_master_disable ; 0x190d8
        0x00018d80:    9002        ..      STR      r0,[sp,#8]
        0x00018d82:    f000f9a9    ....    BL       am_hal_interrupt_master_disable ; 0x190d8
        0x00018d86:    9003        ..      STR      r0,[sp,#0xc]
        0x00018d88:    f8540c04    T...    LDR      r0,[r4,#-4]
        0x00018d8c:    0740        @.      LSLS     r0,r0,#29
        0x00018d8e:    d418        ..      BMI      0x18dc2 ; am_hal_daxi_control + 234
        0x00018d90:    f3bf8f4f    ..O.    DSB      
        0x00018d94:    6820         h      LDR      r0,[r4,#0]
        0x00018d96:    f0400001    @...    ORR      r0,r0,#1
        0x00018d9a:    6020         `      STR      r0,[r4,#0]
        0x00018d9c:    6828        (h      LDR      r0,[r5,#0]
        0x00018d9e:    6820         h      LDR      r0,[r4,#0]
        0x00018da0:    0740        @.      LSLS     r0,r0,#29
        0x00018da2:    d409        ..      BMI      0x18db8 ; am_hal_daxi_control + 224
        0x00018da4:    6820         h      LDR      r0,[r4,#0]
        0x00018da6:    0740        @.      LSLS     r0,r0,#29
        0x00018da8:    bf5c        \.      ITT      PL
        0x00018daa:    6820         h      LDRPL    r0,[r4,#0]
        0x00018dac:    ea5f7040    _.@p    LSLSPL   r0,r0,#29
        0x00018db0:    d402        ..      BMI      0x18db8 ; am_hal_daxi_control + 224
        0x00018db2:    6820         h      LDR      r0,[r4,#0]
        0x00018db4:    0740        @.      LSLS     r0,r0,#29
        0x00018db6:    d5f2        ..      BPL      0x18d9e ; am_hal_daxi_control + 198
        0x00018db8:    6820         h      LDR      r0,[r4,#0]
        0x00018dba:    f0400002    @...    ORR      r0,r0,#2
        0x00018dbe:    6020         `      STR      r0,[r4,#0]
        0x00018dc0:    6828        (h      LDR      r0,[r5,#0]
        0x00018dc2:    9803        ..      LDR      r0,[sp,#0xc]
        0x00018dc4:    f000f990    ....    BL       am_hal_interrupt_master_set ; 0x190e8
        0x00018dc8:    2006        .       MOVS     r0,#6
        0x00018dca:    f8440c04    D...    STR      r0,[r4,#-4]
        0x00018dce:    6828        (h      LDR      r0,[r5,#0]
        0x00018dd0:    9802        ..      LDR      r0,[sp,#8]
        0x00018dd2:    f000f989    ....    BL       am_hal_interrupt_master_set ; 0x190e8
        0x00018dd6:    2000        .       MOVS     r0,#0
        0x00018dd8:    b004        ..      ADD      sp,sp,#0x10
        0x00018dda:    bdb0        ..      POP      {r4,r5,r7,pc}
        0x00018ddc:    f2400008    @...    MOVW     r0,#8
        0x00018de0:    f2c10000    ....    MOVT     r0,#0x1000
        0x00018de4:    f7ffff22    ..".    BL       am_hal_daxi_config ; 0x18c2c
        0x00018de8:    2000        .       MOVS     r0,#0
        0x00018dea:    b004        ..      ADD      sp,sp,#0x10
        0x00018dec:    bdb0        ..      POP      {r4,r5,r7,pc}
        0x00018dee:    0000        ..      MOVS     r0,r0
    am_hal_delay_us
        0x00018df0:    f2410100    A...    MOVW     r1,#0x1000
        0x00018df4:    f2c40102    ....    MOVT     r1,#0x4002
        0x00018df8:    6809        .h      LDR      r1,[r1,#0]
        0x00018dfa:    2205        ."      MOVS     r2,#5
        0x00018dfc:    f0010118    ....    AND      r1,r1,#0x18
        0x00018e00:    2910        .)      CMP      r1,#0x10
        0x00018e02:    bf08        ..      IT       EQ
        0x00018e04:    2206        ."      MOVEQ    r2,#6
        0x00018e06:    fa00f002    ....    LSL      r0,r0,r2
        0x00018e0a:    f04f010f    O...    MOV      r1,#0xf
        0x00018e0e:    bf08        ..      IT       EQ
        0x00018e10:    2115        .!      MOVEQ    r1,#0x15
        0x00018e12:    4281        .B      CMP      r1,r0
        0x00018e14:    bf28        (.      IT       CS
        0x00018e16:    4770        pG      BXCS     lr
        0x00018e18:    1a40        @.      SUBS     r0,r0,r1
        0x00018e1a:    f64b6160    K.`a    MOV      r1,#0xbe60
        0x00018e1e:    f2c00101    ....    MOVT     r1,#1
        0x00018e22:    6a49        Ij      LDR      r1,[r1,#0x24]
        0x00018e24:    4708        .G      BX       r1
        0x00018e26:    0000        ..      MOVS     r0,r0
    am_hal_delay_us_status_change
        0x00018e28:    e92d43f0    -..C    PUSH     {r4-r9,lr}
        0x00018e2c:    b081        ..      SUB      sp,sp,#4
        0x00018e2e:    460d        .F      MOV      r5,r1
        0x00018e30:    6809        .h      LDR      r1,[r1,#0]
        0x00018e32:    4011        .@      ANDS     r1,r1,r2
        0x00018e34:    4299        .B      CMP      r1,r3
        0x00018e36:    d01b        ..      BEQ      0x18e70 ; am_hal_delay_us_status_change + 72
        0x00018e38:    f64b6160    K.`a    MOV      r1,#0xbe60
        0x00018e3c:    f2c00101    ....    MOVT     r1,#1
        0x00018e40:    6a4f        Oj      LDR      r7,[r1,#0x24]
        0x00018e42:    f2410900    A...    MOVW     r9,#0x1000
        0x00018e46:    4698        .F      MOV      r8,r3
        0x00018e48:    4616        .F      MOV      r6,r2
        0x00018e4a:    1c44        D.      ADDS     r4,r0,#1
        0x00018e4c:    f2c40902    ....    MOVT     r9,#0x4002
        0x00018e50:    3c01        .<      SUBS     r4,#1
        0x00018e52:    d011        ..      BEQ      0x18e78 ; am_hal_delay_us_status_change + 80
        0x00018e54:    f8d90000    ....    LDR      r0,[r9,#0]
        0x00018e58:    f0000018    ....    AND      r0,r0,#0x18
        0x00018e5c:    2810        .(      CMP      r0,#0x10
        0x00018e5e:    f04f0011    O...    MOV      r0,#0x11
        0x00018e62:    bf08        ..      IT       EQ
        0x00018e64:    202b        +       MOVEQ    r0,#0x2b
        0x00018e66:    47b8        .G      BLX      r7
        0x00018e68:    6828        (h      LDR      r0,[r5,#0]
        0x00018e6a:    4030        0@      ANDS     r0,r0,r6
        0x00018e6c:    4540        @E      CMP      r0,r8
        0x00018e6e:    d1ef        ..      BNE      0x18e50 ; am_hal_delay_us_status_change + 40
        0x00018e70:    2000        .       MOVS     r0,#0
        0x00018e72:    b001        ..      ADD      sp,sp,#4
        0x00018e74:    e8bd83f0    ....    POP      {r4-r9,pc}
        0x00018e78:    2004        .       MOVS     r0,#4
        0x00018e7a:    b001        ..      ADD      sp,sp,#4
        0x00018e7c:    e8bd83f0    ....    POP      {r4-r9,pc}
    am_hal_delay_us_status_check
        0x00018e80:    e92d43f0    -..C    PUSH     {r4-r9,lr}
        0x00018e84:    b081        ..      SUB      sp,sp,#4
        0x00018e86:    4615        .F      MOV      r5,r2
        0x00018e88:    f64b6260    K.`b    MOV      r2,#0xbe60
        0x00018e8c:    460e        .F      MOV      r6,r1
        0x00018e8e:    f2c00201    ....    MOVT     r2,#1
        0x00018e92:    9908        ..      LDR      r1,[sp,#0x20]
        0x00018e94:    f8d29024    ..$.    LDR      r9,[r2,#0x24]
        0x00018e98:    6832        2h      LDR      r2,[r6,#0]
        0x00018e9a:    461c        .F      MOV      r4,r3
        0x00018e9c:    2900        .)      CMP      r1,#0
        0x00018e9e:    ea020105    ....    AND      r1,r2,r5
        0x00018ea2:    d019        ..      BEQ      0x18ed8 ; am_hal_delay_us_status_check + 88
        0x00018ea4:    42a1        .B      CMP      r1,r4
        0x00018ea6:    d02f        /.      BEQ      0x18f08 ; am_hal_delay_us_status_check + 136
        0x00018ea8:    f2410800    A...    MOVW     r8,#0x1000
        0x00018eac:    f2c40802    ....    MOVT     r8,#0x4002
        0x00018eb0:    1c47        G.      ADDS     r7,r0,#1
        0x00018eb2:    bf00        ..      NOP      
        0x00018eb4:    3f01        .?      SUBS     r7,#1
        0x00018eb6:    d02b        +.      BEQ      0x18f10 ; am_hal_delay_us_status_check + 144
        0x00018eb8:    f8d80000    ....    LDR      r0,[r8,#0]
        0x00018ebc:    f0000018    ....    AND      r0,r0,#0x18
        0x00018ec0:    2810        .(      CMP      r0,#0x10
        0x00018ec2:    f04f0011    O...    MOV      r0,#0x11
        0x00018ec6:    bf08        ..      IT       EQ
        0x00018ec8:    202b        +       MOVEQ    r0,#0x2b
        0x00018eca:    47c8        .G      BLX      r9
        0x00018ecc:    6830        0h      LDR      r0,[r6,#0]
        0x00018ece:    4028        (@      ANDS     r0,r0,r5
        0x00018ed0:    42a0        .B      CMP      r0,r4
        0x00018ed2:    d1ef        ..      BNE      0x18eb4 ; am_hal_delay_us_status_check + 52
        0x00018ed4:    e018        ..      B        0x18f08 ; am_hal_delay_us_status_check + 136
        0x00018ed6:    bf00        ..      NOP      
        0x00018ed8:    42a1        .B      CMP      r1,r4
        0x00018eda:    d115        ..      BNE      0x18f08 ; am_hal_delay_us_status_check + 136
        0x00018edc:    f2410800    A...    MOVW     r8,#0x1000
        0x00018ee0:    f2c40802    ....    MOVT     r8,#0x4002
        0x00018ee4:    1c47        G.      ADDS     r7,r0,#1
        0x00018ee6:    bf00        ..      NOP      
        0x00018ee8:    3f01        .?      SUBS     r7,#1
        0x00018eea:    d011        ..      BEQ      0x18f10 ; am_hal_delay_us_status_check + 144
        0x00018eec:    f8d80000    ....    LDR      r0,[r8,#0]
        0x00018ef0:    f0000018    ....    AND      r0,r0,#0x18
        0x00018ef4:    2810        .(      CMP      r0,#0x10
        0x00018ef6:    f04f0011    O...    MOV      r0,#0x11
        0x00018efa:    bf08        ..      IT       EQ
        0x00018efc:    202b        +       MOVEQ    r0,#0x2b
        0x00018efe:    47c8        .G      BLX      r9
        0x00018f00:    6830        0h      LDR      r0,[r6,#0]
        0x00018f02:    4028        (@      ANDS     r0,r0,r5
        0x00018f04:    42a0        .B      CMP      r0,r4
        0x00018f06:    d0ef        ..      BEQ      0x18ee8 ; am_hal_delay_us_status_check + 104
        0x00018f08:    2000        .       MOVS     r0,#0
        0x00018f0a:    b001        ..      ADD      sp,sp,#4
        0x00018f0c:    e8bd83f0    ....    POP      {r4-r9,pc}
        0x00018f10:    2004        .       MOVS     r0,#4
        0x00018f12:    b001        ..      ADD      sp,sp,#4
        0x00018f14:    e8bd83f0    ....    POP      {r4-r9,pc}
    am_hal_fault_status_get
        0x00018f18:    2800        .(      CMP      r0,#0
        0x00018f1a:    bf04        ..      ITT      EQ
        0x00018f1c:    2006        .       MOVEQ    r0,#6
        0x00018f1e:    4770        pG      BXEQ     lr
        0x00018f20:    2180        .!      MOVS     r1,#0x80
        0x00018f22:    f6c40100    ....    MOVT     r1,#0x4800
        0x00018f26:    68ca        .h      LDR      r2,[r1,#0xc]
        0x00018f28:    f0020301    ....    AND      r3,r2,#1
        0x00018f2c:    7003        .p      STRB     r3,[r0,#0]
        0x00018f2e:    f3c20340    ..@.    UBFX     r3,r2,#1,#1
        0x00018f32:    f3c20280    ....    UBFX     r2,r2,#2,#1
        0x00018f36:    7203        .r      STRB     r3,[r0,#8]
        0x00018f38:    7402        .t      STRB     r2,[r0,#0x10]
        0x00018f3a:    684a        Jh      LDR      r2,[r1,#4]
        0x00018f3c:    60c2        .`      STR      r2,[r0,#0xc]
        0x00018f3e:    680a        .h      LDR      r2,[r1,#0]
        0x00018f40:    6843        Ch      LDR      r3,[r0,#4]
        0x00018f42:    431a        .C      ORRS     r2,r2,r3
        0x00018f44:    6042        B`      STR      r2,[r0,#4]
        0x00018f46:    6889        .h      LDR      r1,[r1,#8]
        0x00018f48:    6942        Bi      LDR      r2,[r0,#0x14]
        0x00018f4a:    4311        .C      ORRS     r1,r1,r2
        0x00018f4c:    6141        Aa      STR      r1,[r0,#0x14]
        0x00018f4e:    2000        .       MOVS     r0,#0
        0x00018f50:    4770        pG      BX       lr
        0x00018f52:    0000        ..      MOVS     r0,r0
    am_hal_gpio_pinconfig
        0x00018f54:    b081        ..      SUB      sp,sp,#4
        0x00018f56:    287f        .(      CMP      r0,#0x7f
        0x00018f58:    9100        ..      STR      r1,[sp,#0]
        0x00018f5a:    bf82        ..      ITTT     HI
        0x00018f5c:    2005        .       MOVHI    r0,#5
        0x00018f5e:    b001        ..      ADDHI    sp,sp,#4
        0x00018f60:    4770        pG      BXHI     lr
        0x00018f62:    0509        ..      LSLS     r1,r1,#20
        0x00018f64:    d50b        ..      BPL      0x18f7e ; am_hal_gpio_pinconfig + 42
        0x00018f66:    f24c0210    L...    MOV      r2,#0xc010
        0x00018f6a:    0941        A.      LSRS     r1,r0,#5
        0x00018f6c:    f2c00201    ....    MOVT     r2,#1
        0x00018f70:    f8521021    R.!.    LDR      r1,[r2,r1,LSL #2]
        0x00018f74:    f000021f    ....    AND      r2,r0,#0x1f
        0x00018f78:    40d1        .@      LSRS     r1,r1,r2
        0x00018f7a:    07c9        ..      LSLS     r1,r1,#31
        0x00018f7c:    d012        ..      BEQ      0x18fa4 ; am_hal_gpio_pinconfig + 80
        0x00018f7e:    f2402100    @..!    MOVW     r1,#0x200
        0x00018f82:    f2c40101    ....    MOVT     r1,#0x4001
        0x00018f86:    2273        s"      MOVS     r2,#0x73
        0x00018f88:    600a        .`      STR      r2,[r1,#0]
        0x00018f8a:    9a00        ..      LDR      r2,[sp,#0]
        0x00018f8c:    f64f6300    O..c    MOVW     r3,#0xfe00
        0x00018f90:    eb010080    ....    ADD      r0,r1,r0,LSL #2
        0x00018f94:    f6cf73ff    ...s    MOVT     r3,#0xffff
        0x00018f98:    50c2        .P      STR      r2,[r0,r3]
        0x00018f9a:    2000        .       MOVS     r0,#0
        0x00018f9c:    6008        .`      STR      r0,[r1,#0]
        0x00018f9e:    b001        ..      ADD      sp,sp,#4
        0x00018fa0:    4770        pG      BX       lr
        0x00018fa2:    bf00        ..      NOP      
        0x00018fa4:    2007        .       MOVS     r0,#7
        0x00018fa6:    b001        ..      ADD      sp,sp,#4
        0x00018fa8:    4770        pG      BX       lr
        0x00018faa:    0000        ..      MOVS     r0,r0
    am_hal_gpio_pinconfig_get
        0x00018fac:    287f        .(      CMP      r0,#0x7f
        0x00018fae:    bf84        ..      ITT      HI
        0x00018fb0:    2005        .       MOVHI    r0,#5
        0x00018fb2:    4770        pG      BXHI     lr
        0x00018fb4:    2900        .)      CMP      r1,#0
        0x00018fb6:    bf04        ..      ITT      EQ
        0x00018fb8:    2006        .       MOVEQ    r0,#6
        0x00018fba:    4770        pG      BXEQ     lr
        0x00018fbc:    2200        ."      MOVS     r2,#0
        0x00018fbe:    f2c40201    ....    MOVT     r2,#0x4001
        0x00018fc2:    f8520020    R. .    LDR      r0,[r2,r0,LSL #2]
        0x00018fc6:    6008        .`      STR      r0,[r1,#0]
        0x00018fc8:    2000        .       MOVS     r0,#0
        0x00018fca:    4770        pG      BX       lr
    am_hal_gpio_state_write
        0x00018fcc:    b510        ..      PUSH     {r4,lr}
        0x00018fce:    b082        ..      SUB      sp,sp,#8
        0x00018fd0:    2905        .)      CMP      r1,#5
        0x00018fd2:    d813        ..      BHI      0x18ffc ; am_hal_gpio_state_write + 48
        0x00018fd4:    4604        .F      MOV      r4,r0
        0x00018fd6:    e8dff001    ....    TBB      [pc,r1]
    $d.5
        0x00018fda:    1503        ..      DCW    5379
        0x00018fdc:    65534127    'ASe    DCD    1699954983
    $t.6
        0x00018fe0:    f004001f    ....    AND      r0,r4,#0x1f
        0x00018fe4:    2101        .!      MOVS     r1,#1
        0x00018fe6:    f2402214    @.."    MOVW     r2,#0x214
        0x00018fea:    fa01f000    ....    LSL      r0,r1,r0
        0x00018fee:    f3c41141    ..A.    UBFX     r1,r4,#5,#2
        0x00018ff2:    f2c40201    ....    MOVT     r2,#0x4001
        0x00018ff6:    eb020181    ....    ADD      r1,r2,r1,LSL #2
        0x00018ffa:    6208        .b      STR      r0,[r1,#0x20]
        0x00018ffc:    2000        .       MOVS     r0,#0
        0x00018ffe:    b002        ..      ADD      sp,sp,#8
        0x00019000:    bd10        ..      POP      {r4,pc}
        0x00019002:    bf00        ..      NOP      
        0x00019004:    f004001f    ....    AND      r0,r4,#0x1f
        0x00019008:    2101        .!      MOVS     r1,#1
        0x0001900a:    f2402214    @.."    MOVW     r2,#0x214
        0x0001900e:    fa01f000    ....    LSL      r0,r1,r0
        0x00019012:    f3c41141    ..A.    UBFX     r1,r4,#5,#2
        0x00019016:    f2c40201    ....    MOVT     r2,#0x4001
        0x0001901a:    eb020181    ....    ADD      r1,r2,r1,LSL #2
        0x0001901e:    6108        .a      STR      r0,[r1,#0x10]
        0x00019020:    2000        .       MOVS     r0,#0
        0x00019022:    b002        ..      ADD      sp,sp,#8
        0x00019024:    bd10        ..      POP      {r4,pc}
        0x00019026:    bf00        ..      NOP      
        0x00019028:    f000f856    ..V.    BL       am_hal_interrupt_master_disable ; 0x190d8
        0x0001902c:    f2402314    @..#    MOVW     r3,#0x214
        0x00019030:    9001        ..      STR      r0,[sp,#4]
        0x00019032:    f3c41241    ..A.    UBFX     r2,r4,#5,#2
        0x00019036:    f2c40301    ....    MOVT     r3,#0x4001
        0x0001903a:    f004001f    ....    AND      r0,r4,#0x1f
        0x0001903e:    2101        .!      MOVS     r1,#1
        0x00019040:    f8534022    S."@    LDR      r4,[r3,r2,LSL #2]
        0x00019044:    fa01f000    ....    LSL      r0,r1,r0
        0x00019048:    4060        `@      EORS     r0,r0,r4
        0x0001904a:    f8430022    C.".    STR      r0,[r3,r2,LSL #2]
        0x0001904e:    9801        ..      LDR      r0,[sp,#4]
        0x00019050:    f000f84a    ..J.    BL       am_hal_interrupt_master_set ; 0x190e8
        0x00019054:    2000        .       MOVS     r0,#0
        0x00019056:    b002        ..      ADD      sp,sp,#8
        0x00019058:    bd10        ..      POP      {r4,pc}
        0x0001905a:    bf00        ..      NOP      
        0x0001905c:    f004001f    ....    AND      r0,r4,#0x1f
        0x00019060:    2101        .!      MOVS     r1,#1
        0x00019062:    f2402214    @.."    MOVW     r2,#0x214
        0x00019066:    fa01f000    ....    LSL      r0,r1,r0
        0x0001906a:    f3c41141    ..A.    UBFX     r1,r4,#5,#2
        0x0001906e:    f2c40201    ....    MOVT     r2,#0x4001
        0x00019072:    eb020181    ....    ADD      r1,r2,r1,LSL #2
        0x00019076:    6508        .e      STR      r0,[r1,#0x50]
        0x00019078:    2000        .       MOVS     r0,#0
        0x0001907a:    b002        ..      ADD      sp,sp,#8
        0x0001907c:    bd10        ..      POP      {r4,pc}
        0x0001907e:    bf00        ..      NOP      
        0x00019080:    f004001f    ....    AND      r0,r4,#0x1f
        0x00019084:    2101        .!      MOVS     r1,#1
        0x00019086:    f2402214    @.."    MOVW     r2,#0x214
        0x0001908a:    fa01f000    ....    LSL      r0,r1,r0
        0x0001908e:    f3c41141    ..A.    UBFX     r1,r4,#5,#2
        0x00019092:    f2c40201    ....    MOVT     r2,#0x4001
        0x00019096:    eb020181    ....    ADD      r1,r2,r1,LSL #2
        0x0001909a:    6408        .d      STR      r0,[r1,#0x40]
        0x0001909c:    2000        .       MOVS     r0,#0
        0x0001909e:    b002        ..      ADD      sp,sp,#8
        0x000190a0:    bd10        ..      POP      {r4,pc}
        0x000190a2:    bf00        ..      NOP      
        0x000190a4:    f000f818    ....    BL       am_hal_interrupt_master_disable ; 0x190d8
        0x000190a8:    f2402314    @..#    MOVW     r3,#0x214
        0x000190ac:    f3c41241    ..A.    UBFX     r2,r4,#5,#2
        0x000190b0:    f2c40301    ....    MOVT     r3,#0x4001
        0x000190b4:    9000        ..      STR      r0,[sp,#0]
        0x000190b6:    eb030282    ....    ADD      r2,r3,r2,LSL #2
        0x000190ba:    f004001f    ....    AND      r0,r4,#0x1f
        0x000190be:    2101        .!      MOVS     r1,#1
        0x000190c0:    6b13        .k      LDR      r3,[r2,#0x30]
        0x000190c2:    fa01f000    ....    LSL      r0,r1,r0
        0x000190c6:    4058        X@      EORS     r0,r0,r3
        0x000190c8:    6310        .c      STR      r0,[r2,#0x30]
        0x000190ca:    9800        ..      LDR      r0,[sp,#0]
        0x000190cc:    f000f80c    ....    BL       am_hal_interrupt_master_set ; 0x190e8
        0x000190d0:    2000        .       MOVS     r0,#0
        0x000190d2:    b002        ..      ADD      sp,sp,#8
        0x000190d4:    bd10        ..      POP      {r4,pc}
        0x000190d6:    0000        ..      MOVS     r0,r0
    am_hal_interrupt_master_disable
        0x000190d8:    f3ef8010    ....    MRS      r0,PRIMASK
        0x000190dc:    b672        r.      CPSID    i
        0x000190de:    4770        pG      BX       lr
    am_hal_interrupt_master_enable
        0x000190e0:    f3ef8010    ....    MRS      r0,PRIMASK
        0x000190e4:    b662        b.      CPSIE    i
        0x000190e6:    4770        pG      BX       lr
    am_hal_interrupt_master_set
        0x000190e8:    f3808810    ....    MSR      PRIMASK,r0
        0x000190ec:    4770        pG      BX       lr
        0x000190ee:    0000        ..      MOVS     r0,r0
    am_hal_iom_CQAddTransaction
        0x000190f0:    e92d47f0    -..G    PUSH     {r4-r10,lr}
        0x000190f4:    b082        ..      SUB      sp,sp,#8
        0x000190f6:    4605        .F      MOV      r5,r0
        0x000190f8:    6a40        @j      LDR      r0,[r0,#0x24]
        0x000190fa:    f5b07f80    ....    CMP      r0,#0x100
        0x000190fe:    d00a        ..      BEQ      0x19116 ; am_hal_iom_CQAddTransaction + 38
        0x00019100:    f8d50828    ..(.    LDR      r0,[r5,#0x828]
        0x00019104:    4698        .F      MOV      r8,r3
        0x00019106:    4691        .F      MOV      r9,r2
        0x00019108:    460f        .F      MOV      r7,r1
        0x0001910a:    aa01        ..      ADD      r2,sp,#4
        0x0001910c:    466b        kF      MOV      r3,sp
        0x0001910e:    210b        .!      MOVS     r1,#0xb
        0x00019110:    f7fffb98    ....    BL       am_hal_cmdq_alloc_block ; 0x18844
        0x00019114:    b120         .      CBZ      r0,0x19120 ; am_hal_iom_CQAddTransaction + 48
        0x00019116:    2005        .       MOVS     r0,#5
        0x00019118:    b002        ..      ADD      sp,sp,#8
        0x0001911a:    e8bd87f0    ....    POP      {r4-r10,pc}
        0x0001911e:    bf00        ..      NOP      
        0x00019120:    6869        ih      LDR      r1,[r5,#4]
        0x00019122:    2200        ."      MOVS     r2,#0
        0x00019124:    f2c40205    ....    MOVT     r2,#0x4005
        0x00019128:    9801        ..      LDR      r0,[sp,#4]
        0x0001912a:    eb023101    ...1    ADD      r1,r2,r1,LSL #12
        0x0001912e:    f5017294    ...r    ADD      r2,r1,#0x128
        0x00019132:    6102        .a      STR      r2,[r0,#0x10]
        0x00019134:    e9d7c202    ....    LDRD     r12,r2,[r7,#8]
        0x00019138:    f5017307    ...s    ADD      r3,r1,#0x21c
        0x0001913c:    ea4f241c    O..$    LSR      r4,r12,#8
        0x00019140:    ea446202    D..b    ORR      r2,r4,r2,LSL #24
        0x00019144:    6142        Ba      STR      r2,[r0,#0x14]
        0x00019146:    f5017231    ..1r    ADD      r2,r1,#0x2c4
        0x0001914a:    6182        .a      STR      r2,[r0,#0x18]
        0x0001914c:    683c        <h      LDR      r4,[r7,#0]
        0x0001914e:    f897e014    ....    LDRB     lr,[r7,#0x14]
        0x00019152:    6283        .b      STR      r3,[r0,#0x28]
        0x00019154:    f5017308    ...s    ADD      r3,r1,#0x220
        0x00019158:    f36f249f    o..$    BFC      r4,#10,#22
        0x0001915c:    f5017606    ...v    ADD      r6,r1,#0x218
        0x00019160:    f04f0a00    O...    MOV      r10,#0
        0x00019164:    6303        .c      STR      r3,[r0,#0x30]
        0x00019166:    231c        .#      MOVS     r3,#0x1c
        0x00019168:    693a        :i      LDR      r2,[r7,#0x10]
        0x0001916a:    61c4        .a      STR      r4,[r0,#0x1c]
        0x0001916c:    6206        .b      STR      r6,[r0,#0x20]
        0x0001916e:    f8c0a024    ..$.    STR      r10,[r0,#0x24]
        0x00019172:    f1be0f00    ....    CMP      lr,#0
        0x00019176:    bf08        ..      IT       EQ
        0x00019178:    2318        .#      MOVEQ    r3,#0x18
        0x0001917a:    58fb        .X      LDR      r3,[r7,r3]
        0x0001917c:    6386        .c      STR      r6,[r0,#0x38]
        0x0001917e:    6343        Cc      STR      r3,[r0,#0x34]
        0x00019180:    f8973022    .."0    LDRB     r3,[r7,#0x22]
        0x00019184:    4616        .F      MOV      r6,r2
        0x00019186:    62c2        .b      STR      r2,[r0,#0x2c]
        0x00019188:    f0030301    ....    AND      r3,r3,#1
        0x0001918c:    2a00        .*      CMP      r2,#0
        0x0001918e:    bf18        ..      IT       NE
        0x00019190:    2601        .&      MOVNE    r6,#1
        0x00019192:    f1be0f00    ....    CMP      lr,#0
        0x00019196:    bf08        ..      IT       EQ
        0x00019198:    3602        .6      ADDEQ    r6,#2
        0x0001919a:    ea462303    F..#    ORR      r3,r6,r3,LSL #8
        0x0001919e:    63c3        .c      STR      r3,[r0,#0x3c]
        0x000191a0:    7a2b        +z      LDRB     r3,[r5,#8]
        0x000191a2:    f5017692    ...v    ADD      r6,r1,#0x124
        0x000191a6:    6406        .d      STR      r6,[r0,#0x40]
        0x000191a8:    b113        ..      CBZ      r3,0x191b0 ; am_hal_iom_CQAddTransaction + 192
        0x000191aa:    f8c0a044    ..D.    STR      r10,[r0,#0x44]
        0x000191ae:    e009        ..      B        0x191c4 ; am_hal_iom_CQAddTransaction + 212
        0x000191b0:    683b        ;h      LDR      r3,[r7,#0]
        0x000191b2:    f44f1440    O.@.    MOV      r4,#0x300000
        0x000191b6:    442b        +D      ADD      r3,r3,r5
        0x000191b8:    f89338a0    ...8    LDRB     r3,[r3,#0x8a0]
        0x000191bc:    6443        Cd      STR      r3,[r0,#0x44]
        0x000191be:    683b        ;h      LDR      r3,[r7,#0]
        0x000191c0:    ea045a03    ...Z    AND      r10,r4,r3,LSL #20
        0x000191c4:    2401        .$      MOVS     r4,#1
        0x000191c6:    f8973020    .. 0    LDRB     r3,[r7,#0x20]
        0x000191ca:    687e        ~h      LDR      r6,[r7,#4]
        0x000191cc:    f1be0f01    ....    CMP      lr,#1
        0x000191d0:    bf08        ..      IT       EQ
        0x000191d2:    2402        .$      MOVEQ    r4,#2
        0x000191d4:    ea44640c    D..d    ORR      r4,r4,r12,LSL #24
        0x000191d8:    f3622413    b..$    BFI      r4,r2,#8,#12
        0x000191dc:    f0030301    ....    AND      r3,r3,#1
        0x000191e0:    ea4a0204    J...    ORR      r2,r10,r4
        0x000191e4:    f0060607    ....    AND      r6,r6,#7
        0x000191e8:    ea4212c3    B...    ORR      r2,r2,r3,LSL #7
        0x000191ec:    ea421206    B...    ORR      r2,r2,r6,LSL #4
        0x000191f0:    f5017390    ...s    ADD      r3,r1,#0x120
        0x000191f4:    e9c03212    ...2    STRD     r3,r2,[r0,#0x48]
        0x000191f8:    f8d53838    ..88    LDR      r3,[r5,#0x838]
        0x000191fc:    f501760f    ...v    ADD      r6,r1,#0x23c
        0x00019200:    f44f4200    O..B    MOV      r2,#0x8000
        0x00019204:    2b02        .+      CMP      r3,#2
        0x00019206:    6006        .`      STR      r6,[r0,#0]
        0x00019208:    6086        .`      STR      r6,[r0,#8]
        0x0001920a:    60c2        .`      STR      r2,[r0,#0xc]
        0x0001920c:    d00d        ..      BEQ      0x1922a ; am_hal_iom_CQAddTransaction + 314
        0x0001920e:    6a7a        zj      LDR      r2,[r7,#0x24]
        0x00019210:    2b01        .+      CMP      r3,#1
        0x00019212:    d107        ..      BNE      0x19224 ; am_hal_iom_CQAddTransaction + 308
        0x00019214:    f24803a0    H...    MOV      r3,#0x80a0
        0x00019218:    431a        .C      ORRS     r2,r2,r3
        0x0001921a:    2302        .#      MOVS     r3,#2
        0x0001921c:    f8c53838    ..88    STR      r3,[r5,#0x838]
        0x00019220:    e003        ..      B        0x1922a ; am_hal_iom_CQAddTransaction + 314
        0x00019222:    bf00        ..      NOP      
        0x00019224:    f2480380    H...    MOV      r3,#0x8080
        0x00019228:    431a        .C      ORRS     r2,r2,r3
        0x0001922a:    f501710e    ...q    ADD      r1,r1,#0x238
        0x0001922e:    6042        B`      STR      r2,[r0,#4]
        0x00019230:    6aba        .j      LDR      r2,[r7,#0x28]
        0x00019232:    6501        .e      STR      r1,[r0,#0x50]
        0x00019234:    f89d1000    ....    LDRB     r1,[sp,#0]
        0x00019238:    6542        Be      STR      r2,[r0,#0x54]
        0x0001923a:    eb050081    ....    ADD      r0,r5,r1,LSL #2
        0x0001923e:    f8c09028    ..(.    STR      r9,[r0,#0x28]
        0x00019242:    f8c08428    ..(.    STR      r8,[r0,#0x428]
        0x00019246:    2000        .       MOVS     r0,#0
        0x00019248:    b002        ..      ADD      sp,sp,#8
        0x0001924a:    e8bd87f0    ....    POP      {r4-r10,pc}
        0x0001924e:    0000        ..      MOVS     r0,r0
    am_hal_iom_CQEnable
        0x00019250:    6a41        Aj      LDR      r1,[r0,#0x24]
        0x00019252:    b119        ..      CBZ      r1,0x1925c ; am_hal_iom_CQEnable + 12
        0x00019254:    f8d00828    ..(.    LDR      r0,[r0,#0x828]
        0x00019258:    f7ffbb78    ..x.    B        am_hal_cmdq_enable ; 0x1894c
        0x0001925c:    6841        Ah      LDR      r1,[r0,#4]
        0x0001925e:    f240232c    @.,#    MOVW     r3,#0x22c
        0x00019262:    030a        ..      LSLS     r2,r1,#12
        0x00019264:    f2c40305    ....    MOVT     r3,#0x4005
        0x00019268:    589a        .X      LDR      r2,[r3,r2]
        0x0001926a:    eb033101    ...1    ADD      r1,r3,r1,LSL #12
        0x0001926e:    e9c21200    ....    STRD     r1,r2,[r2,#0]
        0x00019272:    f8d00828    ..(.    LDR      r0,[r0,#0x828]
        0x00019276:    f7ffbb69    ..i.    B        am_hal_cmdq_enable ; 0x1894c
        0x0001927a:    0000        ..      MOVS     r0,r0
    am_hal_iom_configure
        0x0001927c:    b5f0        ..      PUSH     {r4-r7,lr}
        0x0001927e:    b081        ..      SUB      sp,sp,#4
        0x00019280:    b190        ..      CBZ      r0,0x192a8 ; am_hal_iom_configure + 44
        0x00019282:    4604        .F      MOV      r4,r0
        0x00019284:    6800        .h      LDR      r0,[r0,#0]
        0x00019286:    f2434256    C.VB    MOV      r2,#0x3456
        0x0001928a:    460d        .F      MOV      r5,r1
        0x0001928c:    f020417e     .~A    BIC      r1,r0,#0xfe000000
        0x00019290:    f2c01212    ....    MOVT     r2,#0x112
        0x00019294:    4291        .B      CMP      r1,r2
        0x00019296:    d107        ..      BNE      0x192a8 ; am_hal_iom_configure + 44
        0x00019298:    b115        ..      CBZ      r5,0x192a0 ; am_hal_iom_configure + 36
        0x0001929a:    6861        ah      LDR      r1,[r4,#4]
        0x0001929c:    2907        .)      CMP      r1,#7
        0x0001929e:    d907        ..      BLS      0x192b0 ; am_hal_iom_configure + 52
        0x000192a0:    2006        .       MOVS     r0,#6
        0x000192a2:    b001        ..      ADD      sp,sp,#4
        0x000192a4:    bdf0        ..      POP      {r4-r7,pc}
        0x000192a6:    bf00        ..      NOP      
        0x000192a8:    2002        .       MOVS     r0,#2
        0x000192aa:    b001        ..      ADD      sp,sp,#4
        0x000192ac:    bdf0        ..      POP      {r4-r7,pc}
        0x000192ae:    bf00        ..      NOP      
        0x000192b0:    0180        ..      LSLS     r0,r0,#6
        0x000192b2:    d421        !.      BMI      0x192f8 ; am_hal_iom_configure + 124
        0x000192b4:    7828        (x      LDRB     r0,[r5,#0]
        0x000192b6:    7220         r      STRB     r0,[r4,#8]
        0x000192b8:    2000        .       MOVS     r0,#0
        0x000192ba:    f2c40005    ....    MOVT     r0,#0x4005
        0x000192be:    eb003601    ...6    ADD      r6,r0,r1,LSL #12
        0x000192c2:    f2410010    A...    MOV      r0,#0x1010
        0x000192c6:    f8c60104    ....    STR      r0,[r6,#0x104]
        0x000192ca:    7828        (x      LDRB     r0,[r5,#0]
        0x000192cc:    2801        .(      CMP      r0,#1
        0x000192ce:    d017        ..      BEQ      0x19300 ; am_hal_iom_configure + 132
        0x000192d0:    bba0        ..      CBNZ     r0,0x1933c ; am_hal_iom_configure + 192
        0x000192d2:    7a2f        /z      LDRB     r7,[r5,#8]
        0x000192d4:    2f03        ./      CMP      r7,#3
        0x000192d6:    d8e3        ..      BHI      0x192a0 ; am_hal_iom_configure + 36
        0x000192d8:    6868        hh      LDR      r0,[r5,#4]
        0x000192da:    f6464100    F..A    MOVW     r1,#0x6c00
        0x000192de:    f2c021dc    ...!    MOVT     r1,#0x2dc
        0x000192e2:    4288        .B      CMP      r0,r1
        0x000192e4:    d8dc        ..      BHI      0x192a0 ; am_hal_iom_configure + 36
        0x000192e6:    0879        y.      LSRS     r1,r7,#1
        0x000192e8:    f001ffe2    ....    BL       iom_get_interface_clock_cfg ; 0x1b2b0
        0x000192ec:    f8c67280    ...r    STR      r7,[r6,#0x280]
        0x000192f0:    f0400001    @...    ORR      r0,r0,#1
        0x000192f4:    e03e        >.      B        0x19374 ; am_hal_iom_configure + 248
        0x000192f6:    bf00        ..      NOP      
        0x000192f8:    2007        .       MOVS     r0,#7
        0x000192fa:    b001        ..      ADD      sp,sp,#4
        0x000192fc:    bdf0        ..      POP      {r4-r7,pc}
        0x000192fe:    bf00        ..      NOP      
        0x00019300:    6868        hh      LDR      r0,[r5,#4]
        0x00019302:    f2442140    D.@!    MOV      r1,#0x4240
        0x00019306:    f2c0010f    ....    MOVT     r1,#0xf
        0x0001930a:    4288        .B      CMP      r0,r1
        0x0001930c:    d01a        ..      BEQ      0x19344 ; am_hal_iom_configure + 200
        0x0001930e:    f6412180    A..!    MOVW     r1,#0x1a80
        0x00019312:    f2c00106    ....    MOVT     r1,#6
        0x00019316:    4288        .B      CMP      r0,r1
        0x00019318:    d020         .      BEQ      0x1935c ; am_hal_iom_configure + 224
        0x0001931a:    f24861a0    H..a    MOV      r1,#0x86a0
        0x0001931e:    f2c00101    ....    MOVT     r1,#1
        0x00019322:    4288        .B      CMP      r0,r1
        0x00019324:    d1bc        ..      BNE      0x192a0 ; am_hal_iom_configure + 36
        0x00019326:    f24f0070    O.p.    MOV      r0,#0xf070
        0x0001932a:    f2c00003    ....    MOVT     r0,#3
        0x0001932e:    f8c602c0    ....    STR      r0,[r6,#0x2c0]
        0x00019332:    f2413001    A..0    MOV      r0,#0x1301
        0x00019336:    f2c7703b    ..;p    MOVT     r0,#0x773b
        0x0001933a:    e01b        ..      B        0x19374 ; am_hal_iom_configure + 248
        0x0001933c:    2005        .       MOVS     r0,#5
        0x0001933e:    b001        ..      ADD      sp,sp,#4
        0x00019340:    bdf0        ..      POP      {r4-r7,pc}
        0x00019342:    bf00        ..      NOP      
        0x00019344:    f2430040    C.@.    MOVW     r0,#0x3040
        0x00019348:    f2c00002    ....    MOVT     r0,#2
        0x0001934c:    f8c602c0    ....    STR      r0,[r6,#0x2c0]
        0x00019350:    f2413001    A..0    MOV      r0,#0x1301
        0x00019354:    f6c03005    ...0    MOVT     r0,#0xb05
        0x00019358:    e00c        ..      B        0x19374 ; am_hal_iom_configure + 248
        0x0001935a:    bf00        ..      NOP      
        0x0001935c:    f24f0070    O.p.    MOV      r0,#0xf070
        0x00019360:    f2c00003    ....    MOVT     r0,#3
        0x00019364:    f5007000    ...p    ADD      r0,r0,#0x200
        0x00019368:    f8c602c0    ....    STR      r0,[r6,#0x2c0]
        0x0001936c:    f2413001    A..0    MOV      r0,#0x1301
        0x00019370:    f6c1500e    ...P    MOVT     r0,#0x1d0e
        0x00019374:    f8c60118    ....    STR      r0,[r6,#0x118]
        0x00019378:    6869        ih      LDR      r1,[r5,#4]
        0x0001937a:    f2442340    D.@#    MOV      r3,#0x4240
        0x0001937e:    e9d50203    ....    LDRD     r0,r2,[r5,#0xc]
        0x00019382:    f2c0030f    ....    MOVT     r3,#0xf
        0x00019386:    fbb3f1f1    ....    UDIV     r1,r3,r1
        0x0001938a:    f44f737a    O.zs    MOV      r3,#0x3e8
        0x0001938e:    f8c43860    ..`8    STR      r3,[r4,#0x860]
        0x00019392:    f8c41864    ..d.    STR      r1,[r4,#0x864]
        0x00019396:    60e0        .`      STR      r0,[r4,#0xc]
        0x00019398:    6122        "a      STR      r2,[r4,#0x10]
        0x0001939a:    b358        X.      CBZ      r0,0x193f4 ; am_hal_iom_configure + 376
        0x0001939c:    2300        .#      MOVS     r3,#0
        0x0001939e:    0091        ..      LSLS     r1,r2,#2
        0x000193a0:    eb000282    ....    ADD      r2,r0,r2,LSL #2
        0x000193a4:    f2c10306    ....    MOVT     r3,#0x1006
        0x000193a8:    2700        .'      MOVS     r7,#0
        0x000193aa:    429a        .B      CMP      r2,r3
        0x000193ac:    bf38        8.      IT       CC
        0x000193ae:    2701        .'      MOVCC    r7,#1
        0x000193b0:    f88478a4    ...x    STRB     r7,[r4,#0x8a4]
        0x000193b4:    d30d        ..      BCC      0x193d2 ; am_hal_iom_configure + 342
        0x000193b6:    f100020f    ....    ADD      r2,r0,#0xf
        0x000193ba:    f000000f    ....    AND      r0,r0,#0xf
        0x000193be:    1a08        ..      SUBS     r0,r1,r0
        0x000193c0:    f06f0103    o...    MVN      r1,#3
        0x000193c4:    ea010090    ....    AND      r0,r1,r0,LSR #2
        0x000193c8:    f022020f    "...    BIC      r2,r2,#0xf
        0x000193cc:    0081        ..      LSLS     r1,r0,#2
        0x000193ce:    e9c42003    ...     STRD     r2,r0,[r4,#0xc]
        0x000193d2:    f1a10020    .. .    SUB      r0,r1,#0x20
        0x000193d6:    f64a21ab    J..!    MOV      r1,#0xaaab
        0x000193da:    f6ca21aa    ...!    MOVT     r1,#0xaaaa
        0x000193de:    fba01201    ....    UMULL    r1,r2,r0,r1
        0x000193e2:    0991        ..      LSRS     r1,r2,#6
        0x000193e4:    f246025f    F._.    MOV      r2,#0x605f
        0x000193e8:    4290        .B      CMP      r0,r2
        0x000193ea:    bf88        ..      IT       HI
        0x000193ec:    f44f7180    O..q    MOVHI    r1,#0x100
        0x000193f0:    f8c41858    ..X.    STR      r1,[r4,#0x858]
        0x000193f4:    2000        .       MOVS     r0,#0
        0x000193f6:    f8c408a0    ....    STR      r0,[r4,#0x8a0]
        0x000193fa:    b001        ..      ADD      sp,sp,#4
        0x000193fc:    bdf0        ..      POP      {r4-r7,pc}
        0x000193fe:    0000        ..      MOVS     r0,r0
    am_hal_iom_enable
        0x00019400:    b5f0        ..      PUSH     {r4-r7,lr}
        0x00019402:    b083        ..      SUB      sp,sp,#0xc
        0x00019404:    b310        ..      CBZ      r0,0x1944c ; am_hal_iom_enable + 76
        0x00019406:    4604        .F      MOV      r4,r0
        0x00019408:    6800        .h      LDR      r0,[r0,#0]
        0x0001940a:    f2434256    C.VB    MOV      r2,#0x3456
        0x0001940e:    f020417e     .~A    BIC      r1,r0,#0xfe000000
        0x00019412:    f2c01212    ....    MOVT     r2,#0x112
        0x00019416:    4291        .B      CMP      r1,r2
        0x00019418:    d118        ..      BNE      0x1944c ; am_hal_iom_enable + 76
        0x0001941a:    0180        ..      LSLS     r0,r0,#6
        0x0001941c:    d46d        m.      BMI      0x194fa ; am_hal_iom_enable + 250
        0x0001941e:    2500        .%      MOVS     r5,#0
        0x00019420:    6860        `h      LDR      r0,[r4,#4]
        0x00019422:    f2c40505    ....    MOVT     r5,#0x4005
        0x00019426:    eb053000    ...0    ADD      r0,r5,r0,LSL #12
        0x0001942a:    7a21        !z      LDRB     r1,[r4,#8]
        0x0001942c:    f8d0211c    ...!    LDR      r2,[r0,#0x11c]
        0x00019430:    2900        .)      CMP      r1,#0
        0x00019432:    f3c20242    ..B.    UBFX     r2,r2,#1,#3
        0x00019436:    bf18        ..      IT       NE
        0x00019438:    2101        .!      MOVNE    r1,#1
        0x0001943a:    428a        .B      CMP      r2,r1
        0x0001943c:    d10a        ..      BNE      0x19454 ; am_hal_iom_enable + 84
        0x0001943e:    2101        .!      MOVS     r1,#1
        0x00019440:    f8c0111c    ....    STR      r1,[r0,#0x11c]
        0x00019444:    68e0        .h      LDR      r0,[r4,#0xc]
        0x00019446:    b988        ..      CBNZ     r0,0x1946c ; am_hal_iom_enable + 108
        0x00019448:    e053        S.      B        0x194f2 ; am_hal_iom_enable + 242
        0x0001944a:    bf00        ..      NOP      
        0x0001944c:    2002        .       MOVS     r0,#2
        0x0001944e:    b003        ..      ADD      sp,sp,#0xc
        0x00019450:    bdf0        ..      POP      {r4-r7,pc}
        0x00019452:    bf00        ..      NOP      
        0x00019454:    f8d0211c    ...!    LDR      r2,[r0,#0x11c]
        0x00019458:    f3c21242    ..B.    UBFX     r2,r2,#5,#3
        0x0001945c:    428a        .B      CMP      r2,r1
        0x0001945e:    d13d        =.      BNE      0x194dc ; am_hal_iom_enable + 220
        0x00019460:    2110        .!      MOVS     r1,#0x10
        0x00019462:    f8c0111c    ....    STR      r1,[r0,#0x11c]
        0x00019466:    68e0        .h      LDR      r0,[r4,#0xc]
        0x00019468:    2800        .(      CMP      r0,#0
        0x0001946a:    d042        B.      BEQ      0x194f2 ; am_hal_iom_enable + 242
        0x0001946c:    2100        .!      MOVS     r1,#0
        0x0001946e:    6261        ab      STR      r1,[r4,#0x24]
        0x00019470:    6860        `h      LDR      r0,[r4,#4]
        0x00019472:    2240        @"      MOVS     r2,#0x40
        0x00019474:    eb053000    ...0    ADD      r0,r5,r0,LSL #12
        0x00019478:    f2c00280    ....    MOVT     r2,#0x80
        0x0001947c:    61e1        .a      STR      r1,[r4,#0x1c]
        0x0001947e:    f8c02238    ..8"    STR      r2,[r0,#0x238]
        0x00019482:    f8c41854    ..T.    STR      r1,[r4,#0x854]
        0x00019486:    f884183c    ..<.    STRB     r1,[r4,#0x83c]
        0x0001948a:    e9d43603    ...6    LDRD     r3,r6,[r4,#0xc]
        0x0001948e:    f8c41838    ..8.    STR      r1,[r4,#0x838]
        0x00019492:    f8c41840    ..@.    STR      r1,[r4,#0x840]
        0x00019496:    f8c41844    ..D.    STR      r1,[r4,#0x844]
        0x0001949a:    f8c41830    ..0.    STR      r1,[r4,#0x830]
        0x0001949e:    f8c41828    ..(.    STR      r1,[r4,#0x828]
        0x000194a2:    6221        !b      STR      r1,[r4,#0x20]
        0x000194a4:    f8c4185c    ..\.    STR      r1,[r4,#0x85c]
        0x000194a8:    0871        q.      LSRS     r1,r6,#1
        0x000194aa:    7920         y      LDRB     r0,[r4,#4]
        0x000194ac:    9100        ..      STR      r1,[sp,#0]
        0x000194ae:    2101        .!      MOVS     r1,#1
        0x000194b0:    f44f7780    O..w    MOV      r7,#0x100
        0x000194b4:    f6040228    ..(.    ADD      r2,r4,#0x828
        0x000194b8:    f88d1008    ....    STRB     r1,[sp,#8]
        0x000194bc:    4669        iF      MOV      r1,sp
        0x000194be:    f8a4782c    ..,x    STRH     r7,[r4,#0x82c]
        0x000194c2:    9301        ..      STR      r3,[sp,#4]
        0x000194c4:    f7fffb06    ....    BL       am_hal_cmdq_init ; 0x18ad4
        0x000194c8:    b160        `.      CBZ      r0,0x194e4 ; am_hal_iom_enable + 228
        0x000194ca:    6861        ah      LDR      r1,[r4,#4]
        0x000194cc:    2202        ."      MOVS     r2,#2
        0x000194ce:    eb053101    ...1    ADD      r1,r5,r1,LSL #12
        0x000194d2:    f8c12210    ..."    STR      r2,[r1,#0x210]
        0x000194d6:    b003        ..      ADD      sp,sp,#0xc
        0x000194d8:    bdf0        ..      POP      {r4-r7,pc}
        0x000194da:    bf00        ..      NOP      
        0x000194dc:    2009        .       MOVS     r0,#9
        0x000194de:    b003        ..      ADD      sp,sp,#0xc
        0x000194e0:    bdf0        ..      POP      {r4-r7,pc}
        0x000194e2:    bf00        ..      NOP      
        0x000194e4:    6860        `h      LDR      r0,[r4,#4]
        0x000194e6:    2102        .!      MOVS     r1,#2
        0x000194e8:    eb053000    ...0    ADD      r0,r5,r0,LSL #12
        0x000194ec:    6227        'b      STR      r7,[r4,#0x20]
        0x000194ee:    f8c01210    ....    STR      r1,[r0,#0x210]
        0x000194f2:    6820         h      LDR      r0,[r4,#0]
        0x000194f4:    f0407000    @..p    ORR      r0,r0,#0x2000000
        0x000194f8:    6020         `      STR      r0,[r4,#0]
        0x000194fa:    2000        .       MOVS     r0,#0
        0x000194fc:    b003        ..      ADD      sp,sp,#0xc
        0x000194fe:    bdf0        ..      POP      {r4-r7,pc}
    am_hal_iom_initialize
        0x00019500:    b580        ..      PUSH     {r7,lr}
        0x00019502:    2807        .(      CMP      r0,#7
        0x00019504:    bf84        ..      ITT      HI
        0x00019506:    2005        .       MOVHI    r0,#5
        0x00019508:    bd80        ..      POPHI    {r7,pc}
        0x0001950a:    b1d9        ..      CBZ      r1,0x19544 ; am_hal_iom_initialize + 68
        0x0001950c:    f2405c44    @.D\    MOV      r12,#0x544
        0x00019510:    f6400ea8    @...    MOV      lr,#0x8a8
        0x00019514:    f2c10c00    ....    MOVT     r12,#0x1000
        0x00019518:    fb00f20e    ....    MUL      r2,r0,lr
        0x0001951c:    f85c2002    \..     LDR      r2,[r12,r2]
        0x00019520:    01d3        ..      LSLS     r3,r2,#7
        0x00019522:    bf44        D.      ITT      MI
        0x00019524:    2007        .       MOVMI    r0,#7
        0x00019526:    bd80        ..      POPMI    {r7,pc}
        0x00019528:    f2434356    C.VC    MOV      r3,#0x3456
        0x0001952c:    fb00cc0e    ....    MLA      r12,r0,lr,r12
        0x00019530:    f2c01312    ....    MOVT     r3,#0x112
        0x00019534:    f3630219    c...    BFI      r2,r3,#0,#26
        0x00019538:    e9cc2000    ...     STRD     r2,r0,[r12,#0]
        0x0001953c:    2000        .       MOVS     r0,#0
        0x0001953e:    f8c1c000    ....    STR      r12,[r1,#0]
        0x00019542:    bd80        ..      POP      {r7,pc}
        0x00019544:    2006        .       MOVS     r0,#6
        0x00019546:    bd80        ..      POP      {r7,pc}
    am_hal_iom_interrupt_clear
        0x00019548:    b190        ..      CBZ      r0,0x19570 ; am_hal_iom_interrupt_clear + 40
        0x0001954a:    6802        .h      LDR      r2,[r0,#0]
        0x0001954c:    f2434356    C.VC    MOV      r3,#0x3456
        0x00019550:    f022427e    ".~B    BIC      r2,r2,#0xfe000000
        0x00019554:    f2c01312    ....    MOVT     r3,#0x112
        0x00019558:    429a        .B      CMP      r2,r3
        0x0001955a:    d109        ..      BNE      0x19570 ; am_hal_iom_interrupt_clear + 40
        0x0001955c:    6840        @h      LDR      r0,[r0,#4]
        0x0001955e:    f2402208    @.."    MOVW     r2,#0x208
        0x00019562:    0300        ..      LSLS     r0,r0,#12
        0x00019564:    f2c40205    ....    MOVT     r2,#0x4005
        0x00019568:    5011        .P      STR      r1,[r2,r0]
        0x0001956a:    2000        .       MOVS     r0,#0
        0x0001956c:    4770        pG      BX       lr
        0x0001956e:    bf00        ..      NOP      
        0x00019570:    2002        .       MOVS     r0,#2
        0x00019572:    4770        pG      BX       lr
    am_hal_iom_interrupt_service
        0x00019574:    e92d4ff0    -..O    PUSH     {r4-r11,lr}
        0x00019578:    b085        ..      SUB      sp,sp,#0x14
        0x0001957a:    2800        .(      CMP      r0,#0
        0x0001957c:    d052        R.      BEQ      0x19624 ; am_hal_iom_interrupt_service + 176
        0x0001957e:    4604        .F      MOV      r4,r0
        0x00019580:    6800        .h      LDR      r0,[r0,#0]
        0x00019582:    460e        .F      MOV      r6,r1
        0x00019584:    f2434156    C.VA    MOV      r1,#0x3456
        0x00019588:    f020407e     .~@    BIC      r0,r0,#0xfe000000
        0x0001958c:    f2c01112    ....    MOVT     r1,#0x112
        0x00019590:    4288        .B      CMP      r0,r1
        0x00019592:    d147        G.      BNE      0x19624 ; am_hal_iom_interrupt_service + 176
        0x00019594:    f8d4b004    ....    LDR      r11,[r4,#4]
        0x00019598:    f894083c    ..<.    LDRB     r0,[r4,#0x83c]
        0x0001959c:    2800        .(      CMP      r0,#0
        0x0001959e:    d045        E.      BEQ      0x1962c ; am_hal_iom_interrupt_service + 184
        0x000195a0:    69a0        .i      LDR      r0,[r4,#0x18]
        0x000195a2:    f6400101    @...    MOV      r1,#0x801
        0x000195a6:    4330        0C      ORRS     r0,r0,r6
        0x000195a8:    4208        .B      TST      r0,r1
        0x000195aa:    61a0        .a      STR      r0,[r4,#0x18]
        0x000195ac:    d050        P.      BEQ      0x19650 ; am_hal_iom_interrupt_service + 220
        0x000195ae:    f2400900    @...    MOVW     r9,#0
        0x000195b2:    f2c40905    ....    MOVT     r9,#0x4005
        0x000195b6:    eb09350b    ...5    ADD      r5,r9,r11,LSL #12
        0x000195ba:    f8d51218    ....    LDR      r1,[r5,#0x218]
        0x000195be:    07c9        ..      LSLS     r1,r1,#31
        0x000195c0:    d003        ..      BEQ      0x195ca ; am_hal_iom_interrupt_service + 86
        0x000195c2:    f644617c    D.|a    MOV      r1,#0x4e7c
        0x000195c6:    4001        .@      ANDS     r1,r1,r0
        0x000195c8:    d042        B.      BEQ      0x19650 ; am_hal_iom_interrupt_service + 220
        0x000195ca:    f8d41850    ..P.    LDR      r1,[r4,#0x850]
        0x000195ce:    f8d42848    ..H(    LDR      r2,[r4,#0x848]
        0x000195d2:    3101        .1      ADDS     r1,#1
        0x000195d4:    fbb1f3f2    ....    UDIV     r3,r1,r2
        0x000195d8:    f8d47840    ..@x    LDR      r7,[r4,#0x840]
        0x000195dc:    fb031212    ....    MLS      r2,r3,r2,r1
        0x000195e0:    f8d43854    ..T8    LDR      r3,[r4,#0x854]
        0x000195e4:    f8c41850    ..P.    STR      r1,[r4,#0x850]
        0x000195e8:    1e79        y.      SUBS     r1,r7,#1
        0x000195ea:    eb031742    ..B.    ADD      r7,r3,r2,LSL #5
        0x000195ee:    f8c41840    ..@.    STR      r1,[r4,#0x840]
        0x000195f2:    463e        >F      MOV      r6,r7
        0x000195f4:    f8561f18    V...    LDR      r1,[r6,#0x18]!
        0x000195f8:    2900        .)      CMP      r1,#0
        0x000195fa:    f00080d2    ....    BEQ.W    0x197a2 ; am_hal_iom_interrupt_service + 558
        0x000195fe:    2000        .       MOVS     r0,#0
        0x00019600:    2100        .!      MOVS     r1,#0
        0x00019602:    f04f0800    O...    MOV      r8,#0
        0x00019606:    f7fffb67    ..g.    BL       am_hal_daxi_control ; 0x18cd8
        0x0001960a:    6832        2h      LDR      r2,[r6,#0]
        0x0001960c:    69f8        .i      LDR      r0,[r7,#0x1c]
        0x0001960e:    69a1        .i      LDR      r1,[r4,#0x18]
        0x00019610:    f8d53204    ...2    LDR      r3,[r5,#0x204]
        0x00019614:    430b        .C      ORRS     r3,r3,r1
        0x00019616:    f0130f6c    ..l.    TST      r3,#0x6c
        0x0001961a:    f00080af    ....    BEQ.W    0x1977c ; am_hal_iom_interrupt_service + 520
        0x0001961e:    f04f6100    O..a    MOV      r1,#0x8000000
        0x00019622:    e0ba        ..      B        0x1979a ; am_hal_iom_interrupt_service + 550
        0x00019624:    2002        .       MOVS     r0,#2
        0x00019626:    b005        ..      ADD      sp,sp,#0x14
        0x00019628:    e8bd8ff0    ....    POP      {r4-r11,pc}
        0x0001962c:    6a60        `j      LDR      r0,[r4,#0x24]
        0x0001962e:    b178        x.      CBZ      r0,0x19650 ; am_hal_iom_interrupt_service + 220
        0x00019630:    f8d40828    ..(.    LDR      r0,[r4,#0x828]
        0x00019634:    2800        .(      CMP      r0,#0
        0x00019636:    f0008089    ....    BEQ.W    0x1974c ; am_hal_iom_interrupt_service + 472
        0x0001963a:    a901        ..      ADD      r1,sp,#4
        0x0001963c:    f7fff9fc    ....    BL       am_hal_cmdq_get_status ; 0x18a38
        0x00019640:    b150        P.      CBZ      r0,0x19658 ; am_hal_iom_interrupt_service + 228
        0x00019642:    6a61        aj      LDR      r1,[r4,#0x24]
        0x00019644:    2900        .)      CMP      r1,#0
        0x00019646:    f0008086    ....    BEQ.W    0x19756 ; am_hal_iom_interrupt_service + 482
        0x0001964a:    b005        ..      ADD      sp,sp,#0x14
        0x0001964c:    e8bd8ff0    ....    POP      {r4-r11,pc}
        0x00019650:    2000        .       MOVS     r0,#0
        0x00019652:    b005        ..      ADD      sp,sp,#0x14
        0x00019654:    e8bd8ff0    ....    POP      {r4-r11,pc}
        0x00019658:    f04f0800    O...    MOV      r8,#0
        0x0001965c:    f8848834    ..4.    STRB     r8,[r4,#0x834]
        0x00019660:    69e0        .i      LDR      r0,[r4,#0x1c]
        0x00019662:    9901        ..      LDR      r1,[sp,#4]
        0x00019664:    4288        .B      CMP      r0,r1
        0x00019666:    d01f        ..      BEQ      0x196a8 ; am_hal_iom_interrupt_service + 308
        0x00019668:    f8941834    ..4.    LDRB     r1,[r4,#0x834]
        0x0001966c:    b9e1        ..      CBNZ     r1,0x196a8 ; am_hal_iom_interrupt_service + 308
        0x0001966e:    3001        .0      ADDS     r0,#1
        0x00019670:    61e0        .a      STR      r0,[r4,#0x1c]
        0x00019672:    6a61        aj      LDR      r1,[r4,#0x24]
        0x00019674:    b2c0        ..      UXTB     r0,r0
        0x00019676:    3901        .9      SUBS     r1,#1
        0x00019678:    eb040580    ....    ADD      r5,r4,r0,LSL #2
        0x0001967c:    6261        ab      STR      r1,[r4,#0x24]
        0x0001967e:    462f        /F      MOV      r7,r5
        0x00019680:    f8570f28    W.(.    LDR      r0,[r7,#0x28]!
        0x00019684:    2800        .(      CMP      r0,#0
        0x00019686:    d0eb        ..      BEQ      0x19660 ; am_hal_iom_interrupt_service + 236
        0x00019688:    2000        .       MOVS     r0,#0
        0x0001968a:    2100        .!      MOVS     r1,#0
        0x0001968c:    f7fffb24    ..$.    BL       am_hal_daxi_control ; 0x18cd8
        0x00019690:    683a        :h      LDR      r2,[r7,#0]
        0x00019692:    f8d50428    ..(.    LDR      r0,[r5,#0x428]
        0x00019696:    2100        .!      MOVS     r1,#0
        0x00019698:    4790        .G      BLX      r2
        0x0001969a:    f894082c    ..,.    LDRB     r0,[r4,#0x82c]
        0x0001969e:    2802        .(      CMP      r0,#2
        0x000196a0:    bf18        ..      IT       NE
        0x000196a2:    f8c78000    ....    STRNE    r8,[r7,#0]
        0x000196a6:    e7db        ..      B        0x19660 ; am_hal_iom_interrupt_service + 236
        0x000196a8:    f8941834    ..4.    LDRB     r1,[r4,#0x834]
        0x000196ac:    2900        .)      CMP      r1,#0
        0x000196ae:    d147        G.      BNE      0x19740 ; am_hal_iom_interrupt_service + 460
        0x000196b0:    f644217c    D.|!    MOV      r1,#0x4a7c
        0x000196b4:    ea160801    ....    ANDS     r8,r6,r1
        0x000196b8:    d042        B.      BEQ      0x19740 ; am_hal_iom_interrupt_service + 460
        0x000196ba:    3001        .0      ADDS     r0,#1
        0x000196bc:    61e0        .a      STR      r0,[r4,#0x1c]
        0x000196be:    6a61        aj      LDR      r1,[r4,#0x24]
        0x000196c0:    b2c0        ..      UXTB     r0,r0
        0x000196c2:    3901        .9      SUBS     r1,#1
        0x000196c4:    eb040980    ....    ADD      r9,r4,r0,LSL #2
        0x000196c8:    6261        ab      STR      r1,[r4,#0x24]
        0x000196ca:    464f        OF      MOV      r7,r9
        0x000196cc:    f8570f28    W.(.    LDR      r0,[r7,#0x28]!
        0x000196d0:    b1a8        ..      CBZ      r0,0x196fe ; am_hal_iom_interrupt_service + 394
        0x000196d2:    2000        .       MOVS     r0,#0
        0x000196d4:    2100        .!      MOVS     r1,#0
        0x000196d6:    f04f0a00    O...    MOV      r10,#0
        0x000196da:    f7fffafd    ....    BL       am_hal_daxi_control ; 0x18cd8
        0x000196de:    683d        =h      LDR      r5,[r7,#0]
        0x000196e0:    f8d99428    ..(.    LDR      r9,[r9,#0x428]
        0x000196e4:    4658        XF      MOV      r0,r11
        0x000196e6:    4631        1F      MOV      r1,r6
        0x000196e8:    f001faaa    ....    BL       internal_iom_get_int_err ; 0x1ac40
        0x000196ec:    4601        .F      MOV      r1,r0
        0x000196ee:    4648        HF      MOV      r0,r9
        0x000196f0:    47a8        .G      BLX      r5
        0x000196f2:    f894082c    ..,.    LDRB     r0,[r4,#0x82c]
        0x000196f6:    2802        .(      CMP      r0,#2
        0x000196f8:    bf18        ..      IT       NE
        0x000196fa:    f8c7a000    ....    STRNE    r10,[r7,#0]
        0x000196fe:    2000        .       MOVS     r0,#0
        0x00019700:    f2c40005    ....    MOVT     r0,#0x4005
        0x00019704:    eb00300b    ...0    ADD      r0,r0,r11,LSL #12
        0x00019708:    f8d01228    ..(.    LDR      r1,[r0,#0x228]
        0x0001970c:    f0210101    !...    BIC      r1,r1,#1
        0x00019710:    f8c01228    ..(.    STR      r1,[r0,#0x228]
        0x00019714:    f8d01218    ....    LDR      r1,[r0,#0x218]
        0x00019718:    f0210101    !...    BIC      r1,r1,#1
        0x0001971c:    f8c01218    ....    STR      r1,[r0,#0x218]
        0x00019720:    2100        .!      MOVS     r1,#0
        0x00019722:    f8c01224    ..$.    STR      r1,[r0,#0x224]
        0x00019726:    4620         F      MOV      r0,r4
        0x00019728:    4641        AF      MOV      r1,r8
        0x0001972a:    f001faa7    ....    BL       internal_iom_reset_on_error ; 0x1ac7c
        0x0001972e:    f8d40828    ..(.    LDR      r0,[r4,#0x828]
        0x00019732:    f7fff933    ..3.    BL       am_hal_cmdq_error_resume ; 0x1899c
        0x00019736:    6a60        `j      LDR      r0,[r4,#0x24]
        0x00019738:    b110        ..      CBZ      r0,0x19740 ; am_hal_iom_interrupt_service + 460
        0x0001973a:    4620         F      MOV      r0,r4
        0x0001973c:    f7fffd88    ....    BL       am_hal_iom_CQEnable ; 0x19250
        0x00019740:    6a60        `j      LDR      r0,[r4,#0x24]
        0x00019742:    b918        ..      CBNZ     r0,0x1974c ; am_hal_iom_interrupt_service + 472
        0x00019744:    f8d40828    ..(.    LDR      r0,[r4,#0x828]
        0x00019748:    f7fff8e4    ....    BL       am_hal_cmdq_disable ; 0x18914
        0x0001974c:    2000        .       MOVS     r0,#0
        0x0001974e:    6a61        aj      LDR      r1,[r4,#0x24]
        0x00019750:    2900        .)      CMP      r1,#0
        0x00019752:    f47faf7a    ..z.    BNE      0x1964a ; am_hal_iom_interrupt_service + 214
        0x00019756:    2100        .!      MOVS     r1,#0
        0x00019758:    f2c40105    ....    MOVT     r1,#0x4005
        0x0001975c:    eb01310b    ...1    ADD      r1,r1,r11,LSL #12
        0x00019760:    2200        ."      MOVS     r2,#0
        0x00019762:    f8c12200    ..."    STR      r2,[r1,#0x200]
        0x00019766:    f04f32ff    O..2    MOV      r2,#0xffffffff
        0x0001976a:    f8c12208    ..."    STR      r2,[r1,#0x208]
        0x0001976e:    6962        bi      LDR      r2,[r4,#0x14]
        0x00019770:    f8c12200    ..."    STR      r2,[r1,#0x200]
        0x00019774:    b005        ..      ADD      sp,sp,#0x14
        0x00019776:    e8bd8ff0    ....    POP      {r4-r11,pc}
        0x0001977a:    bf00        ..      NOP      
        0x0001977c:    0599        ..      LSLS     r1,r3,#22
        0x0001977e:    f2400101    @...    MOVW     r1,#1
        0x00019782:    f6c00100    ....    MOVT     r1,#0x800
        0x00019786:    d408        ..      BMI      0x1979a ; am_hal_iom_interrupt_service + 550
        0x00019788:    06df        ..      LSLS     r7,r3,#27
        0x0001978a:    d405        ..      BMI      0x19798 ; am_hal_iom_interrupt_service + 548
        0x0001978c:    f4134190    ...A    ANDS     r1,r3,#0x4800
        0x00019790:    bf18        ..      IT       NE
        0x00019792:    2101        .!      MOVNE    r1,#1
        0x00019794:    e001        ..      B        0x1979a ; am_hal_iom_interrupt_service + 550
        0x00019796:    bf00        ..      NOP      
        0x00019798:    3101        .1      ADDS     r1,#1
        0x0001979a:    4790        .G      BLX      r2
        0x0001979c:    f8c68000    ....    STR      r8,[r6,#0]
        0x000197a0:    69a0        .i      LDR      r0,[r4,#0x18]
        0x000197a2:    f644217c    D.|!    MOV      r1,#0x4a7c
        0x000197a6:    4208        .B      TST      r0,r1
        0x000197a8:    d00d        ..      BEQ      0x197c6 ; am_hal_iom_interrupt_service + 594
        0x000197aa:    f8d50218    ....    LDR      r0,[r5,#0x218]
        0x000197ae:    f0200001     ...    BIC      r0,r0,#1
        0x000197b2:    f8c50218    ....    STR      r0,[r5,#0x218]
        0x000197b6:    2000        .       MOVS     r0,#0
        0x000197b8:    f8c50224    ..$.    STR      r0,[r5,#0x224]
        0x000197bc:    69a0        .i      LDR      r0,[r4,#0x18]
        0x000197be:    4001        .@      ANDS     r1,r1,r0
        0x000197c0:    4620         F      MOV      r0,r4
        0x000197c2:    f001fa5b    ..[.    BL       internal_iom_reset_on_error ; 0x1ac7c
        0x000197c6:    f8d40840    ..@.    LDR      r0,[r4,#0x840]
        0x000197ca:    b358        X.      CBZ      r0,0x19824 ; am_hal_iom_interrupt_service + 688
        0x000197cc:    2000        .       MOVS     r0,#0
        0x000197ce:    f8c50224    ..$.    STR      r0,[r5,#0x224]
        0x000197d2:    f8d41850    ..P.    LDR      r1,[r4,#0x850]
        0x000197d6:    f8d42848    ..H(    LDR      r2,[r4,#0x848]
        0x000197da:    3101        .1      ADDS     r1,#1
        0x000197dc:    fbb1f3f2    ....    UDIV     r3,r1,r2
        0x000197e0:    f8d47854    ..Tx    LDR      r7,[r4,#0x854]
        0x000197e4:    fb031112    ....    MLS      r1,r3,r2,r1
        0x000197e8:    61a0        .a      STR      r0,[r4,#0x18]
        0x000197ea:    6862        bh      LDR      r2,[r4,#4]
        0x000197ec:    eb071341    ..A.    ADD      r3,r7,r1,LSL #5
        0x000197f0:    0149        I.      LSLS     r1,r1,#5
        0x000197f2:    5879        yX      LDR      r1,[r7,r1]
        0x000197f4:    eb093202    ...2    ADD      r2,r9,r2,LSL #12
        0x000197f8:    f8c21128    ..(.    STR      r1,[r2,#0x128]
        0x000197fc:    6859        Yh      LDR      r1,[r3,#4]
        0x000197fe:    f8c212c4    ....    STR      r1,[r2,#0x2c4]
        0x00019802:    f8c20218    ....    STR      r0,[r2,#0x218]
        0x00019806:    6899        .h      LDR      r1,[r3,#8]
        0x00019808:    f8c2121c    ....    STR      r1,[r2,#0x21c]
        0x0001980c:    68d9        .h      LDR      r1,[r3,#0xc]
        0x0001980e:    f8c21220    .. .    STR      r1,[r2,#0x220]
        0x00019812:    6919        .i      LDR      r1,[r3,#0x10]
        0x00019814:    f8c21218    ....    STR      r1,[r2,#0x218]
        0x00019818:    6959        Yi      LDR      r1,[r3,#0x14]
        0x0001981a:    f8c21120    .. .    STR      r1,[r2,#0x120]
        0x0001981e:    b005        ..      ADD      sp,sp,#0x14
        0x00019820:    e8bd8ff0    ....    POP      {r4-r11,pc}
        0x00019824:    2000        .       MOVS     r0,#0
        0x00019826:    f884083c    ..<.    STRB     r0,[r4,#0x83c]
        0x0001982a:    f8d51200    ....    LDR      r1,[r5,#0x200]
        0x0001982e:    f2404201    @..B    MOV      r2,#0x401
        0x00019832:    4391        .C      BICS     r1,r1,r2
        0x00019834:    f8c51200    ....    STR      r1,[r5,#0x200]
        0x00019838:    f44f0100    O...    MOV      r1,#0x800000
        0x0001983c:    f8c51238    ..8.    STR      r1,[r5,#0x238]
        0x00019840:    b005        ..      ADD      sp,sp,#0x14
        0x00019842:    e8bd8ff0    ....    POP      {r4-r11,pc}
        0x00019846:    0000        ..      MOVS     r0,r0
    am_hal_iom_interrupt_status_get
        0x00019848:    b1e0        ..      CBZ      r0,0x19884 ; am_hal_iom_interrupt_status_get + 60
        0x0001984a:    6803        .h      LDR      r3,[r0,#0]
        0x0001984c:    f0234c7e    #.~L    BIC      r12,r3,#0xfe000000
        0x00019850:    f2434356    C.VC    MOV      r3,#0x3456
        0x00019854:    f2c01312    ....    MOVT     r3,#0x112
        0x00019858:    459c        .E      CMP      r12,r3
        0x0001985a:    d113        ..      BNE      0x19884 ; am_hal_iom_interrupt_status_get + 60
        0x0001985c:    2a00        .*      CMP      r2,#0
        0x0001985e:    bf04        ..      ITT      EQ
        0x00019860:    2006        .       MOVEQ    r0,#6
        0x00019862:    4770        pG      BXEQ     lr
        0x00019864:    6840        @h      LDR      r0,[r0,#4]
        0x00019866:    2300        .#      MOVS     r3,#0
        0x00019868:    f2c40305    ....    MOVT     r3,#0x4005
        0x0001986c:    eb033300    ...3    ADD      r3,r3,r0,LSL #12
        0x00019870:    f8d30204    ....    LDR      r0,[r3,#0x204]
        0x00019874:    2900        .)      CMP      r1,#0
        0x00019876:    bf1c        ..      ITT      NE
        0x00019878:    f8d31200    ....    LDRNE    r1,[r3,#0x200]
        0x0001987c:    4008        .@      ANDNE    r0,r0,r1
        0x0001987e:    6010        .`      STR      r0,[r2,#0]
        0x00019880:    2000        .       MOVS     r0,#0
        0x00019882:    4770        pG      BX       lr
        0x00019884:    2002        .       MOVS     r0,#2
        0x00019886:    4770        pG      BX       lr
    am_hal_iom_nonblocking_transfer
        0x00019888:    e92d47f0    -..G    PUSH     {r4-r10,lr}
        0x0001988c:    b3d0        ..      CBZ      r0,0x19904 ; am_hal_iom_nonblocking_transfer + 124
        0x0001988e:    4604        .F      MOV      r4,r0
        0x00019890:    6800        .h      LDR      r0,[r0,#0]
        0x00019892:    4692        .F      MOV      r10,r2
        0x00019894:    f2434256    C.VB    MOV      r2,#0x3456
        0x00019898:    f020407e     .~@    BIC      r0,r0,#0xfe000000
        0x0001989c:    f2c01212    ....    MOVT     r2,#0x112
        0x000198a0:    4290        .B      CMP      r0,r2
        0x000198a2:    d12f        /.      BNE      0x19904 ; am_hal_iom_nonblocking_transfer + 124
        0x000198a4:    b351        Q.      CBZ      r1,0x198fc ; am_hal_iom_nonblocking_transfer + 116
        0x000198a6:    7d0a        .}      LDRB     r2,[r1,#0x14]
        0x000198a8:    2a01        .*      CMP      r2,#1
        0x000198aa:    bf84        ..      ITT      HI
        0x000198ac:    2007        .       MOVHI    r0,#7
        0x000198ae:    e8bd87f0    ....    POPHI    {r4-r10,pc}
        0x000198b2:    f8d1c010    ....    LDR      r12,[r1,#0x10]
        0x000198b6:    f1bc0f00    ....    CMP      r12,#0
        0x000198ba:    bf04        ..      ITT      EQ
        0x000198bc:    2200        ."      MOVEQ    r2,#0
        0x000198be:    750a        .u      STRBEQ   r2,[r1,#0x14]
        0x000198c0:    684f        Oh      LDR      r7,[r1,#4]
        0x000198c2:    2f05        ./      CMP      r7,#5
        0x000198c4:    d81a        ..      BHI      0x198fc ; am_hal_iom_nonblocking_transfer + 116
        0x000198c6:    e9d1e002    ....    LDRD     lr,r0,[r1,#8]
        0x000198ca:    2620         &      MOVS     r6,#0x20
        0x000198cc:    ea4f08c7    O...    LSL      r8,r7,#3
        0x000198d0:    eba606c7    ....    SUB      r6,r6,r7,LSL #3
        0x000198d4:    fa00f906    ....    LSL      r9,r0,r6
        0x000198d8:    fa2ef608    ....    LSR      r6,lr,r8
        0x000198dc:    f06f051f    o...    MVN      r5,#0x1f
        0x000198e0:    ea460609    F...    ORR      r6,r6,r9
        0x000198e4:    eb0507c7    ....    ADD      r7,r5,r7,LSL #3
        0x000198e8:    2f00        ./      CMP      r7,#0
        0x000198ea:    bf58        X.      IT       PL
        0x000198ec:    fa20f607     ...    LSRPL    r6,r0,r7
        0x000198f0:    fa20f008     ...    LSR      r0,r0,r8
        0x000198f4:    bf58        X.      IT       PL
        0x000198f6:    2000        .       MOVPL    r0,#0
        0x000198f8:    4330        0C      ORRS     r0,r0,r6
        0x000198fa:    d007        ..      BEQ      0x1990c ; am_hal_iom_nonblocking_transfer + 132
        0x000198fc:    2006        .       MOVS     r0,#6
        0x000198fe:    e8bd87f0    ....    POP      {r4-r10,pc}
        0x00019902:    bf00        ..      NOP      
        0x00019904:    2002        .       MOVS     r0,#2
        0x00019906:    e8bd87f0    ....    POP      {r4-r10,pc}
        0x0001990a:    bf00        ..      NOP      
        0x0001990c:    f1bc0f00    ....    CMP      r12,#0
        0x00019910:    bf18        ..      IT       NE
        0x00019912:    2a00        .*      CMPNE    r2,#0
        0x00019914:    d108        ..      BNE      0x19928 ; am_hal_iom_nonblocking_transfer + 160
        0x00019916:    f1bc0f00    ....    CMP      r12,#0
        0x0001991a:    bf18        ..      IT       NE
        0x0001991c:    2a01        .*      CMPNE    r2,#1
        0x0001991e:    d006        ..      BEQ      0x1992e ; am_hal_iom_nonblocking_transfer + 166
        0x00019920:    6988        .i      LDR      r0,[r1,#0x18]
        0x00019922:    b920         .      CBNZ     r0,0x1992e ; am_hal_iom_nonblocking_transfer + 166
        0x00019924:    e7ea        ..      B        0x198fc ; am_hal_iom_nonblocking_transfer + 116
        0x00019926:    bf00        ..      NOP      
        0x00019928:    69c8        .i      LDR      r0,[r1,#0x1c]
        0x0001992a:    2800        .(      CMP      r0,#0
        0x0001992c:    d0e6        ..      BEQ      0x198fc ; am_hal_iom_nonblocking_transfer + 116
        0x0001992e:    7a22        "z      LDRB     r2,[r4,#8]
        0x00019930:    b152        R.      CBZ      r2,0x19948 ; am_hal_iom_nonblocking_transfer + 192
        0x00019932:    2a01        .*      CMP      r2,#1
        0x00019934:    d112        ..      BNE      0x1995c ; am_hal_iom_nonblocking_transfer + 212
        0x00019936:    2000        .       MOVS     r0,#0
        0x00019938:    ebb03f1c    ...?    CMP      r0,r12,LSR #12
        0x0001993c:    bf1c        ..      ITT      NE
        0x0001993e:    2006        .       MOVNE    r0,#6
        0x00019940:    e8bd87f0    ....    POPNE    {r4-r10,pc}
        0x00019944:    e00a        ..      B        0x1995c ; am_hal_iom_nonblocking_transfer + 212
        0x00019946:    bf00        ..      NOP      
        0x00019948:    6808        .h      LDR      r0,[r1,#0]
        0x0001994a:    2606        .&      MOVS     r6,#6
        0x0001994c:    2804        .(      CMP      r0,#4
        0x0001994e:    f2008093    ....    BHI.W    0x19a78 ; am_hal_iom_nonblocking_transfer + 496
        0x00019952:    2000        .       MOVS     r0,#0
        0x00019954:    ebb03f1c    ...?    CMP      r0,r12,LSR #12
        0x00019958:    f040808e    @...    BNE.W    0x19a78 ; am_hal_iom_nonblocking_transfer + 496
        0x0001995c:    6a48        Hj      LDR      r0,[r1,#0x24]
        0x0001995e:    f0100fe0    ....    TST      r0,#0xe0
        0x00019962:    d1cb        ..      BNE      0x198fc ; am_hal_iom_nonblocking_transfer + 116
        0x00019964:    6a8a        .j      LDR      r2,[r1,#0x28]
        0x00019966:    f24e07e0    N...    MOV      r7,#0xe0e0
        0x0001996a:    f2c007e0    ....    MOVT     r7,#0xe0
        0x0001996e:    423a        :B      TST      r2,r7
        0x00019970:    d1c4        ..      BNE      0x198fc ; am_hal_iom_nonblocking_transfer + 116
        0x00019972:    f8d42828    ..((    LDR      r2,[r4,#0x828]
        0x00019976:    b11a        ..      CBZ      r2,0x19980 ; am_hal_iom_nonblocking_transfer + 248
        0x00019978:    f894282c    ..,(    LDRB     r2,[r4,#0x82c]
        0x0001997c:    2a02        .*      CMP      r2,#2
        0x0001997e:    d103        ..      BNE      0x19988 ; am_hal_iom_nonblocking_transfer + 256
        0x00019980:    2007        .       MOVS     r0,#7
        0x00019982:    e8bd87f0    ....    POP      {r4-r10,pc}
        0x00019986:    bf00        ..      NOP      
        0x00019988:    f8d47838    ..8x    LDR      r7,[r4,#0x838]
        0x0001998c:    b147        G.      CBZ      r7,0x199a0 ; am_hal_iom_nonblocking_transfer + 280
        0x0001998e:    2800        .(      CMP      r0,#0
        0x00019990:    bf1c        ..      ITT      NE
        0x00019992:    2007        .       MOVNE    r0,#7
        0x00019994:    e8bd87f0    ....    POPNE    {r4-r10,pc}
        0x00019998:    fabaf08a    ....    CLZ      r0,r10
        0x0001999c:    0947        G.      LSRS     r7,r0,#5
        0x0001999e:    e017        ..      B        0x199d0 ; am_hal_iom_nonblocking_transfer + 328
        0x000199a0:    f1ba0f00    ....    CMP      r10,#0
        0x000199a4:    d002        ..      BEQ      0x199ac ; am_hal_iom_nonblocking_transfer + 292
        0x000199a6:    2700        .'      MOVS     r7,#0
        0x000199a8:    e012        ..      B        0x199d0 ; am_hal_iom_nonblocking_transfer + 328
        0x000199aa:    bf00        ..      NOP      
        0x000199ac:    b112        ..      CBZ      r2,0x199b4 ; am_hal_iom_nonblocking_transfer + 300
        0x000199ae:    f04f0a00    O...    MOV      r10,#0
        0x000199b2:    e00c        ..      B        0x199ce ; am_hal_iom_nonblocking_transfer + 326
        0x000199b4:    f8d40858    ..X.    LDR      r0,[r4,#0x858]
        0x000199b8:    f8d4285c    ..\(    LDR      r2,[r4,#0x85c]
        0x000199bc:    f24b2aad    K..*    MOV      r10,#0xb2ad
        0x000199c0:    f2c00a01    ....    MOVT     r10,#1
        0x000199c4:    ebb20f50    ..P.    CMP      r2,r0,LSR #1
        0x000199c8:    bf38        8.      IT       CC
        0x000199ca:    f04f0a00    O...    MOVCC    r10,#0
        0x000199ce:    2701        .'      MOVS     r7,#1
        0x000199d0:    4620         F      MOV      r0,r4
        0x000199d2:    4652        RF      MOV      r2,r10
        0x000199d4:    f7fffb8c    ....    BL       am_hal_iom_CQAddTransaction ; 0x190f0
        0x000199d8:    4606        .F      MOV      r6,r0
        0x000199da:    2800        .(      CMP      r0,#0
        0x000199dc:    d14c        L.      BNE      0x19a78 ; am_hal_iom_nonblocking_transfer + 496
        0x000199de:    f7fffb7b    ..{.    BL       am_hal_interrupt_master_disable ; 0x190d8
        0x000199e2:    4680        .F      MOV      r8,r0
        0x000199e4:    f8d40828    ..(.    LDR      r0,[r4,#0x828]
        0x000199e8:    4651        QF      MOV      r1,r10
        0x000199ea:    f1ba0f00    ....    CMP      r10,#0
        0x000199ee:    bf18        ..      IT       NE
        0x000199f0:    2101        .!      MOVNE    r1,#1
        0x000199f2:    f7fff8cf    ....    BL       am_hal_cmdq_post_block ; 0x18b94
        0x000199f6:    4606        .F      MOV      r6,r0
        0x000199f8:    b120         .      CBZ      r0,0x19a04 ; am_hal_iom_nonblocking_transfer + 380
        0x000199fa:    f8d40828    ..(.    LDR      r0,[r4,#0x828]
        0x000199fe:    f7fff8fd    ....    BL       am_hal_cmdq_release_block ; 0x18bfc
        0x00019a02:    e036        6.      B        0x19a72 ; am_hal_iom_nonblocking_transfer + 490
        0x00019a04:    6a60        `j      LDR      r0,[r4,#0x24]
        0x00019a06:    f1000101    ....    ADD      r1,r0,#1
        0x00019a0a:    6261        ab      STR      r1,[r4,#0x24]
        0x00019a0c:    f8d41830    ..0.    LDR      r1,[r4,#0x830]
        0x00019a10:    f1010101    ....    ADD      r1,r1,#1
        0x00019a14:    f8c41830    ..0.    STR      r1,[r4,#0x830]
        0x00019a18:    b127        '.      CBZ      r7,0x19a24 ; am_hal_iom_nonblocking_transfer + 412
        0x00019a1a:    f1ba0f00    ....    CMP      r10,#0
        0x00019a1e:    d005        ..      BEQ      0x19a2c ; am_hal_iom_nonblocking_transfer + 420
        0x00019a20:    2100        .!      MOVS     r1,#0
        0x00019a22:    e006        ..      B        0x19a32 ; am_hal_iom_nonblocking_transfer + 426
        0x00019a24:    2100        .!      MOVS     r1,#0
        0x00019a26:    f884182d    ..-.    STRB     r1,[r4,#0x82d]
        0x00019a2a:    e002        ..      B        0x19a32 ; am_hal_iom_nonblocking_transfer + 426
        0x00019a2c:    f8d4185c    ..\.    LDR      r1,[r4,#0x85c]
        0x00019a30:    3101        .1      ADDS     r1,#1
        0x00019a32:    f8c4185c    ..\.    STR      r1,[r4,#0x85c]
        0x00019a36:    b9e0        ..      CBNZ     r0,0x19a72 ; am_hal_iom_nonblocking_transfer + 490
        0x00019a38:    6860        `h      LDR      r0,[r4,#4]
        0x00019a3a:    2100        .!      MOVS     r1,#0
        0x00019a3c:    f2c40105    ....    MOVT     r1,#0x4005
        0x00019a40:    eb013000    ...0    ADD      r0,r1,r0,LSL #12
        0x00019a44:    f8d02200    ..."    LDR      r2,[r0,#0x200]
        0x00019a48:    6162        ba      STR      r2,[r4,#0x14]
        0x00019a4a:    2200        ."      MOVS     r2,#0
        0x00019a4c:    f8c02200    ..."    STR      r2,[r0,#0x200]
        0x00019a50:    6860        `h      LDR      r0,[r4,#4]
        0x00019a52:    f04f32ff    O..2    MOV      r2,#0xffffffff
        0x00019a56:    eb013000    ...0    ADD      r0,r1,r0,LSL #12
        0x00019a5a:    f8c02208    ..."    STR      r2,[r0,#0x208]
        0x00019a5e:    6860        `h      LDR      r0,[r4,#4]
        0x00019a60:    eb013000    ...0    ADD      r0,r1,r0,LSL #12
        0x00019a64:    f646217c    F.|!    MOV      r1,#0x6a7c
        0x00019a68:    f8c01200    ....    STR      r1,[r0,#0x200]
        0x00019a6c:    4620         F      MOV      r0,r4
        0x00019a6e:    f7fffbef    ....    BL       am_hal_iom_CQEnable ; 0x19250
        0x00019a72:    4640        @F      MOV      r0,r8
        0x00019a74:    f7fffb38    ..8.    BL       am_hal_interrupt_master_set ; 0x190e8
        0x00019a78:    4630        0F      MOV      r0,r6
        0x00019a7a:    e8bd87f0    ....    POP      {r4-r10,pc}
        0x00019a7e:    0000        ..      MOVS     r0,r0
    am_hal_iom_power_ctrl
        0x00019a80:    b5b0        ..      PUSH     {r4,r5,r7,lr}
        0x00019a82:    2800        .(      CMP      r0,#0
        0x00019a84:    d070        p.      BEQ      0x19b68 ; am_hal_iom_power_ctrl + 232
        0x00019a86:    4604        .F      MOV      r4,r0
        0x00019a88:    6800        .h      LDR      r0,[r0,#0]
        0x00019a8a:    f2434556    C.VE    MOV      r5,#0x3456
        0x00019a8e:    f020437e     .~C    BIC      r3,r0,#0xfe000000
        0x00019a92:    f2c01512    ....    MOVT     r5,#0x112
        0x00019a96:    42ab        .B      CMP      r3,r5
        0x00019a98:    d166        f.      BNE      0x19b68 ; am_hal_iom_power_ctrl + 232
        0x00019a9a:    1e4b        K.      SUBS     r3,r1,#1
        0x00019a9c:    2b02        .+      CMP      r3,#2
        0x00019a9e:    d265        e.      BCS      0x19b6c ; am_hal_iom_power_ctrl + 236
        0x00019aa0:    2500        .%      MOVS     r5,#0
        0x00019aa2:    0180        ..      LSLS     r0,r0,#6
        0x00019aa4:    f2c40505    ....    MOVT     r5,#0x4005
        0x00019aa8:    f10080dc    ....    BMI.W    0x19c64 ; am_hal_iom_power_ctrl + 484
        0x00019aac:    2a00        .*      CMP      r2,#0
        0x00019aae:    d041        A.      BEQ      0x19b34 ; am_hal_iom_power_ctrl + 180
        0x00019ab0:    6860        `h      LDR      r0,[r4,#4]
        0x00019ab2:    eb053000    ...0    ADD      r0,r5,r0,LSL #12
        0x00019ab6:    f8d01104    ....    LDR      r1,[r0,#0x104]
        0x00019aba:    f8c4186c    ..l.    STR      r1,[r4,#0x86c]
        0x00019abe:    f8d01118    ....    LDR      r1,[r0,#0x118]
        0x00019ac2:    f8c41874    ..t.    STR      r1,[r4,#0x874]
        0x00019ac6:    f8d0111c    ....    LDR      r1,[r0,#0x11c]
        0x00019aca:    f8c41878    ..x.    STR      r1,[r4,#0x878]
        0x00019ace:    f8d01228    ..(.    LDR      r1,[r0,#0x228]
        0x00019ad2:    f8c4187c    ..|.    STR      r1,[r4,#0x87c]
        0x00019ad6:    f8d0122c    ..,.    LDR      r1,[r0,#0x22c]
        0x00019ada:    f8c41880    ....    STR      r1,[r4,#0x880]
        0x00019ade:    f8d01234    ..4.    LDR      r1,[r0,#0x234]
        0x00019ae2:    f8c41884    ....    STR      r1,[r4,#0x884]
        0x00019ae6:    f8d0123c    ..<.    LDR      r1,[r0,#0x23c]
        0x00019aea:    f8c41888    ....    STR      r1,[r4,#0x888]
        0x00019aee:    f8d01240    ..@.    LDR      r1,[r0,#0x240]
        0x00019af2:    f8c4188c    ....    STR      r1,[r4,#0x88c]
        0x00019af6:    f8d01244    ..D.    LDR      r1,[r0,#0x244]
        0x00019afa:    f8c41890    ....    STR      r1,[r4,#0x890]
        0x00019afe:    f8d01280    ....    LDR      r1,[r0,#0x280]
        0x00019b02:    f8c41894    ....    STR      r1,[r4,#0x894]
        0x00019b06:    f8d012c0    ....    LDR      r1,[r0,#0x2c0]
        0x00019b0a:    f8c41898    ....    STR      r1,[r4,#0x898]
        0x00019b0e:    f8d01200    ....    LDR      r1,[r0,#0x200]
        0x00019b12:    f8c4189c    ....    STR      r1,[r4,#0x89c]
        0x00019b16:    f8d01210    ....    LDR      r1,[r0,#0x210]
        0x00019b1a:    f8c41870    ..p.    STR      r1,[r4,#0x870]
        0x00019b1e:    f8d00228    ..(.    LDR      r0,[r0,#0x228]
        0x00019b22:    07c0        ..      LSLS     r0,r0,#31
        0x00019b24:    d003        ..      BEQ      0x19b2e ; am_hal_iom_power_ctrl + 174
        0x00019b26:    f8d40828    ..(.    LDR      r0,[r4,#0x828]
        0x00019b2a:    f7fefef3    ....    BL       am_hal_cmdq_disable ; 0x18914
        0x00019b2e:    2001        .       MOVS     r0,#1
        0x00019b30:    f8840868    ..h.    STRB     r0,[r4,#0x868]
        0x00019b34:    6860        `h      LDR      r0,[r4,#4]
        0x00019b36:    eb053000    ...0    ADD      r0,r5,r0,LSL #12
        0x00019b3a:    f8d0111c    ....    LDR      r1,[r0,#0x11c]
        0x00019b3e:    f0210101    !...    BIC      r1,r1,#1
        0x00019b42:    f8c0111c    ....    STR      r1,[r0,#0x11c]
        0x00019b46:    6860        `h      LDR      r0,[r4,#4]
        0x00019b48:    eb053000    ...0    ADD      r0,r5,r0,LSL #12
        0x00019b4c:    f8d0111c    ....    LDR      r1,[r0,#0x11c]
        0x00019b50:    f0210110    !...    BIC      r1,r1,#0x10
        0x00019b54:    f8c0111c    ....    STR      r1,[r0,#0x11c]
        0x00019b58:    7920         y      LDRB     r0,[r4,#4]
        0x00019b5a:    3001        .0      ADDS     r0,#1
        0x00019b5c:    b2c0        ..      UXTB     r0,r0
        0x00019b5e:    f000fb3f    ..?.    BL       am_hal_pwrctrl_periph_disable ; 0x1a1e0
        0x00019b62:    2000        .       MOVS     r0,#0
        0x00019b64:    bdb0        ..      POP      {r4,r5,r7,pc}
        0x00019b66:    bf00        ..      NOP      
        0x00019b68:    2002        .       MOVS     r0,#2
        0x00019b6a:    bdb0        ..      POP      {r4,r5,r7,pc}
        0x00019b6c:    2900        .)      CMP      r1,#0
        0x00019b6e:    bf1c        ..      ITT      NE
        0x00019b70:    2006        .       MOVNE    r0,#6
        0x00019b72:    bdb0        ..      POPNE    {r4,r5,r7,pc}
        0x00019b74:    2a00        .*      CMP      r2,#0
        0x00019b76:    f0008085    ....    BEQ.W    0x19c84 ; am_hal_iom_power_ctrl + 516
        0x00019b7a:    f8940868    ..h.    LDRB     r0,[r4,#0x868]
        0x00019b7e:    2800        .(      CMP      r0,#0
        0x00019b80:    f0008088    ....    BEQ.W    0x19c94 ; am_hal_iom_power_ctrl + 532
        0x00019b84:    7920         y      LDRB     r0,[r4,#4]
        0x00019b86:    3001        .0      ADDS     r0,#1
        0x00019b88:    b2c0        ..      UXTB     r0,r0
        0x00019b8a:    f000fbc1    ....    BL       am_hal_pwrctrl_periph_enable ; 0x1a310
        0x00019b8e:    6862        bh      LDR      r2,[r4,#4]
        0x00019b90:    2000        .       MOVS     r0,#0
        0x00019b92:    f8d4186c    ..l.    LDR      r1,[r4,#0x86c]
        0x00019b96:    f2c40005    ....    MOVT     r0,#0x4005
        0x00019b9a:    eb003202    ...2    ADD      r2,r0,r2,LSL #12
        0x00019b9e:    f8c21104    ....    STR      r1,[r2,#0x104]
        0x00019ba2:    6861        ah      LDR      r1,[r4,#4]
        0x00019ba4:    f8d42874    ..t(    LDR      r2,[r4,#0x874]
        0x00019ba8:    eb003101    ...1    ADD      r1,r0,r1,LSL #12
        0x00019bac:    f8c12118    ...!    STR      r2,[r1,#0x118]
        0x00019bb0:    6861        ah      LDR      r1,[r4,#4]
        0x00019bb2:    f8d42880    ...(    LDR      r2,[r4,#0x880]
        0x00019bb6:    eb003101    ...1    ADD      r1,r0,r1,LSL #12
        0x00019bba:    f8c1222c    ..,"    STR      r2,[r1,#0x22c]
        0x00019bbe:    6861        ah      LDR      r1,[r4,#4]
        0x00019bc0:    f8d42884    ...(    LDR      r2,[r4,#0x884]
        0x00019bc4:    eb003101    ...1    ADD      r1,r0,r1,LSL #12
        0x00019bc8:    f8c12234    ..4"    STR      r2,[r1,#0x234]
        0x00019bcc:    6861        ah      LDR      r1,[r4,#4]
        0x00019bce:    f8d42888    ...(    LDR      r2,[r4,#0x888]
        0x00019bd2:    eb003101    ...1    ADD      r1,r0,r1,LSL #12
        0x00019bd6:    f8c1223c    ..<"    STR      r2,[r1,#0x23c]
        0x00019bda:    6861        ah      LDR      r1,[r4,#4]
        0x00019bdc:    f8d4288c    ...(    LDR      r2,[r4,#0x88c]
        0x00019be0:    eb003101    ...1    ADD      r1,r0,r1,LSL #12
        0x00019be4:    f8c12240    ..@"    STR      r2,[r1,#0x240]
        0x00019be8:    6861        ah      LDR      r1,[r4,#4]
        0x00019bea:    f8d42890    ...(    LDR      r2,[r4,#0x890]
        0x00019bee:    eb003101    ...1    ADD      r1,r0,r1,LSL #12
        0x00019bf2:    f8c12244    ..D"    STR      r2,[r1,#0x244]
        0x00019bf6:    6861        ah      LDR      r1,[r4,#4]
        0x00019bf8:    f8d42894    ...(    LDR      r2,[r4,#0x894]
        0x00019bfc:    eb003101    ...1    ADD      r1,r0,r1,LSL #12
        0x00019c00:    f8c12280    ..."    STR      r2,[r1,#0x280]
        0x00019c04:    6861        ah      LDR      r1,[r4,#4]
        0x00019c06:    f8d42898    ...(    LDR      r2,[r4,#0x898]
        0x00019c0a:    eb003101    ...1    ADD      r1,r0,r1,LSL #12
        0x00019c0e:    f8c122c0    ..."    STR      r2,[r1,#0x2c0]
        0x00019c12:    6861        ah      LDR      r1,[r4,#4]
        0x00019c14:    f8d4289c    ...(    LDR      r2,[r4,#0x89c]
        0x00019c18:    eb003101    ...1    ADD      r1,r0,r1,LSL #12
        0x00019c1c:    f8c12200    ..."    STR      r2,[r1,#0x200]
        0x00019c20:    6861        ah      LDR      r1,[r4,#4]
        0x00019c22:    f8d42870    ..p(    LDR      r2,[r4,#0x870]
        0x00019c26:    eb003101    ...1    ADD      r1,r0,r1,LSL #12
        0x00019c2a:    f8c12210    ..."    STR      r2,[r1,#0x210]
        0x00019c2e:    f8d4187c    ..|.    LDR      r1,[r4,#0x87c]
        0x00019c32:    6862        bh      LDR      r2,[r4,#4]
        0x00019c34:    f0210101    !...    BIC      r1,r1,#1
        0x00019c38:    eb003202    ...2    ADD      r2,r0,r2,LSL #12
        0x00019c3c:    f8c21228    ..(.    STR      r1,[r2,#0x228]
        0x00019c40:    6861        ah      LDR      r1,[r4,#4]
        0x00019c42:    f8d42878    ..x(    LDR      r2,[r4,#0x878]
        0x00019c46:    eb003001    ...0    ADD      r0,r0,r1,LSL #12
        0x00019c4a:    f8c0211c    ...!    STR      r2,[r0,#0x11c]
        0x00019c4e:    f894087c    ..|.    LDRB     r0,[r4,#0x87c]
        0x00019c52:    07c0        ..      LSLS     r0,r0,#31
        0x00019c54:    d002        ..      BEQ      0x19c5c ; am_hal_iom_power_ctrl + 476
        0x00019c56:    4620         F      MOV      r0,r4
        0x00019c58:    f7fffafa    ....    BL       am_hal_iom_CQEnable ; 0x19250
        0x00019c5c:    2000        .       MOVS     r0,#0
        0x00019c5e:    f8840868    ..h.    STRB     r0,[r4,#0x868]
        0x00019c62:    bdb0        ..      POP      {r4,r5,r7,pc}
        0x00019c64:    6860        `h      LDR      r0,[r4,#4]
        0x00019c66:    eb053000    ...0    ADD      r0,r5,r0,LSL #12
        0x00019c6a:    f8d00248    ..H.    LDR      r0,[r0,#0x248]
        0x00019c6e:    f0000006    ....    AND      r0,r0,#6
        0x00019c72:    2804        .(      CMP      r0,#4
        0x00019c74:    d103        ..      BNE      0x19c7e ; am_hal_iom_power_ctrl + 510
        0x00019c76:    6a60        `j      LDR      r0,[r4,#0x24]
        0x00019c78:    2800        .(      CMP      r0,#0
        0x00019c7a:    f43faf17    ?...    BEQ      0x19aac ; am_hal_iom_power_ctrl + 44
        0x00019c7e:    2003        .       MOVS     r0,#3
        0x00019c80:    bdb0        ..      POP      {r4,r5,r7,pc}
        0x00019c82:    bf00        ..      NOP      
        0x00019c84:    7920         y      LDRB     r0,[r4,#4]
        0x00019c86:    3001        .0      ADDS     r0,#1
        0x00019c88:    b2c0        ..      UXTB     r0,r0
        0x00019c8a:    f000fb41    ..A.    BL       am_hal_pwrctrl_periph_enable ; 0x1a310
        0x00019c8e:    2000        .       MOVS     r0,#0
        0x00019c90:    bdb0        ..      POP      {r4,r5,r7,pc}
        0x00019c92:    bf00        ..      NOP      
        0x00019c94:    2007        .       MOVS     r0,#7
        0x00019c96:    bdb0        ..      POP      {r4,r5,r7,pc}
    am_hal_mram_info_read
        0x00019c98:    b580        ..      PUSH     {r7,lr}
        0x00019c9a:    2801        .(      CMP      r0,#1
        0x00019c9c:    d010        ..      BEQ      0x19cc0 ; am_hal_mram_info_read + 40
        0x00019c9e:    2800        .(      CMP      r0,#0
        0x00019ca0:    d14c        L.      BNE      0x19d3c ; am_hal_mram_info_read + 164
        0x00019ca2:    2000        .       MOVS     r0,#0
        0x00019ca4:    ebb02f51    ..Q/    CMP      r0,r1,LSR #9
        0x00019ca8:    f04f0002    O...    MOV      r0,#2
        0x00019cac:    d14b        K.      BNE      0x19d46 ; am_hal_mram_info_read + 174
        0x00019cae:    eb020c01    ....    ADD      r12,r2,r1
        0x00019cb2:    f5bc7f00    ....    CMP      r12,#0x200
        0x00019cb6:    d846        F.      BHI      0x19d46 ; am_hal_mram_info_read + 174
        0x00019cb8:    f04f4084    O..@    MOV      r0,#0x42000000
        0x00019cbc:    b992        ..      CBNZ     r2,0x19ce4 ; am_hal_mram_info_read + 76
        0x00019cbe:    e03a        :.      B        0x19d36 ; am_hal_mram_info_read + 158
        0x00019cc0:    f5a160c0    ...`    SUB      r0,r1,#0x600
        0x00019cc4:    f5107fc0    ....    CMN      r0,#0x180
        0x00019cc8:    f04f0002    O...    MOV      r0,#2
        0x00019ccc:    d33b        ;.      BCC      0x19d46 ; am_hal_mram_info_read + 174
        0x00019cce:    eb020c01    ....    ADD      r12,r2,r1
        0x00019cd2:    f5bc6fc0    ...o    CMP      r12,#0x600
        0x00019cd6:    bf88        ..      IT       HI
        0x00019cd8:    bd80        ..      POPHI    {r7,pc}
        0x00019cda:    f2420000    B...    MOVW     r0,#0x2000
        0x00019cde:    f2c42000    ...     MOVT     r0,#0x4200
        0x00019ce2:    b342        B.      CBZ      r2,0x19d36 ; am_hal_mram_info_read + 158
        0x00019ce4:    eb000181    ....    ADD      r1,r0,r1,LSL #2
        0x00019ce8:    1e50        P.      SUBS     r0,r2,#1
        0x00019cea:    2803        .(      CMP      r0,#3
        0x00019cec:    f0020c03    ....    AND      r12,r2,#3
        0x00019cf0:    d314        ..      BCC      0x19d1c ; am_hal_mram_info_read + 132
        0x00019cf2:    f0220203    "...    BIC      r2,r2,#3
        0x00019cf6:    bf00        ..      NOP      
        0x00019cf8:    6808        .h      LDR      r0,[r1,#0]
        0x00019cfa:    f1010e10    ....    ADD      lr,r1,#0x10
        0x00019cfe:    6018        .`      STR      r0,[r3,#0]
        0x00019d00:    6848        Hh      LDR      r0,[r1,#4]
        0x00019d02:    3a04        .:      SUBS     r2,#4
        0x00019d04:    6058        X`      STR      r0,[r3,#4]
        0x00019d06:    6888        .h      LDR      r0,[r1,#8]
        0x00019d08:    6098        .`      STR      r0,[r3,#8]
        0x00019d0a:    68c9        .h      LDR      r1,[r1,#0xc]
        0x00019d0c:    f1030010    ....    ADD      r0,r3,#0x10
        0x00019d10:    60d9        .`      STR      r1,[r3,#0xc]
        0x00019d12:    4671        qF      MOV      r1,lr
        0x00019d14:    4603        .F      MOV      r3,r0
        0x00019d16:    d1ef        ..      BNE      0x19cf8 ; am_hal_mram_info_read + 96
        0x00019d18:    4671        qF      MOV      r1,lr
        0x00019d1a:    4603        .F      MOV      r3,r0
        0x00019d1c:    f1bc0f00    ....    CMP      r12,#0
        0x00019d20:    d009        ..      BEQ      0x19d36 ; am_hal_mram_info_read + 158
        0x00019d22:    6808        .h      LDR      r0,[r1,#0]
        0x00019d24:    f1bc0f01    ....    CMP      r12,#1
        0x00019d28:    6018        .`      STR      r0,[r3,#0]
        0x00019d2a:    d004        ..      BEQ      0x19d36 ; am_hal_mram_info_read + 158
        0x00019d2c:    6848        Hh      LDR      r0,[r1,#4]
        0x00019d2e:    f1bc0f02    ....    CMP      r12,#2
        0x00019d32:    6058        X`      STR      r0,[r3,#4]
        0x00019d34:    d104        ..      BNE      0x19d40 ; am_hal_mram_info_read + 168
        0x00019d36:    2000        .       MOVS     r0,#0
        0x00019d38:    bd80        ..      POP      {r7,pc}
        0x00019d3a:    bf00        ..      NOP      
        0x00019d3c:    2001        .       MOVS     r0,#1
        0x00019d3e:    bd80        ..      POP      {r7,pc}
        0x00019d40:    6888        .h      LDR      r0,[r1,#8]
        0x00019d42:    6098        .`      STR      r0,[r3,#8]
        0x00019d44:    2000        .       MOVS     r0,#0
        0x00019d46:    bd80        ..      POP      {r7,pc}
    am_hal_pwrctrl_control
        0x00019d48:    b5b0        ..      PUSH     {r4,r5,r7,lr}
        0x00019d4a:    2804        .(      CMP      r0,#4
        0x00019d4c:    d84d        M.      BHI      0x19dea ; am_hal_pwrctrl_control + 162
        0x00019d4e:    e8dff000    ....    TBB      [pc,r0]
    $d.22
        0x00019d52:    1d03        ..      DCW    7427
        0x00019d54:    00453d2d    -=E.    DCD    4537645
    $t.23
        0x00019d58:    f2400400    @...    MOVW     r4,#0
        0x00019d5c:    f2c10400    ....    MOVT     r4,#0x1000
        0x00019d60:    6820         h      LDR      r0,[r4,#0]
        0x00019d62:    2560        `%      MOVS     r5,#0x60
        0x00019d64:    1c41        A.      ADDS     r1,r0,#1
        0x00019d66:    f2c40502    ....    MOVT     r5,#0x4002
        0x00019d6a:    d10a        ..      BNE      0x19d82 ; am_hal_pwrctrl_control + 58
        0x00019d6c:    2001        .       MOVS     r0,#1
        0x00019d6e:    f24041c4    @..A    MOV      r1,#0x4c4
        0x00019d72:    2201        ."      MOVS     r2,#1
        0x00019d74:    4623        #F      MOV      r3,r4
        0x00019d76:    f7ffff8f    ....    BL       am_hal_mram_info_read ; 0x19c98
        0x00019d7a:    bbc8        ..      CBNZ     r0,0x19df0 ; am_hal_pwrctrl_control + 168
        0x00019d7c:    6820         h      LDR      r0,[r4,#0]
        0x00019d7e:    1c41        A.      ADDS     r1,r0,#1
        0x00019d80:    d036        6.      BEQ      0x19df0 ; am_hal_pwrctrl_control + 168
        0x00019d82:    2802        .(      CMP      r0,#2
        0x00019d84:    d936        6.      BLS      0x19df4 ; am_hal_pwrctrl_control + 172
        0x00019d86:    2100        .!      MOVS     r1,#0
        0x00019d88:    e067        g.      B        0x19e5a ; am_hal_pwrctrl_control + 274
        0x00019d8a:    bf00        ..      NOP      
        0x00019d8c:    f2411000    A...    MOVW     r0,#0x1100
        0x00019d90:    f2c40002    ....    MOVT     r0,#0x4002
        0x00019d94:    f8500cf8    P...    LDR      r0,[r0,#-0xf8]
        0x00019d98:    02c0        ..      LSLS     r0,r0,#11
        0x00019d9a:    d505        ..      BPL      0x19da8 ; am_hal_pwrctrl_control + 96
        0x00019d9c:    2014        .       MOVS     r0,#0x14
        0x00019d9e:    f000fa1f    ....    BL       am_hal_pwrctrl_periph_disable ; 0x1a1e0
        0x00019da2:    2800        .(      CMP      r0,#0
        0x00019da4:    bf18        ..      IT       NE
        0x00019da6:    bdb0        ..      POPNE    {r4,r5,r7,pc}
        0x00019da8:    2000        .       MOVS     r0,#0
        0x00019daa:    bdb0        ..      POP      {r4,r5,r7,pc}
        0x00019dac:    2060        `       MOVS     r0,#0x60
        0x00019dae:    f2c40002    ....    MOVT     r0,#0x4002
        0x00019db2:    f8d010c4    ....    LDR      r1,[r0,#0xc4]
        0x00019db6:    2220         "      MOVS     r2,#0x20
        0x00019db8:    f3620187    b...    BFI      r1,r2,#2,#6
        0x00019dbc:    f8c010c4    ....    STR      r1,[r0,#0xc4]
        0x00019dc0:    2101        .!      MOVS     r1,#1
        0x00019dc2:    f8c010c0    ....    STR      r1,[r0,#0xc0]
        0x00019dc6:    2000        .       MOVS     r0,#0
        0x00019dc8:    bdb0        ..      POP      {r4,r5,r7,pc}
        0x00019dca:    bf00        ..      NOP      
        0x00019dcc:    f2411100    A...    MOVW     r1,#0x1100
        0x00019dd0:    f2c40102    ....    MOVT     r1,#0x4002
        0x00019dd4:    2000        .       MOVS     r0,#0
        0x00019dd6:    f8410cfc    A...    STR      r0,[r1,#-0xfc]
        0x00019dda:    bdb0        ..      POP      {r4,r5,r7,pc}
        0x00019ddc:    b129        ).      CBZ      r1,0x19dea ; am_hal_pwrctrl_control + 162
        0x00019dde:    f2401010    @...    MOVW     r0,#0x110
        0x00019de2:    f2c10000    ....    MOVT     r0,#0x1000
        0x00019de6:    6a80        .j      LDR      r0,[r0,#0x28]
        0x00019de8:    6008        .`      STR      r0,[r1,#0]
        0x00019dea:    2006        .       MOVS     r0,#6
        0x00019dec:    bdb0        ..      POP      {r4,r5,r7,pc}
        0x00019dee:    bf00        ..      NOP      
        0x00019df0:    2000        .       MOVS     r0,#0
        0x00019df2:    6020         `      STR      r0,[r4,#0]
        0x00019df4:    f8d51318    ....    LDR      r1,[r5,#0x318]
        0x00019df8:    220a        ."      MOVS     r2,#0xa
        0x00019dfa:    f02151f8    !..Q    BIC      r1,r1,#0x1f000000
        0x00019dfe:    f8c51318    ....    STR      r1,[r5,#0x318]
        0x00019e02:    f8d512f8    ....    LDR      r1,[r5,#0x2f8]
        0x00019e06:    f42101f8    !...    BIC      r1,r1,#0x7c0000
        0x00019e0a:    f8c512f8    ....    STR      r1,[r5,#0x2f8]
        0x00019e0e:    f8d512e4    ....    LDR      r1,[r5,#0x2e4]
        0x00019e12:    f362611c    b..a    BFI      r1,r2,#24,#5
        0x00019e16:    f8c512e4    ....    STR      r1,[r5,#0x2e4]
        0x00019e1a:    f8d512e4    ....    LDR      r1,[r5,#0x2e4]
        0x00019e1e:    f36221ce    b..!    BFI      r1,r2,#11,#4
        0x00019e22:    f8c512e4    ....    STR      r1,[r5,#0x2e4]
        0x00019e26:    f8d512f8    ....    LDR      r1,[r5,#0x2f8]
        0x00019e2a:    220f        ."      MOVS     r2,#0xf
        0x00019e2c:    f362210c    b..!    BFI      r1,r2,#8,#5
        0x00019e30:    f8c512f8    ....    STR      r1,[r5,#0x2f8]
        0x00019e34:    f8d512f4    ....    LDR      r1,[r5,#0x2f4]
        0x00019e38:    f44111f0    A...    ORR      r1,r1,#0x1e0000
        0x00019e3c:    f8c512f4    ....    STR      r1,[r5,#0x2f4]
        0x00019e40:    f8d51300    ....    LDR      r1,[r5,#0x300]
        0x00019e44:    f362519a    b..Q    BFI      r1,r2,#22,#5
        0x00019e48:    f8c51300    ....    STR      r1,[r5,#0x300]
        0x00019e4c:    f8d51300    ....    LDR      r1,[r5,#0x300]
        0x00019e50:    f44111f0    A...    ORR      r1,r1,#0x1e0000
        0x00019e54:    f8c51300    ....    STR      r1,[r5,#0x300]
        0x00019e58:    2101        .!      MOVS     r1,#1
        0x00019e5a:    f8d522e8    ..."    LDR      r2,[r5,#0x2e8]
        0x00019e5e:    230a        .#      MOVS     r3,#0xa
        0x00019e60:    f363629d    c..b    BFI      r2,r3,#26,#4
        0x00019e64:    f8c522e8    ..."    STR      r2,[r5,#0x2e8]
        0x00019e68:    f8d522e8    ..."    LDR      r2,[r5,#0x2e8]
        0x00019e6c:    f3633250    c.P2    BFI      r2,r3,#13,#4
        0x00019e70:    f8c522e8    ..."    STR      r2,[r5,#0x2e8]
        0x00019e74:    f8d522fc    ..."    LDR      r2,[r5,#0x2fc]
        0x00019e78:    f0427270    B.pr    ORR      r2,r2,#0x3c00000
        0x00019e7c:    f8c522fc    ..."    STR      r2,[r5,#0x2fc]
        0x00019e80:    f8d522fc    ..."    LDR      r2,[r5,#0x2fc]
        0x00019e84:    f44252f0    B..R    ORR      r2,r2,#0x1e00
        0x00019e88:    f8c522fc    ..."    STR      r2,[r5,#0x2fc]
        0x00019e8c:    f8d52320    .. #    LDR      r2,[r5,#0x320]
        0x00019e90:    f0424200    B..B    ORR      r2,r2,#0x80000000
        0x00019e94:    f8c52320    .. #    STR      r2,[r5,#0x320]
        0x00019e98:    f8d52320    .. #    LDR      r2,[r5,#0x320]
        0x00019e9c:    f0424280    B..B    ORR      r2,r2,#0x40000000
        0x00019ea0:    f8c52320    .. #    STR      r2,[r5,#0x320]
        0x00019ea4:    f8d52310    ...#    LDR      r2,[r5,#0x310]
        0x00019ea8:    f3c25205    ...R    UBFX     r2,r2,#20,#6
        0x00019eac:    6062        b`      STR      r2,[r4,#4]
        0x00019eae:    f8d52310    ...#    LDR      r2,[r5,#0x310]
        0x00019eb2:    f022727c    ".|r    BIC      r2,r2,#0x3f00000
        0x00019eb6:    f8c52310    ...#    STR      r2,[r5,#0x310]
        0x00019eba:    f04f0207    O...    MOV      r2,#7
        0x00019ebe:    f8c522dc    ..."    STR      r2,[r5,#0x2dc]
        0x00019ec2:    b161        a.      CBZ      r1,0x19ede ; am_hal_pwrctrl_control + 406
        0x00019ec4:    f8d512e0    ....    LDR      r1,[r5,#0x2e0]
        0x00019ec8:    2201        ."      MOVS     r2,#1
        0x00019eca:    f0217170    !.pq    BIC      r1,r1,#0x3c00000
        0x00019ece:    f8c512e0    ....    STR      r1,[r5,#0x2e0]
        0x00019ed2:    f8d512e0    ....    LDR      r1,[r5,#0x2e0]
        0x00019ed6:    f362118a    b...    BFI      r1,r2,#6,#5
        0x00019eda:    f8c512e0    ....    STR      r1,[r5,#0x2e0]
        0x00019ede:    2806        .(      CMP      r0,#6
        0x00019ee0:    d308        ..      BCC      0x19ef4 ; am_hal_pwrctrl_control + 428
        0x00019ee2:    200f        .       MOVS     r0,#0xf
        0x00019ee4:    f8c502dc    ....    STR      r0,[r5,#0x2dc]
        0x00019ee8:    f8d50150    ..P.    LDR      r0,[r5,#0x150]
        0x00019eec:    f0200018     ...    BIC      r0,r0,#0x18
        0x00019ef0:    f8c50150    ..P.    STR      r0,[r5,#0x150]
        0x00019ef4:    f2411000    A...    MOVW     r0,#0x1100
        0x00019ef8:    f2c40002    ....    MOVT     r0,#0x4002
        0x00019efc:    6801        .h      LDR      r1,[r0,#0]
        0x00019efe:    f0410101    A...    ORR      r1,r1,#1
        0x00019f02:    6001        .`      STR      r1,[r0,#0]
        0x00019f04:    f8d50318    ....    LDR      r0,[r5,#0x318]
        0x00019f08:    f0404000    @..@    ORR      r0,r0,#0x80000000
        0x00019f0c:    f8c50318    ....    STR      r0,[r5,#0x318]
        0x00019f10:    6828        (h      LDR      r0,[r5,#0]
        0x00019f12:    f4403000    @..0    ORR      r0,r0,#0x20000
        0x00019f16:    6028        (`      STR      r0,[r5,#0]
        0x00019f18:    6828        (h      LDR      r0,[r5,#0]
        0x00019f1a:    f4402080    @..     ORR      r0,r0,#0x40000
        0x00019f1e:    6028        (`      STR      r0,[r5,#0]
        0x00019f20:    6828        (h      LDR      r0,[r5,#0]
        0x00019f22:    f4402000    @..     ORR      r0,r0,#0x80000
        0x00019f26:    6028        (`      STR      r0,[r5,#0]
        0x00019f28:    6828        (h      LDR      r0,[r5,#0]
        0x00019f2a:    f4403080    @..0    ORR      r0,r0,#0x10000
        0x00019f2e:    6028        (`      STR      r0,[r5,#0]
        0x00019f30:    6828        (h      LDR      r0,[r5,#0]
        0x00019f32:    f0200010     ...    BIC      r0,r0,#0x10
        0x00019f36:    6028        (`      STR      r0,[r5,#0]
        0x00019f38:    6828        (h      LDR      r0,[r5,#0]
        0x00019f3a:    f040000e    @...    ORR      r0,r0,#0xe
        0x00019f3e:    6028        (`      STR      r0,[r5,#0]
        0x00019f40:    6828        (h      LDR      r0,[r5,#0]
        0x00019f42:    f0400001    @...    ORR      r0,r0,#1
        0x00019f46:    6028        (`      STR      r0,[r5,#0]
        0x00019f48:    6828        (h      LDR      r0,[r5,#0]
        0x00019f4a:    f4207000     ..p    BIC      r0,r0,#0x200
        0x00019f4e:    6028        (`      STR      r0,[r5,#0]
        0x00019f50:    6828        (h      LDR      r0,[r5,#0]
        0x00019f52:    f44070e0    @..p    ORR      r0,r0,#0x1c0
        0x00019f56:    6028        (`      STR      r0,[r5,#0]
        0x00019f58:    6828        (h      LDR      r0,[r5,#0]
        0x00019f5a:    f0400020    @. .    ORR      r0,r0,#0x20
        0x00019f5e:    6028        (`      STR      r0,[r5,#0]
        0x00019f60:    2000        .       MOVS     r0,#0
        0x00019f62:    bdb0        ..      POP      {r4,r5,r7,pc}
    am_hal_pwrctrl_low_power_init
        0x00019f64:    b5f0        ..      PUSH     {r4-r7,lr}
        0x00019f66:    b081        ..      SUB      sp,sp,#4
        0x00019f68:    f2410608    A...    MOV      r6,#0x1008
        0x00019f6c:    f2c40602    ....    MOVT     r6,#0x4002
        0x00019f70:    6830        0h      LDR      r0,[r6,#0]
        0x00019f72:    f2401410    @...    MOVW     r4,#0x110
        0x00019f76:    f3c05000    ...P    UBFX     r0,r0,#20,#1
        0x00019f7a:    f2c10400    ....    MOVT     r4,#0x1000
        0x00019f7e:    7020         p      STRB     r0,[r4,#0]
        0x00019f80:    f64b6054    K.T`    MOV      r0,#0xbe54
        0x00019f84:    2588        .%      MOVS     r5,#0x88
        0x00019f86:    f2c00001    ....    MOVT     r0,#1
        0x00019f8a:    f2c40502    ....    MOVT     r5,#0x4002
        0x00019f8e:    f000f89f    ....    BL       am_hal_pwrctrl_mcu_memory_config ; 0x1a0d0
        0x00019f92:    f64b605a    K.Z`    MOV      r0,#0xbe5a
        0x00019f96:    f2c00001    ....    MOVT     r0,#1
        0x00019f9a:    f000fa8d    ....    BL       am_hal_pwrctrl_sram_config ; 0x1a4b8
        0x00019f9e:    f2440744    D.D.    MOV      r7,#0x4044
        0x00019fa2:    f2c40700    ....    MOVT     r7,#0x4000
        0x00019fa6:    6838        8h      LDR      r0,[r7,#0]
        0x00019fa8:    f440007c    @.|.    ORR      r0,r0,#0xfc0000
        0x00019fac:    6038        8`      STR      r0,[r7,#0]
        0x00019fae:    2000        .       MOVS     r0,#0
        0x00019fb0:    f8c60138    ..8.    STR      r0,[r6,#0x138]
        0x00019fb4:    f8c6013c    ..<.    STR      r0,[r6,#0x13c]
        0x00019fb8:    f8c60140    ..@.    STR      r0,[r6,#0x140]
        0x00019fbc:    f8c60144    ..D.    STR      r0,[r6,#0x144]
        0x00019fc0:    f8c60148    ..H.    STR      r0,[r6,#0x148]
        0x00019fc4:    f8c6014c    ..L.    STR      r0,[r6,#0x14c]
        0x00019fc8:    f8c60150    ..P.    STR      r0,[r6,#0x150]
        0x00019fcc:    f8c60154    ..T.    STR      r0,[r6,#0x154]
        0x00019fd0:    f8c60158    ..X.    STR      r0,[r6,#0x158]
        0x00019fd4:    f8c6015c    ..\.    STR      r0,[r6,#0x15c]
        0x00019fd8:    f8c60160    ..`.    STR      r0,[r6,#0x160]
        0x00019fdc:    f8c60164    ..d.    STR      r0,[r6,#0x164]
        0x00019fe0:    f8c60168    ..h.    STR      r0,[r6,#0x168]
        0x00019fe4:    f8c6016c    ..l.    STR      r0,[r6,#0x16c]
        0x00019fe8:    f8c60170    ..p.    STR      r0,[r6,#0x170]
        0x00019fec:    f8c60174    ..t.    STR      r0,[r6,#0x174]
        0x00019ff0:    f8c60178    ..x.    STR      r0,[r6,#0x178]
        0x00019ff4:    f8c6017c    ..|.    STR      r0,[r6,#0x17c]
        0x00019ff8:    f8c60180    ....    STR      r0,[r6,#0x180]
        0x00019ffc:    f64b2065    K.e     MOV      r0,#0xba65
        0x0001a000:    f2c00001    ....    MOVT     r0,#1
        0x0001a004:    f7fefe12    ....    BL       am_hal_daxi_config ; 0x18c2c
        0x0001a008:    2064        d       MOVS     r0,#0x64
        0x0001a00a:    f7fefef1    ....    BL       am_hal_delay_us ; 0x18df0
        0x0001a00e:    6838        8h      LDR      r0,[r7,#0]
        0x0001a010:    2104        .!      MOVS     r1,#4
        0x0001a012:    f0400040    @.@.    ORR      r0,r0,#0x40
        0x0001a016:    6038        8`      STR      r0,[r7,#0]
        0x0001a018:    f8d502f4    ....    LDR      r0,[r5,#0x2f4]
        0x0001a01c:    f04060b0    @..`    ORR      r0,r0,#0x5800000
        0x0001a020:    f44000fd    @...    ORR      r0,r0,#0x7e8000
        0x0001a024:    f8c502f4    ....    STR      r0,[r5,#0x2f4]
        0x0001a028:    f8d503bc    ....    LDR      r0,[r5,#0x3bc]
        0x0001a02c:    f361200f    a..     BFI      r0,r1,#8,#8
        0x0001a030:    f8c503bc    ....    STR      r0,[r5,#0x3bc]
        0x0001a034:    7860        `x      LDRB     r0,[r4,#1]
        0x0001a036:    2801        .(      CMP      r0,#1
        0x0001a038:    d102        ..      BNE      0x1a040 ; am_hal_pwrctrl_low_power_init + 220
        0x0001a03a:    e9d40104    ....    LDRD     r0,r1,[r4,#0x10]
        0x0001a03e:    e01c        ..      B        0x1a07a ; am_hal_pwrctrl_low_power_init + 278
        0x0001a040:    f8d502e4    ....    LDR      r0,[r5,#0x2e4]
        0x0001a044:    f3c05005    ...P    UBFX     r0,r0,#20,#6
        0x0001a048:    6120         a      STR      r0,[r4,#0x10]
        0x0001a04a:    6829        )h      LDR      r1,[r5,#0]
        0x0001a04c:    f001013f    ..?.    AND      r1,r1,#0x3f
        0x0001a050:    6161        aa      STR      r1,[r4,#0x14]
        0x0001a052:    f8d522e4    ..."    LDR      r2,[r5,#0x2e4]
        0x0001a056:    0e92        ..      LSRS     r2,r2,#26
        0x0001a058:    61a2        .a      STR      r2,[r4,#0x18]
        0x0001a05a:    682a        *h      LDR      r2,[r5,#0]
        0x0001a05c:    f3c24285    ...B    UBFX     r2,r2,#18,#6
        0x0001a060:    61e2        .a      STR      r2,[r4,#0x1c]
        0x0001a062:    f8552c44    U.D,    LDR      r2,[r5,#-0x44]
        0x0001a066:    f3c212c6    ....    UBFX     r2,r2,#7,#7
        0x0001a06a:    6222        "b      STR      r2,[r4,#0x20]
        0x0001a06c:    f8552c08    U..,    LDR      r2,[r5,#-8]
        0x0001a070:    f36f229f    o.."    BFC      r2,#10,#22
        0x0001a074:    6262        bb      STR      r2,[r4,#0x24]
        0x0001a076:    2201        ."      MOVS     r2,#1
        0x0001a078:    7062        bp      STRB     r2,[r4,#1]
        0x0001a07a:    2200        ."      MOVS     r2,#0
        0x0001a07c:    1d23        #.      ADDS     r3,r4,#4
        0x0001a07e:    c307        ..      STM      r3!,{r0-r2}
        0x0001a080:    466b        kF      MOV      r3,sp
        0x0001a082:    2001        .       MOVS     r0,#1
        0x0001a084:    f44f6192    O..a    MOV      r1,#0x490
        0x0001a088:    2201        ."      MOVS     r2,#1
        0x0001a08a:    f7fffe05    ....    BL       am_hal_mram_info_read ; 0x19c98
        0x0001a08e:    b118        ..      CBZ      r0,0x1a098 ; am_hal_pwrctrl_low_power_init + 308
        0x0001a090:    2000        .       MOVS     r0,#0
        0x0001a092:    b001        ..      ADD      sp,sp,#4
        0x0001a094:    bdf0        ..      POP      {r4-r7,pc}
        0x0001a096:    bf00        ..      NOP      
        0x0001a098:    9800        ..      LDR      r0,[sp,#0]
        0x0001a09a:    f0100f06    ....    TST      r0,#6
        0x0001a09e:    d007        ..      BEQ      0x1a0b0 ; am_hal_pwrctrl_low_power_init + 332
        0x0001a0a0:    0781        ..      LSLS     r1,r0,#30
        0x0001a0a2:    d40b        ..      BMI      0x1a0bc ; am_hal_pwrctrl_low_power_init + 344
        0x0001a0a4:    2006        .       MOVS     r0,#6
        0x0001a0a6:    60e0        .`      STR      r0,[r4,#0xc]
        0x0001a0a8:    2000        .       MOVS     r0,#0
        0x0001a0aa:    b001        ..      ADD      sp,sp,#4
        0x0001a0ac:    bdf0        ..      POP      {r4-r7,pc}
        0x0001a0ae:    bf00        ..      NOP      
        0x0001a0b0:    2003        .       MOVS     r0,#3
        0x0001a0b2:    60e0        .`      STR      r0,[r4,#0xc]
        0x0001a0b4:    2000        .       MOVS     r0,#0
        0x0001a0b6:    b001        ..      ADD      sp,sp,#4
        0x0001a0b8:    bdf0        ..      POP      {r4-r7,pc}
        0x0001a0ba:    bf00        ..      NOP      
        0x0001a0bc:    0740        @.      LSLS     r0,r0,#29
        0x0001a0be:    f04f0000    O...    MOV      r0,#0
        0x0001a0c2:    bf58        X.      IT       PL
        0x0001a0c4:    2009        .       MOVPL    r0,#9
        0x0001a0c6:    60e0        .`      STR      r0,[r4,#0xc]
        0x0001a0c8:    2000        .       MOVS     r0,#0
        0x0001a0ca:    b001        ..      ADD      sp,sp,#4
        0x0001a0cc:    bdf0        ..      POP      {r4-r7,pc}
        0x0001a0ce:    0000        ..      MOVS     r0,r0
    am_hal_pwrctrl_mcu_memory_config
        0x0001a0d0:    b570        p.      PUSH     {r4-r6,lr}
        0x0001a0d2:    b082        ..      SUB      sp,sp,#8
        0x0001a0d4:    4606        .F      MOV      r6,r0
        0x0001a0d6:    7800        .x      LDRB     r0,[r0,#0]
        0x0001a0d8:    f2410514    A...    MOV      r5,#0x1014
        0x0001a0dc:    2802        .(      CMP      r0,#2
        0x0001a0de:    f2c40502    ....    MOVT     r5,#0x4002
        0x0001a0e2:    d007        ..      BEQ      0x1a0f4 ; am_hal_pwrctrl_mcu_memory_config + 36
        0x0001a0e4:    2801        .(      CMP      r0,#1
        0x0001a0e6:    d00d        ..      BEQ      0x1a104 ; am_hal_pwrctrl_mcu_memory_config + 52
        0x0001a0e8:    b9a0        ..      CBNZ     r0,0x1a114 ; am_hal_pwrctrl_mcu_memory_config + 68
        0x0001a0ea:    6828        (h      LDR      r0,[r5,#0]
        0x0001a0ec:    f0200010     ...    BIC      r0,r0,#0x10
        0x0001a0f0:    e00b        ..      B        0x1a10a ; am_hal_pwrctrl_mcu_memory_config + 58
        0x0001a0f2:    bf00        ..      NOP      
        0x0001a0f4:    6828        (h      LDR      r0,[r5,#0]
        0x0001a0f6:    f0400010    @...    ORR      r0,r0,#0x10
        0x0001a0fa:    6028        (`      STR      r0,[r5,#0]
        0x0001a0fc:    6828        (h      LDR      r0,[r5,#0]
        0x0001a0fe:    f0400020    @. .    ORR      r0,r0,#0x20
        0x0001a102:    e006        ..      B        0x1a112 ; am_hal_pwrctrl_mcu_memory_config + 66
        0x0001a104:    6828        (h      LDR      r0,[r5,#0]
        0x0001a106:    f0400010    @...    ORR      r0,r0,#0x10
        0x0001a10a:    6028        (`      STR      r0,[r5,#0]
        0x0001a10c:    6828        (h      LDR      r0,[r5,#0]
        0x0001a10e:    f0200020     . .    BIC      r0,r0,#0x20
        0x0001a112:    6028        (`      STR      r0,[r5,#0]
        0x0001a114:    78b0        .x      LDRB     r0,[r6,#2]
        0x0001a116:    6829        )h      LDR      r1,[r5,#0]
        0x0001a118:    2401        .$      MOVS     r4,#1
        0x0001a11a:    f3600102    `...    BFI      r1,r0,#0,#3
        0x0001a11e:    6029        )`      STR      r1,[r5,#0]
        0x0001a120:    7930        0y      LDRB     r0,[r6,#4]
        0x0001a122:    6829        )h      LDR      r1,[r5,#0]
        0x0001a124:    f000001f    ....    AND      r0,r0,#0x1f
        0x0001a128:    f0210108    !...    BIC      r1,r1,#8
        0x0001a12c:    ea4100c0    A...    ORR      r0,r1,r0,LSL #3
        0x0001a130:    6028        (`      STR      r0,[r5,#0]
        0x0001a132:    4629        )F      MOV      r1,r5
        0x0001a134:    f8513b04    Q..;    LDR      r3,[r1],#4
        0x0001a138:    2005        .       MOVS     r0,#5
        0x0001a13a:    223f        ?"      MOVS     r2,#0x3f
        0x0001a13c:    9400        ..      STR      r4,[sp,#0]
        0x0001a13e:    f7fefe9f    ....    BL       am_hal_delay_us_status_check ; 0x18e80
        0x0001a142:    b108        ..      CBZ      r0,0x1a148 ; am_hal_pwrctrl_mcu_memory_config + 120
        0x0001a144:    b002        ..      ADD      sp,sp,#8
        0x0001a146:    bd70        p.      POP      {r4-r6,pc}
        0x0001a148:    6868        hh      LDR      r0,[r5,#4]
        0x0001a14a:    6829        )h      LDR      r1,[r5,#0]
        0x0001a14c:    4048        H@      EORS     r0,r0,r1
        0x0001a14e:    06c0        ..      LSLS     r0,r0,#27
        0x0001a150:    d42e        ..      BMI      0x1a1b0 ; am_hal_pwrctrl_mcu_memory_config + 224
        0x0001a152:    6868        hh      LDR      r0,[r5,#4]
        0x0001a154:    6829        )h      LDR      r1,[r5,#0]
        0x0001a156:    4048        H@      EORS     r0,r0,r1
        0x0001a158:    0680        ..      LSLS     r0,r0,#26
        0x0001a15a:    d429        ).      BMI      0x1a1b0 ; am_hal_pwrctrl_mcu_memory_config + 224
        0x0001a15c:    6868        hh      LDR      r0,[r5,#4]
        0x0001a15e:    6829        )h      LDR      r1,[r5,#0]
        0x0001a160:    4048        H@      EORS     r0,r0,r1
        0x0001a162:    0740        @.      LSLS     r0,r0,#29
        0x0001a164:    d124        $.      BNE      0x1a1b0 ; am_hal_pwrctrl_mcu_memory_config + 224
        0x0001a166:    6868        hh      LDR      r0,[r5,#4]
        0x0001a168:    6829        )h      LDR      r1,[r5,#0]
        0x0001a16a:    4048        H@      EORS     r0,r0,r1
        0x0001a16c:    0700        ..      LSLS     r0,r0,#28
        0x0001a16e:    d41f        ..      BMI      0x1a1b0 ; am_hal_pwrctrl_mcu_memory_config + 224
        0x0001a170:    7870        px      LDRB     r0,[r6,#1]
        0x0001a172:    68a9        .h      LDR      r1,[r5,#8]
        0x0001a174:    2800        .(      CMP      r0,#0
        0x0001a176:    f0210110    !...    BIC      r1,r1,#0x10
        0x0001a17a:    bf08        ..      IT       EQ
        0x0001a17c:    3110        .1      ADDEQ    r1,r1,#0x10
        0x0001a17e:    60a9        .`      STR      r1,[r5,#8]
        0x0001a180:    7970        py      LDRB     r0,[r6,#5]
        0x0001a182:    68a9        .h      LDR      r1,[r5,#8]
        0x0001a184:    2800        .(      CMP      r0,#0
        0x0001a186:    f0210108    !...    BIC      r1,r1,#8
        0x0001a18a:    bf08        ..      IT       EQ
        0x0001a18c:    3108        .1      ADDEQ    r1,r1,#8
        0x0001a18e:    60a9        .`      STR      r1,[r5,#8]
        0x0001a190:    78f1        .x      LDRB     r1,[r6,#3]
        0x0001a192:    2000        .       MOVS     r0,#0
        0x0001a194:    2907        .)      CMP      r1,#7
        0x0001a196:    d8d5        ..      BHI      0x1a144 ; am_hal_pwrctrl_mcu_memory_config + 116
        0x0001a198:    e8dff001    ....    TBB      [pc,r1]
    $d.3
        0x0001a19c:    14040e06    ....    DCD    335810054
        0x0001a1a0:    1a040404    ....    DCD    436470788
    $t.4
        0x0001a1a4:    e7ce        ..      B        0x1a144 ; am_hal_pwrctrl_mcu_memory_config + 116
        0x0001a1a6:    bf00        ..      NOP      
        0x0001a1a8:    68a8        .h      LDR      r0,[r5,#8]
        0x0001a1aa:    f0400007    @...    ORR      r0,r0,#7
        0x0001a1ae:    e012        ..      B        0x1a1d6 ; am_hal_pwrctrl_mcu_memory_config + 262
        0x0001a1b0:    2001        .       MOVS     r0,#1
        0x0001a1b2:    b002        ..      ADD      sp,sp,#8
        0x0001a1b4:    bd70        p.      POP      {r4-r6,pc}
        0x0001a1b6:    bf00        ..      NOP      
        0x0001a1b8:    68a8        .h      LDR      r0,[r5,#8]
        0x0001a1ba:    2106        .!      MOVS     r1,#6
        0x0001a1bc:    f3610002    a...    BFI      r0,r1,#0,#3
        0x0001a1c0:    e009        ..      B        0x1a1d6 ; am_hal_pwrctrl_mcu_memory_config + 262
        0x0001a1c2:    bf00        ..      NOP      
        0x0001a1c4:    68a8        .h      LDR      r0,[r5,#8]
        0x0001a1c6:    2104        .!      MOVS     r1,#4
        0x0001a1c8:    f3610002    a...    BFI      r0,r1,#0,#3
        0x0001a1cc:    e003        ..      B        0x1a1d6 ; am_hal_pwrctrl_mcu_memory_config + 262
        0x0001a1ce:    bf00        ..      NOP      
        0x0001a1d0:    68a8        .h      LDR      r0,[r5,#8]
        0x0001a1d2:    f0200007     ...    BIC      r0,r0,#7
        0x0001a1d6:    60a8        .`      STR      r0,[r5,#8]
        0x0001a1d8:    2000        .       MOVS     r0,#0
        0x0001a1da:    b002        ..      ADD      sp,sp,#8
        0x0001a1dc:    bd70        p.      POP      {r4-r6,pc}
        0x0001a1de:    0000        ..      MOVS     r0,r0
    am_hal_pwrctrl_periph_disable
        0x0001a1e0:    e92d43f0    -..C    PUSH     {r4-r9,lr}
        0x0001a1e4:    b083        ..      SUB      sp,sp,#0xc
        0x0001a1e6:    2821        !(      CMP      r0,#0x21
        0x0001a1e8:    d904        ..      BLS      0x1a1f4 ; am_hal_pwrctrl_periph_disable + 20
        0x0001a1ea:    2406        .$      MOVS     r4,#6
        0x0001a1ec:    4620         F      MOV      r0,r4
        0x0001a1ee:    b003        ..      ADD      sp,sp,#0xc
        0x0001a1f0:    e8bd83f0    ....    POP      {r4-r9,pc}
        0x0001a1f4:    f64b2174    K.t!    MOV      r1,#0xba74
        0x0001a1f8:    f2c00101    ....    MOVT     r1,#1
        0x0001a1fc:    0102        ..      LSLS     r2,r0,#4
        0x0001a1fe:    f8518002    Q...    LDR      r8,[r1,r2]
        0x0001a202:    eb011500    ....    ADD      r5,r1,r0,LSL #4
        0x0001a206:    686f        oh      LDR      r7,[r5,#4]
        0x0001a208:    f8d81000    ....    LDR      r1,[r8,#0]
        0x0001a20c:    4239        9B      TST      r1,r7
        0x0001a20e:    d074        t.      BEQ      0x1a2fa ; am_hal_pwrctrl_periph_disable + 282
        0x0001a210:    2814        .(      CMP      r0,#0x14
        0x0001a212:    d12d        -.      BNE      0x1a270 ; am_hal_pwrctrl_periph_disable + 144
        0x0001a214:    f64076e0    @..v    MOVW     r6,#0xfe0
        0x0001a218:    f2c4060c    ....    MOVT     r6,#0x400c
        0x0001a21c:    6830        0h      LDR      r0,[r6,#0]
        0x0001a21e:    28c0        .(      CMP      r0,#0xc0
        0x0001a220:    d126        &.      BNE      0x1a270 ; am_hal_pwrctrl_periph_disable + 144
        0x0001a222:    f6402980    @..)    MOVW     r9,#0xa80
        0x0001a226:    f2c4090c    ....    MOVT     r9,#0x400c
        0x0001a22a:    f1a90104    ....    SUB      r1,r9,#4
        0x0001a22e:    2064        d       MOVS     r0,#0x64
        0x0001a230:    2201        ."      MOVS     r2,#1
        0x0001a232:    2301        .#      MOVS     r3,#1
        0x0001a234:    f7fefdf8    ....    BL       am_hal_delay_us_status_change ; 0x18e28
        0x0001a238:    4604        .F      MOV      r4,r0
        0x0001a23a:    2800        .(      CMP      r0,#0
        0x0001a23c:    d1d6        ..      BNE      0x1a1ec ; am_hal_pwrctrl_periph_disable + 12
        0x0001a23e:    f5066173    ..sa    ADD      r1,r6,#0xf30
        0x0001a242:    2064        d       MOVS     r0,#0x64
        0x0001a244:    2201        ."      MOVS     r2,#1
        0x0001a246:    2301        .#      MOVS     r3,#1
        0x0001a248:    f7fefdee    ....    BL       am_hal_delay_us_status_change ; 0x18e28
        0x0001a24c:    4604        .F      MOV      r4,r0
        0x0001a24e:    2800        .(      CMP      r0,#0
        0x0001a250:    d1cc        ..      BNE      0x1a1ec ; am_hal_pwrctrl_periph_disable + 12
        0x0001a252:    f8d90000    ....    LDR      r0,[r9,#0]
        0x0001a256:    f0400001    @...    ORR      r0,r0,#1
        0x0001a25a:    f8c90000    ....    STR      r0,[r9,#0]
        0x0001a25e:    f2401010    @...    MOVW     r0,#0x110
        0x0001a262:    f2c10000    ....    MOVT     r0,#0x1000
        0x0001a266:    68c1        .h      LDR      r1,[r0,#0xc]
        0x0001a268:    b111        ..      CBZ      r1,0x1a270 ; am_hal_pwrctrl_periph_disable + 144
        0x0001a26a:    2000        .       MOVS     r0,#0
        0x0001a26c:    f000fb7c    ..|.    BL       crypto_boost_trims ; 0x1a968
        0x0001a270:    e9d56502    ...e    LDRD     r6,r5,[r5,#8]
        0x0001a274:    f7feff30    ..0.    BL       am_hal_interrupt_master_disable ; 0x190d8
        0x0001a278:    9002        ..      STR      r0,[sp,#8]
        0x0001a27a:    f8d80000    ....    LDR      r0,[r8,#0]
        0x0001a27e:    43b8        .C      BICS     r0,r0,r7
        0x0001a280:    f8c80000    ....    STR      r0,[r8,#0]
        0x0001a284:    9802        ..      LDR      r0,[sp,#8]
        0x0001a286:    f7feff2f    ../.    BL       am_hal_interrupt_master_set ; 0x190e8
        0x0001a28a:    2400        .$      MOVS     r4,#0
        0x0001a28c:    2005        .       MOVS     r0,#5
        0x0001a28e:    4631        1F      MOV      r1,r6
        0x0001a290:    462a        *F      MOV      r2,r5
        0x0001a292:    462b        +F      MOV      r3,r5
        0x0001a294:    9400        ..      STR      r4,[sp,#0]
        0x0001a296:    f7fefdf3    ....    BL       am_hal_delay_us_status_check ; 0x18e80
        0x0001a29a:    2800        .(      CMP      r0,#0
        0x0001a29c:    d0a6        ..      BEQ      0x1a1ec ; am_hal_pwrctrl_periph_disable + 12
        0x0001a29e:    f5b57ff0    ....    CMP      r5,#0x1e0
        0x0001a2a2:    f04f0400    O...    MOV      r4,#0
        0x0001a2a6:    db0d        ..      BLT      0x1a2c4 ; am_hal_pwrctrl_periph_disable + 228
        0x0001a2a8:    d01a        ..      BEQ      0x1a2e0 ; am_hal_pwrctrl_periph_disable + 256
        0x0001a2aa:    f5b53fe0    ...?    CMP      r5,#0x1c000
        0x0001a2ae:    d01d        ..      BEQ      0x1a2ec ; am_hal_pwrctrl_periph_disable + 268
        0x0001a2b0:    f5b55ff0    ..._    CMP      r5,#0x1e00
        0x0001a2b4:    d19a        ..      BNE      0x1a1ec ; am_hal_pwrctrl_periph_disable + 12
        0x0001a2b6:    f8d80000    ....    LDR      r0,[r8,#0]
        0x0001a2ba:    f4105ff0    ..._    TST      r0,#0x1e00
        0x0001a2be:    d11a        ..      BNE      0x1a2f6 ; am_hal_pwrctrl_periph_disable + 278
        0x0001a2c0:    e01b        ..      B        0x1a2fa ; am_hal_pwrctrl_periph_disable + 282
        0x0001a2c2:    bf00        ..      NOP      
        0x0001a2c4:    2d1e        .-      CMP      r5,#0x1e
        0x0001a2c6:    d01d        ..      BEQ      0x1a304 ; am_hal_pwrctrl_periph_disable + 292
        0x0001a2c8:    2dff        .-      CMP      r5,#0xff
        0x0001a2ca:    f47faf8f    ....    BNE.W    0x1a1ec ; am_hal_pwrctrl_periph_disable + 12
        0x0001a2ce:    f8d80000    ....    LDR      r0,[r8,#0]
        0x0001a2d2:    0600        ..      LSLS     r0,r0,#24
        0x0001a2d4:    d10f        ..      BNE      0x1a2f6 ; am_hal_pwrctrl_periph_disable + 278
        0x0001a2d6:    2400        .$      MOVS     r4,#0
        0x0001a2d8:    4620         F      MOV      r0,r4
        0x0001a2da:    b003        ..      ADD      sp,sp,#0xc
        0x0001a2dc:    e8bd83f0    ....    POP      {r4-r9,pc}
        0x0001a2e0:    f8d80000    ....    LDR      r0,[r8,#0]
        0x0001a2e4:    f4107ff0    ....    TST      r0,#0x1e0
        0x0001a2e8:    d105        ..      BNE      0x1a2f6 ; am_hal_pwrctrl_periph_disable + 278
        0x0001a2ea:    e006        ..      B        0x1a2fa ; am_hal_pwrctrl_periph_disable + 282
        0x0001a2ec:    f8d80000    ....    LDR      r0,[r8,#0]
        0x0001a2f0:    f4103fe0    ...?    TST      r0,#0x1c000
        0x0001a2f4:    d001        ..      BEQ      0x1a2fa ; am_hal_pwrctrl_periph_disable + 282
        0x0001a2f6:    f8d80000    ....    LDR      r0,[r8,#0]
        0x0001a2fa:    2400        .$      MOVS     r4,#0
        0x0001a2fc:    4620         F      MOV      r0,r4
        0x0001a2fe:    b003        ..      ADD      sp,sp,#0xc
        0x0001a300:    e8bd83f0    ....    POP      {r4-r9,pc}
        0x0001a304:    f8d80000    ....    LDR      r0,[r8,#0]
        0x0001a308:    f0100f1e    ....    TST      r0,#0x1e
        0x0001a30c:    d1f3        ..      BNE      0x1a2f6 ; am_hal_pwrctrl_periph_disable + 278
        0x0001a30e:    e7f4        ..      B        0x1a2fa ; am_hal_pwrctrl_periph_disable + 282
    am_hal_pwrctrl_periph_enable
        0x0001a310:    e92d4ff0    -..O    PUSH     {r4-r11,lr}
        0x0001a314:    b085        ..      SUB      sp,sp,#0x14
        0x0001a316:    2821        !(      CMP      r0,#0x21
        0x0001a318:    d904        ..      BLS      0x1a324 ; am_hal_pwrctrl_periph_enable + 20
        0x0001a31a:    2706        .'      MOVS     r7,#6
        0x0001a31c:    4638        8F      MOV      r0,r7
        0x0001a31e:    b005        ..      ADD      sp,sp,#0x14
        0x0001a320:    e8bd8ff0    ....    POP      {r4-r11,pc}
        0x0001a324:    4606        .F      MOV      r6,r0
        0x0001a326:    f64b2174    K.t!    MOV      r1,#0xba74
        0x0001a32a:    f2c00101    ....    MOVT     r1,#1
        0x0001a32e:    0132        2.      LSLS     r2,r6,#4
        0x0001a330:    588f        .X      LDR      r7,[r1,r2]
        0x0001a332:    eb011000    ....    ADD      r0,r1,r0,LSL #4
        0x0001a336:    6845        Eh      LDR      r5,[r0,#4]
        0x0001a338:    6839        9h      LDR      r1,[r7,#0]
        0x0001a33a:    4229        )B      TST      r1,r5
        0x0001a33c:    d004        ..      BEQ      0x1a348 ; am_hal_pwrctrl_periph_enable + 56
        0x0001a33e:    2700        .'      MOVS     r7,#0
        0x0001a340:    4638        8F      MOV      r0,r7
        0x0001a342:    b005        ..      ADD      sp,sp,#0x14
        0x0001a344:    e8bd8ff0    ....    POP      {r4-r11,pc}
        0x0001a348:    e9d08902    ....    LDRD     r8,r9,[r0,#8]
        0x0001a34c:    f2401a10    @...    MOVW     r10,#0x110
        0x0001a350:    2e14        ..      CMP      r6,#0x14
        0x0001a352:    f2c10a00    ....    MOVT     r10,#0x1000
        0x0001a356:    d140        @.      BNE      0x1a3da ; am_hal_pwrctrl_periph_enable + 202
        0x0001a358:    f8da400c    ...@    LDR      r4,[r10,#0xc]
        0x0001a35c:    b3ec        ..      CBZ      r4,0x1a3da ; am_hal_pwrctrl_periph_enable + 202
        0x0001a35e:    f89a0000    ....    LDRB     r0,[r10,#0]
        0x0001a362:    bbd0        ..      CBNZ     r0,0x1a3da ; am_hal_pwrctrl_periph_enable + 202
        0x0001a364:    f7fefeb8    ....    BL       am_hal_interrupt_master_disable ; 0x190d8
        0x0001a368:    9003        ..      STR      r0,[sp,#0xc]
        0x0001a36a:    2001        .       MOVS     r0,#1
        0x0001a36c:    f88a0000    ....    STRB     r0,[r10,#0]
        0x0001a370:    e9da0101    ....    LDRD     r0,r1,[r10,#4]
        0x0001a374:    223f        ?"      MOVS     r2,#0x3f
        0x0001a376:    4420         D      ADD      r0,r0,r4
        0x0001a378:    283f        ?(      CMP      r0,#0x3f
        0x0001a37a:    bf38        8.      IT       CC
        0x0001a37c:    4602        .F      MOVCC    r2,r0
        0x0001a37e:    440c        .D      ADD      r4,r4,r1
        0x0001a380:    f8cd8004    ....    STR      r8,[sp,#4]
        0x0001a384:    f2400888    @...    MOVW     r8,#0x88
        0x0001a388:    e9ca0401    ....    STRD     r0,r4,[r10,#4]
        0x0001a38c:    f2c40802    ....    MOVT     r8,#0x4002
        0x0001a390:    f8d812e4    ....    LDR      r1,[r8,#0x2e4]
        0x0001a394:    f04f0b3f    O.?.    MOV      r11,#0x3f
        0x0001a398:    2c3f        ?,      CMP      r4,#0x3f
        0x0001a39a:    bf38        8.      IT       CC
        0x0001a39c:    46a3        .F      MOVCC    r11,r4
        0x0001a39e:    f021717c    !.|q    BIC      r1,r1,#0x3f00000
        0x0001a3a2:    2800        .(      CMP      r0,#0
        0x0001a3a4:    f04f0014    O...    MOV      r0,#0x14
        0x0001a3a8:    bf58        X.      IT       PL
        0x0001a3aa:    ea415102    A..Q    ORRPL    r1,r1,r2,LSL #20
        0x0001a3ae:    f8c812e4    ....    STR      r1,[r8,#0x2e4]
        0x0001a3b2:    f7fefd1d    ....    BL       am_hal_delay_us ; 0x18df0
        0x0001a3b6:    f8d80000    ....    LDR      r0,[r8,#0]
        0x0001a3ba:    2c00        .,      CMP      r4,#0
        0x0001a3bc:    f020003f     .?.    BIC      r0,r0,#0x3f
        0x0001a3c0:    bf58        X.      IT       PL
        0x0001a3c2:    ea40000b    @...    ORRPL    r0,r0,r11
        0x0001a3c6:    f8c80000    ....    STR      r0,[r8,#0]
        0x0001a3ca:    f8dd8004    ....    LDR      r8,[sp,#4]
        0x0001a3ce:    9803        ..      LDR      r0,[sp,#0xc]
        0x0001a3d0:    f7fefe8a    ....    BL       am_hal_interrupt_master_set ; 0x190e8
        0x0001a3d4:    2014        .       MOVS     r0,#0x14
        0x0001a3d6:    f7fefd0b    ....    BL       am_hal_delay_us ; 0x18df0
        0x0001a3da:    f7fefe7d    ..}.    BL       am_hal_interrupt_master_disable ; 0x190d8
        0x0001a3de:    9002        ..      STR      r0,[sp,#8]
        0x0001a3e0:    6838        8h      LDR      r0,[r7,#0]
        0x0001a3e2:    4328        (C      ORRS     r0,r0,r5
        0x0001a3e4:    6038        8`      STR      r0,[r7,#0]
        0x0001a3e6:    9802        ..      LDR      r0,[sp,#8]
        0x0001a3e8:    f7fefe7e    ..~.    BL       am_hal_interrupt_master_set ; 0x190e8
        0x0001a3ec:    2701        .'      MOVS     r7,#1
        0x0001a3ee:    2005        .       MOVS     r0,#5
        0x0001a3f0:    4641        AF      MOV      r1,r8
        0x0001a3f2:    464a        JF      MOV      r2,r9
        0x0001a3f4:    464b        KF      MOV      r3,r9
        0x0001a3f6:    9700        ..      STR      r7,[sp,#0]
        0x0001a3f8:    f7fefd42    ..B.    BL       am_hal_delay_us_status_check ; 0x18e80
        0x0001a3fc:    2800        .(      CMP      r0,#0
        0x0001a3fe:    d041        A.      BEQ      0x1a484 ; am_hal_pwrctrl_periph_enable + 372
        0x0001a400:    4607        .F      MOV      r7,r0
        0x0001a402:    2e14        ..      CMP      r6,#0x14
        0x0001a404:    d18a        ..      BNE      0x1a31c ; am_hal_pwrctrl_periph_enable + 12
        0x0001a406:    f8da400c    ...@    LDR      r4,[r10,#0xc]
        0x0001a40a:    2c00        .,      CMP      r4,#0
        0x0001a40c:    f43faf86    ?...    BEQ.W    0x1a31c ; am_hal_pwrctrl_periph_enable + 12
        0x0001a410:    f89a0000    ....    LDRB     r0,[r10,#0]
        0x0001a414:    2800        .(      CMP      r0,#0
        0x0001a416:    f43faf81    ?...    BEQ.W    0x1a31c ; am_hal_pwrctrl_periph_enable + 12
        0x0001a41a:    f7fefe5d    ..].    BL       am_hal_interrupt_master_disable ; 0x190d8
        0x0001a41e:    9004        ..      STR      r0,[sp,#0x10]
        0x0001a420:    2000        .       MOVS     r0,#0
        0x0001a422:    f88a0000    ....    STRB     r0,[r10,#0]
        0x0001a426:    e9da0101    ....    LDRD     r0,r1,[r10,#4]
        0x0001a42a:    263f        ?&      MOVS     r6,#0x3f
        0x0001a42c:    1b05        ..      SUBS     r5,r0,r4
        0x0001a42e:    1b09        ..      SUBS     r1,r1,r4
        0x0001a430:    2488        .$      MOVS     r4,#0x88
        0x0001a432:    2d3f        ?-      CMP      r5,#0x3f
        0x0001a434:    bf38        8.      IT       CC
        0x0001a436:    462e        .F      MOVCC    r6,r5
        0x0001a438:    e9ca5101    ...Q    STRD     r5,r1,[r10,#4]
        0x0001a43c:    f2c40402    ....    MOVT     r4,#0x4002
        0x0001a440:    6822        "h      LDR      r2,[r4,#0]
        0x0001a442:    203f        ?       MOVS     r0,#0x3f
        0x0001a444:    293f        ?)      CMP      r1,#0x3f
        0x0001a446:    bf38        8.      IT       CC
        0x0001a448:    4608        .F      MOVCC    r0,r1
        0x0001a44a:    f022023f    ".?.    BIC      r2,r2,#0x3f
        0x0001a44e:    2900        .)      CMP      r1,#0
        0x0001a450:    bf58        X.      IT       PL
        0x0001a452:    4302        .C      ORRPL    r2,r2,r0
        0x0001a454:    2014        .       MOVS     r0,#0x14
        0x0001a456:    6022        "`      STR      r2,[r4,#0]
        0x0001a458:    f7fefcca    ....    BL       am_hal_delay_us ; 0x18df0
        0x0001a45c:    f8d402e4    ....    LDR      r0,[r4,#0x2e4]
        0x0001a460:    2d00        .-      CMP      r5,#0
        0x0001a462:    f020707c     .|p    BIC      r0,r0,#0x3f00000
        0x0001a466:    bf58        X.      IT       PL
        0x0001a468:    ea405006    @..P    ORRPL    r0,r0,r6,LSL #20
        0x0001a46c:    f8c402e4    ....    STR      r0,[r4,#0x2e4]
        0x0001a470:    9804        ..      LDR      r0,[sp,#0x10]
        0x0001a472:    f7fefe39    ..9.    BL       am_hal_interrupt_master_set ; 0x190e8
        0x0001a476:    2014        .       MOVS     r0,#0x14
        0x0001a478:    f7fefcba    ....    BL       am_hal_delay_us ; 0x18df0
        0x0001a47c:    4638        8F      MOV      r0,r7
        0x0001a47e:    b005        ..      ADD      sp,sp,#0x14
        0x0001a480:    e8bd8ff0    ....    POP      {r4-r11,pc}
        0x0001a484:    2e14        ..      CMP      r6,#0x14
        0x0001a486:    d10c        ..      BNE      0x1a4a2 ; am_hal_pwrctrl_periph_enable + 402
        0x0001a488:    f6417110    A..q    MOV      r1,#0x1f10
        0x0001a48c:    f2c4010c    ....    MOVT     r1,#0x400c
        0x0001a490:    2064        d       MOVS     r0,#0x64
        0x0001a492:    2201        ."      MOVS     r2,#1
        0x0001a494:    2301        .#      MOVS     r3,#1
        0x0001a496:    f7fefcc7    ....    BL       am_hal_delay_us_status_change ; 0x18e28
        0x0001a49a:    4607        .F      MOV      r7,r0
        0x0001a49c:    2800        .(      CMP      r0,#0
        0x0001a49e:    f47faf3d    ..=.    BNE      0x1a31c ; am_hal_pwrctrl_periph_enable + 12
        0x0001a4a2:    f8d80000    ....    LDR      r0,[r8,#0]
        0x0001a4a6:    ea000009    ....    AND      r0,r0,r9
        0x0001a4aa:    fab0f080    ....    CLZ      r0,r0
        0x0001a4ae:    0947        G.      LSRS     r7,r0,#5
        0x0001a4b0:    4638        8F      MOV      r0,r7
        0x0001a4b2:    b005        ..      ADD      sp,sp,#0x14
        0x0001a4b4:    e8bd8ff0    ....    POP      {r4-r11,pc}
    am_hal_pwrctrl_sram_config
        0x0001a4b8:    b570        p.      PUSH     {r4-r6,lr}
        0x0001a4ba:    b082        ..      SUB      sp,sp,#8
        0x0001a4bc:    f241062c    A.,.    MOV      r6,#0x102c
        0x0001a4c0:    f2c40602    ....    MOVT     r6,#0x4002
        0x0001a4c4:    4604        .F      MOV      r4,r0
        0x0001a4c6:    7800        .x      LDRB     r0,[r0,#0]
        0x0001a4c8:    f8561c08    V...    LDR      r1,[r6,#-8]
        0x0001a4cc:    2501        .%      MOVS     r5,#1
        0x0001a4ce:    f3600101    `...    BFI      r1,r0,#0,#2
        0x0001a4d2:    f8461c08    F...    STR      r1,[r6,#-8]
        0x0001a4d6:    f8563c08    V..<    LDR      r3,[r6,#-8]
        0x0001a4da:    1f31        1.      SUBS     r1,r6,#4
        0x0001a4dc:    2005        .       MOVS     r0,#5
        0x0001a4de:    2203        ."      MOVS     r2,#3
        0x0001a4e0:    9500        ..      STR      r5,[sp,#0]
        0x0001a4e2:    f7fefccd    ....    BL       am_hal_delay_us_status_check ; 0x18e80
        0x0001a4e6:    b108        ..      CBZ      r0,0x1a4ec ; am_hal_pwrctrl_sram_config + 52
        0x0001a4e8:    b002        ..      ADD      sp,sp,#8
        0x0001a4ea:    bd70        p.      POP      {r4-r6,pc}
        0x0001a4ec:    f8560c04    V...    LDR      r0,[r6,#-4]
        0x0001a4f0:    f8561c08    V...    LDR      r1,[r6,#-8]
        0x0001a4f4:    4048        H@      EORS     r0,r0,r1
        0x0001a4f6:    0780        ..      LSLS     r0,r0,#30
        0x0001a4f8:    d002        ..      BEQ      0x1a500 ; am_hal_pwrctrl_sram_config + 72
        0x0001a4fa:    2001        .       MOVS     r0,#1
        0x0001a4fc:    b002        ..      ADD      sp,sp,#8
        0x0001a4fe:    bd70        p.      POP      {r4-r6,pc}
        0x0001a500:    7860        `x      LDRB     r0,[r4,#1]
        0x0001a502:    6831        1h      LDR      r1,[r6,#0]
        0x0001a504:    f3600183    `...    BFI      r1,r0,#2,#2
        0x0001a508:    6031        1`      STR      r1,[r6,#0]
        0x0001a50a:    78a0        .x      LDRB     r0,[r4,#2]
        0x0001a50c:    6831        1h      LDR      r1,[r6,#0]
        0x0001a50e:    f0000003    ....    AND      r0,r0,#3
        0x0001a512:    f02101c0    !...    BIC      r1,r1,#0xc0
        0x0001a516:    ea411080    A...    ORR      r0,r1,r0,LSL #6
        0x0001a51a:    6030        0`      STR      r0,[r6,#0]
        0x0001a51c:    78e0        .x      LDRB     r0,[r4,#3]
        0x0001a51e:    6831        1h      LDR      r1,[r6,#0]
        0x0001a520:    f0000003    ....    AND      r0,r0,#3
        0x0001a524:    f4217140    !.@q    BIC      r1,r1,#0x300
        0x0001a528:    ea412000    A..     ORR      r0,r1,r0,LSL #8
        0x0001a52c:    6030        0`      STR      r0,[r6,#0]
        0x0001a52e:    7920         y      LDRB     r0,[r4,#4]
        0x0001a530:    6831        1h      LDR      r1,[r6,#0]
        0x0001a532:    f3601105    `...    BFI      r1,r0,#4,#2
        0x0001a536:    6031        1`      STR      r1,[r6,#0]
        0x0001a538:    7960        `y      LDRB     r0,[r4,#5]
        0x0001a53a:    2803        .(      CMP      r0,#3
        0x0001a53c:    d808        ..      BHI      0x1a550 ; am_hal_pwrctrl_sram_config + 152
        0x0001a53e:    e8dff000    ....    TBB      [pc,r0]
    $d.7
        0x0001a542:    0b03        ..      DCW    2819
        0x0001a544:    bf00170f    ....    DCD    3204454159
    $t.8
        0x0001a548:    6830        0h      LDR      r0,[r6,#0]
        0x0001a54a:    f0400003    @...    ORR      r0,r0,#3
        0x0001a54e:    6030        0`      STR      r0,[r6,#0]
        0x0001a550:    2000        .       MOVS     r0,#0
        0x0001a552:    b002        ..      ADD      sp,sp,#8
        0x0001a554:    bd70        p.      POP      {r4-r6,pc}
        0x0001a556:    bf00        ..      NOP      
        0x0001a558:    6830        0h      LDR      r0,[r6,#0]
        0x0001a55a:    2102        .!      MOVS     r1,#2
        0x0001a55c:    e002        ..      B        0x1a564 ; am_hal_pwrctrl_sram_config + 172
        0x0001a55e:    bf00        ..      NOP      
        0x0001a560:    6830        0h      LDR      r0,[r6,#0]
        0x0001a562:    2101        .!      MOVS     r1,#1
        0x0001a564:    f3610001    a...    BFI      r0,r1,#0,#2
        0x0001a568:    6030        0`      STR      r0,[r6,#0]
        0x0001a56a:    2000        .       MOVS     r0,#0
        0x0001a56c:    b002        ..      ADD      sp,sp,#8
        0x0001a56e:    bd70        p.      POP      {r4-r6,pc}
        0x0001a570:    6830        0h      LDR      r0,[r6,#0]
        0x0001a572:    f0200003     ...    BIC      r0,r0,#3
        0x0001a576:    6030        0`      STR      r0,[r6,#0]
        0x0001a578:    2000        .       MOVS     r0,#0
        0x0001a57a:    b002        ..      ADD      sp,sp,#8
        0x0001a57c:    bd70        p.      POP      {r4-r6,pc}
        0x0001a57e:    0000        ..      MOVS     r0,r0
    am_hal_rtc_osc_disable
        0x0001a580:    f6440100    D...    MOVW     r1,#0x4800
        0x0001a584:    f2c40100    ....    MOVT     r1,#0x4000
        0x0001a588:    6808        .h      LDR      r0,[r1,#0]
        0x0001a58a:    f0400210    @...    ORR      r2,r0,#0x10
        0x0001a58e:    2000        .       MOVS     r0,#0
        0x0001a590:    600a        .`      STR      r2,[r1,#0]
        0x0001a592:    4770        pG      BX       lr
    am_hal_sysctrl_sleep
        0x0001a594:    b570        p.      PUSH     {r4-r6,lr}
        0x0001a596:    b082        ..      SUB      sp,sp,#8
        0x0001a598:    a901        ..      ADD      r1,sp,#4
        0x0001a59a:    f1b15f80    ..._    CMP      r1,#0x10000000
        0x0001a59e:    d32f        /.      BCC      0x1a600 ; am_hal_sysctrl_sleep + 108
        0x0001a5a0:    4604        .F      MOV      r4,r0
        0x0001a5a2:    2000        .       MOVS     r0,#0
        0x0001a5a4:    f2c10006    ....    MOVT     r0,#0x1006
        0x0001a5a8:    4281        .B      CMP      r1,r0
        0x0001a5aa:    d229        ).      BCS      0x1a600 ; am_hal_sysctrl_sleep + 108
        0x0001a5ac:    f2410608    A...    MOV      r6,#0x1008
        0x0001a5b0:    f2c40602    ....    MOVT     r6,#0x4002
        0x0001a5b4:    f7fefd90    ....    BL       am_hal_interrupt_master_disable ; 0x190d8
        0x0001a5b8:    9000        ..      STR      r0,[sp,#0]
        0x0001a5ba:    f8d60100    ....    LDR      r0,[r6,#0x100]
        0x0001a5be:    b30c        ..      CBZ      r4,0x1a604 ; am_hal_sysctrl_sleep + 112
        0x0001a5c0:    f2403480    @..4    MOVW     r4,#0x380
        0x0001a5c4:    f64f61d0    O..a    MOV      r1,#0xfed0
        0x0001a5c8:    f2c40402    ....    MOVT     r4,#0x4002
        0x0001a5cc:    f6cf71ff    ...q    MOVT     r1,#0xffff
        0x0001a5d0:    5861        aX      LDR      r1,[r4,r1]
        0x0001a5d2:    07c9        ..      LSLS     r1,r1,#31
        0x0001a5d4:    d116        ..      BNE      0x1a604 ; am_hal_sysctrl_sleep + 112
        0x0001a5d6:    f0000030    ..0.    AND      r0,r0,#0x30
        0x0001a5da:    f64e5510    N..U    MOV      r5,#0xed10
        0x0001a5de:    2830        0(      CMP      r0,#0x30
        0x0001a5e0:    f2ce0500    ....    MOVT     r5,#0xe000
        0x0001a5e4:    d105        ..      BNE      0x1a5f2 ; am_hal_sysctrl_sleep + 94
        0x0001a5e6:    68b0        .h      LDR      r0,[r6,#8]
        0x0001a5e8:    0540        @.      LSLS     r0,r0,#21
        0x0001a5ea:    d402        ..      BMI      0x1a5f2 ; am_hal_sysctrl_sleep + 94
        0x0001a5ec:    6830        0h      LDR      r0,[r6,#0]
        0x0001a5ee:    01c0        ..      LSLS     r0,r0,#7
        0x0001a5f0:    d01c        ..      BEQ      0x1a62c ; am_hal_sysctrl_sleep + 152
        0x0001a5f2:    6828        (h      LDR      r0,[r5,#0]
        0x0001a5f4:    2100        .!      MOVS     r1,#0
        0x0001a5f6:    f0400004    @...    ORR      r0,r0,#4
        0x0001a5fa:    6028        (`      STR      r0,[r5,#0]
        0x0001a5fc:    2001        .       MOVS     r0,#1
        0x0001a5fe:    e00b        ..      B        0x1a618 ; am_hal_sysctrl_sleep + 132
        0x0001a600:    e7fe        ..      B        0x1a600 ; am_hal_sysctrl_sleep + 108
        0x0001a602:    bf00        ..      NOP      
        0x0001a604:    f64e5010    N..P    MOV      r0,#0xed10
        0x0001a608:    f2ce0000    ....    MOVT     r0,#0xe000
        0x0001a60c:    6801        .h      LDR      r1,[r0,#0]
        0x0001a60e:    f0210104    !...    BIC      r1,r1,#4
        0x0001a612:    6001        .`      STR      r1,[r0,#0]
        0x0001a614:    2001        .       MOVS     r0,#1
        0x0001a616:    2100        .!      MOVS     r1,#0
        0x0001a618:    f7fefb5e    ..^.    BL       am_hal_daxi_control ; 0x18cd8
        0x0001a61c:    bf30        0.      WFI      
        0x0001a61e:    f3bf8f6f    ..o.    ISB      
        0x0001a622:    9800        ..      LDR      r0,[sp,#0]
        0x0001a624:    f7fefd60    ..`.    BL       am_hal_interrupt_master_set ; 0x190e8
        0x0001a628:    b002        ..      ADD      sp,sp,#8
        0x0001a62a:    bd70        p.      POP      {r4-r6,pc}
        0x0001a62c:    f2400004    @...    MOVW     r0,#4
        0x0001a630:    f2c10000    ....    MOVT     r0,#0x1000
        0x0001a634:    6800        .h      LDR      r0,[r0,#0]
        0x0001a636:    f8541c10    T...    LDR      r1,[r4,#-0x10]
        0x0001a63a:    f3605119    `..Q    BFI      r1,r0,#20,#6
        0x0001a63e:    f8441c10    D...    STR      r1,[r4,#-0x10]
        0x0001a642:    6820         h      LDR      r0,[r4,#0]
        0x0001a644:    f0204000     ..@    BIC      r0,r0,#0x80000000
        0x0001a648:    6020         `      STR      r0,[r4,#0]
        0x0001a64a:    6820         h      LDR      r0,[r4,#0]
        0x0001a64c:    f0204080     ..@    BIC      r0,r0,#0x40000000
        0x0001a650:    6020         `      STR      r0,[r4,#0]
        0x0001a652:    2000        .       MOVS     r0,#0
        0x0001a654:    f000f972    ..r.    BL       buck_ldo_update_override ; 0x1a93c
        0x0001a658:    6828        (h      LDR      r0,[r5,#0]
        0x0001a65a:    2100        .!      MOVS     r1,#0
        0x0001a65c:    f0400004    @...    ORR      r0,r0,#4
        0x0001a660:    6028        (`      STR      r0,[r5,#0]
        0x0001a662:    2001        .       MOVS     r0,#1
        0x0001a664:    f7fefb38    ..8.    BL       am_hal_daxi_control ; 0x18cd8
        0x0001a668:    bf30        0.      WFI      
        0x0001a66a:    2001        .       MOVS     r0,#1
        0x0001a66c:    f3bf8f6f    ..o.    ISB      
        0x0001a670:    f000f964    ..d.    BL       buck_ldo_update_override ; 0x1a93c
        0x0001a674:    6820         h      LDR      r0,[r4,#0]
        0x0001a676:    f0404000    @..@    ORR      r0,r0,#0x80000000
        0x0001a67a:    6020         `      STR      r0,[r4,#0]
        0x0001a67c:    6820         h      LDR      r0,[r4,#0]
        0x0001a67e:    f0404080    @..@    ORR      r0,r0,#0x40000000
        0x0001a682:    6020         `      STR      r0,[r4,#0]
        0x0001a684:    f8540c10    T...    LDR      r0,[r4,#-0x10]
        0x0001a688:    f020707c     .|p    BIC      r0,r0,#0x3f00000
        0x0001a68c:    f8440c10    D...    STR      r0,[r4,#-0x10]
        0x0001a690:    9800        ..      LDR      r0,[sp,#0]
        0x0001a692:    f7fefd29    ..).    BL       am_hal_interrupt_master_set ; 0x190e8
        0x0001a696:    b002        ..      ADD      sp,sp,#8
        0x0001a698:    bd70        p.      POP      {r4-r6,pc}
        0x0001a69a:    0000        ..      MOVS     r0,r0
    am_hal_timer_clear
        0x0001a69c:    b510        ..      PUSH     {r4,lr}
        0x0001a69e:    b082        ..      SUB      sp,sp,#8
        0x0001a6a0:    4604        .F      MOV      r4,r0
        0x0001a6a2:    f7fefd19    ....    BL       am_hal_interrupt_master_disable ; 0x190d8
        0x0001a6a6:    f2482100    H..!    MOVW     r1,#0x8200
        0x0001a6aa:    9001        ..      STR      r0,[sp,#4]
        0x0001a6ac:    0160        `.      LSLS     r0,r4,#5
        0x0001a6ae:    f2c40100    ....    MOVT     r1,#0x4000
        0x0001a6b2:    580a        .X      LDR      r2,[r1,r0]
        0x0001a6b4:    f0220201    "...    BIC      r2,r2,#1
        0x0001a6b8:    500a        .P      STR      r2,[r1,r0]
        0x0001a6ba:    580a        .X      LDR      r2,[r1,r0]
        0x0001a6bc:    f0420202    B...    ORR      r2,r2,#2
        0x0001a6c0:    500a        .P      STR      r2,[r1,r0]
        0x0001a6c2:    580a        .X      LDR      r2,[r1,r0]
        0x0001a6c4:    f0220202    "...    BIC      r2,r2,#2
        0x0001a6c8:    500a        .P      STR      r2,[r1,r0]
        0x0001a6ca:    580a        .X      LDR      r2,[r1,r0]
        0x0001a6cc:    f0420201    B...    ORR      r2,r2,#1
        0x0001a6d0:    500a        .P      STR      r2,[r1,r0]
        0x0001a6d2:    9801        ..      LDR      r0,[sp,#4]
        0x0001a6d4:    f7fefd08    ....    BL       am_hal_interrupt_master_set ; 0x190e8
        0x0001a6d8:    2000        .       MOVS     r0,#0
        0x0001a6da:    b002        ..      ADD      sp,sp,#8
        0x0001a6dc:    bd10        ..      POP      {r4,pc}
        0x0001a6de:    0000        ..      MOVS     r0,r0
    am_hal_timer_config
        0x0001a6e0:    f000bd26    ..&.    B.W      internal_timer_config ; 0x1b130
    am_hal_timer_default_config_set
        0x0001a6e4:    4601        .F      MOV      r1,r0
        0x0001a6e6:    f2401001    @...    MOV      r0,#0x101
        0x0001a6ea:    8008        ..      STRH     r0,[r1,#0]
        0x0001a6ec:    f04f7080    O..p    MOV      r0,#0x1000000
        0x0001a6f0:    f04f32ff    O..2    MOV      r2,#0xffffffff
        0x0001a6f4:    f8c10002    ....    STR      r0,[r1,#2]
        0x0001a6f8:    2000        .       MOVS     r0,#0
        0x0001a6fa:    e9c10202    ....    STRD     r0,r2,[r1,#8]
        0x0001a6fe:    2000        .       MOVS     r0,#0
        0x0001a700:    610a        .a      STR      r2,[r1,#0x10]
        0x0001a702:    4770        pG      BX       lr
    am_hal_timer_disable
        0x0001a704:    b510        ..      PUSH     {r4,lr}
        0x0001a706:    b082        ..      SUB      sp,sp,#8
        0x0001a708:    4604        .F      MOV      r4,r0
        0x0001a70a:    f7fefce5    ....    BL       am_hal_interrupt_master_disable ; 0x190d8
        0x0001a70e:    f2482100    H..!    MOVW     r1,#0x8200
        0x0001a712:    9001        ..      STR      r0,[sp,#4]
        0x0001a714:    0160        `.      LSLS     r0,r4,#5
        0x0001a716:    f2c40100    ....    MOVT     r1,#0x4000
        0x0001a71a:    580a        .X      LDR      r2,[r1,r0]
        0x0001a71c:    f0220201    "...    BIC      r2,r2,#1
        0x0001a720:    500a        .P      STR      r2,[r1,r0]
        0x0001a722:    9801        ..      LDR      r0,[sp,#4]
        0x0001a724:    f7fefce0    ....    BL       am_hal_interrupt_master_set ; 0x190e8
        0x0001a728:    2000        .       MOVS     r0,#0
        0x0001a72a:    b002        ..      ADD      sp,sp,#8
        0x0001a72c:    bd10        ..      POP      {r4,pc}
        0x0001a72e:    0000        ..      MOVS     r0,r0
    am_hal_timer_enable
        0x0001a730:    b510        ..      PUSH     {r4,lr}
        0x0001a732:    b082        ..      SUB      sp,sp,#8
        0x0001a734:    4604        .F      MOV      r4,r0
        0x0001a736:    f7fefccf    ....    BL       am_hal_interrupt_master_disable ; 0x190d8
        0x0001a73a:    f2480110    H...    MOV      r1,#0x8010
        0x0001a73e:    9001        ..      STR      r0,[sp,#4]
        0x0001a740:    f2c40100    ....    MOVT     r1,#0x4000
        0x0001a744:    2001        .       MOVS     r0,#1
        0x0001a746:    680a        .h      LDR      r2,[r1,#0]
        0x0001a748:    40a0        .@      LSLS     r0,r0,r4
        0x0001a74a:    4310        .C      ORRS     r0,r0,r2
        0x0001a74c:    6008        .`      STR      r0,[r1,#0]
        0x0001a74e:    eb011044    ..D.    ADD      r0,r1,r4,LSL #5
        0x0001a752:    f8d011f0    ....    LDR      r1,[r0,#0x1f0]
        0x0001a756:    f0410102    A...    ORR      r1,r1,#2
        0x0001a75a:    f8c011f0    ....    STR      r1,[r0,#0x1f0]
        0x0001a75e:    f8d011f0    ....    LDR      r1,[r0,#0x1f0]
        0x0001a762:    f0210102    !...    BIC      r1,r1,#2
        0x0001a766:    f8c011f0    ....    STR      r1,[r0,#0x1f0]
        0x0001a76a:    f8d011f0    ....    LDR      r1,[r0,#0x1f0]
        0x0001a76e:    f0410101    A...    ORR      r1,r1,#1
        0x0001a772:    f8c011f0    ....    STR      r1,[r0,#0x1f0]
        0x0001a776:    9801        ..      LDR      r0,[sp,#4]
        0x0001a778:    f7fefcb6    ....    BL       am_hal_interrupt_master_set ; 0x190e8
        0x0001a77c:    2000        .       MOVS     r0,#0
        0x0001a77e:    b002        ..      ADD      sp,sp,#8
        0x0001a780:    bd10        ..      POP      {r4,pc}
        0x0001a782:    0000        ..      MOVS     r0,r0
    am_hal_timer_interrupt_clear
        0x0001a784:    f2480268    H.h.    MOV      r2,#0x8068
        0x0001a788:    4601        .F      MOV      r1,r0
        0x0001a78a:    f2c40200    ....    MOVT     r2,#0x4000
        0x0001a78e:    2000        .       MOVS     r0,#0
        0x0001a790:    6011        .`      STR      r1,[r2,#0]
        0x0001a792:    4770        pG      BX       lr
    am_hal_timer_interrupt_disable
        0x0001a794:    f2480160    H.`.    MOV      r1,#0x8060
        0x0001a798:    f2c40100    ....    MOVT     r1,#0x4000
        0x0001a79c:    680a        .h      LDR      r2,[r1,#0]
        0x0001a79e:    4382        .C      BICS     r2,r2,r0
        0x0001a7a0:    2000        .       MOVS     r0,#0
        0x0001a7a2:    600a        .`      STR      r2,[r1,#0]
        0x0001a7a4:    4770        pG      BX       lr
        0x0001a7a6:    0000        ..      MOVS     r0,r0
    am_hal_timer_interrupt_enable
        0x0001a7a8:    f2480160    H.`.    MOV      r1,#0x8060
        0x0001a7ac:    f2c40100    ....    MOVT     r1,#0x4000
        0x0001a7b0:    680a        .h      LDR      r2,[r1,#0]
        0x0001a7b2:    4302        .C      ORRS     r2,r2,r0
        0x0001a7b4:    2000        .       MOVS     r0,#0
        0x0001a7b6:    600a        .`      STR      r2,[r1,#0]
        0x0001a7b8:    4770        pG      BX       lr
        0x0001a7ba:    0000        ..      MOVS     r0,r0
    am_iomaster7_isr
        0x0001a7bc:    b580        ..      PUSH     {r7,lr}
        0x0001a7be:    b082        ..      SUB      sp,sp,#8
        0x0001a7c0:    f6442084    D..     MOV      r0,#0x4a84
        0x0001a7c4:    f2c10000    ....    MOVT     r0,#0x1000
        0x0001a7c8:    6800        .h      LDR      r0,[r0,#0]
        0x0001a7ca:    2101        .!      MOVS     r1,#1
        0x0001a7cc:    aa01        ..      ADD      r2,sp,#4
        0x0001a7ce:    f7fff83b    ..;.    BL       am_hal_iom_interrupt_status_get ; 0x19848
        0x0001a7d2:    b998        ..      CBNZ     r0,0x1a7fc ; am_iomaster7_isr + 64
        0x0001a7d4:    e7ff        ..      B        0x1a7d6 ; am_iomaster7_isr + 26
        0x0001a7d6:    9801        ..      LDR      r0,[sp,#4]
        0x0001a7d8:    b178        x.      CBZ      r0,0x1a7fa ; am_iomaster7_isr + 62
        0x0001a7da:    e7ff        ..      B        0x1a7dc ; am_iomaster7_isr + 32
        0x0001a7dc:    f6442084    D..     MOV      r0,#0x4a84
        0x0001a7e0:    f2c10000    ....    MOVT     r0,#0x1000
        0x0001a7e4:    9000        ..      STR      r0,[sp,#0]
        0x0001a7e6:    6800        .h      LDR      r0,[r0,#0]
        0x0001a7e8:    9901        ..      LDR      r1,[sp,#4]
        0x0001a7ea:    f7fefead    ....    BL       am_hal_iom_interrupt_clear ; 0x19548
        0x0001a7ee:    9800        ..      LDR      r0,[sp,#0]
        0x0001a7f0:    6800        .h      LDR      r0,[r0,#0]
        0x0001a7f2:    9901        ..      LDR      r1,[sp,#4]
        0x0001a7f4:    f7fefebe    ....    BL       am_hal_iom_interrupt_service ; 0x19574
        0x0001a7f8:    e7ff        ..      B        0x1a7fa ; am_iomaster7_isr + 62
        0x0001a7fa:    e7ff        ..      B        0x1a7fc ; am_iomaster7_isr + 64
        0x0001a7fc:    b002        ..      ADD      sp,sp,#8
        0x0001a7fe:    bd80        ..      POP      {r7,pc}
    am_timer00_isr
        0x0001a800:    b580        ..      PUSH     {r7,lr}
        0x0001a802:    2002        .       MOVS     r0,#2
        0x0001a804:    f7ffffbe    ....    BL       am_hal_timer_interrupt_clear ; 0x1a784
        0x0001a808:    2000        .       MOVS     r0,#0
        0x0001a80a:    f7ffff47    ..G.    BL       am_hal_timer_clear ; 0x1a69c
        0x0001a80e:    f24820e4    H..     MOV      r0,#0x82e4
        0x0001a812:    f2c10000    ....    MOVT     r0,#0x1000
        0x0001a816:    6800        .h      LDR      r0,[r0,#0]
        0x0001a818:    b138        8.      CBZ      r0,0x1a82a ; am_timer00_isr + 42
        0x0001a81a:    e7ff        ..      B        0x1a81c ; am_timer00_isr + 28
        0x0001a81c:    f24820e4    H..     MOV      r0,#0x82e4
        0x0001a820:    f2c10000    ....    MOVT     r0,#0x1000
        0x0001a824:    6800        .h      LDR      r0,[r0,#0]
        0x0001a826:    4780        .G      BLX      r0
        0x0001a828:    e7ff        ..      B        0x1a82a ; am_timer00_isr + 42
        0x0001a82a:    bd80        ..      POP      {r7,pc}
    am_util_faultisr_collect_data
        0x0001a82c:    b580        ..      PUSH     {r7,lr}
        0x0001a82e:    b096        ..      SUB      sp,sp,#0x58
        0x0001a830:    9015        ..      STR      r0,[sp,#0x54]
        0x0001a832:    2000        .       MOVS     r0,#0
        0x0001a834:    9008        ..      STR      r0,[sp,#0x20]
        0x0001a836:    9007        ..      STR      r0,[sp,#0x1c]
        0x0001a838:    9006        ..      STR      r0,[sp,#0x18]
        0x0001a83a:    9005        ..      STR      r0,[sp,#0x14]
        0x0001a83c:    9004        ..      STR      r0,[sp,#0x10]
        0x0001a83e:    9003        ..      STR      r0,[sp,#0xc]
        0x0001a840:    9002        ..      STR      r0,[sp,#8]
        0x0001a842:    9802        ..      LDR      r0,[sp,#8]
        0x0001a844:    9013        ..      STR      r0,[sp,#0x4c]
        0x0001a846:    f64e5028    N.(P    MOV      r0,#0xed28
        0x0001a84a:    f2ce0000    ....    MOVT     r0,#0xe000
        0x0001a84e:    6800        .h      LDR      r0,[r0,#0]
        0x0001a850:    9013        ..      STR      r0,[sp,#0x4c]
        0x0001a852:    9813        ..      LDR      r0,[sp,#0x4c]
        0x0001a854:    f88d0050    ..P.    STRB     r0,[sp,#0x50]
        0x0001a858:    9813        ..      LDR      r0,[sp,#0x4c]
        0x0001a85a:    0a00        ..      LSRS     r0,r0,#8
        0x0001a85c:    f88d0051    ..Q.    STRB     r0,[sp,#0x51]
        0x0001a860:    9813        ..      LDR      r0,[sp,#0x4c]
        0x0001a862:    0c00        ..      LSRS     r0,r0,#16
        0x0001a864:    f8ad0052    ..R.    STRH     r0,[sp,#0x52]
        0x0001a868:    f64e5038    N.8P    MOV      r0,#0xed38
        0x0001a86c:    f2ce0000    ....    MOVT     r0,#0xe000
        0x0001a870:    6800        .h      LDR      r0,[r0,#0]
        0x0001a872:    9012        ..      STR      r0,[sp,#0x48]
        0x0001a874:    9815        ..      LDR      r0,[sp,#0x54]
        0x0001a876:    f000f845    ..E.    BL       am_valid_sp ; 0x1a904
        0x0001a87a:    b3d8        ..      CBZ      r0,0x1a8f4 ; am_util_faultisr_collect_data + 200
        0x0001a87c:    e7ff        ..      B        0x1a87e ; am_util_faultisr_collect_data + 82
        0x0001a87e:    f89d0051    ..Q.    LDRB     r0,[sp,#0x51]
        0x0001a882:    0780        ..      LSLS     r0,r0,#30
        0x0001a884:    2800        .(      CMP      r0,#0
        0x0001a886:    d506        ..      BPL      0x1a896 ; am_util_faultisr_collect_data + 106
        0x0001a888:    e7ff        ..      B        0x1a88a ; am_util_faultisr_collect_data + 94
        0x0001a88a:    9915        ..      LDR      r1,[sp,#0x54]
        0x0001a88c:    2006        .       MOVS     r0,#6
        0x0001a88e:    f7fdff9d    ....    BL       am_getStackedReg ; 0x187cc
        0x0001a892:    9001        ..      STR      r0,[sp,#4]
        0x0001a894:    e003        ..      B        0x1a89e ; am_util_faultisr_collect_data + 114
        0x0001a896:    f04f30ff    O..0    MOV      r0,#0xffffffff
        0x0001a89a:    9001        ..      STR      r0,[sp,#4]
        0x0001a89c:    e7ff        ..      B        0x1a89e ; am_util_faultisr_collect_data + 114
        0x0001a89e:    9801        ..      LDR      r0,[sp,#4]
        0x0001a8a0:    9011        ..      STR      r0,[sp,#0x44]
        0x0001a8a2:    9915        ..      LDR      r1,[sp,#0x54]
        0x0001a8a4:    2000        .       MOVS     r0,#0
        0x0001a8a6:    f7fdff91    ....    BL       am_getStackedReg ; 0x187cc
        0x0001a8aa:    9009        ..      STR      r0,[sp,#0x24]
        0x0001a8ac:    9915        ..      LDR      r1,[sp,#0x54]
        0x0001a8ae:    2001        .       MOVS     r0,#1
        0x0001a8b0:    f7fdff8c    ....    BL       am_getStackedReg ; 0x187cc
        0x0001a8b4:    900a        ..      STR      r0,[sp,#0x28]
        0x0001a8b6:    9915        ..      LDR      r1,[sp,#0x54]
        0x0001a8b8:    2002        .       MOVS     r0,#2
        0x0001a8ba:    f7fdff87    ....    BL       am_getStackedReg ; 0x187cc
        0x0001a8be:    900b        ..      STR      r0,[sp,#0x2c]
        0x0001a8c0:    9915        ..      LDR      r1,[sp,#0x54]
        0x0001a8c2:    2003        .       MOVS     r0,#3
        0x0001a8c4:    f7fdff82    ....    BL       am_getStackedReg ; 0x187cc
        0x0001a8c8:    900c        ..      STR      r0,[sp,#0x30]
        0x0001a8ca:    9915        ..      LDR      r1,[sp,#0x54]
        0x0001a8cc:    2004        .       MOVS     r0,#4
        0x0001a8ce:    f7fdff7d    ..}.    BL       am_getStackedReg ; 0x187cc
        0x0001a8d2:    900d        ..      STR      r0,[sp,#0x34]
        0x0001a8d4:    9915        ..      LDR      r1,[sp,#0x54]
        0x0001a8d6:    2005        .       MOVS     r0,#5
        0x0001a8d8:    f7fdff78    ..x.    BL       am_getStackedReg ; 0x187cc
        0x0001a8dc:    900e        ..      STR      r0,[sp,#0x38]
        0x0001a8de:    9915        ..      LDR      r1,[sp,#0x54]
        0x0001a8e0:    2006        .       MOVS     r0,#6
        0x0001a8e2:    f7fdff73    ..s.    BL       am_getStackedReg ; 0x187cc
        0x0001a8e6:    900f        ..      STR      r0,[sp,#0x3c]
        0x0001a8e8:    9915        ..      LDR      r1,[sp,#0x54]
        0x0001a8ea:    2007        .       MOVS     r0,#7
        0x0001a8ec:    f7fdff6e    ..n.    BL       am_getStackedReg ; 0x187cc
        0x0001a8f0:    9010        ..      STR      r0,[sp,#0x40]
        0x0001a8f2:    e7ff        ..      B        0x1a8f4 ; am_util_faultisr_collect_data + 200
        0x0001a8f4:    a803        ..      ADD      r0,sp,#0xc
        0x0001a8f6:    f7fefb0f    ....    BL       am_hal_fault_status_get ; 0x18f18
        0x0001a8fa:    2000        .       MOVS     r0,#0
        0x0001a8fc:    9002        ..      STR      r0,[sp,#8]
        0x0001a8fe:    e7ff        ..      B        0x1a900 ; am_util_faultisr_collect_data + 212
        0x0001a900:    e7fe        ..      B        0x1a900 ; am_util_faultisr_collect_data + 212
        0x0001a902:    0000        ..      MOVS     r0,r0
    am_valid_sp
        0x0001a904:    b082        ..      SUB      sp,sp,#8
        0x0001a906:    9000        ..      STR      r0,[sp,#0]
        0x0001a908:    9800        ..      LDR      r0,[sp,#0]
        0x0001a90a:    f1b05f80    ..._    CMP      r0,#0x10000000
        0x0001a90e:    d30c        ..      BCC      0x1a92a ; am_valid_sp + 38
        0x0001a910:    e7ff        ..      B        0x1a912 ; am_valid_sp + 14
        0x0001a912:    9800        ..      LDR      r0,[sp,#0]
        0x0001a914:    f64f71ff    O..q    MOV      r1,#0xffff
        0x0001a918:    f2c1012b    ..+.    MOVT     r1,#0x102b
        0x0001a91c:    4288        .B      CMP      r0,r1
        0x0001a91e:    d804        ..      BHI      0x1a92a ; am_valid_sp + 38
        0x0001a920:    e7ff        ..      B        0x1a922 ; am_valid_sp + 30
        0x0001a922:    2001        .       MOVS     r0,#1
        0x0001a924:    f88d0007    ....    STRB     r0,[sp,#7]
        0x0001a928:    e003        ..      B        0x1a932 ; am_valid_sp + 46
        0x0001a92a:    2000        .       MOVS     r0,#0
        0x0001a92c:    f88d0007    ....    STRB     r0,[sp,#7]
        0x0001a930:    e7ff        ..      B        0x1a932 ; am_valid_sp + 46
        0x0001a932:    f89d0007    ....    LDRB     r0,[sp,#7]
        0x0001a936:    b002        ..      ADD      sp,sp,#8
        0x0001a938:    4770        pG      BX       lr
        0x0001a93a:    0000        ..      MOVS     r0,r0
    buck_ldo_update_override
        0x0001a93c:    2160        `!      MOVS     r1,#0x60
        0x0001a93e:    f2c40102    ....    MOVT     r1,#0x4002
        0x0001a942:    680a        .h      LDR      r2,[r1,#0]
        0x0001a944:    f4223280    "..2    BIC      r2,r2,#0x10000
        0x0001a948:    f3604210    `..B    BFI      r2,r0,#16,#1
        0x0001a94c:    600a        .`      STR      r2,[r1,#0]
        0x0001a94e:    680a        .h      LDR      r2,[r1,#0]
        0x0001a950:    f0220201    "...    BIC      r2,r2,#1
        0x0001a954:    4402        .D      ADD      r2,r2,r0
        0x0001a956:    600a        .`      STR      r2,[r1,#0]
        0x0001a958:    680a        .h      LDR      r2,[r1,#0]
        0x0001a95a:    f0220220    ". .    BIC      r2,r2,#0x20
        0x0001a95e:    f3601245    `.E.    BFI      r2,r0,#5,#1
        0x0001a962:    600a        .`      STR      r2,[r1,#0]
        0x0001a964:    4770        pG      BX       lr
        0x0001a966:    0000        ..      MOVS     r0,r0
    crypto_boost_trims
        0x0001a968:    e92d43f0    -..C    PUSH     {r4-r9,lr}
        0x0001a96c:    b081        ..      SUB      sp,sp,#4
        0x0001a96e:    f2401910    @...    MOVW     r9,#0x110
        0x0001a972:    f2c10900    ....    MOVT     r9,#0x1000
        0x0001a976:    f8992000    ...     LDRB     r2,[r9,#0]
        0x0001a97a:    4604        .F      MOV      r4,r0
        0x0001a97c:    fab2f082    ....    CLZ      r0,r2
        0x0001a980:    0940        @.      LSRS     r0,r0,#5
        0x0001a982:    4060        `@      EORS     r0,r0,r4
        0x0001a984:    bf1c        ..      ITT      NE
        0x0001a986:    b001        ..      ADDNE    sp,sp,#4
        0x0001a988:    e8bd83f0    ....    POPNE    {r4-r9,pc}
        0x0001a98c:    f2400888    @...    MOVW     r8,#0x88
        0x0001a990:    460d        .F      MOV      r5,r1
        0x0001a992:    f2c40802    ....    MOVT     r8,#0x4002
        0x0001a996:    f7fefb9f    ....    BL       am_hal_interrupt_master_disable ; 0x190d8
        0x0001a99a:    9000        ..      STR      r0,[sp,#0]
        0x0001a99c:    f8894000    ...@    STRB     r4,[r9,#0]
        0x0001a9a0:    2c00        .,      CMP      r4,#0
        0x0001a9a2:    bf08        ..      IT       EQ
        0x0001a9a4:    426d        mB      RSBEQ    r5,r5,#0
        0x0001a9a6:    e9d90101    ....    LDRD     r0,r1,[r9,#4]
        0x0001a9aa:    223f        ?"      MOVS     r2,#0x3f
        0x0001a9ac:    4428        (D      ADD      r0,r0,r5
        0x0001a9ae:    283f        ?(      CMP      r0,#0x3f
        0x0001a9b0:    bf38        8.      IT       CC
        0x0001a9b2:    4602        .F      MOVCC    r2,r0
        0x0001a9b4:    0517        ..      LSLS     r7,r2,#20
        0x0001a9b6:    2800        .(      CMP      r0,#0
        0x0001a9b8:    4429        )D      ADD      r1,r1,r5
        0x0001a9ba:    f04f063f    O.?.    MOV      r6,#0x3f
        0x0001a9be:    bf48        H.      IT       MI
        0x0001a9c0:    2700        .'      MOVMI    r7,#0
        0x0001a9c2:    293f        ?)      CMP      r1,#0x3f
        0x0001a9c4:    f8c90004    ....    STR      r0,[r9,#4]
        0x0001a9c8:    bf38        8.      IT       CC
        0x0001a9ca:    460e        .F      MOVCC    r6,r1
        0x0001a9cc:    2900        .)      CMP      r1,#0
        0x0001a9ce:    bf48        H.      IT       MI
        0x0001a9d0:    2600        .&      MOVMI    r6,#0
        0x0001a9d2:    f8c91008    ....    STR      r1,[r9,#8]
        0x0001a9d6:    b18c        ..      CBZ      r4,0x1a9fc ; crypto_boost_trims + 148
        0x0001a9d8:    f8d802e4    ....    LDR      r0,[r8,#0x2e4]
        0x0001a9dc:    f020707c     .|p    BIC      r0,r0,#0x3f00000
        0x0001a9e0:    4338        8C      ORRS     r0,r0,r7
        0x0001a9e2:    f8c802e4    ....    STR      r0,[r8,#0x2e4]
        0x0001a9e6:    2014        .       MOVS     r0,#0x14
        0x0001a9e8:    f7fefa02    ....    BL       am_hal_delay_us ; 0x18df0
        0x0001a9ec:    f8d80000    ....    LDR      r0,[r8,#0]
        0x0001a9f0:    f020003f     .?.    BIC      r0,r0,#0x3f
        0x0001a9f4:    4330        0C      ORRS     r0,r0,r6
        0x0001a9f6:    f8c80000    ....    STR      r0,[r8,#0]
        0x0001a9fa:    e010        ..      B        0x1aa1e ; crypto_boost_trims + 182
        0x0001a9fc:    f8d80000    ....    LDR      r0,[r8,#0]
        0x0001aa00:    f020003f     .?.    BIC      r0,r0,#0x3f
        0x0001aa04:    4330        0C      ORRS     r0,r0,r6
        0x0001aa06:    f8c80000    ....    STR      r0,[r8,#0]
        0x0001aa0a:    2014        .       MOVS     r0,#0x14
        0x0001aa0c:    f7fef9f0    ....    BL       am_hal_delay_us ; 0x18df0
        0x0001aa10:    f8d802e4    ....    LDR      r0,[r8,#0x2e4]
        0x0001aa14:    f020707c     .|p    BIC      r0,r0,#0x3f00000
        0x0001aa18:    4338        8C      ORRS     r0,r0,r7
        0x0001aa1a:    f8c802e4    ....    STR      r0,[r8,#0x2e4]
        0x0001aa1e:    9800        ..      LDR      r0,[sp,#0]
        0x0001aa20:    f7fefb62    ..b.    BL       am_hal_interrupt_master_set ; 0x190e8
        0x0001aa24:    2014        .       MOVS     r0,#0x14
        0x0001aa26:    b001        ..      ADD      sp,sp,#4
        0x0001aa28:    e8bd43f0    ...C    POP      {r4-r9,lr}
        0x0001aa2c:    f7feb9e0    ....    B        am_hal_delay_us ; 0x18df0
    init_pattern
        0x0001aa30:    b580        ..      PUSH     {r7,lr}
        0x0001aa32:    f6442084    D..     MOV      r0,#0x4a84
        0x0001aa36:    f2c10000    ....    MOVT     r0,#0x1000
        0x0001aa3a:    3004        .0      ADDS     r0,#4
        0x0001aa3c:    2101        .!      MOVS     r1,#1
        0x0001aa3e:    f44f6240    O.@b    MOV      r2,#0xc00
        0x0001aa42:    f000ff2b    ..+.    BL       pwrctrl_fill_buff_alternating_bits ; 0x1b89c
        0x0001aa46:    bd80        ..      POP      {r7,pc}
    internal_iom_error_reset_disable_submodule
        0x0001aa48:    e92d4ff0    -..O    PUSH     {r4-r11,lr}
        0x0001aa4c:    b087        ..      SUB      sp,sp,#0x1c
        0x0001aa4e:    4681        .F      MOV      r9,r0
        0x0001aa50:    2500        .%      MOVS     r5,#0
        0x0001aa52:    f8d00864    ..d.    LDR      r0,[r0,#0x864]
        0x0001aa56:    f8d96004    ...`    LDR      r6,[r9,#4]
        0x0001aa5a:    f2c40501    ....    MOVT     r5,#0x4001
        0x0001aa5e:    eb000140    ..@.    ADD      r1,r0,r0,LSL #1
        0x0001aa62:    2800        .(      CMP      r0,#0
        0x0001aa64:    eb053006    ...0    ADD      r0,r5,r6,LSL #12
        0x0001aa68:    f5002480    ...$    ADD      r4,r0,#0x40000
        0x0001aa6c:    f5002080    ...     ADD      r0,r0,#0x40000
        0x0001aa70:    ea4f0841    O.A.    LSL      r8,r1,#1
        0x0001aa74:    f5007112    ...q    ADD      r1,r0,#0x248
        0x0001aa78:    f24a1020    J. .    MOV      r0,#0xa120
        0x0001aa7c:    bf08        ..      IT       EQ
        0x0001aa7e:    f04f0806    O...    MOVEQ    r8,#6
        0x0001aa82:    f8d4a388    ....    LDR      r10,[r4,#0x388]
        0x0001aa86:    2701        .'      MOVS     r7,#1
        0x0001aa88:    f2c00007    ....    MOVT     r0,#7
        0x0001aa8c:    2206        ."      MOVS     r2,#6
        0x0001aa8e:    2304        .#      MOVS     r3,#4
        0x0001aa90:    9700        ..      STR      r7,[sp,#0]
        0x0001aa92:    f7fef9f5    ....    BL       am_hal_delay_us_status_check ; 0x18e80
        0x0001aa96:    f8990008    ....    LDRB     r0,[r9,#8]
        0x0001aa9a:    b308        ..      CBZ      r0,0x1aae0 ; internal_iom_error_reset_disable_submodule + 152
        0x0001aa9c:    f24c0134    L.4.    MOV      r1,#0xc034
        0x0001aaa0:    eb060086    ....    ADD      r0,r6,r6,LSL #2
        0x0001aaa4:    f2c00101    ....    MOVT     r1,#1
        0x0001aaa8:    f8312010    1..     LDRH     r2,[r1,r0,LSL #1]
        0x0001aaac:    eb010040    ..@.    ADD      r0,r1,r0,LSL #1
        0x0001aab0:    0913        ..      LSRS     r3,r2,#4
        0x0001aab2:    f8553023    U.#0    LDR      r3,[r5,r3,LSL #2]
        0x0001aab6:    8880        ..      LDRH     r0,[r0,#4]
        0x0001aab8:    ea830102    ....    EOR      r1,r3,r2
        0x0001aabc:    0709        ..      LSLS     r1,r1,#28
        0x0001aabe:    9301        ..      STR      r3,[sp,#4]
        0x0001aac0:    ea4f1110    O...    LSR      r1,r0,#4
        0x0001aac4:    f8551021    U.!.    LDR      r1,[r5,r1,LSL #2]
        0x0001aac8:    f64f77ff    O..w    MOV      r7,#0xffff
        0x0001aacc:    f64f76ff    O..v    MOV      r6,#0xffff
        0x0001aad0:    bf08        ..      IT       EQ
        0x0001aad2:    0917        ..      LSREQ    r7,r2,#4
        0x0001aad4:    9101        ..      STR      r1,[sp,#4]
        0x0001aad6:    4041        A@      EORS     r1,r1,r0
        0x0001aad8:    0709        ..      LSLS     r1,r1,#28
        0x0001aada:    bf08        ..      IT       EQ
        0x0001aadc:    0906        ..      LSREQ    r6,r0,#4
        0x0001aade:    e024        $.      B        0x1ab2a ; internal_iom_error_reset_disable_submodule + 226
        0x0001aae0:    f24c0134    L.4.    MOV      r1,#0xc034
        0x0001aae4:    eb060086    ....    ADD      r0,r6,r6,LSL #2
        0x0001aae8:    f2c00101    ....    MOVT     r1,#1
        0x0001aaec:    eb010040    ..@.    ADD      r0,r1,r0,LSL #1
        0x0001aaf0:    8841        A.      LDRH     r1,[r0,#2]
        0x0001aaf2:    f64f77ff    O..w    MOV      r7,#0xffff
        0x0001aaf6:    090a        ..      LSRS     r2,r1,#4
        0x0001aaf8:    f8552022    U."     LDR      r2,[r5,r2,LSL #2]
        0x0001aafc:    f64f76ff    O..v    MOV      r6,#0xffff
        0x0001ab00:    9201        ..      STR      r2,[sp,#4]
        0x0001ab02:    404a        J@      EORS     r2,r2,r1
        0x0001ab04:    0712        ..      LSLS     r2,r2,#28
        0x0001ab06:    88c2        ..      LDRH     r2,[r0,#6]
        0x0001ab08:    bf08        ..      IT       EQ
        0x0001ab0a:    090f        ..      LSREQ    r7,r1,#4
        0x0001ab0c:    0911        ..      LSRS     r1,r2,#4
        0x0001ab0e:    f8551021    U.!.    LDR      r1,[r5,r1,LSL #2]
        0x0001ab12:    8900        ..      LDRH     r0,[r0,#8]
        0x0001ab14:    9101        ..      STR      r1,[sp,#4]
        0x0001ab16:    4051        Q@      EORS     r1,r1,r2
        0x0001ab18:    0709        ..      LSLS     r1,r1,#28
        0x0001ab1a:    f06f0103    o...    MVN      r1,#3
        0x0001ab1e:    ea010090    ....    AND      r0,r1,r0,LSR #2
        0x0001ab22:    5828        (X      LDR      r0,[r5,r0]
        0x0001ab24:    bf08        ..      IT       EQ
        0x0001ab26:    0916        ..      LSREQ    r6,r2,#4
        0x0001ab28:    9001        ..      STR      r0,[sp,#4]
        0x0001ab2a:    f64b2070    K.p     MOV      r0,#0xba70
        0x0001ab2e:    f2c00001    ....    MOVT     r0,#1
        0x0001ab32:    f8d0b000    ....    LDR      r11,[r0,#0]
        0x0001ab36:    1e78        x.      SUBS     r0,r7,#1
        0x0001ab38:    2500        .%      MOVS     r5,#0
        0x0001ab3a:    287f        .(      CMP      r0,#0x7f
        0x0001ab3c:    f04f0000    O...    MOV      r0,#0
        0x0001ab40:    bf38        8.      IT       CC
        0x0001ab42:    2001        .       MOVCC    r0,#1
        0x0001ab44:    f88d0008    ....    STRB     r0,[sp,#8]
        0x0001ab48:    d207        ..      BCS      0x1ab5a ; internal_iom_error_reset_disable_submodule + 274
        0x0001ab4a:    a901        ..      ADD      r1,sp,#4
        0x0001ab4c:    4638        8F      MOV      r0,r7
        0x0001ab4e:    f7fefa2d    ..-.    BL       am_hal_gpio_pinconfig_get ; 0x18fac
        0x0001ab52:    4638        8F      MOV      r0,r7
        0x0001ab54:    4659        YF      MOV      r1,r11
        0x0001ab56:    f7fef9fd    ....    BL       am_hal_gpio_pinconfig ; 0x18f54
        0x0001ab5a:    1e70        p.      SUBS     r0,r6,#1
        0x0001ab5c:    287f        .(      CMP      r0,#0x7f
        0x0001ab5e:    bf38        8.      IT       CC
        0x0001ab60:    2501        .%      MOVCC    r5,#1
        0x0001ab62:    287e        ~(      CMP      r0,#0x7e
        0x0001ab64:    f88d5010    ...P    STRB     r5,[sp,#0x10]
        0x0001ab68:    d809        ..      BHI      0x1ab7e ; internal_iom_error_reset_disable_submodule + 310
        0x0001ab6a:    a801        ..      ADD      r0,sp,#4
        0x0001ab6c:    f1000108    ....    ADD      r1,r0,#8
        0x0001ab70:    4630        0F      MOV      r0,r6
        0x0001ab72:    f7fefa1b    ....    BL       am_hal_gpio_pinconfig_get ; 0x18fac
        0x0001ab76:    4630        0F      MOV      r0,r6
        0x0001ab78:    4659        YF      MOV      r1,r11
        0x0001ab7a:    f7fef9eb    ....    BL       am_hal_gpio_pinconfig ; 0x18f54
        0x0001ab7e:    2000        .       MOVS     r0,#0
        0x0001ab80:    f88d0018    ....    STRB     r0,[sp,#0x18]
        0x0001ab84:    f8991008    ....    LDRB     r1,[r9,#8]
        0x0001ab88:    f8d4211c    ...!    LDR      r2,[r4,#0x11c]
        0x0001ab8c:    2900        .)      CMP      r1,#0
        0x0001ab8e:    f3c20242    ..B.    UBFX     r2,r2,#1,#3
        0x0001ab92:    bf18        ..      IT       NE
        0x0001ab94:    2101        .!      MOVNE    r1,#1
        0x0001ab96:    428a        .B      CMP      r2,r1
        0x0001ab98:    d005        ..      BEQ      0x1aba6 ; internal_iom_error_reset_disable_submodule + 350
        0x0001ab9a:    f8d4211c    ...!    LDR      r2,[r4,#0x11c]
        0x0001ab9e:    f3c21242    ..B.    UBFX     r2,r2,#5,#3
        0x0001aba2:    428a        .B      CMP      r2,r1
        0x0001aba4:    d149        I.      BNE      0x1ac3a ; internal_iom_error_reset_disable_submodule + 498
        0x0001aba6:    f8c4011c    ....    STR      r0,[r4,#0x11c]
        0x0001abaa:    f8d40110    ....    LDR      r0,[r4,#0x110]
        0x0001abae:    f0200002     ...    BIC      r0,r0,#2
        0x0001abb2:    f8c40110    ....    STR      r0,[r4,#0x110]
        0x0001abb6:    f8d40388    ....    LDR      r0,[r4,#0x388]
        0x0001abba:    f0400002    @...    ORR      r0,r0,#2
        0x0001abbe:    f8c40388    ....    STR      r0,[r4,#0x388]
        0x0001abc2:    4640        @F      MOV      r0,r8
        0x0001abc4:    f7fef914    ....    BL       am_hal_delay_us ; 0x18df0
        0x0001abc8:    f89d0008    ....    LDRB     r0,[sp,#8]
        0x0001abcc:    b118        ..      CBZ      r0,0x1abd6 ; internal_iom_error_reset_disable_submodule + 398
        0x0001abce:    9901        ..      LDR      r1,[sp,#4]
        0x0001abd0:    4638        8F      MOV      r0,r7
        0x0001abd2:    f7fef9bf    ....    BL       am_hal_gpio_pinconfig ; 0x18f54
        0x0001abd6:    f89d0010    ....    LDRB     r0,[sp,#0x10]
        0x0001abda:    b118        ..      CBZ      r0,0x1abe4 ; internal_iom_error_reset_disable_submodule + 412
        0x0001abdc:    9903        ..      LDR      r1,[sp,#0xc]
        0x0001abde:    4630        0F      MOV      r0,r6
        0x0001abe0:    f7fef9b8    ....    BL       am_hal_gpio_pinconfig ; 0x18f54
        0x0001abe4:    f89d0018    ....    LDRB     r0,[sp,#0x18]
        0x0001abe8:    b120         .      CBZ      r0,0x1abf4 ; internal_iom_error_reset_disable_submodule + 428
        0x0001abea:    9905        ..      LDR      r1,[sp,#0x14]
        0x0001abec:    f64f70ff    O..p    MOV      r0,#0xffff
        0x0001abf0:    f7fef9b0    ....    BL       am_hal_gpio_pinconfig ; 0x18f54
        0x0001abf4:    f8c4a388    ....    STR      r10,[r4,#0x388]
        0x0001abf8:    f8d40110    ....    LDR      r0,[r4,#0x110]
        0x0001abfc:    f0400002    @...    ORR      r0,r0,#2
        0x0001ac00:    f8c40110    ....    STR      r0,[r4,#0x110]
        0x0001ac04:    f8990008    ....    LDRB     r0,[r9,#8]
        0x0001ac08:    f8d4111c    ....    LDR      r1,[r4,#0x11c]
        0x0001ac0c:    2800        .(      CMP      r0,#0
        0x0001ac0e:    f3c10142    ..B.    UBFX     r1,r1,#1,#3
        0x0001ac12:    bf18        ..      IT       NE
        0x0001ac14:    2001        .       MOVNE    r0,#1
        0x0001ac16:    4281        .B      CMP      r1,r0
        0x0001ac18:    d106        ..      BNE      0x1ac28 ; internal_iom_error_reset_disable_submodule + 480
        0x0001ac1a:    2001        .       MOVS     r0,#1
        0x0001ac1c:    f8c4011c    ....    STR      r0,[r4,#0x11c]
        0x0001ac20:    b007        ..      ADD      sp,sp,#0x1c
        0x0001ac22:    e8bd8ff0    ....    POP      {r4-r11,pc}
        0x0001ac26:    bf00        ..      NOP      
        0x0001ac28:    f8d4111c    ....    LDR      r1,[r4,#0x11c]
        0x0001ac2c:    f3c11142    ..B.    UBFX     r1,r1,#5,#3
        0x0001ac30:    4281        .B      CMP      r1,r0
        0x0001ac32:    d102        ..      BNE      0x1ac3a ; internal_iom_error_reset_disable_submodule + 498
        0x0001ac34:    2010        .       MOVS     r0,#0x10
        0x0001ac36:    f8c4011c    ....    STR      r0,[r4,#0x11c]
        0x0001ac3a:    b007        ..      ADD      sp,sp,#0x1c
        0x0001ac3c:    e8bd8ff0    ....    POP      {r4-r11,pc}
    internal_iom_get_int_err
        0x0001ac40:    f2402204    @.."    MOVW     r2,#0x204
        0x0001ac44:    0300        ..      LSLS     r0,r0,#12
        0x0001ac46:    f2c40205    ....    MOVT     r2,#0x4005
        0x0001ac4a:    5810        .X      LDR      r0,[r2,r0]
        0x0001ac4c:    4301        .C      ORRS     r1,r1,r0
        0x0001ac4e:    f0110f6c    ..l.    TST      r1,#0x6c
        0x0001ac52:    bf1c        ..      ITT      NE
        0x0001ac54:    f04f6000    O..`    MOVNE    r0,#0x8000000
        0x0001ac58:    4770        pG      BXNE     lr
        0x0001ac5a:    0588        ..      LSLS     r0,r1,#22
        0x0001ac5c:    f2400001    @...    MOVW     r0,#1
        0x0001ac60:    f6c00000    ....    MOVT     r0,#0x800
        0x0001ac64:    bf48        H.      IT       MI
        0x0001ac66:    4770        pG      BXMI     lr
        0x0001ac68:    06ca        ..      LSLS     r2,r1,#27
        0x0001ac6a:    bf44        D.      ITT      MI
        0x0001ac6c:    3001        .0      ADDMI    r0,#1
        0x0001ac6e:    4770        pG      BXMI     lr
        0x0001ac70:    f4114090    ...@    ANDS     r0,r1,#0x4800
        0x0001ac74:    bf18        ..      IT       NE
        0x0001ac76:    2001        .       MOVNE    r0,#1
        0x0001ac78:    4770        pG      BX       lr
        0x0001ac7a:    0000        ..      MOVS     r0,r0
    internal_iom_reset_on_error
        0x0001ac7c:    e92d4ff0    -..O    PUSH     {r4-r11,lr}
        0x0001ac80:    b089        ..      SUB      sp,sp,#0x24
        0x0001ac82:    4680        .F      MOV      r8,r0
        0x0001ac84:    6840        @h      LDR      r0,[r0,#4]
        0x0001ac86:    2600        .&      MOVS     r6,#0
        0x0001ac88:    f2c40601    ....    MOVT     r6,#0x4001
        0x0001ac8c:    eb063000    ...0    ADD      r0,r6,r0,LSL #12
        0x0001ac90:    f5002480    ...$    ADD      r4,r0,#0x40000
        0x0001ac94:    f8d4b200    ....    LDR      r11,[r4,#0x200]
        0x0001ac98:    460d        .F      MOV      r5,r1
        0x0001ac9a:    2000        .       MOVS     r0,#0
        0x0001ac9c:    0509        ..      LSLS     r1,r1,#20
        0x0001ac9e:    f8c40200    ....    STR      r0,[r4,#0x200]
        0x0001aca2:    f1408089    @...    BPL.W    0x1adb8 ; internal_iom_reset_on_error + 316
        0x0001aca6:    f8d40218    ....    LDR      r0,[r4,#0x218]
        0x0001acaa:    0780        ..      LSLS     r0,r0,#30
        0x0001acac:    d456        V.      BMI      0x1ad5c ; internal_iom_reset_on_error + 224
        0x0001acae:    f8d40248    ..H.    LDR      r0,[r4,#0x248]
        0x0001acb2:    f5047112    ...q    ADD      r1,r4,#0x248
        0x0001acb6:    0780        ..      LSLS     r0,r0,#30
        0x0001acb8:    d410        ..      BMI      0x1acdc ; internal_iom_reset_on_error + 96
        0x0001acba:    f24a1020    J. .    MOV      r0,#0xa120
        0x0001acbe:    2701        .'      MOVS     r7,#1
        0x0001acc0:    f2c00007    ....    MOVT     r0,#7
        0x0001acc4:    2206        ."      MOVS     r2,#6
        0x0001acc6:    2304        .#      MOVS     r3,#4
        0x0001acc8:    9700        ..      STR      r7,[sp,#0]
        0x0001acca:    f7fef8d9    ....    BL       am_hal_delay_us_status_check ; 0x18e80
        0x0001acce:    2800        .(      CMP      r0,#0
        0x0001acd0:    d172        r.      BNE      0x1adb8 ; internal_iom_reset_on_error + 316
        0x0001acd2:    e027        '.      B        0x1ad24 ; internal_iom_reset_on_error + 168
        0x0001acd4:    6808        .h      LDR      r0,[r1,#0]
        0x0001acd6:    0780        ..      LSLS     r0,r0,#30
        0x0001acd8:    d5ef        ..      BPL      0x1acba ; internal_iom_reset_on_error + 62
        0x0001acda:    bf00        ..      NOP      
        0x0001acdc:    f8d40100    ....    LDR      r0,[r4,#0x100]
        0x0001ace0:    f4100f7c    ..|.    TST      r0,#0xfc0000
        0x0001ace4:    d0f6        ..      BEQ      0x1acd4 ; internal_iom_reset_on_error + 88
        0x0001ace6:    f8d40108    ....    LDR      r0,[r4,#0x108]
        0x0001acea:    f8d40100    ....    LDR      r0,[r4,#0x100]
        0x0001acee:    f4100f7c    ..|.    TST      r0,#0xfc0000
        0x0001acf2:    d0ef        ..      BEQ      0x1acd4 ; internal_iom_reset_on_error + 88
        0x0001acf4:    f8d40108    ....    LDR      r0,[r4,#0x108]
        0x0001acf8:    f8d40100    ....    LDR      r0,[r4,#0x100]
        0x0001acfc:    f4100f7c    ..|.    TST      r0,#0xfc0000
        0x0001ad00:    d0e8        ..      BEQ      0x1acd4 ; internal_iom_reset_on_error + 88
        0x0001ad02:    f8d40108    ....    LDR      r0,[r4,#0x108]
        0x0001ad06:    f8d40100    ....    LDR      r0,[r4,#0x100]
        0x0001ad0a:    f4100f7c    ..|.    TST      r0,#0xfc0000
        0x0001ad0e:    d0e1        ..      BEQ      0x1acd4 ; internal_iom_reset_on_error + 88
        0x0001ad10:    f8d40108    ....    LDR      r0,[r4,#0x108]
        0x0001ad14:    f8d40100    ....    LDR      r0,[r4,#0x100]
        0x0001ad18:    f4100f7c    ..|.    TST      r0,#0xfc0000
        0x0001ad1c:    d1e3        ..      BNE      0x1ace6 ; internal_iom_reset_on_error + 106
        0x0001ad1e:    e7d9        ..      B        0x1acd4 ; internal_iom_reset_on_error + 88
        0x0001ad20:    f8d40108    ....    LDR      r0,[r4,#0x108]
        0x0001ad24:    f8d40100    ....    LDR      r0,[r4,#0x100]
        0x0001ad28:    f4100f7c    ..|.    TST      r0,#0xfc0000
        0x0001ad2c:    d044        D.      BEQ      0x1adb8 ; internal_iom_reset_on_error + 316
        0x0001ad2e:    f8d40108    ....    LDR      r0,[r4,#0x108]
        0x0001ad32:    f8d40100    ....    LDR      r0,[r4,#0x100]
        0x0001ad36:    f4100f7c    ..|.    TST      r0,#0xfc0000
        0x0001ad3a:    d03d        =.      BEQ      0x1adb8 ; internal_iom_reset_on_error + 316
        0x0001ad3c:    f8d40108    ....    LDR      r0,[r4,#0x108]
        0x0001ad40:    f8d40100    ....    LDR      r0,[r4,#0x100]
        0x0001ad44:    f4100f7c    ..|.    TST      r0,#0xfc0000
        0x0001ad48:    d036        6.      BEQ      0x1adb8 ; internal_iom_reset_on_error + 316
        0x0001ad4a:    f8d40108    ....    LDR      r0,[r4,#0x108]
        0x0001ad4e:    f8d40100    ....    LDR      r0,[r4,#0x100]
        0x0001ad52:    f4100f7c    ..|.    TST      r0,#0xfc0000
        0x0001ad56:    d1e3        ..      BNE      0x1ad20 ; internal_iom_reset_on_error + 164
        0x0001ad58:    e02e        ..      B        0x1adb8 ; internal_iom_reset_on_error + 316
        0x0001ad5a:    bf00        ..      NOP      
        0x0001ad5c:    f8d4021c    ....    LDR      r0,[r4,#0x21c]
        0x0001ad60:    b1f0        ..      CBZ      r0,0x1ada0 ; internal_iom_reset_on_error + 292
        0x0001ad62:    f64b61ef    K..a    MOV      r1,#0xbeef
        0x0001ad66:    f6cd61ad    ...a    MOVT     r1,#0xdead
        0x0001ad6a:    bf00        ..      NOP      
        0x0001ad6c:    f8d42100    ...!    LDR      r2,[r4,#0x100]
        0x0001ad70:    f4124f7c    ..|O    TST      r2,#0xfc00
        0x0001ad74:    d10e        ..      BNE      0x1ad94 ; internal_iom_reset_on_error + 280
        0x0001ad76:    f8d42100    ...!    LDR      r2,[r4,#0x100]
        0x0001ad7a:    f4124f7c    ..|O    TST      r2,#0xfc00
        0x0001ad7e:    d109        ..      BNE      0x1ad94 ; internal_iom_reset_on_error + 280
        0x0001ad80:    f8d42100    ...!    LDR      r2,[r4,#0x100]
        0x0001ad84:    f4124f7c    ..|O    TST      r2,#0xfc00
        0x0001ad88:    d104        ..      BNE      0x1ad94 ; internal_iom_reset_on_error + 280
        0x0001ad8a:    f8d42100    ...!    LDR      r2,[r4,#0x100]
        0x0001ad8e:    f4124f7c    ..|O    TST      r2,#0xfc00
        0x0001ad92:    d0eb        ..      BEQ      0x1ad6c ; internal_iom_reset_on_error + 240
        0x0001ad94:    2805        .(      CMP      r0,#5
        0x0001ad96:    f8c4110c    ....    STR      r1,[r4,#0x10c]
        0x0001ad9a:    d301        ..      BCC      0x1ada0 ; internal_iom_reset_on_error + 292
        0x0001ad9c:    3804        .8      SUBS     r0,#4
        0x0001ad9e:    e7e5        ..      B        0x1ad6c ; internal_iom_reset_on_error + 240
        0x0001ada0:    f24a1020    J. .    MOV      r0,#0xa120
        0x0001ada4:    f5047112    ...q    ADD      r1,r4,#0x248
        0x0001ada8:    2701        .'      MOVS     r7,#1
        0x0001adaa:    f2c00007    ....    MOVT     r0,#7
        0x0001adae:    2206        ."      MOVS     r2,#6
        0x0001adb0:    2304        .#      MOVS     r3,#4
        0x0001adb2:    9700        ..      STR      r7,[sp,#0]
        0x0001adb4:    f7fef864    ..d.    BL       am_hal_delay_us_status_check ; 0x18e80
        0x0001adb8:    f4157f04    ....    TST      r5,#0x210
        0x0001adbc:    d002        ..      BEQ      0x1adc4 ; internal_iom_reset_on_error + 328
        0x0001adbe:    4640        @F      MOV      r0,r8
        0x0001adc0:    f7fffe42    ..B.    BL       internal_iom_error_reset_disable_submodule ; 0x1aa48
        0x0001adc4:    f8d40248    ..H.    LDR      r0,[r4,#0x248]
        0x0001adc8:    0780        ..      LSLS     r0,r0,#30
        0x0001adca:    f14081a8    @...    BPL.W    0x1b11e ; internal_iom_reset_on_error + 1186
        0x0001adce:    f8d80004    ....    LDR      r0,[r8,#4]
        0x0001add2:    eb063100    ...1    ADD      r1,r6,r0,LSL #12
        0x0001add6:    f5012a80    ...*    ADD      r10,r1,#0x40000
        0x0001adda:    f8da312c    ..,1    LDR      r3,[r10,#0x12c]
        0x0001adde:    f8d81864    ..d.    LDR      r1,[r8,#0x864]
        0x0001ade2:    eb000080    ....    ADD      r0,r0,r0,LSL #2
        0x0001ade6:    eb010241    ..A.    ADD      r2,r1,r1,LSL #1
        0x0001adea:    2900        .)      CMP      r1,#0
        0x0001adec:    f8981008    ....    LDRB     r1,[r8,#8]
        0x0001adf0:    ea4f0942    O.B.    LSL      r9,r2,#1
        0x0001adf4:    bf08        ..      IT       EQ
        0x0001adf6:    f04f0906    O...    MOVEQ    r9,#6
        0x0001adfa:    2900        .)      CMP      r1,#0
        0x0001adfc:    f24c0134    L.4.    MOV      r1,#0xc034
        0x0001ae00:    f2c00101    ....    MOVT     r1,#1
        0x0001ae04:    e9cd3b01    ...;    STRD     r3,r11,[sp,#4]
        0x0001ae08:    d01c        ..      BEQ      0x1ae44 ; internal_iom_reset_on_error + 456
        0x0001ae0a:    f8312010    1..     LDRH     r2,[r1,r0,LSL #1]
        0x0001ae0e:    eb010040    ..@.    ADD      r0,r1,r0,LSL #1
        0x0001ae12:    0913        ..      LSRS     r3,r2,#4
        0x0001ae14:    f8563023    V.#0    LDR      r3,[r6,r3,LSL #2]
        0x0001ae18:    8880        ..      LDRH     r0,[r0,#4]
        0x0001ae1a:    ea830102    ....    EOR      r1,r3,r2
        0x0001ae1e:    0709        ..      LSLS     r1,r1,#28
        0x0001ae20:    f64f77ff    O..w    MOV      r7,#0xffff
        0x0001ae24:    ea4f1110    O...    LSR      r1,r0,#4
        0x0001ae28:    9303        ..      STR      r3,[sp,#0xc]
        0x0001ae2a:    bf08        ..      IT       EQ
        0x0001ae2c:    0917        ..      LSREQ    r7,r2,#4
        0x0001ae2e:    f8561021    V.!.    LDR      r1,[r6,r1,LSL #2]
        0x0001ae32:    f64f76ff    O..v    MOV      r6,#0xffff
        0x0001ae36:    9103        ..      STR      r1,[sp,#0xc]
        0x0001ae38:    4041        A@      EORS     r1,r1,r0
        0x0001ae3a:    0709        ..      LSLS     r1,r1,#28
        0x0001ae3c:    bf08        ..      IT       EQ
        0x0001ae3e:    0906        ..      LSREQ    r6,r0,#4
        0x0001ae40:    e020         .      B        0x1ae84 ; internal_iom_reset_on_error + 520
        0x0001ae42:    bf00        ..      NOP      
        0x0001ae44:    eb010040    ..@.    ADD      r0,r1,r0,LSL #1
        0x0001ae48:    8841        A.      LDRH     r1,[r0,#2]
        0x0001ae4a:    f64f77ff    O..w    MOV      r7,#0xffff
        0x0001ae4e:    090a        ..      LSRS     r2,r1,#4
        0x0001ae50:    f8562022    V."     LDR      r2,[r6,r2,LSL #2]
        0x0001ae54:    4633        3F      MOV      r3,r6
        0x0001ae56:    9203        ..      STR      r2,[sp,#0xc]
        0x0001ae58:    404a        J@      EORS     r2,r2,r1
        0x0001ae5a:    0712        ..      LSLS     r2,r2,#28
        0x0001ae5c:    88c2        ..      LDRH     r2,[r0,#6]
        0x0001ae5e:    bf08        ..      IT       EQ
        0x0001ae60:    090f        ..      LSREQ    r7,r1,#4
        0x0001ae62:    0911        ..      LSRS     r1,r2,#4
        0x0001ae64:    f8561021    V.!.    LDR      r1,[r6,r1,LSL #2]
        0x0001ae68:    8900        ..      LDRH     r0,[r0,#8]
        0x0001ae6a:    9103        ..      STR      r1,[sp,#0xc]
        0x0001ae6c:    4051        Q@      EORS     r1,r1,r2
        0x0001ae6e:    0709        ..      LSLS     r1,r1,#28
        0x0001ae70:    f06f0103    o...    MVN      r1,#3
        0x0001ae74:    ea010090    ....    AND      r0,r1,r0,LSR #2
        0x0001ae78:    5818        .X      LDR      r0,[r3,r0]
        0x0001ae7a:    f64f76ff    O..v    MOV      r6,#0xffff
        0x0001ae7e:    bf08        ..      IT       EQ
        0x0001ae80:    0916        ..      LSREQ    r6,r2,#4
        0x0001ae82:    9003        ..      STR      r0,[sp,#0xc]
        0x0001ae84:    f64b2070    K.p     MOV      r0,#0xba70
        0x0001ae88:    f2c00001    ....    MOVT     r0,#1
        0x0001ae8c:    6805        .h      LDR      r5,[r0,#0]
        0x0001ae8e:    1e78        x.      SUBS     r0,r7,#1
        0x0001ae90:    287f        .(      CMP      r0,#0x7f
        0x0001ae92:    f04f0100    O...    MOV      r1,#0
        0x0001ae96:    f04f0b00    O...    MOV      r11,#0
        0x0001ae9a:    bf38        8.      IT       CC
        0x0001ae9c:    2101        .!      MOVCC    r1,#1
        0x0001ae9e:    287e        ~(      CMP      r0,#0x7e
        0x0001aea0:    f88d1010    ....    STRB     r1,[sp,#0x10]
        0x0001aea4:    d807        ..      BHI      0x1aeb6 ; internal_iom_reset_on_error + 570
        0x0001aea6:    a903        ..      ADD      r1,sp,#0xc
        0x0001aea8:    4638        8F      MOV      r0,r7
        0x0001aeaa:    f7fef87f    ....    BL       am_hal_gpio_pinconfig_get ; 0x18fac
        0x0001aeae:    4638        8F      MOV      r0,r7
        0x0001aeb0:    4629        )F      MOV      r1,r5
        0x0001aeb2:    f7fef84f    ..O.    BL       am_hal_gpio_pinconfig ; 0x18f54
        0x0001aeb6:    1e70        p.      SUBS     r0,r6,#1
        0x0001aeb8:    287f        .(      CMP      r0,#0x7f
        0x0001aeba:    bf38        8.      IT       CC
        0x0001aebc:    f04f0b01    O...    MOVCC    r11,#1
        0x0001aec0:    287e        ~(      CMP      r0,#0x7e
        0x0001aec2:    f88db018    ....    STRB     r11,[sp,#0x18]
        0x0001aec6:    d809        ..      BHI      0x1aedc ; internal_iom_reset_on_error + 608
        0x0001aec8:    a803        ..      ADD      r0,sp,#0xc
        0x0001aeca:    f1000108    ....    ADD      r1,r0,#8
        0x0001aece:    4630        0F      MOV      r0,r6
        0x0001aed0:    f7fef86c    ..l.    BL       am_hal_gpio_pinconfig_get ; 0x18fac
        0x0001aed4:    4630        0F      MOV      r0,r6
        0x0001aed6:    4629        )F      MOV      r1,r5
        0x0001aed8:    f7fef83c    ..<.    BL       am_hal_gpio_pinconfig ; 0x18f54
        0x0001aedc:    2000        .       MOVS     r0,#0
        0x0001aede:    f88d0020    .. .    STRB     r0,[sp,#0x20]
        0x0001aee2:    4648        HF      MOV      r0,r9
        0x0001aee4:    f7fdff84    ....    BL       am_hal_delay_us ; 0x18df0
        0x0001aee8:    f89d0010    ....    LDRB     r0,[sp,#0x10]
        0x0001aeec:    f8ddb008    ....    LDR      r11,[sp,#8]
        0x0001aef0:    b118        ..      CBZ      r0,0x1aefa ; internal_iom_reset_on_error + 638
        0x0001aef2:    9903        ..      LDR      r1,[sp,#0xc]
        0x0001aef4:    4638        8F      MOV      r0,r7
        0x0001aef6:    f7fef82d    ..-.    BL       am_hal_gpio_pinconfig ; 0x18f54
        0x0001aefa:    f89d0018    ....    LDRB     r0,[sp,#0x18]
        0x0001aefe:    b118        ..      CBZ      r0,0x1af08 ; internal_iom_reset_on_error + 652
        0x0001af00:    9905        ..      LDR      r1,[sp,#0x14]
        0x0001af02:    4630        0F      MOV      r0,r6
        0x0001af04:    f7fef826    ..&.    BL       am_hal_gpio_pinconfig ; 0x18f54
        0x0001af08:    f89d0020    .. .    LDRB     r0,[sp,#0x20]
        0x0001af0c:    9e01        ..      LDR      r6,[sp,#4]
        0x0001af0e:    f006051f    ....    AND      r5,r6,#0x1f
        0x0001af12:    b120         .      CBZ      r0,0x1af1e ; internal_iom_reset_on_error + 674
        0x0001af14:    9907        ..      LDR      r1,[sp,#0x1c]
        0x0001af16:    f64f70ff    O..p    MOV      r0,#0xffff
        0x0001af1a:    f7fef81b    ....    BL       am_hal_gpio_pinconfig ; 0x18f54
        0x0001af1e:    2000        .       MOVS     r0,#0
        0x0001af20:    2d01        .-      CMP      r5,#1
        0x0001af22:    f2c40001    ....    MOVT     r0,#0x4001
        0x0001af26:    d15f        _.      BNE      0x1afe8 ; internal_iom_reset_on_error + 876
        0x0001af28:    f3c6250b    ...%    UBFX     r5,r6,#8,#12
        0x0001af2c:    2d00        .-      CMP      r5,#0
        0x0001af2e:    f00080e6    ....    BEQ.W    0x1b0fe ; internal_iom_reset_on_error + 1154
        0x0001af32:    4602        .F      MOV      r2,r0
        0x0001af34:    f8d80864    ..d.    LDR      r0,[r8,#0x864]
        0x0001af38:    f8d81004    ....    LDR      r1,[r8,#4]
        0x0001af3c:    4368        hC      MULS     r0,r5,r0
        0x0001af3e:    eb000080    ....    ADD      r0,r0,r0,LSL #2
        0x0001af42:    f64b66ef    K..f    MOV      r6,#0xbeef
        0x0001af46:    ea5f0880    _...    LSLS     r8,r0,#2
        0x0001af4a:    eb023001    ...0    ADD      r0,r2,r1,LSL #12
        0x0001af4e:    f6cd66ad    ...f    MOVT     r6,#0xdead
        0x0001af52:    f5002780    ...'    ADD      r7,r0,#0x40000
        0x0001af56:    f04f0900    O...    MOV      r9,#0
        0x0001af5a:    bf08        ..      IT       EQ
        0x0001af5c:    f04f0801    O...    MOVEQ    r8,#1
        0x0001af60:    f8d70100    ....    LDR      r0,[r7,#0x100]
        0x0001af64:    f4104f7c    ..|O    TST      r0,#0xfc00
        0x0001af68:    d02c        ,.      BEQ      0x1afc4 ; internal_iom_reset_on_error + 840
        0x0001af6a:    bf00        ..      NOP      
        0x0001af6c:    2d05        .-      CMP      r5,#5
        0x0001af6e:    f8c7610c    ...a    STR      r6,[r7,#0x10c]
        0x0001af72:    db27        '.      BLT      0x1afc4 ; internal_iom_reset_on_error + 840
        0x0001af74:    f8d70100    ....    LDR      r0,[r7,#0x100]
        0x0001af78:    f4104f7c    ..|O    TST      r0,#0xfc00
        0x0001af7c:    d01c        ..      BEQ      0x1afb8 ; internal_iom_reset_on_error + 828
        0x0001af7e:    2d09        .-      CMP      r5,#9
        0x0001af80:    f8c7610c    ...a    STR      r6,[r7,#0x10c]
        0x0001af84:    d318        ..      BCC      0x1afb8 ; internal_iom_reset_on_error + 828
        0x0001af86:    f8d70100    ....    LDR      r0,[r7,#0x100]
        0x0001af8a:    f4104f7c    ..|O    TST      r0,#0xfc00
        0x0001af8e:    d017        ..      BEQ      0x1afc0 ; internal_iom_reset_on_error + 836
        0x0001af90:    2d0d        .-      CMP      r5,#0xd
        0x0001af92:    f8c7610c    ...a    STR      r6,[r7,#0x10c]
        0x0001af96:    d313        ..      BCC      0x1afc0 ; internal_iom_reset_on_error + 836
        0x0001af98:    f8d70100    ....    LDR      r0,[r7,#0x100]
        0x0001af9c:    f4104f7c    ..|O    TST      r0,#0xfc00
        0x0001afa0:    d01e        ..      BEQ      0x1afe0 ; internal_iom_reset_on_error + 868
        0x0001afa2:    2d11        .-      CMP      r5,#0x11
        0x0001afa4:    f8c7610c    ...a    STR      r6,[r7,#0x10c]
        0x0001afa8:    d31a        ..      BCC      0x1afe0 ; internal_iom_reset_on_error + 868
        0x0001afaa:    f8d70100    ....    LDR      r0,[r7,#0x100]
        0x0001afae:    3d10        .=      SUBS     r5,r5,#0x10
        0x0001afb0:    f4104f7c    ..|O    TST      r0,#0xfc00
        0x0001afb4:    d1da        ..      BNE      0x1af6c ; internal_iom_reset_on_error + 752
        0x0001afb6:    e005        ..      B        0x1afc4 ; internal_iom_reset_on_error + 840
        0x0001afb8:    3d04        .=      SUBS     r5,#4
        0x0001afba:    45c1        .E      CMP      r9,r8
        0x0001afbc:    d105        ..      BNE      0x1afca ; internal_iom_reset_on_error + 846
        0x0001afbe:    e0ae        ..      B        0x1b11e ; internal_iom_reset_on_error + 1186
        0x0001afc0:    3d08        .=      SUBS     r5,r5,#8
        0x0001afc2:    bf00        ..      NOP      
        0x0001afc4:    45c1        .E      CMP      r9,r8
        0x0001afc6:    f00080aa    ....    BEQ.W    0x1b11e ; internal_iom_reset_on_error + 1186
        0x0001afca:    2001        .       MOVS     r0,#1
        0x0001afcc:    f1090901    ....    ADD      r9,r9,#1
        0x0001afd0:    f7fdff0e    ....    BL       am_hal_delay_us ; 0x18df0
        0x0001afd4:    f8d70100    ....    LDR      r0,[r7,#0x100]
        0x0001afd8:    f4104f7c    ..|O    TST      r0,#0xfc00
        0x0001afdc:    d1c6        ..      BNE      0x1af6c ; internal_iom_reset_on_error + 752
        0x0001afde:    e7f1        ..      B        0x1afc4 ; internal_iom_reset_on_error + 840
        0x0001afe0:    3d0c        .=      SUBS     r5,r5,#0xc
        0x0001afe2:    45c1        .E      CMP      r9,r8
        0x0001afe4:    d1f1        ..      BNE      0x1afca ; internal_iom_reset_on_error + 846
        0x0001afe6:    e09a        ..      B        0x1b11e ; internal_iom_reset_on_error + 1186
        0x0001afe8:    2500        .%      MOVS     r5,#0
        0x0001afea:    f24c3650    L.P6    MOV      r6,#0xc350
        0x0001afee:    e005        ..      B        0x1affc ; internal_iom_reset_on_error + 896
        0x0001aff0:    2001        .       MOVS     r0,#1
        0x0001aff2:    f7fdfefd    ....    BL       am_hal_delay_us ; 0x18df0
        0x0001aff6:    3e01        .>      SUBS     r6,#1
        0x0001aff8:    f0008080    ....    BEQ.W    0x1b0fc ; internal_iom_reset_on_error + 1152
        0x0001affc:    f8da0248    ..H.    LDR      r0,[r10,#0x248]
        0x0001b000:    0780        ..      LSLS     r0,r0,#30
        0x0001b002:    d57b        {.      BPL      0x1b0fc ; internal_iom_reset_on_error + 1152
        0x0001b004:    f8da0100    ....    LDR      r0,[r10,#0x100]
        0x0001b008:    f4100f7c    ..|.    TST      r0,#0xfc0000
        0x0001b00c:    d0f0        ..      BEQ      0x1aff0 ; internal_iom_reset_on_error + 884
        0x0001b00e:    f8da0108    ....    LDR      r0,[r10,#0x108]
        0x0001b012:    f8da0100    ....    LDR      r0,[r10,#0x100]
        0x0001b016:    f4100f7c    ..|.    TST      r0,#0xfc0000
        0x0001b01a:    d0e9        ..      BEQ      0x1aff0 ; internal_iom_reset_on_error + 884
        0x0001b01c:    f8da0108    ....    LDR      r0,[r10,#0x108]
        0x0001b020:    f8da0100    ....    LDR      r0,[r10,#0x100]
        0x0001b024:    f4100f7c    ..|.    TST      r0,#0xfc0000
        0x0001b028:    d0e2        ..      BEQ      0x1aff0 ; internal_iom_reset_on_error + 884
        0x0001b02a:    f8da0108    ....    LDR      r0,[r10,#0x108]
        0x0001b02e:    f8da0100    ....    LDR      r0,[r10,#0x100]
        0x0001b032:    f4100f7c    ..|.    TST      r0,#0xfc0000
        0x0001b036:    d0db        ..      BEQ      0x1aff0 ; internal_iom_reset_on_error + 884
        0x0001b038:    f8da0108    ....    LDR      r0,[r10,#0x108]
        0x0001b03c:    f8da0100    ....    LDR      r0,[r10,#0x100]
        0x0001b040:    f4100f7c    ..|.    TST      r0,#0xfc0000
        0x0001b044:    d0d4        ..      BEQ      0x1aff0 ; internal_iom_reset_on_error + 884
        0x0001b046:    f8da0108    ....    LDR      r0,[r10,#0x108]
        0x0001b04a:    f8da0100    ....    LDR      r0,[r10,#0x100]
        0x0001b04e:    f4100f7c    ..|.    TST      r0,#0xfc0000
        0x0001b052:    d0cd        ..      BEQ      0x1aff0 ; internal_iom_reset_on_error + 884
        0x0001b054:    f8da0108    ....    LDR      r0,[r10,#0x108]
        0x0001b058:    f8da0100    ....    LDR      r0,[r10,#0x100]
        0x0001b05c:    f4100f7c    ..|.    TST      r0,#0xfc0000
        0x0001b060:    d0c6        ..      BEQ      0x1aff0 ; internal_iom_reset_on_error + 884
        0x0001b062:    f8da0108    ....    LDR      r0,[r10,#0x108]
        0x0001b066:    f8da0100    ....    LDR      r0,[r10,#0x100]
        0x0001b06a:    f4100f7c    ..|.    TST      r0,#0xfc0000
        0x0001b06e:    d0bf        ..      BEQ      0x1aff0 ; internal_iom_reset_on_error + 884
        0x0001b070:    f8da0108    ....    LDR      r0,[r10,#0x108]
        0x0001b074:    f8da0100    ....    LDR      r0,[r10,#0x100]
        0x0001b078:    f4100f7c    ..|.    TST      r0,#0xfc0000
        0x0001b07c:    d0b8        ..      BEQ      0x1aff0 ; internal_iom_reset_on_error + 884
        0x0001b07e:    f8da0108    ....    LDR      r0,[r10,#0x108]
        0x0001b082:    f8da0100    ....    LDR      r0,[r10,#0x100]
        0x0001b086:    f4100f7c    ..|.    TST      r0,#0xfc0000
        0x0001b08a:    d0b1        ..      BEQ      0x1aff0 ; internal_iom_reset_on_error + 884
        0x0001b08c:    f8da0108    ....    LDR      r0,[r10,#0x108]
        0x0001b090:    f8da0100    ....    LDR      r0,[r10,#0x100]
        0x0001b094:    f4100f7c    ..|.    TST      r0,#0xfc0000
        0x0001b098:    d0aa        ..      BEQ      0x1aff0 ; internal_iom_reset_on_error + 884
        0x0001b09a:    f8da0108    ....    LDR      r0,[r10,#0x108]
        0x0001b09e:    f8da0100    ....    LDR      r0,[r10,#0x100]
        0x0001b0a2:    f4100f7c    ..|.    TST      r0,#0xfc0000
        0x0001b0a6:    d0a3        ..      BEQ      0x1aff0 ; internal_iom_reset_on_error + 884
        0x0001b0a8:    f8da0108    ....    LDR      r0,[r10,#0x108]
        0x0001b0ac:    f8da0100    ....    LDR      r0,[r10,#0x100]
        0x0001b0b0:    f4100f7c    ..|.    TST      r0,#0xfc0000
        0x0001b0b4:    d09c        ..      BEQ      0x1aff0 ; internal_iom_reset_on_error + 884
        0x0001b0b6:    f8da0108    ....    LDR      r0,[r10,#0x108]
        0x0001b0ba:    f8da0100    ....    LDR      r0,[r10,#0x100]
        0x0001b0be:    f4100f7c    ..|.    TST      r0,#0xfc0000
        0x0001b0c2:    d095        ..      BEQ      0x1aff0 ; internal_iom_reset_on_error + 884
        0x0001b0c4:    f8da0108    ....    LDR      r0,[r10,#0x108]
        0x0001b0c8:    f8da0100    ....    LDR      r0,[r10,#0x100]
        0x0001b0cc:    f4100f7c    ..|.    TST      r0,#0xfc0000
        0x0001b0d0:    f43faf8e    ?...    BEQ.W    0x1aff0 ; internal_iom_reset_on_error + 884
        0x0001b0d4:    f8da0108    ....    LDR      r0,[r10,#0x108]
        0x0001b0d8:    f8da0100    ....    LDR      r0,[r10,#0x100]
        0x0001b0dc:    f4100f7c    ..|.    TST      r0,#0xfc0000
        0x0001b0e0:    f43faf86    ?...    BEQ.W    0x1aff0 ; internal_iom_reset_on_error + 884
        0x0001b0e4:    f8da0108    ....    LDR      r0,[r10,#0x108]
        0x0001b0e8:    f8da0100    ....    LDR      r0,[r10,#0x100]
        0x0001b0ec:    f4100f7c    ..|.    TST      r0,#0xfc0000
        0x0001b0f0:    bf1c        ..      ITT      NE
        0x0001b0f2:    f8da0108    ....    LDRNE    r0,[r10,#0x108]
        0x0001b0f6:    2504        .%      MOVNE    r5,#4
        0x0001b0f8:    e77a        z.      B        0x1aff0 ; internal_iom_reset_on_error + 884
        0x0001b0fa:    bf00        ..      NOP      
        0x0001b0fc:    b97d        }.      CBNZ     r5,0x1b11e ; internal_iom_reset_on_error + 1186
        0x0001b0fe:    f24a1020    J. .    MOV      r0,#0xa120
        0x0001b102:    f50a7112    ...q    ADD      r1,r10,#0x248
        0x0001b106:    2701        .'      MOVS     r7,#1
        0x0001b108:    f2c00007    ....    MOVT     r0,#7
        0x0001b10c:    2206        ."      MOVS     r2,#6
        0x0001b10e:    2304        .#      MOVS     r3,#4
        0x0001b110:    9700        ..      STR      r7,[sp,#0]
        0x0001b112:    f7fdfeb5    ....    BL       am_hal_delay_us_status_check ; 0x18e80
        0x0001b116:    b910        ..      CBNZ     r0,0x1b11e ; internal_iom_reset_on_error + 1186
        0x0001b118:    4640        @F      MOV      r0,r8
        0x0001b11a:    f7fffc95    ....    BL       internal_iom_error_reset_disable_submodule ; 0x1aa48
        0x0001b11e:    f04f30ff    O..0    MOV      r0,#0xffffffff
        0x0001b122:    f8c40208    ....    STR      r0,[r4,#0x208]
        0x0001b126:    f8c4b200    ....    STR      r11,[r4,#0x200]
        0x0001b12a:    b009        ..      ADD      sp,sp,#0x24
        0x0001b12c:    e8bd8ff0    ....    POP      {r4-r11,pc}
    internal_timer_config
        0x0001b130:    b5f0        ..      PUSH     {r4-r7,lr}
        0x0001b132:    784c        Lx      LDRB     r4,[r1,#1]
        0x0001b134:    2207        ."      MOVS     r2,#7
        0x0001b136:    1e65        e.      SUBS     r5,r4,#1
        0x0001b138:    2d0c        .-      CMP      r5,#0xc
        0x0001b13a:    d842        B.      BHI      0x1b1c2 ; internal_timer_config + 146
        0x0001b13c:    f1010e08    ....    ADD      lr,r1,#8
        0x0001b140:    e89e5008    ...P    LDM      lr,{r3,r12,lr}
        0x0001b144:    e8dff005    ....    TBB      [pc,r5]
    $d.1
        0x0001b148:    0c3d0c40    @.=.    DCD    205327424
        0x0001b14c:    3d3d3d3d    ====    DCD    1027423549
        0x0001b150:    083d3d3d    ===.    DCD    138231101
        0x0001b154:    bf000008    ....    DCD    3204448264
    $t.2
        0x0001b158:    2b3f        ?+      CMP      r3,#0x3f
        0x0001b15a:    bf84        ..      ITT      HI
        0x0001b15c:    2007        .       MOVHI    r0,#7
        0x0001b15e:    bdf0        ..      POPHI    {r4-r7,pc}
        0x0001b160:    0122        ".      LSLS     r2,r4,#4
        0x0001b162:    780c        .x      LDRB     r4,[r1,#0]
        0x0001b164:    78ce        .x      LDRB     r6,[r1,#3]
        0x0001b166:    b2d2        ..      UXTB     r2,r2
        0x0001b168:    788d        .x      LDRB     r5,[r1,#2]
        0x0001b16a:    ea422204    B.."    ORR      r2,r2,r4,LSL #8
        0x0001b16e:    f006041f    ....    AND      r4,r6,#0x1f
        0x0001b172:    790f        .y      LDRB     r7,[r1,#4]
        0x0001b174:    ea4202c4    B...    ORR      r2,r2,r4,LSL #3
        0x0001b178:    f005043f    ..?.    AND      r4,r5,#0x3f
        0x0001b17c:    ea420284    B...    ORR      r2,r2,r4,LSL #2
        0x0001b180:    f3674211    g..B    BFI      r2,r7,#16,#2
        0x0001b184:    ea426203    B..b    ORR      r2,r2,r3,LSL #24
        0x0001b188:    f2480300    H...    MOVW     r3,#0x8000
        0x0001b18c:    f2c40300    ....    MOVT     r3,#0x4000
        0x0001b190:    eb031040    ..@.    ADD      r0,r3,r0,LSL #5
        0x0001b194:    7949        Iy      LDRB     r1,[r1,#5]
        0x0001b196:    f8d03200    ...2    LDR      r3,[r0,#0x200]
        0x0001b19a:    0209        ..      LSLS     r1,r1,#8
        0x0001b19c:    f0230301    #...    BIC      r3,r3,#1
        0x0001b1a0:    f8c03200    ...2    STR      r3,[r0,#0x200]
        0x0001b1a4:    f8c02200    ..."    STR      r2,[r0,#0x200]
        0x0001b1a8:    f8c01210    ....    STR      r1,[r0,#0x210]
        0x0001b1ac:    f8c0c208    ....    STR      r12,[r0,#0x208]
        0x0001b1b0:    f8c0e20c    ....    STR      lr,[r0,#0x20c]
        0x0001b1b4:    f8d01200    ....    LDR      r1,[r0,#0x200]
        0x0001b1b8:    2200        ."      MOVS     r2,#0
        0x0001b1ba:    f0410102    A...    ORR      r1,r1,#2
        0x0001b1be:    f8c01200    ....    STR      r1,[r0,#0x200]
        0x0001b1c2:    4610        .F      MOV      r0,r2
        0x0001b1c4:    bdf0        ..      POP      {r4-r7,pc}
        0x0001b1c6:    bf00        ..      NOP      
        0x0001b1c8:    f11e0201    ....    ADDS     r2,lr,#1
        0x0001b1cc:    d0c8        ..      BEQ      0x1b160 ; internal_timer_config + 48
        0x0001b1ce:    45f4        .E      CMP      r12,lr
        0x0001b1d0:    bf9c        ..      ITT      LS
        0x0001b1d2:    2007        .       MOVLS    r0,#7
        0x0001b1d4:    bdf0        ..      POPLS    {r4-r7,pc}
        0x0001b1d6:    e7c3        ..      B        0x1b160 ; internal_timer_config + 48
    iomCompleteCallback
        0x0001b1d8:    b082        ..      SUB      sp,sp,#8
        0x0001b1da:    9001        ..      STR      r0,[sp,#4]
        0x0001b1dc:    9100        ..      STR      r1,[sp,#0]
        0x0001b1de:    f6442184    D..!    MOV      r1,#0x4a84
        0x0001b1e2:    f2c10100    ....    MOVT     r1,#0x1000
        0x0001b1e6:    f6430258    C.X.    MOV      r2,#0x3858
        0x0001b1ea:    2001        .       MOVS     r0,#1
        0x0001b1ec:    5488        .T      STRB     r0,[r1,r2]
        0x0001b1ee:    b002        ..      ADD      sp,sp,#8
        0x0001b1f0:    4770        pG      BX       lr
        0x0001b1f2:    0000        ..      MOVS     r0,r0
    iom_dma_read
        0x0001b1f4:    b580        ..      PUSH     {r7,lr}
        0x0001b1f6:    b090        ..      SUB      sp,sp,#0x40
        0x0001b1f8:    f8ddc048    ..H.    LDR      r12,[sp,#0x48]
        0x0001b1fc:    f88d003f    ..?.    STRB     r0,[sp,#0x3f]
        0x0001b200:    910e        ..      STR      r1,[sp,#0x38]
        0x0001b202:    920d        ..      STR      r2,[sp,#0x34]
        0x0001b204:    930c        ..      STR      r3,[sp,#0x30]
        0x0001b206:    2001        .       MOVS     r0,#1
        0x0001b208:    f88d0022    ..".    STRB     r0,[sp,#0x22]
        0x0001b20c:    f88d0014    ....    STRB     r0,[sp,#0x14]
        0x0001b210:    2300        .#      MOVS     r3,#0
        0x0001b212:    9301        ..      STR      r3,[sp,#4]
        0x0001b214:    9303        ..      STR      r3,[sp,#0xc]
        0x0001b216:    9302        ..      STR      r3,[sp,#8]
        0x0001b218:    9812        ..      LDR      r0,[sp,#0x48]
        0x0001b21a:    9004        ..      STR      r0,[sp,#0x10]
        0x0001b21c:    980d        ..      LDR      r0,[sp,#0x34]
        0x0001b21e:    9006        ..      STR      r0,[sp,#0x18]
        0x0001b220:    980c        ..      LDR      r0,[sp,#0x30]
        0x0001b222:    9007        ..      STR      r0,[sp,#0x1c]
        0x0001b224:    9300        ..      STR      r3,[sp,#0]
        0x0001b226:    f88d3021    ..!0    STRB     r3,[sp,#0x21]
        0x0001b22a:    9309        ..      STR      r3,[sp,#0x24]
        0x0001b22c:    930a        ..      STR      r3,[sp,#0x28]
        0x0001b22e:    f88d3020    .. 0    STRB     r3,[sp,#0x20]
        0x0001b232:    9300        ..      STR      r3,[sp,#0]
        0x0001b234:    f6442084    D..     MOV      r0,#0x4a84
        0x0001b238:    f2c10000    ....    MOVT     r0,#0x1000
        0x0001b23c:    6800        .h      LDR      r0,[r0,#0]
        0x0001b23e:    f24b12d9    K...    MOV      r2,#0xb1d9
        0x0001b242:    f2c00201    ....    MOVT     r2,#1
        0x0001b246:    4669        iF      MOV      r1,sp
        0x0001b248:    f7fefb1e    ....    BL       am_hal_iom_nonblocking_transfer ; 0x19888
        0x0001b24c:    b010        ..      ADD      sp,sp,#0x40
        0x0001b24e:    bd80        ..      POP      {r7,pc}
    iom_dma_write
        0x0001b250:    b580        ..      PUSH     {r7,lr}
        0x0001b252:    b090        ..      SUB      sp,sp,#0x40
        0x0001b254:    f8ddc048    ..H.    LDR      r12,[sp,#0x48]
        0x0001b258:    f88d003f    ..?.    STRB     r0,[sp,#0x3f]
        0x0001b25c:    910e        ..      STR      r1,[sp,#0x38]
        0x0001b25e:    920d        ..      STR      r2,[sp,#0x34]
        0x0001b260:    930c        ..      STR      r3,[sp,#0x30]
        0x0001b262:    2001        .       MOVS     r0,#1
        0x0001b264:    f88d0022    ..".    STRB     r0,[sp,#0x22]
        0x0001b268:    2300        .#      MOVS     r3,#0
        0x0001b26a:    f88d3014    ...0    STRB     r3,[sp,#0x14]
        0x0001b26e:    9301        ..      STR      r3,[sp,#4]
        0x0001b270:    9303        ..      STR      r3,[sp,#0xc]
        0x0001b272:    9302        ..      STR      r3,[sp,#8]
        0x0001b274:    9812        ..      LDR      r0,[sp,#0x48]
        0x0001b276:    9004        ..      STR      r0,[sp,#0x10]
        0x0001b278:    980d        ..      LDR      r0,[sp,#0x34]
        0x0001b27a:    9006        ..      STR      r0,[sp,#0x18]
        0x0001b27c:    980c        ..      LDR      r0,[sp,#0x30]
        0x0001b27e:    9007        ..      STR      r0,[sp,#0x1c]
        0x0001b280:    9300        ..      STR      r3,[sp,#0]
        0x0001b282:    f88d3021    ..!0    STRB     r3,[sp,#0x21]
        0x0001b286:    9309        ..      STR      r3,[sp,#0x24]
        0x0001b288:    930a        ..      STR      r3,[sp,#0x28]
        0x0001b28a:    f88d3020    .. 0    STRB     r3,[sp,#0x20]
        0x0001b28e:    9300        ..      STR      r3,[sp,#0]
        0x0001b290:    f6442084    D..     MOV      r0,#0x4a84
        0x0001b294:    f2c10000    ....    MOVT     r0,#0x1000
        0x0001b298:    6800        .h      LDR      r0,[r0,#0]
        0x0001b29a:    f24b12d9    K...    MOV      r2,#0xb1d9
        0x0001b29e:    f2c00201    ....    MOVT     r2,#1
        0x0001b2a2:    4669        iF      MOV      r1,sp
        0x0001b2a4:    f7fefaf0    ....    BL       am_hal_iom_nonblocking_transfer ; 0x19888
        0x0001b2a8:    b010        ..      ADD      sp,sp,#0x40
        0x0001b2aa:    bd80        ..      POP      {r7,pc}
    iom_dummy_callback
        0x0001b2ac:    4770        pG      BX       lr
        0x0001b2ae:    0000        ..      MOVS     r0,r0
    iom_get_interface_clock_cfg
        0x0001b2b0:    e92d43f0    -..C    PUSH     {r4-r9,lr}
        0x0001b2b4:    2800        .(      CMP      r0,#0
        0x0001b2b6:    d046        F.      BEQ      0x1b346 ; iom_get_interface_clock_cfg + 150
        0x0001b2b8:    f64d0c00    M...    MOVW     r12,#0xd800
        0x0001b2bc:    f2c05cb8    ...\    MOVT     r12,#0x5b8
        0x0001b2c0:    fbbcf2f0    ....    UDIV     r2,r12,r0
        0x0001b2c4:    f24167e3    A..g    MOV      r7,#0x16e3
        0x0001b2c8:    fb02f300    ....    MUL      r3,r2,r0
        0x0001b2cc:    4563        cE      CMP      r3,r12
        0x0001b2ce:    bf18        ..      IT       NE
        0x0001b2d0:    3201        .2      ADDNE    r2,#1
        0x0001b2d2:    4253        SB      RSBS     r3,r2,#0
        0x0001b2d4:    4013        .@      ANDS     r3,r3,r2
        0x0001b2d6:    fab3f383    ....    CLZ      r3,r3
        0x0001b2da:    f1c3031f    ....    RSB      r3,r3,#0x1f
        0x0001b2de:    2b06        .+      CMP      r3,#6
        0x0001b2e0:    bfa8        ..      IT       GE
        0x0001b2e2:    2306        .#      MOVGE    r3,#6
        0x0001b2e4:    42b8        .B      CMP      r0,r7
        0x0001b2e6:    d203        ..      BCS      0x1b2f0 ; iom_get_interface_clock_cfg + 64
        0x0001b2e8:    f04f0e01    O...    MOV      lr,#1
        0x0001b2ec:    e010        ..      B        0x1b310 ; iom_get_interface_clock_cfg + 96
        0x0001b2ee:    bf00        ..      NOP      
        0x0001b2f0:    f6440700    D...    MOVW     r7,#0x4800
        0x0001b2f4:    f2c017e8    ....    MOVT     r7,#0x1e8
        0x0001b2f8:    42b8        .B      CMP      r0,r7
        0x0001b2fa:    f04f0e00    O...    MOV      lr,#0
        0x0001b2fe:    d307        ..      BCC      0x1b310 ; iom_get_interface_clock_cfg + 96
        0x0001b300:    f6464400    F..D    MOVW     r4,#0x6c00
        0x0001b304:    f2c024dc    ...$    MOVT     r4,#0x2dc
        0x0001b308:    42a0        .B      CMP      r0,r4
        0x0001b30a:    bf38        8.      IT       CC
        0x0001b30c:    f04f0e01    O...    MOVCC    lr,#1
        0x0001b310:    ea4f044e    O.N.    LSL      r4,lr,#1
        0x0001b314:    f1040901    ....    ADD      r9,r4,#1
        0x0001b318:    fa09f403    ....    LSL      r4,r9,r3
        0x0001b31c:    fbb2f6f4    ....    UDIV     r6,r2,r4
        0x0001b320:    fb062414    ...$    MLS      r4,r6,r4,r2
        0x0001b324:    2c00        .,      CMP      r4,#0
        0x0001b326:    bf18        ..      IT       NE
        0x0001b328:    3601        .6      ADDNE    r6,#1
        0x0001b32a:    fab6f786    ....    CLZ      r7,r6
        0x0001b32e:    f0070438    ..8.    AND      r4,r7,#0x38
        0x0001b332:    1bdd        ..      SUBS     r5,r3,r7
        0x0001b334:    2c18        .,      CMP      r4,#0x18
        0x0001b336:    bf18        ..      IT       NE
        0x0001b338:    f1050318    ....    ADDNE    r3,r5,#0x18
        0x0001b33c:    f1030801    ....    ADD      r8,r3,#1
        0x0001b340:    f1b80f07    ....    CMP      r8,#7
        0x0001b344:    d904        ..      BLS      0x1b350 ; iom_get_interface_clock_cfg + 160
        0x0001b346:    2000        .       MOVS     r0,#0
        0x0001b348:    2100        .!      MOVS     r1,#0
        0x0001b34a:    e8bd83f0    ....    POP      {r4-r9,pc}
        0x0001b34e:    bf00        ..      NOP      
        0x0001b350:    2c18        .,      CMP      r4,#0x18
        0x0001b352:    d00a        ..      BEQ      0x1b36a ; iom_get_interface_clock_cfg + 186
        0x0001b354:    f1c70418    ....    RSB      r4,r7,#0x18
        0x0001b358:    f04f35ff    O..5    MOV      r5,#0xffffffff
        0x0001b35c:    40a5        .@      LSLS     r5,r5,r4
        0x0001b35e:    43ed        .C      MVNS     r5,r5
        0x0001b360:    422e        .B      TST      r6,r5
        0x0001b362:    fa26f604    &...    LSR      r6,r6,r4
        0x0001b366:    bf18        ..      IT       NE
        0x0001b368:    3601        .6      ADDNE    r6,#1
        0x0001b36a:    f2436400    C..d    MOVW     r4,#0x3600
        0x0001b36e:    f2c0146e    ..n.    MOVT     r4,#0x16e
        0x0001b372:    42a0        .B      CMP      r0,r4
        0x0001b374:    f04f0001    O...    MOV      r0,#1
        0x0001b378:    f04f0500    O...    MOV      r5,#0
        0x0001b37c:    fa00f403    ....    LSL      r4,r0,r3
        0x0001b380:    bf38        8.      IT       CC
        0x0001b382:    2501        .%      MOVCC    r5,#1
        0x0001b384:    1b12        ..      SUBS     r2,r2,r4
        0x0001b386:    bf18        ..      IT       NE
        0x0001b388:    2201        ."      MOVNE    r2,#1
        0x0001b38a:    402a        *@      ANDS     r2,r2,r5
        0x0001b38c:    1e75        u.      SUBS     r5,r6,#1
        0x0001b38e:    2901        .)      CMP      r1,#1
        0x0001b390:    462f        /F      MOV      r7,r5
        0x0001b392:    bf08        ..      IT       EQ
        0x0001b394:    f50677ff    ...w    ADDEQ    r7,r6,#0x1fe
        0x0001b398:    fa09f103    ....    LSL      r1,r9,r3
        0x0001b39c:    2a00        .*      CMP      r2,#0
        0x0001b39e:    bf18        ..      IT       NE
        0x0001b3a0:    4630        0F      MOVNE    r0,r6
        0x0001b3a2:    4348        HC      MULS     r0,r1,r0
        0x0001b3a4:    fbbcf1f0    ....    UDIV     r1,r12,r0
        0x0001b3a8:    f40777ff    ...w    AND      r7,r7,#0x1fe
        0x0001b3ac:    fb01c410    ....    MLS      r4,r1,r0,r12
        0x0001b3b0:    ebb40f50    ..P.    CMP      r4,r0,LSR #1
        0x0001b3b4:    f64d6083    M..`    MOV      r0,#0xde83
        0x0001b3b8:    f2c4301b    ...0    MOVT     r0,#0x431b
        0x0001b3bc:    bf88        ..      IT       HI
        0x0001b3be:    3101        .1      ADDHI    r1,#1
        0x0001b3c0:    fba10600    ....    UMULL    r0,r6,r1,r0
        0x0001b3c4:    f24d048f    M...    MOV      r4,#0xd08f
        0x0001b3c8:    ea4f20ce    O..     LSL      r0,lr,#11
        0x0001b3cc:    f2c00403    ....    MOVT     r4,#3
        0x0001b3d0:    f362300c    b..0    BFI      r0,r2,#12,#1
        0x0001b3d4:    ea4030c7    @..0    ORR      r0,r0,r7,LSL #15
        0x0001b3d8:    0c37        7.      LSRS     r7,r6,#16
        0x0001b3da:    1c66        f.      ADDS     r6,r4,#1
        0x0001b3dc:    f44f62e0    O..b    MOV      r2,#0x700
        0x0001b3e0:    fb071616    ....    MLS      r6,r7,r6,r1
        0x0001b3e4:    ea022208    ..."    AND      r2,r2,r8,LSL #8
        0x0001b3e8:    ea406005    @..`    ORR      r0,r0,r5,LSL #24
        0x0001b3ec:    4410        .D      ADD      r0,r0,r2
        0x0001b3ee:    b10e        ..      CBZ      r6,0x1b3f4 ; iom_get_interface_clock_cfg + 324
        0x0001b3f0:    e8bd83f0    ....    POP      {r4-r9,pc}
        0x0001b3f4:    42a1        .B      CMP      r1,r4
        0x0001b3f6:    d9fb        ..      BLS      0x1b3f0 ; iom_get_interface_clock_cfg + 320
        0x0001b3f8:    f2415655    A.UV    MOV      r6,#0x1555
        0x0001b3fc:    ea060657    ..W.    AND      r6,r6,r7,LSR #1
        0x0001b400:    1bbf        ..      SUBS     r7,r7,r6
        0x0001b402:    f04f3633    O.36    MOV      r6,#0x33333333
        0x0001b406:    ea060697    ....    AND      r6,r6,r7,LSR #2
        0x0001b40a:    f02737cc    '..7    BIC      r7,r7,#0xcccccccc
        0x0001b40e:    4437        7D      ADD      r7,r7,r6
        0x0001b410:    eb071717    ....    ADD      r7,r7,r7,LSR #4
        0x0001b414:    f02737f0    '..7    BIC      r7,r7,#0xf0f0f0f0
        0x0001b418:    f04f3601    O..6    MOV      r6,#0x1010101
        0x0001b41c:    4377        wC      MULS     r7,r6,r7
        0x0001b41e:    0e3f        ?.      LSRS     r7,r7,#24
        0x0001b420:    2f01        ./      CMP      r7,#1
        0x0001b422:    bf88        ..      IT       HI
        0x0001b424:    e8bd83f0    ....    POPHI    {r4-r9,pc}
        0x0001b428:    2003        .       MOVS     r0,#3
        0x0001b42a:    4098        .@      LSLS     r0,r0,r3
        0x0001b42c:    fbbcf1f0    ....    UDIV     r1,r12,r0
        0x0001b430:    fb01c310    ....    MLS      r3,r1,r0,r12
        0x0001b434:    ebb30f50    ..P.    CMP      r3,r0,LSR #1
        0x0001b438:    f5026000    ...`    ADD      r0,r2,#0x800
        0x0001b43c:    bf88        ..      IT       HI
        0x0001b43e:    3101        .1      ADDHI    r1,#1
        0x0001b440:    e8bd83f0    ....    POP      {r4-r9,pc}
    iom_init
        0x0001b444:    b580        ..      PUSH     {r7,lr}
        0x0001b446:    b082        ..      SUB      sp,sp,#8
        0x0001b448:    e7ff        ..      B        0x1b44a ; iom_init + 6
        0x0001b44a:    2007        .       MOVS     r0,#7
        0x0001b44c:    9000        ..      STR      r0,[sp,#0]
        0x0001b44e:    2100        .!      MOVS     r1,#0
        0x0001b450:    f7fdf83e    ..>.    BL       am_bsp_iom_pins_enable ; 0x184d0
        0x0001b454:    9800        ..      LDR      r0,[sp,#0]
        0x0001b456:    f6442184    D..!    MOV      r1,#0x4a84
        0x0001b45a:    f2c10100    ....    MOVT     r1,#0x1000
        0x0001b45e:    f7fef84f    ..O.    BL       am_hal_iom_initialize ; 0x19500
        0x0001b462:    9001        ..      STR      r0,[sp,#4]
        0x0001b464:    9801        ..      LDR      r0,[sp,#4]
        0x0001b466:    b108        ..      CBZ      r0,0x1b46c ; iom_init + 40
        0x0001b468:    e7ff        ..      B        0x1b46a ; iom_init + 38
        0x0001b46a:    e035        5.      B        0x1b4d8 ; iom_init + 148
        0x0001b46c:    f6442084    D..     MOV      r0,#0x4a84
        0x0001b470:    f2c10000    ....    MOVT     r0,#0x1000
        0x0001b474:    6800        .h      LDR      r0,[r0,#0]
        0x0001b476:    2200        ."      MOVS     r2,#0
        0x0001b478:    4611        .F      MOV      r1,r2
        0x0001b47a:    f7fefb01    ....    BL       am_hal_iom_power_ctrl ; 0x19a80
        0x0001b47e:    9001        ..      STR      r0,[sp,#4]
        0x0001b480:    9801        ..      LDR      r0,[sp,#4]
        0x0001b482:    b108        ..      CBZ      r0,0x1b488 ; iom_init + 68
        0x0001b484:    e7ff        ..      B        0x1b486 ; iom_init + 66
        0x0001b486:    e027        '.      B        0x1b4d8 ; iom_init + 148
        0x0001b488:    f6442084    D..     MOV      r0,#0x4a84
        0x0001b48c:    f2c10000    ....    MOVT     r0,#0x1000
        0x0001b490:    6800        .h      LDR      r0,[r0,#0]
        0x0001b492:    f24c0120    L. .    MOV      r1,#0xc020
        0x0001b496:    f2c00101    ....    MOVT     r1,#1
        0x0001b49a:    f7fdfeef    ....    BL       am_hal_iom_configure ; 0x1927c
        0x0001b49e:    9001        ..      STR      r0,[sp,#4]
        0x0001b4a0:    9801        ..      LDR      r0,[sp,#4]
        0x0001b4a2:    b108        ..      CBZ      r0,0x1b4a8 ; iom_init + 100
        0x0001b4a4:    e7ff        ..      B        0x1b4a6 ; iom_init + 98
        0x0001b4a6:    e017        ..      B        0x1b4d8 ; iom_init + 148
        0x0001b4a8:    f6442084    D..     MOV      r0,#0x4a84
        0x0001b4ac:    f2c10000    ....    MOVT     r0,#0x1000
        0x0001b4b0:    6800        .h      LDR      r0,[r0,#0]
        0x0001b4b2:    f7fdffa5    ....    BL       am_hal_iom_enable ; 0x19400
        0x0001b4b6:    9001        ..      STR      r0,[sp,#4]
        0x0001b4b8:    9801        ..      LDR      r0,[sp,#4]
        0x0001b4ba:    b108        ..      CBZ      r0,0x1b4c0 ; iom_init + 124
        0x0001b4bc:    e7ff        ..      B        0x1b4be ; iom_init + 122
        0x0001b4be:    e00b        ..      B        0x1b4d8 ; iom_init + 148
        0x0001b4c0:    f64b70e8    K..p    MOV      r0,#0xbfe8
        0x0001b4c4:    f2c00001    ....    MOVT     r0,#1
        0x0001b4c8:    f000f9a6    ....    BL       pwr_iom_gpio_setup ; 0x1b818
        0x0001b4cc:    9001        ..      STR      r0,[sp,#4]
        0x0001b4ce:    9801        ..      LDR      r0,[sp,#4]
        0x0001b4d0:    b108        ..      CBZ      r0,0x1b4d6 ; iom_init + 146
        0x0001b4d2:    e7ff        ..      B        0x1b4d4 ; iom_init + 144
        0x0001b4d4:    e000        ..      B        0x1b4d8 ; iom_init + 148
        0x0001b4d6:    e7ff        ..      B        0x1b4d8 ; iom_init + 148
        0x0001b4d8:    9801        ..      LDR      r0,[sp,#4]
        0x0001b4da:    b002        ..      ADD      sp,sp,#8
        0x0001b4dc:    bd80        ..      POP      {r7,pc}
        0x0001b4de:    0000        ..      MOVS     r0,r0
    main
        0x0001b4e0:    b580        ..      PUSH     {r7,lr}
        0x0001b4e2:    b086        ..      SUB      sp,sp,#0x18
        0x0001b4e4:    2000        .       MOVS     r0,#0
        0x0001b4e6:    9005        ..      STR      r0,[sp,#0x14]
        0x0001b4e8:    f000fa00    ....    BL       pwrctrl_set_low_power ; 0x1b8ec
        0x0001b4ec:    9004        ..      STR      r0,[sp,#0x10]
        0x0001b4ee:    9804        ..      LDR      r0,[sp,#0x10]
        0x0001b4f0:    b110        ..      CBZ      r0,0x1b4f8 ; main + 24
        0x0001b4f2:    e7ff        ..      B        0x1b4f4 ; main + 20
        0x0001b4f4:    e7ff        ..      B        0x1b4f6 ; main + 22
        0x0001b4f6:    e7fe        ..      B        0x1b4f6 ; main + 22
        0x0001b4f8:    f7ffffa4    ....    BL       iom_init ; 0x1b444
        0x0001b4fc:    9004        ..      STR      r0,[sp,#0x10]
        0x0001b4fe:    9804        ..      LDR      r0,[sp,#0x10]
        0x0001b500:    b110        ..      CBZ      r0,0x1b508 ; main + 40
        0x0001b502:    e7ff        ..      B        0x1b504 ; main + 36
        0x0001b504:    e7ff        ..      B        0x1b506 ; main + 38
        0x0001b506:    e7fe        ..      B        0x1b506 ; main + 38
        0x0001b508:    f64b11a5    K...    MOV      r1,#0xb9a5
        0x0001b50c:    f2c00101    ....    MOVT     r1,#1
        0x0001b510:    f44f6080    O..`    MOV      r0,#0x400
        0x0001b514:    f000fa58    ..X.    BL       timer_init ; 0x1b9c8
        0x0001b518:    9004        ..      STR      r0,[sp,#0x10]
        0x0001b51a:    9804        ..      LDR      r0,[sp,#0x10]
        0x0001b51c:    b110        ..      CBZ      r0,0x1b524 ; main + 68
        0x0001b51e:    e7ff        ..      B        0x1b520 ; main + 64
        0x0001b520:    e7ff        ..      B        0x1b522 ; main + 66
        0x0001b522:    e7fe        ..      B        0x1b522 ; main + 66
        0x0001b524:    200d        .       MOVS     r0,#0xd
        0x0001b526:    9001        ..      STR      r0,[sp,#4]
        0x0001b528:    f7fcff30    ..0.    BL       __NVIC_ClearPendingIRQ ; 0x1838c
        0x0001b52c:    9801        ..      LDR      r0,[sp,#4]
        0x0001b52e:    f7fcff7d    ..}.    BL       __NVIC_EnableIRQ ; 0x1842c
        0x0001b532:    f7fffa7d    ..}.    BL       init_pattern ; 0x1aa30
        0x0001b536:    f7fdfdd3    ....    BL       am_hal_interrupt_master_enable ; 0x190e0
        0x0001b53a:    e7ff        ..      B        0x1b53c ; main + 92
        0x0001b53c:    f6442084    D..     MOV      r0,#0x4a84
        0x0001b540:    f2c10000    ....    MOVT     r0,#0x1000
        0x0001b544:    f643015b    C.[.    MOV      r1,#0x385b
        0x0001b548:    5c40        @\      LDRB     r0,[r0,r1]
        0x0001b54a:    2801        .(      CMP      r0,#1
        0x0001b54c:    db0f        ..      BLT      0x1b56e ; main + 142
        0x0001b54e:    e7ff        ..      B        0x1b550 ; main + 112
        0x0001b550:    f6442084    D..     MOV      r0,#0x4a84
        0x0001b554:    f2c10000    ....    MOVT     r0,#0x1000
        0x0001b558:    f643015b    C.[.    MOV      r1,#0x385b
        0x0001b55c:    5c40        @\      LDRB     r0,[r0,r1]
        0x0001b55e:    f000f83d    ..=.    BL       pwr_data_transfer_sequence ; 0x1b5dc
        0x0001b562:    9003        ..      STR      r0,[sp,#0xc]
        0x0001b564:    9803        ..      LDR      r0,[sp,#0xc]
        0x0001b566:    b108        ..      CBZ      r0,0x1b56c ; main + 140
        0x0001b568:    e7ff        ..      B        0x1b56a ; main + 138
        0x0001b56a:    e02c        ,.      B        0x1b5c6 ; main + 230
        0x0001b56c:    e027        '.      B        0x1b5be ; main + 222
        0x0001b56e:    f6442084    D..     MOV      r0,#0x4a84
        0x0001b572:    f2c10000    ....    MOVT     r0,#0x1000
        0x0001b576:    f6430159    C.Y.    MOV      r1,#0x3859
        0x0001b57a:    5c40        @\      LDRB     r0,[r0,r1]
        0x0001b57c:    07c0        ..      LSLS     r0,r0,#31
        0x0001b57e:    b1e8        ..      CBZ      r0,0x1b5bc ; main + 220
        0x0001b580:    e7ff        ..      B        0x1b582 ; main + 162
        0x0001b582:    f6442084    D..     MOV      r0,#0x4a84
        0x0001b586:    f2c10000    ....    MOVT     r0,#0x1000
        0x0001b58a:    f6430259    C.Y.    MOV      r2,#0x3859
        0x0001b58e:    2100        .!      MOVS     r1,#0
        0x0001b590:    5481        .T      STRB     r1,[r0,r2]
        0x0001b592:    f643035c    C.\.    MOV      r3,#0x385c
        0x0001b596:    5cc1        .\      LDRB     r1,[r0,r3]
        0x0001b598:    2201        ."      MOVS     r2,#1
        0x0001b59a:    2902        .)      CMP      r1,#2
        0x0001b59c:    bfb8        ..      IT       LT
        0x0001b59e:    2202        ."      MOVLT    r2,#2
        0x0001b5a0:    f643015b    C.[.    MOV      r1,#0x385b
        0x0001b5a4:    5442        BT      STRB     r2,[r0,r1]
        0x0001b5a6:    5c42        B\      LDRB     r2,[r0,r1]
        0x0001b5a8:    54c2        .T      STRB     r2,[r0,r3]
        0x0001b5aa:    5c40        @\      LDRB     r0,[r0,r1]
        0x0001b5ac:    f000f816    ....    BL       pwr_data_transfer_sequence ; 0x1b5dc
        0x0001b5b0:    9002        ..      STR      r0,[sp,#8]
        0x0001b5b2:    9802        ..      LDR      r0,[sp,#8]
        0x0001b5b4:    b108        ..      CBZ      r0,0x1b5ba ; main + 218
        0x0001b5b6:    e7ff        ..      B        0x1b5b8 ; main + 216
        0x0001b5b8:    e005        ..      B        0x1b5c6 ; main + 230
        0x0001b5ba:    e7ff        ..      B        0x1b5bc ; main + 220
        0x0001b5bc:    e7ff        ..      B        0x1b5be ; main + 222
        0x0001b5be:    2001        .       MOVS     r0,#1
        0x0001b5c0:    f7feffe8    ....    BL       am_hal_sysctrl_sleep ; 0x1a594
        0x0001b5c4:    e7ba        ..      B        0x1b53c ; main + 92
        0x0001b5c6:    2000        .       MOVS     r0,#0
        0x0001b5c8:    f7fff8e4    ....    BL       am_hal_timer_interrupt_disable ; 0x1a794
        0x0001b5cc:    f000f9f4    ....    BL       timer_disable ; 0x1b9b8
        0x0001b5d0:    200d        .       MOVS     r0,#0xd
        0x0001b5d2:    f7fcfef3    ....    BL       __NVIC_DisableIRQ ; 0x183bc
        0x0001b5d6:    e7ff        ..      B        0x1b5d8 ; main + 248
        0x0001b5d8:    e7fe        ..      B        0x1b5d8 ; main + 248
        0x0001b5da:    0000        ..      MOVS     r0,r0
    pwr_data_transfer_sequence
        0x0001b5dc:    b580        ..      PUSH     {r7,lr}
        0x0001b5de:    b088        ..      SUB      sp,sp,#0x20
        0x0001b5e0:    f88d001b    ....    STRB     r0,[sp,#0x1b]
        0x0001b5e4:    f6442084    D..     MOV      r0,#0x4a84
        0x0001b5e8:    f2c10000    ....    MOVT     r0,#0x1000
        0x0001b5ec:    f6430159    C.Y.    MOV      r1,#0x3859
        0x0001b5f0:    5c40        @\      LDRB     r0,[r0,r1]
        0x0001b5f2:    07c0        ..      LSLS     r0,r0,#31
        0x0001b5f4:    b168        h.      CBZ      r0,0x1b612 ; pwr_data_transfer_sequence + 54
        0x0001b5f6:    e7ff        ..      B        0x1b5f8 ; pwr_data_transfer_sequence + 28
        0x0001b5f8:    f6442184    D..!    MOV      r1,#0x4a84
        0x0001b5fc:    f2c10100    ....    MOVT     r1,#0x1000
        0x0001b600:    f6430259    C.Y.    MOV      r2,#0x3859
        0x0001b604:    2000        .       MOVS     r0,#0
        0x0001b606:    5488        .T      STRB     r0,[r1,r2]
        0x0001b608:    2001        .       MOVS     r0,#1
        0x0001b60a:    f000f92f    ../.    BL       pwr_terminate_transfer ; 0x1b86c
        0x0001b60e:    9007        ..      STR      r0,[sp,#0x1c]
        0x0001b610:    e097        ..      B        0x1b742 ; pwr_data_transfer_sequence + 358
        0x0001b612:    f6442084    D..     MOV      r0,#0x4a84
        0x0001b616:    f2c10000    ....    MOVT     r0,#0x1000
        0x0001b61a:    f6430158    C.X.    MOV      r1,#0x3858
        0x0001b61e:    5c40        @\      LDRB     r0,[r0,r1]
        0x0001b620:    07c0        ..      LSLS     r0,r0,#31
        0x0001b622:    b328        (.      CBZ      r0,0x1b670 ; pwr_data_transfer_sequence + 148
        0x0001b624:    e7ff        ..      B        0x1b626 ; pwr_data_transfer_sequence + 74
        0x0001b626:    f6442084    D..     MOV      r0,#0x4a84
        0x0001b62a:    f2c10000    ....    MOVT     r0,#0x1000
        0x0001b62e:    f6430258    C.X.    MOV      r2,#0x3858
        0x0001b632:    2100        .!      MOVS     r1,#0
        0x0001b634:    5481        .T      STRB     r1,[r0,r2]
        0x0001b636:    f643015a    C.Z.    MOV      r1,#0x385a
        0x0001b63a:    5c40        @\      LDRB     r0,[r0,r1]
        0x0001b63c:    07c0        ..      LSLS     r0,r0,#31
        0x0001b63e:    b1b0        ..      CBZ      r0,0x1b66e ; pwr_data_transfer_sequence + 146
        0x0001b640:    e7ff        ..      B        0x1b642 ; pwr_data_transfer_sequence + 102
        0x0001b642:    f6442184    D..!    MOV      r1,#0x4a84
        0x0001b646:    f2c10100    ....    MOVT     r1,#0x1000
        0x0001b64a:    f643025a    C.Z.    MOV      r2,#0x385a
        0x0001b64e:    2000        .       MOVS     r0,#0
        0x0001b650:    5488        .T      STRB     r0,[r1,r2]
        0x0001b652:    f6430248    C.H.    MOV      r2,#0x3848
        0x0001b656:    5888        .X      LDR      r0,[r1,r2]
        0x0001b658:    3001        .0      ADDS     r0,#1
        0x0001b65a:    5088        .P      STR      r0,[r1,r2]
        0x0001b65c:    280a        .(      CMP      r0,#0xa
        0x0001b65e:    db05        ..      BLT      0x1b66c ; pwr_data_transfer_sequence + 144
        0x0001b660:    e7ff        ..      B        0x1b662 ; pwr_data_transfer_sequence + 134
        0x0001b662:    2000        .       MOVS     r0,#0
        0x0001b664:    f000f902    ....    BL       pwr_terminate_transfer ; 0x1b86c
        0x0001b668:    9007        ..      STR      r0,[sp,#0x1c]
        0x0001b66a:    e06a        j.      B        0x1b742 ; pwr_data_transfer_sequence + 358
        0x0001b66c:    e7ff        ..      B        0x1b66e ; pwr_data_transfer_sequence + 146
        0x0001b66e:    e7ff        ..      B        0x1b670 ; pwr_data_transfer_sequence + 148
        0x0001b670:    f6442084    D..     MOV      r0,#0x4a84
        0x0001b674:    f2c10000    ....    MOVT     r0,#0x1000
        0x0001b678:    f6430144    C.D.    MOV      r1,#0x3844
        0x0001b67c:    5840        @X      LDR      r0,[r0,r1]
        0x0001b67e:    2809        .(      CMP      r0,#9
        0x0001b680:    dc5c        \.      BGT      0x1b73c ; pwr_data_transfer_sequence + 352
        0x0001b682:    e7ff        ..      B        0x1b684 ; pwr_data_transfer_sequence + 168
        0x0001b684:    f6442084    D..     MOV      r0,#0x4a84
        0x0001b688:    f2c10000    ....    MOVT     r0,#0x1000
        0x0001b68c:    f643015a    C.Z.    MOV      r1,#0x385a
        0x0001b690:    5c40        @\      LDRB     r0,[r0,r1]
        0x0001b692:    07c0        ..      LSLS     r0,r0,#31
        0x0001b694:    2800        .(      CMP      r0,#0
        0x0001b696:    d151        Q.      BNE      0x1b73c ; pwr_data_transfer_sequence + 352
        0x0001b698:    e7ff        ..      B        0x1b69a ; pwr_data_transfer_sequence + 190
        0x0001b69a:    f6442184    D..!    MOV      r1,#0x4a84
        0x0001b69e:    f2c10100    ....    MOVT     r1,#0x1000
        0x0001b6a2:    f6430244    C.D.    MOV      r2,#0x3844
        0x0001b6a6:    5888        .X      LDR      r0,[r1,r2]
        0x0001b6a8:    3001        .0      ADDS     r0,#1
        0x0001b6aa:    5088        .P      STR      r0,[r1,r2]
        0x0001b6ac:    2000        .       MOVS     r0,#0
        0x0001b6ae:    9005        ..      STR      r0,[sp,#0x14]
        0x0001b6b0:    f89d001b    ....    LDRB     r0,[sp,#0x1b]
        0x0001b6b4:    2801        .(      CMP      r0,#1
        0x0001b6b6:    d119        ..      BNE      0x1b6ec ; pwr_data_transfer_sequence + 272
        0x0001b6b8:    e7ff        ..      B        0x1b6ba ; pwr_data_transfer_sequence + 222
        0x0001b6ba:    4669        iF      MOV      r1,sp
        0x0001b6bc:    f64030f8    @..0    MOV      r0,#0xbf8
        0x0001b6c0:    6008        .`      STR      r0,[r1,#0]
        0x0001b6c2:    f6442084    D..     MOV      r0,#0x4a84
        0x0001b6c6:    f2c10000    ....    MOVT     r0,#0x1000
        0x0001b6ca:    9003        ..      STR      r0,[sp,#0xc]
        0x0001b6cc:    1d02        ..      ADDS     r2,r0,#4
        0x0001b6ce:    f6004324    ..$C    ADD      r3,r0,#0xc24
        0x0001b6d2:    2001        .       MOVS     r0,#1
        0x0001b6d4:    9004        ..      STR      r0,[sp,#0x10]
        0x0001b6d6:    2100        .!      MOVS     r1,#0
        0x0001b6d8:    f7fffd8c    ....    BL       iom_dma_read ; 0x1b1f4
        0x0001b6dc:    9903        ..      LDR      r1,[sp,#0xc]
        0x0001b6de:    4602        .F      MOV      r2,r0
        0x0001b6e0:    9804        ..      LDR      r0,[sp,#0x10]
        0x0001b6e2:    9205        ..      STR      r2,[sp,#0x14]
        0x0001b6e4:    f643025a    C.Z.    MOV      r2,#0x385a
        0x0001b6e8:    5488        .T      STRB     r0,[r1,r2]
        0x0001b6ea:    e01e        ..      B        0x1b72a ; pwr_data_transfer_sequence + 334
        0x0001b6ec:    f89d001b    ....    LDRB     r0,[sp,#0x1b]
        0x0001b6f0:    2802        .(      CMP      r0,#2
        0x0001b6f2:    d119        ..      BNE      0x1b728 ; pwr_data_transfer_sequence + 332
        0x0001b6f4:    e7ff        ..      B        0x1b6f6 ; pwr_data_transfer_sequence + 282
        0x0001b6f6:    4669        iF      MOV      r1,sp
        0x0001b6f8:    f64030f8    @..0    MOV      r0,#0xbf8
        0x0001b6fc:    6008        .`      STR      r0,[r1,#0]
        0x0001b6fe:    f6442084    D..     MOV      r0,#0x4a84
        0x0001b702:    f2c10000    ....    MOVT     r0,#0x1000
        0x0001b706:    9001        ..      STR      r0,[sp,#4]
        0x0001b708:    1d02        ..      ADDS     r2,r0,#4
        0x0001b70a:    f6004324    ..$C    ADD      r3,r0,#0xc24
        0x0001b70e:    2001        .       MOVS     r0,#1
        0x0001b710:    9002        ..      STR      r0,[sp,#8]
        0x0001b712:    2100        .!      MOVS     r1,#0
        0x0001b714:    f7fffd9c    ....    BL       iom_dma_write ; 0x1b250
        0x0001b718:    9901        ..      LDR      r1,[sp,#4]
        0x0001b71a:    4602        .F      MOV      r2,r0
        0x0001b71c:    9802        ..      LDR      r0,[sp,#8]
        0x0001b71e:    9205        ..      STR      r2,[sp,#0x14]
        0x0001b720:    f643025a    C.Z.    MOV      r2,#0x385a
        0x0001b724:    5488        .T      STRB     r0,[r1,r2]
        0x0001b726:    e7ff        ..      B        0x1b728 ; pwr_data_transfer_sequence + 332
        0x0001b728:    e7ff        ..      B        0x1b72a ; pwr_data_transfer_sequence + 334
        0x0001b72a:    9805        ..      LDR      r0,[sp,#0x14]
        0x0001b72c:    b128        (.      CBZ      r0,0x1b73a ; pwr_data_transfer_sequence + 350
        0x0001b72e:    e7ff        ..      B        0x1b730 ; pwr_data_transfer_sequence + 340
        0x0001b730:    2002        .       MOVS     r0,#2
        0x0001b732:    f000f89b    ....    BL       pwr_terminate_transfer ; 0x1b86c
        0x0001b736:    9007        ..      STR      r0,[sp,#0x1c]
        0x0001b738:    e003        ..      B        0x1b742 ; pwr_data_transfer_sequence + 358
        0x0001b73a:    e7ff        ..      B        0x1b73c ; pwr_data_transfer_sequence + 352
        0x0001b73c:    2000        .       MOVS     r0,#0
        0x0001b73e:    9007        ..      STR      r0,[sp,#0x1c]
        0x0001b740:    e7ff        ..      B        0x1b742 ; pwr_data_transfer_sequence + 358
        0x0001b742:    9807        ..      LDR      r0,[sp,#0x1c]
        0x0001b744:    b008        ..      ADD      sp,sp,#0x20
        0x0001b746:    bd80        ..      POP      {r7,pc}
    pwr_iom_MOSI_MISO_setup
        0x0001b748:    b580        ..      PUSH     {r7,lr}
        0x0001b74a:    b088        ..      SUB      sp,sp,#0x20
        0x0001b74c:    9006        ..      STR      r0,[sp,#0x18]
        0x0001b74e:    f88d1017    ....    STRB     r1,[sp,#0x17]
        0x0001b752:    f89d0017    ....    LDRB     r0,[sp,#0x17]
        0x0001b756:    4601        .F      MOV      r1,r0
        0x0001b758:    9101        ..      STR      r1,[sp,#4]
        0x0001b75a:    b148        H.      CBZ      r0,0x1b770 ; pwr_iom_MOSI_MISO_setup + 40
        0x0001b75c:    e7ff        ..      B        0x1b75e ; pwr_iom_MOSI_MISO_setup + 22
        0x0001b75e:    9801        ..      LDR      r0,[sp,#4]
        0x0001b760:    2801        .(      CMP      r0,#1
        0x0001b762:    d00c        ..      BEQ      0x1b77e ; pwr_iom_MOSI_MISO_setup + 54
        0x0001b764:    e7ff        ..      B        0x1b766 ; pwr_iom_MOSI_MISO_setup + 30
        0x0001b766:    9801        ..      LDR      r0,[sp,#4]
        0x0001b768:    3802        .8      SUBS     r0,#2
        0x0001b76a:    2802        .(      CMP      r0,#2
        0x0001b76c:    d30c        ..      BCC      0x1b788 ; pwr_iom_MOSI_MISO_setup + 64
        0x0001b76e:    e012        ..      B        0x1b796 ; pwr_iom_MOSI_MISO_setup + 78
        0x0001b770:    f64b604c    K.L`    MOV      r0,#0xbe4c
        0x0001b774:    f2c00001    ....    MOVT     r0,#1
        0x0001b778:    6800        .h      LDR      r0,[r0,#0]
        0x0001b77a:    9004        ..      STR      r0,[sp,#0x10]
        0x0001b77c:    e00b        ..      B        0x1b796 ; pwr_iom_MOSI_MISO_setup + 78
        0x0001b77e:    9806        ..      LDR      r0,[sp,#0x18]
        0x0001b780:    6840        @h      LDR      r0,[r0,#4]
        0x0001b782:    6800        .h      LDR      r0,[r0,#0]
        0x0001b784:    9004        ..      STR      r0,[sp,#0x10]
        0x0001b786:    e006        ..      B        0x1b796 ; pwr_iom_MOSI_MISO_setup + 78
        0x0001b788:    f64b6050    K.P`    MOV      r0,#0xbe50
        0x0001b78c:    f2c00001    ....    MOVT     r0,#1
        0x0001b790:    6800        .h      LDR      r0,[r0,#0]
        0x0001b792:    9004        ..      STR      r0,[sp,#0x10]
        0x0001b794:    e7ff        ..      B        0x1b796 ; pwr_iom_MOSI_MISO_setup + 78
        0x0001b796:    9806        ..      LDR      r0,[sp,#0x18]
        0x0001b798:    6800        .h      LDR      r0,[r0,#0]
        0x0001b79a:    9003        ..      STR      r0,[sp,#0xc]
        0x0001b79c:    9803        ..      LDR      r0,[sp,#0xc]
        0x0001b79e:    9904        ..      LDR      r1,[sp,#0x10]
        0x0001b7a0:    f7fdfbd8    ....    BL       am_hal_gpio_pinconfig ; 0x18f54
        0x0001b7a4:    9002        ..      STR      r0,[sp,#8]
        0x0001b7a6:    9802        ..      LDR      r0,[sp,#8]
        0x0001b7a8:    b118        ..      CBZ      r0,0x1b7b2 ; pwr_iom_MOSI_MISO_setup + 106
        0x0001b7aa:    e7ff        ..      B        0x1b7ac ; pwr_iom_MOSI_MISO_setup + 100
        0x0001b7ac:    9802        ..      LDR      r0,[sp,#8]
        0x0001b7ae:    9007        ..      STR      r0,[sp,#0x1c]
        0x0001b7b0:    e02e        ..      B        0x1b810 ; pwr_iom_MOSI_MISO_setup + 200
        0x0001b7b2:    f89d0017    ....    LDRB     r0,[sp,#0x17]
        0x0001b7b6:    4601        .F      MOV      r1,r0
        0x0001b7b8:    9100        ..      STR      r1,[sp,#0]
        0x0001b7ba:    2802        .(      CMP      r0,#2
        0x0001b7bc:    d308        ..      BCC      0x1b7d0 ; pwr_iom_MOSI_MISO_setup + 136
        0x0001b7be:    e7ff        ..      B        0x1b7c0 ; pwr_iom_MOSI_MISO_setup + 120
        0x0001b7c0:    9800        ..      LDR      r0,[sp,#0]
        0x0001b7c2:    2802        .(      CMP      r0,#2
        0x0001b7c4:    d005        ..      BEQ      0x1b7d2 ; pwr_iom_MOSI_MISO_setup + 138
        0x0001b7c6:    e7ff        ..      B        0x1b7c8 ; pwr_iom_MOSI_MISO_setup + 128
        0x0001b7c8:    9800        ..      LDR      r0,[sp,#0]
        0x0001b7ca:    2803        .(      CMP      r0,#3
        0x0001b7cc:    d00f        ..      BEQ      0x1b7ee ; pwr_iom_MOSI_MISO_setup + 166
        0x0001b7ce:    e01c        ..      B        0x1b80a ; pwr_iom_MOSI_MISO_setup + 194
        0x0001b7d0:    e01b        ..      B        0x1b80a ; pwr_iom_MOSI_MISO_setup + 194
        0x0001b7d2:    9903        ..      LDR      r1,[sp,#0xc]
        0x0001b7d4:    f001021f    ....    AND      r2,r1,#0x1f
        0x0001b7d8:    2001        .       MOVS     r0,#1
        0x0001b7da:    4090        .@      LSLS     r0,r0,r2
        0x0001b7dc:    f3c11241    ..A.    UBFX     r2,r1,#5,#2
        0x0001b7e0:    f2402134    @.4!    MOVW     r1,#0x234
        0x0001b7e4:    f2c40101    ....    MOVT     r1,#0x4001
        0x0001b7e8:    f8410022    A.".    STR      r0,[r1,r2,LSL #2]
        0x0001b7ec:    e00d        ..      B        0x1b80a ; pwr_iom_MOSI_MISO_setup + 194
        0x0001b7ee:    9903        ..      LDR      r1,[sp,#0xc]
        0x0001b7f0:    f001021f    ....    AND      r2,r1,#0x1f
        0x0001b7f4:    2001        .       MOVS     r0,#1
        0x0001b7f6:    4090        .@      LSLS     r0,r0,r2
        0x0001b7f8:    f3c11241    ..A.    UBFX     r2,r1,#5,#2
        0x0001b7fc:    f2402124    @.$!    MOVW     r1,#0x224
        0x0001b800:    f2c40101    ....    MOVT     r1,#0x4001
        0x0001b804:    f8410022    A.".    STR      r0,[r1,r2,LSL #2]
        0x0001b808:    e7ff        ..      B        0x1b80a ; pwr_iom_MOSI_MISO_setup + 194
        0x0001b80a:    2000        .       MOVS     r0,#0
        0x0001b80c:    9007        ..      STR      r0,[sp,#0x1c]
        0x0001b80e:    e7ff        ..      B        0x1b810 ; pwr_iom_MOSI_MISO_setup + 200
        0x0001b810:    9807        ..      LDR      r0,[sp,#0x1c]
        0x0001b812:    b008        ..      ADD      sp,sp,#0x20
        0x0001b814:    bd80        ..      POP      {r7,pc}
        0x0001b816:    0000        ..      MOVS     r0,r0
    pwr_iom_gpio_setup
        0x0001b818:    b580        ..      PUSH     {r7,lr}
        0x0001b81a:    b084        ..      SUB      sp,sp,#0x10
        0x0001b81c:    9003        ..      STR      r0,[sp,#0xc]
        0x0001b81e:    9803        ..      LDR      r0,[sp,#0xc]
        0x0001b820:    6800        .h      LDR      r0,[r0,#0]
        0x0001b822:    9002        ..      STR      r0,[sp,#8]
        0x0001b824:    9802        ..      LDR      r0,[sp,#8]
        0x0001b826:    f64b6288    K..b    MOV      r2,#0xbe88
        0x0001b82a:    f2c00201    ....    MOVT     r2,#1
        0x0001b82e:    212c        ,!      MOVS     r1,#0x2c
        0x0001b830:    fb002001    ...     MLA      r0,r0,r1,r2
        0x0001b834:    9001        ..      STR      r0,[sp,#4]
        0x0001b836:    9801        ..      LDR      r0,[sp,#4]
        0x0001b838:    9903        ..      LDR      r1,[sp,#0xc]
        0x0001b83a:    7909        .y      LDRB     r1,[r1,#4]
        0x0001b83c:    f7ffff84    ....    BL       pwr_iom_MOSI_MISO_setup ; 0x1b748
        0x0001b840:    9801        ..      LDR      r0,[sp,#4]
        0x0001b842:    3008        .0      ADDS     r0,r0,#8
        0x0001b844:    9903        ..      LDR      r1,[sp,#0xc]
        0x0001b846:    7949        Iy      LDRB     r1,[r1,#5]
        0x0001b848:    f7ffff7e    ..~.    BL       pwr_iom_MOSI_MISO_setup ; 0x1b748
        0x0001b84c:    9801        ..      LDR      r0,[sp,#4]
        0x0001b84e:    3010        .0      ADDS     r0,r0,#0x10
        0x0001b850:    9903        ..      LDR      r1,[sp,#0xc]
        0x0001b852:    7989        .y      LDRB     r1,[r1,#6]
        0x0001b854:    f7ffff78    ..x.    BL       pwr_iom_MOSI_MISO_setup ; 0x1b748
        0x0001b858:    9801        ..      LDR      r0,[sp,#4]
        0x0001b85a:    3018        .0      ADDS     r0,r0,#0x18
        0x0001b85c:    9903        ..      LDR      r1,[sp,#0xc]
        0x0001b85e:    79c9        .y      LDRB     r1,[r1,#7]
        0x0001b860:    f7ffff72    ..r.    BL       pwr_iom_MOSI_MISO_setup ; 0x1b748
        0x0001b864:    2000        .       MOVS     r0,#0
        0x0001b866:    b004        ..      ADD      sp,sp,#0x10
        0x0001b868:    bd80        ..      POP      {r7,pc}
        0x0001b86a:    0000        ..      MOVS     r0,r0
    pwr_terminate_transfer
        0x0001b86c:    b081        ..      SUB      sp,sp,#4
        0x0001b86e:    9000        ..      STR      r0,[sp,#0]
        0x0001b870:    f6442184    D..!    MOV      r1,#0x4a84
        0x0001b874:    f2c10100    ....    MOVT     r1,#0x1000
        0x0001b878:    f6430248    C.H.    MOV      r2,#0x3848
        0x0001b87c:    2000        .       MOVS     r0,#0
        0x0001b87e:    5088        .P      STR      r0,[r1,r2]
        0x0001b880:    f6430244    C.D.    MOV      r2,#0x3844
        0x0001b884:    5088        .P      STR      r0,[r1,r2]
        0x0001b886:    f643025a    C.Z.    MOV      r2,#0x385a
        0x0001b88a:    5488        .T      STRB     r0,[r1,r2]
        0x0001b88c:    5488        .T      STRB     r0,[r1,r2]
        0x0001b88e:    f643025b    C.[.    MOV      r2,#0x385b
        0x0001b892:    5488        .T      STRB     r0,[r1,r2]
        0x0001b894:    9800        ..      LDR      r0,[sp,#0]
        0x0001b896:    b001        ..      ADD      sp,sp,#4
        0x0001b898:    4770        pG      BX       lr
        0x0001b89a:    0000        ..      MOVS     r0,r0
    pwrctrl_fill_buff_alternating_bits
        0x0001b89c:    b085        ..      SUB      sp,sp,#0x14
        0x0001b89e:    9004        ..      STR      r0,[sp,#0x10]
        0x0001b8a0:    9103        ..      STR      r1,[sp,#0xc]
        0x0001b8a2:    9202        ..      STR      r2,[sp,#8]
        0x0001b8a4:    f24a505a    J.ZP    MOV      r0,#0xa55a
        0x0001b8a8:    f2ca505a    ..ZP    MOVT     r0,#0xa55a
        0x0001b8ac:    9001        ..      STR      r0,[sp,#4]
        0x0001b8ae:    9803        ..      LDR      r0,[sp,#0xc]
        0x0001b8b0:    2809        .(      CMP      r0,#9
        0x0001b8b2:    d306        ..      BCC      0x1b8c2 ; pwrctrl_fill_buff_alternating_bits + 38
        0x0001b8b4:    e7ff        ..      B        0x1b8b6 ; pwrctrl_fill_buff_alternating_bits + 26
        0x0001b8b6:    f64520a5    E..     MOV      r0,#0x5aa5
        0x0001b8ba:    f2ca505a    ..ZP    MOVT     r0,#0xa55a
        0x0001b8be:    9001        ..      STR      r0,[sp,#4]
        0x0001b8c0:    e7ff        ..      B        0x1b8c2 ; pwrctrl_fill_buff_alternating_bits + 38
        0x0001b8c2:    9804        ..      LDR      r0,[sp,#0x10]
        0x0001b8c4:    9000        ..      STR      r0,[sp,#0]
        0x0001b8c6:    9802        ..      LDR      r0,[sp,#8]
        0x0001b8c8:    1080        ..      ASRS     r0,r0,#2
        0x0001b8ca:    9002        ..      STR      r0,[sp,#8]
        0x0001b8cc:    e7ff        ..      B        0x1b8ce ; pwrctrl_fill_buff_alternating_bits + 50
        0x0001b8ce:    9802        ..      LDR      r0,[sp,#8]
        0x0001b8d0:    1e41        A.      SUBS     r1,r0,#1
        0x0001b8d2:    9102        ..      STR      r1,[sp,#8]
        0x0001b8d4:    2801        .(      CMP      r0,#1
        0x0001b8d6:    db06        ..      BLT      0x1b8e6 ; pwrctrl_fill_buff_alternating_bits + 74
        0x0001b8d8:    e7ff        ..      B        0x1b8da ; pwrctrl_fill_buff_alternating_bits + 62
        0x0001b8da:    9801        ..      LDR      r0,[sp,#4]
        0x0001b8dc:    9900        ..      LDR      r1,[sp,#0]
        0x0001b8de:    1d0a        ..      ADDS     r2,r1,#4
        0x0001b8e0:    9200        ..      STR      r2,[sp,#0]
        0x0001b8e2:    6008        .`      STR      r0,[r1,#0]
        0x0001b8e4:    e7f3        ..      B        0x1b8ce ; pwrctrl_fill_buff_alternating_bits + 50
        0x0001b8e6:    b005        ..      ADD      sp,sp,#0x14
        0x0001b8e8:    4770        pG      BX       lr
        0x0001b8ea:    0000        ..      MOVS     r0,r0
    pwrctrl_set_low_power
        0x0001b8ec:    b580        ..      PUSH     {r7,lr}
        0x0001b8ee:    b084        ..      SUB      sp,sp,#0x10
        0x0001b8f0:    e7ff        ..      B        0x1b8f2 ; pwrctrl_set_low_power + 6
        0x0001b8f2:    f64b2062    K.b     MOV      r0,#0xba62
        0x0001b8f6:    f2c00001    ....    MOVT     r0,#1
        0x0001b8fa:    f7fcff71    ..q.    BL       am_hal_cachectrl_config ; 0x187e0
        0x0001b8fe:    9003        ..      STR      r0,[sp,#0xc]
        0x0001b900:    9803        ..      LDR      r0,[sp,#0xc]
        0x0001b902:    b120         .      CBZ      r0,0x1b90e ; pwrctrl_set_low_power + 34
        0x0001b904:    e7ff        ..      B        0x1b906 ; pwrctrl_set_low_power + 26
        0x0001b906:    2001        .       MOVS     r0,#1
        0x0001b908:    f88d000f    ....    STRB     r0,[sp,#0xf]
        0x0001b90c:    e047        G.      B        0x1b99e ; pwrctrl_set_low_power + 178
        0x0001b90e:    f7fcff89    ....    BL       am_hal_cachectrl_enable ; 0x18824
        0x0001b912:    f7fcff43    ..C.    BL       am_bsp_low_power_init ; 0x1879c
        0x0001b916:    2014        .       MOVS     r0,#0x14
        0x0001b918:    f7fefc62    ..b.    BL       am_hal_pwrctrl_periph_disable ; 0x1a1e0
        0x0001b91c:    9003        ..      STR      r0,[sp,#0xc]
        0x0001b91e:    9803        ..      LDR      r0,[sp,#0xc]
        0x0001b920:    b120         .      CBZ      r0,0x1b92c ; pwrctrl_set_low_power + 64
        0x0001b922:    e7ff        ..      B        0x1b924 ; pwrctrl_set_low_power + 56
        0x0001b924:    2002        .       MOVS     r0,#2
        0x0001b926:    f88d000f    ....    STRB     r0,[sp,#0xf]
        0x0001b92a:    e038        8.      B        0x1b99e ; pwrctrl_set_low_power + 178
        0x0001b92c:    202a        *       MOVS     r0,#0x2a
        0x0001b92e:    9002        ..      STR      r0,[sp,#8]
        0x0001b930:    2100        .!      MOVS     r1,#0
        0x0001b932:    9101        ..      STR      r1,[sp,#4]
        0x0001b934:    f7fdfb4a    ..J.    BL       am_hal_gpio_state_write ; 0x18fcc
        0x0001b938:    4601        .F      MOV      r1,r0
        0x0001b93a:    9802        ..      LDR      r0,[sp,#8]
        0x0001b93c:    9103        ..      STR      r1,[sp,#0xc]
        0x0001b93e:    f64b216c    K.l!    MOV      r1,#0xba6c
        0x0001b942:    f2c00101    ....    MOVT     r1,#1
        0x0001b946:    6809        .h      LDR      r1,[r1,#0]
        0x0001b948:    f7fdfb04    ....    BL       am_hal_gpio_pinconfig ; 0x18f54
        0x0001b94c:    4602        .F      MOV      r2,r0
        0x0001b94e:    9802        ..      LDR      r0,[sp,#8]
        0x0001b950:    9903        ..      LDR      r1,[sp,#0xc]
        0x0001b952:    4411        .D      ADD      r1,r1,r2
        0x0001b954:    9103        ..      STR      r1,[sp,#0xc]
        0x0001b956:    2101        .!      MOVS     r1,#1
        0x0001b958:    f7fdfb38    ..8.    BL       am_hal_gpio_state_write ; 0x18fcc
        0x0001b95c:    9901        ..      LDR      r1,[sp,#4]
        0x0001b95e:    4603        .F      MOV      r3,r0
        0x0001b960:    9802        ..      LDR      r0,[sp,#8]
        0x0001b962:    9a03        ..      LDR      r2,[sp,#0xc]
        0x0001b964:    441a        .D      ADD      r2,r2,r3
        0x0001b966:    9203        ..      STR      r2,[sp,#0xc]
        0x0001b968:    f7fdfb30    ..0.    BL       am_hal_gpio_state_write ; 0x18fcc
        0x0001b96c:    4601        .F      MOV      r1,r0
        0x0001b96e:    9803        ..      LDR      r0,[sp,#0xc]
        0x0001b970:    4408        .D      ADD      r0,r0,r1
        0x0001b972:    9003        ..      STR      r0,[sp,#0xc]
        0x0001b974:    9803        ..      LDR      r0,[sp,#0xc]
        0x0001b976:    b120         .      CBZ      r0,0x1b982 ; pwrctrl_set_low_power + 150
        0x0001b978:    e7ff        ..      B        0x1b97a ; pwrctrl_set_low_power + 142
        0x0001b97a:    2003        .       MOVS     r0,#3
        0x0001b97c:    f88d000f    ....    STRB     r0,[sp,#0xf]
        0x0001b980:    e00d        ..      B        0x1b99e ; pwrctrl_set_low_power + 178
        0x0001b982:    f64b205c    K.\     MOV      r0,#0xba5c
        0x0001b986:    f2c00001    ....    MOVT     r0,#1
        0x0001b98a:    f7fefd95    ....    BL       am_hal_pwrctrl_sram_config ; 0x1a4b8
        0x0001b98e:    9803        ..      LDR      r0,[sp,#0xc]
        0x0001b990:    b120         .      CBZ      r0,0x1b99c ; pwrctrl_set_low_power + 176
        0x0001b992:    e7ff        ..      B        0x1b994 ; pwrctrl_set_low_power + 168
        0x0001b994:    2004        .       MOVS     r0,#4
        0x0001b996:    f88d000f    ....    STRB     r0,[sp,#0xf]
        0x0001b99a:    e000        ..      B        0x1b99e ; pwrctrl_set_low_power + 178
        0x0001b99c:    e7ff        ..      B        0x1b99e ; pwrctrl_set_low_power + 178
        0x0001b99e:    9803        ..      LDR      r0,[sp,#0xc]
        0x0001b9a0:    b004        ..      ADD      sp,sp,#0x10
        0x0001b9a2:    bd80        ..      POP      {r7,pc}
    timerCallback
        0x0001b9a4:    f6442184    D..!    MOV      r1,#0x4a84
        0x0001b9a8:    f2c10100    ....    MOVT     r1,#0x1000
        0x0001b9ac:    f6430259    C.Y.    MOV      r2,#0x3859
        0x0001b9b0:    2001        .       MOVS     r0,#1
        0x0001b9b2:    5488        .T      STRB     r0,[r1,r2]
        0x0001b9b4:    4770        pG      BX       lr
        0x0001b9b6:    0000        ..      MOVS     r0,r0
    timer_disable
        0x0001b9b8:    b580        ..      PUSH     {r7,lr}
        0x0001b9ba:    2000        .       MOVS     r0,#0
        0x0001b9bc:    f7fefea2    ....    BL       am_hal_timer_disable ; 0x1a704
        0x0001b9c0:    2043        C       MOVS     r0,#0x43
        0x0001b9c2:    f7fcfd17    ....    BL       __NVIC_DisableIRQ ; 0x183f4
        0x0001b9c6:    bd80        ..      POP      {r7,pc}
    timer_init
        0x0001b9c8:    b580        ..      PUSH     {r7,lr}
        0x0001b9ca:    b08e        ..      SUB      sp,sp,#0x38
        0x0001b9cc:    900c        ..      STR      r0,[sp,#0x30]
        0x0001b9ce:    910b        ..      STR      r1,[sp,#0x2c]
        0x0001b9d0:    980b        ..      LDR      r0,[sp,#0x2c]
        0x0001b9d2:    f24821e4    H..!    MOV      r1,#0x82e4
        0x0001b9d6:    f2c10100    ....    MOVT     r1,#0x1000
        0x0001b9da:    6008        .`      STR      r0,[r1,#0]
        0x0001b9dc:    a806        ..      ADD      r0,sp,#0x18
        0x0001b9de:    9004        ..      STR      r0,[sp,#0x10]
        0x0001b9e0:    f7fefe80    ....    BL       am_hal_timer_default_config_set ; 0x1a6e4
        0x0001b9e4:    9904        ..      LDR      r1,[sp,#0x10]
        0x0001b9e6:    200f        .       MOVS     r0,#0xf
        0x0001b9e8:    f88d0018    ....    STRB     r0,[sp,#0x18]
        0x0001b9ec:    2002        .       MOVS     r0,#2
        0x0001b9ee:    f88d0019    ....    STRB     r0,[sp,#0x19]
        0x0001b9f2:    980c        ..      LDR      r0,[sp,#0x30]
        0x0001b9f4:    900a        ..      STR      r0,[sp,#0x28]
        0x0001b9f6:    2000        .       MOVS     r0,#0
        0x0001b9f8:    f7fefe72    ..r.    BL       am_hal_timer_config ; 0x1a6e0
        0x0001b9fc:    9005        ..      STR      r0,[sp,#0x14]
        0x0001b9fe:    9805        ..      LDR      r0,[sp,#0x14]
        0x0001ba00:    b118        ..      CBZ      r0,0x1ba0a ; timer_init + 66
        0x0001ba02:    e7ff        ..      B        0x1ba04 ; timer_init + 60
        0x0001ba04:    9805        ..      LDR      r0,[sp,#0x14]
        0x0001ba06:    900d        ..      STR      r0,[sp,#0x34]
        0x0001ba08:    e018        ..      B        0x1ba3c ; timer_init + 116
        0x0001ba0a:    2000        .       MOVS     r0,#0
        0x0001ba0c:    9003        ..      STR      r0,[sp,#0xc]
        0x0001ba0e:    f7fefe45    ..E.    BL       am_hal_timer_clear ; 0x1a69c
        0x0001ba12:    2002        .       MOVS     r0,#2
        0x0001ba14:    9002        ..      STR      r0,[sp,#8]
        0x0001ba16:    f7fefeb5    ....    BL       am_hal_timer_interrupt_clear ; 0x1a784
        0x0001ba1a:    2043        C       MOVS     r0,#0x43
        0x0001ba1c:    9001        ..      STR      r0,[sp,#4]
        0x0001ba1e:    2104        .!      MOVS     r1,#4
        0x0001ba20:    f7fcfd34    ..4.    BL       __NVIC_SetPriority ; 0x1848c
        0x0001ba24:    9801        ..      LDR      r0,[sp,#4]
        0x0001ba26:    f7fcfd19    ....    BL       __NVIC_EnableIRQ ; 0x1845c
        0x0001ba2a:    9802        ..      LDR      r0,[sp,#8]
        0x0001ba2c:    f7fefebc    ....    BL       am_hal_timer_interrupt_enable ; 0x1a7a8
        0x0001ba30:    9803        ..      LDR      r0,[sp,#0xc]
        0x0001ba32:    f7fefe7d    ..}.    BL       am_hal_timer_enable ; 0x1a730
        0x0001ba36:    9803        ..      LDR      r0,[sp,#0xc]
        0x0001ba38:    900d        ..      STR      r0,[sp,#0x34]
        0x0001ba3a:    e7ff        ..      B        0x1ba3c ; timer_init + 116
        0x0001ba3c:    980d        ..      LDR      r0,[sp,#0x34]
        0x0001ba3e:    b00e        ..      ADD      sp,sp,#0x38
        0x0001ba40:    bd80        ..      POP      {r7,pc}
    $t
    x$fpl$fpinit
    $v0
    _fp_init
        0x0001ba42:    eef10a10    ....    VMRS     r0,FPSCR
        0x0001ba46:    f64f71ff    O..q    MOV      r1,#0xffff
        0x0001ba4a:    f2c031c0    ...1    MOVT     r1,#0x3c0
        0x0001ba4e:    ea200001     ...    BIC      r0,r0,r1
        0x0001ba52:    f0407040    @.@p    ORR      r0,r0,#0x3000000
        0x0001ba56:    eee10a10    ....    VMSR     FPSCR,r0
    __fplib_config_fpu_vfp
    __fplib_config_pureend_doubles
        0x0001ba5a:    4770        pG      BX       lr
    $d.realdata
    SRAMMemCfg
        0x0001ba5c:    00000001    ....    DCD    1
        0x0001ba60:    0100        ..      DCW    256
    am_hal_cachectrl_defaults
        0x0001ba62:    030e        ..      DCW    782
        0x0001ba64:    00          .       DCB    0
    am_hal_daxi_defaults
        0x0001ba65:    000102      ...     DCB    0,1,2
        0x0001ba68:    0000010f    ....    DCD    271
    am_hal_gpio_pincfg_output
        0x0001ba6c:    00000183    ....    DCD    387
    am_hal_gpio_pincfg_pulledup_disabled
        0x0001ba70:    0000e083    ....    DCD    57475
    am_hal_pwrctrl_peripheral_control
        0x0001ba74:    40021004    ...@    DCD    1073876996
        0x0001ba78:    00000001    ....    DCD    1
        0x0001ba7c:    40021008    ...@    DCD    1073877000
        0x0001ba80:    00000001    ....    DCD    1
        0x0001ba84:    40021004    ...@    DCD    1073876996
        0x0001ba88:    00000002    ....    DCD    2
        0x0001ba8c:    40021008    ...@    DCD    1073877000
        0x0001ba90:    0000001e    ....    DCD    30
        0x0001ba94:    40021004    ...@    DCD    1073876996
        0x0001ba98:    00000004    ....    DCD    4
        0x0001ba9c:    40021008    ...@    DCD    1073877000
        0x0001baa0:    0000001e    ....    DCD    30
        0x0001baa4:    40021004    ...@    DCD    1073876996
        0x0001baa8:    00000008    ....    DCD    8
        0x0001baac:    40021008    ...@    DCD    1073877000
        0x0001bab0:    0000001e    ....    DCD    30
        0x0001bab4:    40021004    ...@    DCD    1073876996
        0x0001bab8:    00000010    ....    DCD    16
        0x0001babc:    40021008    ...@    DCD    1073877000
        0x0001bac0:    0000001e    ....    DCD    30
        0x0001bac4:    40021004    ...@    DCD    1073876996
        0x0001bac8:    00000020     ...    DCD    32
        0x0001bacc:    40021008    ...@    DCD    1073877000
        0x0001bad0:    000001e0    ....    DCD    480
        0x0001bad4:    40021004    ...@    DCD    1073876996
        0x0001bad8:    00000040    @...    DCD    64
        0x0001badc:    40021008    ...@    DCD    1073877000
        0x0001bae0:    000001e0    ....    DCD    480
        0x0001bae4:    40021004    ...@    DCD    1073876996
        0x0001bae8:    00000080    ....    DCD    128
        0x0001baec:    40021008    ...@    DCD    1073877000
        0x0001baf0:    000001e0    ....    DCD    480
        0x0001baf4:    40021004    ...@    DCD    1073876996
        0x0001baf8:    00000100    ....    DCD    256
        0x0001bafc:    40021008    ...@    DCD    1073877000
        0x0001bb00:    000001e0    ....    DCD    480
        0x0001bb04:    40021004    ...@    DCD    1073876996
        0x0001bb08:    00000200    ....    DCD    512
        0x0001bb0c:    40021008    ...@    DCD    1073877000
        0x0001bb10:    00001e00    ....    DCD    7680
        0x0001bb14:    40021004    ...@    DCD    1073876996
        0x0001bb18:    00000400    ....    DCD    1024
        0x0001bb1c:    40021008    ...@    DCD    1073877000
        0x0001bb20:    00001e00    ....    DCD    7680
        0x0001bb24:    40021004    ...@    DCD    1073876996
        0x0001bb28:    00000800    ....    DCD    2048
        0x0001bb2c:    40021008    ...@    DCD    1073877000
        0x0001bb30:    00001e00    ....    DCD    7680
        0x0001bb34:    40021004    ...@    DCD    1073876996
        0x0001bb38:    00001000    ....    DCD    4096
        0x0001bb3c:    40021008    ...@    DCD    1073877000
        0x0001bb40:    00001e00    ....    DCD    7680
        0x0001bb44:    40021004    ...@    DCD    1073876996
        0x0001bb48:    00002000    . ..    DCD    8192
        0x0001bb4c:    40021008    ...@    DCD    1073877000
        0x0001bb50:    00002000    . ..    DCD    8192
        0x0001bb54:    40021004    ...@    DCD    1073876996
        0x0001bb58:    00004000    .@..    DCD    16384
        0x0001bb5c:    40021008    ...@    DCD    1073877000
        0x0001bb60:    0001c000    ....    DCD    114688
        0x0001bb64:    40021004    ...@    DCD    1073876996
        0x0001bb68:    00008000    ....    DCD    32768
        0x0001bb6c:    40021008    ...@    DCD    1073877000
        0x0001bb70:    0001c000    ....    DCD    114688
        0x0001bb74:    40021004    ...@    DCD    1073876996
        0x0001bb78:    00010000    ....    DCD    65536
        0x0001bb7c:    40021008    ...@    DCD    1073877000
        0x0001bb80:    0001c000    ....    DCD    114688
        0x0001bb84:    40021004    ...@    DCD    1073876996
        0x0001bb88:    00020000    ....    DCD    131072
        0x0001bb8c:    40021008    ...@    DCD    1073877000
        0x0001bb90:    00020000    ....    DCD    131072
        0x0001bb94:    40021004    ...@    DCD    1073876996
        0x0001bb98:    00040000    ....    DCD    262144
        0x0001bb9c:    40021008    ...@    DCD    1073877000
        0x0001bba0:    00040000    ....    DCD    262144
        0x0001bba4:    40021004    ...@    DCD    1073876996
        0x0001bba8:    00080000    ....    DCD    524288
        0x0001bbac:    40021008    ...@    DCD    1073877000
        0x0001bbb0:    00080000    ....    DCD    524288
        0x0001bbb4:    40021004    ...@    DCD    1073876996
        0x0001bbb8:    00100000    ....    DCD    1048576
        0x0001bbbc:    40021008    ...@    DCD    1073877000
        0x0001bbc0:    00100000    ....    DCD    1048576
        0x0001bbc4:    40021004    ...@    DCD    1073876996
        0x0001bbc8:    00200000    .. .    DCD    2097152
        0x0001bbcc:    40021008    ...@    DCD    1073877000
        0x0001bbd0:    00200000    .. .    DCD    2097152
        0x0001bbd4:    40021004    ...@    DCD    1073876996
        0x0001bbd8:    00400000    ..@.    DCD    4194304
        0x0001bbdc:    40021008    ...@    DCD    1073877000
        0x0001bbe0:    00400000    ..@.    DCD    4194304
        0x0001bbe4:    40021004    ...@    DCD    1073876996
        0x0001bbe8:    00800000    ....    DCD    8388608
        0x0001bbec:    40021008    ...@    DCD    1073877000
        0x0001bbf0:    00800000    ....    DCD    8388608
        0x0001bbf4:    40021004    ...@    DCD    1073876996
        0x0001bbf8:    01000000    ....    DCD    16777216
        0x0001bbfc:    40021008    ...@    DCD    1073877000
        0x0001bc00:    01000000    ....    DCD    16777216
        0x0001bc04:    4002100c    ...@    DCD    1073877004
        0x0001bc08:    00000001    ....    DCD    1
        0x0001bc0c:    40021010    ...@    DCD    1073877008
        0x0001bc10:    000000ff    ....    DCD    255
        0x0001bc14:    4002100c    ...@    DCD    1073877004
        0x0001bc18:    00000002    ....    DCD    2
        0x0001bc1c:    40021010    ...@    DCD    1073877008
        0x0001bc20:    000000ff    ....    DCD    255
        0x0001bc24:    4002100c    ...@    DCD    1073877004
        0x0001bc28:    00000004    ....    DCD    4
        0x0001bc2c:    40021010    ...@    DCD    1073877008
        0x0001bc30:    000000ff    ....    DCD    255
        0x0001bc34:    4002100c    ...@    DCD    1073877004
        0x0001bc38:    00000008    ....    DCD    8
        0x0001bc3c:    40021010    ...@    DCD    1073877008
        0x0001bc40:    000000ff    ....    DCD    255
        0x0001bc44:    4002100c    ...@    DCD    1073877004
        0x0001bc48:    00000010    ....    DCD    16
        0x0001bc4c:    40021010    ...@    DCD    1073877008
        0x0001bc50:    000000ff    ....    DCD    255
        0x0001bc54:    4002100c    ...@    DCD    1073877004
        0x0001bc58:    00000020     ...    DCD    32
        0x0001bc5c:    40021010    ...@    DCD    1073877008
        0x0001bc60:    000000ff    ....    DCD    255
        0x0001bc64:    4002100c    ...@    DCD    1073877004
        0x0001bc68:    00000040    @...    DCD    64
        0x0001bc6c:    40021010    ...@    DCD    1073877008
        0x0001bc70:    000000ff    ....    DCD    255
        0x0001bc74:    4002100c    ...@    DCD    1073877004
        0x0001bc78:    00000080    ....    DCD    128
        0x0001bc7c:    40021010    ...@    DCD    1073877008
        0x0001bc80:    000000ff    ....    DCD    255
        0x0001bc84:    4002100c    ...@    DCD    1073877004
        0x0001bc88:    00000400    ....    DCD    1024
        0x0001bc8c:    40021010    ...@    DCD    1073877008
        0x0001bc90:    00000400    ....    DCD    1024
    gAmHalCmdQReg
        0x0001bc94:    40050228    (..@    DCD    1074070056
        0x0001bc98:    4005022c    ,..@    DCD    1074070060
        0x0001bc9c:    40050240    @..@    DCD    1074070080
        0x0001bca0:    40050244    D..@    DCD    1074070084
        0x0001bca4:    4005023c    <..@    DCD    1074070076
        0x0001bca8:    00008000    ....    DCD    32768
        0x0001bcac:    40050230    0..@    DCD    1074070064
        0x0001bcb0:    00000001    ....    DCD    1
        0x0001bcb4:    00000004    ....    DCD    4
        0x0001bcb8:    00000002    ....    DCD    2
        0x0001bcbc:    40051228    (..@    DCD    1074074152
        0x0001bcc0:    4005122c    ,..@    DCD    1074074156
        0x0001bcc4:    40051240    @..@    DCD    1074074176
        0x0001bcc8:    40051244    D..@    DCD    1074074180
        0x0001bccc:    4005123c    <..@    DCD    1074074172
        0x0001bcd0:    00008000    ....    DCD    32768
        0x0001bcd4:    40051230    0..@    DCD    1074074160
        0x0001bcd8:    00000001    ....    DCD    1
        0x0001bcdc:    00000004    ....    DCD    4
        0x0001bce0:    00000002    ....    DCD    2
        0x0001bce4:    40052228    (".@    DCD    1074078248
        0x0001bce8:    4005222c    ,".@    DCD    1074078252
        0x0001bcec:    40052240    @".@    DCD    1074078272
        0x0001bcf0:    40052244    D".@    DCD    1074078276
        0x0001bcf4:    4005223c    <".@    DCD    1074078268
        0x0001bcf8:    00008000    ....    DCD    32768
        0x0001bcfc:    40052230    0".@    DCD    1074078256
        0x0001bd00:    00000001    ....    DCD    1
        0x0001bd04:    00000004    ....    DCD    4
        0x0001bd08:    00000002    ....    DCD    2
        0x0001bd0c:    40053228    (2.@    DCD    1074082344
        0x0001bd10:    4005322c    ,2.@    DCD    1074082348
        0x0001bd14:    40053240    @2.@    DCD    1074082368
        0x0001bd18:    40053244    D2.@    DCD    1074082372
        0x0001bd1c:    4005323c    <2.@    DCD    1074082364
        0x0001bd20:    00008000    ....    DCD    32768
        0x0001bd24:    40053230    02.@    DCD    1074082352
        0x0001bd28:    00000001    ....    DCD    1
        0x0001bd2c:    00000004    ....    DCD    4
        0x0001bd30:    00000002    ....    DCD    2
        0x0001bd34:    40054228    (B.@    DCD    1074086440
        0x0001bd38:    4005422c    ,B.@    DCD    1074086444
        0x0001bd3c:    40054240    @B.@    DCD    1074086464
        0x0001bd40:    40054244    DB.@    DCD    1074086468
        0x0001bd44:    4005423c    <B.@    DCD    1074086460
        0x0001bd48:    00008000    ....    DCD    32768
        0x0001bd4c:    40054230    0B.@    DCD    1074086448
        0x0001bd50:    00000001    ....    DCD    1
        0x0001bd54:    00000004    ....    DCD    4
        0x0001bd58:    00000002    ....    DCD    2
        0x0001bd5c:    40055228    (R.@    DCD    1074090536
        0x0001bd60:    4005522c    ,R.@    DCD    1074090540
        0x0001bd64:    40055240    @R.@    DCD    1074090560
        0x0001bd68:    40055244    DR.@    DCD    1074090564
        0x0001bd6c:    4005523c    <R.@    DCD    1074090556
        0x0001bd70:    00008000    ....    DCD    32768
        0x0001bd74:    40055230    0R.@    DCD    1074090544
        0x0001bd78:    00000001    ....    DCD    1
        0x0001bd7c:    00000004    ....    DCD    4
        0x0001bd80:    00000002    ....    DCD    2
        0x0001bd84:    40056228    (b.@    DCD    1074094632
        0x0001bd88:    4005622c    ,b.@    DCD    1074094636
        0x0001bd8c:    40056240    @b.@    DCD    1074094656
        0x0001bd90:    40056244    Db.@    DCD    1074094660
        0x0001bd94:    4005623c    <b.@    DCD    1074094652
        0x0001bd98:    00008000    ....    DCD    32768
        0x0001bd9c:    40056230    0b.@    DCD    1074094640
        0x0001bda0:    00000001    ....    DCD    1
        0x0001bda4:    00000004    ....    DCD    4
        0x0001bda8:    00000002    ....    DCD    2
        0x0001bdac:    40057228    (r.@    DCD    1074098728
        0x0001bdb0:    4005722c    ,r.@    DCD    1074098732
        0x0001bdb4:    40057240    @r.@    DCD    1074098752
        0x0001bdb8:    40057244    Dr.@    DCD    1074098756
        0x0001bdbc:    4005723c    <r.@    DCD    1074098748
        0x0001bdc0:    00008000    ....    DCD    32768
        0x0001bdc4:    40057230    0r.@    DCD    1074098736
        0x0001bdc8:    00000001    ....    DCD    1
        0x0001bdcc:    00000004    ....    DCD    4
        0x0001bdd0:    00000002    ....    DCD    2
        0x0001bdd4:    400602a0    ...@    DCD    1074135712
        0x0001bdd8:    400602a8    ...@    DCD    1074135720
        0x0001bddc:    400602c0    ...@    DCD    1074135744
        0x0001bde0:    400602c4    ...@    DCD    1074135748
        0x0001bde4:    400602b8    ...@    DCD    1074135736
        0x0001bde8:    00004000    .@..    DCD    16384
        0x0001bdec:    400602ac    ...@    DCD    1074135724
        0x0001bdf0:    00000001    ....    DCD    1
        0x0001bdf4:    00000004    ....    DCD    4
        0x0001bdf8:    00000008    ....    DCD    8
        0x0001bdfc:    400612a0    ...@    DCD    1074139808
        0x0001be00:    400612a8    ...@    DCD    1074139816
        0x0001be04:    400612c0    ...@    DCD    1074139840
        0x0001be08:    400612c4    ...@    DCD    1074139844
        0x0001be0c:    400612b8    ...@    DCD    1074139832
        0x0001be10:    00004000    .@..    DCD    16384
        0x0001be14:    400612ac    ...@    DCD    1074139820
        0x0001be18:    00000001    ....    DCD    1
        0x0001be1c:    00000004    ....    DCD    4
        0x0001be20:    00000008    ....    DCD    8
        0x0001be24:    400622a0    .".@    DCD    1074143904
        0x0001be28:    400622a8    .".@    DCD    1074143912
        0x0001be2c:    400622c0    .".@    DCD    1074143936
        0x0001be30:    400622c4    .".@    DCD    1074143940
        0x0001be34:    400622b8    .".@    DCD    1074143928
        0x0001be38:    00004000    .@..    DCD    16384
        0x0001be3c:    400622ac    .".@    DCD    1074143916
        0x0001be40:    00000001    ....    DCD    1
        0x0001be44:    00000004    ....    DCD    4
        0x0001be48:    00000008    ....    DCD    8
    g_AM_GPIO_OFF
        0x0001be4c:    00000003    ....    DCD    3
    g_AM_GPIO_OUTPUT_CONFIG
        0x0001be50:    00000183    ....    DCD    387
    g_DefaultMcuMemCfg
        0x0001be54:    07070102    ....    DCD    117899522
        0x0001be58:    0001        ..      DCW    1
    g_DefaultSRAMCfg
        0x0001be5a:    0003        ..      DCW    3
        0x0001be5c:    03000000    ....    DCD    50331648
    g_am_hal_bootrom_helper
        0x0001be60:    0800004d    M...    DCD    134217805
        0x0001be64:    08000051    Q...    DCD    134217809
        0x0001be68:    08000055    U...    DCD    134217813
        0x0001be6c:    08000059    Y...    DCD    134217817
        0x0001be70:    0800006d    m...    DCD    134217837
        0x0001be74:    08000075    u...    DCD    134217845
        0x0001be78:    08000079    y...    DCD    134217849
        0x0001be7c:    08000081    ....    DCD    134217857
        0x0001be80:    08000099    ....    DCD    134217881
        0x0001be84:    0800009d    ....    DCD    134217885
    g_iomDefsTable
        0x0001be88:    00000005    ....    DCD    5
        0x0001be8c:    10000018    ....    DCD    268435480
        0x0001be90:    00000007    ....    DCD    7
        0x0001be94:    10000528    (...    DCD    268436776
        0x0001be98:    00000006    ....    DCD    6
        0x0001be9c:    10000014    ....    DCD    268435476
        0x0001bea0:    00000048    H...    DCD    72
        0x0001bea4:    10000010    ....    DCD    268435472
        0x0001bea8:    00000000    ....    DCD    0
        0x0001beac:    00000003    ....    DCD    3
        0x0001beb0:    00000002    ....    DCD    2
        0x0001beb4:    00000008    ....    DCD    8
        0x0001beb8:    10000030    0...    DCD    268435504
        0x0001bebc:    0000000a    ....    DCD    10
        0x0001bec0:    10000028    (...    DCD    268435496
        0x0001bec4:    00000009    ....    DCD    9
        0x0001bec8:    1000002c    ,...    DCD    268435500
        0x0001becc:    0000000b    ....    DCD    11
        0x0001bed0:    10000024    $...    DCD    268435492
        0x0001bed4:    00000000    ....    DCD    0
        0x0001bed8:    00000003    ....    DCD    3
        0x0001bedc:    00000002    ....    DCD    2
        0x0001bee0:    00000019    ....    DCD    25
        0x0001bee4:    10000044    D...    DCD    268435524
        0x0001bee8:    0000001b    ....    DCD    27
        0x0001beec:    1000052c    ,...    DCD    268436780
        0x0001bef0:    0000001a    ....    DCD    26
        0x0001bef4:    10000040    @...    DCD    268435520
        0x0001bef8:    00000025    %...    DCD    37
        0x0001befc:    1000003c    <...    DCD    268435516
        0x0001bf00:    00000000    ....    DCD    0
        0x0001bf04:    00000003    ....    DCD    3
        0x0001bf08:    00000002    ....    DCD    2
        0x0001bf0c:    0000001f    ....    DCD    31
        0x0001bf10:    10000058    X...    DCD    268435544
        0x0001bf14:    00000021    !...    DCD    33
        0x0001bf18:    10000530    0...    DCD    268436784
        0x0001bf1c:    00000020     ...    DCD    32
        0x0001bf20:    10000054    T...    DCD    268435540
        0x0001bf24:    00000055    U...    DCD    85
        0x0001bf28:    10000050    P...    DCD    268435536
        0x0001bf2c:    00000000    ....    DCD    0
        0x0001bf30:    00000003    ....    DCD    3
        0x0001bf34:    00000002    ....    DCD    2
        0x0001bf38:    00000022    "...    DCD    34
        0x0001bf3c:    1000006c    l...    DCD    268435564
        0x0001bf40:    00000024    $...    DCD    36
        0x0001bf44:    10000534    4...    DCD    268436788
        0x0001bf48:    00000023    #...    DCD    35
        0x0001bf4c:    10000068    h...    DCD    268435560
        0x0001bf50:    0000002b    +...    DCD    43
        0x0001bf54:    10000064    d...    DCD    268435556
        0x0001bf58:    00000000    ....    DCD    0
        0x0001bf5c:    00000003    ....    DCD    3
        0x0001bf60:    00000002    ....    DCD    2
        0x0001bf64:    0000002f    /...    DCD    47
        0x0001bf68:    10000078    x...    DCD    268435576
        0x0001bf6c:    00000031    1...    DCD    49
        0x0001bf70:    10000538    8...    DCD    268436792
        0x0001bf74:    00000030    0...    DCD    48
        0x0001bf78:    10000074    t...    DCD    268435572
        0x0001bf7c:    0000003c    <...    DCD    60
        0x0001bf80:    10000070    p...    DCD    268435568
        0x0001bf84:    00000000    ....    DCD    0
        0x0001bf88:    00000003    ....    DCD    3
        0x0001bf8c:    00000002    ....    DCD    2
        0x0001bf90:    0000003d    =...    DCD    61
        0x0001bf94:    1000008c    ....    DCD    268435596
        0x0001bf98:    0000003f    ?...    DCD    63
        0x0001bf9c:    1000053c    <...    DCD    268436796
        0x0001bfa0:    0000003e    >...    DCD    62
        0x0001bfa4:    10000088    ....    DCD    268435592
        0x0001bfa8:    0000001e    ....    DCD    30
        0x0001bfac:    10000084    ....    DCD    268435588
        0x0001bfb0:    00000000    ....    DCD    0
        0x0001bfb4:    00000003    ....    DCD    3
        0x0001bfb8:    00000002    ....    DCD    2
        0x0001bfbc:    00000016    ....    DCD    22
        0x0001bfc0:    100000a0    ....    DCD    268435616
        0x0001bfc4:    00000018    ....    DCD    24
        0x0001bfc8:    10000540    @...    DCD    268436800
        0x0001bfcc:    00000017    ....    DCD    23
        0x0001bfd0:    1000009c    ....    DCD    268435612
        0x0001bfd4:    00000040    @...    DCD    64
        0x0001bfd8:    10000098    ....    DCD    268435608
        0x0001bfdc:    00000000    ....    DCD    0
        0x0001bfe0:    00000003    ....    DCD    3
        0x0001bfe4:    00000002    ....    DCD    2
    iomPinSetup
        0x0001bfe8:    00000007    ....    DCD    7
        0x0001bfec:    01010101    ....    DCD    16843009
        0x0001bff0:    00000000    ....    DCD    0
    __tagsym$$used.7
    sGlobalAccess
        0x0001bff4:    0001c0c0    ....    DCD    114880
        0x0001bff8:    0001c0ac    ....    DCD    114860
        0x0001bffc:    0001c084    ....    DCD    114820
        0x0001c000:    0001c098    ....    DCD    114840
        0x0001c004:    10060004    ....    DCD    268828676
        0x0001c008:    10060018    ....    DCD    268828696
        0x0001c00c:    1006002c    ,...    DCD    268828716
    g_ui32DSpintbl
        0x0001c010:    8fc007e0    ....    DCD    2411726816
        0x0001c014:    e3fbffff    ....    DCD    3824943103
        0x0001c018:    01ffffff    ....    DCD    33554431
        0x0001c01c:    00000000    ....    DCD    0
    tIomConfig
        0x0001c020:    00000000    ....    DCD    0
        0x0001c024:    000f4240    @B..    DCD    1000000
        0x0001c028:    00000000    ....    DCD    0
        0x0001c02c:    100062c8    .b..    DCD    268460744
        0x0001c030:    00000800    ....    DCD    2048
    tIomPinAlloc
        0x0001c034:    00510050    P.Q.    DCD    5308496
        0x0001c038:    00610060    `.a.    DCD    6357088
        0x0001c03c:    00840070    p...    DCD    8650864
        0x0001c040:    00940085    ....    DCD    9699461
        0x0001c044:    00a40095    ....    DCD    10748053
        0x0001c048:    01910190    ....    DCD    26280336
        0x0001c04c:    01a101a0    ....    DCD    27328928
        0x0001c050:    01f001b0    ....    DCD    32506288
        0x0001c054:    020001f1    ....    DCD    33554929
        0x0001c058:    02100201    ....    DCD    34603521
        0x0001c05c:    02210220     .!.    DCD    35717664
        0x0001c060:    02310230    0.1.    DCD    36766256
        0x0001c064:    02f00240    @...    DCD    49283648
        0x0001c068:    030002f1    ....    DCD    50332401
        0x0001c06c:    03100301    ....    DCD    51380993
        0x0001c070:    03d103d0    ....    DCD    64029648
        0x0001c074:    03e103e0    ....    DCD    65078240
        0x0001c078:    016003f0    ..`.    DCD    23069680
        0x0001c07c:    01700161    a.p.    DCD    24117601
        0x0001c080:    01800171    q...    DCD    25166193
    __tagsym$$used.1
    ui32DSP0Allowed
        0x0001c084:    00000000    ....    DCD    0
        0x0001c088:    00000000    ....    DCD    0
        0x0001c08c:    00000000    ....    DCD    0
        0x0001c090:    00000000    ....    DCD    0
        0x0001c094:    00000000    ....    DCD    0
    __tagsym$$used.2
    ui32DSP1Allowed
        0x0001c098:    00000000    ....    DCD    0
        0x0001c09c:    00000000    ....    DCD    0
        0x0001c0a0:    00000000    ....    DCD    0
        0x0001c0a4:    00000000    ....    DCD    0
        0x0001c0a8:    00000000    ....    DCD    0
    __tagsym$$used.0
    ui32MCUAllowed
        0x0001c0ac:    00000000    ....    DCD    0
        0x0001c0b0:    00000000    ....    DCD    0
        0x0001c0b4:    00000000    ....    DCD    0
        0x0001c0b8:    00000000    ....    DCD    0
        0x0001c0bc:    00000000    ....    DCD    0
    __tagsym$$used.3
    ui32SharedAccess
        0x0001c0c0:    00000000    ....    DCD    0
        0x0001c0c4:    00000000    ....    DCD    0
        0x0001c0c8:    00000000    ....    DCD    0
        0x0001c0cc:    00000000    ....    DCD    0
        0x0001c0d0:    00000000    ....    DCD    0
    Region$$Table$$Base
        0x0001c0d4:    0001c108    ....    DCD    114952
        0x0001c0d8:    10000000    ....    DCD    268435456
        0x0001c0dc:    000000b0    ....    DCD    176
        0x0001c0e0:    00018270    p...    DCD    98928
        0x0001c0e4:    0001c1b8    ....    DCD    115128
        0x0001c0e8:    10060000    ....    DCD    268828672
        0x0001c0ec:    00000040    @...    DCD    64
        0x0001c0f0:    00018270    p...    DCD    98928
        0x0001c0f4:    0001c1b8    ....    DCD    115128
        0x0001c0f8:    100000b0    ....    DCD    268435632
        0x0001c0fc:    00009238    8...    DCD    37432
        0x0001c100:    0001828c    ....    DCD    98956
    Region$$Table$$Limit

** Section #2 'MCU_TCM' (SHT_PROGBITS) [SHF_ALLOC + SHF_WRITE]
    Size   : 176 bytes (alignment 8)
    Address: 0x10000000

    0x10000000:   ff ff ff ff ff ff ff ff 00 01 02 0f 01 00 00 00    ................
    0x10000010:   87 05 00 00 01 04 00 00 01 04 00 00 00 46 00 00    .............F..
    0x10000020:   00 46 00 00 87 05 04 00 04 00 00 00 05 04 00 00    .F..............
    0x10000030:   05 04 00 00 04 46 00 00 04 46 00 00 87 05 08 00    .....F...F......
    0x10000040:   01 04 00 00 01 04 00 00 00 46 00 00 00 46 00 00    .........F...F..
    0x10000050:   87 05 0c 00 01 04 00 00 01 04 00 00 00 46 00 00    .............F..
    0x10000060:   00 46 00 00 87 05 10 00 01 04 00 00 01 04 00 00    .F..............
    0x10000070:   87 05 14 00 01 04 00 00 01 04 00 00 00 46 00 00    .............F..
    0x10000080:   00 46 00 00 87 05 18 00 01 04 00 00 01 04 00 00    .F..............
    0x10000090:   00 46 00 00 00 46 00 00 87 05 1c 00 01 04 00 00    .F...F..........
    0x100000a0:   01 04 00 00 00 46 00 00 00 46 00 00 00 00 00 00    .....F...F......


** Section #3 'MCU_TCM' (SHT_NOBITS) [SHF_ALLOC + SHF_WRITE]
    Size   : 37432 bytes (alignment 8)
    Address: 0x100000b0


** Section #4 'SHARED_SRAM' (SHT_PROGBITS) [SHF_ALLOC + SHF_WRITE]
    Size   : 64 bytes (alignment 4)
    Address: 0x10060000

    0x10060000:   f4 bf 01 00 00 00 00 00 00 00 00 00 00 00 00 00    ................
    0x10060010:   00 00 00 00 00 00 00 00 00 00 00 00 00 00 00 00    ................
    0x10060020:   00 00 00 00 00 00 00 00 00 00 00 00 00 00 00 00    ................
    0x10060030:   00 00 00 00 00 00 00 00 00 00 00 00 00 00 00 00    ................


** Section #5 '.debug_abbrev' (SHT_PROGBITS)
    Size   : 1940 bytes


** Section #6 '.debug_frame' (SHT_PROGBITS)
    Size   : 5904 bytes


** Section #7 '.debug_info' (SHT_PROGBITS)
    Size   : 95465 bytes


** Section #8 '.debug_line' (SHT_PROGBITS)
    Size   : 4100 bytes


** Section #9 '.debug_ranges' (SHT_PROGBITS)
    Size   : 280 bytes


** Section #10 '.debug_str' (SHT_PROGBITS)
    Size   : 46807 bytes


** Section #11 '.symtab' (SHT_SYMTAB)
    Size   : 8496 bytes (alignment 4)
    String table #12 '.strtab'
    Last local symbol no. 243

    Symbol table .symtab (530 symbols, 243 local)

      #  Symbol Name                Value      Bind  Sec  Type  Vis  Size
    ========================================================================

      1  $d                         0x00018000   Lc    1   --   De 
      2  $t                         0x00018200   Lc    1   --   De 
      3  $d                         0x00018230   Lc    1   --   De 
      4  $t                         0x00018234   Lc    1   --   De 
      5  $d                         0x00018268   Lc    1   --   De 
      6  $t                         0x00018270   Lc    1   --   De 
      7  $d                         0x000182de   Lc    1   --   De 
      8  $t                         0x000182ec   Lc    1   --   De 
      9  $d                         0x00018354   Lc    1   --   De 
     10  $t                         0x00018358   Lc    1   --   De 
     11  $d                         0x00018360   Lc    1   --   De 
     12  $t                         0x00018364   Lc    1   --   De 
     13  $t.0                       0x00018368   Lc    1   --   De 
     14  $d.4                       0x00018388   Lc    1   --   De 
     15  $t.4                       0x0001838c   Lc    1   --   De 
     16  $d.23                      0x000184fa   Lc    1   --   De 
     17  $t.24                      0x00018538   Lc    1   --   De 
     18  $d.9                       0x00018ce4   Lc    1   --   De 
     19  $t.10                      0x00018ce8   Lc    1   --   De 
     20  $d.5                       0x00018fda   Lc    1   --   De 
     21  $t.6                       0x00018fe0   Lc    1   --   De 
     22  $d.22                      0x00019d52   Lc    1   --   De 
     23  $t.23                      0x00019d58   Lc    1   --   De 
     24  $d.3                       0x0001a19c   Lc    1   --   De 
     25  $t.4                       0x0001a1a4   Lc    1   --   De 
     26  $d.7                       0x0001a542   Lc    1   --   De 
     27  $t.8                       0x0001a548   Lc    1   --   De 
     28  $d.1                       0x0001b148   Lc    1   --   De 
     29  $t.2                       0x0001b158   Lc    1   --   De 
     30  $t                         0x0001ba42   Lc    1   --   De 
     31  $d.realdata                0x0001ba5c   Lc    1   --   De 
     32  $d.realdata                0x10000000   Lc    2   --   De 
     33  $d.realdata                0x10060000   Lc    4   --   De 
     34  am_resources.c             0x00000000   Lc  Abs  File  De 
     35  __tagsym$$used.0           0x0001c0ac   Lc    1   --   De 
     36  __tagsym$$used.1           0x0001c084   Lc    1   --   De 
     37  __tagsym$$used.2           0x0001c098   Lc    1   --   De 
     38  __tagsym$$used.3           0x0001c0c0   Lc    1   --   De 
     39  __tagsym$$used.4           0x10060004   Lc    4   --   De 
     40  __tagsym$$used.5           0x10060018   Lc    4   --   De 
     41  __tagsym$$used.6           0x1006002c   Lc    4   --   De 
     42  __tagsym$$used.7           0x0001bff4   Lc    1   --   De 
     43  __tagsym$$used.8           0x10060000   Lc    4   --   De 
     44  pwr_control_utils.c        0x00000000   Lc  Abs  File  De 
     45  SRAMMemCfg                 0x0001ba5c   Lc    1  Data  De   0x6
     46  pwr_gpio_utils.c           0x00000000   Lc  Abs  File  De 
     47  pwr_iom_spi.c              0x00000000   Lc  Abs  File  De 
     48  iom_init                   0x0001b445   Lc    1  Code  De   0x9a
     49  timerCallback              0x0001b9a5   Lc    1  Code  De   0x12
     50  __NVIC_ClearPendingIRQ     0x0001838d   Lc    1  Code  De   0x30
     51  __NVIC_EnableIRQ           0x0001842d   Lc    1  Code  De   0x30
     52  init_pattern               0x0001aa31   Lc    1  Code  De   0x18
     53  pwr_data_transfer_sequence 0x0001b5dd   Lc    1  Code  De   0x16c
     54  __NVIC_DisableIRQ          0x000183bd   Lc    1  Code  De   0x38
     55  pwr_terminate_transfer     0x0001b86d   Lc    1  Code  De   0x2e
     56  iom_dma_read               0x0001b1f5   Lc    1  Code  De   0x5c
     57  iom_dma_write              0x0001b251   Lc    1  Code  De   0x5c
     58  iomCompleteCallback        0x0001b1d9   Lc    1  Code  De   0x1a
     59  g_tGlb                     0x10004a84   Lc    3  Data  De   0x3860
     60  tIomConfig                 0x0001c020   Lc    1  Data  De   0x14
     61  iomPinSetup                0x0001bfe8   Lc    1  Data  De   0xc
     62  pwr_iom_utils.c            0x00000000   Lc  Abs  File  De 
     63  pwr_iom_MOSI_MISO_setup    0x0001b749   Lc    1  Code  De   0xce
     64  g_AM_GPIO_OFF              0x0001be4c   Lc    1  Data  De   0x4
     65  g_AM_GPIO_OUTPUT_CONFIG    0x0001be50   Lc    1  Data  De   0x4
     66  pwr_timer_utils.c          0x00000000   Lc  Abs  File  De 
     67  __NVIC_SetPriority         0x0001848d   Lc    1  Code  De   0x42
     68  __NVIC_EnableIRQ           0x0001845d   Lc    1  Code  De   0x30
     69  __NVIC_DisableIRQ          0x000183f5   Lc    1  Code  De   0x38
     70  pfnTimerCallbackFcn        0x100082e4   Lc    3  Data  De   0x4
     71  am_util_delay.c            0x00000000   Lc  Abs  File  De 
     72  am_util_faultisr.c         0x00000000   Lc  Abs  File  De 
     73  am_util_stdio.c            0x00000000   Lc  Abs  File  De 
     74  ../keil6/startup_keil6.s   0x00000000   Lc  Abs  File  De 
     75  STACK                      0x100082e8   Lc    3  Sect  De   0x1000
     76  StackMem                   0x100082e8   Lc    3  Data  De 
     77  HEAP                       0x100082e8   Lc    3  Sect  De 
     78  HeapMem                    0x100082e8   Lc    3  Data  De 
     79  RESET                      0x00018000   Lc    1  Sect  De   0x234
     80  $v0                        0x00018200   Lc    1   --   De 
     81  am_cryptosec_isr           0x0001822f   Lc    1  Code  De 
     82  am_default_isr             0x0001822f   Lc    1  Code  De   0x2
     83  .text                      0x000182d4   Lc    1  Sect  De   0x18
     84  $v0                        0x000182d4   Lc    1   --   De 
     85  am_hal_gpio.c              0x00000000   Lc  Abs  File  De 
     86  g_ui32DSpintbl             0x0001c010   Lc    1  Data  De   0x10
     87  am_hal_pwrctrl.c           0x00000000   Lc  Abs  File  De 
     88  .L_MergedGlobals           0x10000000   Lc    2  Data  De   0x8
     89  .L_MergedGlobals.1         0x10000110   Lc    3  Data  De   0x30
     90  g_bBoostForCryptoApplied   0x10000110   Lc    3  Data  De   0x1
     91  g_bOrigTrimsStored         0x10000111   Lc    3  Data  De   0x1
     92  g_bTempcoValid             0x10000112   Lc    3  Data  De   0x1
     93  g_i32LatestVddfActTrim     0x10000114   Lc    3  Data  De   0x4
     94  g_i32LatestLDOActTrim      0x10000118   Lc    3  Data  De   0x4
     95  g_ui32VDDFAdjustCodes      0x1000011c   Lc    3  Data  De   0x4
     96  g_orig_ACTTRIMVDDF         0x10000120   Lc    3  Data  De   0x4
     97  g_orig_MEMLDOACTIVETRIM    0x10000124   Lc    3  Data  De   0x4
     98  g_orig_LPTRIMVDDF          0x10000128   Lc    3  Data  De   0x4
     99  g_orig_MEMLPLDOTRIM        0x1000012c   Lc    3  Data  De   0x4
    100  g_orig_TVRGVREFTRIM        0x10000130   Lc    3  Data  De   0x4
    101  g_orig_CORELDOACTIVETRIM   0x10000134   Lc    3  Data  De   0x4
    102  g_pfTempMeasured           0x10000138   Lc    3  Data  De   0x4
    103  g_TempcoADCHandle          0x1000013c   Lc    3  Data  De   0x4
    104  am_hal_timer.c             0x00000000   Lc  Abs  File  De 
    105  am_hal_cachectrl.c         0x00000000   Lc  Abs  File  De 
    106  am_hal_fault.c             0x00000000   Lc  Abs  File  De 
    107  am_hal_interrupt.c         0x00000000   Lc  Abs  File  De 
    108  am_hal_iom.c               0x00000000   Lc  Abs  File  De 
    109  internal_iom_reset_on_error
                                    0x0001ac7d   Lc    1  Code  De   0x4b4
    110  iom_get_interface_clock_cfg
                                    0x0001b2b1   Lc    1  Code  De   0x194
    111  iom_dummy_callback         0x0001b2ad   Lc    1  Code  De   0x2
    112  internal_iom_error_reset_disable_submodule
                                    0x0001aa49   Lc    1  Code  De   0x1f8
    113  tIomPinAlloc               0x0001c034   Lc    1  Data  De   0x50
    114  am_hal_sysctrl.c           0x00000000   Lc  Abs  File  De 
    115  am_hal_utils.c             0x00000000   Lc  Abs  File  De 
    116  am_bsp.c                   0x00000000   Lc  Abs  File  De 
    117  am_bsp_pins.c              0x00000000   Lc  Abs  File  De 
    118  am_hal_adc.c               0x00000000   Lc  Abs  File  De 
    119  am_hal_dcu.c               0x00000000   Lc  Abs  File  De 
    120  am_hal_global.c            0x00000000   Lc  Abs  File  De 
    121  am_hal_pin.c               0x00000000   Lc  Abs  File  De 
    122  am_hal_bootrom_helper.c    0x00000000   Lc  Abs  File  De 
    123  am_hal_cmdq.c              0x00000000   Lc  Abs  File  De 
    124  gAmHalCmdq                 0x10000140   Lc    3  Data  De   0x1e4
    125  gAmHalCmdQReg              0x0001bc94   Lc    1  Data  De   0x1b8
    126  am_hal_itm.c               0x00000000   Lc  Abs  File  De 
    127  am_hal_mram.c              0x00000000   Lc  Abs  File  De 
    128  am_hal_rtc.c               0x00000000   Lc  Abs  File  De 
    129  am_hal_tpiu.c              0x00000000   Lc  Abs  File  De 
    130  am_hal_uart.c              0x00000000   Lc  Abs  File  De 
    131  am_hal_queue.c             0x00000000   Lc  Abs  File  De 
    132  dc.s                       0x00000000   Lc  Abs  File  De 
    133  ../clib/heapaux.c          0x00000000   Lc  Abs  File  De 
    134  .text                      0x000182ec   Lc    1  Sect  De 
    135  ../clib/angel/startup.s    0x00000000   Lc  Abs  File  De 
    136  !!!main                    0x00018234   Lc    1  Sect  De   0x8
    137  ../clib/angel/handlers.s   0x00000000   Lc  Abs  File  De 
    138  !!handler_copy             0x00018270   Lc    1  Sect  De   0x1a
    139  ../fplib/d2f.s             0x00000000   Lc  Abs  File  De 
    140  ../clib/angel/kernel.s     0x00000000   Lc  Abs  File  De 
    141  .ARM.Collect$$rtentry$$00000000
                                    0x000182b4   Lc    1  Sect  De 
    142  ../fplib/dnaninf.s         0x00000000   Lc  Abs  File  De 
    143  ../fplib/fretinf.s         0x00000000   Lc  Abs  File  De 
    144  ../fplib/usenofp.s         0x00000000   Lc  Abs  File  De 
    145  ../clib/angel/kernel.s     0x00000000   Lc  Abs  File  De 
    146  .ARM.Collect$$rtentry$$00000002
                                    0x000182b4   Lc    1  Sect  De 
    147  .ARM.Collect$$rtentry$$00000009
                                    0x000182ba   Lc    1  Sect  De 
    148  .ARM.Collect$$rtentry$$0000000A
                                    0x000182ba   Lc    1  Sect  De   0x4
    149  .ARM.Collect$$rtentry$$0000000C
                                    0x000182be   Lc    1  Sect  De 
    150  .ARM.Collect$$rtentry$$0000000D
                                    0x000182be   Lc    1  Sect  De   0x8
    151  ../clib/angel/kernel.s     0x00000000   Lc  Abs  File  De 
    152  .ARM.Collect$$rtentry$$00000004
                                    0x000182b4   Lc    1  Sect  De   0x6
    153  ../clib/angel/sys.s        0x00000000   Lc  Abs  File  De 
    154  .text                      0x000182f2   Lc    1  Sect  De   0x4a
    155  ../clib/stdlib.c           0x00000000   Lc  Abs  File  De 
    156  .text                      0x0001833c   Lc    1  Sect  De 
    157  ../clib/angel/boardlib.s   0x00000000   Lc  Abs  File  De 
    158  ../clib/angel/boardlib.s   0x00000000   Lc  Abs  File  De 
    159  ../clib/angel/boardlib.s   0x00000000   Lc  Abs  File  De 
    160  ../clib/libinit.s          0x00000000   Lc  Abs  File  De 
    161  .ARM.Collect$$libinit$$00000000
                                    0x000182a8   Lc    1  Sect  De   0x2
    162  ../clib/angel/sys.s        0x00000000   Lc  Abs  File  De 
    163  .text                      0x00018350   Lc    1  Sect  De   0x8
    164  .bss                       0x100000b0   Lc    3  Sect  De   0x60
    165  ../clib/angel/kernel.s     0x00000000   Lc  Abs  File  De 
    166  .ARM.Collect$$rtexit$$00000000
                                    0x000182c6   Lc    1  Sect  De   0x2
    167  ../clib/libinit.s          0x00000000   Lc  Abs  File  De 
    168  .ARM.Collect$$libinit$$00000001
                                    0x000182aa   Lc    1  Sect  De   0x4
    169  .ARM.Collect$$libinit$$00000004
                                    0x000182ae   Lc    1  Sect  De 
    170  .ARM.Collect$$libinit$$00000006
                                    0x000182ae   Lc    1  Sect  De 
    171  .ARM.Collect$$libinit$$0000000C
                                    0x000182ae   Lc    1  Sect  De 
    172  .ARM.Collect$$libinit$$0000000E
                                    0x000182ae   Lc    1  Sect  De 
    173  .ARM.Collect$$libinit$$00000010
                                    0x000182ae   Lc    1  Sect  De 
    174  .ARM.Collect$$libinit$$00000013
                                    0x000182ae   Lc    1  Sect  De 
    175  .ARM.Collect$$libinit$$00000015
                                    0x000182ae   Lc    1  Sect  De 
    176  .ARM.Collect$$libinit$$00000017
                                    0x000182ae   Lc    1  Sect  De 
    177  .ARM.Collect$$libinit$$00000019
                                    0x000182ae   Lc    1  Sect  De 
    178  .ARM.Collect$$libinit$$0000001B
                                    0x000182ae   Lc    1  Sect  De 
    179  .ARM.Collect$$libinit$$0000001D
                                    0x000182ae   Lc    1  Sect  De 
    180  .ARM.Collect$$libinit$$0000001F
                                    0x000182ae   Lc    1  Sect  De 
    181  .ARM.Collect$$libinit$$00000021
                                    0x000182ae   Lc    1  Sect  De 
    182  .ARM.Collect$$libinit$$00000023
                                    0x000182ae   Lc    1  Sect  De 
    183  .ARM.Collect$$libinit$$00000025
                                    0x000182ae   Lc    1  Sect  De 
    184  .ARM.Collect$$libinit$$00000027
                                    0x000182ae   Lc    1  Sect  De 
    185  .ARM.Collect$$libinit$$0000002E
                                    0x000182ae   Lc    1  Sect  De 
    186  .ARM.Collect$$libinit$$00000030
                                    0x000182ae   Lc    1  Sect  De 
    187  .ARM.Collect$$libinit$$00000032
                                    0x000182ae   Lc    1  Sect  De 
    188  .ARM.Collect$$libinit$$00000034
                                    0x000182ae   Lc    1  Sect  De 
    189  .ARM.Collect$$libinit$$00000035
                                    0x000182ae   Lc    1  Sect  De   0x2
    190  ../clib/angel/kernel.s     0x00000000   Lc  Abs  File  De 
    191  .ARM.Collect$$rtexit$$00000002
                                    0x000182c8   Lc    1  Sect  De 
    192  .ARM.Collect$$rtexit$$00000003
                                    0x000182c8   Lc    1  Sect  De   0x4
    193  .ARM.Collect$$rtexit$$00000004
                                    0x000182cc   Lc    1  Sect  De   0x6
    194  ../clib/armsys.c           0x00000000   Lc  Abs  File  De 
    195  ../clib/armsys.c           0x00000000   Lc  Abs  File  De 
    196  ../fplib/fpinit.s          0x00000000   Lc  Abs  File  De 
    197  x$fpl$fpinit               0x0001ba42   Lc    1  Sect  De   0x1a
    198  $v0                        0x0001ba42   Lc    1   --   De 
    199  ../clib/angel/sysapp.c     0x00000000   Lc  Abs  File  De 
    200  .text                      0x00018358   Lc    1  Sect  De 
    201  ../clib/angel/sysapp.c     0x00000000   Lc  Abs  File  De 
    202  ../clib/angel/boardlib.s   0x00000000   Lc  Abs  File  De 
    203  ../clib/armsys.c           0x00000000   Lc  Abs  File  De 
    204  ../clib/armsys.c           0x00000000   Lc  Abs  File  De 
    205  ../clib/libinit.s          0x00000000   Lc  Abs  File  De 
    206  .ARM.Collect$$libshutdown$$00000000
                                    0x000182b0   Lc    1  Sect  De   0x2
    207  ../clib/angel/sysapp.c     0x00000000   Lc  Abs  File  De 
    208  ../clib/angel/sysapp.c     0x00000000   Lc  Abs  File  De 
    209  ../clib/angel/sys.s        0x00000000   Lc  Abs  File  De 
    210  .text                      0x00018364   Lc    1  Sect  De   0x2
    211  ../clib/angel/sys.s        0x00000000   Lc  Abs  File  De 
    212  .text                      0x00018366   Lc    1  Sect  De 
    213  ../clib/heapalloc.c        0x00000000   Lc  Abs  File  De 
    214  ../clib/signal.c           0x00000000   Lc  Abs  File  De 
    215  ../clib/signal.c           0x00000000   Lc  Abs  File  De 
    216  ../clib/libinit.s          0x00000000   Lc  Abs  File  De 
    217  .ARM.Collect$$libshutdown$$00000002
                                    0x000182b2   Lc    1  Sect  De 
    218  .ARM.Collect$$libshutdown$$00000004
                                    0x000182b2   Lc    1  Sect  De 
    219  .ARM.Collect$$libshutdown$$00000007
                                    0x000182b2   Lc    1  Sect  De 
    220  .ARM.Collect$$libshutdown$$0000000A
                                    0x000182b2   Lc    1  Sect  De 
    221  .ARM.Collect$$libshutdown$$0000000C
                                    0x000182b2   Lc    1  Sect  De 
    222  .ARM.Collect$$libshutdown$$0000000F
                                    0x000182b2   Lc    1  Sect  De 
    223  .ARM.Collect$$libshutdown$$00000010
                                    0x000182b2   Lc    1  Sect  De   0x2
    224  ../clib/angel/rt.s         0x00000000   Lc  Abs  File  De 
    225  ../clib/signal.c           0x00000000   Lc  Abs  File  De 
    226  ../clib/signal.c           0x00000000   Lc  Abs  File  De 
    227  ../clib/signal.c           0x00000000   Lc  Abs  File  De 
    228  ../clib/signal.c           0x00000000   Lc  Abs  File  De 
    229  ../clib/angel/sysapp.c     0x00000000   Lc  Abs  File  De 
    230  ../clib/angel/sysapp.c     0x00000000   Lc  Abs  File  De 
    231  ../clib/signal.s           0x00000000   Lc  Abs  File  De 
    232  ../clib/signal.c           0x00000000   Lc  Abs  File  De 
    233  ../clib/signal.c           0x00000000   Lc  Abs  File  De 
    234  ../clib/signal.c           0x00000000   Lc  Abs  File  De 
    235  ../clib/signal.c           0x00000000   Lc  Abs  File  De 
    236  ../clib/signal.c           0x00000000   Lc  Abs  File  De 
    237  ../clib/signal.c           0x00000000   Lc  Abs  File  De 
    238  ../clib/signal.c           0x00000000   Lc  Abs  File  De 
    239  ../clib/signal.c           0x00000000   Lc  Abs  File  De 
    240  ../clib/angel/scatter.s    0x00000000   Lc  Abs  File  De 
    241  !!!scatter                 0x0001823c   Lc    1  Sect  De   0x34
    242  ../clib/angel/handlers.s   0x00000000   Lc  Abs  File  De 
    243  !!handler_zi               0x0001828c   Lc    1  Sect  De   0x1c
    244  BuildAttributes$$THM_ISAv4$E$P$D$K$B$S$7EM$VFPi3$EXTD16$VFPS$VFMA$PE$A:L22UL41UL21$X:L11$S22US41US21$IEEE1$IW$~IW$USESV6$~STKCKD$USESV7$~SHL$OTIME$ROPI$EBA8$UX$STANDARDLIB$REQ8$PRES8$EABIv2
                                    0x00000000   Gb  Abs   --   Hi 
    245  __Vectors                  0x00018000   Gb    1  Data  Hi 
    246  __Patchable                0x00018190   Gb    1  Data  Hi 
    247  Reset_Handler              0x00018201   Wk    1  Code  Hi   0x1c
    248  NMI_Handler                0x0001821f   Wk    1  Code  Hi   0x2
    249  MemManage_Handler          0x00018221   Wk    1  Code  Hi   0x2
    250  BusFault_Handler           0x00018223   Wk    1  Code  Hi   0x2
    251  UsageFault_Handler         0x00018225   Wk    1  Code  Hi   0x2
    252  SVC_Handler                0x00018227   Wk    1  Code  Hi   0x2
    253  DebugMon_Handler           0x00018229   Wk    1  Code  Hi   0x2
    254  PendSV_Handler             0x0001822b   Wk    1  Code  Hi   0x2
    255  SysTick_Handler            0x0001822d   Wk    1  Code  Hi   0x2
    256  am_adc_isr                 0x0001822f   Wk    1  Code  Hi 
    257  am_audadc0_isr             0x0001822f   Wk    1  Code  Hi 
    258  am_brownout_isr            0x0001822f   Wk    1  Code  Hi 
    259  am_cachecpu_isr            0x0001822f   Wk    1  Code  Hi 
    260  am_clkgen_isr              0x0001822f   Wk    1  Code  Hi 
    261  am_ctimer_isr              0x0001822f   Wk    1  Code  Hi 
    262  am_disp_isr                0x0001822f   Wk    1  Code  Hi 
    263  am_dsi_isr                 0x0001822f   Wk    1  Code  Hi 
    264  am_dspi2s0_isr             0x0001822f   Wk    1  Code  Hi 
    265  am_dspi2s1_isr             0x0001822f   Wk    1  Code  Hi 
    266  am_dspi2s2_isr             0x0001822f   Wk    1  Code  Hi 
    267  am_dspi2s3_isr             0x0001822f   Wk    1  Code  Hi 
    268  am_gpio0_001f_isr          0x0001822f   Wk    1  Code  Hi 
    269  am_gpio0_203f_isr          0x0001822f   Wk    1  Code  Hi 
    270  am_gpio0_405f_isr          0x0001822f   Wk    1  Code  Hi 
    271  am_gpio0_607f_isr          0x0001822f   Wk    1  Code  Hi 
    272  am_gpio1_001f_isr          0x0001822f   Wk    1  Code  Hi 
    273  am_gpio1_203f_isr          0x0001822f   Wk    1  Code  Hi 
    274  am_gpio1_405f_isr          0x0001822f   Wk    1  Code  Hi 
    275  am_gpio1_607f_isr          0x0001822f   Wk    1  Code  Hi 
    276  am_gpu_isr                 0x0001822f   Wk    1  Code  Hi 
    277  am_iomaster0_isr           0x0001822f   Wk    1  Code  Hi 
    278  am_iomaster1_isr           0x0001822f   Wk    1  Code  Hi 
    279  am_iomaster2_isr           0x0001822f   Wk    1  Code  Hi 
    280  am_iomaster3_isr           0x0001822f   Wk    1  Code  Hi 
    281  am_iomaster4_isr           0x0001822f   Wk    1  Code  Hi 
    282  am_iomaster5_isr           0x0001822f   Wk    1  Code  Hi 
    283  am_iomaster6_isr           0x0001822f   Wk    1  Code  Hi 
    284  am_ioslave_acc_isr         0x0001822f   Wk    1  Code  Hi 
    285  am_ioslave_ios_isr         0x0001822f   Wk    1  Code  Hi 
    286  am_mspi0_isr               0x0001822f   Wk    1  Code  Hi 
    287  am_mspi1_isr               0x0001822f   Wk    1  Code  Hi 
    288  am_mspi2_isr               0x0001822f   Wk    1  Code  Hi 
    289  am_pdm0_isr                0x0001822f   Wk    1  Code  Hi 
    290  am_pdm1_isr                0x0001822f   Wk    1  Code  Hi 
    291  am_pdm2_isr                0x0001822f   Wk    1  Code  Hi 
    292  am_pdm3_isr                0x0001822f   Wk    1  Code  Hi 
    293  am_rtc_isr                 0x0001822f   Wk    1  Code  Hi 
    294  am_sdio_isr                0x0001822f   Wk    1  Code  Hi 
    295  am_stimer_cmpr0_isr        0x0001822f   Wk    1  Code  Hi 
    296  am_stimer_cmpr1_isr        0x0001822f   Wk    1  Code  Hi 
    297  am_stimer_cmpr2_isr        0x0001822f   Wk    1  Code  Hi 
    298  am_stimer_cmpr3_isr        0x0001822f   Wk    1  Code  Hi 
    299  am_stimer_cmpr4_isr        0x0001822f   Wk    1  Code  Hi 
    300  am_stimer_cmpr5_isr        0x0001822f   Wk    1  Code  Hi 
    301  am_stimer_cmpr6_isr        0x0001822f   Wk    1  Code  Hi 
    302  am_stimer_cmpr7_isr        0x0001822f   Wk    1  Code  Hi 
    303  am_stimerof_isr            0x0001822f   Wk    1  Code  Hi 
    304  am_timer01_isr             0x0001822f   Wk    1  Code  Hi 
    305  am_timer02_isr             0x0001822f   Wk    1  Code  Hi 
    306  am_timer03_isr             0x0001822f   Wk    1  Code  Hi 
    307  am_timer04_isr             0x0001822f   Wk    1  Code  Hi 
    308  am_timer05_isr             0x0001822f   Wk    1  Code  Hi 
    309  am_timer06_isr             0x0001822f   Wk    1  Code  Hi 
    310  am_timer07_isr             0x0001822f   Wk    1  Code  Hi 
    311  am_timer08_isr             0x0001822f   Wk    1  Code  Hi 
    312  am_timer09_isr             0x0001822f   Wk    1  Code  Hi 
    313  am_timer10_isr             0x0001822f   Wk    1  Code  Hi 
    314  am_timer11_isr             0x0001822f   Wk    1  Code  Hi 
    315  am_timer12_isr             0x0001822f   Wk    1  Code  Hi 
    316  am_timer13_isr             0x0001822f   Wk    1  Code  Hi 
    317  am_timer14_isr             0x0001822f   Wk    1  Code  Hi 
    318  am_timer15_isr             0x0001822f   Wk    1  Code  Hi 
    319  am_uart1_isr               0x0001822f   Wk    1  Code  Hi 
    320  am_uart2_isr               0x0001822f   Wk    1  Code  Hi 
    321  am_uart3_isr               0x0001822f   Wk    1  Code  Hi 
    322  am_uart_isr                0x0001822f   Wk    1  Code  Hi 
    323  am_usb_isr                 0x0001822f   Wk    1  Code  Hi 
    324  am_vcomp_isr               0x0001822f   Wk    1  Code  Hi 
    325  am_watchdog_isr            0x0001822f   Wk    1  Code  Hi 
    326  __main                     0x00018235   Gb    1  Code  Hi   0x8
    327  __scatterload              0x0001823d   Gb    1  Code  Hi 
    328  __scatterload_rt2          0x0001823d   Gb    1  Code  Hi   0x2c
    329  __scatterload_rt2_thumb_only
                                    0x0001823d   Gb    1  Code  Hi 
    330  __scatterload_null         0x0001824b   Gb    1  Code  Hi 
    331  __scatterload_copy         0x00018271   Gb    1  Code  Hi   0x1a
    332  __scatterload_zeroinit     0x0001828d   Gb    1  Code  Hi   0x1c
    333  __rt_lib_init              0x000182a9   Gb    1  Code  De 
    334  __rt_lib_init_fp_1         0x000182ab   Gb    1  Code  Hi 
    335  __rt_lib_init_alloca_1     0x000182af   Gb    1  Code  Hi 
    336  __rt_lib_init_argv_1       0x000182af   Gb    1  Code  Hi 
    337  __rt_lib_init_atexit_1     0x000182af   Gb    1  Code  Hi 
    338  __rt_lib_init_clock_1      0x000182af   Gb    1  Code  Hi 
    339  __rt_lib_init_cpp_1        0x000182af   Gb    1  Code  Hi 
    340  __rt_lib_init_exceptions_1 0x000182af   Gb    1  Code  Hi 
    341  __rt_lib_init_fp_trap_1    0x000182af   Gb    1  Code  Hi 
    342  __rt_lib_init_getenv_1     0x000182af   Gb    1  Code  Hi 
    343  __rt_lib_init_heap_1       0x000182af   Gb    1  Code  Hi 
    344  __rt_lib_init_lc_collate_1 0x000182af   Gb    1  Code  Hi 
    345  __rt_lib_init_lc_ctype_1   0x000182af   Gb    1  Code  Hi 
    346  __rt_lib_init_lc_monetary_1
                                    0x000182af   Gb    1  Code  Hi 
    347  __rt_lib_init_lc_numeric_1 0x000182af   Gb    1  Code  Hi 
    348  __rt_lib_init_lc_time_1    0x000182af   Gb    1  Code  Hi 
    349  __rt_lib_init_preinit_1    0x000182af   Gb    1  Code  Hi 
    350  __rt_lib_init_rand_1       0x000182af   Gb    1  Code  Hi 
    351  __rt_lib_init_relocate_pie_1
                                    0x000182af   Gb    1  Code  Hi 
    352  __rt_lib_init_return       0x000182af   Gb    1  Code  Hi 
    353  __rt_lib_init_signal_1     0x000182af   Gb    1  Code  Hi 
    354  __rt_lib_init_stdio_1      0x000182af   Gb    1  Code  Hi 
    355  __rt_lib_init_user_alloc_1 0x000182af   Gb    1  Code  Hi 
    356  __rt_lib_shutdown          0x000182b1   Gb    1  Code  De 
    357  __rt_lib_shutdown_cpp_1    0x000182b3   Gb    1  Code  Hi 
    358  __rt_lib_shutdown_fp_trap_1
                                    0x000182b3   Gb    1  Code  Hi 
    359  __rt_lib_shutdown_heap_1   0x000182b3   Gb    1  Code  Hi 
    360  __rt_lib_shutdown_return   0x000182b3   Gb    1  Code  Hi 
    361  __rt_lib_shutdown_signal_1 0x000182b3   Gb    1  Code  Hi 
    362  __rt_lib_shutdown_stdio_1  0x000182b3   Gb    1  Code  Hi 
    363  __rt_lib_shutdown_user_alloc_1
                                    0x000182b3   Gb    1  Code  Hi 
    364  __rt_entry                 0x000182b5   Gb    1  Code  Hi 
    365  __rt_entry_presh_1         0x000182b5   Gb    1  Code  Hi 
    366  __rt_entry_sh              0x000182b5   Gb    1  Code  Hi 
    367  __rt_entry_li              0x000182bb   Gb    1  Code  Hi 
    368  __rt_entry_postsh_1        0x000182bb   Gb    1  Code  Hi 
    369  __rt_entry_main            0x000182bf   Gb    1  Code  Hi 
    370  __rt_entry_postli_1        0x000182bf   Gb    1  Code  Hi 
    371  __rt_exit                  0x000182c7   Gb    1  Code  De 
    372  __rt_exit_ls               0x000182c9   Gb    1  Code  Hi 
    373  __rt_exit_prels_1          0x000182c9   Gb    1  Code  Hi 
    374  __rt_exit_exit             0x000182cd   Gb    1  Code  Hi 
    375  __user_initial_stackheap   0x000182d5   Gb    1  Code  Hi   0xa
    376  __use_two_region_memory    0x000182ed   Gb    1  Code  Hi   0x2
    377  __rt_heap_escrow$2region   0x000182ef   Gb    1  Code  De   0x2
    378  __rt_heap_expand$2region   0x000182f1   Gb    1  Code  De   0x2
    379  __user_setup_stackheap     0x000182f3   Gb    1  Code  De   0x4a
    380  exit                       0x0001833d   Gb    1  Code  De   0x12
    381  __user_libspace            0x00018351   Wk    1  Code  De   0x8
    382  __user_perproc_libspace    0x00018351   Wk    1  Code  De 
    383  __user_perthread_libspace  0x00018351   Wk    1  Code  De 
    384  _sys_exit                  0x00018359   Gb    1  Code  De   0x8
    385  __I$use$semihosting        0x00018365   Gb    1  Code  Hi 
    386  __use_no_semihosting_swi   0x00018365   Gb    1  Code  Hi   0x2
    387  __semihosting_library_function
                                    0x00018367   Gb    1  Code  Hi 
    388  HardFault_Handler          0x00018369   Gb    1  Code  Hi   0x1e
    389  am_bsp_iom_pins_enable     0x000184d1   Gb    1  Code  Hi   0x2ca
    390  am_bsp_low_power_init      0x0001879d   Gb    1  Code  Hi   0x2e
    391  am_getStackedReg           0x000187cd   Gb    1  Code  Hi   0x12
    392  am_hal_cachectrl_config    0x000187e1   Gb    1  Code  Hi   0x44
    393  am_hal_cachectrl_enable    0x00018825   Gb    1  Code  Hi   0x1e
    394  am_hal_cmdq_alloc_block    0x00018845   Gb    1  Code  Hi   0xce
    395  am_hal_cmdq_disable        0x00018915   Gb    1  Code  Hi   0x38
    396  am_hal_cmdq_enable         0x0001894d   Gb    1  Code  Hi   0x50
    397  am_hal_cmdq_error_resume   0x0001899d   Gb    1  Code  Hi   0x9c
    398  am_hal_cmdq_get_status     0x00018a39   Gb    1  Code  Hi   0x9a
    399  am_hal_cmdq_init           0x00018ad5   Gb    1  Code  Hi   0xbe
    400  am_hal_cmdq_post_block     0x00018b95   Gb    1  Code  Hi   0x68
    401  am_hal_cmdq_release_block  0x00018bfd   Gb    1  Code  Hi   0x30
    402  am_hal_daxi_config         0x00018c2d   Gb    1  Code  Hi   0xac
    403  am_hal_daxi_control        0x00018cd9   Gb    1  Code  Hi   0x116
    404  am_hal_delay_us            0x00018df1   Gb    1  Code  Hi   0x36
    405  am_hal_delay_us_status_change
                                    0x00018e29   Gb    1  Code  Hi   0x58
    406  am_hal_delay_us_status_check
                                    0x00018e81   Gb    1  Code  Hi   0x98
    407  am_hal_fault_status_get    0x00018f19   Gb    1  Code  Hi   0x3a
    408  am_hal_gpio_pinconfig      0x00018f55   Gb    1  Code  Hi   0x56
    409  am_hal_gpio_pinconfig_get  0x00018fad   Gb    1  Code  Hi   0x20
    410  am_hal_gpio_state_write    0x00018fcd   Gb    1  Code  Hi   0x10a
    411  am_hal_interrupt_master_disable
                                    0x000190d9   Gb    1  Code  Hi   0x8
    412  am_hal_interrupt_master_enable
                                    0x000190e1   Gb    1  Code  Hi   0x8
    413  am_hal_interrupt_master_set
                                    0x000190e9   Gb    1  Code  Hi   0x6
    414  am_hal_iom_CQAddTransaction
                                    0x000190f1   Gb    1  Code  Hi   0x15e
    415  am_hal_iom_CQEnable        0x00019251   Gb    1  Code  Hi   0x2a
    416  am_hal_iom_configure       0x0001927d   Gb    1  Code  Hi   0x182
    417  am_hal_iom_enable          0x00019401   Gb    1  Code  Hi   0x100
    418  am_hal_iom_initialize      0x00019501   Gb    1  Code  Hi   0x48
    419  am_hal_iom_interrupt_clear 0x00019549   Gb    1  Code  Hi   0x2c
    420  am_hal_iom_interrupt_service
                                    0x00019575   Gb    1  Code  Hi   0x2d2
    421  am_hal_iom_interrupt_status_get
                                    0x00019849   Gb    1  Code  Hi   0x40
    422  am_hal_iom_nonblocking_transfer
                                    0x00019889   Gb    1  Code  Hi   0x1f6
    423  am_hal_iom_power_ctrl      0x00019a81   Gb    1  Code  Hi   0x218
    424  am_hal_mram_info_read      0x00019c99   Gb    1  Code  Hi   0xb0
    425  am_hal_pwrctrl_control     0x00019d49   Gb    1  Code  Hi   0x21c
    426  am_hal_pwrctrl_low_power_init
                                    0x00019f65   Gb    1  Code  Hi   0x16a
    427  am_hal_pwrctrl_mcu_memory_config
                                    0x0001a0d1   Gb    1  Code  Hi   0x10e
    428  am_hal_pwrctrl_periph_disable
                                    0x0001a1e1   Gb    1  Code  Hi   0x130
    429  am_hal_pwrctrl_periph_enable
                                    0x0001a311   Gb    1  Code  Hi   0x1a8
    430  am_hal_pwrctrl_sram_config 0x0001a4b9   Gb    1  Code  Hi   0xc6
    431  am_hal_rtc_osc_disable     0x0001a581   Gb    1  Code  Hi   0x14
    432  am_hal_sysctrl_sleep       0x0001a595   Gb    1  Code  Hi   0x106
    433  am_hal_timer_clear         0x0001a69d   Gb    1  Code  Hi   0x42
    434  am_hal_timer_config        0x0001a6e1   Gb    1  Code  Hi   0x4
    435  am_hal_timer_default_config_set
                                    0x0001a6e5   Gb    1  Code  Hi   0x20
    436  am_hal_timer_disable       0x0001a705   Gb    1  Code  Hi   0x2a
    437  am_hal_timer_enable        0x0001a731   Gb    1  Code  Hi   0x52
    438  am_hal_timer_interrupt_clear
                                    0x0001a785   Gb    1  Code  Hi   0x10
    439  am_hal_timer_interrupt_disable
                                    0x0001a795   Gb    1  Code  Hi   0x12
    440  am_hal_timer_interrupt_enable
                                    0x0001a7a9   Gb    1  Code  Hi   0x12
    441  am_iomaster7_isr           0x0001a7bd   Gb    1  Code  Hi   0x44
    442  am_timer00_isr             0x0001a801   Gb    1  Code  Hi   0x2c
    443  am_util_faultisr_collect_data
                                    0x0001a82d   Gb    1  Code  Hi   0xd6
    444  am_valid_sp                0x0001a905   Gb    1  Code  Hi   0x36
    445  buck_ldo_update_override   0x0001a93d   Gb    1  Code  Hi   0x2a
    446  crypto_boost_trims         0x0001a969   Gb    1  Code  Hi   0xc8
    447  internal_iom_get_int_err   0x0001ac41   Gb    1  Code  Hi   0x3a
    448  internal_timer_config      0x0001b131   Gb    1  Code  Hi   0xa8
    449  main                       0x0001b4e1   Gb    1  Code  Hi   0xfa
    450  pwr_iom_gpio_setup         0x0001b819   Gb    1  Code  Hi   0x52
    451  pwrctrl_fill_buff_alternating_bits
                                    0x0001b89d   Gb    1  Code  Hi   0x4e
    452  pwrctrl_set_low_power      0x0001b8ed   Gb    1  Code  Hi   0xb8
    453  timer_disable              0x0001b9b9   Gb    1  Code  Hi   0x10
    454  timer_init                 0x0001b9c9   Gb    1  Code  Hi   0x7a
    455  _fp_init                   0x0001ba43   Gb    1  Code  De   0x1a
    456  __fplib_config_fpu_vfp     0x0001ba5b   Gb    1  Code  De 
    457  __fplib_config_pureend_doubles
                                    0x0001ba5b   Gb    1  Code  De 
    458  am_hal_cachectrl_defaults  0x0001ba62   Gb    1  Data  Hi   0x3
    459  am_hal_daxi_defaults       0x0001ba65   Gb    1  Data  Hi   0x5
    460  am_hal_gpio_pincfg_output  0x0001ba6c   Gb    1  Data  Hi   0x4
    461  am_hal_gpio_pincfg_pulledup_disabled
                                    0x0001ba70   Gb    1  Data  Hi   0x4
    462  am_hal_pwrctrl_peripheral_control
                                    0x0001ba74   Gb    1  Data  Hi   0x220
    463  g_DefaultMcuMemCfg         0x0001be54   Gb    1  Data  Hi   0x6
    464  g_DefaultSRAMCfg           0x0001be5a   Gb    1  Data  Hi   0x6
    465  g_am_hal_bootrom_helper    0x0001be60   Gb    1  Data  Hi   0x28
    466  g_iomDefsTable             0x0001be88   Gb    1  Data  Hi   0x160
    467  sGlobalAccess              0x0001bff4   Gb    1  Data  Hi   0x1c
    468  ui32DSP0Allowed            0x0001c084   Gb    1  Data  Hi   0x14
    469  ui32DSP1Allowed            0x0001c098   Gb    1  Data  Hi   0x14
    470  ui32MCUAllowed             0x0001c0ac   Gb    1  Data  Hi   0x14
    471  ui32SharedAccess           0x0001c0c0   Gb    1  Data  Hi   0x14
    472  Region$$Table$$Base        0x0001c0d4   Gb    1   --   Hi 
    473  Region$$Table$$Limit       0x0001c104   Gb    1   --   Hi 
    474  g_ui32TrimVer              0x10000000   Gb    2  Data  Hi   0x4
    475  g_ui32origSimobuckVDDStrim 0x10000004   Gb    2  Data  Hi   0x4
    476  gDaxiConfig                0x10000008   Gb    2  Data  Hi   0x5
    477  g_AM_BSP_GPIO_IOM0_CS      0x10000010   Gb    2  Data  Hi   0x4
    478  g_AM_BSP_GPIO_IOM0_MOSI    0x10000014   Gb    2  Data  Hi   0x4
    479  g_AM_BSP_GPIO_IOM0_SCK     0x10000018   Gb    2  Data  Hi   0x4
    480  g_AM_BSP_GPIO_IOM0_SCL     0x1000001c   Gb    2  Data  Hi   0x4
    481  g_AM_BSP_GPIO_IOM0_SDA     0x10000020   Gb    2  Data  Hi   0x4
    482  g_AM_BSP_GPIO_IOM1_CS      0x10000024   Gb    2  Data  Hi   0x4
    483  g_AM_BSP_GPIO_IOM1_MISO    0x10000028   Gb    2  Data  Hi   0x4
    484  g_AM_BSP_GPIO_IOM1_MOSI    0x1000002c   Gb    2  Data  Hi   0x4
    485  g_AM_BSP_GPIO_IOM1_SCK     0x10000030   Gb    2  Data  Hi   0x4
    486  g_AM_BSP_GPIO_IOM1_SCL     0x10000034   Gb    2  Data  Hi   0x4
    487  g_AM_BSP_GPIO_IOM1_SDA     0x10000038   Gb    2  Data  Hi   0x4
    488  g_AM_BSP_GPIO_IOM2_CS      0x1000003c   Gb    2  Data  Hi   0x4
    489  g_AM_BSP_GPIO_IOM2_MOSI    0x10000040   Gb    2  Data  Hi   0x4
    490  g_AM_BSP_GPIO_IOM2_SCK     0x10000044   Gb    2  Data  Hi   0x4
    491  g_AM_BSP_GPIO_IOM2_SCL     0x10000048   Gb    2  Data  Hi   0x4
    492  g_AM_BSP_GPIO_IOM2_SDA     0x1000004c   Gb    2  Data  Hi   0x4
    493  g_AM_BSP_GPIO_IOM3_CS      0x10000050   Gb    2  Data  Hi   0x4
    494  g_AM_BSP_GPIO_IOM3_MOSI    0x10000054   Gb    2  Data  Hi   0x4
    495  g_AM_BSP_GPIO_IOM3_SCK     0x10000058   Gb    2  Data  Hi   0x4
    496  g_AM_BSP_GPIO_IOM3_SCL     0x1000005c   Gb    2  Data  Hi   0x4
    497  g_AM_BSP_GPIO_IOM3_SDA     0x10000060   Gb    2  Data  Hi   0x4
    498  g_AM_BSP_GPIO_IOM4_CS      0x10000064   Gb    2  Data  Hi   0x4
    499  g_AM_BSP_GPIO_IOM4_MOSI    0x10000068   Gb    2  Data  Hi   0x4
    500  g_AM_BSP_GPIO_IOM4_SCK     0x1000006c   Gb    2  Data  Hi   0x4
    501  g_AM_BSP_GPIO_IOM5_CS      0x10000070   Gb    2  Data  Hi   0x4
    502  g_AM_BSP_GPIO_IOM5_MOSI    0x10000074   Gb    2  Data  Hi   0x4
    503  g_AM_BSP_GPIO_IOM5_SCK     0x10000078   Gb    2  Data  Hi   0x4
    504  g_AM_BSP_GPIO_IOM5_SCL     0x1000007c   Gb    2  Data  Hi   0x4
    505  g_AM_BSP_GPIO_IOM5_SDA     0x10000080   Gb    2  Data  Hi   0x4
    506  g_AM_BSP_GPIO_IOM6_CS      0x10000084   Gb    2  Data  Hi   0x4
    507  g_AM_BSP_GPIO_IOM6_MOSI    0x10000088   Gb    2  Data  Hi   0x4
    508  g_AM_BSP_GPIO_IOM6_SCK     0x1000008c   Gb    2  Data  Hi   0x4
    509  g_AM_BSP_GPIO_IOM6_SCL     0x10000090   Gb    2  Data  Hi   0x4
    510  g_AM_BSP_GPIO_IOM6_SDA     0x10000094   Gb    2  Data  Hi   0x4
    511  g_AM_BSP_GPIO_IOM7_CS      0x10000098   Gb    2  Data  Hi   0x4
    512  g_AM_BSP_GPIO_IOM7_MOSI    0x1000009c   Gb    2  Data  Hi   0x4
    513  g_AM_BSP_GPIO_IOM7_SCK     0x100000a0   Gb    2  Data  Hi   0x4
    514  g_AM_BSP_GPIO_IOM7_SCL     0x100000a4   Gb    2  Data  Hi   0x4
    515  g_AM_BSP_GPIO_IOM7_SDA     0x100000a8   Gb    2  Data  Hi   0x4
    516  __libspace_start           0x100000b0   Gb    3  Data  De   0x60
    517  __temporary_stack_top$libspace
                                    0x10000110   Gb    3  Data  De 
    518  gFaultStack                0x10000328   Gb    3  Data  Hi   0x200
    519  g_AM_BSP_GPIO_IOM0_MISO    0x10000528   Gb    3  Data  Hi   0x4
    520  g_AM_BSP_GPIO_IOM2_MISO    0x1000052c   Gb    3  Data  Hi   0x4
    521  g_AM_BSP_GPIO_IOM3_MISO    0x10000530   Gb    3  Data  Hi   0x4
    522  g_AM_BSP_GPIO_IOM4_MISO    0x10000534   Gb    3  Data  Hi   0x4
    523  g_AM_BSP_GPIO_IOM5_MISO    0x10000538   Gb    3  Data  Hi   0x4
    524  g_AM_BSP_GPIO_IOM6_MISO    0x1000053c   Gb    3  Data  Hi   0x4
    525  g_AM_BSP_GPIO_IOM7_MISO    0x10000540   Gb    3  Data  Hi   0x4
    526  g_IOMhandles               0x10000544   Gb    3  Data  Hi   0x4540
    527  psGlobalAccessPtr          0x10060000   Gb    4  Data  Hi   0x4
    528  ui32MCUClaimed             0x10060004   Gb    4  Data  Hi   0x14
    529  ui32DSP0Claimed            0x10060018   Gb    4  Data  Hi   0x14
    530  ui32DSP1Claimed            0x1006002c   Gb    4  Data  Hi   0x14


** Section #12 '.strtab' (SHT_STRTAB)
    Size   : 9496 bytes

            #  Offset String
        ====================================

            1      1: $d
            2      4: $t
            3      7: $t.0
            4     12: $d.4
            5     17: $t.4
            6     22: $d.23
            7     28: $t.24
            8     34: $d.9
            9     39: $t.10
           10     45: $d.5
           11     50: $t.6
           12     55: $d.22
           13     61: $t.23
           14     67: $d.3
           15     72: $d.7
           16     77: $t.8
           17     82: $d.1
           18     87: $t.2
           19     92: $d.realdata
           20    104: am_resources.c
           21    119: __tagsym$$used.0
           22    136: __tagsym$$used.1
           23    153: __tagsym$$used.2
           24    170: __tagsym$$used.3
           25    187: __tagsym$$used.4
           26    204: __tagsym$$used.5
           27    221: __tagsym$$used.6
           28    238: __tagsym$$used.7
           29    255: __tagsym$$used.8
           30    272: pwr_control_utils.c
           31    292: SRAMMemCfg
           32    303: pwr_gpio_utils.c
           33    320: pwr_iom_spi.c
           34    334: iom_init
           35    343: timerCallback
           36    357: __NVIC_ClearPendingIRQ
           37    380: __NVIC_EnableIRQ
           38    397: init_pattern
           39    410: pwr_data_transfer_sequence
           40    437: __NVIC_DisableIRQ
           41    455: pwr_terminate_transfer
           42    478: iom_dma_read
           43    491: iom_dma_write
           44    505: iomCompleteCallback
           45    525: g_tGlb
           46    532: tIomConfig
           47    543: iomPinSetup
           48    555: pwr_iom_utils.c
           49    571: pwr_iom_MOSI_MISO_setup
           50    595: g_AM_GPIO_OFF
           51    609: g_AM_GPIO_OUTPUT_CONFIG
           52    633: pwr_timer_utils.c
           53    651: __NVIC_SetPriority
           54    670: pfnTimerCallbackFcn
           55    690: am_util_delay.c
           56    706: am_util_faultisr.c
           57    725: am_util_stdio.c
           58    741: ../keil6/startup_keil6.s
           59    766: STACK
           60    772: StackMem
           61    781: HEAP
           62    786: HeapMem
           63    794: RESET
           64    800: $v0
           65    804: am_cryptosec_isr
           66    821: am_default_isr
           67    836: .text
           68    842: am_hal_gpio.c
           69    856: g_ui32DSpintbl
           70    871: am_hal_pwrctrl.c
           71    888: .L_MergedGlobals
           72    905: .L_MergedGlobals.1
           73    924: g_bBoostForCryptoApplied
           74    949: g_bOrigTrimsStored
           75    968: g_bTempcoValid
           76    983: g_i32LatestVddfActTrim
           77   1006: g_i32LatestLDOActTrim
           78   1028: g_ui32VDDFAdjustCodes
           79   1050: g_orig_ACTTRIMVDDF
           80   1069: g_orig_MEMLDOACTIVETRIM
           81   1093: g_orig_LPTRIMVDDF
           82   1111: g_orig_MEMLPLDOTRIM
           83   1131: g_orig_TVRGVREFTRIM
           84   1151: g_orig_CORELDOACTIVETRIM
           85   1176: g_pfTempMeasured
           86   1193: g_TempcoADCHandle
           87   1211: am_hal_timer.c
           88   1226: am_hal_cachectrl.c
           89   1245: am_hal_fault.c
           90   1260: am_hal_interrupt.c
           91   1279: am_hal_iom.c
           92   1292: internal_iom_reset_on_error
           93   1320: iom_get_interface_clock_cfg
           94   1348: iom_dummy_callback
           95   1367: internal_iom_error_reset_disable_submodule
           96   1410: tIomPinAlloc
           97   1423: am_hal_sysctrl.c
           98   1440: am_hal_utils.c
           99   1455: am_bsp.c
          100   1464: am_bsp_pins.c
          101   1478: am_hal_adc.c
          102   1491: am_hal_dcu.c
          103   1504: am_hal_global.c
          104   1520: am_hal_pin.c
          105   1533: am_hal_bootrom_helper.c
          106   1557: am_hal_cmdq.c
          107   1571: gAmHalCmdq
          108   1582: gAmHalCmdQReg
          109   1596: am_hal_itm.c
          110   1609: am_hal_mram.c
          111   1623: am_hal_rtc.c
          112   1636: am_hal_tpiu.c
          113   1650: am_hal_uart.c
          114   1664: am_hal_queue.c
          115   1679: dc.s
          116   1684: ../clib/heapaux.c
          117   1702: ../clib/angel/startup.s
          118   1726: !!!main
          119   1734: ../clib/angel/handlers.s
          120   1759: !!handler_copy
          121   1774: ../fplib/d2f.s
          122   1789: ../clib/angel/kernel.s
          123   1812: .ARM.Collect$$rtentry$$00000000
          124   1844: ../fplib/dnaninf.s
          125   1863: ../fplib/fretinf.s
          126   1882: ../fplib/usenofp.s
          127   1901: .ARM.Collect$$rtentry$$00000002
          128   1933: .ARM.Collect$$rtentry$$00000009
          129   1965: .ARM.Collect$$rtentry$$0000000A
          130   1997: .ARM.Collect$$rtentry$$0000000C
          131   2029: .ARM.Collect$$rtentry$$0000000D
          132   2061: .ARM.Collect$$rtentry$$00000004
          133   2093: ../clib/angel/sys.s
          134   2113: ../clib/stdlib.c
          135   2130: ../clib/angel/boardlib.s
          136   2155: ../clib/libinit.s
          137   2173: .ARM.Collect$$libinit$$00000000
          138   2205: .bss
          139   2210: .ARM.Collect$$rtexit$$00000000
          140   2241: .ARM.Collect$$libinit$$00000001
          141   2273: .ARM.Collect$$libinit$$00000004
          142   2305: .ARM.Collect$$libinit$$00000006
          143   2337: .ARM.Collect$$libinit$$0000000C
          144   2369: .ARM.Collect$$libinit$$0000000E
          145   2401: .ARM.Collect$$libinit$$00000010
          146   2433: .ARM.Collect$$libinit$$00000013
          147   2465: .ARM.Collect$$libinit$$00000015
          148   2497: .ARM.Collect$$libinit$$00000017
          149   2529: .ARM.Collect$$libinit$$00000019
          150   2561: .ARM.Collect$$libinit$$0000001B
          151   2593: .ARM.Collect$$libinit$$0000001D
          152   2625: .ARM.Collect$$libinit$$0000001F
          153   2657: .ARM.Collect$$libinit$$00000021
          154   2689: .ARM.Collect$$libinit$$00000023
          155   2721: .ARM.Collect$$libinit$$00000025
          156   2753: .ARM.Collect$$libinit$$00000027
          157   2785: .ARM.Collect$$libinit$$0000002E
          158   2817: .ARM.Collect$$libinit$$00000030
          159   2849: .ARM.Collect$$libinit$$00000032
          160   2881: .ARM.Collect$$libinit$$00000034
          161   2913: .ARM.Collect$$libinit$$00000035
          162   2945: .ARM.Collect$$rtexit$$00000002
          163   2976: .ARM.Collect$$rtexit$$00000003
          164   3007: .ARM.Collect$$rtexit$$00000004
          165   3038: ../clib/armsys.c
          166   3055: ../fplib/fpinit.s
          167   3073: x$fpl$fpinit
          168   3086: ../clib/angel/sysapp.c
          169   3109: .ARM.Collect$$libshutdown$$00000000
          170   3145: ../clib/heapalloc.c
          171   3165: ../clib/signal.c
          172   3182: .ARM.Collect$$libshutdown$$00000002
          173   3218: .ARM.Collect$$libshutdown$$00000004
          174   3254: .ARM.Collect$$libshutdown$$00000007
          175   3290: .ARM.Collect$$libshutdown$$0000000A
          176   3326: .ARM.Collect$$libshutdown$$0000000C
          177   3362: .ARM.Collect$$libshutdown$$0000000F
          178   3398: .ARM.Collect$$libshutdown$$00000010
          179   3434: ../clib/angel/rt.s
          180   3453: ../clib/signal.s
          181   3470: ../clib/angel/scatter.s
          182   3494: !!!scatter
          183   3505: !!handler_zi
          184   3518: BuildAttributes$$THM_ISAv4$E$P$D$K$B$S$7EM$VFPi3$EXTD16$VFPS$VFMA$PE$A:L22UL41UL21$X:L11$S22US41US21$IEEE1$IW$~IW$USESV6$~STKCKD$USESV7$~SHL$OTIME$ROPI$EBA8$UX$STANDARDLIB$REQ8$PRES8$EABIv2
          185   3708: __Vectors
          186   3718: __Patchable
          187   3730: Reset_Handler
          188   3744: NMI_Handler
          189   3756: MemManage_Handler
          190   3774: BusFault_Handler
          191   3791: UsageFault_Handler
          192   3810: SVC_Handler
          193   3822: DebugMon_Handler
          194   3839: PendSV_Handler
          195   3854: SysTick_Handler
          196   3870: am_adc_isr
          197   3881: am_audadc0_isr
          198   3896: am_brownout_isr
          199   3912: am_cachecpu_isr
          200   3928: am_clkgen_isr
          201   3942: am_ctimer_isr
          202   3956: am_disp_isr
          203   3968: am_dsi_isr
          204   3979: am_dspi2s0_isr
          205   3994: am_dspi2s1_isr
          206   4009: am_dspi2s2_isr
          207   4024: am_dspi2s3_isr
          208   4039: am_gpio0_001f_isr
          209   4057: am_gpio0_203f_isr
          210   4075: am_gpio0_405f_isr
          211   4093: am_gpio0_607f_isr
          212   4111: am_gpio1_001f_isr
          213   4129: am_gpio1_203f_isr
          214   4147: am_gpio1_405f_isr
          215   4165: am_gpio1_607f_isr
          216   4183: am_gpu_isr
          217   4194: am_iomaster0_isr
          218   4211: am_iomaster1_isr
          219   4228: am_iomaster2_isr
          220   4245: am_iomaster3_isr
          221   4262: am_iomaster4_isr
          222   4279: am_iomaster5_isr
          223   4296: am_iomaster6_isr
          224   4313: am_ioslave_acc_isr
          225   4332: am_ioslave_ios_isr
          226   4351: am_mspi0_isr
          227   4364: am_mspi1_isr
          228   4377: am_mspi2_isr
          229   4390: am_pdm0_isr
          230   4402: am_pdm1_isr
          231   4414: am_pdm2_isr
          232   4426: am_pdm3_isr
          233   4438: am_rtc_isr
          234   4449: am_sdio_isr
          235   4461: am_stimer_cmpr0_isr
          236   4481: am_stimer_cmpr1_isr
          237   4501: am_stimer_cmpr2_isr
          238   4521: am_stimer_cmpr3_isr
          239   4541: am_stimer_cmpr4_isr
          240   4561: am_stimer_cmpr5_isr
          241   4581: am_stimer_cmpr6_isr
          242   4601: am_stimer_cmpr7_isr
          243   4621: am_stimerof_isr
          244   4637: am_timer01_isr
          245   4652: am_timer02_isr
          246   4667: am_timer03_isr
          247   4682: am_timer04_isr
          248   4697: am_timer05_isr
          249   4712: am_timer06_isr
          250   4727: am_timer07_isr
          251   4742: am_timer08_isr
          252   4757: am_timer09_isr
          253   4772: am_timer10_isr
          254   4787: am_timer11_isr
          255   4802: am_timer12_isr
          256   4817: am_timer13_isr
          257   4832: am_timer14_isr
          258   4847: am_timer15_isr
          259   4862: am_uart1_isr
          260   4875: am_uart2_isr
          261   4888: am_uart3_isr
          262   4901: am_uart_isr
          263   4913: am_usb_isr
          264   4924: am_vcomp_isr
          265   4937: am_watchdog_isr
          266   4953: __main
          267   4960: __scatterload
          268   4974: __scatterload_rt2
          269   4992: __scatterload_rt2_thumb_only
          270   5021: __scatterload_null
          271   5040: __scatterload_copy
          272   5059: __scatterload_zeroinit
          273   5082: __rt_lib_init
          274   5096: __rt_lib_init_fp_1
          275   5115: __rt_lib_init_alloca_1
          276   5138: __rt_lib_init_argv_1
          277   5159: __rt_lib_init_atexit_1
          278   5182: __rt_lib_init_clock_1
          279   5204: __rt_lib_init_cpp_1
          280   5224: __rt_lib_init_exceptions_1
          281   5251: __rt_lib_init_fp_trap_1
          282   5275: __rt_lib_init_getenv_1
          283   5298: __rt_lib_init_heap_1
          284   5319: __rt_lib_init_lc_collate_1
          285   5346: __rt_lib_init_lc_ctype_1
          286   5371: __rt_lib_init_lc_monetary_1
          287   5399: __rt_lib_init_lc_numeric_1
          288   5426: __rt_lib_init_lc_time_1
          289   5450: __rt_lib_init_preinit_1
          290   5474: __rt_lib_init_rand_1
          291   5495: __rt_lib_init_relocate_pie_1
          292   5524: __rt_lib_init_return
          293   5545: __rt_lib_init_signal_1
          294   5568: __rt_lib_init_stdio_1
          295   5590: __rt_lib_init_user_alloc_1
          296   5617: __rt_lib_shutdown
          297   5635: __rt_lib_shutdown_cpp_1
          298   5659: __rt_lib_shutdown_fp_trap_1
          299   5687: __rt_lib_shutdown_heap_1
          300   5712: __rt_lib_shutdown_return
          301   5737: __rt_lib_shutdown_signal_1
          302   5764: __rt_lib_shutdown_stdio_1
          303   5790: __rt_lib_shutdown_user_alloc_1
          304   5821: __rt_entry
          305   5832: __rt_entry_presh_1
          306   5851: __rt_entry_sh
          307   5865: __rt_entry_li
          308   5879: __rt_entry_postsh_1
          309   5899: __rt_entry_main
          310   5915: __rt_entry_postli_1
          311   5935: __rt_exit
          312   5945: __rt_exit_ls
          313   5958: __rt_exit_prels_1
          314   5976: __rt_exit_exit
          315   5991: __user_initial_stackheap
          316   6016: __use_two_region_memory
          317   6040: __rt_heap_escrow$2region
          318   6065: __rt_heap_expand$2region
          319   6090: __user_setup_stackheap
          320   6113: exit
          321   6118: __user_libspace
          322   6134: __user_perproc_libspace
          323   6158: __user_perthread_libspace
          324   6184: _sys_exit
          325   6194: __I$use$semihosting
          326   6214: __use_no_semihosting_swi
          327   6239: __semihosting_library_function
          328   6270: HardFault_Handler
          329   6288: am_bsp_iom_pins_enable
          330   6311: am_bsp_low_power_init
          331   6333: am_getStackedReg
          332   6350: am_hal_cachectrl_config
          333   6374: am_hal_cachectrl_enable
          334   6398: am_hal_cmdq_alloc_block
          335   6422: am_hal_cmdq_disable
          336   6442: am_hal_cmdq_enable
          337   6461: am_hal_cmdq_error_resume
          338   6486: am_hal_cmdq_get_status
          339   6509: am_hal_cmdq_init
          340   6526: am_hal_cmdq_post_block
          341   6549: am_hal_cmdq_release_block
          342   6575: am_hal_daxi_config
          343   6594: am_hal_daxi_control
          344   6614: am_hal_delay_us
          345   6630: am_hal_delay_us_status_change
          346   6660: am_hal_delay_us_status_check
          347   6689: am_hal_fault_status_get
          348   6713: am_hal_gpio_pinconfig
          349   6735: am_hal_gpio_pinconfig_get
          350   6761: am_hal_gpio_state_write
          351   6785: am_hal_interrupt_master_disable
          352   6817: am_hal_interrupt_master_enable
          353   6848: am_hal_interrupt_master_set
          354   6876: am_hal_iom_CQAddTransaction
          355   6904: am_hal_iom_CQEnable
          356   6924: am_hal_iom_configure
          357   6945: am_hal_iom_enable
          358   6963: am_hal_iom_initialize
          359   6985: am_hal_iom_interrupt_clear
          360   7012: am_hal_iom_interrupt_service
          361   7041: am_hal_iom_interrupt_status_get
          362   7073: am_hal_iom_nonblocking_transfer
          363   7105: am_hal_iom_power_ctrl
          364   7127: am_hal_mram_info_read
          365   7149: am_hal_pwrctrl_control
          366   7172: am_hal_pwrctrl_low_power_init
          367   7202: am_hal_pwrctrl_mcu_memory_config
          368   7235: am_hal_pwrctrl_periph_disable
          369   7265: am_hal_pwrctrl_periph_enable
          370   7294: am_hal_pwrctrl_sram_config
          371   7321: am_hal_rtc_osc_disable
          372   7344: am_hal_sysctrl_sleep
          373   7365: am_hal_timer_clear
          374   7384: am_hal_timer_config
          375   7404: am_hal_timer_default_config_set
          376   7436: am_hal_timer_disable
          377   7457: am_hal_timer_enable
          378   7477: am_hal_timer_interrupt_clear
          379   7506: am_hal_timer_interrupt_disable
          380   7537: am_hal_timer_interrupt_enable
          381   7567: am_iomaster7_isr
          382   7584: am_timer00_isr
          383   7599: am_util_faultisr_collect_data
          384   7629: am_valid_sp
          385   7641: buck_ldo_update_override
          386   7666: crypto_boost_trims
          387   7685: internal_iom_get_int_err
          388   7710: internal_timer_config
          389   7732: main
          390   7737: pwr_iom_gpio_setup
          391   7756: pwrctrl_fill_buff_alternating_bits
          392   7791: pwrctrl_set_low_power
          393   7813: timer_disable
          394   7827: timer_init
          395   7838: _fp_init
          396   7847: __fplib_config_fpu_vfp
          397   7870: __fplib_config_pureend_doubles
          398   7901: am_hal_cachectrl_defaults
          399   7927: am_hal_daxi_defaults
          400   7948: am_hal_gpio_pincfg_output
          401   7974: am_hal_gpio_pincfg_pulledup_disabled
          402   8011: am_hal_pwrctrl_peripheral_control
          403   8045: g_DefaultMcuMemCfg
          404   8064: g_DefaultSRAMCfg
          405   8081: g_am_hal_bootrom_helper
          406   8105: g_iomDefsTable
          407   8120: sGlobalAccess
          408   8134: ui32DSP0Allowed
          409   8150: ui32DSP1Allowed
          410   8166: ui32MCUAllowed
          411   8181: ui32SharedAccess
          412   8198: Region$$Table$$Base
          413   8218: Region$$Table$$Limit
          414   8239: g_ui32TrimVer
          415   8253: g_ui32origSimobuckVDDStrim
          416   8280: gDaxiConfig
          417   8292: g_AM_BSP_GPIO_IOM0_CS
          418   8314: g_AM_BSP_GPIO_IOM0_MOSI
          419   8338: g_AM_BSP_GPIO_IOM0_SCK
          420   8361: g_AM_BSP_GPIO_IOM0_SCL
          421   8384: g_AM_BSP_GPIO_IOM0_SDA
          422   8407: g_AM_BSP_GPIO_IOM1_CS
          423   8429: g_AM_BSP_GPIO_IOM1_MISO
          424   8453: g_AM_BSP_GPIO_IOM1_MOSI
          425   8477: g_AM_BSP_GPIO_IOM1_SCK
          426   8500: g_AM_BSP_GPIO_IOM1_SCL
          427   8523: g_AM_BSP_GPIO_IOM1_SDA
          428   8546: g_AM_BSP_GPIO_IOM2_CS
          429   8568: g_AM_BSP_GPIO_IOM2_MOSI
          430   8592: g_AM_BSP_GPIO_IOM2_SCK
          431   8615: g_AM_BSP_GPIO_IOM2_SCL
          432   8638: g_AM_BSP_GPIO_IOM2_SDA
          433   8661: g_AM_BSP_GPIO_IOM3_CS
          434   8683: g_AM_BSP_GPIO_IOM3_MOSI
          435   8707: g_AM_BSP_GPIO_IOM3_SCK
          436   8730: g_AM_BSP_GPIO_IOM3_SCL
          437   8753: g_AM_BSP_GPIO_IOM3_SDA
          438   8776: g_AM_BSP_GPIO_IOM4_CS
          439   8798: g_AM_BSP_GPIO_IOM4_MOSI
          440   8822: g_AM_BSP_GPIO_IOM4_SCK
          441   8845: g_AM_BSP_GPIO_IOM5_CS
          442   8867: g_AM_BSP_GPIO_IOM5_MOSI
          443   8891: g_AM_BSP_GPIO_IOM5_SCK
          444   8914: g_AM_BSP_GPIO_IOM5_SCL
          445   8937: g_AM_BSP_GPIO_IOM5_SDA
          446   8960: g_AM_BSP_GPIO_IOM6_CS
          447   8982: g_AM_BSP_GPIO_IOM6_MOSI
          448   9006: g_AM_BSP_GPIO_IOM6_SCK
          449   9029: g_AM_BSP_GPIO_IOM6_SCL
          450   9052: g_AM_BSP_GPIO_IOM6_SDA
          451   9075: g_AM_BSP_GPIO_IOM7_CS
          452   9097: g_AM_BSP_GPIO_IOM7_MOSI
          453   9121: g_AM_BSP_GPIO_IOM7_SCK
          454   9144: g_AM_BSP_GPIO_IOM7_SCL
          455   9167: g_AM_BSP_GPIO_IOM7_SDA
          456   9190: __libspace_start
          457   9207: __temporary_stack_top$libspace
          458   9238: gFaultStack
          459   9250: g_AM_BSP_GPIO_IOM0_MISO
          460   9274: g_AM_BSP_GPIO_IOM2_MISO
          461   9298: g_AM_BSP_GPIO_IOM3_MISO
          462   9322: g_AM_BSP_GPIO_IOM4_MISO
          463   9346: g_AM_BSP_GPIO_IOM5_MISO
          464   9370: g_AM_BSP_GPIO_IOM6_MISO
          465   9394: g_AM_BSP_GPIO_IOM7_MISO
          466   9418: g_IOMhandles
          467   9431: psGlobalAccessPtr
          468   9449: ui32MCUClaimed
          469   9464: ui32DSP0Claimed
          470   9480: ui32DSP1Claimed


** Section #13 '.note' (SHT_NOTE)
    Size   : 32 bytes (alignment 4)


** Section #14 '.comment' (SHT_PROGBITS)
    Size   : 1688 bytes


** Section #15 '.shstrtab' (SHT_STRTAB)
    Size   : 148 bytes

            #  Offset String
        ====================================

            1      1: MCU_MRAM
            2     10: MCU_TCM
            3     18: SHARED_SRAM
            4     30: .debug_abbrev
            5     44: .debug_frame
            6     57: .debug_info
            7     69: .debug_line
            8     81: .debug_ranges
            9     95: .debug_str
           10    106: .symtab
           11    114: .strtab
           12    122: .note
           13    128: .comment
           14    137: .shstrtab
           15    147: 


