
========================================================================

** ELF Header Information

    File Name: bin\pwr_mspi.axf

    Machine class: ELFCLASS32 (32-bit)
    Data encoding: ELFDATA2LSB (Little endian)
    Header version: EV_CURRENT (Current version)
    Operating System ABI: none
    ABI Version: 0
    File Type: ET_EXEC (Executable) (2)
    Machine: EM_ARM (ARM)

    Image Entry point: 0x00018235
    Flags: EF_ARM_HASENTRY + EF_ARM_ABI_FLOAT_HARD (0x05000402)

    ARM ELF revision: 5 (ABI version 2)

    Conforms to Hard float procedure-call standard

    Built with
    Component: Arm Compiler for Embedded 6.19 Tool: armasm [5e73cb00]
    Component: Arm Compiler for Embedded 6.19 Tool: armlink [5e73cb00]

    Header size: 52 bytes (0x34)
    Program header entry size: 32 bytes (0x20)
    Section header entry size: 40 bytes (0x28)

    Program header entries: 1
    Section header entries: 16

    Program header offset: 80648 (0x00013b08)
    Section header offset: 80680 (0x00013b28)

    Section header string table index: 15

========================================================================

** Program header #0 (PT_LOAD) [PF_X + PF_W + PF_R + PF_ARM_ENTRY]
    Size : 52896 bytes (18296 bytes in file)
    Virtual address: 0x00018000 (Alignment 8)


========================================================================

** Section #1 'MCU_MRAM' (SHT_PROGBITS) [SHF_ALLOC + SHF_EXECINSTR]
    Size   : 17960 bytes (alignment 4)
    Address: 0x00018000

    $d
    RESET
    __Vectors
        0x00018000:    10008838    8...    DCD    268470328
        0x00018004:    00018201    ....    DCD    98817
        0x00018008:    0001821f    ....    DCD    98847
        0x0001800c:    000183c5    ....    DCD    99269
        0x00018010:    00018221    !...    DCD    98849
        0x00018014:    00018223    #...    DCD    98851
        0x00018018:    00018225    %...    DCD    98853
        0x0001801c:    00000000    ....    DCD    0
        0x00018020:    00000000    ....    DCD    0
        0x00018024:    00000000    ....    DCD    0
        0x00018028:    00000000    ....    DCD    0
        0x0001802c:    00018227    '...    DCD    98855
        0x00018030:    00018229    )...    DCD    98857
        0x00018034:    00000000    ....    DCD    0
        0x00018038:    0001822b    +...    DCD    98859
        0x0001803c:    0001822d    -...    DCD    98861
        0x00018040:    0001822f    /...    DCD    98863
        0x00018044:    0001822f    /...    DCD    98863
        0x00018048:    0001822f    /...    DCD    98863
        0x0001804c:    0001822f    /...    DCD    98863
        0x00018050:    0001822f    /...    DCD    98863
        0x00018054:    0001822f    /...    DCD    98863
        0x00018058:    0001822f    /...    DCD    98863
        0x0001805c:    0001822f    /...    DCD    98863
        0x00018060:    0001822f    /...    DCD    98863
        0x00018064:    0001822f    /...    DCD    98863
        0x00018068:    0001822f    /...    DCD    98863
        0x0001806c:    0001822f    /...    DCD    98863
        0x00018070:    0001822f    /...    DCD    98863
        0x00018074:    0001822f    /...    DCD    98863
        0x00018078:    0001822f    /...    DCD    98863
        0x0001807c:    0001822f    /...    DCD    98863
        0x00018080:    0001822f    /...    DCD    98863
        0x00018084:    0001822f    /...    DCD    98863
        0x00018088:    0001822f    /...    DCD    98863
        0x0001808c:    0001822f    /...    DCD    98863
        0x00018090:    0001b1ed    ....    DCD    111085
        0x00018094:    0001822f    /...    DCD    98863
        0x00018098:    0001822f    /...    DCD    98863
        0x0001809c:    0001822f    /...    DCD    98863
        0x000180a0:    0001822f    /...    DCD    98863
        0x000180a4:    0001822f    /...    DCD    98863
        0x000180a8:    0001822f    /...    DCD    98863
        0x000180ac:    0001822f    /...    DCD    98863
        0x000180b0:    0001822f    /...    DCD    98863
        0x000180b4:    0001822f    /...    DCD    98863
        0x000180b8:    0001822f    /...    DCD    98863
        0x000180bc:    0001822f    /...    DCD    98863
        0x000180c0:    0001822f    /...    DCD    98863
        0x000180c4:    0001822f    /...    DCD    98863
        0x000180c8:    0001822f    /...    DCD    98863
        0x000180cc:    0001822f    /...    DCD    98863
        0x000180d0:    0001822f    /...    DCD    98863
        0x000180d4:    0001822f    /...    DCD    98863
        0x000180d8:    0001822f    /...    DCD    98863
        0x000180dc:    0001822f    /...    DCD    98863
        0x000180e0:    0001822f    /...    DCD    98863
        0x000180e4:    0001822f    /...    DCD    98863
        0x000180e8:    0001822f    /...    DCD    98863
        0x000180ec:    0001822f    /...    DCD    98863
        0x000180f0:    0001822f    /...    DCD    98863
        0x000180f4:    0001822f    /...    DCD    98863
        0x000180f8:    0001822f    /...    DCD    98863
        0x000180fc:    0001822f    /...    DCD    98863
        0x00018100:    0001822f    /...    DCD    98863
        0x00018104:    0001822f    /...    DCD    98863
        0x00018108:    0001822f    /...    DCD    98863
        0x0001810c:    0001822f    /...    DCD    98863
        0x00018110:    0001822f    /...    DCD    98863
        0x00018114:    0001822f    /...    DCD    98863
        0x00018118:    0001822f    /...    DCD    98863
        0x0001811c:    0001822f    /...    DCD    98863
        0x00018120:    0001822f    /...    DCD    98863
        0x00018124:    0001822f    /...    DCD    98863
        0x00018128:    0001822f    /...    DCD    98863
        0x0001812c:    0001822f    /...    DCD    98863
        0x00018130:    0001822f    /...    DCD    98863
        0x00018134:    0001822f    /...    DCD    98863
        0x00018138:    0001822f    /...    DCD    98863
        0x0001813c:    0001822f    /...    DCD    98863
        0x00018140:    0001822f    /...    DCD    98863
        0x00018144:    0001822f    /...    DCD    98863
        0x00018148:    0001822f    /...    DCD    98863
        0x0001814c:    0001b231    1...    DCD    111153
        0x00018150:    0001822f    /...    DCD    98863
        0x00018154:    0001822f    /...    DCD    98863
        0x00018158:    0001822f    /...    DCD    98863
        0x0001815c:    0001822f    /...    DCD    98863
        0x00018160:    0001822f    /...    DCD    98863
        0x00018164:    0001822f    /...    DCD    98863
        0x00018168:    0001822f    /...    DCD    98863
        0x0001816c:    0001822f    /...    DCD    98863
        0x00018170:    0001822f    /...    DCD    98863
        0x00018174:    0001822f    /...    DCD    98863
        0x00018178:    0001822f    /...    DCD    98863
        0x0001817c:    0001822f    /...    DCD    98863
        0x00018180:    0001822f    /...    DCD    98863
        0x00018184:    0001822f    /...    DCD    98863
        0x00018188:    0001822f    /...    DCD    98863
        0x0001818c:    0001822f    /...    DCD    98863
    __Patchable
        0x00018190:    00000000    ....    DCD    0
        0x00018194:    00000000    ....    DCD    0
        0x00018198:    00000000    ....    DCD    0
        0x0001819c:    00000000    ....    DCD    0
        0x000181a0:    00000000    ....    DCD    0
        0x000181a4:    00000000    ....    DCD    0
        0x000181a8:    00000000    ....    DCD    0
        0x000181ac:    00000000    ....    DCD    0
        0x000181b0:    00000000    ....    DCD    0
        0x000181b4:    00000000    ....    DCD    0
        0x000181b8:    00000000    ....    DCD    0
        0x000181bc:    00000000    ....    DCD    0
        0x000181c0:    00000000    ....    DCD    0
        0x000181c4:    00000000    ....    DCD    0
        0x000181c8:    00000000    ....    DCD    0
        0x000181cc:    00000000    ....    DCD    0
        0x000181d0:    00000000    ....    DCD    0
        0x000181d4:    00000000    ....    DCD    0
        0x000181d8:    00000000    ....    DCD    0
        0x000181dc:    00000000    ....    DCD    0
        0x000181e0:    00000000    ....    DCD    0
        0x000181e4:    00000000    ....    DCD    0
        0x000181e8:    00000000    ....    DCD    0
        0x000181ec:    00000000    ....    DCD    0
        0x000181f0:    00000000    ....    DCD    0
        0x000181f4:    00000000    ....    DCD    0
        0x000181f8:    00000000    ....    DCD    0
        0x000181fc:    00000000    ....    DCD    0
    $t
    $v0
    Reset_Handler
        0x00018200:    f64e5088    N..P    MOV      r0,#0xed88
        0x00018204:    f2ce0000    ....    MOVT     r0,#0xe000
        0x00018208:    6801        .h      LDR      r1,[r0,#0]
        0x0001820a:    f4410170    A.p.    ORR      r1,r1,#0xf00000
        0x0001820e:    6001        .`      STR      r1,[r0,#0]
        0x00018210:    f3bf8f4f    ..O.    DSB      
        0x00018214:    f3bf8f6f    ..o.    ISB      
        0x00018218:    4805        .H      LDR      r0,[pc,#20] ; [0x18230] = 0x18235
        0x0001821a:    4700        .G      BX       r0
        0x0001821c:    e7fe        ..      B        0x1821c ; Reset_Handler + 28
    NMI_Handler
        0x0001821e:    e7fe        ..      B        NMI_Handler ; 0x1821e
    MemManage_Handler
        0x00018220:    e7fe        ..      B        MemManage_Handler ; 0x18220
    BusFault_Handler
        0x00018222:    e7fe        ..      B        BusFault_Handler ; 0x18222
    UsageFault_Handler
        0x00018224:    e7fe        ..      B        UsageFault_Handler ; 0x18224
    SVC_Handler
        0x00018226:    e7fe        ..      B        SVC_Handler ; 0x18226
    DebugMon_Handler
        0x00018228:    e7fe        ..      B        DebugMon_Handler ; 0x18228
    PendSV_Handler
        0x0001822a:    e7fe        ..      B        PendSV_Handler ; 0x1822a
    SysTick_Handler
        0x0001822c:    e7fe        ..      B        SysTick_Handler ; 0x1822c
    am_cryptosec_isr
    am_default_isr
    am_adc_isr
    am_audadc0_isr
    am_brownout_isr
    am_cachecpu_isr
    am_clkgen_isr
    am_ctimer_isr
    am_disp_isr
    am_dsi_isr
    am_dspi2s0_isr
    am_dspi2s1_isr
    am_dspi2s2_isr
    am_dspi2s3_isr
    am_gpio0_001f_isr
    am_gpio0_203f_isr
    am_gpio0_405f_isr
    am_gpio0_607f_isr
    am_gpio1_001f_isr
    am_gpio1_203f_isr
    am_gpio1_405f_isr
    am_gpio1_607f_isr
    am_gpu_isr
    am_iomaster0_isr
    am_iomaster1_isr
    am_iomaster2_isr
    am_iomaster3_isr
    am_iomaster4_isr
    am_iomaster5_isr
    am_iomaster6_isr
    am_iomaster7_isr
    am_ioslave_acc_isr
    am_ioslave_ios_isr
    am_mspi1_isr
    am_mspi2_isr
    am_pdm0_isr
    am_pdm1_isr
    am_pdm2_isr
    am_pdm3_isr
    am_rtc_isr
    am_sdio_isr
    am_stimer_cmpr0_isr
    am_stimer_cmpr1_isr
    am_stimer_cmpr2_isr
    am_stimer_cmpr3_isr
    am_stimer_cmpr4_isr
    am_stimer_cmpr5_isr
    am_stimer_cmpr6_isr
    am_stimer_cmpr7_isr
    am_stimerof_isr
    am_timer01_isr
    am_timer02_isr
    am_timer03_isr
    am_timer04_isr
    am_timer05_isr
    am_timer06_isr
    am_timer07_isr
    am_timer08_isr
    am_timer09_isr
    am_timer10_isr
    am_timer11_isr
    am_timer12_isr
    am_timer13_isr
    am_timer14_isr
    am_timer15_isr
    am_uart1_isr
    am_uart2_isr
    am_uart3_isr
    am_uart_isr
    am_usb_isr
    am_vcomp_isr
    am_watchdog_isr
        0x0001822e:    e7fe        ..      B        am_cryptosec_isr ; 0x1822e
    $d
        0x00018230:    00018235    5...    DCD    98869
    $t
    !!!main
    __main
        0x00018234:    f000f802    ....    BL       __scatterload ; 0x1823c
        0x00018238:    f000f86a    ..j.    BL       __rt_entry ; 0x18310
    !!!scatter
    __scatterload
    __scatterload_rt2
    __scatterload_rt2_thumb_only
        0x0001823c:    a00a        ..      ADR      r0,{pc}+0x2c ; 0x18268
        0x0001823e:    e8900c00    ....    LDM      r0,{r10,r11}
        0x00018242:    4482        .D      ADD      r10,r10,r0
        0x00018244:    4483        .D      ADD      r11,r11,r0
        0x00018246:    f1aa0701    ....    SUB      r7,r10,#1
    __scatterload_null
        0x0001824a:    45da        .E      CMP      r10,r11
        0x0001824c:    d101        ..      BNE      0x18252 ; __scatterload_null + 8
        0x0001824e:    f000f85f    .._.    BL       __rt_entry ; 0x18310
        0x00018252:    f2af0e09    ....    ADR      lr,{pc}-7 ; 0x1824b
        0x00018256:    e8ba000f    ....    LDM      r10!,{r0-r3}
        0x0001825a:    f0130f01    ....    TST      r3,#1
        0x0001825e:    bf18        ..      IT       NE
        0x00018260:    1afb        ..      SUBNE    r3,r7,r3
        0x00018262:    f0430301    C...    ORR      r3,r3,#1
        0x00018266:    4718        .G      BX       r3
    $d
        0x00018268:    00004390    .C..    DCD    17296
        0x0001826c:    000043c0    .C..    DCD    17344
    $t
    !!dczerorl2
    __decompress
    __decompress1
        0x00018270:    440a        .D      ADD      r2,r2,r1
        0x00018272:    f04f0c00    O...    MOV      r12,#0
        0x00018276:    f8103b01    ...;    LDRB     r3,[r0],#1
        0x0001827a:    f0130407    ....    ANDS     r4,r3,#7
        0x0001827e:    bf08        ..      IT       EQ
        0x00018280:    f8104b01    ...K    LDRBEQ   r4,[r0],#1
        0x00018284:    111d        ..      ASRS     r5,r3,#4
        0x00018286:    bf08        ..      IT       EQ
        0x00018288:    f8105b01    ...[    LDRBEQ   r5,[r0],#1
        0x0001828c:    1e64        d.      SUBS     r4,r4,#1
        0x0001828e:    d005        ..      BEQ      0x1829c ; __decompress + 44
        0x00018290:    f8106b01    ...k    LDRB     r6,[r0],#1
        0x00018294:    1e64        d.      SUBS     r4,r4,#1
        0x00018296:    f8016b01    ...k    STRB     r6,[r1],#1
        0x0001829a:    d1f9        ..      BNE      0x18290 ; __decompress + 32
        0x0001829c:    f0130f08    ....    TST      r3,#8
        0x000182a0:    bf1e        ..      ITTT     NE
        0x000182a2:    f8104b01    ...K    LDRBNE   r4,[r0],#1
        0x000182a6:    1cad        ..      ADDNE    r5,r5,#2
        0x000182a8:    1b0c        ..      SUBNE    r4,r1,r4
        0x000182aa:    d109        ..      BNE      0x182c0 ; __decompress + 80
        0x000182ac:    1e6d        m.      SUBS     r5,r5,#1
        0x000182ae:    bf58        X.      IT       PL
        0x000182b0:    f801cb01    ....    STRBPL   r12,[r1],#1
        0x000182b4:    d5fa        ..      BPL      0x182ac ; __decompress + 60
        0x000182b6:    e005        ..      B        0x182c4 ; __decompress + 84
        0x000182b8:    f8146b01    ...k    LDRB     r6,[r4],#1
        0x000182bc:    f8016b01    ...k    STRB     r6,[r1],#1
        0x000182c0:    1e6d        m.      SUBS     r5,r5,#1
        0x000182c2:    d5f9        ..      BPL      0x182b8 ; __decompress + 72
        0x000182c4:    4291        .B      CMP      r1,r2
        0x000182c6:    d3d6        ..      BCC      0x18276 ; __decompress + 6
        0x000182c8:    4770        pG      BX       lr
        0x000182ca:    0000        ..      MOVS     r0,r0
    !!handler_copy
    __scatterload_copy
        0x000182cc:    3a10        .:      SUBS     r2,r2,#0x10
        0x000182ce:    bf24        $.      ITT      CS
        0x000182d0:    c878        x.      LDMCS    r0!,{r3-r6}
        0x000182d2:    c178        x.      STMCS    r1!,{r3-r6}
        0x000182d4:    d8fa        ..      BHI      __scatterload_copy ; 0x182cc
        0x000182d6:    0752        R.      LSLS     r2,r2,#29
        0x000182d8:    bf24        $.      ITT      CS
        0x000182da:    c830        0.      LDMCS    r0!,{r4,r5}
        0x000182dc:    c130        0.      STMCS    r1!,{r4,r5}
        0x000182de:    bf44        D.      ITT      MI
        0x000182e0:    6804        .h      LDRMI    r4,[r0,#0]
        0x000182e2:    600c        .`      STRMI    r4,[r1,#0]
        0x000182e4:    4770        pG      BX       lr
        0x000182e6:    0000        ..      MOVS     r0,r0
    !!handler_zi
    __scatterload_zeroinit
        0x000182e8:    2300        .#      MOVS     r3,#0
        0x000182ea:    2400        .$      MOVS     r4,#0
        0x000182ec:    2500        .%      MOVS     r5,#0
        0x000182ee:    2600        .&      MOVS     r6,#0
        0x000182f0:    3a10        .:      SUBS     r2,r2,#0x10
        0x000182f2:    bf28        (.      IT       CS
        0x000182f4:    c178        x.      STMCS    r1!,{r3-r6}
        0x000182f6:    d8fb        ..      BHI      0x182f0 ; __scatterload_zeroinit + 8
        0x000182f8:    0752        R.      LSLS     r2,r2,#29
        0x000182fa:    bf28        (.      IT       CS
        0x000182fc:    c130        0.      STMCS    r1!,{r4,r5}
        0x000182fe:    bf48        H.      IT       MI
        0x00018300:    600b        .`      STRMI    r3,[r1,#0]
        0x00018302:    4770        pG      BX       lr
    .ARM.Collect$$libinit$$00000000
    __rt_lib_init
        0x00018304:    b51f        ..      PUSH     {r0-r4,lr}
    .ARM.Collect$$libinit$$00000001
    __rt_lib_init_fp_1
        0x00018306:    f003ff5c    ..\.    BL       _fp_init ; 0x1c1c2
    .ARM.Collect$$libinit$$00000004
    .ARM.Collect$$libinit$$00000006
    .ARM.Collect$$libinit$$0000000C
    .ARM.Collect$$libinit$$0000000E
    .ARM.Collect$$libinit$$00000010
    .ARM.Collect$$libinit$$00000013
    .ARM.Collect$$libinit$$00000015
    .ARM.Collect$$libinit$$00000017
    .ARM.Collect$$libinit$$00000019
    .ARM.Collect$$libinit$$0000001B
    .ARM.Collect$$libinit$$0000001D
    .ARM.Collect$$libinit$$0000001F
    .ARM.Collect$$libinit$$00000021
    .ARM.Collect$$libinit$$00000023
    .ARM.Collect$$libinit$$00000025
    .ARM.Collect$$libinit$$00000027
    .ARM.Collect$$libinit$$0000002E
    .ARM.Collect$$libinit$$00000030
    .ARM.Collect$$libinit$$00000032
    .ARM.Collect$$libinit$$00000034
    .ARM.Collect$$libinit$$00000035
    __rt_lib_init_alloca_1
    __rt_lib_init_argv_1
    __rt_lib_init_atexit_1
    __rt_lib_init_clock_1
    __rt_lib_init_cpp_1
    __rt_lib_init_exceptions_1
    __rt_lib_init_fp_trap_1
    __rt_lib_init_getenv_1
    __rt_lib_init_heap_1
    __rt_lib_init_lc_collate_1
    __rt_lib_init_lc_ctype_1
    __rt_lib_init_lc_monetary_1
    __rt_lib_init_lc_numeric_1
    __rt_lib_init_lc_time_1
    __rt_lib_init_preinit_1
    __rt_lib_init_rand_1
    __rt_lib_init_relocate_pie_1
    __rt_lib_init_return
    __rt_lib_init_signal_1
    __rt_lib_init_stdio_1
    __rt_lib_init_user_alloc_1
        0x0001830a:    bd1f        ..      POP      {r0-r4,pc}
    .ARM.Collect$$libshutdown$$00000000
    __rt_lib_shutdown
        0x0001830c:    b510        ..      PUSH     {r4,lr}
    .ARM.Collect$$libshutdown$$00000002
    .ARM.Collect$$libshutdown$$00000004
    .ARM.Collect$$libshutdown$$00000007
    .ARM.Collect$$libshutdown$$0000000A
    .ARM.Collect$$libshutdown$$0000000C
    .ARM.Collect$$libshutdown$$0000000F
    .ARM.Collect$$libshutdown$$00000010
    __rt_lib_shutdown_cpp_1
    __rt_lib_shutdown_fp_trap_1
    __rt_lib_shutdown_heap_1
    __rt_lib_shutdown_return
    __rt_lib_shutdown_signal_1
    __rt_lib_shutdown_stdio_1
    __rt_lib_shutdown_user_alloc_1
        0x0001830e:    bd10        ..      POP      {r4,pc}
    .ARM.Collect$$rtentry$$00000000
    .ARM.Collect$$rtentry$$00000002
    .ARM.Collect$$rtentry$$00000004
    __rt_entry
    __rt_entry_presh_1
    __rt_entry_sh
        0x00018310:    f000f81d    ....    BL       __user_setup_stackheap ; 0x1834e
        0x00018314:    4611        .F      MOV      r1,r2
    .ARM.Collect$$rtentry$$00000009
    .ARM.Collect$$rtentry$$0000000A
    __rt_entry_li
    __rt_entry_postsh_1
        0x00018316:    f7fffff5    ....    BL       __rt_lib_init ; 0x18304
    .ARM.Collect$$rtentry$$0000000C
    .ARM.Collect$$rtentry$$0000000D
    __rt_entry_main
    __rt_entry_postli_1
        0x0001831a:    f003fa01    ....    BL       main ; 0x1b720
        0x0001831e:    f000f83b    ..;.    BL       exit ; 0x18398
    .ARM.Collect$$rtexit$$00000000
    __rt_exit
        0x00018322:    b403        ..      PUSH     {r0,r1}
    .ARM.Collect$$rtexit$$00000002
    .ARM.Collect$$rtexit$$00000003
    __rt_exit_ls
    __rt_exit_prels_1
        0x00018324:    f7fffff2    ....    BL       __rt_lib_shutdown ; 0x1830c
    .ARM.Collect$$rtexit$$00000004
    __rt_exit_exit
        0x00018328:    bc03        ..      POP      {r0,r1}
        0x0001832a:    f000f843    ..C.    BL       _sys_exit ; 0x183b4
        0x0001832e:    0000        ..      MOVS     r0,r0
    .text
    $v0
    __user_initial_stackheap
        0x00018330:    4802        .H      LDR      r0,[pc,#8] ; [0x1833c] = 0x10007838
        0x00018332:    4903        .I      LDR      r1,[pc,#12] ; [0x18340] = 0x10008838
        0x00018334:    4a01        .J      LDR      r2,[pc,#4] ; [0x1833c] = 0x10007838
        0x00018336:    4b03        .K      LDR      r3,[pc,#12] ; [0x18344] = 0x10007838
        0x00018338:    4770        pG      BX       lr
    $d
        0x0001833a:    0000        ..      DCW    0
        0x0001833c:    10007838    8x..    DCD    268466232
        0x00018340:    10008838    8...    DCD    268470328
        0x00018344:    10007838    8x..    DCD    268466232
    $t
    .text
    __use_two_region_memory
        0x00018348:    4770        pG      BX       lr
    __rt_heap_escrow$2region
        0x0001834a:    4770        pG      BX       lr
    __rt_heap_expand$2region
        0x0001834c:    4770        pG      BX       lr
    .text
    __user_setup_stackheap
        0x0001834e:    4675        uF      MOV      r5,lr
        0x00018350:    f000f82c    ..,.    BL       __user_libspace ; 0x183ac
        0x00018354:    46ae        .F      MOV      lr,r5
        0x00018356:    0005        ..      MOVS     r5,r0
        0x00018358:    4669        iF      MOV      r1,sp
        0x0001835a:    4653        SF      MOV      r3,r10
        0x0001835c:    f0200007     ...    BIC      r0,r0,#7
        0x00018360:    4685        .F      MOV      sp,r0
        0x00018362:    b018        ..      ADD      sp,sp,#0x60
        0x00018364:    b520         .      PUSH     {r5,lr}
        0x00018366:    f7ffffe3    ....    BL       __user_initial_stackheap ; 0x18330
        0x0001836a:    e8bd4020    .. @    POP      {r5,lr}
        0x0001836e:    f04f0600    O...    MOV      r6,#0
        0x00018372:    f04f0700    O...    MOV      r7,#0
        0x00018376:    f04f0800    O...    MOV      r8,#0
        0x0001837a:    f04f0b00    O...    MOV      r11,#0
        0x0001837e:    46ac        .F      MOV      r12,r5
        0x00018380:    e8ac09c0    ....    STM      r12!,{r6-r8,r11}
        0x00018384:    e8ac09c0    ....    STM      r12!,{r6-r8,r11}
        0x00018388:    e8ac09c0    ....    STM      r12!,{r6-r8,r11}
        0x0001838c:    e8ac09c0    ....    STM      r12!,{r6-r8,r11}
        0x00018390:    f0210107    !...    BIC      r1,r1,#7
        0x00018394:    468d        .F      MOV      sp,r1
        0x00018396:    4770        pG      BX       lr
    .text
    exit
        0x00018398:    b510        ..      PUSH     {r4,lr}
        0x0001839a:    4604        .F      MOV      r4,r0
        0x0001839c:    f3af8000    ....    NOP.W    
        0x000183a0:    4620         F      MOV      r0,r4
        0x000183a2:    e8bd4010    ...@    POP      {r4,lr}
        0x000183a6:    f7ffbfbc    ....    B.W      __rt_exit ; 0x18322
        0x000183aa:    0000        ..      MOVS     r0,r0
    .text
    __user_libspace
    __user_perproc_libspace
    __user_perthread_libspace
        0x000183ac:    4800        .H      LDR      r0,[pc,#0] ; [0x183b0] = 0x10000110
        0x000183ae:    4770        pG      BX       lr
    $d
        0x000183b0:    10000110    ....    DCD    268435728
    $t
    .text
    _sys_exit
        0x000183b4:    4901        .I      LDR      r1,[pc,#4] ; [0x183bc] = 0x20026
        0x000183b6:    2018        .       MOVS     r0,#0x18
        0x000183b8:    beab        ..      BKPT     #0xab
        0x000183ba:    e7fe        ..      B        0x183ba ; _sys_exit + 6
    $d
        0x000183bc:    00020026    &...    DCD    131110
    $t
    .text
    __I$use$semihosting
    __use_no_semihosting_swi
        0x000183c0:    4770        pG      BX       lr
    .text
    __semihosting_library_function
        0x000183c2:    0000        ..      MOVS     r0,r0
    $t.0
    HardFault_Handler
        0x000183c4:    f01e0f04    ....    TST      lr,#4
        0x000183c8:    bf0c        ..      ITE      EQ
        0x000183ca:    f3ef8008    ....    MRSEQ    r0,MSP
        0x000183ce:    f3ef8009    ....    MRSNE    r0,PSP
        0x000183d2:    4904        .I      LDR      r1,[pc,#16] ; [0x183e4] = 0x10000378
        0x000183d4:    f5017100    ...q    ADD      r1,r1,#0x200
        0x000183d8:    f0210103    !...    BIC      r1,r1,#3
        0x000183dc:    468d        .F      MOV      sp,r1
        0x000183de:    f002bf3d    ..=.    B.W      am_util_faultisr_collect_data ; 0x1b25c
        0x000183e2:    0000        ..      MOVS     r0,r0
    $d.4
        0x000183e4:    10000378    x...    DCD    268436344
    $t.6
    __NVIC_ClearPendingIRQ
        0x000183e8:    b081        ..      SUB      sp,sp,#4
        0x000183ea:    f88d0003    ....    STRB     r0,[sp,#3]
        0x000183ee:    f99d0003    ....    LDRSB    r0,[sp,#3]
        0x000183f2:    2800        .(      CMP      r0,#0
        0x000183f4:    d40e        ..      BMI      0x18414 ; __NVIC_ClearPendingIRQ + 44
        0x000183f6:    e7ff        ..      B        0x183f8 ; __NVIC_ClearPendingIRQ + 16
        0x000183f8:    f99d1003    ....    LDRSB    r1,[sp,#3]
        0x000183fc:    f001021f    ....    AND      r2,r1,#0x1f
        0x00018400:    2001        .       MOVS     r0,#1
        0x00018402:    4090        .@      LSLS     r0,r0,r2
        0x00018404:    094a        J.      LSRS     r2,r1,#5
        0x00018406:    f24e2180    N..!    MOV      r1,#0xe280
        0x0001840a:    f2ce0100    ....    MOVT     r1,#0xe000
        0x0001840e:    f8410022    A.".    STR      r0,[r1,r2,LSL #2]
        0x00018412:    e7ff        ..      B        0x18414 ; __NVIC_ClearPendingIRQ + 44
        0x00018414:    b001        ..      ADD      sp,sp,#4
        0x00018416:    4770        pG      BX       lr
    __NVIC_DisableIRQ
        0x00018418:    b081        ..      SUB      sp,sp,#4
        0x0001841a:    f88d0003    ....    STRB     r0,[sp,#3]
        0x0001841e:    f99d0003    ....    LDRSB    r0,[sp,#3]
        0x00018422:    2800        .(      CMP      r0,#0
        0x00018424:    d412        ..      BMI      0x1844c ; __NVIC_DisableIRQ + 52
        0x00018426:    e7ff        ..      B        0x18428 ; __NVIC_DisableIRQ + 16
        0x00018428:    f99d1003    ....    LDRSB    r1,[sp,#3]
        0x0001842c:    f001021f    ....    AND      r2,r1,#0x1f
        0x00018430:    2001        .       MOVS     r0,#1
        0x00018432:    4090        .@      LSLS     r0,r0,r2
        0x00018434:    094a        J.      LSRS     r2,r1,#5
        0x00018436:    f24e1180    N...    MOV      r1,#0xe180
        0x0001843a:    f2ce0100    ....    MOVT     r1,#0xe000
        0x0001843e:    f8410022    A.".    STR      r0,[r1,r2,LSL #2]
        0x00018442:    f3bf8f4f    ..O.    DSB      
        0x00018446:    f3bf8f6f    ..o.    ISB      
        0x0001844a:    e7ff        ..      B        0x1844c ; __NVIC_DisableIRQ + 52
        0x0001844c:    b001        ..      ADD      sp,sp,#4
        0x0001844e:    4770        pG      BX       lr
    __NVIC_DisableIRQ
        0x00018450:    b081        ..      SUB      sp,sp,#4
        0x00018452:    f88d0003    ....    STRB     r0,[sp,#3]
        0x00018456:    f99d0003    ....    LDRSB    r0,[sp,#3]
        0x0001845a:    2800        .(      CMP      r0,#0
        0x0001845c:    d412        ..      BMI      0x18484 ; __NVIC_DisableIRQ + 52
        0x0001845e:    e7ff        ..      B        0x18460 ; __NVIC_DisableIRQ + 16
        0x00018460:    f99d1003    ....    LDRSB    r1,[sp,#3]
        0x00018464:    f001021f    ....    AND      r2,r1,#0x1f
        0x00018468:    2001        .       MOVS     r0,#1
        0x0001846a:    4090        .@      LSLS     r0,r0,r2
        0x0001846c:    094a        J.      LSRS     r2,r1,#5
        0x0001846e:    f24e1180    N...    MOV      r1,#0xe180
        0x00018472:    f2ce0100    ....    MOVT     r1,#0xe000
        0x00018476:    f8410022    A.".    STR      r0,[r1,r2,LSL #2]
        0x0001847a:    f3bf8f4f    ..O.    DSB      
        0x0001847e:    f3bf8f6f    ..o.    ISB      
        0x00018482:    e7ff        ..      B        0x18484 ; __NVIC_DisableIRQ + 52
        0x00018484:    b001        ..      ADD      sp,sp,#4
        0x00018486:    4770        pG      BX       lr
    __NVIC_EnableIRQ
        0x00018488:    b081        ..      SUB      sp,sp,#4
        0x0001848a:    f88d0003    ....    STRB     r0,[sp,#3]
        0x0001848e:    f99d0003    ....    LDRSB    r0,[sp,#3]
        0x00018492:    2800        .(      CMP      r0,#0
        0x00018494:    d40e        ..      BMI      0x184b4 ; __NVIC_EnableIRQ + 44
        0x00018496:    e7ff        ..      B        0x18498 ; __NVIC_EnableIRQ + 16
        0x00018498:    f99d1003    ....    LDRSB    r1,[sp,#3]
        0x0001849c:    f001021f    ....    AND      r2,r1,#0x1f
        0x000184a0:    2001        .       MOVS     r0,#1
        0x000184a2:    4090        .@      LSLS     r0,r0,r2
        0x000184a4:    094a        J.      LSRS     r2,r1,#5
        0x000184a6:    f24e1100    N...    MOVW     r1,#0xe100
        0x000184aa:    f2ce0100    ....    MOVT     r1,#0xe000
        0x000184ae:    f8410022    A.".    STR      r0,[r1,r2,LSL #2]
        0x000184b2:    e7ff        ..      B        0x184b4 ; __NVIC_EnableIRQ + 44
        0x000184b4:    b001        ..      ADD      sp,sp,#4
        0x000184b6:    4770        pG      BX       lr
    __NVIC_EnableIRQ
        0x000184b8:    b081        ..      SUB      sp,sp,#4
        0x000184ba:    f88d0003    ....    STRB     r0,[sp,#3]
        0x000184be:    f99d0003    ....    LDRSB    r0,[sp,#3]
        0x000184c2:    2800        .(      CMP      r0,#0
        0x000184c4:    d40e        ..      BMI      0x184e4 ; __NVIC_EnableIRQ + 44
        0x000184c6:    e7ff        ..      B        0x184c8 ; __NVIC_EnableIRQ + 16
        0x000184c8:    f99d1003    ....    LDRSB    r1,[sp,#3]
        0x000184cc:    f001021f    ....    AND      r2,r1,#0x1f
        0x000184d0:    2001        .       MOVS     r0,#1
        0x000184d2:    4090        .@      LSLS     r0,r0,r2
        0x000184d4:    094a        J.      LSRS     r2,r1,#5
        0x000184d6:    f24e1100    N...    MOVW     r1,#0xe100
        0x000184da:    f2ce0100    ....    MOVT     r1,#0xe000
        0x000184de:    f8410022    A.".    STR      r0,[r1,r2,LSL #2]
        0x000184e2:    e7ff        ..      B        0x184e4 ; __NVIC_EnableIRQ + 44
        0x000184e4:    b001        ..      ADD      sp,sp,#4
        0x000184e6:    4770        pG      BX       lr
    __NVIC_SetPriority
        0x000184e8:    b082        ..      SUB      sp,sp,#8
        0x000184ea:    f88d0007    ....    STRB     r0,[sp,#7]
        0x000184ee:    9100        ..      STR      r1,[sp,#0]
        0x000184f0:    f99d0007    ....    LDRSB    r0,[sp,#7]
        0x000184f4:    2800        .(      CMP      r0,#0
        0x000184f6:    d40a        ..      BMI      0x1850e ; __NVIC_SetPriority + 38
        0x000184f8:    e7ff        ..      B        0x184fa ; __NVIC_SetPriority + 18
        0x000184fa:    9800        ..      LDR      r0,[sp,#0]
        0x000184fc:    0140        @.      LSLS     r0,r0,#5
        0x000184fe:    f99d1007    ....    LDRSB    r1,[sp,#7]
        0x00018502:    f24e4200    N..B    MOVW     r2,#0xe400
        0x00018506:    f2ce0200    ....    MOVT     r2,#0xe000
        0x0001850a:    5488        .T      STRB     r0,[r1,r2]
        0x0001850c:    e00b        ..      B        0x18526 ; __NVIC_SetPriority + 62
        0x0001850e:    9800        ..      LDR      r0,[sp,#0]
        0x00018510:    0140        @.      LSLS     r0,r0,#5
        0x00018512:    f89d1007    ....    LDRB     r1,[sp,#7]
        0x00018516:    f001010f    ....    AND      r1,r1,#0xf
        0x0001851a:    f64e5214    N..R    MOV      r2,#0xed14
        0x0001851e:    f2ce0200    ....    MOVT     r2,#0xe000
        0x00018522:    5488        .T      STRB     r0,[r1,r2]
        0x00018524:    e7ff        ..      B        0x18526 ; __NVIC_SetPriority + 62
        0x00018526:    b002        ..      ADD      sp,sp,#8
        0x00018528:    4770        pG      BX       lr
        0x0001852a:    0000        ..      MOVS     r0,r0
    __NVIC_SetPriority
        0x0001852c:    b082        ..      SUB      sp,sp,#8
        0x0001852e:    f88d0007    ....    STRB     r0,[sp,#7]
        0x00018532:    9100        ..      STR      r1,[sp,#0]
        0x00018534:    f99d0007    ....    LDRSB    r0,[sp,#7]
        0x00018538:    2800        .(      CMP      r0,#0
        0x0001853a:    d40a        ..      BMI      0x18552 ; __NVIC_SetPriority + 38
        0x0001853c:    e7ff        ..      B        0x1853e ; __NVIC_SetPriority + 18
        0x0001853e:    9800        ..      LDR      r0,[sp,#0]
        0x00018540:    0140        @.      LSLS     r0,r0,#5
        0x00018542:    f99d1007    ....    LDRSB    r1,[sp,#7]
        0x00018546:    f24e4200    N..B    MOVW     r2,#0xe400
        0x0001854a:    f2ce0200    ....    MOVT     r2,#0xe000
        0x0001854e:    5488        .T      STRB     r0,[r1,r2]
        0x00018550:    e00b        ..      B        0x1856a ; __NVIC_SetPriority + 62
        0x00018552:    9800        ..      LDR      r0,[sp,#0]
        0x00018554:    0140        @.      LSLS     r0,r0,#5
        0x00018556:    f89d1007    ....    LDRB     r1,[sp,#7]
        0x0001855a:    f001010f    ....    AND      r1,r1,#0xf
        0x0001855e:    f64e5214    N..R    MOV      r2,#0xed14
        0x00018562:    f2ce0200    ....    MOVT     r2,#0xe000
        0x00018566:    5488        .T      STRB     r0,[r1,r2]
        0x00018568:    e7ff        ..      B        0x1856a ; __NVIC_SetPriority + 62
        0x0001856a:    b002        ..      ADD      sp,sp,#8
        0x0001856c:    4770        pG      BX       lr
        0x0001856e:    0000        ..      MOVS     r0,r0
    am_bsp_low_power_init
        0x00018570:    b580        ..      PUSH     {r7,lr}
        0x00018572:    f002f9b7    ....    BL       am_hal_pwrctrl_low_power_init ; 0x1a8e4
        0x00018576:    2000        .       MOVS     r0,#0
        0x00018578:    2100        .!      MOVS     r1,#0
        0x0001857a:    f002f8dd    ....    BL       am_hal_pwrctrl_control ; 0x1a738
        0x0001857e:    f002fcf1    ....    BL       am_hal_rtc_osc_disable ; 0x1af64
        0x00018582:    f24c10ec    L...    MOV      r0,#0xc1ec
        0x00018586:    f2c00001    ....    MOVT     r0,#1
        0x0001858a:    6801        .h      LDR      r1,[r0,#0]
        0x0001858c:    2037        7       MOVS     r0,#0x37
        0x0001858e:    f001f9df    ....    BL       am_hal_gpio_pinconfig ; 0x19950
        0x00018592:    2037        7       MOVS     r0,#0x37
        0x00018594:    2100        .!      MOVS     r1,#0
        0x00018596:    e8bd4080    ...@    POP      {r7,lr}
        0x0001859a:    f001ba25    ..%.    B.W      am_hal_gpio_state_write ; 0x199e8
        0x0001859e:    0000        ..      MOVS     r0,r0
    am_bsp_mspi_pins_enable
        0x000185a0:    e92d43f0    -..C    PUSH     {r4-r9,lr}
        0x000185a4:    b081        ..      SUB      sp,sp,#4
        0x000185a6:    2802        .(      CMP      r0,#2
        0x000185a8:    d054        T.      BEQ      0x18654 ; am_bsp_mspi_pins_enable + 180
        0x000185aa:    2801        .(      CMP      r0,#1
        0x000185ac:    f00080a0    ....    BEQ.W    0x186f0 ; am_bsp_mspi_pins_enable + 336
        0x000185b0:    2800        .(      CMP      r0,#0
        0x000185b2:    f04080eb    @...    BNE.W    0x1878c ; am_bsp_mspi_pins_enable + 492
        0x000185b6:    2913        .)      CMP      r1,#0x13
        0x000185b8:    f20080e8    ....    BHI.W    0x1878c ; am_bsp_mspi_pins_enable + 492
        0x000185bc:    f2400450    @.P.    MOVW     r4,#0x50
        0x000185c0:    f2400930    @.0.    MOVW     r9,#0x30
        0x000185c4:    f240072c    @.,.    MOVW     r7,#0x2c
        0x000185c8:    f2400224    @.$.    MOVW     r2,#0x24
        0x000185cc:    f04f0848    O.H.    MOV      r8,#0x48
        0x000185d0:    f2c10400    ....    MOVT     r4,#0x1000
        0x000185d4:    2541        A%      MOVS     r5,#0x41
        0x000185d6:    f2c10900    ....    MOVT     r9,#0x1000
        0x000185da:    2640        @&      MOVS     r6,#0x40
        0x000185dc:    f2c10700    ....    MOVT     r7,#0x1000
        0x000185e0:    200e        .       MOVS     r0,#0xe
        0x000185e2:    f2c10200    ....    MOVT     r2,#0x1000
        0x000185e6:    e8dff011    ....    TBH      [pc,r1,LSL #1]
    $d.28
        0x000185ea:    05d8        ..      DCW    1496
        0x000185ec:    00d1037f    ....    DCD    13697919
        0x000185f0:    001500d1    ....    DCD    1376465
        0x000185f4:    0395011d    ....    DCD    60096797
        0x000185f8:    042103d9    ..!.    DCD    69272537
        0x000185fc:    04ad0465    e...    DCD    78447717
        0x00018600:    00d10543    C...    DCD    13698371
        0x00018604:    00d100d1    ....    DCD    13697233
        0x00018608:    001500d1    ....    DCD    1376465
        0x0001860c:    0015011d    ....    DCD    1376541
        0x00018610:    bf00011d    ....    DCD    3204448541
    $t.29
        0x00018614:    6811        .h      LDR      r1,[r2,#0]
        0x00018616:    200e        .       MOVS     r0,#0xe
        0x00018618:    f001f99a    ....    BL       am_hal_gpio_pinconfig ; 0x19950
        0x0001861c:    6839        9h      LDR      r1,[r7,#0]
        0x0001861e:    2040        @       MOVS     r0,#0x40
        0x00018620:    f001f996    ....    BL       am_hal_gpio_pinconfig ; 0x19950
        0x00018624:    f2400450    @.P.    MOVW     r4,#0x50
        0x00018628:    f2400938    @.8.    MOVW     r9,#0x38
        0x0001862c:    f2400734    @.4.    MOVW     r7,#0x34
        0x00018630:    f2400230    @.0.    MOVW     r2,#0x30
        0x00018634:    f04f0848    O.H.    MOV      r8,#0x48
        0x00018638:    f2c10400    ....    MOVT     r4,#0x1000
        0x0001863c:    2543        C%      MOVS     r5,#0x43
        0x0001863e:    f2c10900    ....    MOVT     r9,#0x1000
        0x00018642:    2642        B&      MOVS     r6,#0x42
        0x00018644:    f2c10700    ....    MOVT     r7,#0x1000
        0x00018648:    2041        A       MOVS     r0,#0x41
        0x0001864a:    f2c10200    ....    MOVT     r2,#0x1000
        0x0001864e:    f000bda4    ....    B.W      0x1919a ; am_bsp_mspi_pins_enable + 3066
        0x00018652:    bf00        ..      NOP      
        0x00018654:    2913        .)      CMP      r1,#0x13
        0x00018656:    f2008099    ....    BHI.W    0x1878c ; am_bsp_mspi_pins_enable + 492
        0x0001865a:    f24004b0    @...    MOVW     r4,#0xb0
        0x0001865e:    f2400990    @...    MOVW     r9,#0x90
        0x00018662:    f240078c    @...    MOVW     r7,#0x8c
        0x00018666:    f2400284    @...    MOVW     r2,#0x84
        0x0001866a:    f04f0852    O.R.    MOV      r8,#0x52
        0x0001866e:    f2c10400    ....    MOVT     r4,#0x1000
        0x00018672:    254b        K%      MOVS     r5,#0x4b
        0x00018674:    f2c10900    ....    MOVT     r9,#0x1000
        0x00018678:    264a        J&      MOVS     r6,#0x4a
        0x0001867a:    f2c10700    ....    MOVT     r7,#0x1000
        0x0001867e:    205d        ]       MOVS     r0,#0x5d
        0x00018680:    f2c10200    ....    MOVT     r2,#0x1000
        0x00018684:    e8dff011    ....    TBH      [pc,r1,LSL #1]
    $d.30
        0x00018688:    00f20589    ....    DCD    15861129
        0x0001868c:    00820082    ....    DCD    8519810
        0x00018690:    00860014    ....    DCD    8781844
        0x00018694:    0146010a    ..F.    DCD    21365002
        0x00018698:    01ca0186    ....    DCD    30015878
        0x0001869c:    00820082    ....    DCD    8519810
        0x000186a0:    00820082    ....    DCD    8519810
        0x000186a4:    00820082    ....    DCD    8519810
        0x000186a8:    00860014    ....    DCD    8781844
        0x000186ac:    00860014    ....    DCD    8781844
    $t.31
        0x000186b0:    6811        .h      LDR      r1,[r2,#0]
        0x000186b2:    205d        ]       MOVS     r0,#0x5d
        0x000186b4:    f001f94c    ..L.    BL       am_hal_gpio_pinconfig ; 0x19950
        0x000186b8:    6839        9h      LDR      r1,[r7,#0]
        0x000186ba:    204a        J       MOVS     r0,#0x4a
        0x000186bc:    f001f948    ..H.    BL       am_hal_gpio_pinconfig ; 0x19950
        0x000186c0:    f24004b0    @...    MOVW     r4,#0xb0
        0x000186c4:    f2400998    @...    MOVW     r9,#0x98
        0x000186c8:    f2400794    @...    MOVW     r7,#0x94
        0x000186cc:    f2400290    @...    MOVW     r2,#0x90
        0x000186d0:    f04f0852    O.R.    MOV      r8,#0x52
        0x000186d4:    f2c10400    ....    MOVT     r4,#0x1000
        0x000186d8:    254d        M%      MOVS     r5,#0x4d
        0x000186da:    f2c10900    ....    MOVT     r9,#0x1000
        0x000186de:    264c        L&      MOVS     r6,#0x4c
        0x000186e0:    f2c10700    ....    MOVT     r7,#0x1000
        0x000186e4:    204b        K       MOVS     r0,#0x4b
        0x000186e6:    f2c10200    ....    MOVT     r2,#0x1000
        0x000186ea:    f000bd56    ..V.    B.W      0x1919a ; am_bsp_mspi_pins_enable + 3066
        0x000186ee:    bf00        ..      NOP      
        0x000186f0:    2913        .)      CMP      r1,#0x13
        0x000186f2:    d84b        K.      BHI      0x1878c ; am_bsp_mspi_pins_enable + 492
        0x000186f4:    f2400480    @...    MOVW     r4,#0x80
        0x000186f8:    f2400960    @.`.    MOVW     r9,#0x60
        0x000186fc:    f240075c    @.\.    MOVW     r7,#0x5c
        0x00018700:    f2400254    @.T.    MOVW     r2,#0x54
        0x00018704:    f04f082d    O.-.    MOV      r8,#0x2d
        0x00018708:    f2c10400    ....    MOVT     r4,#0x1000
        0x0001870c:    2526        &%      MOVS     r5,#0x26
        0x0001870e:    f2c10900    ....    MOVT     r9,#0x1000
        0x00018712:    2625        %&      MOVS     r6,#0x25
        0x00018714:    f2c10700    ....    MOVT     r7,#0x1000
        0x00018718:    2056        V       MOVS     r0,#0x56
        0x0001871a:    f2c10200    ....    MOVT     r2,#0x1000
        0x0001871e:    e8dff011    ....    TBH      [pc,r1,LSL #1]
    $d.32
        0x00018722:    053c        <.      DCW    1340
        0x00018724:    003501c5    ..5.    DCD    3473861
        0x00018728:    00150035    5...    DCD    1376309
        0x0001872c:    01db005d    ]...    DCD    31129693
        0x00018730:    02570217    ..W.    DCD    39256599
        0x00018734:    0035029b    ..5.    DCD    3474075
        0x00018738:    00350035    5.5.    DCD    3473461
        0x0001873c:    00350035    5.5.    DCD    3473461
        0x00018740:    00150035    5...    DCD    1376309
        0x00018744:    0015005d    ]...    DCD    1376349
        0x00018748:    bf00005d    ]...    DCD    3204448349
    $t.33
        0x0001874c:    6811        .h      LDR      r1,[r2,#0]
        0x0001874e:    2056        V       MOVS     r0,#0x56
        0x00018750:    f001f8fe    ....    BL       am_hal_gpio_pinconfig ; 0x19950
        0x00018754:    6839        9h      LDR      r1,[r7,#0]
        0x00018756:    2025        %       MOVS     r0,#0x25
        0x00018758:    f001f8fa    ....    BL       am_hal_gpio_pinconfig ; 0x19950
        0x0001875c:    f2400480    @...    MOVW     r4,#0x80
        0x00018760:    f2400968    @.h.    MOVW     r9,#0x68
        0x00018764:    f2400764    @.d.    MOVW     r7,#0x64
        0x00018768:    f2400260    @.`.    MOVW     r2,#0x60
        0x0001876c:    f04f082d    O.-.    MOV      r8,#0x2d
        0x00018770:    f2c10400    ....    MOVT     r4,#0x1000
        0x00018774:    2528        (%      MOVS     r5,#0x28
        0x00018776:    f2c10900    ....    MOVT     r9,#0x1000
        0x0001877a:    2627        '&      MOVS     r6,#0x27
        0x0001877c:    f2c10700    ....    MOVT     r7,#0x1000
        0x00018780:    2026        &       MOVS     r0,#0x26
        0x00018782:    f2c10200    ....    MOVT     r2,#0x1000
        0x00018786:    f000bd08    ....    B.W      0x1919a ; am_bsp_mspi_pins_enable + 3066
        0x0001878a:    bf00        ..      NOP      
        0x0001878c:    b001        ..      ADD      sp,sp,#4
        0x0001878e:    e8bd83f0    ....    POP      {r4-r9,pc}
        0x00018792:    bf00        ..      NOP      
        0x00018794:    f2400088    @...    MOVW     r0,#0x88
        0x00018798:    f2c10000    ....    MOVT     r0,#0x1000
        0x0001879c:    6801        .h      LDR      r1,[r0,#0]
        0x0001879e:    205b        [       MOVS     r0,#0x5b
        0x000187a0:    f001f8d6    ....    BL       am_hal_gpio_pinconfig ; 0x19950
        0x000187a4:    6839        9h      LDR      r1,[r7,#0]
        0x000187a6:    204a        J       MOVS     r0,#0x4a
        0x000187a8:    f001f8d2    ....    BL       am_hal_gpio_pinconfig ; 0x19950
        0x000187ac:    f24004b0    @...    MOVW     r4,#0xb0
        0x000187b0:    f2400998    @...    MOVW     r9,#0x98
        0x000187b4:    f2400794    @...    MOVW     r7,#0x94
        0x000187b8:    f2400290    @...    MOVW     r2,#0x90
        0x000187bc:    f04f0852    O.R.    MOV      r8,#0x52
        0x000187c0:    f2c10400    ....    MOVT     r4,#0x1000
        0x000187c4:    254d        M%      MOVS     r5,#0x4d
        0x000187c6:    f2c10900    ....    MOVT     r9,#0x1000
        0x000187ca:    264c        L&      MOVS     r6,#0x4c
        0x000187cc:    f2c10700    ....    MOVT     r7,#0x1000
        0x000187d0:    204b        K       MOVS     r0,#0x4b
        0x000187d2:    f2c10200    ....    MOVT     r2,#0x1000
        0x000187d6:    f000bce0    ....    B.W      0x1919a ; am_bsp_mspi_pins_enable + 3066
        0x000187da:    bf00        ..      NOP      
        0x000187dc:    f2400058    @.X.    MOVW     r0,#0x58
        0x000187e0:    f2c10000    ....    MOVT     r0,#0x1000
        0x000187e4:    6801        .h      LDR      r1,[r0,#0]
        0x000187e6:    2055        U       MOVS     r0,#0x55
        0x000187e8:    f001f8b2    ....    BL       am_hal_gpio_pinconfig ; 0x19950
        0x000187ec:    6839        9h      LDR      r1,[r7,#0]
        0x000187ee:    2025        %       MOVS     r0,#0x25
        0x000187f0:    f001f8ae    ....    BL       am_hal_gpio_pinconfig ; 0x19950
        0x000187f4:    f2400480    @...    MOVW     r4,#0x80
        0x000187f8:    f2400968    @.h.    MOVW     r9,#0x68
        0x000187fc:    f2400764    @.d.    MOVW     r7,#0x64
        0x00018800:    f2400260    @.`.    MOVW     r2,#0x60
        0x00018804:    f04f082d    O.-.    MOV      r8,#0x2d
        0x00018808:    f2c10400    ....    MOVT     r4,#0x1000
        0x0001880c:    2528        (%      MOVS     r5,#0x28
        0x0001880e:    f2c10900    ....    MOVT     r9,#0x1000
        0x00018812:    2627        '&      MOVS     r6,#0x27
        0x00018814:    f2c10700    ....    MOVT     r7,#0x1000
        0x00018818:    2026        &       MOVS     r0,#0x26
        0x0001881a:    f2c10200    ....    MOVT     r2,#0x1000
        0x0001881e:    f000bcbc    ....    B.W      0x1919a ; am_bsp_mspi_pins_enable + 3066
        0x00018822:    bf00        ..      NOP      
        0x00018824:    f2400028    @.(.    MOVW     r0,#0x28
        0x00018828:    f2c10000    ....    MOVT     r0,#0x1000
        0x0001882c:    6801        .h      LDR      r1,[r0,#0]
        0x0001882e:    2007        .       MOVS     r0,#7
        0x00018830:    f001f88e    ....    BL       am_hal_gpio_pinconfig ; 0x19950
        0x00018834:    6839        9h      LDR      r1,[r7,#0]
        0x00018836:    2040        @       MOVS     r0,#0x40
        0x00018838:    f001f88a    ....    BL       am_hal_gpio_pinconfig ; 0x19950
        0x0001883c:    f2400450    @.P.    MOVW     r4,#0x50
        0x00018840:    f2400938    @.8.    MOVW     r9,#0x38
        0x00018844:    f2400734    @.4.    MOVW     r7,#0x34
        0x00018848:    f2400230    @.0.    MOVW     r2,#0x30
        0x0001884c:    f04f0848    O.H.    MOV      r8,#0x48
        0x00018850:    f2c10400    ....    MOVT     r4,#0x1000
        0x00018854:    2543        C%      MOVS     r5,#0x43
        0x00018856:    f2c10900    ....    MOVT     r9,#0x1000
        0x0001885a:    2642        B&      MOVS     r6,#0x42
        0x0001885c:    f2c10700    ....    MOVT     r7,#0x1000
        0x00018860:    2041        A       MOVS     r0,#0x41
        0x00018862:    f2c10200    ....    MOVT     r2,#0x1000
        0x00018866:    f000bc98    ....    B.W      0x1919a ; am_bsp_mspi_pins_enable + 3066
        0x0001886a:    bf00        ..      NOP      
        0x0001886c:    f24004b0    @...    MOVW     r4,#0xb0
        0x00018870:    f2400990    @...    MOVW     r9,#0x90
        0x00018874:    f240078c    @...    MOVW     r7,#0x8c
        0x00018878:    f2400288    @...    MOVW     r2,#0x88
        0x0001887c:    f04f0852    O.R.    MOV      r8,#0x52
        0x00018880:    f2c10400    ....    MOVT     r4,#0x1000
        0x00018884:    254b        K%      MOVS     r5,#0x4b
        0x00018886:    f2c10900    ....    MOVT     r9,#0x1000
        0x0001888a:    264a        J&      MOVS     r6,#0x4a
        0x0001888c:    f2c10700    ....    MOVT     r7,#0x1000
        0x00018890:    205b        [       MOVS     r0,#0x5b
        0x00018892:    f2c10200    ....    MOVT     r2,#0x1000
        0x00018896:    f000bc80    ....    B.W      0x1919a ; am_bsp_mspi_pins_enable + 3066
        0x0001889a:    bf00        ..      NOP      
        0x0001889c:    6811        .h      LDR      r1,[r2,#0]
        0x0001889e:    205d        ]       MOVS     r0,#0x5d
        0x000188a0:    f001f856    ..V.    BL       am_hal_gpio_pinconfig ; 0x19950
        0x000188a4:    6839        9h      LDR      r1,[r7,#0]
        0x000188a6:    204a        J       MOVS     r0,#0x4a
        0x000188a8:    f001f852    ..R.    BL       am_hal_gpio_pinconfig ; 0x19950
        0x000188ac:    f8d91000    ....    LDR      r1,[r9,#0]
        0x000188b0:    204b        K       MOVS     r0,#0x4b
        0x000188b2:    f001f84d    ..M.    BL       am_hal_gpio_pinconfig ; 0x19950
        0x000188b6:    f2400094    @...    MOVW     r0,#0x94
        0x000188ba:    f2c10000    ....    MOVT     r0,#0x1000
        0x000188be:    6801        .h      LDR      r1,[r0,#0]
        0x000188c0:    204c        L       MOVS     r0,#0x4c
        0x000188c2:    f001f845    ..E.    BL       am_hal_gpio_pinconfig ; 0x19950
        0x000188c6:    f2400098    @...    MOVW     r0,#0x98
        0x000188ca:    f2c10000    ....    MOVT     r0,#0x1000
        0x000188ce:    6801        .h      LDR      r1,[r0,#0]
        0x000188d0:    204d        M       MOVS     r0,#0x4d
        0x000188d2:    f001f83d    ..=.    BL       am_hal_gpio_pinconfig ; 0x19950
        0x000188d6:    f240009c    @...    MOVW     r0,#0x9c
        0x000188da:    f2c10000    ....    MOVT     r0,#0x1000
        0x000188de:    6801        .h      LDR      r1,[r0,#0]
        0x000188e0:    204e        N       MOVS     r0,#0x4e
        0x000188e2:    f001f835    ..5.    BL       am_hal_gpio_pinconfig ; 0x19950
        0x000188e6:    f24004b0    @...    MOVW     r4,#0xb0
        0x000188ea:    f24009a8    @...    MOVW     r9,#0xa8
        0x000188ee:    f24007a4    @...    MOVW     r7,#0xa4
        0x000188f2:    f24002a0    @...    MOVW     r2,#0xa0
        0x000188f6:    f04f0852    O.R.    MOV      r8,#0x52
        0x000188fa:    f2c10400    ....    MOVT     r4,#0x1000
        0x000188fe:    2551        Q%      MOVS     r5,#0x51
        0x00018900:    f2c10900    ....    MOVT     r9,#0x1000
        0x00018904:    2650        P&      MOVS     r6,#0x50
        0x00018906:    f2c10700    ....    MOVT     r7,#0x1000
        0x0001890a:    204f        O       MOVS     r0,#0x4f
        0x0001890c:    f2c10200    ....    MOVT     r2,#0x1000
        0x00018910:    f000bc43    ..C.    B.W      0x1919a ; am_bsp_mspi_pins_enable + 3066
        0x00018914:    f2400088    @...    MOVW     r0,#0x88
        0x00018918:    f2c10000    ....    MOVT     r0,#0x1000
        0x0001891c:    6801        .h      LDR      r1,[r0,#0]
        0x0001891e:    205b        [       MOVS     r0,#0x5b
        0x00018920:    f001f816    ....    BL       am_hal_gpio_pinconfig ; 0x19950
        0x00018924:    6839        9h      LDR      r1,[r7,#0]
        0x00018926:    204a        J       MOVS     r0,#0x4a
        0x00018928:    f001f812    ....    BL       am_hal_gpio_pinconfig ; 0x19950
        0x0001892c:    f8d91000    ....    LDR      r1,[r9,#0]
        0x00018930:    204b        K       MOVS     r0,#0x4b
        0x00018932:    f001f80d    ....    BL       am_hal_gpio_pinconfig ; 0x19950
        0x00018936:    f2400094    @...    MOVW     r0,#0x94
        0x0001893a:    f2c10000    ....    MOVT     r0,#0x1000
        0x0001893e:    6801        .h      LDR      r1,[r0,#0]
        0x00018940:    204c        L       MOVS     r0,#0x4c
        0x00018942:    f001f805    ....    BL       am_hal_gpio_pinconfig ; 0x19950
        0x00018946:    f2400098    @...    MOVW     r0,#0x98
        0x0001894a:    f2c10000    ....    MOVT     r0,#0x1000
        0x0001894e:    6801        .h      LDR      r1,[r0,#0]
        0x00018950:    204d        M       MOVS     r0,#0x4d
        0x00018952:    f000fffd    ....    BL       am_hal_gpio_pinconfig ; 0x19950
        0x00018956:    f240009c    @...    MOVW     r0,#0x9c
        0x0001895a:    f2c10000    ....    MOVT     r0,#0x1000
        0x0001895e:    6801        .h      LDR      r1,[r0,#0]
        0x00018960:    204e        N       MOVS     r0,#0x4e
        0x00018962:    f000fff5    ....    BL       am_hal_gpio_pinconfig ; 0x19950
        0x00018966:    f24004b0    @...    MOVW     r4,#0xb0
        0x0001896a:    f24009a8    @...    MOVW     r9,#0xa8
        0x0001896e:    f24007a4    @...    MOVW     r7,#0xa4
        0x00018972:    f24002a0    @...    MOVW     r2,#0xa0
        0x00018976:    f04f0852    O.R.    MOV      r8,#0x52
        0x0001897a:    f2c10400    ....    MOVT     r4,#0x1000
        0x0001897e:    2551        Q%      MOVS     r5,#0x51
        0x00018980:    f2c10900    ....    MOVT     r9,#0x1000
        0x00018984:    2650        P&      MOVS     r6,#0x50
        0x00018986:    f2c10700    ....    MOVT     r7,#0x1000
        0x0001898a:    204f        O       MOVS     r0,#0x4f
        0x0001898c:    f2c10200    ....    MOVT     r2,#0x1000
        0x00018990:    f000bc03    ....    B.W      0x1919a ; am_bsp_mspi_pins_enable + 3066
        0x00018994:    6811        .h      LDR      r1,[r2,#0]
        0x00018996:    205d        ]       MOVS     r0,#0x5d
        0x00018998:    f000ffda    ....    BL       am_hal_gpio_pinconfig ; 0x19950
        0x0001899c:    6839        9h      LDR      r1,[r7,#0]
        0x0001899e:    204a        J       MOVS     r0,#0x4a
        0x000189a0:    f000ffd6    ....    BL       am_hal_gpio_pinconfig ; 0x19950
        0x000189a4:    f8d91000    ....    LDR      r1,[r9,#0]
        0x000189a8:    204b        K       MOVS     r0,#0x4b
        0x000189aa:    f000ffd1    ....    BL       am_hal_gpio_pinconfig ; 0x19950
        0x000189ae:    f2400094    @...    MOVW     r0,#0x94
        0x000189b2:    f2c10000    ....    MOVT     r0,#0x1000
        0x000189b6:    6801        .h      LDR      r1,[r0,#0]
        0x000189b8:    204c        L       MOVS     r0,#0x4c
        0x000189ba:    f000ffc9    ....    BL       am_hal_gpio_pinconfig ; 0x19950
        0x000189be:    f2400098    @...    MOVW     r0,#0x98
        0x000189c2:    f2c10000    ....    MOVT     r0,#0x1000
        0x000189c6:    6801        .h      LDR      r1,[r0,#0]
        0x000189c8:    204d        M       MOVS     r0,#0x4d
        0x000189ca:    f000ffc1    ....    BL       am_hal_gpio_pinconfig ; 0x19950
        0x000189ce:    f240009c    @...    MOVW     r0,#0x9c
        0x000189d2:    f2c10000    ....    MOVT     r0,#0x1000
        0x000189d6:    6801        .h      LDR      r1,[r0,#0]
        0x000189d8:    204e        N       MOVS     r0,#0x4e
        0x000189da:    f000ffb9    ....    BL       am_hal_gpio_pinconfig ; 0x19950
        0x000189de:    f24000a0    @...    MOVW     r0,#0xa0
        0x000189e2:    f2c10000    ....    MOVT     r0,#0x1000
        0x000189e6:    6801        .h      LDR      r1,[r0,#0]
        0x000189e8:    204f        O       MOVS     r0,#0x4f
        0x000189ea:    f000ffb1    ....    BL       am_hal_gpio_pinconfig ; 0x19950
        0x000189ee:    f24004ac    @...    MOVW     r4,#0xac
        0x000189f2:    f24009b0    @...    MOVW     r9,#0xb0
        0x000189f6:    f24007a8    @...    MOVW     r7,#0xa8
        0x000189fa:    f24002a4    @...    MOVW     r2,#0xa4
        0x000189fe:    f04f0853    O.S.    MOV      r8,#0x53
        0x00018a02:    f2c10400    ....    MOVT     r4,#0x1000
        0x00018a06:    2552        R%      MOVS     r5,#0x52
        0x00018a08:    f2c10900    ....    MOVT     r9,#0x1000
        0x00018a0c:    2651        Q&      MOVS     r6,#0x51
        0x00018a0e:    f2c10700    ....    MOVT     r7,#0x1000
        0x00018a12:    2050        P       MOVS     r0,#0x50
        0x00018a14:    f2c10200    ....    MOVT     r2,#0x1000
        0x00018a18:    e3bf        ..      B        0x1919a ; am_bsp_mspi_pins_enable + 3066
        0x00018a1a:    bf00        ..      NOP      
        0x00018a1c:    f2400088    @...    MOVW     r0,#0x88
        0x00018a20:    f2c10000    ....    MOVT     r0,#0x1000
        0x00018a24:    6801        .h      LDR      r1,[r0,#0]
        0x00018a26:    205b        [       MOVS     r0,#0x5b
        0x00018a28:    f000ff92    ....    BL       am_hal_gpio_pinconfig ; 0x19950
        0x00018a2c:    6839        9h      LDR      r1,[r7,#0]
        0x00018a2e:    204a        J       MOVS     r0,#0x4a
        0x00018a30:    f000ff8e    ....    BL       am_hal_gpio_pinconfig ; 0x19950
        0x00018a34:    f8d91000    ....    LDR      r1,[r9,#0]
        0x00018a38:    204b        K       MOVS     r0,#0x4b
        0x00018a3a:    f000ff89    ....    BL       am_hal_gpio_pinconfig ; 0x19950
        0x00018a3e:    f2400094    @...    MOVW     r0,#0x94
        0x00018a42:    f2c10000    ....    MOVT     r0,#0x1000
        0x00018a46:    6801        .h      LDR      r1,[r0,#0]
        0x00018a48:    204c        L       MOVS     r0,#0x4c
        0x00018a4a:    f000ff81    ....    BL       am_hal_gpio_pinconfig ; 0x19950
        0x00018a4e:    f2400098    @...    MOVW     r0,#0x98
        0x00018a52:    f2c10000    ....    MOVT     r0,#0x1000
        0x00018a56:    6801        .h      LDR      r1,[r0,#0]
        0x00018a58:    204d        M       MOVS     r0,#0x4d
        0x00018a5a:    f000ff79    ..y.    BL       am_hal_gpio_pinconfig ; 0x19950
        0x00018a5e:    f240009c    @...    MOVW     r0,#0x9c
        0x00018a62:    f2c10000    ....    MOVT     r0,#0x1000
        0x00018a66:    6801        .h      LDR      r1,[r0,#0]
        0x00018a68:    204e        N       MOVS     r0,#0x4e
        0x00018a6a:    f000ff71    ..q.    BL       am_hal_gpio_pinconfig ; 0x19950
        0x00018a6e:    f24000a0    @...    MOVW     r0,#0xa0
        0x00018a72:    f2c10000    ....    MOVT     r0,#0x1000
        0x00018a76:    6801        .h      LDR      r1,[r0,#0]
        0x00018a78:    204f        O       MOVS     r0,#0x4f
        0x00018a7a:    f000ff69    ..i.    BL       am_hal_gpio_pinconfig ; 0x19950
        0x00018a7e:    f24004ac    @...    MOVW     r4,#0xac
        0x00018a82:    f24009b0    @...    MOVW     r9,#0xb0
        0x00018a86:    f24007a8    @...    MOVW     r7,#0xa8
        0x00018a8a:    f24002a4    @...    MOVW     r2,#0xa4
        0x00018a8e:    f04f0853    O.S.    MOV      r8,#0x53
        0x00018a92:    f2c10400    ....    MOVT     r4,#0x1000
        0x00018a96:    2552        R%      MOVS     r5,#0x52
        0x00018a98:    f2c10900    ....    MOVT     r9,#0x1000
        0x00018a9c:    2651        Q&      MOVS     r6,#0x51
        0x00018a9e:    f2c10700    ....    MOVT     r7,#0x1000
        0x00018aa2:    2050        P       MOVS     r0,#0x50
        0x00018aa4:    f2c10200    ....    MOVT     r2,#0x1000
        0x00018aa8:    e377        w.      B        0x1919a ; am_bsp_mspi_pins_enable + 3066
        0x00018aaa:    bf00        ..      NOP      
        0x00018aac:    f2400480    @...    MOVW     r4,#0x80
        0x00018ab0:    f2400960    @.`.    MOVW     r9,#0x60
        0x00018ab4:    f240075c    @.\.    MOVW     r7,#0x5c
        0x00018ab8:    f2400258    @.X.    MOVW     r2,#0x58
        0x00018abc:    f04f082d    O.-.    MOV      r8,#0x2d
        0x00018ac0:    f2c10400    ....    MOVT     r4,#0x1000
        0x00018ac4:    2526        &%      MOVS     r5,#0x26
        0x00018ac6:    f2c10900    ....    MOVT     r9,#0x1000
        0x00018aca:    2625        %&      MOVS     r6,#0x25
        0x00018acc:    f2c10700    ....    MOVT     r7,#0x1000
        0x00018ad0:    2055        U       MOVS     r0,#0x55
        0x00018ad2:    f2c10200    ....    MOVT     r2,#0x1000
        0x00018ad6:    e360        `.      B        0x1919a ; am_bsp_mspi_pins_enable + 3066
        0x00018ad8:    6811        .h      LDR      r1,[r2,#0]
        0x00018ada:    2056        V       MOVS     r0,#0x56
        0x00018adc:    f000ff38    ..8.    BL       am_hal_gpio_pinconfig ; 0x19950
        0x00018ae0:    6839        9h      LDR      r1,[r7,#0]
        0x00018ae2:    2025        %       MOVS     r0,#0x25
        0x00018ae4:    f000ff34    ..4.    BL       am_hal_gpio_pinconfig ; 0x19950
        0x00018ae8:    f8d91000    ....    LDR      r1,[r9,#0]
        0x00018aec:    2026        &       MOVS     r0,#0x26
        0x00018aee:    f000ff2f    ../.    BL       am_hal_gpio_pinconfig ; 0x19950
        0x00018af2:    f2400064    @.d.    MOVW     r0,#0x64
        0x00018af6:    f2c10000    ....    MOVT     r0,#0x1000
        0x00018afa:    6801        .h      LDR      r1,[r0,#0]
        0x00018afc:    2027        '       MOVS     r0,#0x27
        0x00018afe:    f000ff27    ..'.    BL       am_hal_gpio_pinconfig ; 0x19950
        0x00018b02:    f2400068    @.h.    MOVW     r0,#0x68
        0x00018b06:    f2c10000    ....    MOVT     r0,#0x1000
        0x00018b0a:    6801        .h      LDR      r1,[r0,#0]
        0x00018b0c:    2028        (       MOVS     r0,#0x28
        0x00018b0e:    f000ff1f    ....    BL       am_hal_gpio_pinconfig ; 0x19950
        0x00018b12:    f240006c    @.l.    MOVW     r0,#0x6c
        0x00018b16:    f2c10000    ....    MOVT     r0,#0x1000
        0x00018b1a:    6801        .h      LDR      r1,[r0,#0]
        0x00018b1c:    2029        )       MOVS     r0,#0x29
        0x00018b1e:    f000ff17    ....    BL       am_hal_gpio_pinconfig ; 0x19950
        0x00018b22:    f2400480    @...    MOVW     r4,#0x80
        0x00018b26:    f2400978    @.x.    MOVW     r9,#0x78
        0x00018b2a:    f2400774    @.t.    MOVW     r7,#0x74
        0x00018b2e:    f2400270    @.p.    MOVW     r2,#0x70
        0x00018b32:    f04f082d    O.-.    MOV      r8,#0x2d
        0x00018b36:    f2c10400    ....    MOVT     r4,#0x1000
        0x00018b3a:    252c        ,%      MOVS     r5,#0x2c
        0x00018b3c:    f2c10900    ....    MOVT     r9,#0x1000
        0x00018b40:    262b        +&      MOVS     r6,#0x2b
        0x00018b42:    f2c10700    ....    MOVT     r7,#0x1000
        0x00018b46:    202a        *       MOVS     r0,#0x2a
        0x00018b48:    f2c10200    ....    MOVT     r2,#0x1000
        0x00018b4c:    e325        %.      B        0x1919a ; am_bsp_mspi_pins_enable + 3066
        0x00018b4e:    bf00        ..      NOP      
        0x00018b50:    f2400058    @.X.    MOVW     r0,#0x58
        0x00018b54:    f2c10000    ....    MOVT     r0,#0x1000
        0x00018b58:    6801        .h      LDR      r1,[r0,#0]
        0x00018b5a:    2055        U       MOVS     r0,#0x55
        0x00018b5c:    f000fef8    ....    BL       am_hal_gpio_pinconfig ; 0x19950
        0x00018b60:    6839        9h      LDR      r1,[r7,#0]
        0x00018b62:    2025        %       MOVS     r0,#0x25
        0x00018b64:    f000fef4    ....    BL       am_hal_gpio_pinconfig ; 0x19950
        0x00018b68:    f8d91000    ....    LDR      r1,[r9,#0]
        0x00018b6c:    2026        &       MOVS     r0,#0x26
        0x00018b6e:    f000feef    ....    BL       am_hal_gpio_pinconfig ; 0x19950
        0x00018b72:    f2400064    @.d.    MOVW     r0,#0x64
        0x00018b76:    f2c10000    ....    MOVT     r0,#0x1000
        0x00018b7a:    6801        .h      LDR      r1,[r0,#0]
        0x00018b7c:    2027        '       MOVS     r0,#0x27
        0x00018b7e:    f000fee7    ....    BL       am_hal_gpio_pinconfig ; 0x19950
        0x00018b82:    f2400068    @.h.    MOVW     r0,#0x68
        0x00018b86:    f2c10000    ....    MOVT     r0,#0x1000
        0x00018b8a:    6801        .h      LDR      r1,[r0,#0]
        0x00018b8c:    2028        (       MOVS     r0,#0x28
        0x00018b8e:    f000fedf    ....    BL       am_hal_gpio_pinconfig ; 0x19950
        0x00018b92:    f240006c    @.l.    MOVW     r0,#0x6c
        0x00018b96:    f2c10000    ....    MOVT     r0,#0x1000
        0x00018b9a:    6801        .h      LDR      r1,[r0,#0]
        0x00018b9c:    2029        )       MOVS     r0,#0x29
        0x00018b9e:    f000fed7    ....    BL       am_hal_gpio_pinconfig ; 0x19950
        0x00018ba2:    f2400480    @...    MOVW     r4,#0x80
        0x00018ba6:    f2400978    @.x.    MOVW     r9,#0x78
        0x00018baa:    f2400774    @.t.    MOVW     r7,#0x74
        0x00018bae:    f2400270    @.p.    MOVW     r2,#0x70
        0x00018bb2:    f04f082d    O.-.    MOV      r8,#0x2d
        0x00018bb6:    f2c10400    ....    MOVT     r4,#0x1000
        0x00018bba:    252c        ,%      MOVS     r5,#0x2c
        0x00018bbc:    f2c10900    ....    MOVT     r9,#0x1000
        0x00018bc0:    262b        +&      MOVS     r6,#0x2b
        0x00018bc2:    f2c10700    ....    MOVT     r7,#0x1000
        0x00018bc6:    202a        *       MOVS     r0,#0x2a
        0x00018bc8:    f2c10200    ....    MOVT     r2,#0x1000
        0x00018bcc:    e2e5        ..      B        0x1919a ; am_bsp_mspi_pins_enable + 3066
        0x00018bce:    bf00        ..      NOP      
        0x00018bd0:    6811        .h      LDR      r1,[r2,#0]
        0x00018bd2:    2056        V       MOVS     r0,#0x56
        0x00018bd4:    f000febc    ....    BL       am_hal_gpio_pinconfig ; 0x19950
        0x00018bd8:    6839        9h      LDR      r1,[r7,#0]
        0x00018bda:    2025        %       MOVS     r0,#0x25
        0x00018bdc:    f000feb8    ....    BL       am_hal_gpio_pinconfig ; 0x19950
        0x00018be0:    f8d91000    ....    LDR      r1,[r9,#0]
        0x00018be4:    2026        &       MOVS     r0,#0x26
        0x00018be6:    f000feb3    ....    BL       am_hal_gpio_pinconfig ; 0x19950
        0x00018bea:    f2400064    @.d.    MOVW     r0,#0x64
        0x00018bee:    f2c10000    ....    MOVT     r0,#0x1000
        0x00018bf2:    6801        .h      LDR      r1,[r0,#0]
        0x00018bf4:    2027        '       MOVS     r0,#0x27
        0x00018bf6:    f000feab    ....    BL       am_hal_gpio_pinconfig ; 0x19950
        0x00018bfa:    f2400068    @.h.    MOVW     r0,#0x68
        0x00018bfe:    f2c10000    ....    MOVT     r0,#0x1000
        0x00018c02:    6801        .h      LDR      r1,[r0,#0]
        0x00018c04:    2028        (       MOVS     r0,#0x28
        0x00018c06:    f000fea3    ....    BL       am_hal_gpio_pinconfig ; 0x19950
        0x00018c0a:    f240006c    @.l.    MOVW     r0,#0x6c
        0x00018c0e:    f2c10000    ....    MOVT     r0,#0x1000
        0x00018c12:    6801        .h      LDR      r1,[r0,#0]
        0x00018c14:    2029        )       MOVS     r0,#0x29
        0x00018c16:    f000fe9b    ....    BL       am_hal_gpio_pinconfig ; 0x19950
        0x00018c1a:    f2400070    @.p.    MOVW     r0,#0x70
        0x00018c1e:    f2c10000    ....    MOVT     r0,#0x1000
        0x00018c22:    6801        .h      LDR      r1,[r0,#0]
        0x00018c24:    202a        *       MOVS     r0,#0x2a
        0x00018c26:    f000fe93    ....    BL       am_hal_gpio_pinconfig ; 0x19950
        0x00018c2a:    f240047c    @.|.    MOVW     r4,#0x7c
        0x00018c2e:    f2400980    @...    MOVW     r9,#0x80
        0x00018c32:    f2400778    @.x.    MOVW     r7,#0x78
        0x00018c36:    f2400274    @.t.    MOVW     r2,#0x74
        0x00018c3a:    f04f0868    O.h.    MOV      r8,#0x68
        0x00018c3e:    f2c10400    ....    MOVT     r4,#0x1000
        0x00018c42:    252d        -%      MOVS     r5,#0x2d
        0x00018c44:    f2c10900    ....    MOVT     r9,#0x1000
        0x00018c48:    262c        ,&      MOVS     r6,#0x2c
        0x00018c4a:    f2c10700    ....    MOVT     r7,#0x1000
        0x00018c4e:    202b        +       MOVS     r0,#0x2b
        0x00018c50:    f2c10200    ....    MOVT     r2,#0x1000
        0x00018c54:    e2a1        ..      B        0x1919a ; am_bsp_mspi_pins_enable + 3066
        0x00018c56:    bf00        ..      NOP      
        0x00018c58:    f2400058    @.X.    MOVW     r0,#0x58
        0x00018c5c:    f2c10000    ....    MOVT     r0,#0x1000
        0x00018c60:    6801        .h      LDR      r1,[r0,#0]
        0x00018c62:    2055        U       MOVS     r0,#0x55
        0x00018c64:    f000fe74    ..t.    BL       am_hal_gpio_pinconfig ; 0x19950
        0x00018c68:    6839        9h      LDR      r1,[r7,#0]
        0x00018c6a:    2025        %       MOVS     r0,#0x25
        0x00018c6c:    f000fe70    ..p.    BL       am_hal_gpio_pinconfig ; 0x19950
        0x00018c70:    f8d91000    ....    LDR      r1,[r9,#0]
        0x00018c74:    2026        &       MOVS     r0,#0x26
        0x00018c76:    f000fe6b    ..k.    BL       am_hal_gpio_pinconfig ; 0x19950
        0x00018c7a:    f2400064    @.d.    MOVW     r0,#0x64
        0x00018c7e:    f2c10000    ....    MOVT     r0,#0x1000
        0x00018c82:    6801        .h      LDR      r1,[r0,#0]
        0x00018c84:    2027        '       MOVS     r0,#0x27
        0x00018c86:    f000fe63    ..c.    BL       am_hal_gpio_pinconfig ; 0x19950
        0x00018c8a:    f2400068    @.h.    MOVW     r0,#0x68
        0x00018c8e:    f2c10000    ....    MOVT     r0,#0x1000
        0x00018c92:    6801        .h      LDR      r1,[r0,#0]
        0x00018c94:    2028        (       MOVS     r0,#0x28
        0x00018c96:    f000fe5b    ..[.    BL       am_hal_gpio_pinconfig ; 0x19950
        0x00018c9a:    f240006c    @.l.    MOVW     r0,#0x6c
        0x00018c9e:    f2c10000    ....    MOVT     r0,#0x1000
        0x00018ca2:    6801        .h      LDR      r1,[r0,#0]
        0x00018ca4:    2029        )       MOVS     r0,#0x29
        0x00018ca6:    f000fe53    ..S.    BL       am_hal_gpio_pinconfig ; 0x19950
        0x00018caa:    f2400070    @.p.    MOVW     r0,#0x70
        0x00018cae:    f2c10000    ....    MOVT     r0,#0x1000
        0x00018cb2:    6801        .h      LDR      r1,[r0,#0]
        0x00018cb4:    202a        *       MOVS     r0,#0x2a
        0x00018cb6:    f000fe4b    ..K.    BL       am_hal_gpio_pinconfig ; 0x19950
        0x00018cba:    f240047c    @.|.    MOVW     r4,#0x7c
        0x00018cbe:    f2400980    @...    MOVW     r9,#0x80
        0x00018cc2:    f2400778    @.x.    MOVW     r7,#0x78
        0x00018cc6:    f2400274    @.t.    MOVW     r2,#0x74
        0x00018cca:    f04f0868    O.h.    MOV      r8,#0x68
        0x00018cce:    f2c10400    ....    MOVT     r4,#0x1000
        0x00018cd2:    252d        -%      MOVS     r5,#0x2d
        0x00018cd4:    f2c10900    ....    MOVT     r9,#0x1000
        0x00018cd8:    262c        ,&      MOVS     r6,#0x2c
        0x00018cda:    f2c10700    ....    MOVT     r7,#0x1000
        0x00018cde:    202b        +       MOVS     r0,#0x2b
        0x00018ce0:    f2c10200    ....    MOVT     r2,#0x1000
        0x00018ce4:    e259        Y.      B        0x1919a ; am_bsp_mspi_pins_enable + 3066
        0x00018ce6:    bf00        ..      NOP      
        0x00018ce8:    f2400450    @.P.    MOVW     r4,#0x50
        0x00018cec:    f2400930    @.0.    MOVW     r9,#0x30
        0x00018cf0:    f240072c    @.,.    MOVW     r7,#0x2c
        0x00018cf4:    f2400228    @.(.    MOVW     r2,#0x28
        0x00018cf8:    f04f0848    O.H.    MOV      r8,#0x48
        0x00018cfc:    f2c10400    ....    MOVT     r4,#0x1000
        0x00018d00:    2541        A%      MOVS     r5,#0x41
        0x00018d02:    f2c10900    ....    MOVT     r9,#0x1000
        0x00018d06:    2640        @&      MOVS     r6,#0x40
        0x00018d08:    f2c10700    ....    MOVT     r7,#0x1000
        0x00018d0c:    2007        .       MOVS     r0,#7
        0x00018d0e:    f2c10200    ....    MOVT     r2,#0x1000
        0x00018d12:    e242        B.      B        0x1919a ; am_bsp_mspi_pins_enable + 3066
        0x00018d14:    6811        .h      LDR      r1,[r2,#0]
        0x00018d16:    200e        .       MOVS     r0,#0xe
        0x00018d18:    f000fe1a    ....    BL       am_hal_gpio_pinconfig ; 0x19950
        0x00018d1c:    6839        9h      LDR      r1,[r7,#0]
        0x00018d1e:    2040        @       MOVS     r0,#0x40
        0x00018d20:    f000fe16    ....    BL       am_hal_gpio_pinconfig ; 0x19950
        0x00018d24:    f8d91000    ....    LDR      r1,[r9,#0]
        0x00018d28:    2041        A       MOVS     r0,#0x41
        0x00018d2a:    f000fe11    ....    BL       am_hal_gpio_pinconfig ; 0x19950
        0x00018d2e:    f2400034    @.4.    MOVW     r0,#0x34
        0x00018d32:    f2c10000    ....    MOVT     r0,#0x1000
        0x00018d36:    6801        .h      LDR      r1,[r0,#0]
        0x00018d38:    2042        B       MOVS     r0,#0x42
        0x00018d3a:    f000fe09    ....    BL       am_hal_gpio_pinconfig ; 0x19950
        0x00018d3e:    f2400038    @.8.    MOVW     r0,#0x38
        0x00018d42:    f2c10000    ....    MOVT     r0,#0x1000
        0x00018d46:    6801        .h      LDR      r1,[r0,#0]
        0x00018d48:    2043        C       MOVS     r0,#0x43
        0x00018d4a:    f000fe01    ....    BL       am_hal_gpio_pinconfig ; 0x19950
        0x00018d4e:    f240003c    @.<.    MOVW     r0,#0x3c
        0x00018d52:    f2c10000    ....    MOVT     r0,#0x1000
        0x00018d56:    6801        .h      LDR      r1,[r0,#0]
        0x00018d58:    2044        D       MOVS     r0,#0x44
        0x00018d5a:    f000fdf9    ....    BL       am_hal_gpio_pinconfig ; 0x19950
        0x00018d5e:    f2400040    @.@.    MOVW     r0,#0x40
        0x00018d62:    f2c10000    ....    MOVT     r0,#0x1000
        0x00018d66:    6801        .h      LDR      r1,[r0,#0]
        0x00018d68:    2045        E       MOVS     r0,#0x45
        0x00018d6a:    f000fdf1    ....    BL       am_hal_gpio_pinconfig ; 0x19950
        0x00018d6e:    f240044c    @.L.    MOVW     r4,#0x4c
        0x00018d72:    f2400950    @.P.    MOVW     r9,#0x50
        0x00018d76:    f2400748    @.H.    MOVW     r7,#0x48
        0x00018d7a:    f2400244    @.D.    MOVW     r2,#0x44
        0x00018d7e:    f04f0849    O.I.    MOV      r8,#0x49
        0x00018d82:    f2c10400    ....    MOVT     r4,#0x1000
        0x00018d86:    2548        H%      MOVS     r5,#0x48
        0x00018d88:    f2c10900    ....    MOVT     r9,#0x1000
        0x00018d8c:    2647        G&      MOVS     r6,#0x47
        0x00018d8e:    f2c10700    ....    MOVT     r7,#0x1000
        0x00018d92:    2046        F       MOVS     r0,#0x46
        0x00018d94:    f2c10200    ....    MOVT     r2,#0x1000
        0x00018d98:    e1ff        ..      B        0x1919a ; am_bsp_mspi_pins_enable + 3066
        0x00018d9a:    bf00        ..      NOP      
        0x00018d9c:    f2400028    @.(.    MOVW     r0,#0x28
        0x00018da0:    f2c10000    ....    MOVT     r0,#0x1000
        0x00018da4:    6801        .h      LDR      r1,[r0,#0]
        0x00018da6:    2007        .       MOVS     r0,#7
        0x00018da8:    f000fdd2    ....    BL       am_hal_gpio_pinconfig ; 0x19950
        0x00018dac:    6839        9h      LDR      r1,[r7,#0]
        0x00018dae:    2040        @       MOVS     r0,#0x40
        0x00018db0:    f000fdce    ....    BL       am_hal_gpio_pinconfig ; 0x19950
        0x00018db4:    f8d91000    ....    LDR      r1,[r9,#0]
        0x00018db8:    2041        A       MOVS     r0,#0x41
        0x00018dba:    f000fdc9    ....    BL       am_hal_gpio_pinconfig ; 0x19950
        0x00018dbe:    f2400034    @.4.    MOVW     r0,#0x34
        0x00018dc2:    f2c10000    ....    MOVT     r0,#0x1000
        0x00018dc6:    6801        .h      LDR      r1,[r0,#0]
        0x00018dc8:    2042        B       MOVS     r0,#0x42
        0x00018dca:    f000fdc1    ....    BL       am_hal_gpio_pinconfig ; 0x19950
        0x00018dce:    f2400038    @.8.    MOVW     r0,#0x38
        0x00018dd2:    f2c10000    ....    MOVT     r0,#0x1000
        0x00018dd6:    6801        .h      LDR      r1,[r0,#0]
        0x00018dd8:    2043        C       MOVS     r0,#0x43
        0x00018dda:    f000fdb9    ....    BL       am_hal_gpio_pinconfig ; 0x19950
        0x00018dde:    f240003c    @.<.    MOVW     r0,#0x3c
        0x00018de2:    f2c10000    ....    MOVT     r0,#0x1000
        0x00018de6:    6801        .h      LDR      r1,[r0,#0]
        0x00018de8:    2044        D       MOVS     r0,#0x44
        0x00018dea:    f000fdb1    ....    BL       am_hal_gpio_pinconfig ; 0x19950
        0x00018dee:    f2400040    @.@.    MOVW     r0,#0x40
        0x00018df2:    f2c10000    ....    MOVT     r0,#0x1000
        0x00018df6:    6801        .h      LDR      r1,[r0,#0]
        0x00018df8:    2045        E       MOVS     r0,#0x45
        0x00018dfa:    f000fda9    ....    BL       am_hal_gpio_pinconfig ; 0x19950
        0x00018dfe:    f240044c    @.L.    MOVW     r4,#0x4c
        0x00018e02:    f2400950    @.P.    MOVW     r9,#0x50
        0x00018e06:    f2400748    @.H.    MOVW     r7,#0x48
        0x00018e0a:    f2400244    @.D.    MOVW     r2,#0x44
        0x00018e0e:    f04f0849    O.I.    MOV      r8,#0x49
        0x00018e12:    f2c10400    ....    MOVT     r4,#0x1000
        0x00018e16:    2548        H%      MOVS     r5,#0x48
        0x00018e18:    f2c10900    ....    MOVT     r9,#0x1000
        0x00018e1c:    2647        G&      MOVS     r6,#0x47
        0x00018e1e:    f2c10700    ....    MOVT     r7,#0x1000
        0x00018e22:    2046        F       MOVS     r0,#0x46
        0x00018e24:    f2c10200    ....    MOVT     r2,#0x1000
        0x00018e28:    e1b7        ..      B        0x1919a ; am_bsp_mspi_pins_enable + 3066
        0x00018e2a:    bf00        ..      NOP      
        0x00018e2c:    6811        .h      LDR      r1,[r2,#0]
        0x00018e2e:    200e        .       MOVS     r0,#0xe
        0x00018e30:    f000fd8e    ....    BL       am_hal_gpio_pinconfig ; 0x19950
        0x00018e34:    6839        9h      LDR      r1,[r7,#0]
        0x00018e36:    2040        @       MOVS     r0,#0x40
        0x00018e38:    f000fd8a    ....    BL       am_hal_gpio_pinconfig ; 0x19950
        0x00018e3c:    f8d91000    ....    LDR      r1,[r9,#0]
        0x00018e40:    2041        A       MOVS     r0,#0x41
        0x00018e42:    f000fd85    ....    BL       am_hal_gpio_pinconfig ; 0x19950
        0x00018e46:    f2400034    @.4.    MOVW     r0,#0x34
        0x00018e4a:    f2c10000    ....    MOVT     r0,#0x1000
        0x00018e4e:    6801        .h      LDR      r1,[r0,#0]
        0x00018e50:    2042        B       MOVS     r0,#0x42
        0x00018e52:    f000fd7d    ..}.    BL       am_hal_gpio_pinconfig ; 0x19950
        0x00018e56:    f2400038    @.8.    MOVW     r0,#0x38
        0x00018e5a:    f2c10000    ....    MOVT     r0,#0x1000
        0x00018e5e:    6801        .h      LDR      r1,[r0,#0]
        0x00018e60:    2043        C       MOVS     r0,#0x43
        0x00018e62:    f000fd75    ..u.    BL       am_hal_gpio_pinconfig ; 0x19950
        0x00018e66:    f240003c    @.<.    MOVW     r0,#0x3c
        0x00018e6a:    f2c10000    ....    MOVT     r0,#0x1000
        0x00018e6e:    6801        .h      LDR      r1,[r0,#0]
        0x00018e70:    2044        D       MOVS     r0,#0x44
        0x00018e72:    f000fd6d    ..m.    BL       am_hal_gpio_pinconfig ; 0x19950
        0x00018e76:    f2400040    @.@.    MOVW     r0,#0x40
        0x00018e7a:    f2c10000    ....    MOVT     r0,#0x1000
        0x00018e7e:    6801        .h      LDR      r1,[r0,#0]
        0x00018e80:    2045        E       MOVS     r0,#0x45
        0x00018e82:    f000fd65    ..e.    BL       am_hal_gpio_pinconfig ; 0x19950
        0x00018e86:    f240044c    @.L.    MOVW     r4,#0x4c
        0x00018e8a:    f2400950    @.P.    MOVW     r9,#0x50
        0x00018e8e:    f2400748    @.H.    MOVW     r7,#0x48
        0x00018e92:    f2400244    @.D.    MOVW     r2,#0x44
        0x00018e96:    f04f0849    O.I.    MOV      r8,#0x49
        0x00018e9a:    f2c10400    ....    MOVT     r4,#0x1000
        0x00018e9e:    2548        H%      MOVS     r5,#0x48
        0x00018ea0:    f2c10900    ....    MOVT     r9,#0x1000
        0x00018ea4:    2647        G&      MOVS     r6,#0x47
        0x00018ea6:    f2c10700    ....    MOVT     r7,#0x1000
        0x00018eaa:    2046        F       MOVS     r0,#0x46
        0x00018eac:    f2c10200    ....    MOVT     r2,#0x1000
        0x00018eb0:    e173        s.      B        0x1919a ; am_bsp_mspi_pins_enable + 3066
        0x00018eb2:    bf00        ..      NOP      
        0x00018eb4:    f2400028    @.(.    MOVW     r0,#0x28
        0x00018eb8:    f2c10000    ....    MOVT     r0,#0x1000
        0x00018ebc:    6801        .h      LDR      r1,[r0,#0]
        0x00018ebe:    2007        .       MOVS     r0,#7
        0x00018ec0:    f000fd46    ..F.    BL       am_hal_gpio_pinconfig ; 0x19950
        0x00018ec4:    6839        9h      LDR      r1,[r7,#0]
        0x00018ec6:    2040        @       MOVS     r0,#0x40
        0x00018ec8:    f000fd42    ..B.    BL       am_hal_gpio_pinconfig ; 0x19950
        0x00018ecc:    f8d91000    ....    LDR      r1,[r9,#0]
        0x00018ed0:    2041        A       MOVS     r0,#0x41
        0x00018ed2:    f000fd3d    ..=.    BL       am_hal_gpio_pinconfig ; 0x19950
        0x00018ed6:    f2400034    @.4.    MOVW     r0,#0x34
        0x00018eda:    f2c10000    ....    MOVT     r0,#0x1000
        0x00018ede:    6801        .h      LDR      r1,[r0,#0]
        0x00018ee0:    2042        B       MOVS     r0,#0x42
        0x00018ee2:    f000fd35    ..5.    BL       am_hal_gpio_pinconfig ; 0x19950
        0x00018ee6:    f2400038    @.8.    MOVW     r0,#0x38
        0x00018eea:    f2c10000    ....    MOVT     r0,#0x1000
        0x00018eee:    6801        .h      LDR      r1,[r0,#0]
        0x00018ef0:    2043        C       MOVS     r0,#0x43
        0x00018ef2:    f000fd2d    ..-.    BL       am_hal_gpio_pinconfig ; 0x19950
        0x00018ef6:    f240003c    @.<.    MOVW     r0,#0x3c
        0x00018efa:    f2c10000    ....    MOVT     r0,#0x1000
        0x00018efe:    6801        .h      LDR      r1,[r0,#0]
        0x00018f00:    2044        D       MOVS     r0,#0x44
        0x00018f02:    f000fd25    ..%.    BL       am_hal_gpio_pinconfig ; 0x19950
        0x00018f06:    f2400040    @.@.    MOVW     r0,#0x40
        0x00018f0a:    f2c10000    ....    MOVT     r0,#0x1000
        0x00018f0e:    6801        .h      LDR      r1,[r0,#0]
        0x00018f10:    2045        E       MOVS     r0,#0x45
        0x00018f12:    f000fd1d    ....    BL       am_hal_gpio_pinconfig ; 0x19950
        0x00018f16:    f240044c    @.L.    MOVW     r4,#0x4c
        0x00018f1a:    f2400950    @.P.    MOVW     r9,#0x50
        0x00018f1e:    f2400748    @.H.    MOVW     r7,#0x48
        0x00018f22:    f2400244    @.D.    MOVW     r2,#0x44
        0x00018f26:    f04f0849    O.I.    MOV      r8,#0x49
        0x00018f2a:    f2c10400    ....    MOVT     r4,#0x1000
        0x00018f2e:    2548        H%      MOVS     r5,#0x48
        0x00018f30:    f2c10900    ....    MOVT     r9,#0x1000
        0x00018f34:    2647        G&      MOVS     r6,#0x47
        0x00018f36:    f2c10700    ....    MOVT     r7,#0x1000
        0x00018f3a:    2046        F       MOVS     r0,#0x46
        0x00018f3c:    f2c10200    ....    MOVT     r2,#0x1000
        0x00018f40:    e12b        +.      B        0x1919a ; am_bsp_mspi_pins_enable + 3066
        0x00018f42:    bf00        ..      NOP      
        0x00018f44:    f24000b4    @...    MOVW     r0,#0xb4
        0x00018f48:    f2c10000    ....    MOVT     r0,#0x1000
        0x00018f4c:    6801        .h      LDR      r1,[r0,#0]
        0x00018f4e:    200e        .       MOVS     r0,#0xe
        0x00018f50:    f000fcfe    ....    BL       am_hal_gpio_pinconfig ; 0x19950
        0x00018f54:    f24000bc    @...    MOVW     r0,#0xbc
        0x00018f58:    f2c10000    ....    MOVT     r0,#0x1000
        0x00018f5c:    6801        .h      LDR      r1,[r0,#0]
        0x00018f5e:    2040        @       MOVS     r0,#0x40
        0x00018f60:    f000fcf6    ....    BL       am_hal_gpio_pinconfig ; 0x19950
        0x00018f64:    f24000c0    @...    MOVW     r0,#0xc0
        0x00018f68:    f2c10000    ....    MOVT     r0,#0x1000
        0x00018f6c:    6801        .h      LDR      r1,[r0,#0]
        0x00018f6e:    2041        A       MOVS     r0,#0x41
        0x00018f70:    f000fcee    ....    BL       am_hal_gpio_pinconfig ; 0x19950
        0x00018f74:    f24000dc    @...    MOVW     r0,#0xdc
        0x00018f78:    f2c10000    ....    MOVT     r0,#0x1000
        0x00018f7c:    6801        .h      LDR      r1,[r0,#0]
        0x00018f7e:    2042        B       MOVS     r0,#0x42
        0x00018f80:    f000fce6    ....    BL       am_hal_gpio_pinconfig ; 0x19950
        0x00018f84:    f24000e0    @...    MOVW     r0,#0xe0
        0x00018f88:    f2c10000    ....    MOVT     r0,#0x1000
        0x00018f8c:    6801        .h      LDR      r1,[r0,#0]
        0x00018f8e:    2043        C       MOVS     r0,#0x43
        0x00018f90:    f000fcde    ....    BL       am_hal_gpio_pinconfig ; 0x19950
        0x00018f94:    f24000e4    @...    MOVW     r0,#0xe4
        0x00018f98:    f2c10000    ....    MOVT     r0,#0x1000
        0x00018f9c:    6801        .h      LDR      r1,[r0,#0]
        0x00018f9e:    2044        D       MOVS     r0,#0x44
        0x00018fa0:    f000fcd6    ....    BL       am_hal_gpio_pinconfig ; 0x19950
        0x00018fa4:    f24000e8    @...    MOVW     r0,#0xe8
        0x00018fa8:    f2c10000    ....    MOVT     r0,#0x1000
        0x00018fac:    6801        .h      LDR      r1,[r0,#0]
        0x00018fae:    2045        E       MOVS     r0,#0x45
        0x00018fb0:    f000fcce    ....    BL       am_hal_gpio_pinconfig ; 0x19950
        0x00018fb4:    f24000ec    @...    MOVW     r0,#0xec
        0x00018fb8:    f2c10000    ....    MOVT     r0,#0x1000
        0x00018fbc:    6801        .h      LDR      r1,[r0,#0]
        0x00018fbe:    2046        F       MOVS     r0,#0x46
        0x00018fc0:    f000fcc6    ....    BL       am_hal_gpio_pinconfig ; 0x19950
        0x00018fc4:    f24000f0    @...    MOVW     r0,#0xf0
        0x00018fc8:    f2c10000    ....    MOVT     r0,#0x1000
        0x00018fcc:    6801        .h      LDR      r1,[r0,#0]
        0x00018fce:    2047        G       MOVS     r0,#0x47
        0x00018fd0:    f000fcbe    ....    BL       am_hal_gpio_pinconfig ; 0x19950
        0x00018fd4:    f24000f4    @...    MOVW     r0,#0xf4
        0x00018fd8:    f2c10000    ....    MOVT     r0,#0x1000
        0x00018fdc:    6801        .h      LDR      r1,[r0,#0]
        0x00018fde:    2025        %       MOVS     r0,#0x25
        0x00018fe0:    f000fcb6    ....    BL       am_hal_gpio_pinconfig ; 0x19950
        0x00018fe4:    f24000f8    @...    MOVW     r0,#0xf8
        0x00018fe8:    f2c10000    ....    MOVT     r0,#0x1000
        0x00018fec:    6801        .h      LDR      r1,[r0,#0]
        0x00018fee:    2026        &       MOVS     r0,#0x26
        0x00018ff0:    f000fcae    ....    BL       am_hal_gpio_pinconfig ; 0x19950
        0x00018ff4:    f24000c4    @...    MOVW     r0,#0xc4
        0x00018ff8:    f2c10000    ....    MOVT     r0,#0x1000
        0x00018ffc:    6801        .h      LDR      r1,[r0,#0]
        0x00018ffe:    2027        '       MOVS     r0,#0x27
        0x00019000:    f000fca6    ....    BL       am_hal_gpio_pinconfig ; 0x19950
        0x00019004:    f24000c8    @...    MOVW     r0,#0xc8
        0x00019008:    f2c10000    ....    MOVT     r0,#0x1000
        0x0001900c:    6801        .h      LDR      r1,[r0,#0]
        0x0001900e:    2028        (       MOVS     r0,#0x28
        0x00019010:    f000fc9e    ....    BL       am_hal_gpio_pinconfig ; 0x19950
        0x00019014:    f24000cc    @...    MOVW     r0,#0xcc
        0x00019018:    f2c10000    ....    MOVT     r0,#0x1000
        0x0001901c:    6801        .h      LDR      r1,[r0,#0]
        0x0001901e:    2029        )       MOVS     r0,#0x29
        0x00019020:    f000fc96    ....    BL       am_hal_gpio_pinconfig ; 0x19950
        0x00019024:    f24000d0    @...    MOVW     r0,#0xd0
        0x00019028:    f2c10000    ....    MOVT     r0,#0x1000
        0x0001902c:    6801        .h      LDR      r1,[r0,#0]
        0x0001902e:    202a        *       MOVS     r0,#0x2a
        0x00019030:    f000fc8e    ....    BL       am_hal_gpio_pinconfig ; 0x19950
        0x00019034:    f24000d4    @...    MOVW     r0,#0xd4
        0x00019038:    f2c10000    ....    MOVT     r0,#0x1000
        0x0001903c:    6801        .h      LDR      r1,[r0,#0]
        0x0001903e:    202b        +       MOVS     r0,#0x2b
        0x00019040:    f000fc86    ....    BL       am_hal_gpio_pinconfig ; 0x19950
        0x00019044:    f24004fc    @...    MOVW     r4,#0xfc
        0x00019048:    f2401900    @...    MOVW     r9,#0x100
        0x0001904c:    f2401704    @...    MOVW     r7,#0x104
        0x00019050:    f24002d8    @...    MOVW     r2,#0xd8
        0x00019054:    f04f082d    O.-.    MOV      r8,#0x2d
        0x00019058:    f2c10400    ....    MOVT     r4,#0x1000
        0x0001905c:    2549        I%      MOVS     r5,#0x49
        0x0001905e:    f2c10900    ....    MOVT     r9,#0x1000
        0x00019062:    2648        H&      MOVS     r6,#0x48
        0x00019064:    f2c10700    ....    MOVT     r7,#0x1000
        0x00019068:    202c        ,       MOVS     r0,#0x2c
        0x0001906a:    f2c10200    ....    MOVT     r2,#0x1000
        0x0001906e:    e094        ..      B        0x1919a ; am_bsp_mspi_pins_enable + 3066
        0x00019070:    f24000b8    @...    MOVW     r0,#0xb8
        0x00019074:    f2c10000    ....    MOVT     r0,#0x1000
        0x00019078:    6801        .h      LDR      r1,[r0,#0]
        0x0001907a:    2007        .       MOVS     r0,#7
        0x0001907c:    f000fc68    ..h.    BL       am_hal_gpio_pinconfig ; 0x19950
        0x00019080:    f24000bc    @...    MOVW     r0,#0xbc
        0x00019084:    f2c10000    ....    MOVT     r0,#0x1000
        0x00019088:    6801        .h      LDR      r1,[r0,#0]
        0x0001908a:    2040        @       MOVS     r0,#0x40
        0x0001908c:    f000fc60    ..`.    BL       am_hal_gpio_pinconfig ; 0x19950
        0x00019090:    f24000c0    @...    MOVW     r0,#0xc0
        0x00019094:    f2c10000    ....    MOVT     r0,#0x1000
        0x00019098:    6801        .h      LDR      r1,[r0,#0]
        0x0001909a:    2041        A       MOVS     r0,#0x41
        0x0001909c:    f000fc58    ..X.    BL       am_hal_gpio_pinconfig ; 0x19950
        0x000190a0:    f24000dc    @...    MOVW     r0,#0xdc
        0x000190a4:    f2c10000    ....    MOVT     r0,#0x1000
        0x000190a8:    6801        .h      LDR      r1,[r0,#0]
        0x000190aa:    2042        B       MOVS     r0,#0x42
        0x000190ac:    f000fc50    ..P.    BL       am_hal_gpio_pinconfig ; 0x19950
        0x000190b0:    f24000e0    @...    MOVW     r0,#0xe0
        0x000190b4:    f2c10000    ....    MOVT     r0,#0x1000
        0x000190b8:    6801        .h      LDR      r1,[r0,#0]
        0x000190ba:    2043        C       MOVS     r0,#0x43
        0x000190bc:    f000fc48    ..H.    BL       am_hal_gpio_pinconfig ; 0x19950
        0x000190c0:    f24000e4    @...    MOVW     r0,#0xe4
        0x000190c4:    f2c10000    ....    MOVT     r0,#0x1000
        0x000190c8:    6801        .h      LDR      r1,[r0,#0]
        0x000190ca:    2044        D       MOVS     r0,#0x44
        0x000190cc:    f000fc40    ..@.    BL       am_hal_gpio_pinconfig ; 0x19950
        0x000190d0:    f24000e8    @...    MOVW     r0,#0xe8
        0x000190d4:    f2c10000    ....    MOVT     r0,#0x1000
        0x000190d8:    6801        .h      LDR      r1,[r0,#0]
        0x000190da:    2045        E       MOVS     r0,#0x45
        0x000190dc:    f000fc38    ..8.    BL       am_hal_gpio_pinconfig ; 0x19950
        0x000190e0:    f24000ec    @...    MOVW     r0,#0xec
        0x000190e4:    f2c10000    ....    MOVT     r0,#0x1000
        0x000190e8:    6801        .h      LDR      r1,[r0,#0]
        0x000190ea:    2046        F       MOVS     r0,#0x46
        0x000190ec:    f000fc30    ..0.    BL       am_hal_gpio_pinconfig ; 0x19950
        0x000190f0:    f24000f0    @...    MOVW     r0,#0xf0
        0x000190f4:    f2c10000    ....    MOVT     r0,#0x1000
        0x000190f8:    6801        .h      LDR      r1,[r0,#0]
        0x000190fa:    2047        G       MOVS     r0,#0x47
        0x000190fc:    f000fc28    ..(.    BL       am_hal_gpio_pinconfig ; 0x19950
        0x00019100:    f24000f4    @...    MOVW     r0,#0xf4
        0x00019104:    f2c10000    ....    MOVT     r0,#0x1000
        0x00019108:    6801        .h      LDR      r1,[r0,#0]
        0x0001910a:    2025        %       MOVS     r0,#0x25
        0x0001910c:    f000fc20    .. .    BL       am_hal_gpio_pinconfig ; 0x19950
        0x00019110:    f24000f8    @...    MOVW     r0,#0xf8
        0x00019114:    f2c10000    ....    MOVT     r0,#0x1000
        0x00019118:    6801        .h      LDR      r1,[r0,#0]
        0x0001911a:    2026        &       MOVS     r0,#0x26
        0x0001911c:    f000fc18    ....    BL       am_hal_gpio_pinconfig ; 0x19950
        0x00019120:    f24000c4    @...    MOVW     r0,#0xc4
        0x00019124:    f2c10000    ....    MOVT     r0,#0x1000
        0x00019128:    6801        .h      LDR      r1,[r0,#0]
        0x0001912a:    2027        '       MOVS     r0,#0x27
        0x0001912c:    f000fc10    ....    BL       am_hal_gpio_pinconfig ; 0x19950
        0x00019130:    f24000c8    @...    MOVW     r0,#0xc8
        0x00019134:    f2c10000    ....    MOVT     r0,#0x1000
        0x00019138:    6801        .h      LDR      r1,[r0,#0]
        0x0001913a:    2028        (       MOVS     r0,#0x28
        0x0001913c:    f000fc08    ....    BL       am_hal_gpio_pinconfig ; 0x19950
        0x00019140:    f24000cc    @...    MOVW     r0,#0xcc
        0x00019144:    f2c10000    ....    MOVT     r0,#0x1000
        0x00019148:    6801        .h      LDR      r1,[r0,#0]
        0x0001914a:    2029        )       MOVS     r0,#0x29
        0x0001914c:    f000fc00    ....    BL       am_hal_gpio_pinconfig ; 0x19950
        0x00019150:    f24000d0    @...    MOVW     r0,#0xd0
        0x00019154:    f2c10000    ....    MOVT     r0,#0x1000
        0x00019158:    6801        .h      LDR      r1,[r0,#0]
        0x0001915a:    202a        *       MOVS     r0,#0x2a
        0x0001915c:    f000fbf8    ....    BL       am_hal_gpio_pinconfig ; 0x19950
        0x00019160:    f24000d4    @...    MOVW     r0,#0xd4
        0x00019164:    f2c10000    ....    MOVT     r0,#0x1000
        0x00019168:    6801        .h      LDR      r1,[r0,#0]
        0x0001916a:    202b        +       MOVS     r0,#0x2b
        0x0001916c:    f000fbf0    ....    BL       am_hal_gpio_pinconfig ; 0x19950
        0x00019170:    f24004fc    @...    MOVW     r4,#0xfc
        0x00019174:    f2401900    @...    MOVW     r9,#0x100
        0x00019178:    f2401704    @...    MOVW     r7,#0x104
        0x0001917c:    f24002d8    @...    MOVW     r2,#0xd8
        0x00019180:    f04f082d    O.-.    MOV      r8,#0x2d
        0x00019184:    f2c10400    ....    MOVT     r4,#0x1000
        0x00019188:    2549        I%      MOVS     r5,#0x49
        0x0001918a:    f2c10900    ....    MOVT     r9,#0x1000
        0x0001918e:    2648        H&      MOVS     r6,#0x48
        0x00019190:    f2c10700    ....    MOVT     r7,#0x1000
        0x00019194:    202c        ,       MOVS     r0,#0x2c
        0x00019196:    f2c10200    ....    MOVT     r2,#0x1000
        0x0001919a:    6811        .h      LDR      r1,[r2,#0]
        0x0001919c:    f000fbd8    ....    BL       am_hal_gpio_pinconfig ; 0x19950
        0x000191a0:    6839        9h      LDR      r1,[r7,#0]
        0x000191a2:    4630        0F      MOV      r0,r6
        0x000191a4:    f000fbd4    ....    BL       am_hal_gpio_pinconfig ; 0x19950
        0x000191a8:    f8d91000    ....    LDR      r1,[r9,#0]
        0x000191ac:    4628        (F      MOV      r0,r5
        0x000191ae:    f000fbcf    ....    BL       am_hal_gpio_pinconfig ; 0x19950
        0x000191b2:    6821        !h      LDR      r1,[r4,#0]
        0x000191b4:    4640        @F      MOV      r0,r8
        0x000191b6:    b001        ..      ADD      sp,sp,#4
        0x000191b8:    e8bd43f0    ...C    POP      {r4-r9,lr}
        0x000191bc:    f000bbc8    ....    B.W      am_hal_gpio_pinconfig ; 0x19950
    am_getStackedReg
        0x000191c0:    b082        ..      SUB      sp,sp,#8
        0x000191c2:    9001        ..      STR      r0,[sp,#4]
        0x000191c4:    9100        ..      STR      r1,[sp,#0]
        0x000191c6:    9800        ..      LDR      r0,[sp,#0]
        0x000191c8:    9901        ..      LDR      r1,[sp,#4]
        0x000191ca:    f8500021    P.!.    LDR      r0,[r0,r1,LSL #2]
        0x000191ce:    b002        ..      ADD      sp,sp,#8
        0x000191d0:    4770        pG      BX       lr
        0x000191d2:    0000        ..      MOVS     r0,r0
    am_gpu_power_disable
        0x000191d4:    4770        pG      BX       lr
        0x000191d6:    0000        ..      MOVS     r0,r0
    am_gpu_power_enable
        0x000191d8:    4770        pG      BX       lr
        0x000191da:    0000        ..      MOVS     r0,r0
    am_hal_cachectrl_config
        0x000191dc:    b5b0        ..      PUSH     {r4,r5,r7,lr}
        0x000191de:    b082        ..      SUB      sp,sp,#8
        0x000191e0:    4604        .F      MOV      r4,r0
        0x000191e2:    f000fc87    ....    BL       am_hal_interrupt_master_disable ; 0x19af4
        0x000191e6:    9001        ..      STR      r0,[sp,#4]
        0x000191e8:    f04f4590    O..E    MOV      r5,#0x48000000
        0x000191ec:    6828        (h      LDR      r0,[r5,#0]
        0x000191ee:    f4207040     .@p    BIC      r0,r0,#0x300
        0x000191f2:    6028        (`      STR      r0,[r5,#0]
        0x000191f4:    9801        ..      LDR      r0,[sp,#4]
        0x000191f6:    f000fc85    ....    BL       am_hal_interrupt_master_set ; 0x19b04
        0x000191fa:    78a1        .x      LDRB     r1,[r4,#2]
        0x000191fc:    7820         x      LDRB     r0,[r4,#0]
        0x000191fe:    7862        bx      LDRB     r2,[r4,#1]
        0x00019200:    0049        I.      LSLS     r1,r1,#1
        0x00019202:    b2c9        ..      UXTB     r1,r1
        0x00019204:    f0020203    ....    AND      r2,r2,#3
        0x00019208:    f3601107    `...    BFI      r1,r0,#4,#4
        0x0001920c:    ea412002    A..     ORR      r0,r1,r2,LSL #8
        0x00019210:    f4401080    @...    ORR      r0,r0,#0x100000
        0x00019214:    f4406180    @..a    ORR      r1,r0,#0x400
        0x00019218:    2000        .       MOVS     r0,#0
        0x0001921a:    6029        )`      STR      r1,[r5,#0]
        0x0001921c:    b002        ..      ADD      sp,sp,#8
        0x0001921e:    bdb0        ..      POP      {r4,r5,r7,pc}
    am_hal_cachectrl_enable
        0x00019220:    f04f4090    O..@    MOV      r0,#0x48000000
        0x00019224:    6801        .h      LDR      r1,[r0,#0]
        0x00019226:    f0410101    A...    ORR      r1,r1,#1
        0x0001922a:    6001        .`      STR      r1,[r0,#0]
        0x0001922c:    2108        .!      MOVS     r1,#8
        0x0001922e:    f6c40100    ....    MOVT     r1,#0x4800
        0x00019232:    6808        .h      LDR      r0,[r1,#0]
        0x00019234:    f0400201    @...    ORR      r2,r0,#1
        0x00019238:    2000        .       MOVS     r0,#0
        0x0001923a:    600a        .`      STR      r2,[r1,#0]
        0x0001923c:    4770        pG      BX       lr
        0x0001923e:    0000        ..      MOVS     r0,r0
    am_hal_cmdq_alloc_block
        0x00019240:    b5f0        ..      PUSH     {r4-r7,lr}
        0x00019242:    b081        ..      SUB      sp,sp,#4
        0x00019244:    b3a0        ..      CBZ      r0,0x192b0 ; am_hal_cmdq_alloc_block + 112
        0x00019246:    4605        .F      MOV      r5,r0
        0x00019248:    6800        .h      LDR      r0,[r0,#0]
        0x0001924a:    460f        .F      MOV      r7,r1
        0x0001924c:    f64c51cd    L..Q    MOV      r1,#0xcdcd
        0x00019250:    f020407e     .~@    BIC      r0,r0,#0xfe000000
        0x00019254:    f2c011cd    ....    MOVT     r1,#0x1cd
        0x00019258:    4288        .B      CMP      r0,r1
        0x0001925a:    d129        ).      BNE      0x192b0 ; am_hal_cmdq_alloc_block + 112
        0x0001925c:    4616        .F      MOV      r6,r2
        0x0001925e:    2a00        .*      CMP      r2,#0
        0x00019260:    f04f0006    O...    MOV      r0,#6
        0x00019264:    d051        Q.      BEQ      0x1930a ; am_hal_cmdq_alloc_block + 202
        0x00019266:    461c        .F      MOV      r4,r3
        0x00019268:    2b00        .+      CMP      r3,#0
        0x0001926a:    d04e        N.      BEQ      0x1930a ; am_hal_cmdq_alloc_block + 202
        0x0001926c:    e9d50104    ....    LDRD     r0,r1,[r5,#0x10]
        0x00019270:    4288        .B      CMP      r0,r1
        0x00019272:    d121        !.      BNE      0x192b8 ; am_hal_cmdq_alloc_block + 120
        0x00019274:    f000fc3e    ..>.    BL       am_hal_interrupt_master_disable ; 0x19af4
        0x00019278:    9000        ..      STR      r0,[sp,#0]
        0x0001927a:    e9d51008    ....    LDRD     r1,r0,[r5,#0x20]
        0x0001927e:    e9d00201    ....    LDRD     r0,r2,[r0,#4]
        0x00019282:    460b        .F      MOV      r3,r1
        0x00019284:    6812        .h      LDR      r2,[r2,#0]
        0x00019286:    f3620307    b...    BFI      r3,r2,#0,#8
        0x0001928a:    4299        .B      CMP      r1,r3
        0x0001928c:    bfb8        ..      IT       LT
        0x0001928e:    f5a37380    ...s    SUBLT    r3,r3,#0x100
        0x00019292:    61eb        .a      STR      r3,[r5,#0x1c]
        0x00019294:    6800        .h      LDR      r0,[r0,#0]
        0x00019296:    60e8        .`      STR      r0,[r5,#0xc]
        0x00019298:    9800        ..      LDR      r0,[sp,#0]
        0x0001929a:    f000fc33    ..3.    BL       am_hal_interrupt_master_set ; 0x19b04
        0x0001929e:    e9d51007    ....    LDRD     r1,r0,[r5,#0x1c]
        0x000192a2:    31fe        .1      ADDS     r1,r1,#0xfe
        0x000192a4:    4281        .B      CMP      r1,r0
        0x000192a6:    da0b        ..      BGE      0x192c0 ; am_hal_cmdq_alloc_block + 128
        0x000192a8:    2005        .       MOVS     r0,#5
        0x000192aa:    b001        ..      ADD      sp,sp,#4
        0x000192ac:    bdf0        ..      POP      {r4-r7,pc}
        0x000192ae:    bf00        ..      NOP      
        0x000192b0:    2002        .       MOVS     r0,#2
        0x000192b2:    b001        ..      ADD      sp,sp,#4
        0x000192b4:    bdf0        ..      POP      {r4-r7,pc}
        0x000192b6:    bf00        ..      NOP      
        0x000192b8:    2007        .       MOVS     r0,#7
        0x000192ba:    b001        ..      ADD      sp,sp,#4
        0x000192bc:    bdf0        ..      POP      {r4-r7,pc}
        0x000192be:    bf00        ..      NOP      
        0x000192c0:    e9d53103    ...1    LDRD     r3,r1,[r5,#0xc]
        0x000192c4:    00fa        ..      LSLS     r2,r7,#3
        0x000192c6:    4299        .B      CMP      r1,r3
        0x000192c8:    d204        ..      BCS      0x192d4 ; am_hal_cmdq_alloc_block + 148
        0x000192ca:    1857        W.      ADDS     r7,r2,r1
        0x000192cc:    3708        .7      ADDS     r7,r7,#8
        0x000192ce:    429f        .B      CMP      r7,r3
        0x000192d0:    d2ea        ..      BCS      0x192a8 ; am_hal_cmdq_alloc_block + 104
        0x000192d2:    e013        ..      B        0x192fc ; am_hal_cmdq_alloc_block + 188
        0x000192d4:    eb020c01    ....    ADD      r12,r2,r1
        0x000192d8:    f8d5e008    ....    LDR      lr,[r5,#8]
        0x000192dc:    f10c0710    ....    ADD      r7,r12,#0x10
        0x000192e0:    4577        wE      CMP      r7,lr
        0x000192e2:    d90b        ..      BLS      0x192fc ; am_hal_cmdq_alloc_block + 188
        0x000192e4:    f8d5c004    ....    LDR      r12,[r5,#4]
        0x000192e8:    eb02070c    ....    ADD      r7,r2,r12
        0x000192ec:    3708        .7      ADDS     r7,r7,#8
        0x000192ee:    429f        .B      CMP      r7,r3
        0x000192f0:    d2da        ..      BCS      0x192a8 ; am_hal_cmdq_alloc_block + 104
        0x000192f2:    6a6b        kj      LDR      r3,[r5,#0x24]
        0x000192f4:    685b        [h      LDR      r3,[r3,#4]
        0x000192f6:    e9c13c00    ...<    STRD     r3,r12,[r1,#0]
        0x000192fa:    4661        aF      MOV      r1,r12
        0x000192fc:    3001        .0      ADDS     r0,#1
        0x000192fe:    6228        (b      STR      r0,[r5,#0x20]
        0x00019300:    6020         `      STR      r0,[r4,#0]
        0x00019302:    1888        ..      ADDS     r0,r1,r2
        0x00019304:    6168        ha      STR      r0,[r5,#0x14]
        0x00019306:    2000        .       MOVS     r0,#0
        0x00019308:    6031        1`      STR      r1,[r6,#0]
        0x0001930a:    b001        ..      ADD      sp,sp,#4
        0x0001930c:    bdf0        ..      POP      {r4-r7,pc}
        0x0001930e:    0000        ..      MOVS     r0,r0
    am_hal_cmdq_disable
        0x00019310:    b1c0        ..      CBZ      r0,0x19344 ; am_hal_cmdq_disable + 52
        0x00019312:    6801        .h      LDR      r1,[r0,#0]
        0x00019314:    f64c53cd    L..S    MOV      r3,#0xcdcd
        0x00019318:    f021427e    !.~B    BIC      r2,r1,#0xfe000000
        0x0001931c:    f2c013cd    ....    MOVT     r3,#0x1cd
        0x00019320:    429a        .B      CMP      r2,r3
        0x00019322:    d10f        ..      BNE      0x19344 ; am_hal_cmdq_disable + 52
        0x00019324:    0189        ..      LSLS     r1,r1,#6
        0x00019326:    bf5c        \.      ITT      PL
        0x00019328:    2000        .       MOVPL    r0,#0
        0x0001932a:    4770        pG      BXPL     lr
        0x0001932c:    6a41        Aj      LDR      r1,[r0,#0x24]
        0x0001932e:    6809        .h      LDR      r1,[r1,#0]
        0x00019330:    680a        .h      LDR      r2,[r1,#0]
        0x00019332:    f0220201    "...    BIC      r2,r2,#1
        0x00019336:    600a        .`      STR      r2,[r1,#0]
        0x00019338:    6801        .h      LDR      r1,[r0,#0]
        0x0001933a:    f0217100    !..q    BIC      r1,r1,#0x2000000
        0x0001933e:    6001        .`      STR      r1,[r0,#0]
        0x00019340:    2000        .       MOVS     r0,#0
        0x00019342:    4770        pG      BX       lr
        0x00019344:    2002        .       MOVS     r0,#2
        0x00019346:    4770        pG      BX       lr
    am_hal_cmdq_enable
        0x00019348:    b510        ..      PUSH     {r4,lr}
        0x0001934a:    b318        ..      CBZ      r0,0x19394 ; am_hal_cmdq_enable + 76
        0x0001934c:    4604        .F      MOV      r4,r0
        0x0001934e:    6800        .h      LDR      r0,[r0,#0]
        0x00019350:    f64c52cd    L..R    MOV      r2,#0xcdcd
        0x00019354:    f020417e     .~A    BIC      r1,r0,#0xfe000000
        0x00019358:    f2c012cd    ....    MOVT     r2,#0x1cd
        0x0001935c:    4291        .B      CMP      r1,r2
        0x0001935e:    d119        ..      BNE      0x19394 ; am_hal_cmdq_enable + 76
        0x00019360:    0180        ..      LSLS     r0,r0,#6
        0x00019362:    bf44        D.      ITT      MI
        0x00019364:    2000        .       MOVMI    r0,#0
        0x00019366:    bd10        ..      POPMI    {r4,pc}
        0x00019368:    68a0        .h      LDR      r0,[r4,#8]
        0x0001936a:    2100        .!      MOVS     r1,#0
        0x0001936c:    f2c10106    ....    MOVT     r1,#0x1006
        0x00019370:    4288        .B      CMP      r0,r1
        0x00019372:    d303        ..      BCC      0x1937c ; am_hal_cmdq_enable + 52
        0x00019374:    2001        .       MOVS     r0,#1
        0x00019376:    2100        .!      MOVS     r1,#0
        0x00019378:    f000f9ac    ....    BL       am_hal_daxi_control ; 0x196d4
        0x0001937c:    6a60        `j      LDR      r0,[r4,#0x24]
        0x0001937e:    6800        .h      LDR      r0,[r0,#0]
        0x00019380:    6801        .h      LDR      r1,[r0,#0]
        0x00019382:    f0410101    A...    ORR      r1,r1,#1
        0x00019386:    6001        .`      STR      r1,[r0,#0]
        0x00019388:    6820         h      LDR      r0,[r4,#0]
        0x0001938a:    f0407000    @..p    ORR      r0,r0,#0x2000000
        0x0001938e:    6020         `      STR      r0,[r4,#0]
        0x00019390:    2000        .       MOVS     r0,#0
        0x00019392:    bd10        ..      POP      {r4,pc}
        0x00019394:    2002        .       MOVS     r0,#2
        0x00019396:    bd10        ..      POP      {r4,pc}
    am_hal_cmdq_error_resume
        0x00019398:    b580        ..      PUSH     {r7,lr}
        0x0001939a:    2800        .(      CMP      r0,#0
        0x0001939c:    d048        H.      BEQ      0x19430 ; am_hal_cmdq_error_resume + 152
        0x0001939e:    6801        .h      LDR      r1,[r0,#0]
        0x000193a0:    f64c53cd    L..S    MOV      r3,#0xcdcd
        0x000193a4:    f021427e    !.~B    BIC      r2,r1,#0xfe000000
        0x000193a8:    f2c013cd    ....    MOVT     r3,#0x1cd
        0x000193ac:    429a        .B      CMP      r2,r3
        0x000193ae:    d13f        ?.      BNE      0x19430 ; am_hal_cmdq_error_resume + 152
        0x000193b0:    0189        ..      LSLS     r1,r1,#6
        0x000193b2:    bf5c        \.      ITT      PL
        0x000193b4:    2000        .       MOVPL    r0,#0
        0x000193b6:    bd80        ..      POPPL    {r7,pc}
        0x000193b8:    6a41        Aj      LDR      r1,[r0,#0x24]
        0x000193ba:    e8915008    ...P    LDM      r1,{r3,r12,lr}
        0x000193be:    6819        .h      LDR      r1,[r3,#0]
        0x000193c0:    f0210101    !...    BIC      r1,r1,#1
        0x000193c4:    6019        .`      STR      r1,[r3,#0]
        0x000193c6:    f8dc3000    ...0    LDR      r3,[r12,#0]
        0x000193ca:    6819        .h      LDR      r1,[r3,#0]
        0x000193cc:    f0210201    !...    BIC      r2,r1,#1
        0x000193d0:    4572        rE      CMP      r2,lr
        0x000193d2:    d023        #.      BEQ      0x1941c ; am_hal_cmdq_error_resume + 132
        0x000193d4:    4561        aE      CMP      r1,r12
        0x000193d6:    bf14        ..      ITE      NE
        0x000193d8:    3308        .3      ADDNE    r3,r3,#8
        0x000193da:    685b        [h      LDREQ    r3,[r3,#4]
        0x000193dc:    6819        .h      LDR      r1,[r3,#0]
        0x000193de:    f0210201    !...    BIC      r2,r1,#1
        0x000193e2:    4572        rE      CMP      r2,lr
        0x000193e4:    d01a        ..      BEQ      0x1941c ; am_hal_cmdq_error_resume + 132
        0x000193e6:    4561        aE      CMP      r1,r12
        0x000193e8:    bf0c        ..      ITE      EQ
        0x000193ea:    685b        [h      LDREQ    r3,[r3,#4]
        0x000193ec:    3308        .3      ADDNE    r3,r3,#8
        0x000193ee:    6819        .h      LDR      r1,[r3,#0]
        0x000193f0:    f0210201    !...    BIC      r2,r1,#1
        0x000193f4:    4572        rE      CMP      r2,lr
        0x000193f6:    d011        ..      BEQ      0x1941c ; am_hal_cmdq_error_resume + 132
        0x000193f8:    4561        aE      CMP      r1,r12
        0x000193fa:    bf0c        ..      ITE      EQ
        0x000193fc:    685b        [h      LDREQ    r3,[r3,#4]
        0x000193fe:    3308        .3      ADDNE    r3,r3,#8
        0x00019400:    6819        .h      LDR      r1,[r3,#0]
        0x00019402:    f0210201    !...    BIC      r2,r1,#1
        0x00019406:    4572        rE      CMP      r2,lr
        0x00019408:    d008        ..      BEQ      0x1941c ; am_hal_cmdq_error_resume + 132
        0x0001940a:    4561        aE      CMP      r1,r12
        0x0001940c:    bf0c        ..      ITE      EQ
        0x0001940e:    685b        [h      LDREQ    r3,[r3,#4]
        0x00019410:    3308        .3      ADDNE    r3,r3,#8
        0x00019412:    6819        .h      LDR      r1,[r3,#0]
        0x00019414:    f0210201    !...    BIC      r2,r1,#1
        0x00019418:    4572        rE      CMP      r2,lr
        0x0001941a:    d1db        ..      BNE      0x193d4 ; am_hal_cmdq_error_resume + 60
        0x0001941c:    f8c3e000    ....    STR      lr,[r3,#0]
        0x00019420:    f8cc3000    ...0    STR      r3,[r12,#0]
        0x00019424:    6801        .h      LDR      r1,[r0,#0]
        0x00019426:    f0217100    !..q    BIC      r1,r1,#0x2000000
        0x0001942a:    6001        .`      STR      r1,[r0,#0]
        0x0001942c:    2000        .       MOVS     r0,#0
        0x0001942e:    bd80        ..      POP      {r7,pc}
        0x00019430:    2002        .       MOVS     r0,#2
        0x00019432:    bd80        ..      POP      {r7,pc}
    am_hal_cmdq_get_status
        0x00019434:    b5b0        ..      PUSH     {r4,r5,r7,lr}
        0x00019436:    b082        ..      SUB      sp,sp,#8
        0x00019438:    2800        .(      CMP      r0,#0
        0x0001943a:    d041        A.      BEQ      0x194c0 ; am_hal_cmdq_get_status + 140
        0x0001943c:    4605        .F      MOV      r5,r0
        0x0001943e:    6800        .h      LDR      r0,[r0,#0]
        0x00019440:    460c        .F      MOV      r4,r1
        0x00019442:    f64c51cd    L..Q    MOV      r1,#0xcdcd
        0x00019446:    f020407e     .~@    BIC      r0,r0,#0xfe000000
        0x0001944a:    f2c011cd    ....    MOVT     r1,#0x1cd
        0x0001944e:    4288        .B      CMP      r0,r1
        0x00019450:    d136        6.      BNE      0x194c0 ; am_hal_cmdq_get_status + 140
        0x00019452:    b3cc        ..      CBZ      r4,0x194c8 ; am_hal_cmdq_get_status + 148
        0x00019454:    f000fb4e    ..N.    BL       am_hal_interrupt_master_disable ; 0x19af4
        0x00019458:    9001        ..      STR      r0,[sp,#4]
        0x0001945a:    e9d51008    ....    LDRD     r1,r0,[r5,#0x20]
        0x0001945e:    e9d00201    ....    LDRD     r0,r2,[r0,#4]
        0x00019462:    460b        .F      MOV      r3,r1
        0x00019464:    6812        .h      LDR      r2,[r2,#0]
        0x00019466:    f3620307    b...    BFI      r3,r2,#0,#8
        0x0001946a:    4299        .B      CMP      r1,r3
        0x0001946c:    bfb8        ..      IT       LT
        0x0001946e:    f5a37380    ...s    SUBLT    r3,r3,#0x100
        0x00019472:    61eb        .a      STR      r3,[r5,#0x1c]
        0x00019474:    6800        .h      LDR      r0,[r0,#0]
        0x00019476:    60e8        .`      STR      r0,[r5,#0xc]
        0x00019478:    9801        ..      LDR      r0,[sp,#4]
        0x0001947a:    f000fb43    ..C.    BL       am_hal_interrupt_master_set ; 0x19b04
        0x0001947e:    e9d50104    ....    LDRD     r0,r1,[r5,#0x10]
        0x00019482:    e9d52307    ...#    LDRD     r2,r3,[r5,#0x1c]
        0x00019486:    4281        .B      CMP      r1,r0
        0x00019488:    60a3        .`      STR      r3,[r4,#8]
        0x0001948a:    bf18        ..      IT       NE
        0x0001948c:    3b01        .;      SUBNE    r3,#1
        0x0001948e:    6a68        hj      LDR      r0,[r5,#0x24]
        0x00019490:    6063        c`      STR      r3,[r4,#4]
        0x00019492:    f1000318    ....    ADD      r3,r0,#0x18
        0x00019496:    6022        "`      STR      r2,[r4,#0]
        0x00019498:    cb0e        ..      LDM      r3,{r1-r3}
        0x0001949a:    6a40        @j      LDR      r0,[r0,#0x24]
        0x0001949c:    6809        .h      LDR      r1,[r1,#0]
        0x0001949e:    400a        .@      ANDS     r2,r2,r1
        0x000194a0:    bf18        ..      IT       NE
        0x000194a2:    2201        ."      MOVNE    r2,#1
        0x000194a4:    4008        .@      ANDS     r0,r0,r1
        0x000194a6:    7322        "s      STRB     r2,[r4,#0xc]
        0x000194a8:    bf18        ..      IT       NE
        0x000194aa:    2001        .       MOVNE    r0,#1
        0x000194ac:    7360        `s      STRB     r0,[r4,#0xd]
        0x000194ae:    ea130001    ....    ANDS     r0,r3,r1
        0x000194b2:    bf18        ..      IT       NE
        0x000194b4:    2001        .       MOVNE    r0,#1
        0x000194b6:    73a0        .s      STRB     r0,[r4,#0xe]
        0x000194b8:    2000        .       MOVS     r0,#0
        0x000194ba:    b002        ..      ADD      sp,sp,#8
        0x000194bc:    bdb0        ..      POP      {r4,r5,r7,pc}
        0x000194be:    bf00        ..      NOP      
        0x000194c0:    2002        .       MOVS     r0,#2
        0x000194c2:    b002        ..      ADD      sp,sp,#8
        0x000194c4:    bdb0        ..      POP      {r4,r5,r7,pc}
        0x000194c6:    bf00        ..      NOP      
        0x000194c8:    2006        .       MOVS     r0,#6
        0x000194ca:    b002        ..      ADD      sp,sp,#8
        0x000194cc:    bdb0        ..      POP      {r4,r5,r7,pc}
        0x000194ce:    0000        ..      MOVS     r0,r0
    am_hal_cmdq_init
        0x000194d0:    e92d41f0    -..A    PUSH     {r4-r8,lr}
        0x000194d4:    280a        .(      CMP      r0,#0xa
        0x000194d6:    bf84        ..      ITT      HI
        0x000194d8:    2005        .       MOVHI    r0,#5
        0x000194da:    e8bd81f0    ....    POPHI    {r4-r8,pc}
        0x000194de:    b171        q.      CBZ      r1,0x194fe ; am_hal_cmdq_init + 46
        0x000194e0:    4603        .F      MOV      r3,r0
        0x000194e2:    2a00        .*      CMP      r2,#0
        0x000194e4:    f04f0006    O...    MOV      r0,#6
        0x000194e8:    d04f        O.      BEQ      0x1958a ; am_hal_cmdq_init + 186
        0x000194ea:    f8d1e004    ....    LDR      lr,[r1,#4]
        0x000194ee:    f1be0f00    ....    CMP      lr,#0
        0x000194f2:    bf08        ..      IT       EQ
        0x000194f4:    e8bd81f0    ....    POPEQ    {r4-r8,pc}
        0x000194f8:    6808        .h      LDR      r0,[r1,#0]
        0x000194fa:    2802        .(      CMP      r0,#2
        0x000194fc:    d202        ..      BCS      0x19504 ; am_hal_cmdq_init + 52
        0x000194fe:    2006        .       MOVS     r0,#6
        0x00019500:    e8bd81f0    ....    POP      {r4-r8,pc}
        0x00019504:    f2401c94    @...    MOVW     r12,#0x194
        0x00019508:    252c        ,%      MOVS     r5,#0x2c
        0x0001950a:    f2c10c00    ....    MOVT     r12,#0x1000
        0x0001950e:    fb03f405    ....    MUL      r4,r3,r5
        0x00019512:    f85c4004    \..@    LDR      r4,[r12,r4]
        0x00019516:    01e6        ..      LSLS     r6,r4,#7
        0x00019518:    bf44        D.      ITT      MI
        0x0001951a:    2007        .       MOVMI    r0,#7
        0x0001951c:    e8bd81f0    ....    POPMI    {r4-r8,pc}
        0x00019520:    f24c3890    L..8    MOV      r8,#0xc390
        0x00019524:    fb13cc05    ....    SMLABB   r12,r3,r5,r12
        0x00019528:    00c5        ..      LSLS     r5,r0,#3
        0x0001952a:    eb0e06c0    ....    ADD      r6,lr,r0,LSL #3
        0x0001952e:    f64c50cd    L..P    MOV      r0,#0xcdcd
        0x00019532:    eb030383    ....    ADD      r3,r3,r3,LSL #2
        0x00019536:    f2c00801    ....    MOVT     r8,#1
        0x0001953a:    f2c010cd    ....    MOVT     r0,#0x1cd
        0x0001953e:    eb0807c3    ....    ADD      r7,r8,r3,LSL #3
        0x00019542:    f3600419    `...    BFI      r4,r0,#0,#26
        0x00019546:    e9cce601    ....    STRD     lr,r6,[r12,#4]
        0x0001954a:    e9cce505    ....    STRD     lr,r5,[r12,#0x14]
        0x0001954e:    e9d76502    ...e    LDRD     r6,r5,[r7,#8]
        0x00019552:    f8cc4000    ...@    STR      r4,[r12,#0]
        0x00019556:    2000        .       MOVS     r0,#0
        0x00019558:    693c        <i      LDR      r4,[r7,#0x10]
        0x0001955a:    f8cc7024    ..$p    STR      r7,[r12,#0x24]
        0x0001955e:    e9ccee03    ....    STRD     lr,lr,[r12,#0xc]
        0x00019562:    e9cc0007    ....    STRD     r0,r0,[r12,#0x1c]
        0x00019566:    6030        0`      STR      r0,[r6,#0]
        0x00019568:    6028        (`      STR      r0,[r5,#0]
        0x0001956a:    697e        ~i      LDR      r6,[r7,#0x14]
        0x0001956c:    6825        %h      LDR      r5,[r4,#0]
        0x0001956e:    687f        .h      LDR      r7,[r7,#4]
        0x00019570:    432e        .C      ORRS     r6,r6,r5
        0x00019572:    6026        &`      STR      r6,[r4,#0]
        0x00019574:    684e        Nh      LDR      r6,[r1,#4]
        0x00019576:    f8583033    X.30    LDR      r3,[r8,r3,LSL #3]
        0x0001957a:    603e        >`      STR      r6,[r7,#0]
        0x0001957c:    7a09        .z      LDRB     r1,[r1,#8]
        0x0001957e:    2702        .'      MOVS     r7,#2
        0x00019580:    ea070141    ..A.    AND      r1,r7,r1,LSL #1
        0x00019584:    6019        .`      STR      r1,[r3,#0]
        0x00019586:    f8c2c000    ....    STR      r12,[r2,#0]
        0x0001958a:    e8bd81f0    ....    POP      {r4-r8,pc}
        0x0001958e:    0000        ..      MOVS     r0,r0
    am_hal_cmdq_post_block
        0x00019590:    b510        ..      PUSH     {r4,lr}
        0x00019592:    b378        x.      CBZ      r0,0x195f4 ; am_hal_cmdq_post_block + 100
        0x00019594:    4604        .F      MOV      r4,r0
        0x00019596:    6800        .h      LDR      r0,[r0,#0]
        0x00019598:    f64c52cd    L..R    MOV      r2,#0xcdcd
        0x0001959c:    f020407e     .~@    BIC      r0,r0,#0xfe000000
        0x000195a0:    f2c012cd    ....    MOVT     r2,#0x1cd
        0x000195a4:    4290        .B      CMP      r0,r2
        0x000195a6:    d125        %.      BNE      0x195f4 ; am_hal_cmdq_post_block + 100
        0x000195a8:    e9d40304    ....    LDRD     r0,r3,[r4,#0x10]
        0x000195ac:    4298        .B      CMP      r0,r3
        0x000195ae:    bf04        ..      ITT      EQ
        0x000195b0:    2007        .       MOVEQ    r0,#7
        0x000195b2:    bd10        ..      POPEQ    {r4,pc}
        0x000195b4:    6a62        bj      LDR      r2,[r4,#0x24]
        0x000195b6:    f8d4c008    ....    LDR      r12,[r4,#8]
        0x000195ba:    6890        .h      LDR      r0,[r2,#8]
        0x000195bc:    f8d4e020    .. .    LDR      lr,[r4,#0x20]
        0x000195c0:    4308        .C      ORRS     r0,r0,r1
        0x000195c2:    2100        .!      MOVS     r1,#0
        0x000195c4:    f2c10106    ....    MOVT     r1,#0x1006
        0x000195c8:    e9c30e00    ....    STRD     r0,lr,[r3,#0]
        0x000195cc:    f1030008    ....    ADD      r0,r3,#8
        0x000195d0:    458c        .E      CMP      r12,r1
        0x000195d2:    6120         a      STR      r0,[r4,#0x10]
        0x000195d4:    6160        `a      STR      r0,[r4,#0x14]
        0x000195d6:    d306        ..      BCC      0x195e6 ; am_hal_cmdq_post_block + 86
        0x000195d8:    2001        .       MOVS     r0,#1
        0x000195da:    2100        .!      MOVS     r1,#0
        0x000195dc:    f000f87a    ..z.    BL       am_hal_daxi_control ; 0x196d4
        0x000195e0:    f894e020    .. .    LDRB     lr,[r4,#0x20]
        0x000195e4:    6a62        bj      LDR      r2,[r4,#0x24]
        0x000195e6:    68d0        .h      LDR      r0,[r2,#0xc]
        0x000195e8:    fa5ff18e    _...    UXTB     r1,lr
        0x000195ec:    6001        .`      STR      r1,[r0,#0]
        0x000195ee:    2000        .       MOVS     r0,#0
        0x000195f0:    bd10        ..      POP      {r4,pc}
        0x000195f2:    bf00        ..      NOP      
        0x000195f4:    2002        .       MOVS     r0,#2
        0x000195f6:    bd10        ..      POP      {r4,pc}
    am_hal_cmdq_release_block
        0x000195f8:    b1a0        ..      CBZ      r0,0x19624 ; am_hal_cmdq_release_block + 44
        0x000195fa:    6801        .h      LDR      r1,[r0,#0]
        0x000195fc:    f64c52cd    L..R    MOV      r2,#0xcdcd
        0x00019600:    f021417e    !.~A    BIC      r1,r1,#0xfe000000
        0x00019604:    f2c012cd    ....    MOVT     r2,#0x1cd
        0x00019608:    4291        .B      CMP      r1,r2
        0x0001960a:    d10b        ..      BNE      0x19624 ; am_hal_cmdq_release_block + 44
        0x0001960c:    e9d01204    ....    LDRD     r1,r2,[r0,#0x10]
        0x00019610:    4291        .B      CMP      r1,r2
        0x00019612:    bf04        ..      ITT      EQ
        0x00019614:    2007        .       MOVEQ    r0,#7
        0x00019616:    4770        pG      BXEQ     lr
        0x00019618:    6a02        .j      LDR      r2,[r0,#0x20]
        0x0001961a:    6141        Aa      STR      r1,[r0,#0x14]
        0x0001961c:    1e51        Q.      SUBS     r1,r2,#1
        0x0001961e:    6201        .b      STR      r1,[r0,#0x20]
        0x00019620:    2000        .       MOVS     r0,#0
        0x00019622:    4770        pG      BX       lr
        0x00019624:    2002        .       MOVS     r0,#2
        0x00019626:    4770        pG      BX       lr
    am_hal_daxi_config
        0x00019628:    b570        p.      PUSH     {r4-r6,lr}
        0x0001962a:    b082        ..      SUB      sp,sp,#8
        0x0001962c:    2654        T&      MOVS     r6,#0x54
        0x0001962e:    2500        .%      MOVS     r5,#0
        0x00019630:    4604        .F      MOV      r4,r0
        0x00019632:    f6c40600    ....    MOVT     r6,#0x4800
        0x00019636:    f2c475ff    ...u    MOVT     r5,#0x47ff
        0x0001963a:    f000fa5b    ..[.    BL       am_hal_interrupt_master_disable ; 0x19af4
        0x0001963e:    9000        ..      STR      r0,[sp,#0]
        0x00019640:    f000fa58    ..X.    BL       am_hal_interrupt_master_disable ; 0x19af4
        0x00019644:    9001        ..      STR      r0,[sp,#4]
        0x00019646:    f8560c04    V...    LDR      r0,[r6,#-4]
        0x0001964a:    0740        @.      LSLS     r0,r0,#29
        0x0001964c:    d418        ..      BMI      0x19680 ; am_hal_daxi_config + 88
        0x0001964e:    f3bf8f4f    ..O.    DSB      
        0x00019652:    6830        0h      LDR      r0,[r6,#0]
        0x00019654:    f0400001    @...    ORR      r0,r0,#1
        0x00019658:    6030        0`      STR      r0,[r6,#0]
        0x0001965a:    6828        (h      LDR      r0,[r5,#0]
        0x0001965c:    6830        0h      LDR      r0,[r6,#0]
        0x0001965e:    0740        @.      LSLS     r0,r0,#29
        0x00019660:    d409        ..      BMI      0x19676 ; am_hal_daxi_config + 78
        0x00019662:    6830        0h      LDR      r0,[r6,#0]
        0x00019664:    0740        @.      LSLS     r0,r0,#29
        0x00019666:    bf5c        \.      ITT      PL
        0x00019668:    6830        0h      LDRPL    r0,[r6,#0]
        0x0001966a:    ea5f7040    _.@p    LSLSPL   r0,r0,#29
        0x0001966e:    d402        ..      BMI      0x19676 ; am_hal_daxi_config + 78
        0x00019670:    6830        0h      LDR      r0,[r6,#0]
        0x00019672:    0740        @.      LSLS     r0,r0,#29
        0x00019674:    d5f2        ..      BPL      0x1965c ; am_hal_daxi_config + 52
        0x00019676:    6830        0h      LDR      r0,[r6,#0]
        0x00019678:    f0400002    @...    ORR      r0,r0,#2
        0x0001967c:    6030        0`      STR      r0,[r6,#0]
        0x0001967e:    6828        (h      LDR      r0,[r5,#0]
        0x00019680:    9801        ..      LDR      r0,[sp,#4]
        0x00019682:    f000fa3f    ..?.    BL       am_hal_interrupt_master_set ; 0x19b04
        0x00019686:    b1dc        ..      CBZ      r4,0x196c0 ; am_hal_daxi_config + 152
        0x00019688:    7860        `x      LDRB     r0,[r4,#1]
        0x0001968a:    7922        "y      LDRB     r2,[r4,#4]
        0x0001968c:    78a1        .x      LDRB     r1,[r4,#2]
        0x0001968e:    78e3        .x      LDRB     r3,[r4,#3]
        0x00019690:    f0020201    ....    AND      r2,r2,#1
        0x00019694:    f000007f    ....    AND      r0,r0,#0x7f
        0x00019698:    ea420040    B.@.    ORR      r0,r2,r0,LSL #1
        0x0001969c:    f363200b    c..     BFI      r0,r3,#8,#4
        0x000196a0:    f001011f    ....    AND      r1,r1,#0x1f
        0x000196a4:    ea404001    @..@    ORR      r0,r0,r1,LSL #16
        0x000196a8:    f8460c04    F...    STR      r0,[r6,#-4]
        0x000196ac:    7920         y      LDRB     r0,[r4,#4]
        0x000196ae:    f240011e    @...    MOVW     r1,#0x1e
        0x000196b2:    f2c10100    ....    MOVT     r1,#0x1000
        0x000196b6:    7108        .q      STRB     r0,[r1,#4]
        0x000196b8:    6820         h      LDR      r0,[r4,#0]
        0x000196ba:    6008        .`      STR      r0,[r1,#0]
        0x000196bc:    e003        ..      B        0x196c6 ; am_hal_daxi_config + 158
        0x000196be:    bf00        ..      NOP      
        0x000196c0:    2006        .       MOVS     r0,#6
        0x000196c2:    f8460c04    F...    STR      r0,[r6,#-4]
        0x000196c6:    6828        (h      LDR      r0,[r5,#0]
        0x000196c8:    9800        ..      LDR      r0,[sp,#0]
        0x000196ca:    f000fa1b    ....    BL       am_hal_interrupt_master_set ; 0x19b04
        0x000196ce:    2000        .       MOVS     r0,#0
        0x000196d0:    b002        ..      ADD      sp,sp,#8
        0x000196d2:    bd70        p.      POP      {r4-r6,pc}
    am_hal_daxi_control
        0x000196d4:    b5b0        ..      PUSH     {r4,r5,r7,lr}
        0x000196d6:    b084        ..      SUB      sp,sp,#0x10
        0x000196d8:    2803        .(      CMP      r0,#3
        0x000196da:    d817        ..      BHI      0x1970c ; am_hal_daxi_control + 56
        0x000196dc:    e8dff000    ....    TBB      [pc,r0]
    $d.9
        0x000196e0:    7c461a02    ..F|    DCD    2084968962
    $t.10
        0x000196e4:    2054        T       MOVS     r0,#0x54
        0x000196e6:    f6c40000    ....    MOVT     r0,#0x4800
        0x000196ea:    f8501c04    P...    LDR      r1,[r0,#-4]
        0x000196ee:    0749        I.      LSLS     r1,r1,#29
        0x000196f0:    d409        ..      BMI      0x19706 ; am_hal_daxi_control + 50
        0x000196f2:    f3bf8f4f    ..O.    DSB      
        0x000196f6:    6801        .h      LDR      r1,[r0,#0]
        0x000196f8:    f0410102    A...    ORR      r1,r1,#2
        0x000196fc:    6001        .`      STR      r1,[r0,#0]
        0x000196fe:    2000        .       MOVS     r0,#0
        0x00019700:    f2c470ff    ...p    MOVT     r0,#0x47ff
        0x00019704:    6800        .h      LDR      r0,[r0,#0]
        0x00019706:    2000        .       MOVS     r0,#0
        0x00019708:    b004        ..      ADD      sp,sp,#0x10
        0x0001970a:    bdb0        ..      POP      {r4,r5,r7,pc}
        0x0001970c:    2006        .       MOVS     r0,#6
        0x0001970e:    b004        ..      ADD      sp,sp,#0x10
        0x00019710:    bdb0        ..      POP      {r4,r5,r7,pc}
        0x00019712:    bf00        ..      NOP      
        0x00019714:    2454        T$      MOVS     r4,#0x54
        0x00019716:    f6c40400    ....    MOVT     r4,#0x4800
        0x0001971a:    f000f9eb    ....    BL       am_hal_interrupt_master_disable ; 0x19af4
        0x0001971e:    9001        ..      STR      r0,[sp,#4]
        0x00019720:    f8540c04    T...    LDR      r0,[r4,#-4]
        0x00019724:    0740        @.      LSLS     r0,r0,#29
        0x00019726:    d41b        ..      BMI      0x19760 ; am_hal_daxi_control + 140
        0x00019728:    f3bf8f4f    ..O.    DSB      
        0x0001972c:    6821        !h      LDR      r1,[r4,#0]
        0x0001972e:    2000        .       MOVS     r0,#0
        0x00019730:    f0410101    A...    ORR      r1,r1,#1
        0x00019734:    f2c470ff    ...p    MOVT     r0,#0x47ff
        0x00019738:    6021        !`      STR      r1,[r4,#0]
        0x0001973a:    6801        .h      LDR      r1,[r0,#0]
        0x0001973c:    6821        !h      LDR      r1,[r4,#0]
        0x0001973e:    0749        I.      LSLS     r1,r1,#29
        0x00019740:    d409        ..      BMI      0x19756 ; am_hal_daxi_control + 130
        0x00019742:    6821        !h      LDR      r1,[r4,#0]
        0x00019744:    0749        I.      LSLS     r1,r1,#29
        0x00019746:    bf5c        \.      ITT      PL
        0x00019748:    6821        !h      LDRPL    r1,[r4,#0]
        0x0001974a:    ea5f7141    _.Aq    LSLSPL   r1,r1,#29
        0x0001974e:    d402        ..      BMI      0x19756 ; am_hal_daxi_control + 130
        0x00019750:    6821        !h      LDR      r1,[r4,#0]
        0x00019752:    0749        I.      LSLS     r1,r1,#29
        0x00019754:    d5f2        ..      BPL      0x1973c ; am_hal_daxi_control + 104
        0x00019756:    6821        !h      LDR      r1,[r4,#0]
        0x00019758:    f0410102    A...    ORR      r1,r1,#2
        0x0001975c:    6021        !`      STR      r1,[r4,#0]
        0x0001975e:    6800        .h      LDR      r0,[r0,#0]
        0x00019760:    9801        ..      LDR      r0,[sp,#4]
        0x00019762:    f000f9cf    ....    BL       am_hal_interrupt_master_set ; 0x19b04
        0x00019766:    2000        .       MOVS     r0,#0
        0x00019768:    b004        ..      ADD      sp,sp,#0x10
        0x0001976a:    bdb0        ..      POP      {r4,r5,r7,pc}
        0x0001976c:    2454        T$      MOVS     r4,#0x54
        0x0001976e:    2500        .%      MOVS     r5,#0
        0x00019770:    f6c40400    ....    MOVT     r4,#0x4800
        0x00019774:    f2c475ff    ...u    MOVT     r5,#0x47ff
        0x00019778:    f000f9bc    ....    BL       am_hal_interrupt_master_disable ; 0x19af4
        0x0001977c:    9002        ..      STR      r0,[sp,#8]
        0x0001977e:    f000f9b9    ....    BL       am_hal_interrupt_master_disable ; 0x19af4
        0x00019782:    9003        ..      STR      r0,[sp,#0xc]
        0x00019784:    f8540c04    T...    LDR      r0,[r4,#-4]
        0x00019788:    0740        @.      LSLS     r0,r0,#29
        0x0001978a:    d418        ..      BMI      0x197be ; am_hal_daxi_control + 234
        0x0001978c:    f3bf8f4f    ..O.    DSB      
        0x00019790:    6820         h      LDR      r0,[r4,#0]
        0x00019792:    f0400001    @...    ORR      r0,r0,#1
        0x00019796:    6020         `      STR      r0,[r4,#0]
        0x00019798:    6828        (h      LDR      r0,[r5,#0]
        0x0001979a:    6820         h      LDR      r0,[r4,#0]
        0x0001979c:    0740        @.      LSLS     r0,r0,#29
        0x0001979e:    d409        ..      BMI      0x197b4 ; am_hal_daxi_control + 224
        0x000197a0:    6820         h      LDR      r0,[r4,#0]
        0x000197a2:    0740        @.      LSLS     r0,r0,#29
        0x000197a4:    bf5c        \.      ITT      PL
        0x000197a6:    6820         h      LDRPL    r0,[r4,#0]
        0x000197a8:    ea5f7040    _.@p    LSLSPL   r0,r0,#29
        0x000197ac:    d402        ..      BMI      0x197b4 ; am_hal_daxi_control + 224
        0x000197ae:    6820         h      LDR      r0,[r4,#0]
        0x000197b0:    0740        @.      LSLS     r0,r0,#29
        0x000197b2:    d5f2        ..      BPL      0x1979a ; am_hal_daxi_control + 198
        0x000197b4:    6820         h      LDR      r0,[r4,#0]
        0x000197b6:    f0400002    @...    ORR      r0,r0,#2
        0x000197ba:    6020         `      STR      r0,[r4,#0]
        0x000197bc:    6828        (h      LDR      r0,[r5,#0]
        0x000197be:    9803        ..      LDR      r0,[sp,#0xc]
        0x000197c0:    f000f9a0    ....    BL       am_hal_interrupt_master_set ; 0x19b04
        0x000197c4:    2006        .       MOVS     r0,#6
        0x000197c6:    f8440c04    D...    STR      r0,[r4,#-4]
        0x000197ca:    6828        (h      LDR      r0,[r5,#0]
        0x000197cc:    9802        ..      LDR      r0,[sp,#8]
        0x000197ce:    f000f999    ....    BL       am_hal_interrupt_master_set ; 0x19b04
        0x000197d2:    2000        .       MOVS     r0,#0
        0x000197d4:    b004        ..      ADD      sp,sp,#0x10
        0x000197d6:    bdb0        ..      POP      {r4,r5,r7,pc}
        0x000197d8:    f240001e    @...    MOVW     r0,#0x1e
        0x000197dc:    f2c10000    ....    MOVT     r0,#0x1000
        0x000197e0:    f7ffff22    ..".    BL       am_hal_daxi_config ; 0x19628
        0x000197e4:    2000        .       MOVS     r0,#0
        0x000197e6:    b004        ..      ADD      sp,sp,#0x10
        0x000197e8:    bdb0        ..      POP      {r4,r5,r7,pc}
        0x000197ea:    0000        ..      MOVS     r0,r0
    am_hal_delay_us
        0x000197ec:    f2410100    A...    MOVW     r1,#0x1000
        0x000197f0:    f2c40102    ....    MOVT     r1,#0x4002
        0x000197f4:    6809        .h      LDR      r1,[r1,#0]
        0x000197f6:    2205        ."      MOVS     r2,#5
        0x000197f8:    f0010118    ....    AND      r1,r1,#0x18
        0x000197fc:    2910        .)      CMP      r1,#0x10
        0x000197fe:    bf08        ..      IT       EQ
        0x00019800:    2206        ."      MOVEQ    r2,#6
        0x00019802:    fa00f002    ....    LSL      r0,r0,r2
        0x00019806:    f04f010f    O...    MOV      r1,#0xf
        0x0001980a:    bf08        ..      IT       EQ
        0x0001980c:    2115        .!      MOVEQ    r1,#0x15
        0x0001980e:    4281        .B      CMP      r1,r0
        0x00019810:    bf28        (.      IT       CS
        0x00019812:    4770        pG      BXCS     lr
        0x00019814:    1a40        @.      SUBS     r0,r0,r1
        0x00019816:    f24c5154    L.TQ    MOV      r1,#0xc554
        0x0001981a:    f2c00101    ....    MOVT     r1,#1
        0x0001981e:    6a49        Ij      LDR      r1,[r1,#0x24]
        0x00019820:    4708        .G      BX       r1
        0x00019822:    0000        ..      MOVS     r0,r0
    am_hal_delay_us_status_change
        0x00019824:    e92d43f0    -..C    PUSH     {r4-r9,lr}
        0x00019828:    b081        ..      SUB      sp,sp,#4
        0x0001982a:    460d        .F      MOV      r5,r1
        0x0001982c:    6809        .h      LDR      r1,[r1,#0]
        0x0001982e:    4011        .@      ANDS     r1,r1,r2
        0x00019830:    4299        .B      CMP      r1,r3
        0x00019832:    d01b        ..      BEQ      0x1986c ; am_hal_delay_us_status_change + 72
        0x00019834:    f24c5154    L.TQ    MOV      r1,#0xc554
        0x00019838:    f2c00101    ....    MOVT     r1,#1
        0x0001983c:    6a4f        Oj      LDR      r7,[r1,#0x24]
        0x0001983e:    f2410900    A...    MOVW     r9,#0x1000
        0x00019842:    4698        .F      MOV      r8,r3
        0x00019844:    4616        .F      MOV      r6,r2
        0x00019846:    1c44        D.      ADDS     r4,r0,#1
        0x00019848:    f2c40902    ....    MOVT     r9,#0x4002
        0x0001984c:    3c01        .<      SUBS     r4,#1
        0x0001984e:    d011        ..      BEQ      0x19874 ; am_hal_delay_us_status_change + 80
        0x00019850:    f8d90000    ....    LDR      r0,[r9,#0]
        0x00019854:    f0000018    ....    AND      r0,r0,#0x18
        0x00019858:    2810        .(      CMP      r0,#0x10
        0x0001985a:    f04f0011    O...    MOV      r0,#0x11
        0x0001985e:    bf08        ..      IT       EQ
        0x00019860:    202b        +       MOVEQ    r0,#0x2b
        0x00019862:    47b8        .G      BLX      r7
        0x00019864:    6828        (h      LDR      r0,[r5,#0]
        0x00019866:    4030        0@      ANDS     r0,r0,r6
        0x00019868:    4540        @E      CMP      r0,r8
        0x0001986a:    d1ef        ..      BNE      0x1984c ; am_hal_delay_us_status_change + 40
        0x0001986c:    2000        .       MOVS     r0,#0
        0x0001986e:    b001        ..      ADD      sp,sp,#4
        0x00019870:    e8bd83f0    ....    POP      {r4-r9,pc}
        0x00019874:    2004        .       MOVS     r0,#4
        0x00019876:    b001        ..      ADD      sp,sp,#4
        0x00019878:    e8bd83f0    ....    POP      {r4-r9,pc}
    am_hal_delay_us_status_check
        0x0001987c:    e92d43f0    -..C    PUSH     {r4-r9,lr}
        0x00019880:    b081        ..      SUB      sp,sp,#4
        0x00019882:    4615        .F      MOV      r5,r2
        0x00019884:    f24c5254    L.TR    MOV      r2,#0xc554
        0x00019888:    460e        .F      MOV      r6,r1
        0x0001988a:    f2c00201    ....    MOVT     r2,#1
        0x0001988e:    9908        ..      LDR      r1,[sp,#0x20]
        0x00019890:    f8d29024    ..$.    LDR      r9,[r2,#0x24]
        0x00019894:    6832        2h      LDR      r2,[r6,#0]
        0x00019896:    461c        .F      MOV      r4,r3
        0x00019898:    2900        .)      CMP      r1,#0
        0x0001989a:    ea020105    ....    AND      r1,r2,r5
        0x0001989e:    d019        ..      BEQ      0x198d4 ; am_hal_delay_us_status_check + 88
        0x000198a0:    42a1        .B      CMP      r1,r4
        0x000198a2:    d02f        /.      BEQ      0x19904 ; am_hal_delay_us_status_check + 136
        0x000198a4:    f2410800    A...    MOVW     r8,#0x1000
        0x000198a8:    f2c40802    ....    MOVT     r8,#0x4002
        0x000198ac:    1c47        G.      ADDS     r7,r0,#1
        0x000198ae:    bf00        ..      NOP      
        0x000198b0:    3f01        .?      SUBS     r7,#1
        0x000198b2:    d02b        +.      BEQ      0x1990c ; am_hal_delay_us_status_check + 144
        0x000198b4:    f8d80000    ....    LDR      r0,[r8,#0]
        0x000198b8:    f0000018    ....    AND      r0,r0,#0x18
        0x000198bc:    2810        .(      CMP      r0,#0x10
        0x000198be:    f04f0011    O...    MOV      r0,#0x11
        0x000198c2:    bf08        ..      IT       EQ
        0x000198c4:    202b        +       MOVEQ    r0,#0x2b
        0x000198c6:    47c8        .G      BLX      r9
        0x000198c8:    6830        0h      LDR      r0,[r6,#0]
        0x000198ca:    4028        (@      ANDS     r0,r0,r5
        0x000198cc:    42a0        .B      CMP      r0,r4
        0x000198ce:    d1ef        ..      BNE      0x198b0 ; am_hal_delay_us_status_check + 52
        0x000198d0:    e018        ..      B        0x19904 ; am_hal_delay_us_status_check + 136
        0x000198d2:    bf00        ..      NOP      
        0x000198d4:    42a1        .B      CMP      r1,r4
        0x000198d6:    d115        ..      BNE      0x19904 ; am_hal_delay_us_status_check + 136
        0x000198d8:    f2410800    A...    MOVW     r8,#0x1000
        0x000198dc:    f2c40802    ....    MOVT     r8,#0x4002
        0x000198e0:    1c47        G.      ADDS     r7,r0,#1
        0x000198e2:    bf00        ..      NOP      
        0x000198e4:    3f01        .?      SUBS     r7,#1
        0x000198e6:    d011        ..      BEQ      0x1990c ; am_hal_delay_us_status_check + 144
        0x000198e8:    f8d80000    ....    LDR      r0,[r8,#0]
        0x000198ec:    f0000018    ....    AND      r0,r0,#0x18
        0x000198f0:    2810        .(      CMP      r0,#0x10
        0x000198f2:    f04f0011    O...    MOV      r0,#0x11
        0x000198f6:    bf08        ..      IT       EQ
        0x000198f8:    202b        +       MOVEQ    r0,#0x2b
        0x000198fa:    47c8        .G      BLX      r9
        0x000198fc:    6830        0h      LDR      r0,[r6,#0]
        0x000198fe:    4028        (@      ANDS     r0,r0,r5
        0x00019900:    42a0        .B      CMP      r0,r4
        0x00019902:    d0ef        ..      BEQ      0x198e4 ; am_hal_delay_us_status_check + 104
        0x00019904:    2000        .       MOVS     r0,#0
        0x00019906:    b001        ..      ADD      sp,sp,#4
        0x00019908:    e8bd83f0    ....    POP      {r4-r9,pc}
        0x0001990c:    2004        .       MOVS     r0,#4
        0x0001990e:    b001        ..      ADD      sp,sp,#4
        0x00019910:    e8bd83f0    ....    POP      {r4-r9,pc}
    am_hal_fault_status_get
        0x00019914:    2800        .(      CMP      r0,#0
        0x00019916:    bf04        ..      ITT      EQ
        0x00019918:    2006        .       MOVEQ    r0,#6
        0x0001991a:    4770        pG      BXEQ     lr
        0x0001991c:    2180        .!      MOVS     r1,#0x80
        0x0001991e:    f6c40100    ....    MOVT     r1,#0x4800
        0x00019922:    68ca        .h      LDR      r2,[r1,#0xc]
        0x00019924:    f0020301    ....    AND      r3,r2,#1
        0x00019928:    7003        .p      STRB     r3,[r0,#0]
        0x0001992a:    f3c20340    ..@.    UBFX     r3,r2,#1,#1
        0x0001992e:    f3c20280    ....    UBFX     r2,r2,#2,#1
        0x00019932:    7203        .r      STRB     r3,[r0,#8]
        0x00019934:    7402        .t      STRB     r2,[r0,#0x10]
        0x00019936:    684a        Jh      LDR      r2,[r1,#4]
        0x00019938:    60c2        .`      STR      r2,[r0,#0xc]
        0x0001993a:    680a        .h      LDR      r2,[r1,#0]
        0x0001993c:    6843        Ch      LDR      r3,[r0,#4]
        0x0001993e:    431a        .C      ORRS     r2,r2,r3
        0x00019940:    6042        B`      STR      r2,[r0,#4]
        0x00019942:    6889        .h      LDR      r1,[r1,#8]
        0x00019944:    6942        Bi      LDR      r2,[r0,#0x14]
        0x00019946:    4311        .C      ORRS     r1,r1,r2
        0x00019948:    6141        Aa      STR      r1,[r0,#0x14]
        0x0001994a:    2000        .       MOVS     r0,#0
        0x0001994c:    4770        pG      BX       lr
        0x0001994e:    0000        ..      MOVS     r0,r0
    am_hal_gpio_pinconfig
        0x00019950:    b5b0        ..      PUSH     {r4,r5,r7,lr}
        0x00019952:    b084        ..      SUB      sp,sp,#0x10
        0x00019954:    287f        .(      CMP      r0,#0x7f
        0x00019956:    9103        ..      STR      r1,[sp,#0xc]
        0x00019958:    d904        ..      BLS      0x19964 ; am_hal_gpio_pinconfig + 20
        0x0001995a:    2405        .$      MOVS     r4,#5
        0x0001995c:    4620         F      MOV      r0,r4
        0x0001995e:    b004        ..      ADD      sp,sp,#0x10
        0x00019960:    bdb0        ..      POP      {r4,r5,r7,pc}
        0x00019962:    bf00        ..      NOP      
        0x00019964:    f24c3280    L..2    MOV      r2,#0xc380
        0x00019968:    ea4f1c50    O.P.    LSR      r12,r0,#5
        0x0001996c:    f2c00201    ....    MOVT     r2,#1
        0x00019970:    4604        .F      MOV      r4,r0
        0x00019972:    f852302c    R.,0    LDR      r3,[r2,r12,LSL #2]
        0x00019976:    f000021f    ....    AND      r2,r0,#0x1f
        0x0001997a:    2001        .       MOVS     r0,#1
        0x0001997c:    fa00f202    ....    LSL      r2,r0,r2
        0x00019980:    4213        .B      TST      r3,r2
        0x00019982:    d003        ..      BEQ      0x1998c ; am_hal_gpio_pinconfig + 60
        0x00019984:    2405        .$      MOVS     r4,#5
        0x00019986:    4620         F      MOV      r0,r4
        0x00019988:    b004        ..      ADD      sp,sp,#0x10
        0x0001998a:    bdb0        ..      POP      {r4,r5,r7,pc}
        0x0001998c:    0508        ..      LSLS     r0,r1,#20
        0x0001998e:    d507        ..      BPL      0x199a0 ; am_hal_gpio_pinconfig + 80
        0x00019990:    f24c5098    L..P    MOV      r0,#0xc598
        0x00019994:    f2c00001    ....    MOVT     r0,#1
        0x00019998:    f850002c    P.,.    LDR      r0,[r0,r12,LSL #2]
        0x0001999c:    4210        .B      TST      r0,r2
        0x0001999e:    d01f        ..      BEQ      0x199e0 ; am_hal_gpio_pinconfig + 144
        0x000199a0:    f000f8a8    ....    BL       am_hal_interrupt_master_disable ; 0x19af4
        0x000199a4:    f2402500    @..%    MOVW     r5,#0x200
        0x000199a8:    9002        ..      STR      r0,[sp,#8]
        0x000199aa:    f2c40501    ....    MOVT     r5,#0x4001
        0x000199ae:    2073        s       MOVS     r0,#0x73
        0x000199b0:    6028        (`      STR      r0,[r5,#0]
        0x000199b2:    9802        ..      LDR      r0,[sp,#8]
        0x000199b4:    f000f8a6    ....    BL       am_hal_interrupt_master_set ; 0x19b04
        0x000199b8:    9803        ..      LDR      r0,[sp,#0xc]
        0x000199ba:    f64f6200    O..b    MOVW     r2,#0xfe00
        0x000199be:    eb050184    ....    ADD      r1,r5,r4,LSL #2
        0x000199c2:    f6cf72ff    ...r    MOVT     r2,#0xffff
        0x000199c6:    5088        .P      STR      r0,[r1,r2]
        0x000199c8:    f000f894    ....    BL       am_hal_interrupt_master_disable ; 0x19af4
        0x000199cc:    2400        .$      MOVS     r4,#0
        0x000199ce:    9001        ..      STR      r0,[sp,#4]
        0x000199d0:    602c        ,`      STR      r4,[r5,#0]
        0x000199d2:    9801        ..      LDR      r0,[sp,#4]
        0x000199d4:    f000f896    ....    BL       am_hal_interrupt_master_set ; 0x19b04
        0x000199d8:    4620         F      MOV      r0,r4
        0x000199da:    b004        ..      ADD      sp,sp,#0x10
        0x000199dc:    bdb0        ..      POP      {r4,r5,r7,pc}
        0x000199de:    bf00        ..      NOP      
        0x000199e0:    2407        .$      MOVS     r4,#7
        0x000199e2:    4620         F      MOV      r0,r4
        0x000199e4:    b004        ..      ADD      sp,sp,#0x10
        0x000199e6:    bdb0        ..      POP      {r4,r5,r7,pc}
    am_hal_gpio_state_write
        0x000199e8:    b510        ..      PUSH     {r4,lr}
        0x000199ea:    b082        ..      SUB      sp,sp,#8
        0x000199ec:    2905        .)      CMP      r1,#5
        0x000199ee:    d819        ..      BHI      0x19a24 ; am_hal_gpio_state_write + 60
        0x000199f0:    4604        .F      MOV      r4,r0
        0x000199f2:    e8dff001    ....    TBB      [pc,r1]
    $d.5
        0x000199f6:    1b03        ..      DCW    6915
        0x000199f8:    6553412d    -ASe    DCD    1699954989
    $t.6
        0x000199fc:    f000f87a    ..z.    BL       am_hal_interrupt_master_disable ; 0x19af4
        0x00019a00:    9001        ..      STR      r0,[sp,#4]
        0x00019a02:    f004001f    ....    AND      r0,r4,#0x1f
        0x00019a06:    2101        .!      MOVS     r1,#1
        0x00019a08:    f2402214    @.."    MOVW     r2,#0x214
        0x00019a0c:    fa01f000    ....    LSL      r0,r1,r0
        0x00019a10:    f3c41141    ..A.    UBFX     r1,r4,#5,#2
        0x00019a14:    f2c40201    ....    MOVT     r2,#0x4001
        0x00019a18:    eb020181    ....    ADD      r1,r2,r1,LSL #2
        0x00019a1c:    6208        .b      STR      r0,[r1,#0x20]
        0x00019a1e:    9801        ..      LDR      r0,[sp,#4]
        0x00019a20:    f000f870    ..p.    BL       am_hal_interrupt_master_set ; 0x19b04
        0x00019a24:    2000        .       MOVS     r0,#0
        0x00019a26:    b002        ..      ADD      sp,sp,#8
        0x00019a28:    bd10        ..      POP      {r4,pc}
        0x00019a2a:    bf00        ..      NOP      
        0x00019a2c:    f000f862    ..b.    BL       am_hal_interrupt_master_disable ; 0x19af4
        0x00019a30:    9001        ..      STR      r0,[sp,#4]
        0x00019a32:    f004001f    ....    AND      r0,r4,#0x1f
        0x00019a36:    2101        .!      MOVS     r1,#1
        0x00019a38:    f2402214    @.."    MOVW     r2,#0x214
        0x00019a3c:    fa01f000    ....    LSL      r0,r1,r0
        0x00019a40:    f3c41141    ..A.    UBFX     r1,r4,#5,#2
        0x00019a44:    f2c40201    ....    MOVT     r2,#0x4001
        0x00019a48:    eb020181    ....    ADD      r1,r2,r1,LSL #2
        0x00019a4c:    6108        .a      STR      r0,[r1,#0x10]
        0x00019a4e:    e04a        J.      B        0x19ae6 ; am_hal_gpio_state_write + 254
        0x00019a50:    f000f850    ..P.    BL       am_hal_interrupt_master_disable ; 0x19af4
        0x00019a54:    f2402314    @..#    MOVW     r3,#0x214
        0x00019a58:    9001        ..      STR      r0,[sp,#4]
        0x00019a5a:    f3c41241    ..A.    UBFX     r2,r4,#5,#2
        0x00019a5e:    f2c40301    ....    MOVT     r3,#0x4001
        0x00019a62:    f004001f    ....    AND      r0,r4,#0x1f
        0x00019a66:    2101        .!      MOVS     r1,#1
        0x00019a68:    f8534022    S."@    LDR      r4,[r3,r2,LSL #2]
        0x00019a6c:    fa01f000    ....    LSL      r0,r1,r0
        0x00019a70:    4060        `@      EORS     r0,r0,r4
        0x00019a72:    f8430022    C.".    STR      r0,[r3,r2,LSL #2]
        0x00019a76:    e036        6.      B        0x19ae6 ; am_hal_gpio_state_write + 254
        0x00019a78:    f000f83c    ..<.    BL       am_hal_interrupt_master_disable ; 0x19af4
        0x00019a7c:    9001        ..      STR      r0,[sp,#4]
        0x00019a7e:    f004001f    ....    AND      r0,r4,#0x1f
        0x00019a82:    2101        .!      MOVS     r1,#1
        0x00019a84:    f2402214    @.."    MOVW     r2,#0x214
        0x00019a88:    fa01f000    ....    LSL      r0,r1,r0
        0x00019a8c:    f3c41141    ..A.    UBFX     r1,r4,#5,#2
        0x00019a90:    f2c40201    ....    MOVT     r2,#0x4001
        0x00019a94:    eb020181    ....    ADD      r1,r2,r1,LSL #2
        0x00019a98:    6508        .e      STR      r0,[r1,#0x50]
        0x00019a9a:    e024        $.      B        0x19ae6 ; am_hal_gpio_state_write + 254
        0x00019a9c:    f000f82a    ..*.    BL       am_hal_interrupt_master_disable ; 0x19af4
        0x00019aa0:    9001        ..      STR      r0,[sp,#4]
        0x00019aa2:    f004001f    ....    AND      r0,r4,#0x1f
        0x00019aa6:    2101        .!      MOVS     r1,#1
        0x00019aa8:    f2402214    @.."    MOVW     r2,#0x214
        0x00019aac:    fa01f000    ....    LSL      r0,r1,r0
        0x00019ab0:    f3c41141    ..A.    UBFX     r1,r4,#5,#2
        0x00019ab4:    f2c40201    ....    MOVT     r2,#0x4001
        0x00019ab8:    eb020181    ....    ADD      r1,r2,r1,LSL #2
        0x00019abc:    6408        .d      STR      r0,[r1,#0x40]
        0x00019abe:    e012        ..      B        0x19ae6 ; am_hal_gpio_state_write + 254
        0x00019ac0:    f000f818    ....    BL       am_hal_interrupt_master_disable ; 0x19af4
        0x00019ac4:    f2402314    @..#    MOVW     r3,#0x214
        0x00019ac8:    f3c41241    ..A.    UBFX     r2,r4,#5,#2
        0x00019acc:    f2c40301    ....    MOVT     r3,#0x4001
        0x00019ad0:    9001        ..      STR      r0,[sp,#4]
        0x00019ad2:    eb030282    ....    ADD      r2,r3,r2,LSL #2
        0x00019ad6:    f004001f    ....    AND      r0,r4,#0x1f
        0x00019ada:    2101        .!      MOVS     r1,#1
        0x00019adc:    6b13        .k      LDR      r3,[r2,#0x30]
        0x00019ade:    fa01f000    ....    LSL      r0,r1,r0
        0x00019ae2:    4058        X@      EORS     r0,r0,r3
        0x00019ae4:    6310        .c      STR      r0,[r2,#0x30]
        0x00019ae6:    9801        ..      LDR      r0,[sp,#4]
        0x00019ae8:    f000f80c    ....    BL       am_hal_interrupt_master_set ; 0x19b04
        0x00019aec:    2000        .       MOVS     r0,#0
        0x00019aee:    b002        ..      ADD      sp,sp,#8
        0x00019af0:    bd10        ..      POP      {r4,pc}
        0x00019af2:    0000        ..      MOVS     r0,r0
    am_hal_interrupt_master_disable
        0x00019af4:    f3ef8010    ....    MRS      r0,PRIMASK
        0x00019af8:    b672        r.      CPSID    i
        0x00019afa:    4770        pG      BX       lr
    am_hal_interrupt_master_enable
        0x00019afc:    f3ef8010    ....    MRS      r0,PRIMASK
        0x00019b00:    b662        b.      CPSIE    i
        0x00019b02:    4770        pG      BX       lr
    am_hal_interrupt_master_set
        0x00019b04:    f3808810    ....    MSR      PRIMASK,r0
        0x00019b08:    4770        pG      BX       lr
        0x00019b0a:    0000        ..      MOVS     r0,r0
    am_hal_mram_info_read
        0x00019b0c:    b580        ..      PUSH     {r7,lr}
        0x00019b0e:    2801        .(      CMP      r0,#1
        0x00019b10:    d010        ..      BEQ      0x19b34 ; am_hal_mram_info_read + 40
        0x00019b12:    2800        .(      CMP      r0,#0
        0x00019b14:    d14c        L.      BNE      0x19bb0 ; am_hal_mram_info_read + 164
        0x00019b16:    2000        .       MOVS     r0,#0
        0x00019b18:    ebb02f51    ..Q/    CMP      r0,r1,LSR #9
        0x00019b1c:    f04f0002    O...    MOV      r0,#2
        0x00019b20:    d14b        K.      BNE      0x19bba ; am_hal_mram_info_read + 174
        0x00019b22:    eb020c01    ....    ADD      r12,r2,r1
        0x00019b26:    f5bc7f00    ....    CMP      r12,#0x200
        0x00019b2a:    d846        F.      BHI      0x19bba ; am_hal_mram_info_read + 174
        0x00019b2c:    f04f4084    O..@    MOV      r0,#0x42000000
        0x00019b30:    b992        ..      CBNZ     r2,0x19b58 ; am_hal_mram_info_read + 76
        0x00019b32:    e03a        :.      B        0x19baa ; am_hal_mram_info_read + 158
        0x00019b34:    f5a160c0    ...`    SUB      r0,r1,#0x600
        0x00019b38:    f5107fc0    ....    CMN      r0,#0x180
        0x00019b3c:    f04f0002    O...    MOV      r0,#2
        0x00019b40:    d33b        ;.      BCC      0x19bba ; am_hal_mram_info_read + 174
        0x00019b42:    eb020c01    ....    ADD      r12,r2,r1
        0x00019b46:    f5bc6fc0    ...o    CMP      r12,#0x600
        0x00019b4a:    bf88        ..      IT       HI
        0x00019b4c:    bd80        ..      POPHI    {r7,pc}
        0x00019b4e:    f2420000    B...    MOVW     r0,#0x2000
        0x00019b52:    f2c42000    ...     MOVT     r0,#0x4200
        0x00019b56:    b342        B.      CBZ      r2,0x19baa ; am_hal_mram_info_read + 158
        0x00019b58:    eb000181    ....    ADD      r1,r0,r1,LSL #2
        0x00019b5c:    1e50        P.      SUBS     r0,r2,#1
        0x00019b5e:    2803        .(      CMP      r0,#3
        0x00019b60:    f0020c03    ....    AND      r12,r2,#3
        0x00019b64:    d314        ..      BCC      0x19b90 ; am_hal_mram_info_read + 132
        0x00019b66:    f0220203    "...    BIC      r2,r2,#3
        0x00019b6a:    bf00        ..      NOP      
        0x00019b6c:    6808        .h      LDR      r0,[r1,#0]
        0x00019b6e:    f1010e10    ....    ADD      lr,r1,#0x10
        0x00019b72:    6018        .`      STR      r0,[r3,#0]
        0x00019b74:    6848        Hh      LDR      r0,[r1,#4]
        0x00019b76:    3a04        .:      SUBS     r2,#4
        0x00019b78:    6058        X`      STR      r0,[r3,#4]
        0x00019b7a:    6888        .h      LDR      r0,[r1,#8]
        0x00019b7c:    6098        .`      STR      r0,[r3,#8]
        0x00019b7e:    68c9        .h      LDR      r1,[r1,#0xc]
        0x00019b80:    f1030010    ....    ADD      r0,r3,#0x10
        0x00019b84:    60d9        .`      STR      r1,[r3,#0xc]
        0x00019b86:    4671        qF      MOV      r1,lr
        0x00019b88:    4603        .F      MOV      r3,r0
        0x00019b8a:    d1ef        ..      BNE      0x19b6c ; am_hal_mram_info_read + 96
        0x00019b8c:    4671        qF      MOV      r1,lr
        0x00019b8e:    4603        .F      MOV      r3,r0
        0x00019b90:    f1bc0f00    ....    CMP      r12,#0
        0x00019b94:    d009        ..      BEQ      0x19baa ; am_hal_mram_info_read + 158
        0x00019b96:    6808        .h      LDR      r0,[r1,#0]
        0x00019b98:    f1bc0f01    ....    CMP      r12,#1
        0x00019b9c:    6018        .`      STR      r0,[r3,#0]
        0x00019b9e:    d004        ..      BEQ      0x19baa ; am_hal_mram_info_read + 158
        0x00019ba0:    6848        Hh      LDR      r0,[r1,#4]
        0x00019ba2:    f1bc0f02    ....    CMP      r12,#2
        0x00019ba6:    6058        X`      STR      r0,[r3,#4]
        0x00019ba8:    d104        ..      BNE      0x19bb4 ; am_hal_mram_info_read + 168
        0x00019baa:    2000        .       MOVS     r0,#0
        0x00019bac:    bd80        ..      POP      {r7,pc}
        0x00019bae:    bf00        ..      NOP      
        0x00019bb0:    2001        .       MOVS     r0,#1
        0x00019bb2:    bd80        ..      POP      {r7,pc}
        0x00019bb4:    6888        .h      LDR      r0,[r1,#8]
        0x00019bb6:    6098        .`      STR      r0,[r3,#8]
        0x00019bb8:    2000        .       MOVS     r0,#0
        0x00019bba:    bd80        ..      POP      {r7,pc}
    am_hal_mspi_configure
        0x00019bbc:    b5f0        ..      PUSH     {r4-r7,lr}
        0x00019bbe:    6802        .h      LDR      r2,[r0,#0]
        0x00019bc0:    f64b65be    K..e    MOV      r5,#0xbebe
        0x00019bc4:    f022437e    ".~C    BIC      r3,r2,#0xfe000000
        0x00019bc8:    f2c015be    ....    MOVT     r5,#0x1be
        0x00019bcc:    42ab        .B      CMP      r3,r5
        0x00019bce:    bf1c        ..      ITT      NE
        0x00019bd0:    2002        .       MOVNE    r0,#2
        0x00019bd2:    bdf0        ..      POPNE    {r4-r7,pc}
        0x00019bd4:    0192        ..      LSLS     r2,r2,#6
        0x00019bd6:    bf44        D.      ITT      MI
        0x00019bd8:    2007        .       MOVMI    r0,#7
        0x00019bda:    bdf0        ..      POPMI    {r4-r7,pc}
        0x00019bdc:    f8d0e004    ....    LDR      lr,[r0,#4]
        0x00019be0:    2200        ."      MOVS     r2,#0
        0x00019be2:    f2c40206    ....    MOVT     r2,#0x4006
        0x00019be6:    eb02330e    ...3    ADD      r3,r2,lr,LSL #12
        0x00019bea:    f8d32090    ...     LDR      r2,[r3,#0x90]
        0x00019bee:    f2405c78    @.x\    MOVW     r12,#0x578
        0x00019bf2:    f0220201    "...    BIC      r2,r2,#1
        0x00019bf6:    f8c32090    ...     STR      r2,[r3,#0x90]
        0x00019bfa:    2200        ."      MOVS     r2,#0
        0x00019bfc:    f8c3209c    ...     STR      r2,[r3,#0x9c]
        0x00019c00:    f8c32080    ...     STR      r2,[r3,#0x80]
        0x00019c04:    f2c10c00    ....    MOVT     r12,#0x1000
        0x00019c08:    f64003c4    @...    MOV      r3,#0x8c4
        0x00019c0c:    684c        Lh      LDR      r4,[r1,#4]
        0x00019c0e:    fb0ec303    ....    MLA      r3,lr,r3,r12
        0x00019c12:    680d        .h      LDR      r5,[r1,#0]
        0x00019c14:    619c        .a      STR      r4,[r3,#0x18]
        0x00019c16:    6984        .i      LDR      r4,[r0,#0x18]
        0x00019c18:    615d        ]a      STR      r5,[r3,#0x14]
        0x00019c1a:    b37c        |.      CBZ      r4,0x19c7c ; am_hal_mspi_configure + 192
        0x00019c1c:    6946        Fi      LDR      r6,[r0,#0x14]
        0x00019c1e:    2700        .'      MOVS     r7,#0
        0x00019c20:    00b5        ..      LSLS     r5,r6,#2
        0x00019c22:    eb040686    ....    ADD      r6,r4,r6,LSL #2
        0x00019c26:    f2c10706    ....    MOVT     r7,#0x1006
        0x00019c2a:    42be        .B      CMP      r6,r7
        0x00019c2c:    bf38        8.      IT       CC
        0x00019c2e:    2201        ."      MOVCC    r2,#1
        0x00019c30:    f88028c0    ...(    STRB     r2,[r0,#0x8c0]
        0x00019c34:    d30d        ..      BCC      0x19c52 ; am_hal_mspi_configure + 150
        0x00019c36:    f104020f    ....    ADD      r2,r4,#0xf
        0x00019c3a:    f004040f    ....    AND      r4,r4,#0xf
        0x00019c3e:    1b2c        ,.      SUBS     r4,r5,r4
        0x00019c40:    f06f0503    o...    MVN      r5,#3
        0x00019c44:    ea050494    ....    AND      r4,r5,r4,LSR #2
        0x00019c48:    f022020f    "...    BIC      r2,r2,#0xf
        0x00019c4c:    00a5        ..      LSLS     r5,r4,#2
        0x00019c4e:    e9c04205    ...B    STRD     r4,r2,[r0,#0x14]
        0x00019c52:    f6486239    H.9b    MOV      r2,#0x8e39
        0x00019c56:    f1a50020    .. .    SUB      r0,r5,#0x20
        0x00019c5a:    f6c302e3    ....    MOVT     r2,#0x38e3
        0x00019c5e:    fba02402    ...$    UMULL    r2,r4,r0,r2
        0x00019c62:    0922        ".      LSRS     r2,r4,#4
        0x00019c64:    f64004c4    @...    MOV      r4,#0x8c4
        0x00019c68:    fb0ec704    ....    MLA      r7,lr,r4,r12
        0x00019c6c:    f6440647    D.G.    MOV      r6,#0x4847
        0x00019c70:    42b0        .B      CMP      r0,r6
        0x00019c72:    bf88        ..      IT       HI
        0x00019c74:    f44f7280    O..r    MOVHI    r2,#0x100
        0x00019c78:    f8c72858    ..X(    STR      r2,[r7,#0x858]
        0x00019c7c:    7a08        .z      LDRB     r0,[r1,#8]
        0x00019c7e:    7258        Xr      STRB     r0,[r3,#9]
        0x00019c80:    2001        .       MOVS     r0,#1
        0x00019c82:    7218        .r      STRB     r0,[r3,#8]
        0x00019c84:    201a        .       MOVS     r0,#0x1a
        0x00019c86:    7298        .r      STRB     r0,[r3,#0xa]
        0x00019c88:    2000        .       MOVS     r0,#0
        0x00019c8a:    bdf0        ..      POP      {r4-r7,pc}
    am_hal_mspi_device_configure
        0x00019c8c:    b570        p.      PUSH     {r4-r6,lr}
        0x00019c8e:    b328        (.      CBZ      r0,0x19cdc ; am_hal_mspi_device_configure + 80
        0x00019c90:    4604        .F      MOV      r4,r0
        0x00019c92:    6800        .h      LDR      r0,[r0,#0]
        0x00019c94:    460d        .F      MOV      r5,r1
        0x00019c96:    f64b61be    K..a    MOV      r1,#0xbebe
        0x00019c9a:    f020407e     .~@    BIC      r0,r0,#0xfe000000
        0x00019c9e:    f2c011be    ....    MOVT     r1,#0x1be
        0x00019ca2:    4288        .B      CMP      r0,r1
        0x00019ca4:    d11a        ..      BNE      0x19cdc ; am_hal_mspi_device_configure + 80
        0x00019ca6:    7a20         z      LDRB     r0,[r4,#8]
        0x00019ca8:    b1d0        ..      CBZ      r0,0x19ce0 ; am_hal_mspi_device_configure + 84
        0x00019caa:    786b        kx      LDRB     r3,[r5,#1]
        0x00019cac:    782a        *x      LDRB     r2,[r5,#0]
        0x00019cae:    78ae        .x      LDRB     r6,[r5,#2]
        0x00019cb0:    2160        `!      MOVS     r1,#0x60
        0x00019cb2:    7aa8        .z      LDRB     r0,[r5,#0xa]
        0x00019cb4:    ea011143    ..C.    AND      r1,r1,r3,LSL #5
        0x00019cb8:    f8d4c004    ....    LDR      r12,[r4,#4]
        0x00019cbc:    f36611c7    f...    BFI      r1,r6,#7,#1
        0x00019cc0:    f002023f    ..?.    AND      r2,r2,#0x3f
        0x00019cc4:    2803        .(      CMP      r0,#3
        0x00019cc6:    ea412e02    A...    ORR      lr,r1,r2,LSL #8
        0x00019cca:    d00b        ..      BEQ      0x19ce4 ; am_hal_mspi_device_configure + 88
        0x00019ccc:    2802        .(      CMP      r0,#2
        0x00019cce:    d00d        ..      BEQ      0x19cec ; am_hal_mspi_device_configure + 96
        0x00019cd0:    2801        .(      CMP      r0,#1
        0x00019cd2:    bf08        ..      IT       EQ
        0x00019cd4:    f50e4e00    ...N    ADDEQ    lr,lr,#0x8000
        0x00019cd8:    e00a        ..      B        0x19cf0 ; am_hal_mspi_device_configure + 100
        0x00019cda:    bf00        ..      NOP      
        0x00019cdc:    2002        .       MOVS     r0,#2
        0x00019cde:    bd70        p.      POP      {r4-r6,pc}
        0x00019ce0:    2007        .       MOVS     r0,#7
        0x00019ce2:    bd70        p.      POP      {r4-r6,pc}
        0x00019ce4:    f50e4e40    ..@N    ADD      lr,lr,#0xc000
        0x00019ce8:    e002        ..      B        0x19cf0 ; am_hal_mspi_device_configure + 100
        0x00019cea:    bf00        ..      NOP      
        0x00019cec:    f50e4e80    ...N    ADD      lr,lr,#0x4000
        0x00019cf0:    7aee        .z      LDRB     r6,[r5,#0xb]
        0x00019cf2:    2005        .       MOVS     r0,#5
        0x00019cf4:    1e73        s.      SUBS     r3,r6,#1
        0x00019cf6:    2b1f        .+      CMP      r3,#0x1f
        0x00019cf8:    f20080a2    ....    BHI.W    0x19e40 ; am_hal_mspi_device_configure + 436
        0x00019cfc:    2101        .!      MOVS     r1,#1
        0x00019cfe:    f64802ae    H...    MOV      r2,#0x88ae
        0x00019d02:    4099        .@      LSLS     r1,r1,r3
        0x00019d04:    f2c80280    ....    MOVT     r2,#0x8080
        0x00019d08:    4211        .B      TST      r1,r2
        0x00019d0a:    f3664e15    f..N    BFI      lr,r6,#16,#6
        0x00019d0e:    d06f        o.      BEQ      0x19df0 ; am_hal_mspi_device_configure + 356
        0x00019d10:    7a68        hz      LDRB     r0,[r5,#9]
        0x00019d12:    2100        .!      MOVS     r1,#0
        0x00019d14:    f2c40106    ....    MOVT     r1,#0x4006
        0x00019d18:    ea4e6080    N..`    ORR      r0,lr,r0,LSL #26
        0x00019d1c:    eb01310c    ...1    ADD      r1,r1,r12,LSL #12
        0x00019d20:    f8c10084    ....    STR      r0,[r1,#0x84]
        0x00019d24:    7c28        (|      LDRB     r0,[r5,#0x10]
        0x00019d26:    f8d12088    ...     LDR      r2,[r1,#0x88]
        0x00019d2a:    f0220201    "...    BIC      r2,r2,#1
        0x00019d2e:    4310        .C      ORRS     r0,r0,r2
        0x00019d30:    f8c10088    ....    STR      r0,[r1,#0x88]
        0x00019d34:    6b08        .k      LDR      r0,[r1,#0x30]
        0x00019d36:    f6417203    A..r    MOV      r2,#0x1f03
        0x00019d3a:    f0200001     ...    BIC      r0,r0,#1
        0x00019d3e:    6308        .c      STR      r0,[r1,#0x30]
        0x00019d40:    f8d10090    ....    LDR      r0,[r1,#0x90]
        0x00019d44:    f6cf4200    ...B    MOVT     r2,#0xfc00
        0x00019d48:    4010        .@      ANDS     r0,r0,r2
        0x00019d4a:    7bea        .{      LDRB     r2,[r5,#0xf]
        0x00019d4c:    7b63        c{      LDRB     r3,[r4,#0xd]
        0x00019d4e:    2a00        .*      CMP      r2,#0
        0x00019d50:    f003020f    ....    AND      r2,r3,#0xf
        0x00019d54:    ea401002    @...    ORR      r0,r0,r2,LSL #4
        0x00019d58:    d008        ..      BEQ      0x19d6c ; am_hal_mspi_device_configure + 224
        0x00019d5a:    782a        *x      LDRB     r2,[r5,#0]
        0x00019d5c:    f002023f    ..?.    AND      r2,r2,#0x3f
        0x00019d60:    ea403082    @..0    ORR      r0,r0,r2,LSL #14
        0x00019d64:    f040002c    @.,.    ORR      r0,r0,#0x2c
        0x00019d68:    e001        ..      B        0x19d6e ; am_hal_mspi_device_configure + 226
        0x00019d6a:    bf00        ..      NOP      
        0x00019d6c:    300c        .0      ADDS     r0,r0,#0xc
        0x00019d6e:    7b6e        n{      LDRB     r6,[r5,#0xd]
        0x00019d70:    7baa        .{      LDRB     r2,[r5,#0xe]
        0x00019d72:    f895c009    ....    LDRB     r12,[r5,#9]
        0x00019d76:    7b2b        +{      LDRB     r3,[r5,#0xc]
        0x00019d78:    2e00        ..      CMP      r6,#0
        0x00019d7a:    bf18        ..      IT       NE
        0x00019d7c:    f0400040    @.@.    ORRNE    r0,r0,#0x40
        0x00019d80:    2a00        .*      CMP      r2,#0
        0x00019d82:    bf18        ..      IT       NE
        0x00019d84:    f0400080    @...    ORRNE    r0,r0,#0x80
        0x00019d88:    ea403043    @.C0    ORR      r0,r0,r3,LSL #13
        0x00019d8c:    f00c023f    ..?.    AND      r2,r12,#0x3f
        0x00019d90:    ea405002    @..P    ORR      r0,r0,r2,LSL #20
        0x00019d94:    f8c10090    ....    STR      r0,[r1,#0x90]
        0x00019d98:    88e8        ..      LDRH     r0,[r5,#6]
        0x00019d9a:    88aa        ..      LDRH     r2,[r5,#4]
        0x00019d9c:    2600        .&      MOVS     r6,#0
        0x00019d9e:    ea404002    @..@    ORR      r0,r0,r2,LSL #16
        0x00019da2:    f8c10094    ....    STR      r0,[r1,#0x94]
        0x00019da6:    8a68        h.      LDRH     r0,[r5,#0x12]
        0x00019da8:    7d2a        *}      LDRB     r2,[r5,#0x14]
        0x00019daa:    f36f301f    o..0    BFC      r0,#12,#20
        0x00019dae:    f362300f    b..0    BFI      r0,r2,#12,#4
        0x00019db2:    f8c10098    ....    STR      r0,[r1,#0x98]
        0x00019db6:    6b08        .k      LDR      r0,[r1,#0x30]
        0x00019db8:    2207        ."      MOVS     r2,#7
        0x00019dba:    f3621007    b...    BFI      r0,r2,#4,#4
        0x00019dbe:    6308        .c      STR      r0,[r1,#0x30]
        0x00019dc0:    69a0        .i      LDR      r0,[r4,#0x18]
        0x00019dc2:    7366        fs      STRB     r6,[r4,#0xd]
        0x00019dc4:    b378        x.      CBZ      r0,0x19e26 ; am_hal_mspi_device_configure + 410
        0x00019dc6:    2020                MOVS     r0,#0x20
        0x00019dc8:    f8c10114    ....    STR      r0,[r1,#0x114]
        0x00019dcc:    7ae8        .z      LDRB     r0,[r5,#0xb]
        0x00019dce:    1e42        B.      SUBS     r2,r0,#1
        0x00019dd0:    2a1f        .*      CMP      r2,#0x1f
        0x00019dd2:    f04f0005    O...    MOV      r0,#5
        0x00019dd6:    d833        3.      BHI      0x19e40 ; am_hal_mspi_device_configure + 436
        0x00019dd8:    2301        .#      MOVS     r3,#1
        0x00019dda:    fa03f202    ....    LSL      r2,r3,r2
        0x00019dde:    f64803ac    H...    MOV      r3,#0x88ac
        0x00019de2:    f2c80380    ....    MOVT     r3,#0x8080
        0x00019de6:    421a        .B      TST      r2,r3
        0x00019de8:    d006        ..      BEQ      0x19df8 ; am_hal_mspi_device_configure + 364
        0x00019dea:    2008        .       MOVS     r0,#8
        0x00019dec:    e008        ..      B        0x19e00 ; am_hal_mspi_device_configure + 372
        0x00019dee:    bf00        ..      NOP      
        0x00019df0:    bb33        3.      CBNZ     r3,0x19e40 ; am_hal_mspi_device_configure + 436
        0x00019df2:    f10e7e80    ...~    ADD      lr,lr,#0x1000000
        0x00019df6:    e78b        ..      B        0x19d10 ; am_hal_mspi_device_configure + 132
        0x00019df8:    0792        ..      LSLS     r2,r2,#30
        0x00019dfa:    bf08        ..      IT       EQ
        0x00019dfc:    bd70        p.      POPEQ    {r4-r6,pc}
        0x00019dfe:    200c        .       MOVS     r0,#0xc
        0x00019e00:    f8d12118    ...!    LDR      r2,[r1,#0x118]
        0x00019e04:    f022021f    "...    BIC      r2,r2,#0x1f
        0x00019e08:    4410        .D      ADD      r0,r0,r2
        0x00019e0a:    f8c10118    ....    STR      r0,[r1,#0x118]
        0x00019e0e:    6a08        .j      LDR      r0,[r1,#0x20]
        0x00019e10:    221e        ."      MOVS     r2,#0x1e
        0x00019e12:    f362200d    b..     BFI      r0,r2,#8,#6
        0x00019e16:    6208        .b      STR      r0,[r1,#0x20]
        0x00019e18:    f8d10118    ....    LDR      r0,[r1,#0x118]
        0x00019e1c:    2208        ."      MOVS     r2,#8
        0x00019e1e:    f362200c    b..     BFI      r0,r2,#8,#5
        0x00019e22:    f8c10118    ....    STR      r0,[r1,#0x118]
        0x00019e26:    7a28        (z      LDRB     r0,[r5,#8]
        0x00019e28:    72a0        .r      STRB     r0,[r4,#0xa]
        0x00019e2a:    4620         F      MOV      r0,r4
        0x00019e2c:    f001fd28    ..(.    BL       mspi_device_configure ; 0x1b880
        0x00019e30:    f8a4600d    ...`    STRH     r6,[r4,#0xd]
        0x00019e34:    7ae8        .z      LDRB     r0,[r5,#0xb]
        0x00019e36:    7320         s      STRB     r0,[r4,#0xc]
        0x00019e38:    f2427010    B..p    MOV      r0,#0x2710
        0x00019e3c:    6120         a      STR      r0,[r4,#0x10]
        0x00019e3e:    2000        .       MOVS     r0,#0
        0x00019e40:    bd70        p.      POP      {r4-r6,pc}
        0x00019e42:    0000        ..      MOVS     r0,r0
    am_hal_mspi_enable
        0x00019e44:    b5b0        ..      PUSH     {r4,r5,r7,lr}
        0x00019e46:    b084        ..      SUB      sp,sp,#0x10
        0x00019e48:    2800        .(      CMP      r0,#0
        0x00019e4a:    d04b        K.      BEQ      0x19ee4 ; am_hal_mspi_enable + 160
        0x00019e4c:    4604        .F      MOV      r4,r0
        0x00019e4e:    6800        .h      LDR      r0,[r0,#0]
        0x00019e50:    f64b62be    K..b    MOV      r2,#0xbebe
        0x00019e54:    f020417e     .~A    BIC      r1,r0,#0xfe000000
        0x00019e58:    f2c012be    ....    MOVT     r2,#0x1be
        0x00019e5c:    4291        .B      CMP      r1,r2
        0x00019e5e:    d141        A.      BNE      0x19ee4 ; am_hal_mspi_enable + 160
        0x00019e60:    7a21        !z      LDRB     r1,[r4,#8]
        0x00019e62:    2900        .)      CMP      r1,#0
        0x00019e64:    d042        B.      BEQ      0x19eec ; am_hal_mspi_enable + 168
        0x00019e66:    69a1        .i      LDR      r1,[r4,#0x18]
        0x00019e68:    b3b1        ..      CBZ      r1,0x19ed8 ; am_hal_mspi_enable + 148
        0x00019e6a:    6962        bi      LDR      r2,[r4,#0x14]
        0x00019e6c:    9102        ..      STR      r1,[sp,#8]
        0x00019e6e:    0851        Q.      LSRS     r1,r2,#1
        0x00019e70:    9101        ..      STR      r1,[sp,#4]
        0x00019e72:    2101        .!      MOVS     r1,#1
        0x00019e74:    6860        `h      LDR      r0,[r4,#4]
        0x00019e76:    f88d100c    ....    STRB     r1,[sp,#0xc]
        0x00019e7a:    f2405178    @.xQ    MOVW     r1,#0x578
        0x00019e7e:    f2c10100    ....    MOVT     r1,#0x1000
        0x00019e82:    f64002c4    @...    MOV      r2,#0x8c4
        0x00019e86:    fb001102    ....    MLA      r1,r0,r2,r1
        0x00019e8a:    3008        .0      ADDS     r0,r0,#8
        0x00019e8c:    2500        .%      MOVS     r5,#0
        0x00019e8e:    f6010228    ..(.    ADD      r2,r1,#0x828
        0x00019e92:    b2c0        ..      UXTB     r0,r0
        0x00019e94:    a901        ..      ADD      r1,sp,#4
        0x00019e96:    e9c45507    ...U    STRD     r5,r5,[r4,#0x1c]
        0x00019e9a:    f7fffb19    ....    BL       am_hal_cmdq_init ; 0x194d0
        0x00019e9e:    6860        `h      LDR      r0,[r4,#4]
        0x00019ea0:    f24021b4    @..!    MOVW     r1,#0x2b4
        0x00019ea4:    2280        ."      MOVS     r2,#0x80
        0x00019ea6:    0300        ..      LSLS     r0,r0,#12
        0x00019ea8:    f2c40106    ....    MOVT     r1,#0x4006
        0x00019eac:    f2c00240    ..@.    MOVT     r2,#0x40
        0x00019eb0:    500a        .P      STR      r2,[r1,r0]
        0x00019eb2:    f8c45854    ..TX    STR      r5,[r4,#0x854]
        0x00019eb6:    f884583c    ..<X    STRB     r5,[r4,#0x83c]
        0x00019eba:    f44f7080    O..p    MOV      r0,#0x100
        0x00019ebe:    f8a4082c    ..,.    STRH     r0,[r4,#0x82c]
        0x00019ec2:    6820         h      LDR      r0,[r4,#0]
        0x00019ec4:    f8c45838    ..8X    STR      r5,[r4,#0x838]
        0x00019ec8:    f8c45840    ..@X    STR      r5,[r4,#0x840]
        0x00019ecc:    f8c45844    ..DX    STR      r5,[r4,#0x844]
        0x00019ed0:    f8c45830    ..0X    STR      r5,[r4,#0x830]
        0x00019ed4:    f8c4585c    ..\X    STR      r5,[r4,#0x85c]
        0x00019ed8:    f0407000    @..p    ORR      r0,r0,#0x2000000
        0x00019edc:    6020         `      STR      r0,[r4,#0]
        0x00019ede:    2000        .       MOVS     r0,#0
        0x00019ee0:    b004        ..      ADD      sp,sp,#0x10
        0x00019ee2:    bdb0        ..      POP      {r4,r5,r7,pc}
        0x00019ee4:    2002        .       MOVS     r0,#2
        0x00019ee6:    b004        ..      ADD      sp,sp,#0x10
        0x00019ee8:    bdb0        ..      POP      {r4,r5,r7,pc}
        0x00019eea:    bf00        ..      NOP      
        0x00019eec:    2007        .       MOVS     r0,#7
        0x00019eee:    b004        ..      ADD      sp,sp,#0x10
        0x00019ef0:    bdb0        ..      POP      {r4,r5,r7,pc}
        0x00019ef2:    0000        ..      MOVS     r0,r0
    am_hal_mspi_initialize
        0x00019ef4:    b580        ..      PUSH     {r7,lr}
        0x00019ef6:    2802        .(      CMP      r0,#2
        0x00019ef8:    bf84        ..      ITT      HI
        0x00019efa:    2005        .       MOVHI    r0,#5
        0x00019efc:    bd80        ..      POPHI    {r7,pc}
        0x00019efe:    b1f9        ..      CBZ      r1,0x19f40 ; am_hal_mspi_initialize + 76
        0x00019f00:    f2405c78    @.x\    MOVW     r12,#0x578
        0x00019f04:    f6400ec4    @...    MOV      lr,#0x8c4
        0x00019f08:    f2c10c00    ....    MOVT     r12,#0x1000
        0x00019f0c:    fb00f20e    ....    MUL      r2,r0,lr
        0x00019f10:    f85c2002    \..     LDR      r2,[r12,r2]
        0x00019f14:    01d3        ..      LSLS     r3,r2,#7
        0x00019f16:    bf44        D.      ITT      MI
        0x00019f18:    2007        .       MOVMI    r0,#7
        0x00019f1a:    bd80        ..      POPMI    {r7,pc}
        0x00019f1c:    f64b63be    K..c    MOV      r3,#0xbebe
        0x00019f20:    fb00cc0e    ....    MLA      r12,r0,lr,r12
        0x00019f24:    f2c013be    ....    MOVT     r3,#0x1be
        0x00019f28:    f3630218    c...    BFI      r2,r3,#0,#25
        0x00019f2c:    e9cc2000    ...     STRD     r2,r0,[r12,#0]
        0x00019f30:    2000        .       MOVS     r0,#0
        0x00019f32:    f88c000c    ....    STRB     r0,[r12,#0xc]
        0x00019f36:    f8cc0018    ....    STR      r0,[r12,#0x18]
        0x00019f3a:    f8c1c000    ....    STR      r12,[r1,#0]
        0x00019f3e:    bd80        ..      POP      {r7,pc}
        0x00019f40:    2006        .       MOVS     r0,#6
        0x00019f42:    bd80        ..      POP      {r7,pc}
    am_hal_mspi_interrupt_clear
        0x00019f44:    b190        ..      CBZ      r0,0x19f6c ; am_hal_mspi_interrupt_clear + 40
        0x00019f46:    6802        .h      LDR      r2,[r0,#0]
        0x00019f48:    f64b63be    K..c    MOV      r3,#0xbebe
        0x00019f4c:    f022427e    ".~B    BIC      r2,r2,#0xfe000000
        0x00019f50:    f2c013be    ....    MOVT     r3,#0x1be
        0x00019f54:    429a        .B      CMP      r2,r3
        0x00019f56:    d109        ..      BNE      0x19f6c ; am_hal_mspi_interrupt_clear + 40
        0x00019f58:    6840        @h      LDR      r0,[r0,#4]
        0x00019f5a:    f2402208    @.."    MOVW     r2,#0x208
        0x00019f5e:    0300        ..      LSLS     r0,r0,#12
        0x00019f60:    f2c40206    ....    MOVT     r2,#0x4006
        0x00019f64:    5011        .P      STR      r1,[r2,r0]
        0x00019f66:    2000        .       MOVS     r0,#0
        0x00019f68:    4770        pG      BX       lr
        0x00019f6a:    bf00        ..      NOP      
        0x00019f6c:    2002        .       MOVS     r0,#2
        0x00019f6e:    4770        pG      BX       lr
    am_hal_mspi_interrupt_enable
        0x00019f70:    b1a0        ..      CBZ      r0,0x19f9c ; am_hal_mspi_interrupt_enable + 44
        0x00019f72:    6802        .h      LDR      r2,[r0,#0]
        0x00019f74:    f64b63be    K..c    MOV      r3,#0xbebe
        0x00019f78:    f022427e    ".~B    BIC      r2,r2,#0xfe000000
        0x00019f7c:    f2c013be    ....    MOVT     r3,#0x1be
        0x00019f80:    429a        .B      CMP      r2,r3
        0x00019f82:    d10b        ..      BNE      0x19f9c ; am_hal_mspi_interrupt_enable + 44
        0x00019f84:    6840        @h      LDR      r0,[r0,#4]
        0x00019f86:    f2402200    @.."    MOVW     r2,#0x200
        0x00019f8a:    0300        ..      LSLS     r0,r0,#12
        0x00019f8c:    f2c40206    ....    MOVT     r2,#0x4006
        0x00019f90:    5813        .X      LDR      r3,[r2,r0]
        0x00019f92:    4319        .C      ORRS     r1,r1,r3
        0x00019f94:    5011        .P      STR      r1,[r2,r0]
        0x00019f96:    2000        .       MOVS     r0,#0
        0x00019f98:    4770        pG      BX       lr
        0x00019f9a:    bf00        ..      NOP      
        0x00019f9c:    2002        .       MOVS     r0,#2
        0x00019f9e:    4770        pG      BX       lr
    am_hal_mspi_interrupt_service
        0x00019fa0:    e92d47f0    -..G    PUSH     {r4-r10,lr}
        0x00019fa4:    b084        ..      SUB      sp,sp,#0x10
        0x00019fa6:    2800        .(      CMP      r0,#0
        0x00019fa8:    d056        V.      BEQ      0x1a058 ; am_hal_mspi_interrupt_service + 184
        0x00019faa:    4604        .F      MOV      r4,r0
        0x00019fac:    6800        .h      LDR      r0,[r0,#0]
        0x00019fae:    460d        .F      MOV      r5,r1
        0x00019fb0:    f64b61be    K..a    MOV      r1,#0xbebe
        0x00019fb4:    f020407e     .~@    BIC      r0,r0,#0xfe000000
        0x00019fb8:    f2c011be    ....    MOVT     r1,#0x1be
        0x00019fbc:    4288        .B      CMP      r0,r1
        0x00019fbe:    d14b        K.      BNE      0x1a058 ; am_hal_mspi_interrupt_service + 184
        0x00019fc0:    f8d4a004    ....    LDR      r10,[r4,#4]
        0x00019fc4:    f0150fc0    ....    TST      r5,#0xc0
        0x00019fc8:    d003        ..      BEQ      0x19fd2 ; am_hal_mspi_interrupt_service + 50
        0x00019fca:    f10a000b    ....    ADD      r0,r10,#0xb
        0x00019fce:    f7fff901    ....    BL       am_gpu_power_disable ; 0x191d4
        0x00019fd2:    f894083c    ..<.    LDRB     r0,[r4,#0x83c]
        0x00019fd6:    2800        .(      CMP      r0,#0
        0x00019fd8:    d042        B.      BEQ      0x1a060 ; am_hal_mspi_interrupt_service + 192
        0x00019fda:    6a60        `j      LDR      r0,[r4,#0x24]
        0x00019fdc:    4328        (C      ORRS     r0,r0,r5
        0x00019fde:    f4105fc6    ..._    TST      r0,#0x18c0
        0x00019fe2:    6260        `b      STR      r0,[r4,#0x24]
        0x00019fe4:    f0008082    ....    BEQ.W    0x1a0ec ; am_hal_mspi_interrupt_service + 332
        0x00019fe8:    6861        ah      LDR      r1,[r4,#4]
        0x00019fea:    f2400800    @...    MOVW     r8,#0
        0x00019fee:    f2c40806    ....    MOVT     r8,#0x4006
        0x00019ff2:    eb083101    ...1    ADD      r1,r8,r1,LSL #12
        0x00019ff6:    f8d12104    ...!    LDR      r2,[r1,#0x104]
        0x00019ffa:    07d2        ..      LSLS     r2,r2,#31
        0x00019ffc:    d00c        ..      BEQ      0x1a018 ; am_hal_mspi_interrupt_service + 120
        0x00019ffe:    f8d12104    ...!    LDR      r2,[r1,#0x104]
        0x0001a002:    07d2        ..      LSLS     r2,r2,#31
        0x0001a004:    bf1c        ..      ITT      NE
        0x0001a006:    f8d12104    ...!    LDRNE    r2,[r1,#0x104]
        0x0001a00a:    ea5f72c2    _..r    LSLSNE   r2,r2,#31
        0x0001a00e:    d003        ..      BEQ      0x1a018 ; am_hal_mspi_interrupt_service + 120
        0x0001a010:    f8d12104    ...!    LDR      r2,[r1,#0x104]
        0x0001a014:    07d2        ..      LSLS     r2,r2,#31
        0x0001a016:    d1ee        ..      BNE      0x19ff6 ; am_hal_mspi_interrupt_service + 86
        0x0001a018:    eb08360a    ...6    ADD      r6,r8,r10,LSL #12
        0x0001a01c:    f8d61204    ....    LDR      r1,[r6,#0x204]
        0x0001a020:    4308        .C      ORRS     r0,r0,r1
        0x0001a022:    6260        `b      STR      r0,[r4,#0x24]
        0x0001a024:    f04f30ff    O..0    MOV      r0,#0xffffffff
        0x0001a028:    f8c60208    ....    STR      r0,[r6,#0x208]
        0x0001a02c:    8ca0        ..      LDRH     r0,[r4,#0x24]
        0x0001a02e:    f4105fc4    ..._    TST      r0,#0x1880
        0x0001a032:    d05f        _.      BEQ      0x1a0f4 ; am_hal_mspi_interrupt_service + 340
        0x0001a034:    f8d60100    ....    LDR      r0,[r6,#0x100]
        0x0001a038:    f04f0901    O...    MOV      r9,#1
        0x0001a03c:    f0200003     ...    BIC      r0,r0,#3
        0x0001a040:    f8c60100    ....    STR      r0,[r6,#0x100]
        0x0001a044:    6b30        0k      LDR      r0,[r6,#0x30]
        0x0001a046:    f0204080     ..@    BIC      r0,r0,#0x40000000
        0x0001a04a:    6330        0c      STR      r0,[r6,#0x30]
        0x0001a04c:    6b30        0k      LDR      r0,[r6,#0x30]
        0x0001a04e:    f0404080    @..@    ORR      r0,r0,#0x40000000
        0x0001a052:    6330        0c      STR      r0,[r6,#0x30]
        0x0001a054:    e050        P.      B        0x1a0f8 ; am_hal_mspi_interrupt_service + 344
        0x0001a056:    bf00        ..      NOP      
        0x0001a058:    2002        .       MOVS     r0,#2
        0x0001a05a:    b004        ..      ADD      sp,sp,#0x10
        0x0001a05c:    e8bd87f0    ....    POP      {r4-r10,pc}
        0x0001a060:    6a20         j      LDR      r0,[r4,#0x20]
        0x0001a062:    2800        .(      CMP      r0,#0
        0x0001a064:    d042        B.      BEQ      0x1a0ec ; am_hal_mspi_interrupt_service + 332
        0x0001a066:    f2405078    @.xP    MOVW     r0,#0x578
        0x0001a06a:    6a62        bj      LDR      r2,[r4,#0x24]
        0x0001a06c:    f2c10000    ....    MOVT     r0,#0x1000
        0x0001a070:    f64001c4    @...    MOV      r1,#0x8c4
        0x0001a074:    fb0a0901    ....    MLA      r9,r10,r1,r0
        0x0001a078:    ea420005    B...    ORR      r0,r2,r5
        0x0001a07c:    6260        `b      STR      r0,[r4,#0x24]
        0x0001a07e:    f8d90828    ..(.    LDR      r0,[r9,#0x828]
        0x0001a082:    2800        .(      CMP      r0,#0
        0x0001a084:    f000809d    ....    BEQ.W    0x1a1c2 ; am_hal_mspi_interrupt_service + 546
        0x0001a088:    4669        iF      MOV      r1,sp
        0x0001a08a:    f7fff9d3    ....    BL       am_hal_cmdq_get_status ; 0x19434
        0x0001a08e:    2800        .(      CMP      r0,#0
        0x0001a090:    f0408097    @...    BNE.W    0x1a1c2 ; am_hal_mspi_interrupt_service + 546
        0x0001a094:    f04f0800    O...    MOV      r8,#0
        0x0001a098:    f8848834    ..4.    STRB     r8,[r4,#0x834]
        0x0001a09c:    f8940834    ..4.    LDRB     r0,[r4,#0x834]
        0x0001a0a0:    2800        .(      CMP      r0,#0
        0x0001a0a2:    f040808b    @...    BNE.W    0x1a1bc ; am_hal_mspi_interrupt_service + 540
        0x0001a0a6:    69e0        .i      LDR      r0,[r4,#0x1c]
        0x0001a0a8:    9900        ..      LDR      r1,[sp,#0]
        0x0001a0aa:    4288        .B      CMP      r0,r1
        0x0001a0ac:    f0008086    ....    BEQ.W    0x1a1bc ; am_hal_mspi_interrupt_service + 540
        0x0001a0b0:    3001        .0      ADDS     r0,#1
        0x0001a0b2:    61e0        .a      STR      r0,[r4,#0x1c]
        0x0001a0b4:    b2c0        ..      UXTB     r0,r0
        0x0001a0b6:    eb040680    ....    ADD      r6,r4,r0,LSL #2
        0x0001a0ba:    4637        7F      MOV      r7,r6
        0x0001a0bc:    f8570f28    W.(.    LDR      r0,[r7,#0x28]!
        0x0001a0c0:    6a21        !j      LDR      r1,[r4,#0x20]
        0x0001a0c2:    2800        .(      CMP      r0,#0
        0x0001a0c4:    f1a10001    ....    SUB      r0,r1,#1
        0x0001a0c8:    6220         b      STR      r0,[r4,#0x20]
        0x0001a0ca:    d0e7        ..      BEQ      0x1a09c ; am_hal_mspi_interrupt_service + 252
        0x0001a0cc:    2000        .       MOVS     r0,#0
        0x0001a0ce:    2100        .!      MOVS     r1,#0
        0x0001a0d0:    f7fffb00    ....    BL       am_hal_daxi_control ; 0x196d4
        0x0001a0d4:    683a        :h      LDR      r2,[r7,#0]
        0x0001a0d6:    f8d60428    ..(.    LDR      r0,[r6,#0x428]
        0x0001a0da:    2100        .!      MOVS     r1,#0
        0x0001a0dc:    4790        .G      BLX      r2
        0x0001a0de:    f894082c    ..,.    LDRB     r0,[r4,#0x82c]
        0x0001a0e2:    2802        .(      CMP      r0,#2
        0x0001a0e4:    bf18        ..      IT       NE
        0x0001a0e6:    f8c78000    ....    STRNE    r8,[r7,#0]
        0x0001a0ea:    e7d7        ..      B        0x1a09c ; am_hal_mspi_interrupt_service + 252
        0x0001a0ec:    2000        .       MOVS     r0,#0
        0x0001a0ee:    b004        ..      ADD      sp,sp,#0x10
        0x0001a0f0:    e8bd87f0    ....    POP      {r4-r10,pc}
        0x0001a0f4:    f04f0900    O...    MOV      r9,#0
        0x0001a0f8:    f8d42850    ..P(    LDR      r2,[r4,#0x850]
        0x0001a0fc:    f8d41848    ..H.    LDR      r1,[r4,#0x848]
        0x0001a100:    3201        .2      ADDS     r2,#1
        0x0001a102:    fbb2f7f1    ....    UDIV     r7,r2,r1
        0x0001a106:    f8d40840    ..@.    LDR      r0,[r4,#0x840]
        0x0001a10a:    fb072111    ...!    MLS      r1,r7,r1,r2
        0x0001a10e:    f8d43854    ..T8    LDR      r3,[r4,#0x854]
        0x0001a112:    eb010141    ..A.    ADD      r1,r1,r1,LSL #1
        0x0001a116:    3801        .8      SUBS     r0,#1
        0x0001a118:    eb0305c1    ....    ADD      r5,r3,r1,LSL #3
        0x0001a11c:    f8c42850    ..P(    STR      r2,[r4,#0x850]
        0x0001a120:    f8c40840    ..@.    STR      r0,[r4,#0x840]
        0x0001a124:    462f        /F      MOV      r7,r5
        0x0001a126:    f8571f10    W...    LDR      r1,[r7,#0x10]!
        0x0001a12a:    b169        i.      CBZ      r1,0x1a148 ; am_hal_mspi_interrupt_service + 424
        0x0001a12c:    2000        .       MOVS     r0,#0
        0x0001a12e:    2100        .!      MOVS     r1,#0
        0x0001a130:    f04f0a00    O...    MOV      r10,#0
        0x0001a134:    f7ffface    ....    BL       am_hal_daxi_control ; 0x196d4
        0x0001a138:    683a        :h      LDR      r2,[r7,#0]
        0x0001a13a:    6968        hi      LDR      r0,[r5,#0x14]
        0x0001a13c:    4649        IF      MOV      r1,r9
        0x0001a13e:    4790        .G      BLX      r2
        0x0001a140:    f8c7a000    ....    STR      r10,[r7,#0]
        0x0001a144:    f8d40840    ..@.    LDR      r0,[r4,#0x840]
        0x0001a148:    b330        0.      CBZ      r0,0x1a198 ; am_hal_mspi_interrupt_service + 504
        0x0001a14a:    f8d41850    ..P.    LDR      r1,[r4,#0x850]
        0x0001a14e:    f8d42848    ..H(    LDR      r2,[r4,#0x848]
        0x0001a152:    3101        .1      ADDS     r1,#1
        0x0001a154:    fbb1f3f2    ....    UDIV     r3,r1,r2
        0x0001a158:    6867        gh      LDR      r7,[r4,#4]
        0x0001a15a:    fb031112    ....    MLS      r1,r3,r2,r1
        0x0001a15e:    2000        .       MOVS     r0,#0
        0x0001a160:    f8d42854    ..T(    LDR      r2,[r4,#0x854]
        0x0001a164:    eb083307    ...3    ADD      r3,r8,r7,LSL #12
        0x0001a168:    6260        `b      STR      r0,[r4,#0x24]
        0x0001a16a:    eb010141    ..A.    ADD      r1,r1,r1,LSL #1
        0x0001a16e:    f8c30100    ....    STR      r0,[r3,#0x100]
        0x0001a172:    f8527031    R.1p    LDR      r7,[r2,r1,LSL #3]
        0x0001a176:    eb0201c1    ....    ADD      r1,r2,r1,LSL #3
        0x0001a17a:    f8c37108    ...q    STR      r7,[r3,#0x108]
        0x0001a17e:    684a        Jh      LDR      r2,[r1,#4]
        0x0001a180:    f8c3210c    ...!    STR      r2,[r3,#0x10c]
        0x0001a184:    688a        .h      LDR      r2,[r1,#8]
        0x0001a186:    f8c32110    ...!    STR      r2,[r3,#0x110]
        0x0001a18a:    68c9        .h      LDR      r1,[r1,#0xc]
        0x0001a18c:    f8c31100    ....    STR      r1,[r3,#0x100]
        0x0001a190:    b004        ..      ADD      sp,sp,#0x10
        0x0001a192:    e8bd87f0    ....    POP      {r4-r10,pc}
        0x0001a196:    bf00        ..      NOP      
        0x0001a198:    2000        .       MOVS     r0,#0
        0x0001a19a:    f884083c    ..<.    STRB     r0,[r4,#0x83c]
        0x0001a19e:    f8c60100    ....    STR      r0,[r6,#0x100]
        0x0001a1a2:    f8d61200    ....    LDR      r1,[r6,#0x200]
        0x0001a1a6:    f0210140    !.@.    BIC      r1,r1,#0x40
        0x0001a1aa:    f8c61200    ....    STR      r1,[r6,#0x200]
        0x0001a1ae:    2180        .!      MOVS     r1,#0x80
        0x0001a1b0:    f8c612b4    ....    STR      r1,[r6,#0x2b4]
        0x0001a1b4:    b004        ..      ADD      sp,sp,#0x10
        0x0001a1b6:    e8bd87f0    ....    POP      {r4-r10,pc}
        0x0001a1ba:    bf00        ..      NOP      
        0x0001a1bc:    f8940834    ..4.    LDRB     r0,[r4,#0x834]
        0x0001a1c0:    b180        ..      CBZ      r0,0x1a1e4 ; am_hal_mspi_interrupt_service + 580
        0x0001a1c2:    6a20         j      LDR      r0,[r4,#0x20]
        0x0001a1c4:    b950        P.      CBNZ     r0,0x1a1dc ; am_hal_mspi_interrupt_service + 572
        0x0001a1c6:    2000        .       MOVS     r0,#0
        0x0001a1c8:    f2c40006    ....    MOVT     r0,#0x4006
        0x0001a1cc:    eb00300a    ...0    ADD      r0,r0,r10,LSL #12
        0x0001a1d0:    f8d01100    ....    LDR      r1,[r0,#0x100]
        0x0001a1d4:    f0210103    !...    BIC      r1,r1,#3
        0x0001a1d8:    f8c01100    ....    STR      r1,[r0,#0x100]
        0x0001a1dc:    2000        .       MOVS     r0,#0
        0x0001a1de:    b004        ..      ADD      sp,sp,#0x10
        0x0001a1e0:    e8bd87f0    ....    POP      {r4-r10,pc}
        0x0001a1e4:    f4155fc4    ..._    TST      r5,#0x1880
        0x0001a1e8:    d106        ..      BNE      0x1a1f8 ; am_hal_mspi_interrupt_service + 600
        0x0001a1ea:    f89d000e    ....    LDRB     r0,[sp,#0xe]
        0x0001a1ee:    b918        ..      CBNZ     r0,0x1a1f8 ; am_hal_mspi_interrupt_service + 600
        0x0001a1f0:    6a20         j      LDR      r0,[r4,#0x20]
        0x0001a1f2:    2800        .(      CMP      r0,#0
        0x0001a1f4:    d1f2        ..      BNE      0x1a1dc ; am_hal_mspi_interrupt_service + 572
        0x0001a1f6:    e049        I.      B        0x1a28c ; am_hal_mspi_interrupt_service + 748
        0x0001a1f8:    69e0        .i      LDR      r0,[r4,#0x1c]
        0x0001a1fa:    6a21        !j      LDR      r1,[r4,#0x20]
        0x0001a1fc:    3001        .0      ADDS     r0,#1
        0x0001a1fe:    61e0        .a      STR      r0,[r4,#0x1c]
        0x0001a200:    b2c0        ..      UXTB     r0,r0
        0x0001a202:    eb040780    ....    ADD      r7,r4,r0,LSL #2
        0x0001a206:    463d        =F      MOV      r5,r7
        0x0001a208:    f8550f28    U.(.    LDR      r0,[r5,#0x28]!
        0x0001a20c:    2800        .(      CMP      r0,#0
        0x0001a20e:    f1a10001    ....    SUB      r0,r1,#1
        0x0001a212:    6220         b      STR      r0,[r4,#0x20]
        0x0001a214:    d010        ..      BEQ      0x1a238 ; am_hal_mspi_interrupt_service + 664
        0x0001a216:    2000        .       MOVS     r0,#0
        0x0001a218:    2100        .!      MOVS     r1,#0
        0x0001a21a:    f04f0800    O...    MOV      r8,#0
        0x0001a21e:    f7fffa59    ..Y.    BL       am_hal_daxi_control ; 0x196d4
        0x0001a222:    682a        *h      LDR      r2,[r5,#0]
        0x0001a224:    f8d70428    ..(.    LDR      r0,[r7,#0x428]
        0x0001a228:    2101        .!      MOVS     r1,#1
        0x0001a22a:    4790        .G      BLX      r2
        0x0001a22c:    f894082c    ..,.    LDRB     r0,[r4,#0x82c]
        0x0001a230:    2802        .(      CMP      r0,#2
        0x0001a232:    bf18        ..      IT       NE
        0x0001a234:    f8c58000    ....    STRNE    r8,[r5,#0]
        0x0001a238:    4620         F      MOV      r0,r4
        0x0001a23a:    f001fb07    ....    BL       mspi_cq_disable ; 0x1b84c
        0x0001a23e:    2800        .(      CMP      r0,#0
        0x0001a240:    d1cd        ..      BNE      0x1a1de ; am_hal_mspi_interrupt_service + 574
        0x0001a242:    2000        .       MOVS     r0,#0
        0x0001a244:    f2c40006    ....    MOVT     r0,#0x4006
        0x0001a248:    eb00300a    ...0    ADD      r0,r0,r10,LSL #12
        0x0001a24c:    f8d01100    ....    LDR      r1,[r0,#0x100]
        0x0001a250:    f6090228    ..(.    ADD      r2,r9,#0x828
        0x0001a254:    f0210103    !...    BIC      r1,r1,#3
        0x0001a258:    f8c01100    ....    STR      r1,[r0,#0x100]
        0x0001a25c:    6b01        .k      LDR      r1,[r0,#0x30]
        0x0001a25e:    f0214180    !..A    BIC      r1,r1,#0x40000000
        0x0001a262:    6301        .c      STR      r1,[r0,#0x30]
        0x0001a264:    6b01        .k      LDR      r1,[r0,#0x30]
        0x0001a266:    f0414180    A..A    ORR      r1,r1,#0x40000000
        0x0001a26a:    6301        .c      STR      r1,[r0,#0x30]
        0x0001a26c:    f8d012ac    ....    LDR      r1,[r0,#0x2ac]
        0x0001a270:    f8c012ac    ....    STR      r1,[r0,#0x2ac]
        0x0001a274:    6810        .h      LDR      r0,[r2,#0]
        0x0001a276:    f7fff88f    ....    BL       am_hal_cmdq_error_resume ; 0x19398
        0x0001a27a:    6a20         j      LDR      r0,[r4,#0x20]
        0x0001a27c:    b130        0.      CBZ      r0,0x1a28c ; am_hal_mspi_interrupt_service + 748
        0x0001a27e:    4620         F      MOV      r0,r4
        0x0001a280:    f001faf2    ....    BL       mspi_cq_enable ; 0x1b868
        0x0001a284:    2800        .(      CMP      r0,#0
        0x0001a286:    d1aa        ..      BNE      0x1a1de ; am_hal_mspi_interrupt_service + 574
        0x0001a288:    e7b2        ..      B        0x1a1f0 ; am_hal_mspi_interrupt_service + 592
        0x0001a28a:    bf00        ..      NOP      
        0x0001a28c:    4620         F      MOV      r0,r4
        0x0001a28e:    f001fadd    ....    BL       mspi_cq_disable ; 0x1b84c
        0x0001a292:    2800        .(      CMP      r0,#0
        0x0001a294:    d1a3        ..      BNE      0x1a1de ; am_hal_mspi_interrupt_service + 574
        0x0001a296:    e794        ..      B        0x1a1c2 ; am_hal_mspi_interrupt_service + 546
    am_hal_mspi_interrupt_status_get
        0x0001a298:    b1c0        ..      CBZ      r0,0x1a2cc ; am_hal_mspi_interrupt_status_get + 52
        0x0001a29a:    6803        .h      LDR      r3,[r0,#0]
        0x0001a29c:    f0234c7e    #.~L    BIC      r12,r3,#0xfe000000
        0x0001a2a0:    f64b63be    K..c    MOV      r3,#0xbebe
        0x0001a2a4:    f2c013be    ....    MOVT     r3,#0x1be
        0x0001a2a8:    459c        .E      CMP      r12,r3
        0x0001a2aa:    d10f        ..      BNE      0x1a2cc ; am_hal_mspi_interrupt_status_get + 52
        0x0001a2ac:    6840        @h      LDR      r0,[r0,#4]
        0x0001a2ae:    2300        .#      MOVS     r3,#0
        0x0001a2b0:    f2c40306    ....    MOVT     r3,#0x4006
        0x0001a2b4:    eb033300    ...3    ADD      r3,r3,r0,LSL #12
        0x0001a2b8:    f8d30204    ....    LDR      r0,[r3,#0x204]
        0x0001a2bc:    2a00        .*      CMP      r2,#0
        0x0001a2be:    bf1c        ..      ITT      NE
        0x0001a2c0:    f8d32200    ..."    LDRNE    r2,[r3,#0x200]
        0x0001a2c4:    4010        .@      ANDNE    r0,r0,r2
        0x0001a2c6:    6008        .`      STR      r0,[r1,#0]
        0x0001a2c8:    2000        .       MOVS     r0,#0
        0x0001a2ca:    4770        pG      BX       lr
        0x0001a2cc:    2002        .       MOVS     r0,#2
        0x0001a2ce:    4770        pG      BX       lr
    am_hal_mspi_nonblocking_transfer
        0x0001a2d0:    e92d43f0    -..C    PUSH     {r4-r9,lr}
        0x0001a2d4:    b083        ..      SUB      sp,sp,#0xc
        0x0001a2d6:    b1a8        ..      CBZ      r0,0x1a304 ; am_hal_mspi_nonblocking_transfer + 52
        0x0001a2d8:    4604        .F      MOV      r4,r0
        0x0001a2da:    6800        .h      LDR      r0,[r0,#0]
        0x0001a2dc:    460f        .F      MOV      r7,r1
        0x0001a2de:    f64b61be    K..a    MOV      r1,#0xbebe
        0x0001a2e2:    f020407e     .~@    BIC      r0,r0,#0xfe000000
        0x0001a2e6:    f2c011be    ....    MOVT     r1,#0x1be
        0x0001a2ea:    4288        .B      CMP      r0,r1
        0x0001a2ec:    d10a        ..      BNE      0x1a304 ; am_hal_mspi_nonblocking_transfer + 52
        0x0001a2ee:    69a0        .i      LDR      r0,[r4,#0x18]
        0x0001a2f0:    b1c0        ..      CBZ      r0,0x1a324 ; am_hal_mspi_nonblocking_transfer + 84
        0x0001a2f2:    f894082c    ..,.    LDRB     r0,[r4,#0x82c]
        0x0001a2f6:    2802        .(      CMP      r0,#2
        0x0001a2f8:    d10a        ..      BNE      0x1a310 ; am_hal_mspi_nonblocking_transfer + 64
        0x0001a2fa:    2607        .&      MOVS     r6,#7
        0x0001a2fc:    4630        0F      MOV      r0,r6
        0x0001a2fe:    b003        ..      ADD      sp,sp,#0xc
        0x0001a300:    e8bd83f0    ....    POP      {r4-r9,pc}
        0x0001a304:    2602        .&      MOVS     r6,#2
        0x0001a306:    4630        0F      MOV      r0,r6
        0x0001a308:    b003        ..      ADD      sp,sp,#0xc
        0x0001a30a:    e8bd83f0    ....    POP      {r4-r9,pc}
        0x0001a30e:    bf00        ..      NOP      
        0x0001a310:    7aa1        .z      LDRB     r1,[r4,#0xa]
        0x0001a312:    4698        .F      MOV      r8,r3
        0x0001a314:    f00101fe    ....    AND      r1,r1,#0xfe
        0x0001a318:    4615        .F      MOV      r5,r2
        0x0001a31a:    290a        .)      CMP      r1,#0xa
        0x0001a31c:    d108        ..      BNE      0x1a330 ; am_hal_mspi_nonblocking_transfer + 96
        0x0001a31e:    7a39        9z      LDRB     r1,[r7,#8]
        0x0001a320:    0789        ..      LSLS     r1,r1,#30
        0x0001a322:    d005        ..      BEQ      0x1a330 ; am_hal_mspi_nonblocking_transfer + 96
        0x0001a324:    2607        .&      MOVS     r6,#7
        0x0001a326:    4630        0F      MOV      r0,r6
        0x0001a328:    b003        ..      ADD      sp,sp,#0xc
        0x0001a32a:    e8bd83f0    ....    POP      {r4-r9,pc}
        0x0001a32e:    bf00        ..      NOP      
        0x0001a330:    f1b80f00    ....    CMP      r8,#0
        0x0001a334:    46c1        .F      MOV      r9,r8
        0x0001a336:    d113        ..      BNE      0x1a360 ; am_hal_mspi_nonblocking_transfer + 144
        0x0001a338:    f8d41838    ..8.    LDR      r1,[r4,#0x838]
        0x0001a33c:    4308        .C      ORRS     r0,r0,r1
        0x0001a33e:    d10d        ..      BNE      0x1a35c ; am_hal_mspi_nonblocking_transfer + 140
        0x0001a340:    f8d40858    ..X.    LDR      r0,[r4,#0x858]
        0x0001a344:    f8d4185c    ..\.    LDR      r1,[r4,#0x85c]
        0x0001a348:    f64b59c9    K..Y    MOV      r9,#0xbdc9
        0x0001a34c:    f2c00901    ....    MOVT     r9,#1
        0x0001a350:    ebb10f50    ..P.    CMP      r1,r0,LSR #1
        0x0001a354:    bf38        8.      IT       CC
        0x0001a356:    f04f0900    O...    MOVCC    r9,#0
        0x0001a35a:    e001        ..      B        0x1a360 ; am_hal_mspi_nonblocking_transfer + 144
        0x0001a35c:    f04f0900    O...    MOV      r9,#0
        0x0001a360:    6860        `h      LDR      r0,[r4,#4]
        0x0001a362:    300b        .0      ADDS     r0,r0,#0xb
        0x0001a364:    f7feff38    ..8.    BL       am_gpu_power_enable ; 0x191d8
        0x0001a368:    6a20         j      LDR      r0,[r4,#0x20]
        0x0001a36a:    f5b07f80    ....    CMP      r0,#0x100
        0x0001a36e:    d105        ..      BNE      0x1a37c ; am_hal_mspi_nonblocking_transfer + 172
        0x0001a370:    2605        .&      MOVS     r6,#5
        0x0001a372:    4630        0F      MOV      r0,r6
        0x0001a374:    b003        ..      ADD      sp,sp,#0xc
        0x0001a376:    e8bd83f0    ....    POP      {r4-r9,pc}
        0x0001a37a:    bf00        ..      NOP      
        0x0001a37c:    1e68        h.      SUBS     r0,r5,#1
        0x0001a37e:    fab0f080    ....    CLZ      r0,r0
        0x0001a382:    0940        @.      LSRS     r0,r0,#5
        0x0001a384:    00c1        ..      LSLS     r1,r0,#3
        0x0001a386:    f8d40828    ..(.    LDR      r0,[r4,#0x828]
        0x0001a38a:    aa02        ..      ADD      r2,sp,#8
        0x0001a38c:    ab01        ..      ADD      r3,sp,#4
        0x0001a38e:    2d00        .-      CMP      r5,#0
        0x0001a390:    bf08        ..      IT       EQ
        0x0001a392:    2103        .!      MOVEQ    r1,#3
        0x0001a394:    f7feff54    ..T.    BL       am_hal_cmdq_alloc_block ; 0x19240
        0x0001a398:    4606        .F      MOV      r6,r0
        0x0001a39a:    2800        .(      CMP      r0,#0
        0x0001a39c:    d1ae        ..      BNE      0x1a2fc ; am_hal_mspi_nonblocking_transfer + 44
        0x0001a39e:    9a02        ..      LDR      r2,[sp,#8]
        0x0001a3a0:    4620         F      MOV      r0,r4
        0x0001a3a2:    4629        )F      MOV      r1,r5
        0x0001a3a4:    463b        ;F      MOV      r3,r7
        0x0001a3a6:    f001f84d    ..M.    BL       build_dma_cmdlist ; 0x1b444
        0x0001a3aa:    b148        H.      CBZ      r0,0x1a3c0 ; am_hal_mspi_nonblocking_transfer + 240
        0x0001a3ac:    4606        .F      MOV      r6,r0
        0x0001a3ae:    f8d40828    ..(.    LDR      r0,[r4,#0x828]
        0x0001a3b2:    f7fff921    ..!.    BL       am_hal_cmdq_release_block ; 0x195f8
        0x0001a3b6:    4630        0F      MOV      r0,r6
        0x0001a3b8:    b003        ..      ADD      sp,sp,#0xc
        0x0001a3ba:    e8bd83f0    ....    POP      {r4-r9,pc}
        0x0001a3be:    bf00        ..      NOP      
        0x0001a3c0:    f89d0004    ....    LDRB     r0,[sp,#4]
        0x0001a3c4:    990a        ..      LDR      r1,[sp,#0x28]
        0x0001a3c6:    eb040080    ....    ADD      r0,r4,r0,LSL #2
        0x0001a3ca:    f8c09028    ..(.    STR      r9,[r0,#0x28]
        0x0001a3ce:    f8c01428    ..(.    STR      r1,[r0,#0x428]
        0x0001a3d2:    f7fffb8f    ....    BL       am_hal_interrupt_master_disable ; 0x19af4
        0x0001a3d6:    4606        .F      MOV      r6,r0
        0x0001a3d8:    f8d40828    ..(.    LDR      r0,[r4,#0x828]
        0x0001a3dc:    4649        IF      MOV      r1,r9
        0x0001a3de:    f1b90f00    ....    CMP      r9,#0
        0x0001a3e2:    bf18        ..      IT       NE
        0x0001a3e4:    2101        .!      MOVNE    r1,#1
        0x0001a3e6:    f7fff8d3    ....    BL       am_hal_cmdq_post_block ; 0x19590
        0x0001a3ea:    4605        .F      MOV      r5,r0
        0x0001a3ec:    b140        @.      CBZ      r0,0x1a400 ; am_hal_mspi_nonblocking_transfer + 304
        0x0001a3ee:    4630        0F      MOV      r0,r6
        0x0001a3f0:    f7fffb88    ....    BL       am_hal_interrupt_master_set ; 0x19b04
        0x0001a3f4:    f8d40828    ..(.    LDR      r0,[r4,#0x828]
        0x0001a3f8:    f7fff8fe    ....    BL       am_hal_cmdq_release_block ; 0x195f8
        0x0001a3fc:    e01f        ..      B        0x1a43e ; am_hal_mspi_nonblocking_transfer + 366
        0x0001a3fe:    bf00        ..      NOP      
        0x0001a400:    6a27        'j      LDR      r7,[r4,#0x20]
        0x0001a402:    f8d41830    ..0.    LDR      r1,[r4,#0x830]
        0x0001a406:    1c78        x.      ADDS     r0,r7,#1
        0x0001a408:    6220         b      STR      r0,[r4,#0x20]
        0x0001a40a:    1c48        H.      ADDS     r0,r1,#1
        0x0001a40c:    f1b80f00    ....    CMP      r8,#0
        0x0001a410:    f8c40830    ..0.    STR      r0,[r4,#0x830]
        0x0001a414:    d004        ..      BEQ      0x1a420 ; am_hal_mspi_nonblocking_transfer + 336
        0x0001a416:    2000        .       MOVS     r0,#0
        0x0001a418:    f884082d    ..-.    STRB     r0,[r4,#0x82d]
        0x0001a41c:    e009        ..      B        0x1a432 ; am_hal_mspi_nonblocking_transfer + 354
        0x0001a41e:    bf00        ..      NOP      
        0x0001a420:    f1b90f00    ....    CMP      r9,#0
        0x0001a424:    d002        ..      BEQ      0x1a42c ; am_hal_mspi_nonblocking_transfer + 348
        0x0001a426:    2000        .       MOVS     r0,#0
        0x0001a428:    e003        ..      B        0x1a432 ; am_hal_mspi_nonblocking_transfer + 354
        0x0001a42a:    bf00        ..      NOP      
        0x0001a42c:    f8d4085c    ..\.    LDR      r0,[r4,#0x85c]
        0x0001a430:    3001        .0      ADDS     r0,#1
        0x0001a432:    f8c4085c    ..\.    STR      r0,[r4,#0x85c]
        0x0001a436:    4630        0F      MOV      r0,r6
        0x0001a438:    f7fffb64    ..d.    BL       am_hal_interrupt_master_set ; 0x19b04
        0x0001a43c:    b127        '.      CBZ      r7,0x1a448 ; am_hal_mspi_nonblocking_transfer + 376
        0x0001a43e:    462e        .F      MOV      r6,r5
        0x0001a440:    4630        0F      MOV      r0,r6
        0x0001a442:    b003        ..      ADD      sp,sp,#0xc
        0x0001a444:    e8bd83f0    ....    POP      {r4-r9,pc}
        0x0001a448:    4620         F      MOV      r0,r4
        0x0001a44a:    f001fa0d    ....    BL       mspi_cq_enable ; 0x1b868
        0x0001a44e:    4606        .F      MOV      r6,r0
        0x0001a450:    2800        .(      CMP      r0,#0
        0x0001a452:    bf08        ..      IT       EQ
        0x0001a454:    462e        .F      MOVEQ    r6,r5
        0x0001a456:    4630        0F      MOV      r0,r6
        0x0001a458:    b003        ..      ADD      sp,sp,#0xc
        0x0001a45a:    e8bd83f0    ....    POP      {r4-r9,pc}
        0x0001a45e:    0000        ..      MOVS     r0,r0
    am_hal_mspi_power_control
        0x0001a460:    b570        p.      PUSH     {r4-r6,lr}
        0x0001a462:    b1a8        ..      CBZ      r0,0x1a490 ; am_hal_mspi_power_control + 48
        0x0001a464:    4604        .F      MOV      r4,r0
        0x0001a466:    6800        .h      LDR      r0,[r0,#0]
        0x0001a468:    f64b65be    K..e    MOV      r5,#0xbebe
        0x0001a46c:    f2c015be    ....    MOVT     r5,#0x1be
        0x0001a470:    f020437e     .~C    BIC      r3,r0,#0xfe000000
        0x0001a474:    42ab        .B      CMP      r3,r5
        0x0001a476:    d10b        ..      BNE      0x1a490 ; am_hal_mspi_power_control + 48
        0x0001a478:    1e4b        K.      SUBS     r3,r1,#1
        0x0001a47a:    2b02        .+      CMP      r3,#2
        0x0001a47c:    d20a        ..      BCS      0x1a494 ; am_hal_mspi_power_control + 52
        0x0001a47e:    f8d41840    ..@.    LDR      r1,[r4,#0x840]
        0x0001a482:    b919        ..      CBNZ     r1,0x1a48c ; am_hal_mspi_power_control + 44
        0x0001a484:    6a21        !j      LDR      r1,[r4,#0x20]
        0x0001a486:    2900        .)      CMP      r1,#0
        0x0001a488:    f00080cc    ....    BEQ.W    0x1a624 ; am_hal_mspi_power_control + 452
        0x0001a48c:    2003        .       MOVS     r0,#3
        0x0001a48e:    bd70        p.      POP      {r4-r6,pc}
        0x0001a490:    2002        .       MOVS     r0,#2
        0x0001a492:    bd70        p.      POP      {r4-r6,pc}
        0x0001a494:    2900        .)      CMP      r1,#0
        0x0001a496:    bf1c        ..      ITT      NE
        0x0001a498:    2006        .       MOVNE    r0,#6
        0x0001a49a:    bd70        p.      POPNE    {r4-r6,pc}
        0x0001a49c:    2a00        .*      CMP      r2,#0
        0x0001a49e:    f00080b7    ....    BEQ.W    0x1a610 ; am_hal_mspi_power_control + 432
        0x0001a4a2:    f8940860    ..`.    LDRB     r0,[r4,#0x860]
        0x0001a4a6:    2800        .(      CMP      r0,#0
        0x0001a4a8:    f00080ba    ....    BEQ.W    0x1a620 ; am_hal_mspi_power_control + 448
        0x0001a4ac:    7920         y      LDRB     r0,[r4,#4]
        0x0001a4ae:    300e        .0      ADDS     r0,r0,#0xe
        0x0001a4b0:    b2c0        ..      UXTB     r0,r0
        0x0001a4b2:    f000fc1f    ....    BL       am_hal_pwrctrl_periph_enable ; 0x1acf4
        0x0001a4b6:    6862        bh      LDR      r2,[r4,#4]
        0x0001a4b8:    2000        .       MOVS     r0,#0
        0x0001a4ba:    f8d41864    ..d.    LDR      r1,[r4,#0x864]
        0x0001a4be:    f2c40006    ....    MOVT     r0,#0x4006
        0x0001a4c2:    eb003202    ...2    ADD      r2,r0,r2,LSL #12
        0x0001a4c6:    f8c21080    ....    STR      r1,[r2,#0x80]
        0x0001a4ca:    6861        ah      LDR      r1,[r4,#4]
        0x0001a4cc:    f8d42868    ..h(    LDR      r2,[r4,#0x868]
        0x0001a4d0:    eb003101    ...1    ADD      r1,r0,r1,LSL #12
        0x0001a4d4:    f8c12084    ...     STR      r2,[r1,#0x84]
        0x0001a4d8:    6861        ah      LDR      r1,[r4,#4]
        0x0001a4da:    f8d4286c    ..l(    LDR      r2,[r4,#0x86c]
        0x0001a4de:    eb003101    ...1    ADD      r1,r0,r1,LSL #12
        0x0001a4e2:    f8c12088    ...     STR      r2,[r1,#0x88]
        0x0001a4e6:    6861        ah      LDR      r1,[r4,#4]
        0x0001a4e8:    f8d42870    ..p(    LDR      r2,[r4,#0x870]
        0x0001a4ec:    eb003101    ...1    ADD      r1,r0,r1,LSL #12
        0x0001a4f0:    f8c1208c    ...     STR      r2,[r1,#0x8c]
        0x0001a4f4:    6861        ah      LDR      r1,[r4,#4]
        0x0001a4f6:    f8d42874    ..t(    LDR      r2,[r4,#0x874]
        0x0001a4fa:    eb003101    ...1    ADD      r1,r0,r1,LSL #12
        0x0001a4fe:    f8c12090    ...     STR      r2,[r1,#0x90]
        0x0001a502:    6861        ah      LDR      r1,[r4,#4]
        0x0001a504:    f8d42878    ..x(    LDR      r2,[r4,#0x878]
        0x0001a508:    eb003101    ...1    ADD      r1,r0,r1,LSL #12
        0x0001a50c:    f8c12094    ...     STR      r2,[r1,#0x94]
        0x0001a510:    6861        ah      LDR      r1,[r4,#4]
        0x0001a512:    f8d4287c    ..|(    LDR      r2,[r4,#0x87c]
        0x0001a516:    eb003101    ...1    ADD      r1,r0,r1,LSL #12
        0x0001a51a:    f8c12098    ...     STR      r2,[r1,#0x98]
        0x0001a51e:    6861        ah      LDR      r1,[r4,#4]
        0x0001a520:    f8d42880    ...(    LDR      r2,[r4,#0x880]
        0x0001a524:    eb003101    ...1    ADD      r1,r0,r1,LSL #12
        0x0001a528:    f8c1209c    ...     STR      r2,[r1,#0x9c]
        0x0001a52c:    6861        ah      LDR      r1,[r4,#4]
        0x0001a52e:    f8d42884    ...(    LDR      r2,[r4,#0x884]
        0x0001a532:    eb003101    ...1    ADD      r1,r0,r1,LSL #12
        0x0001a536:    f8c120a0    ...     STR      r2,[r1,#0xa0]
        0x0001a53a:    6861        ah      LDR      r1,[r4,#4]
        0x0001a53c:    f8d42888    ...(    LDR      r2,[r4,#0x888]
        0x0001a540:    eb003101    ...1    ADD      r1,r0,r1,LSL #12
        0x0001a544:    630a        .c      STR      r2,[r1,#0x30]
        0x0001a546:    6861        ah      LDR      r1,[r4,#4]
        0x0001a548:    f8d4288c    ...(    LDR      r2,[r4,#0x88c]
        0x0001a54c:    eb003101    ...1    ADD      r1,r0,r1,LSL #12
        0x0001a550:    644a        Jd      STR      r2,[r1,#0x44]
        0x0001a552:    6861        ah      LDR      r1,[r4,#4]
        0x0001a554:    f8d42890    ...(    LDR      r2,[r4,#0x890]
        0x0001a558:    eb003101    ...1    ADD      r1,r0,r1,LSL #12
        0x0001a55c:    648a        .d      STR      r2,[r1,#0x48]
        0x0001a55e:    6861        ah      LDR      r1,[r4,#4]
        0x0001a560:    f8d42894    ...(    LDR      r2,[r4,#0x894]
        0x0001a564:    eb003101    ...1    ADD      r1,r0,r1,LSL #12
        0x0001a568:    64ca        .d      STR      r2,[r1,#0x4c]
        0x0001a56a:    6861        ah      LDR      r1,[r4,#4]
        0x0001a56c:    f8d4289c    ...(    LDR      r2,[r4,#0x89c]
        0x0001a570:    eb003101    ...1    ADD      r1,r0,r1,LSL #12
        0x0001a574:    f8c122a8    ..."    STR      r2,[r1,#0x2a8]
        0x0001a578:    6861        ah      LDR      r1,[r4,#4]
        0x0001a57a:    f8d428a0    ...(    LDR      r2,[r4,#0x8a0]
        0x0001a57e:    eb003101    ...1    ADD      r1,r0,r1,LSL #12
        0x0001a582:    f8c122b8    ..."    STR      r2,[r1,#0x2b8]
        0x0001a586:    6861        ah      LDR      r1,[r4,#4]
        0x0001a588:    f8d428a4    ...(    LDR      r2,[r4,#0x8a4]
        0x0001a58c:    eb003101    ...1    ADD      r1,r0,r1,LSL #12
        0x0001a590:    f8c122c0    ..."    STR      r2,[r1,#0x2c0]
        0x0001a594:    6861        ah      LDR      r1,[r4,#4]
        0x0001a596:    f8d428a8    ...(    LDR      r2,[r4,#0x8a8]
        0x0001a59a:    eb003101    ...1    ADD      r1,r0,r1,LSL #12
        0x0001a59e:    f8c122c4    ..."    STR      r2,[r1,#0x2c4]
        0x0001a5a2:    6861        ah      LDR      r1,[r4,#4]
        0x0001a5a4:    f8d428ac    ...(    LDR      r2,[r4,#0x8ac]
        0x0001a5a8:    eb003101    ...1    ADD      r1,r0,r1,LSL #12
        0x0001a5ac:    f8c12200    ..."    STR      r2,[r1,#0x200]
        0x0001a5b0:    6861        ah      LDR      r1,[r4,#4]
        0x0001a5b2:    f89428b0    ...(    LDRB     r2,[r4,#0x8b0]
        0x0001a5b6:    eb003101    ...1    ADD      r1,r0,r1,LSL #12
        0x0001a5ba:    f8c122b4    ..."    STR      r2,[r1,#0x2b4]
        0x0001a5be:    6861        ah      LDR      r1,[r4,#4]
        0x0001a5c0:    f8d428b4    ...(    LDR      r2,[r4,#0x8b4]
        0x0001a5c4:    eb003101    ...1    ADD      r1,r0,r1,LSL #12
        0x0001a5c8:    f8c12114    ...!    STR      r2,[r1,#0x114]
        0x0001a5cc:    6861        ah      LDR      r1,[r4,#4]
        0x0001a5ce:    f8d428b8    ...(    LDR      r2,[r4,#0x8b8]
        0x0001a5d2:    eb003101    ...1    ADD      r1,r0,r1,LSL #12
        0x0001a5d6:    f8c12118    ...!    STR      r2,[r1,#0x118]
        0x0001a5da:    6861        ah      LDR      r1,[r4,#4]
        0x0001a5dc:    f8d428bc    ...(    LDR      r2,[r4,#0x8bc]
        0x0001a5e0:    eb003101    ...1    ADD      r1,r0,r1,LSL #12
        0x0001a5e4:    620a        .b      STR      r2,[r1,#0x20]
        0x0001a5e6:    f8d41898    ....    LDR      r1,[r4,#0x898]
        0x0001a5ea:    6862        bh      LDR      r2,[r4,#4]
        0x0001a5ec:    f0210101    !...    BIC      r1,r1,#1
        0x0001a5f0:    eb003002    ...0    ADD      r0,r0,r2,LSL #12
        0x0001a5f4:    f8c012a0    ....    STR      r1,[r0,#0x2a0]
        0x0001a5f8:    f8940898    ....    LDRB     r0,[r4,#0x898]
        0x0001a5fc:    07c0        ..      LSLS     r0,r0,#31
        0x0001a5fe:    d002        ..      BEQ      0x1a606 ; am_hal_mspi_power_control + 422
        0x0001a600:    4620         F      MOV      r0,r4
        0x0001a602:    f001f931    ..1.    BL       mspi_cq_enable ; 0x1b868
        0x0001a606:    2000        .       MOVS     r0,#0
        0x0001a608:    f8840860    ..`.    STRB     r0,[r4,#0x860]
        0x0001a60c:    bd70        p.      POP      {r4-r6,pc}
        0x0001a60e:    bf00        ..      NOP      
        0x0001a610:    7920         y      LDRB     r0,[r4,#4]
        0x0001a612:    300e        .0      ADDS     r0,r0,#0xe
        0x0001a614:    b2c0        ..      UXTB     r0,r0
        0x0001a616:    f000fb6d    ..m.    BL       am_hal_pwrctrl_periph_enable ; 0x1acf4
        0x0001a61a:    2000        .       MOVS     r0,#0
        0x0001a61c:    bd70        p.      POP      {r4-r6,pc}
        0x0001a61e:    bf00        ..      NOP      
        0x0001a620:    2007        .       MOVS     r0,#7
        0x0001a622:    bd70        p.      POP      {r4-r6,pc}
        0x0001a624:    2600        .&      MOVS     r6,#0
        0x0001a626:    2a00        .*      CMP      r2,#0
        0x0001a628:    f2c40606    ....    MOVT     r6,#0x4006
        0x0001a62c:    d064        d.      BEQ      0x1a6f8 ; am_hal_mspi_power_control + 664
        0x0001a62e:    6860        `h      LDR      r0,[r4,#4]
        0x0001a630:    eb063000    ...0    ADD      r0,r6,r0,LSL #12
        0x0001a634:    f8d01080    ....    LDR      r1,[r0,#0x80]
        0x0001a638:    f8c41864    ..d.    STR      r1,[r4,#0x864]
        0x0001a63c:    f8d01084    ....    LDR      r1,[r0,#0x84]
        0x0001a640:    f8c41868    ..h.    STR      r1,[r4,#0x868]
        0x0001a644:    f8d01088    ....    LDR      r1,[r0,#0x88]
        0x0001a648:    f8c4186c    ..l.    STR      r1,[r4,#0x86c]
        0x0001a64c:    f8d0108c    ....    LDR      r1,[r0,#0x8c]
        0x0001a650:    f8c41870    ..p.    STR      r1,[r4,#0x870]
        0x0001a654:    f8d01090    ....    LDR      r1,[r0,#0x90]
        0x0001a658:    f8c41874    ..t.    STR      r1,[r4,#0x874]
        0x0001a65c:    f8d01094    ....    LDR      r1,[r0,#0x94]
        0x0001a660:    f8c41878    ..x.    STR      r1,[r4,#0x878]
        0x0001a664:    f8d01098    ....    LDR      r1,[r0,#0x98]
        0x0001a668:    f8c4187c    ..|.    STR      r1,[r4,#0x87c]
        0x0001a66c:    f8d0109c    ....    LDR      r1,[r0,#0x9c]
        0x0001a670:    f8c41880    ....    STR      r1,[r4,#0x880]
        0x0001a674:    f8d010a0    ....    LDR      r1,[r0,#0xa0]
        0x0001a678:    f8c41884    ....    STR      r1,[r4,#0x884]
        0x0001a67c:    6b01        .k      LDR      r1,[r0,#0x30]
        0x0001a67e:    f8c41888    ....    STR      r1,[r4,#0x888]
        0x0001a682:    6c41        Al      LDR      r1,[r0,#0x44]
        0x0001a684:    f8c4188c    ....    STR      r1,[r4,#0x88c]
        0x0001a688:    6c81        .l      LDR      r1,[r0,#0x48]
        0x0001a68a:    f8c41890    ....    STR      r1,[r4,#0x890]
        0x0001a68e:    6cc1        .l      LDR      r1,[r0,#0x4c]
        0x0001a690:    f8c41894    ....    STR      r1,[r4,#0x894]
        0x0001a694:    f8d012a8    ....    LDR      r1,[r0,#0x2a8]
        0x0001a698:    f8c4189c    ....    STR      r1,[r4,#0x89c]
        0x0001a69c:    f8d012b8    ....    LDR      r1,[r0,#0x2b8]
        0x0001a6a0:    f8c418a0    ....    STR      r1,[r4,#0x8a0]
        0x0001a6a4:    f8d012c0    ....    LDR      r1,[r0,#0x2c0]
        0x0001a6a8:    f8c418a4    ....    STR      r1,[r4,#0x8a4]
        0x0001a6ac:    f8d012c4    ....    LDR      r1,[r0,#0x2c4]
        0x0001a6b0:    f8c418a8    ....    STR      r1,[r4,#0x8a8]
        0x0001a6b4:    f8d01200    ....    LDR      r1,[r0,#0x200]
        0x0001a6b8:    f8c418ac    ....    STR      r1,[r4,#0x8ac]
        0x0001a6bc:    f8d012b0    ....    LDR      r1,[r0,#0x2b0]
        0x0001a6c0:    f8c418b0    ....    STR      r1,[r4,#0x8b0]
        0x0001a6c4:    f8d01114    ....    LDR      r1,[r0,#0x114]
        0x0001a6c8:    f8c418b4    ....    STR      r1,[r4,#0x8b4]
        0x0001a6cc:    f8d01118    ....    LDR      r1,[r0,#0x118]
        0x0001a6d0:    f8c418b8    ....    STR      r1,[r4,#0x8b8]
        0x0001a6d4:    6a01        .j      LDR      r1,[r0,#0x20]
        0x0001a6d6:    f8c418bc    ....    STR      r1,[r4,#0x8bc]
        0x0001a6da:    f8d012a0    ....    LDR      r1,[r0,#0x2a0]
        0x0001a6de:    f8c41898    ....    STR      r1,[r4,#0x898]
        0x0001a6e2:    f8d002a0    ....    LDR      r0,[r0,#0x2a0]
        0x0001a6e6:    07c0        ..      LSLS     r0,r0,#31
        0x0001a6e8:    d002        ..      BEQ      0x1a6f0 ; am_hal_mspi_power_control + 656
        0x0001a6ea:    4620         F      MOV      r0,r4
        0x0001a6ec:    f001f8ae    ....    BL       mspi_cq_disable ; 0x1b84c
        0x0001a6f0:    6820         h      LDR      r0,[r4,#0]
        0x0001a6f2:    2101        .!      MOVS     r1,#1
        0x0001a6f4:    f8841860    ..`.    STRB     r1,[r4,#0x860]
        0x0001a6f8:    f020407e     .~@    BIC      r0,r0,#0xfe000000
        0x0001a6fc:    42a8        .B      CMP      r0,r5
        0x0001a6fe:    d109        ..      BNE      0x1a714 ; am_hal_mspi_power_control + 692
        0x0001a700:    6860        `h      LDR      r0,[r4,#4]
        0x0001a702:    f64172ff    A..r    MOV      r2,#0x1fff
        0x0001a706:    eb063000    ...0    ADD      r0,r6,r0,LSL #12
        0x0001a70a:    f8d01200    ....    LDR      r1,[r0,#0x200]
        0x0001a70e:    4391        .C      BICS     r1,r1,r2
        0x0001a710:    f8c01200    ....    STR      r1,[r0,#0x200]
        0x0001a714:    6860        `h      LDR      r0,[r4,#4]
        0x0001a716:    eb063100    ...1    ADD      r1,r6,r0,LSL #12
        0x0001a71a:    f8d11090    ....    LDR      r1,[r1,#0x90]
        0x0001a71e:    07c9        ..      LSLS     r1,r1,#31
        0x0001a720:    d004        ..      BEQ      0x1a72c ; am_hal_mspi_power_control + 716
        0x0001a722:    2001        .       MOVS     r0,#1
        0x0001a724:    2100        .!      MOVS     r1,#0
        0x0001a726:    f7feffd5    ....    BL       am_hal_daxi_control ; 0x196d4
        0x0001a72a:    6860        `h      LDR      r0,[r4,#4]
        0x0001a72c:    300e        .0      ADDS     r0,r0,#0xe
        0x0001a72e:    b2c0        ..      UXTB     r0,r0
        0x0001a730:    f000fa46    ..F.    BL       am_hal_pwrctrl_periph_disable ; 0x1abc0
        0x0001a734:    2000        .       MOVS     r0,#0
        0x0001a736:    bd70        p.      POP      {r4-r6,pc}
    am_hal_pwrctrl_control
        0x0001a738:    b570        p.      PUSH     {r4-r6,lr}
        0x0001a73a:    2803        .(      CMP      r0,#3
        0x0001a73c:    d81e        ..      BHI      0x1a77c ; am_hal_pwrctrl_control + 68
        0x0001a73e:    e8dff000    ....    TBB      [pc,r0]
    $d.19
        0x0001a742:    1f03        ..      DCW    7939
        0x0001a744:    bf00452f    /E..    DCD    3204465967
    $t.20
        0x0001a748:    f2400400    @...    MOVW     r4,#0
        0x0001a74c:    f2c10400    ....    MOVT     r4,#0x1000
        0x0001a750:    6820         h      LDR      r0,[r4,#0]
        0x0001a752:    f2403540    @.@5    MOVW     r5,#0x340
        0x0001a756:    1c41        A.      ADDS     r1,r0,#1
        0x0001a758:    f2c40502    ....    MOVT     r5,#0x4002
        0x0001a75c:    d10a        ..      BNE      0x1a774 ; am_hal_pwrctrl_control + 60
        0x0001a75e:    2001        .       MOVS     r0,#1
        0x0001a760:    f24041c4    @..A    MOV      r1,#0x4c4
        0x0001a764:    2201        ."      MOVS     r2,#1
        0x0001a766:    4623        #F      MOV      r3,r4
        0x0001a768:    f7fff9d0    ....    BL       am_hal_mram_info_read ; 0x19b0c
        0x0001a76c:    bbb0        ..      CBNZ     r0,0x1a7dc ; am_hal_pwrctrl_control + 164
        0x0001a76e:    6820         h      LDR      r0,[r4,#0]
        0x0001a770:    1c41        A.      ADDS     r1,r0,#1
        0x0001a772:    d033        3.      BEQ      0x1a7dc ; am_hal_pwrctrl_control + 164
        0x0001a774:    2801        .(      CMP      r0,#1
        0x0001a776:    d933        3.      BLS      0x1a7e0 ; am_hal_pwrctrl_control + 168
        0x0001a778:    2000        .       MOVS     r0,#0
        0x0001a77a:    e054        T.      B        0x1a826 ; am_hal_pwrctrl_control + 238
        0x0001a77c:    2006        .       MOVS     r0,#6
        0x0001a77e:    bd70        p.      POP      {r4-r6,pc}
        0x0001a780:    f2411000    A...    MOVW     r0,#0x1100
        0x0001a784:    f2c40002    ....    MOVT     r0,#0x4002
        0x0001a788:    f8500cf8    P...    LDR      r0,[r0,#-0xf8]
        0x0001a78c:    02c0        ..      LSLS     r0,r0,#11
        0x0001a78e:    d505        ..      BPL      0x1a79c ; am_hal_pwrctrl_control + 100
        0x0001a790:    2012        .       MOVS     r0,#0x12
        0x0001a792:    f000fa15    ....    BL       am_hal_pwrctrl_periph_disable ; 0x1abc0
        0x0001a796:    2800        .(      CMP      r0,#0
        0x0001a798:    bf18        ..      IT       NE
        0x0001a79a:    bd70        p.      POPNE    {r4-r6,pc}
        0x0001a79c:    2000        .       MOVS     r0,#0
        0x0001a79e:    bd70        p.      POP      {r4-r6,pc}
        0x0001a7a0:    f64f50e4    O..P    MOV      r0,#0xfde4
        0x0001a7a4:    f2403140    @.@1    MOVW     r1,#0x340
        0x0001a7a8:    f6cf70ff    ...p    MOVT     r0,#0xffff
        0x0001a7ac:    f2c40102    ....    MOVT     r1,#0x4002
        0x0001a7b0:    580a        .X      LDR      r2,[r1,r0]
        0x0001a7b2:    2320         #      MOVS     r3,#0x20
        0x0001a7b4:    f3630287    c...    BFI      r2,r3,#2,#6
        0x0001a7b8:    500a        .P      STR      r2,[r1,r0]
        0x0001a7ba:    f64f50e0    O..P    MOV      r0,#0xfde0
        0x0001a7be:    f6cf70ff    ...p    MOVT     r0,#0xffff
        0x0001a7c2:    2201        ."      MOVS     r2,#1
        0x0001a7c4:    500a        .P      STR      r2,[r1,r0]
        0x0001a7c6:    2000        .       MOVS     r0,#0
        0x0001a7c8:    bd70        p.      POP      {r4-r6,pc}
        0x0001a7ca:    bf00        ..      NOP      
        0x0001a7cc:    f2411100    A...    MOVW     r1,#0x1100
        0x0001a7d0:    f2c40102    ....    MOVT     r1,#0x4002
        0x0001a7d4:    2000        .       MOVS     r0,#0
        0x0001a7d6:    f8410cfc    A...    STR      r0,[r1,#-0xfc]
        0x0001a7da:    bd70        p.      POP      {r4-r6,pc}
        0x0001a7dc:    2000        .       MOVS     r0,#0
        0x0001a7de:    6020         `      STR      r0,[r4,#0]
        0x0001a7e0:    6ba8        .k      LDR      r0,[r5,#0x38]
        0x0001a7e2:    210a        .!      MOVS     r1,#0xa
        0x0001a7e4:    f02050f8     ..P    BIC      r0,r0,#0x1f000000
        0x0001a7e8:    63a8        .c      STR      r0,[r5,#0x38]
        0x0001a7ea:    69a8        .i      LDR      r0,[r5,#0x18]
        0x0001a7ec:    f42000f8     ...    BIC      r0,r0,#0x7c0000
        0x0001a7f0:    61a8        .a      STR      r0,[r5,#0x18]
        0x0001a7f2:    6868        hh      LDR      r0,[r5,#4]
        0x0001a7f4:    f361601c    a..`    BFI      r0,r1,#24,#5
        0x0001a7f8:    6068        h`      STR      r0,[r5,#4]
        0x0001a7fa:    6868        hh      LDR      r0,[r5,#4]
        0x0001a7fc:    f36120ce    a..     BFI      r0,r1,#11,#4
        0x0001a800:    6068        h`      STR      r0,[r5,#4]
        0x0001a802:    69a8        .i      LDR      r0,[r5,#0x18]
        0x0001a804:    210f        .!      MOVS     r1,#0xf
        0x0001a806:    f361200c    a..     BFI      r0,r1,#8,#5
        0x0001a80a:    61a8        .a      STR      r0,[r5,#0x18]
        0x0001a80c:    6968        hi      LDR      r0,[r5,#0x14]
        0x0001a80e:    f44010f0    @...    ORR      r0,r0,#0x1e0000
        0x0001a812:    6168        ha      STR      r0,[r5,#0x14]
        0x0001a814:    6a28        (j      LDR      r0,[r5,#0x20]
        0x0001a816:    f361509a    a..P    BFI      r0,r1,#22,#5
        0x0001a81a:    6228        (b      STR      r0,[r5,#0x20]
        0x0001a81c:    6a28        (j      LDR      r0,[r5,#0x20]
        0x0001a81e:    f44010f0    @...    ORR      r0,r0,#0x1e0000
        0x0001a822:    6228        (b      STR      r0,[r5,#0x20]
        0x0001a824:    2001        .       MOVS     r0,#1
        0x0001a826:    68a9        .h      LDR      r1,[r5,#8]
        0x0001a828:    220a        ."      MOVS     r2,#0xa
        0x0001a82a:    f362619d    b..a    BFI      r1,r2,#26,#4
        0x0001a82e:    60a9        .`      STR      r1,[r5,#8]
        0x0001a830:    68a9        .h      LDR      r1,[r5,#8]
        0x0001a832:    f3623150    b.P1    BFI      r1,r2,#13,#4
        0x0001a836:    60a9        .`      STR      r1,[r5,#8]
        0x0001a838:    69e9        .i      LDR      r1,[r5,#0x1c]
        0x0001a83a:    f0417170    A.pq    ORR      r1,r1,#0x3c00000
        0x0001a83e:    61e9        .a      STR      r1,[r5,#0x1c]
        0x0001a840:    69e9        .i      LDR      r1,[r5,#0x1c]
        0x0001a842:    f44151f0    A..Q    ORR      r1,r1,#0x1e00
        0x0001a846:    61e9        .a      STR      r1,[r5,#0x1c]
        0x0001a848:    6c29        )l      LDR      r1,[r5,#0x40]
        0x0001a84a:    f0414100    A..A    ORR      r1,r1,#0x80000000
        0x0001a84e:    6429        )d      STR      r1,[r5,#0x40]
        0x0001a850:    6c29        )l      LDR      r1,[r5,#0x40]
        0x0001a852:    f0414180    A..A    ORR      r1,r1,#0x40000000
        0x0001a856:    6429        )d      STR      r1,[r5,#0x40]
        0x0001a858:    6b29        )k      LDR      r1,[r5,#0x30]
        0x0001a85a:    f3c15105    ...Q    UBFX     r1,r1,#20,#6
        0x0001a85e:    6061        a`      STR      r1,[r4,#4]
        0x0001a860:    6b29        )k      LDR      r1,[r5,#0x30]
        0x0001a862:    f021717c    !.|q    BIC      r1,r1,#0x3f00000
        0x0001a866:    6329        )c      STR      r1,[r5,#0x30]
        0x0001a868:    f04f0107    O...    MOV      r1,#7
        0x0001a86c:    f8451c04    E...    STR      r1,[r5,#-4]
        0x0001a870:    b140        @.      CBZ      r0,0x1a884 ; am_hal_pwrctrl_control + 332
        0x0001a872:    6828        (h      LDR      r0,[r5,#0]
        0x0001a874:    2101        .!      MOVS     r1,#1
        0x0001a876:    f0207070     .pp    BIC      r0,r0,#0x3c00000
        0x0001a87a:    6028        (`      STR      r0,[r5,#0]
        0x0001a87c:    6828        (h      LDR      r0,[r5,#0]
        0x0001a87e:    f361108a    a...    BFI      r0,r1,#6,#5
        0x0001a882:    6028        (`      STR      r0,[r5,#0]
        0x0001a884:    f64f46c0    O..F    MOV      r6,#0xfcc0
        0x0001a888:    f6cf76ff    ...v    MOVT     r6,#0xffff
        0x0001a88c:    59a8        .Y      LDR      r0,[r5,r6]
        0x0001a88e:    f2411400    A...    MOVW     r4,#0x1100
        0x0001a892:    f4104f7f    ...O    TST      r0,#0xff00
        0x0001a896:    f2c40402    ....    MOVT     r4,#0x4002
        0x0001a89a:    d011        ..      BEQ      0x1a8c0 ; am_hal_pwrctrl_control + 392
        0x0001a89c:    6820         h      LDR      r0,[r4,#0]
        0x0001a89e:    f0400001    @...    ORR      r0,r0,#1
        0x0001a8a2:    6020         `      STR      r0,[r4,#0]
        0x0001a8a4:    6ba8        .k      LDR      r0,[r5,#0x38]
        0x0001a8a6:    f0404000    @..@    ORR      r0,r0,#0x80000000
        0x0001a8aa:    63a8        .c      STR      r0,[r5,#0x38]
        0x0001a8ac:    59a8        .Y      LDR      r0,[r5,r6]
        0x0001a8ae:    f4104f7f    ...O    TST      r0,#0xff00
        0x0001a8b2:    f43faf73    ?.s.    BEQ      0x1a79c ; am_hal_pwrctrl_control + 100
        0x0001a8b6:    f000fd59    ..Y.    BL       buck_ldo_override_init ; 0x1b36c
        0x0001a8ba:    2000        .       MOVS     r0,#0
        0x0001a8bc:    bd70        p.      POP      {r4-r6,pc}
        0x0001a8be:    bf00        ..      NOP      
        0x0001a8c0:    f000fd54    ..T.    BL       buck_ldo_override_init ; 0x1b36c
        0x0001a8c4:    6820         h      LDR      r0,[r4,#0]
        0x0001a8c6:    2230        0"      MOVS     r2,#0x30
        0x0001a8c8:    f0400001    @...    ORR      r0,r0,#1
        0x0001a8cc:    f8440b08    D...    STR      r0,[r4],#8
        0x0001a8d0:    2005        .       MOVS     r0,#5
        0x0001a8d2:    4621        !F      MOV      r1,r4
        0x0001a8d4:    2330        0#      MOVS     r3,#0x30
        0x0001a8d6:    f7feffa5    ....    BL       am_hal_delay_us_status_change ; 0x19824
        0x0001a8da:    2800        .(      CMP      r0,#0
        0x0001a8dc:    f47faf7d    ..}.    BNE      0x1a7da ; am_hal_pwrctrl_control + 162
        0x0001a8e0:    e7e0        ..      B        0x1a8a4 ; am_hal_pwrctrl_control + 364
        0x0001a8e2:    0000        ..      MOVS     r0,r0
    am_hal_pwrctrl_low_power_init
        0x0001a8e4:    b570        p.      PUSH     {r4-r6,lr}
        0x0001a8e6:    b082        ..      SUB      sp,sp,#8
        0x0001a8e8:    f2410008    A...    MOV      r0,#0x1008
        0x0001a8ec:    f2c40002    ....    MOVT     r0,#0x4002
        0x0001a8f0:    6800        .h      LDR      r0,[r0,#0]
        0x0001a8f2:    f2401470    @.p.    MOVW     r4,#0x170
        0x0001a8f6:    f3c05000    ...P    UBFX     r0,r0,#20,#1
        0x0001a8fa:    f2c10400    ....    MOVT     r4,#0x1000
        0x0001a8fe:    7020         p      STRB     r0,[r4,#0]
        0x0001a900:    f24c5048    L.HP    MOV      r0,#0xc548
        0x0001a904:    2588        .%      MOVS     r5,#0x88
        0x0001a906:    f2c00001    ....    MOVT     r0,#1
        0x0001a90a:    f2c40502    ....    MOVT     r5,#0x4002
        0x0001a90e:    f000f873    ..s.    BL       am_hal_pwrctrl_mcu_memory_config ; 0x1a9f8
        0x0001a912:    f24c504e    L.NP    MOV      r0,#0xc54e
        0x0001a916:    f2c00001    ....    MOVT     r0,#1
        0x0001a91a:    f000fabf    ....    BL       am_hal_pwrctrl_sram_config ; 0x1ae9c
        0x0001a91e:    f2440644    D.D.    MOV      r6,#0x4044
        0x0001a922:    f2c40600    ....    MOVT     r6,#0x4000
        0x0001a926:    6830        0h      LDR      r0,[r6,#0]
        0x0001a928:    f440007c    @.|.    ORR      r0,r0,#0xfc0000
        0x0001a92c:    6030        0`      STR      r0,[r6,#0]
        0x0001a92e:    f24c10e5    L...    MOV      r0,#0xc1e5
        0x0001a932:    f2c00001    ....    MOVT     r0,#1
        0x0001a936:    f7fefe77    ..w.    BL       am_hal_daxi_config ; 0x19628
        0x0001a93a:    2064        d       MOVS     r0,#0x64
        0x0001a93c:    f7feff56    ..V.    BL       am_hal_delay_us ; 0x197ec
        0x0001a940:    6830        0h      LDR      r0,[r6,#0]
        0x0001a942:    2104        .!      MOVS     r1,#4
        0x0001a944:    f0400040    @.@.    ORR      r0,r0,#0x40
        0x0001a948:    6030        0`      STR      r0,[r6,#0]
        0x0001a94a:    f8d502f4    ....    LDR      r0,[r5,#0x2f4]
        0x0001a94e:    f04060b0    @..`    ORR      r0,r0,#0x5800000
        0x0001a952:    f44000fd    @...    ORR      r0,r0,#0x7e8000
        0x0001a956:    f8c502f4    ....    STR      r0,[r5,#0x2f4]
        0x0001a95a:    f8d503bc    ....    LDR      r0,[r5,#0x3bc]
        0x0001a95e:    f361200f    a..     BFI      r0,r1,#8,#8
        0x0001a962:    f8c503bc    ....    STR      r0,[r5,#0x3bc]
        0x0001a966:    7860        `x      LDRB     r0,[r4,#1]
        0x0001a968:    2801        .(      CMP      r0,#1
        0x0001a96a:    d103        ..      BNE      0x1a974 ; am_hal_pwrctrl_low_power_init + 144
        0x0001a96c:    e9d40104    ....    LDRD     r0,r1,[r4,#0x10]
        0x0001a970:    e018        ..      B        0x1a9a4 ; am_hal_pwrctrl_low_power_init + 192
        0x0001a972:    bf00        ..      NOP      
        0x0001a974:    f8d502e4    ....    LDR      r0,[r5,#0x2e4]
        0x0001a978:    f3c05005    ...P    UBFX     r0,r0,#20,#6
        0x0001a97c:    6120         a      STR      r0,[r4,#0x10]
        0x0001a97e:    6829        )h      LDR      r1,[r5,#0]
        0x0001a980:    f001013f    ..?.    AND      r1,r1,#0x3f
        0x0001a984:    6161        aa      STR      r1,[r4,#0x14]
        0x0001a986:    f8d522e4    ..."    LDR      r2,[r5,#0x2e4]
        0x0001a98a:    0e92        ..      LSRS     r2,r2,#26
        0x0001a98c:    61a2        .a      STR      r2,[r4,#0x18]
        0x0001a98e:    682a        *h      LDR      r2,[r5,#0]
        0x0001a990:    f3c24285    ...B    UBFX     r2,r2,#18,#6
        0x0001a994:    61e2        .a      STR      r2,[r4,#0x1c]
        0x0001a996:    f8552c44    U.D,    LDR      r2,[r5,#-0x44]
        0x0001a99a:    f3c212c6    ....    UBFX     r2,r2,#7,#7
        0x0001a99e:    6222        "b      STR      r2,[r4,#0x20]
        0x0001a9a0:    2201        ."      MOVS     r2,#1
        0x0001a9a2:    7062        bp      STRB     r2,[r4,#1]
        0x0001a9a4:    2200        ."      MOVS     r2,#0
        0x0001a9a6:    1d23        #.      ADDS     r3,r4,#4
        0x0001a9a8:    c307        ..      STM      r3!,{r0-r2}
        0x0001a9aa:    ab01        ..      ADD      r3,sp,#4
        0x0001a9ac:    2001        .       MOVS     r0,#1
        0x0001a9ae:    f44f6192    O..a    MOV      r1,#0x490
        0x0001a9b2:    2201        ."      MOVS     r2,#1
        0x0001a9b4:    f7fff8aa    ....    BL       am_hal_mram_info_read ; 0x19b0c
        0x0001a9b8:    b110        ..      CBZ      r0,0x1a9c0 ; am_hal_pwrctrl_low_power_init + 220
        0x0001a9ba:    2000        .       MOVS     r0,#0
        0x0001a9bc:    b002        ..      ADD      sp,sp,#8
        0x0001a9be:    bd70        p.      POP      {r4-r6,pc}
        0x0001a9c0:    9801        ..      LDR      r0,[sp,#4]
        0x0001a9c2:    f0100f06    ....    TST      r0,#6
        0x0001a9c6:    d007        ..      BEQ      0x1a9d8 ; am_hal_pwrctrl_low_power_init + 244
        0x0001a9c8:    0781        ..      LSLS     r1,r0,#30
        0x0001a9ca:    d40b        ..      BMI      0x1a9e4 ; am_hal_pwrctrl_low_power_init + 256
        0x0001a9cc:    2006        .       MOVS     r0,#6
        0x0001a9ce:    60e0        .`      STR      r0,[r4,#0xc]
        0x0001a9d0:    2000        .       MOVS     r0,#0
        0x0001a9d2:    b002        ..      ADD      sp,sp,#8
        0x0001a9d4:    bd70        p.      POP      {r4-r6,pc}
        0x0001a9d6:    bf00        ..      NOP      
        0x0001a9d8:    2003        .       MOVS     r0,#3
        0x0001a9da:    60e0        .`      STR      r0,[r4,#0xc]
        0x0001a9dc:    2000        .       MOVS     r0,#0
        0x0001a9de:    b002        ..      ADD      sp,sp,#8
        0x0001a9e0:    bd70        p.      POP      {r4-r6,pc}
        0x0001a9e2:    bf00        ..      NOP      
        0x0001a9e4:    0740        @.      LSLS     r0,r0,#29
        0x0001a9e6:    f04f0000    O...    MOV      r0,#0
        0x0001a9ea:    bf58        X.      IT       PL
        0x0001a9ec:    2009        .       MOVPL    r0,#9
        0x0001a9ee:    60e0        .`      STR      r0,[r4,#0xc]
        0x0001a9f0:    2000        .       MOVS     r0,#0
        0x0001a9f2:    b002        ..      ADD      sp,sp,#8
        0x0001a9f4:    bd70        p.      POP      {r4-r6,pc}
        0x0001a9f6:    0000        ..      MOVS     r0,r0
    am_hal_pwrctrl_mcu_memory_config
        0x0001a9f8:    b570        p.      PUSH     {r4-r6,lr}
        0x0001a9fa:    b082        ..      SUB      sp,sp,#8
        0x0001a9fc:    4606        .F      MOV      r6,r0
        0x0001a9fe:    7800        .x      LDRB     r0,[r0,#0]
        0x0001aa00:    f2410514    A...    MOV      r5,#0x1014
        0x0001aa04:    2802        .(      CMP      r0,#2
        0x0001aa06:    f2c40502    ....    MOVT     r5,#0x4002
        0x0001aa0a:    d007        ..      BEQ      0x1aa1c ; am_hal_pwrctrl_mcu_memory_config + 36
        0x0001aa0c:    2801        .(      CMP      r0,#1
        0x0001aa0e:    d00d        ..      BEQ      0x1aa2c ; am_hal_pwrctrl_mcu_memory_config + 52
        0x0001aa10:    b9a0        ..      CBNZ     r0,0x1aa3c ; am_hal_pwrctrl_mcu_memory_config + 68
        0x0001aa12:    6828        (h      LDR      r0,[r5,#0]
        0x0001aa14:    f0200010     ...    BIC      r0,r0,#0x10
        0x0001aa18:    e00b        ..      B        0x1aa32 ; am_hal_pwrctrl_mcu_memory_config + 58
        0x0001aa1a:    bf00        ..      NOP      
        0x0001aa1c:    6828        (h      LDR      r0,[r5,#0]
        0x0001aa1e:    f0400010    @...    ORR      r0,r0,#0x10
        0x0001aa22:    6028        (`      STR      r0,[r5,#0]
        0x0001aa24:    6828        (h      LDR      r0,[r5,#0]
        0x0001aa26:    f0400020    @. .    ORR      r0,r0,#0x20
        0x0001aa2a:    e006        ..      B        0x1aa3a ; am_hal_pwrctrl_mcu_memory_config + 66
        0x0001aa2c:    6828        (h      LDR      r0,[r5,#0]
        0x0001aa2e:    f0400010    @...    ORR      r0,r0,#0x10
        0x0001aa32:    6028        (`      STR      r0,[r5,#0]
        0x0001aa34:    6828        (h      LDR      r0,[r5,#0]
        0x0001aa36:    f0200020     . .    BIC      r0,r0,#0x20
        0x0001aa3a:    6028        (`      STR      r0,[r5,#0]
        0x0001aa3c:    78b0        .x      LDRB     r0,[r6,#2]
        0x0001aa3e:    6829        )h      LDR      r1,[r5,#0]
        0x0001aa40:    2401        .$      MOVS     r4,#1
        0x0001aa42:    f3600102    `...    BFI      r1,r0,#0,#3
        0x0001aa46:    6029        )`      STR      r1,[r5,#0]
        0x0001aa48:    7930        0y      LDRB     r0,[r6,#4]
        0x0001aa4a:    6829        )h      LDR      r1,[r5,#0]
        0x0001aa4c:    f000001f    ....    AND      r0,r0,#0x1f
        0x0001aa50:    f0210108    !...    BIC      r1,r1,#8
        0x0001aa54:    ea4100c0    A...    ORR      r0,r1,r0,LSL #3
        0x0001aa58:    6028        (`      STR      r0,[r5,#0]
        0x0001aa5a:    4629        )F      MOV      r1,r5
        0x0001aa5c:    f8513b04    Q..;    LDR      r3,[r1],#4
        0x0001aa60:    2005        .       MOVS     r0,#5
        0x0001aa62:    223f        ?"      MOVS     r2,#0x3f
        0x0001aa64:    9400        ..      STR      r4,[sp,#0]
        0x0001aa66:    f7feff09    ....    BL       am_hal_delay_us_status_check ; 0x1987c
        0x0001aa6a:    b108        ..      CBZ      r0,0x1aa70 ; am_hal_pwrctrl_mcu_memory_config + 120
        0x0001aa6c:    b002        ..      ADD      sp,sp,#8
        0x0001aa6e:    bd70        p.      POP      {r4-r6,pc}
        0x0001aa70:    6868        hh      LDR      r0,[r5,#4]
        0x0001aa72:    6829        )h      LDR      r1,[r5,#0]
        0x0001aa74:    4048        H@      EORS     r0,r0,r1
        0x0001aa76:    06c0        ..      LSLS     r0,r0,#27
        0x0001aa78:    d42e        ..      BMI      0x1aad8 ; am_hal_pwrctrl_mcu_memory_config + 224
        0x0001aa7a:    6868        hh      LDR      r0,[r5,#4]
        0x0001aa7c:    6829        )h      LDR      r1,[r5,#0]
        0x0001aa7e:    4048        H@      EORS     r0,r0,r1
        0x0001aa80:    0680        ..      LSLS     r0,r0,#26
        0x0001aa82:    d429        ).      BMI      0x1aad8 ; am_hal_pwrctrl_mcu_memory_config + 224
        0x0001aa84:    6868        hh      LDR      r0,[r5,#4]
        0x0001aa86:    6829        )h      LDR      r1,[r5,#0]
        0x0001aa88:    4048        H@      EORS     r0,r0,r1
        0x0001aa8a:    0740        @.      LSLS     r0,r0,#29
        0x0001aa8c:    d124        $.      BNE      0x1aad8 ; am_hal_pwrctrl_mcu_memory_config + 224
        0x0001aa8e:    6868        hh      LDR      r0,[r5,#4]
        0x0001aa90:    6829        )h      LDR      r1,[r5,#0]
        0x0001aa92:    4048        H@      EORS     r0,r0,r1
        0x0001aa94:    0700        ..      LSLS     r0,r0,#28
        0x0001aa96:    d41f        ..      BMI      0x1aad8 ; am_hal_pwrctrl_mcu_memory_config + 224
        0x0001aa98:    7870        px      LDRB     r0,[r6,#1]
        0x0001aa9a:    68a9        .h      LDR      r1,[r5,#8]
        0x0001aa9c:    2800        .(      CMP      r0,#0
        0x0001aa9e:    f0210110    !...    BIC      r1,r1,#0x10
        0x0001aaa2:    bf08        ..      IT       EQ
        0x0001aaa4:    3110        .1      ADDEQ    r1,r1,#0x10
        0x0001aaa6:    60a9        .`      STR      r1,[r5,#8]
        0x0001aaa8:    7970        py      LDRB     r0,[r6,#5]
        0x0001aaaa:    68a9        .h      LDR      r1,[r5,#8]
        0x0001aaac:    2800        .(      CMP      r0,#0
        0x0001aaae:    f0210108    !...    BIC      r1,r1,#8
        0x0001aab2:    bf08        ..      IT       EQ
        0x0001aab4:    3108        .1      ADDEQ    r1,r1,#8
        0x0001aab6:    60a9        .`      STR      r1,[r5,#8]
        0x0001aab8:    78f1        .x      LDRB     r1,[r6,#3]
        0x0001aaba:    2000        .       MOVS     r0,#0
        0x0001aabc:    2907        .)      CMP      r1,#7
        0x0001aabe:    d8d5        ..      BHI      0x1aa6c ; am_hal_pwrctrl_mcu_memory_config + 116
        0x0001aac0:    e8dff001    ....    TBB      [pc,r1]
    $d.3
        0x0001aac4:    14040e06    ....    DCD    335810054
        0x0001aac8:    1a040404    ....    DCD    436470788
    $t.4
        0x0001aacc:    e7ce        ..      B        0x1aa6c ; am_hal_pwrctrl_mcu_memory_config + 116
        0x0001aace:    bf00        ..      NOP      
        0x0001aad0:    68a8        .h      LDR      r0,[r5,#8]
        0x0001aad2:    f0400007    @...    ORR      r0,r0,#7
        0x0001aad6:    e012        ..      B        0x1aafe ; am_hal_pwrctrl_mcu_memory_config + 262
        0x0001aad8:    2001        .       MOVS     r0,#1
        0x0001aada:    b002        ..      ADD      sp,sp,#8
        0x0001aadc:    bd70        p.      POP      {r4-r6,pc}
        0x0001aade:    bf00        ..      NOP      
        0x0001aae0:    68a8        .h      LDR      r0,[r5,#8]
        0x0001aae2:    2106        .!      MOVS     r1,#6
        0x0001aae4:    f3610002    a...    BFI      r0,r1,#0,#3
        0x0001aae8:    e009        ..      B        0x1aafe ; am_hal_pwrctrl_mcu_memory_config + 262
        0x0001aaea:    bf00        ..      NOP      
        0x0001aaec:    68a8        .h      LDR      r0,[r5,#8]
        0x0001aaee:    2104        .!      MOVS     r1,#4
        0x0001aaf0:    f3610002    a...    BFI      r0,r1,#0,#3
        0x0001aaf4:    e003        ..      B        0x1aafe ; am_hal_pwrctrl_mcu_memory_config + 262
        0x0001aaf6:    bf00        ..      NOP      
        0x0001aaf8:    68a8        .h      LDR      r0,[r5,#8]
        0x0001aafa:    f0200007     ...    BIC      r0,r0,#7
        0x0001aafe:    60a8        .`      STR      r0,[r5,#8]
        0x0001ab00:    2000        .       MOVS     r0,#0
        0x0001ab02:    b002        ..      ADD      sp,sp,#8
        0x0001ab04:    bd70        p.      POP      {r4-r6,pc}
        0x0001ab06:    0000        ..      MOVS     r0,r0
    am_hal_pwrctrl_mcu_mode_select
        0x0001ab08:    b5b0        ..      PUSH     {r4,r5,r7,lr}
        0x0001ab0a:    4604        .F      MOV      r4,r0
        0x0001ab0c:    3803        .8      SUBS     r0,#3
        0x0001ab0e:    f1100f02    ....    CMN      r0,#2
        0x0001ab12:    bf3c        <.      ITT      CC
        0x0001ab14:    2006        .       MOVCC    r0,#6
        0x0001ab16:    bdb0        ..      POPCC    {r4,r5,r7,pc}
        0x0001ab18:    2c02        .,      CMP      r4,#2
        0x0001ab1a:    d10b        ..      BNE      0x1ab34 ; am_hal_pwrctrl_mcu_mode_select + 44
        0x0001ab1c:    f2410000    A...    MOVW     r0,#0x1000
        0x0001ab20:    f2c40002    ....    MOVT     r0,#0x4002
        0x0001ab24:    f8d00108    ....    LDR      r0,[r0,#0x108]
        0x0001ab28:    f0000030    ..0.    AND      r0,r0,#0x30
        0x0001ab2c:    2830        0(      CMP      r0,#0x30
        0x0001ab2e:    bf1c        ..      ITT      NE
        0x0001ab30:    2007        .       MOVNE    r0,#7
        0x0001ab32:    bdb0        ..      POPNE    {r4,r5,r7,pc}
        0x0001ab34:    f2401008    @...    MOVW     r0,#0x108
        0x0001ab38:    f2c10000    ....    MOVT     r0,#0x1000
        0x0001ab3c:    7801        .x      LDRB     r1,[r0,#0]
        0x0001ab3e:    42a1        .B      CMP      r1,r4
        0x0001ab40:    bf04        ..      ITT      EQ
        0x0001ab42:    2000        .       MOVEQ    r0,#0
        0x0001ab44:    bdb0        ..      POPEQ    {r4,r5,r7,pc}
        0x0001ab46:    f2410500    A...    MOVW     r5,#0x1000
        0x0001ab4a:    f2c40502    ....    MOVT     r5,#0x4002
        0x0001ab4e:    7004        .p      STRB     r4,[r0,#0]
        0x0001ab50:    6828        (h      LDR      r0,[r5,#0]
        0x0001ab52:    f3640001    d...    BFI      r0,r4,#0,#2
        0x0001ab56:    6028        (`      STR      r0,[r5,#0]
        0x0001ab58:    6828        (h      LDR      r0,[r5,#0]
        0x0001ab5a:    0740        @.      LSLS     r0,r0,#29
        0x0001ab5c:    d41c        ..      BMI      0x1ab98 ; am_hal_pwrctrl_mcu_mode_select + 144
        0x0001ab5e:    2001        .       MOVS     r0,#1
        0x0001ab60:    f7fefe44    ..D.    BL       am_hal_delay_us ; 0x197ec
        0x0001ab64:    6828        (h      LDR      r0,[r5,#0]
        0x0001ab66:    0740        @.      LSLS     r0,r0,#29
        0x0001ab68:    d416        ..      BMI      0x1ab98 ; am_hal_pwrctrl_mcu_mode_select + 144
        0x0001ab6a:    2001        .       MOVS     r0,#1
        0x0001ab6c:    f7fefe3e    ..>.    BL       am_hal_delay_us ; 0x197ec
        0x0001ab70:    6828        (h      LDR      r0,[r5,#0]
        0x0001ab72:    0740        @.      LSLS     r0,r0,#29
        0x0001ab74:    d410        ..      BMI      0x1ab98 ; am_hal_pwrctrl_mcu_mode_select + 144
        0x0001ab76:    2001        .       MOVS     r0,#1
        0x0001ab78:    f7fefe38    ..8.    BL       am_hal_delay_us ; 0x197ec
        0x0001ab7c:    6828        (h      LDR      r0,[r5,#0]
        0x0001ab7e:    0740        @.      LSLS     r0,r0,#29
        0x0001ab80:    d40a        ..      BMI      0x1ab98 ; am_hal_pwrctrl_mcu_mode_select + 144
        0x0001ab82:    2001        .       MOVS     r0,#1
        0x0001ab84:    f7fefe32    ..2.    BL       am_hal_delay_us ; 0x197ec
        0x0001ab88:    6828        (h      LDR      r0,[r5,#0]
        0x0001ab8a:    0740        @.      LSLS     r0,r0,#29
        0x0001ab8c:    d404        ..      BMI      0x1ab98 ; am_hal_pwrctrl_mcu_mode_select + 144
        0x0001ab8e:    2001        .       MOVS     r0,#1
        0x0001ab90:    f7fefe2c    ..,.    BL       am_hal_delay_us ; 0x197ec
        0x0001ab94:    2004        .       MOVS     r0,#4
        0x0001ab96:    bdb0        ..      POP      {r4,r5,r7,pc}
        0x0001ab98:    6828        (h      LDR      r0,[r5,#0]
        0x0001ab9a:    f3c000c1    ....    UBFX     r0,r0,#3,#2
        0x0001ab9e:    1b00        ..      SUBS     r0,r0,r4
        0x0001aba0:    bf18        ..      IT       NE
        0x0001aba2:    2001        .       MOVNE    r0,#1
        0x0001aba4:    bdb0        ..      POP      {r4,r5,r7,pc}
        0x0001aba6:    0000        ..      MOVS     r0,r0
    am_hal_pwrctrl_mcu_mode_status
        0x0001aba8:    2800        .(      CMP      r0,#0
        0x0001abaa:    bf04        ..      ITT      EQ
        0x0001abac:    2006        .       MOVEQ    r0,#6
        0x0001abae:    4770        pG      BXEQ     lr
        0x0001abb0:    f2401108    @...    MOVW     r1,#0x108
        0x0001abb4:    f2c10100    ....    MOVT     r1,#0x1000
        0x0001abb8:    7809        .x      LDRB     r1,[r1,#0]
        0x0001abba:    7001        .p      STRB     r1,[r0,#0]
        0x0001abbc:    2000        .       MOVS     r0,#0
        0x0001abbe:    4770        pG      BX       lr
    am_hal_pwrctrl_periph_disable
        0x0001abc0:    e92d43f0    -..C    PUSH     {r4-r9,lr}
        0x0001abc4:    b083        ..      SUB      sp,sp,#0xc
        0x0001abc6:    2818        .(      CMP      r0,#0x18
        0x0001abc8:    d904        ..      BLS      0x1abd4 ; am_hal_pwrctrl_periph_disable + 20
        0x0001abca:    2406        .$      MOVS     r4,#6
        0x0001abcc:    4620         F      MOV      r0,r4
        0x0001abce:    b003        ..      ADD      sp,sp,#0xc
        0x0001abd0:    e8bd83f0    ....    POP      {r4-r9,pc}
        0x0001abd4:    f24c11f0    L...    MOV      r1,#0xc1f0
        0x0001abd8:    f2c00101    ....    MOVT     r1,#1
        0x0001abdc:    0102        ..      LSLS     r2,r0,#4
        0x0001abde:    f8518002    Q...    LDR      r8,[r1,r2]
        0x0001abe2:    eb011500    ....    ADD      r5,r1,r0,LSL #4
        0x0001abe6:    686f        oh      LDR      r7,[r5,#4]
        0x0001abe8:    f8d81000    ....    LDR      r1,[r8,#0]
        0x0001abec:    4239        9B      TST      r1,r7
        0x0001abee:    d076        v.      BEQ      0x1acde ; am_hal_pwrctrl_periph_disable + 286
        0x0001abf0:    2812        .(      CMP      r0,#0x12
        0x0001abf2:    d12d        -.      BNE      0x1ac50 ; am_hal_pwrctrl_periph_disable + 144
        0x0001abf4:    f64076e0    @..v    MOVW     r6,#0xfe0
        0x0001abf8:    f2c4060c    ....    MOVT     r6,#0x400c
        0x0001abfc:    6830        0h      LDR      r0,[r6,#0]
        0x0001abfe:    28c0        .(      CMP      r0,#0xc0
        0x0001ac00:    d126        &.      BNE      0x1ac50 ; am_hal_pwrctrl_periph_disable + 144
        0x0001ac02:    f6402980    @..)    MOVW     r9,#0xa80
        0x0001ac06:    f2c4090c    ....    MOVT     r9,#0x400c
        0x0001ac0a:    f1a90104    ....    SUB      r1,r9,#4
        0x0001ac0e:    2064        d       MOVS     r0,#0x64
        0x0001ac10:    2201        ."      MOVS     r2,#1
        0x0001ac12:    2301        .#      MOVS     r3,#1
        0x0001ac14:    f7fefe06    ....    BL       am_hal_delay_us_status_change ; 0x19824
        0x0001ac18:    4604        .F      MOV      r4,r0
        0x0001ac1a:    2800        .(      CMP      r0,#0
        0x0001ac1c:    d1d6        ..      BNE      0x1abcc ; am_hal_pwrctrl_periph_disable + 12
        0x0001ac1e:    f5066173    ..sa    ADD      r1,r6,#0xf30
        0x0001ac22:    2064        d       MOVS     r0,#0x64
        0x0001ac24:    2201        ."      MOVS     r2,#1
        0x0001ac26:    2301        .#      MOVS     r3,#1
        0x0001ac28:    f7fefdfc    ....    BL       am_hal_delay_us_status_change ; 0x19824
        0x0001ac2c:    4604        .F      MOV      r4,r0
        0x0001ac2e:    2800        .(      CMP      r0,#0
        0x0001ac30:    d1cc        ..      BNE      0x1abcc ; am_hal_pwrctrl_periph_disable + 12
        0x0001ac32:    f8d90000    ....    LDR      r0,[r9,#0]
        0x0001ac36:    f0400001    @...    ORR      r0,r0,#1
        0x0001ac3a:    f8c90000    ....    STR      r0,[r9,#0]
        0x0001ac3e:    f2401070    @.p.    MOVW     r0,#0x170
        0x0001ac42:    f2c10000    ....    MOVT     r0,#0x1000
        0x0001ac46:    68c1        .h      LDR      r1,[r0,#0xc]
        0x0001ac48:    b111        ..      CBZ      r1,0x1ac50 ; am_hal_pwrctrl_periph_disable + 144
        0x0001ac4a:    2000        .       MOVS     r0,#0
        0x0001ac4c:    f000fca2    ....    BL       crypto_boost_trims ; 0x1b594
        0x0001ac50:    e9d56502    ...e    LDRD     r6,r5,[r5,#8]
        0x0001ac54:    f7feff4e    ..N.    BL       am_hal_interrupt_master_disable ; 0x19af4
        0x0001ac58:    9002        ..      STR      r0,[sp,#8]
        0x0001ac5a:    f8d80000    ....    LDR      r0,[r8,#0]
        0x0001ac5e:    43b8        .C      BICS     r0,r0,r7
        0x0001ac60:    f8c80000    ....    STR      r0,[r8,#0]
        0x0001ac64:    9802        ..      LDR      r0,[sp,#8]
        0x0001ac66:    f7feff4d    ..M.    BL       am_hal_interrupt_master_set ; 0x19b04
        0x0001ac6a:    2400        .$      MOVS     r4,#0
        0x0001ac6c:    2005        .       MOVS     r0,#5
        0x0001ac6e:    4631        1F      MOV      r1,r6
        0x0001ac70:    462a        *F      MOV      r2,r5
        0x0001ac72:    462b        +F      MOV      r3,r5
        0x0001ac74:    9400        ..      STR      r4,[sp,#0]
        0x0001ac76:    f7fefe01    ....    BL       am_hal_delay_us_status_check ; 0x1987c
        0x0001ac7a:    2800        .(      CMP      r0,#0
        0x0001ac7c:    d0a6        ..      BEQ      0x1abcc ; am_hal_pwrctrl_periph_disable + 12
        0x0001ac7e:    f5b57ff0    ....    CMP      r5,#0x1e0
        0x0001ac82:    f04f0400    O...    MOV      r4,#0
        0x0001ac86:    db0d        ..      BLT      0x1aca4 ; am_hal_pwrctrl_periph_disable + 228
        0x0001ac88:    d01c        ..      BEQ      0x1acc4 ; am_hal_pwrctrl_periph_disable + 260
        0x0001ac8a:    f5b53fe0    ...?    CMP      r5,#0x1c000
        0x0001ac8e:    d01f        ..      BEQ      0x1acd0 ; am_hal_pwrctrl_periph_disable + 272
        0x0001ac90:    f5b55ff0    ..._    CMP      r5,#0x1e00
        0x0001ac94:    d19a        ..      BNE      0x1abcc ; am_hal_pwrctrl_periph_disable + 12
        0x0001ac96:    f8d80000    ....    LDR      r0,[r8,#0]
        0x0001ac9a:    f4105ff0    ..._    TST      r0,#0x1e00
        0x0001ac9e:    d11c        ..      BNE      0x1acda ; am_hal_pwrctrl_periph_disable + 282
        0x0001aca0:    e01d        ..      B        0x1acde ; am_hal_pwrctrl_periph_disable + 286
        0x0001aca2:    bf00        ..      NOP      
        0x0001aca4:    2d1e        .-      CMP      r5,#0x1e
        0x0001aca6:    d01f        ..      BEQ      0x1ace8 ; am_hal_pwrctrl_periph_disable + 296
        0x0001aca8:    2d47        G-      CMP      r5,#0x47
        0x0001acaa:    f47faf8f    ....    BNE.W    0x1abcc ; am_hal_pwrctrl_periph_disable + 12
        0x0001acae:    f8d80000    ....    LDR      r0,[r8,#0]
        0x0001acb2:    f0100f47    ..G.    TST      r0,#0x47
        0x0001acb6:    d110        ..      BNE      0x1acda ; am_hal_pwrctrl_periph_disable + 282
        0x0001acb8:    2400        .$      MOVS     r4,#0
        0x0001acba:    4620         F      MOV      r0,r4
        0x0001acbc:    b003        ..      ADD      sp,sp,#0xc
        0x0001acbe:    e8bd83f0    ....    POP      {r4-r9,pc}
        0x0001acc2:    bf00        ..      NOP      
        0x0001acc4:    f8d80000    ....    LDR      r0,[r8,#0]
        0x0001acc8:    f4107ff0    ....    TST      r0,#0x1e0
        0x0001accc:    d105        ..      BNE      0x1acda ; am_hal_pwrctrl_periph_disable + 282
        0x0001acce:    e006        ..      B        0x1acde ; am_hal_pwrctrl_periph_disable + 286
        0x0001acd0:    f8d80000    ....    LDR      r0,[r8,#0]
        0x0001acd4:    f4103fe0    ...?    TST      r0,#0x1c000
        0x0001acd8:    d001        ..      BEQ      0x1acde ; am_hal_pwrctrl_periph_disable + 286
        0x0001acda:    f8d80000    ....    LDR      r0,[r8,#0]
        0x0001acde:    2400        .$      MOVS     r4,#0
        0x0001ace0:    4620         F      MOV      r0,r4
        0x0001ace2:    b003        ..      ADD      sp,sp,#0xc
        0x0001ace4:    e8bd83f0    ....    POP      {r4-r9,pc}
        0x0001ace8:    f8d80000    ....    LDR      r0,[r8,#0]
        0x0001acec:    f0100f1e    ....    TST      r0,#0x1e
        0x0001acf0:    d1f3        ..      BNE      0x1acda ; am_hal_pwrctrl_periph_disable + 282
        0x0001acf2:    e7f4        ..      B        0x1acde ; am_hal_pwrctrl_periph_disable + 286
    am_hal_pwrctrl_periph_enable
        0x0001acf4:    e92d4ff0    -..O    PUSH     {r4-r11,lr}
        0x0001acf8:    b085        ..      SUB      sp,sp,#0x14
        0x0001acfa:    2818        .(      CMP      r0,#0x18
        0x0001acfc:    d904        ..      BLS      0x1ad08 ; am_hal_pwrctrl_periph_enable + 20
        0x0001acfe:    2706        .'      MOVS     r7,#6
        0x0001ad00:    4638        8F      MOV      r0,r7
        0x0001ad02:    b005        ..      ADD      sp,sp,#0x14
        0x0001ad04:    e8bd8ff0    ....    POP      {r4-r11,pc}
        0x0001ad08:    4606        .F      MOV      r6,r0
        0x0001ad0a:    f24c11f0    L...    MOV      r1,#0xc1f0
        0x0001ad0e:    f2c00101    ....    MOVT     r1,#1
        0x0001ad12:    0132        2.      LSLS     r2,r6,#4
        0x0001ad14:    588f        .X      LDR      r7,[r1,r2]
        0x0001ad16:    eb011000    ....    ADD      r0,r1,r0,LSL #4
        0x0001ad1a:    6845        Eh      LDR      r5,[r0,#4]
        0x0001ad1c:    6839        9h      LDR      r1,[r7,#0]
        0x0001ad1e:    4229        )B      TST      r1,r5
        0x0001ad20:    d004        ..      BEQ      0x1ad2c ; am_hal_pwrctrl_periph_enable + 56
        0x0001ad22:    2700        .'      MOVS     r7,#0
        0x0001ad24:    4638        8F      MOV      r0,r7
        0x0001ad26:    b005        ..      ADD      sp,sp,#0x14
        0x0001ad28:    e8bd8ff0    ....    POP      {r4-r11,pc}
        0x0001ad2c:    e9d08902    ....    LDRD     r8,r9,[r0,#8]
        0x0001ad30:    f2401a70    @.p.    MOVW     r10,#0x170
        0x0001ad34:    2e12        ..      CMP      r6,#0x12
        0x0001ad36:    f2c10a00    ....    MOVT     r10,#0x1000
        0x0001ad3a:    d140        @.      BNE      0x1adbe ; am_hal_pwrctrl_periph_enable + 202
        0x0001ad3c:    f8da400c    ...@    LDR      r4,[r10,#0xc]
        0x0001ad40:    b3ec        ..      CBZ      r4,0x1adbe ; am_hal_pwrctrl_periph_enable + 202
        0x0001ad42:    f89a0000    ....    LDRB     r0,[r10,#0]
        0x0001ad46:    bbd0        ..      CBNZ     r0,0x1adbe ; am_hal_pwrctrl_periph_enable + 202
        0x0001ad48:    f7fefed4    ....    BL       am_hal_interrupt_master_disable ; 0x19af4
        0x0001ad4c:    9003        ..      STR      r0,[sp,#0xc]
        0x0001ad4e:    2001        .       MOVS     r0,#1
        0x0001ad50:    f88a0000    ....    STRB     r0,[r10,#0]
        0x0001ad54:    e9da0101    ....    LDRD     r0,r1,[r10,#4]
        0x0001ad58:    223f        ?"      MOVS     r2,#0x3f
        0x0001ad5a:    4420         D      ADD      r0,r0,r4
        0x0001ad5c:    283f        ?(      CMP      r0,#0x3f
        0x0001ad5e:    bf38        8.      IT       CC
        0x0001ad60:    4602        .F      MOVCC    r2,r0
        0x0001ad62:    440c        .D      ADD      r4,r4,r1
        0x0001ad64:    f8cd8004    ....    STR      r8,[sp,#4]
        0x0001ad68:    f2400888    @...    MOVW     r8,#0x88
        0x0001ad6c:    e9ca0401    ....    STRD     r0,r4,[r10,#4]
        0x0001ad70:    f2c40802    ....    MOVT     r8,#0x4002
        0x0001ad74:    f8d812e4    ....    LDR      r1,[r8,#0x2e4]
        0x0001ad78:    f04f0b3f    O.?.    MOV      r11,#0x3f
        0x0001ad7c:    2c3f        ?,      CMP      r4,#0x3f
        0x0001ad7e:    bf38        8.      IT       CC
        0x0001ad80:    46a3        .F      MOVCC    r11,r4
        0x0001ad82:    f021717c    !.|q    BIC      r1,r1,#0x3f00000
        0x0001ad86:    2800        .(      CMP      r0,#0
        0x0001ad88:    f04f0014    O...    MOV      r0,#0x14
        0x0001ad8c:    bf58        X.      IT       PL
        0x0001ad8e:    ea415102    A..Q    ORRPL    r1,r1,r2,LSL #20
        0x0001ad92:    f8c812e4    ....    STR      r1,[r8,#0x2e4]
        0x0001ad96:    f7fefd29    ..).    BL       am_hal_delay_us ; 0x197ec
        0x0001ad9a:    f8d80000    ....    LDR      r0,[r8,#0]
        0x0001ad9e:    2c00        .,      CMP      r4,#0
        0x0001ada0:    f020003f     .?.    BIC      r0,r0,#0x3f
        0x0001ada4:    bf58        X.      IT       PL
        0x0001ada6:    ea40000b    @...    ORRPL    r0,r0,r11
        0x0001adaa:    f8c80000    ....    STR      r0,[r8,#0]
        0x0001adae:    f8dd8004    ....    LDR      r8,[sp,#4]
        0x0001adb2:    9803        ..      LDR      r0,[sp,#0xc]
        0x0001adb4:    f7fefea6    ....    BL       am_hal_interrupt_master_set ; 0x19b04
        0x0001adb8:    2014        .       MOVS     r0,#0x14
        0x0001adba:    f7fefd17    ....    BL       am_hal_delay_us ; 0x197ec
        0x0001adbe:    f7fefe99    ....    BL       am_hal_interrupt_master_disable ; 0x19af4
        0x0001adc2:    9002        ..      STR      r0,[sp,#8]
        0x0001adc4:    6838        8h      LDR      r0,[r7,#0]
        0x0001adc6:    4328        (C      ORRS     r0,r0,r5
        0x0001adc8:    6038        8`      STR      r0,[r7,#0]
        0x0001adca:    9802        ..      LDR      r0,[sp,#8]
        0x0001adcc:    f7fefe9a    ....    BL       am_hal_interrupt_master_set ; 0x19b04
        0x0001add0:    2701        .'      MOVS     r7,#1
        0x0001add2:    2005        .       MOVS     r0,#5
        0x0001add4:    4641        AF      MOV      r1,r8
        0x0001add6:    464a        JF      MOV      r2,r9
        0x0001add8:    464b        KF      MOV      r3,r9
        0x0001adda:    9700        ..      STR      r7,[sp,#0]
        0x0001addc:    f7fefd4e    ..N.    BL       am_hal_delay_us_status_check ; 0x1987c
        0x0001ade0:    2800        .(      CMP      r0,#0
        0x0001ade2:    d041        A.      BEQ      0x1ae68 ; am_hal_pwrctrl_periph_enable + 372
        0x0001ade4:    4607        .F      MOV      r7,r0
        0x0001ade6:    2e12        ..      CMP      r6,#0x12
        0x0001ade8:    d18a        ..      BNE      0x1ad00 ; am_hal_pwrctrl_periph_enable + 12
        0x0001adea:    f8da400c    ...@    LDR      r4,[r10,#0xc]
        0x0001adee:    2c00        .,      CMP      r4,#0
        0x0001adf0:    f43faf86    ?...    BEQ.W    0x1ad00 ; am_hal_pwrctrl_periph_enable + 12
        0x0001adf4:    f89a0000    ....    LDRB     r0,[r10,#0]
        0x0001adf8:    2800        .(      CMP      r0,#0
        0x0001adfa:    f43faf81    ?...    BEQ.W    0x1ad00 ; am_hal_pwrctrl_periph_enable + 12
        0x0001adfe:    f7fefe79    ..y.    BL       am_hal_interrupt_master_disable ; 0x19af4
        0x0001ae02:    9004        ..      STR      r0,[sp,#0x10]
        0x0001ae04:    2000        .       MOVS     r0,#0
        0x0001ae06:    f88a0000    ....    STRB     r0,[r10,#0]
        0x0001ae0a:    e9da0101    ....    LDRD     r0,r1,[r10,#4]
        0x0001ae0e:    263f        ?&      MOVS     r6,#0x3f
        0x0001ae10:    1b05        ..      SUBS     r5,r0,r4
        0x0001ae12:    1b09        ..      SUBS     r1,r1,r4
        0x0001ae14:    2488        .$      MOVS     r4,#0x88
        0x0001ae16:    2d3f        ?-      CMP      r5,#0x3f
        0x0001ae18:    bf38        8.      IT       CC
        0x0001ae1a:    462e        .F      MOVCC    r6,r5
        0x0001ae1c:    e9ca5101    ...Q    STRD     r5,r1,[r10,#4]
        0x0001ae20:    f2c40402    ....    MOVT     r4,#0x4002
        0x0001ae24:    6822        "h      LDR      r2,[r4,#0]
        0x0001ae26:    203f        ?       MOVS     r0,#0x3f
        0x0001ae28:    293f        ?)      CMP      r1,#0x3f
        0x0001ae2a:    bf38        8.      IT       CC
        0x0001ae2c:    4608        .F      MOVCC    r0,r1
        0x0001ae2e:    f022023f    ".?.    BIC      r2,r2,#0x3f
        0x0001ae32:    2900        .)      CMP      r1,#0
        0x0001ae34:    bf58        X.      IT       PL
        0x0001ae36:    4302        .C      ORRPL    r2,r2,r0
        0x0001ae38:    2014        .       MOVS     r0,#0x14
        0x0001ae3a:    6022        "`      STR      r2,[r4,#0]
        0x0001ae3c:    f7fefcd6    ....    BL       am_hal_delay_us ; 0x197ec
        0x0001ae40:    f8d402e4    ....    LDR      r0,[r4,#0x2e4]
        0x0001ae44:    2d00        .-      CMP      r5,#0
        0x0001ae46:    f020707c     .|p    BIC      r0,r0,#0x3f00000
        0x0001ae4a:    bf58        X.      IT       PL
        0x0001ae4c:    ea405006    @..P    ORRPL    r0,r0,r6,LSL #20
        0x0001ae50:    f8c402e4    ....    STR      r0,[r4,#0x2e4]
        0x0001ae54:    9804        ..      LDR      r0,[sp,#0x10]
        0x0001ae56:    f7fefe55    ..U.    BL       am_hal_interrupt_master_set ; 0x19b04
        0x0001ae5a:    2014        .       MOVS     r0,#0x14
        0x0001ae5c:    f7fefcc6    ....    BL       am_hal_delay_us ; 0x197ec
        0x0001ae60:    4638        8F      MOV      r0,r7
        0x0001ae62:    b005        ..      ADD      sp,sp,#0x14
        0x0001ae64:    e8bd8ff0    ....    POP      {r4-r11,pc}
        0x0001ae68:    2e12        ..      CMP      r6,#0x12
        0x0001ae6a:    d10c        ..      BNE      0x1ae86 ; am_hal_pwrctrl_periph_enable + 402
        0x0001ae6c:    f6417110    A..q    MOV      r1,#0x1f10
        0x0001ae70:    f2c4010c    ....    MOVT     r1,#0x400c
        0x0001ae74:    2064        d       MOVS     r0,#0x64
        0x0001ae76:    2201        ."      MOVS     r2,#1
        0x0001ae78:    2301        .#      MOVS     r3,#1
        0x0001ae7a:    f7fefcd3    ....    BL       am_hal_delay_us_status_change ; 0x19824
        0x0001ae7e:    4607        .F      MOV      r7,r0
        0x0001ae80:    2800        .(      CMP      r0,#0
        0x0001ae82:    f47faf3d    ..=.    BNE      0x1ad00 ; am_hal_pwrctrl_periph_enable + 12
        0x0001ae86:    f8d80000    ....    LDR      r0,[r8,#0]
        0x0001ae8a:    ea000009    ....    AND      r0,r0,r9
        0x0001ae8e:    fab0f080    ....    CLZ      r0,r0
        0x0001ae92:    0947        G.      LSRS     r7,r0,#5
        0x0001ae94:    4638        8F      MOV      r0,r7
        0x0001ae96:    b005        ..      ADD      sp,sp,#0x14
        0x0001ae98:    e8bd8ff0    ....    POP      {r4-r11,pc}
    am_hal_pwrctrl_sram_config
        0x0001ae9c:    b570        p.      PUSH     {r4-r6,lr}
        0x0001ae9e:    b082        ..      SUB      sp,sp,#8
        0x0001aea0:    f241062c    A.,.    MOV      r6,#0x102c
        0x0001aea4:    f2c40602    ....    MOVT     r6,#0x4002
        0x0001aea8:    4604        .F      MOV      r4,r0
        0x0001aeaa:    7800        .x      LDRB     r0,[r0,#0]
        0x0001aeac:    f8561c08    V...    LDR      r1,[r6,#-8]
        0x0001aeb0:    2501        .%      MOVS     r5,#1
        0x0001aeb2:    f3600101    `...    BFI      r1,r0,#0,#2
        0x0001aeb6:    f8461c08    F...    STR      r1,[r6,#-8]
        0x0001aeba:    f8563c08    V..<    LDR      r3,[r6,#-8]
        0x0001aebe:    1f31        1.      SUBS     r1,r6,#4
        0x0001aec0:    2005        .       MOVS     r0,#5
        0x0001aec2:    2203        ."      MOVS     r2,#3
        0x0001aec4:    9500        ..      STR      r5,[sp,#0]
        0x0001aec6:    f7fefcd9    ....    BL       am_hal_delay_us_status_check ; 0x1987c
        0x0001aeca:    b108        ..      CBZ      r0,0x1aed0 ; am_hal_pwrctrl_sram_config + 52
        0x0001aecc:    b002        ..      ADD      sp,sp,#8
        0x0001aece:    bd70        p.      POP      {r4-r6,pc}
        0x0001aed0:    f8560c04    V...    LDR      r0,[r6,#-4]
        0x0001aed4:    f8561c08    V...    LDR      r1,[r6,#-8]
        0x0001aed8:    4048        H@      EORS     r0,r0,r1
        0x0001aeda:    0780        ..      LSLS     r0,r0,#30
        0x0001aedc:    d002        ..      BEQ      0x1aee4 ; am_hal_pwrctrl_sram_config + 72
        0x0001aede:    2001        .       MOVS     r0,#1
        0x0001aee0:    b002        ..      ADD      sp,sp,#8
        0x0001aee2:    bd70        p.      POP      {r4-r6,pc}
        0x0001aee4:    7860        `x      LDRB     r0,[r4,#1]
        0x0001aee6:    6831        1h      LDR      r1,[r6,#0]
        0x0001aee8:    f3600183    `...    BFI      r1,r0,#2,#2
        0x0001aeec:    6031        1`      STR      r1,[r6,#0]
        0x0001aeee:    78a0        .x      LDRB     r0,[r4,#2]
        0x0001aef0:    6831        1h      LDR      r1,[r6,#0]
        0x0001aef2:    f0000003    ....    AND      r0,r0,#3
        0x0001aef6:    f02101c0    !...    BIC      r1,r1,#0xc0
        0x0001aefa:    ea411080    A...    ORR      r0,r1,r0,LSL #6
        0x0001aefe:    6030        0`      STR      r0,[r6,#0]
        0x0001af00:    78e0        .x      LDRB     r0,[r4,#3]
        0x0001af02:    6831        1h      LDR      r1,[r6,#0]
        0x0001af04:    f0000003    ....    AND      r0,r0,#3
        0x0001af08:    f4217140    !.@q    BIC      r1,r1,#0x300
        0x0001af0c:    ea412000    A..     ORR      r0,r1,r0,LSL #8
        0x0001af10:    6030        0`      STR      r0,[r6,#0]
        0x0001af12:    7920         y      LDRB     r0,[r4,#4]
        0x0001af14:    6831        1h      LDR      r1,[r6,#0]
        0x0001af16:    f3601105    `...    BFI      r1,r0,#4,#2
        0x0001af1a:    6031        1`      STR      r1,[r6,#0]
        0x0001af1c:    7960        `y      LDRB     r0,[r4,#5]
        0x0001af1e:    2803        .(      CMP      r0,#3
        0x0001af20:    d818        ..      BHI      0x1af54 ; am_hal_pwrctrl_sram_config + 184
        0x0001af22:    e8dff000    ....    TBB      [pc,r0]
    $d.7
        0x0001af26:    0703        ..      DCW    1795
        0x0001af28:    bf00130d    ....    DCD    3204453133
    $t.8
        0x0001af2c:    6830        0h      LDR      r0,[r6,#0]
        0x0001af2e:    f0400003    @...    ORR      r0,r0,#3
        0x0001af32:    e00e        ..      B        0x1af52 ; am_hal_pwrctrl_sram_config + 182
        0x0001af34:    6830        0h      LDR      r0,[r6,#0]
        0x0001af36:    2102        .!      MOVS     r1,#2
        0x0001af38:    f3610001    a...    BFI      r0,r1,#0,#2
        0x0001af3c:    e009        ..      B        0x1af52 ; am_hal_pwrctrl_sram_config + 182
        0x0001af3e:    bf00        ..      NOP      
        0x0001af40:    6830        0h      LDR      r0,[r6,#0]
        0x0001af42:    2101        .!      MOVS     r1,#1
        0x0001af44:    f3610001    a...    BFI      r0,r1,#0,#2
        0x0001af48:    e003        ..      B        0x1af52 ; am_hal_pwrctrl_sram_config + 182
        0x0001af4a:    bf00        ..      NOP      
        0x0001af4c:    6830        0h      LDR      r0,[r6,#0]
        0x0001af4e:    f0200003     ...    BIC      r0,r0,#3
        0x0001af52:    6030        0`      STR      r0,[r6,#0]
        0x0001af54:    6970        pi      LDR      r0,[r6,#0x14]
        0x0001af56:    f4206040     .@`    BIC      r0,r0,#0xc00
        0x0001af5a:    6170        pa      STR      r0,[r6,#0x14]
        0x0001af5c:    2000        .       MOVS     r0,#0
        0x0001af5e:    b002        ..      ADD      sp,sp,#8
        0x0001af60:    bd70        p.      POP      {r4-r6,pc}
        0x0001af62:    0000        ..      MOVS     r0,r0
    am_hal_rtc_osc_disable
        0x0001af64:    f6440100    D...    MOVW     r1,#0x4800
        0x0001af68:    f2c40100    ....    MOVT     r1,#0x4000
        0x0001af6c:    6808        .h      LDR      r0,[r1,#0]
        0x0001af6e:    f0400210    @...    ORR      r2,r0,#0x10
        0x0001af72:    2000        .       MOVS     r0,#0
        0x0001af74:    600a        .`      STR      r2,[r1,#0]
        0x0001af76:    4770        pG      BX       lr
    am_hal_sysctrl_sleep
        0x0001af78:    e92d41f0    -..A    PUSH     {r4-r8,lr}
        0x0001af7c:    b084        ..      SUB      sp,sp,#0x10
        0x0001af7e:    a902        ..      ADD      r1,sp,#8
        0x0001af80:    f1b15f80    ..._    CMP      r1,#0x10000000
        0x0001af84:    d344        D.      BCC      0x1b010 ; am_hal_sysctrl_sleep + 152
        0x0001af86:    4604        .F      MOV      r4,r0
        0x0001af88:    2000        .       MOVS     r0,#0
        0x0001af8a:    f2c10006    ....    MOVT     r0,#0x1006
        0x0001af8e:    4281        .B      CMP      r1,r0
        0x0001af90:    d23e        >.      BCS      0x1b010 ; am_hal_sysctrl_sleep + 152
        0x0001af92:    f64e5510    N..U    MOV      r5,#0xed10
        0x0001af96:    f2410608    A...    MOV      r6,#0x1008
        0x0001af9a:    f2ce0500    ....    MOVT     r5,#0xe000
        0x0001af9e:    f2c40602    ....    MOVT     r6,#0x4002
        0x0001afa2:    f7fefda7    ....    BL       am_hal_interrupt_master_disable ; 0x19af4
        0x0001afa6:    9001        ..      STR      r0,[sp,#4]
        0x0001afa8:    f8d60100    ....    LDR      r0,[r6,#0x100]
        0x0001afac:    b394        ..      CBZ      r4,0x1b014 ; am_hal_sysctrl_sleep + 156
        0x0001afae:    f2403780    @..7    MOVW     r7,#0x380
        0x0001afb2:    f64f61d0    O..a    MOV      r1,#0xfed0
        0x0001afb6:    f2c40702    ....    MOVT     r7,#0x4002
        0x0001afba:    f6cf71ff    ...q    MOVT     r1,#0xffff
        0x0001afbe:    5879        yX      LDR      r1,[r7,r1]
        0x0001afc0:    07c9        ..      LSLS     r1,r1,#31
        0x0001afc2:    d127        '.      BNE      0x1b014 ; am_hal_sysctrl_sleep + 156
        0x0001afc4:    f0000030    ..0.    AND      r0,r0,#0x30
        0x0001afc8:    f64f4880    O..H    MOV      r8,#0xfc80
        0x0001afcc:    2830        0(      CMP      r0,#0x30
        0x0001afce:    f6cf78ff    ...x    MOVT     r8,#0xffff
        0x0001afd2:    d106        ..      BNE      0x1afe2 ; am_hal_sysctrl_sleep + 106
        0x0001afd4:    6830        0h      LDR      r0,[r6,#0]
        0x0001afd6:    f64f71ff    O..q    MOV      r1,#0xffff
        0x0001afda:    f2c01133    ..3.    MOVT     r1,#0x133
        0x0001afde:    4208        .B      TST      r0,r1
        0x0001afe0:    d01e        ..      BEQ      0x1b020 ; am_hal_sysctrl_sleep + 168
        0x0001afe2:    2400        .$      MOVS     r4,#0
        0x0001afe4:    f8570008    W...    LDR      r0,[r7,r8]
        0x0001afe8:    f4104f70    ..pO    TST      r0,#0xf000
        0x0001afec:    d139        9.      BNE      0x1b062 ; am_hal_sysctrl_sleep + 234
        0x0001afee:    6830        0h      LDR      r0,[r6,#0]
        0x0001aff0:    01c0        ..      LSLS     r0,r0,#7
        0x0001aff2:    d436        6.      BMI      0x1b062 ; am_hal_sysctrl_sleep + 234
        0x0001aff4:    f10d000f    ....    ADD      r0,sp,#0xf
        0x0001aff8:    f7fffdd6    ....    BL       am_hal_pwrctrl_mcu_mode_status ; 0x1aba8
        0x0001affc:    f89d000f    ....    LDRB     r0,[sp,#0xf]
        0x0001b000:    2802        .(      CMP      r0,#2
        0x0001b002:    d02e        ..      BEQ      0x1b062 ; am_hal_sysctrl_sleep + 234
        0x0001b004:    2002        .       MOVS     r0,#2
        0x0001b006:    f7fffd7f    ....    BL       am_hal_pwrctrl_mcu_mode_select ; 0x1ab08
        0x0001b00a:    2601        .&      MOVS     r6,#1
        0x0001b00c:    e02a        *.      B        0x1b064 ; am_hal_sysctrl_sleep + 236
        0x0001b00e:    bf00        ..      NOP      
        0x0001b010:    e7fe        ..      B        0x1b010 ; am_hal_sysctrl_sleep + 152
        0x0001b012:    bf00        ..      NOP      
        0x0001b014:    6828        (h      LDR      r0,[r5,#0]
        0x0001b016:    2400        .$      MOVS     r4,#0
        0x0001b018:    f0200004     ...    BIC      r0,r0,#4
        0x0001b01c:    2600        .&      MOVS     r6,#0
        0x0001b01e:    e024        $.      B        0x1b06a ; am_hal_sysctrl_sleep + 242
        0x0001b020:    f2400004    @...    MOVW     r0,#4
        0x0001b024:    f2c10000    ....    MOVT     r0,#0x1000
        0x0001b028:    6800        .h      LDR      r0,[r0,#0]
        0x0001b02a:    f8571c10    W...    LDR      r1,[r7,#-0x10]
        0x0001b02e:    f3605119    `..Q    BFI      r1,r0,#20,#6
        0x0001b032:    f8471c10    G...    STR      r1,[r7,#-0x10]
        0x0001b036:    6838        8h      LDR      r0,[r7,#0]
        0x0001b038:    f0204000     ..@    BIC      r0,r0,#0x80000000
        0x0001b03c:    6038        8`      STR      r0,[r7,#0]
        0x0001b03e:    6838        8h      LDR      r0,[r7,#0]
        0x0001b040:    f0204080     ..@    BIC      r0,r0,#0x40000000
        0x0001b044:    6038        8`      STR      r0,[r7,#0]
        0x0001b046:    f8570008    W...    LDR      r0,[r7,r8]
        0x0001b04a:    f4104f7f    ...O    TST      r0,#0xff00
        0x0001b04e:    d002        ..      BEQ      0x1b056 ; am_hal_sysctrl_sleep + 222
        0x0001b050:    2000        .       MOVS     r0,#0
        0x0001b052:    f000f9e1    ....    BL       buck_ldo_update_override ; 0x1b418
        0x0001b056:    2401        .$      MOVS     r4,#1
        0x0001b058:    f8570008    W...    LDR      r0,[r7,r8]
        0x0001b05c:    f4104f70    ..pO    TST      r0,#0xf000
        0x0001b060:    d0c5        ..      BEQ      0x1afee ; am_hal_sysctrl_sleep + 118
        0x0001b062:    2600        .&      MOVS     r6,#0
        0x0001b064:    6828        (h      LDR      r0,[r5,#0]
        0x0001b066:    f0400004    @...    ORR      r0,r0,#4
        0x0001b06a:    6028        (`      STR      r0,[r5,#0]
        0x0001b06c:    2001        .       MOVS     r0,#1
        0x0001b06e:    2100        .!      MOVS     r1,#0
        0x0001b070:    f7fefb30    ..0.    BL       am_hal_daxi_control ; 0x196d4
        0x0001b074:    bf30        0.      WFI      
        0x0001b076:    f3bf8f6f    ..o.    ISB      
        0x0001b07a:    b14e        N.      CBZ      r6,0x1b090 ; am_hal_sysctrl_sleep + 280
        0x0001b07c:    2001        .       MOVS     r0,#1
        0x0001b07e:    f7fffd43    ..C.    BL       am_hal_pwrctrl_mcu_mode_select ; 0x1ab08
        0x0001b082:    b93c        <.      CBNZ     r4,0x1b094 ; am_hal_sysctrl_sleep + 284
        0x0001b084:    9801        ..      LDR      r0,[sp,#4]
        0x0001b086:    f7fefd3d    ..=.    BL       am_hal_interrupt_master_set ; 0x19b04
        0x0001b08a:    b004        ..      ADD      sp,sp,#0x10
        0x0001b08c:    e8bd81f0    ....    POP      {r4-r8,pc}
        0x0001b090:    2c00        .,      CMP      r4,#0
        0x0001b092:    d0f7        ..      BEQ      0x1b084 ; am_hal_sysctrl_sleep + 268
        0x0001b094:    2001        .       MOVS     r0,#1
        0x0001b096:    f000f9bf    ....    BL       buck_ldo_update_override ; 0x1b418
        0x0001b09a:    f2403080    @..0    MOVW     r0,#0x380
        0x0001b09e:    f2c40002    ....    MOVT     r0,#0x4002
        0x0001b0a2:    6801        .h      LDR      r1,[r0,#0]
        0x0001b0a4:    f0414100    A..A    ORR      r1,r1,#0x80000000
        0x0001b0a8:    6001        .`      STR      r1,[r0,#0]
        0x0001b0aa:    6801        .h      LDR      r1,[r0,#0]
        0x0001b0ac:    f0414180    A..A    ORR      r1,r1,#0x40000000
        0x0001b0b0:    6001        .`      STR      r1,[r0,#0]
        0x0001b0b2:    f8501c10    P...    LDR      r1,[r0,#-0x10]
        0x0001b0b6:    f021717c    !.|q    BIC      r1,r1,#0x3f00000
        0x0001b0ba:    f8401c10    @...    STR      r1,[r0,#-0x10]
        0x0001b0be:    9801        ..      LDR      r0,[sp,#4]
        0x0001b0c0:    f7fefd20    .. .    BL       am_hal_interrupt_master_set ; 0x19b04
        0x0001b0c4:    b004        ..      ADD      sp,sp,#0x10
        0x0001b0c6:    e8bd81f0    ....    POP      {r4-r8,pc}
        0x0001b0ca:    0000        ..      MOVS     r0,r0
    am_hal_timer_clear
        0x0001b0cc:    b510        ..      PUSH     {r4,lr}
        0x0001b0ce:    b082        ..      SUB      sp,sp,#8
        0x0001b0d0:    4604        .F      MOV      r4,r0
        0x0001b0d2:    f7fefd0f    ....    BL       am_hal_interrupt_master_disable ; 0x19af4
        0x0001b0d6:    f2482100    H..!    MOVW     r1,#0x8200
        0x0001b0da:    9001        ..      STR      r0,[sp,#4]
        0x0001b0dc:    0160        `.      LSLS     r0,r4,#5
        0x0001b0de:    f2c40100    ....    MOVT     r1,#0x4000
        0x0001b0e2:    580a        .X      LDR      r2,[r1,r0]
        0x0001b0e4:    f0220201    "...    BIC      r2,r2,#1
        0x0001b0e8:    500a        .P      STR      r2,[r1,r0]
        0x0001b0ea:    580a        .X      LDR      r2,[r1,r0]
        0x0001b0ec:    f0420202    B...    ORR      r2,r2,#2
        0x0001b0f0:    500a        .P      STR      r2,[r1,r0]
        0x0001b0f2:    580a        .X      LDR      r2,[r1,r0]
        0x0001b0f4:    f0220202    "...    BIC      r2,r2,#2
        0x0001b0f8:    500a        .P      STR      r2,[r1,r0]
        0x0001b0fa:    580a        .X      LDR      r2,[r1,r0]
        0x0001b0fc:    f0420201    B...    ORR      r2,r2,#1
        0x0001b100:    500a        .P      STR      r2,[r1,r0]
        0x0001b102:    9801        ..      LDR      r0,[sp,#4]
        0x0001b104:    f7fefcfe    ....    BL       am_hal_interrupt_master_set ; 0x19b04
        0x0001b108:    2000        .       MOVS     r0,#0
        0x0001b10a:    b002        ..      ADD      sp,sp,#8
        0x0001b10c:    bd10        ..      POP      {r4,pc}
        0x0001b10e:    0000        ..      MOVS     r0,r0
    am_hal_timer_config
        0x0001b110:    f000bab2    ....    B.W      internal_timer_config ; 0x1b678
    am_hal_timer_default_config_set
        0x0001b114:    4601        .F      MOV      r1,r0
        0x0001b116:    f2401001    @...    MOV      r0,#0x101
        0x0001b11a:    8008        ..      STRH     r0,[r1,#0]
        0x0001b11c:    f04f7080    O..p    MOV      r0,#0x1000000
        0x0001b120:    f04f32ff    O..2    MOV      r2,#0xffffffff
        0x0001b124:    f8c10002    ....    STR      r0,[r1,#2]
        0x0001b128:    2000        .       MOVS     r0,#0
        0x0001b12a:    e9c10202    ....    STRD     r0,r2,[r1,#8]
        0x0001b12e:    2000        .       MOVS     r0,#0
        0x0001b130:    610a        .a      STR      r2,[r1,#0x10]
        0x0001b132:    4770        pG      BX       lr
    am_hal_timer_disable
        0x0001b134:    b510        ..      PUSH     {r4,lr}
        0x0001b136:    b082        ..      SUB      sp,sp,#8
        0x0001b138:    4604        .F      MOV      r4,r0
        0x0001b13a:    f7fefcdb    ....    BL       am_hal_interrupt_master_disable ; 0x19af4
        0x0001b13e:    f2482100    H..!    MOVW     r1,#0x8200
        0x0001b142:    9001        ..      STR      r0,[sp,#4]
        0x0001b144:    0160        `.      LSLS     r0,r4,#5
        0x0001b146:    f2c40100    ....    MOVT     r1,#0x4000
        0x0001b14a:    580a        .X      LDR      r2,[r1,r0]
        0x0001b14c:    f0220201    "...    BIC      r2,r2,#1
        0x0001b150:    500a        .P      STR      r2,[r1,r0]
        0x0001b152:    9801        ..      LDR      r0,[sp,#4]
        0x0001b154:    f7fefcd6    ....    BL       am_hal_interrupt_master_set ; 0x19b04
        0x0001b158:    2000        .       MOVS     r0,#0
        0x0001b15a:    b002        ..      ADD      sp,sp,#8
        0x0001b15c:    bd10        ..      POP      {r4,pc}
        0x0001b15e:    0000        ..      MOVS     r0,r0
    am_hal_timer_enable
        0x0001b160:    b510        ..      PUSH     {r4,lr}
        0x0001b162:    b082        ..      SUB      sp,sp,#8
        0x0001b164:    4604        .F      MOV      r4,r0
        0x0001b166:    f7fefcc5    ....    BL       am_hal_interrupt_master_disable ; 0x19af4
        0x0001b16a:    f2480110    H...    MOV      r1,#0x8010
        0x0001b16e:    9001        ..      STR      r0,[sp,#4]
        0x0001b170:    f2c40100    ....    MOVT     r1,#0x4000
        0x0001b174:    2001        .       MOVS     r0,#1
        0x0001b176:    680a        .h      LDR      r2,[r1,#0]
        0x0001b178:    40a0        .@      LSLS     r0,r0,r4
        0x0001b17a:    4310        .C      ORRS     r0,r0,r2
        0x0001b17c:    6008        .`      STR      r0,[r1,#0]
        0x0001b17e:    eb011044    ..D.    ADD      r0,r1,r4,LSL #5
        0x0001b182:    f8d011f0    ....    LDR      r1,[r0,#0x1f0]
        0x0001b186:    f0410102    A...    ORR      r1,r1,#2
        0x0001b18a:    f8c011f0    ....    STR      r1,[r0,#0x1f0]
        0x0001b18e:    f8d011f0    ....    LDR      r1,[r0,#0x1f0]
        0x0001b192:    f0210102    !...    BIC      r1,r1,#2
        0x0001b196:    f8c011f0    ....    STR      r1,[r0,#0x1f0]
        0x0001b19a:    f8d011f0    ....    LDR      r1,[r0,#0x1f0]
        0x0001b19e:    f0410101    A...    ORR      r1,r1,#1
        0x0001b1a2:    f8c011f0    ....    STR      r1,[r0,#0x1f0]
        0x0001b1a6:    9801        ..      LDR      r0,[sp,#4]
        0x0001b1a8:    f7fefcac    ....    BL       am_hal_interrupt_master_set ; 0x19b04
        0x0001b1ac:    2000        .       MOVS     r0,#0
        0x0001b1ae:    b002        ..      ADD      sp,sp,#8
        0x0001b1b0:    bd10        ..      POP      {r4,pc}
        0x0001b1b2:    0000        ..      MOVS     r0,r0
    am_hal_timer_interrupt_clear
        0x0001b1b4:    f2480268    H.h.    MOV      r2,#0x8068
        0x0001b1b8:    4601        .F      MOV      r1,r0
        0x0001b1ba:    f2c40200    ....    MOVT     r2,#0x4000
        0x0001b1be:    2000        .       MOVS     r0,#0
        0x0001b1c0:    6011        .`      STR      r1,[r2,#0]
        0x0001b1c2:    4770        pG      BX       lr
    am_hal_timer_interrupt_disable
        0x0001b1c4:    f2480160    H.`.    MOV      r1,#0x8060
        0x0001b1c8:    f2c40100    ....    MOVT     r1,#0x4000
        0x0001b1cc:    680a        .h      LDR      r2,[r1,#0]
        0x0001b1ce:    4382        .C      BICS     r2,r2,r0
        0x0001b1d0:    2000        .       MOVS     r0,#0
        0x0001b1d2:    600a        .`      STR      r2,[r1,#0]
        0x0001b1d4:    4770        pG      BX       lr
        0x0001b1d6:    0000        ..      MOVS     r0,r0
    am_hal_timer_interrupt_enable
        0x0001b1d8:    f2480160    H.`.    MOV      r1,#0x8060
        0x0001b1dc:    f2c40100    ....    MOVT     r1,#0x4000
        0x0001b1e0:    680a        .h      LDR      r2,[r1,#0]
        0x0001b1e2:    4302        .C      ORRS     r2,r2,r0
        0x0001b1e4:    2000        .       MOVS     r0,#0
        0x0001b1e6:    600a        .`      STR      r2,[r1,#0]
        0x0001b1e8:    4770        pG      BX       lr
        0x0001b1ea:    0000        ..      MOVS     r0,r0
    am_mspi0_isr
        0x0001b1ec:    b580        ..      PUSH     {r7,lr}
        0x0001b1ee:    b082        ..      SUB      sp,sp,#8
        0x0001b1f0:    f64170c4    A..p    MOV      r0,#0x1fc4
        0x0001b1f4:    f2c10000    ....    MOVT     r0,#0x1000
        0x0001b1f8:    6800        .h      LDR      r0,[r0,#0]
        0x0001b1fa:    a901        ..      ADD      r1,sp,#4
        0x0001b1fc:    2200        ."      MOVS     r2,#0
        0x0001b1fe:    f7fff84b    ..K.    BL       am_hal_mspi_interrupt_status_get ; 0x1a298
        0x0001b202:    b998        ..      CBNZ     r0,0x1b22c ; am_mspi0_isr + 64
        0x0001b204:    e7ff        ..      B        0x1b206 ; am_mspi0_isr + 26
        0x0001b206:    9801        ..      LDR      r0,[sp,#4]
        0x0001b208:    b178        x.      CBZ      r0,0x1b22a ; am_mspi0_isr + 62
        0x0001b20a:    e7ff        ..      B        0x1b20c ; am_mspi0_isr + 32
        0x0001b20c:    f64170c4    A..p    MOV      r0,#0x1fc4
        0x0001b210:    f2c10000    ....    MOVT     r0,#0x1000
        0x0001b214:    9000        ..      STR      r0,[sp,#0]
        0x0001b216:    6800        .h      LDR      r0,[r0,#0]
        0x0001b218:    9901        ..      LDR      r1,[sp,#4]
        0x0001b21a:    f7fefe93    ....    BL       am_hal_mspi_interrupt_clear ; 0x19f44
        0x0001b21e:    9800        ..      LDR      r0,[sp,#0]
        0x0001b220:    6800        .h      LDR      r0,[r0,#0]
        0x0001b222:    9901        ..      LDR      r1,[sp,#4]
        0x0001b224:    f7fefebc    ....    BL       am_hal_mspi_interrupt_service ; 0x19fa0
        0x0001b228:    e7ff        ..      B        0x1b22a ; am_mspi0_isr + 62
        0x0001b22a:    e7ff        ..      B        0x1b22c ; am_mspi0_isr + 64
        0x0001b22c:    b002        ..      ADD      sp,sp,#8
        0x0001b22e:    bd80        ..      POP      {r7,pc}
    am_timer00_isr
        0x0001b230:    b580        ..      PUSH     {r7,lr}
        0x0001b232:    2002        .       MOVS     r0,#2
        0x0001b234:    f7ffffbe    ....    BL       am_hal_timer_interrupt_clear ; 0x1b1b4
        0x0001b238:    2000        .       MOVS     r0,#0
        0x0001b23a:    f7ffff47    ..G.    BL       am_hal_timer_clear ; 0x1b0cc
        0x0001b23e:    f6470024    G.$.    MOV      r0,#0x7824
        0x0001b242:    f2c10000    ....    MOVT     r0,#0x1000
        0x0001b246:    6800        .h      LDR      r0,[r0,#0]
        0x0001b248:    b138        8.      CBZ      r0,0x1b25a ; am_timer00_isr + 42
        0x0001b24a:    e7ff        ..      B        0x1b24c ; am_timer00_isr + 28
        0x0001b24c:    f6470024    G.$.    MOV      r0,#0x7824
        0x0001b250:    f2c10000    ....    MOVT     r0,#0x1000
        0x0001b254:    6800        .h      LDR      r0,[r0,#0]
        0x0001b256:    4780        .G      BLX      r0
        0x0001b258:    e7ff        ..      B        0x1b25a ; am_timer00_isr + 42
        0x0001b25a:    bd80        ..      POP      {r7,pc}
    am_util_faultisr_collect_data
        0x0001b25c:    b580        ..      PUSH     {r7,lr}
        0x0001b25e:    b096        ..      SUB      sp,sp,#0x58
        0x0001b260:    9015        ..      STR      r0,[sp,#0x54]
        0x0001b262:    2000        .       MOVS     r0,#0
        0x0001b264:    9008        ..      STR      r0,[sp,#0x20]
        0x0001b266:    9007        ..      STR      r0,[sp,#0x1c]
        0x0001b268:    9006        ..      STR      r0,[sp,#0x18]
        0x0001b26a:    9005        ..      STR      r0,[sp,#0x14]
        0x0001b26c:    9004        ..      STR      r0,[sp,#0x10]
        0x0001b26e:    9003        ..      STR      r0,[sp,#0xc]
        0x0001b270:    9002        ..      STR      r0,[sp,#8]
        0x0001b272:    9802        ..      LDR      r0,[sp,#8]
        0x0001b274:    9013        ..      STR      r0,[sp,#0x4c]
        0x0001b276:    f64e5028    N.(P    MOV      r0,#0xed28
        0x0001b27a:    f2ce0000    ....    MOVT     r0,#0xe000
        0x0001b27e:    6800        .h      LDR      r0,[r0,#0]
        0x0001b280:    9013        ..      STR      r0,[sp,#0x4c]
        0x0001b282:    9813        ..      LDR      r0,[sp,#0x4c]
        0x0001b284:    f88d0050    ..P.    STRB     r0,[sp,#0x50]
        0x0001b288:    9813        ..      LDR      r0,[sp,#0x4c]
        0x0001b28a:    0a00        ..      LSRS     r0,r0,#8
        0x0001b28c:    f88d0051    ..Q.    STRB     r0,[sp,#0x51]
        0x0001b290:    9813        ..      LDR      r0,[sp,#0x4c]
        0x0001b292:    0c00        ..      LSRS     r0,r0,#16
        0x0001b294:    f8ad0052    ..R.    STRH     r0,[sp,#0x52]
        0x0001b298:    f64e5038    N.8P    MOV      r0,#0xed38
        0x0001b29c:    f2ce0000    ....    MOVT     r0,#0xe000
        0x0001b2a0:    6800        .h      LDR      r0,[r0,#0]
        0x0001b2a2:    9012        ..      STR      r0,[sp,#0x48]
        0x0001b2a4:    9815        ..      LDR      r0,[sp,#0x54]
        0x0001b2a6:    f000f845    ..E.    BL       am_valid_sp ; 0x1b334
        0x0001b2aa:    b3d8        ..      CBZ      r0,0x1b324 ; am_util_faultisr_collect_data + 200
        0x0001b2ac:    e7ff        ..      B        0x1b2ae ; am_util_faultisr_collect_data + 82
        0x0001b2ae:    f89d0051    ..Q.    LDRB     r0,[sp,#0x51]
        0x0001b2b2:    0780        ..      LSLS     r0,r0,#30
        0x0001b2b4:    2800        .(      CMP      r0,#0
        0x0001b2b6:    d506        ..      BPL      0x1b2c6 ; am_util_faultisr_collect_data + 106
        0x0001b2b8:    e7ff        ..      B        0x1b2ba ; am_util_faultisr_collect_data + 94
        0x0001b2ba:    9915        ..      LDR      r1,[sp,#0x54]
        0x0001b2bc:    2006        .       MOVS     r0,#6
        0x0001b2be:    f7fdff7f    ....    BL       am_getStackedReg ; 0x191c0
        0x0001b2c2:    9001        ..      STR      r0,[sp,#4]
        0x0001b2c4:    e003        ..      B        0x1b2ce ; am_util_faultisr_collect_data + 114
        0x0001b2c6:    f04f30ff    O..0    MOV      r0,#0xffffffff
        0x0001b2ca:    9001        ..      STR      r0,[sp,#4]
        0x0001b2cc:    e7ff        ..      B        0x1b2ce ; am_util_faultisr_collect_data + 114
        0x0001b2ce:    9801        ..      LDR      r0,[sp,#4]
        0x0001b2d0:    9011        ..      STR      r0,[sp,#0x44]
        0x0001b2d2:    9915        ..      LDR      r1,[sp,#0x54]
        0x0001b2d4:    2000        .       MOVS     r0,#0
        0x0001b2d6:    f7fdff73    ..s.    BL       am_getStackedReg ; 0x191c0
        0x0001b2da:    9009        ..      STR      r0,[sp,#0x24]
        0x0001b2dc:    9915        ..      LDR      r1,[sp,#0x54]
        0x0001b2de:    2001        .       MOVS     r0,#1
        0x0001b2e0:    f7fdff6e    ..n.    BL       am_getStackedReg ; 0x191c0
        0x0001b2e4:    900a        ..      STR      r0,[sp,#0x28]
        0x0001b2e6:    9915        ..      LDR      r1,[sp,#0x54]
        0x0001b2e8:    2002        .       MOVS     r0,#2
        0x0001b2ea:    f7fdff69    ..i.    BL       am_getStackedReg ; 0x191c0
        0x0001b2ee:    900b        ..      STR      r0,[sp,#0x2c]
        0x0001b2f0:    9915        ..      LDR      r1,[sp,#0x54]
        0x0001b2f2:    2003        .       MOVS     r0,#3
        0x0001b2f4:    f7fdff64    ..d.    BL       am_getStackedReg ; 0x191c0
        0x0001b2f8:    900c        ..      STR      r0,[sp,#0x30]
        0x0001b2fa:    9915        ..      LDR      r1,[sp,#0x54]
        0x0001b2fc:    2004        .       MOVS     r0,#4
        0x0001b2fe:    f7fdff5f    .._.    BL       am_getStackedReg ; 0x191c0
        0x0001b302:    900d        ..      STR      r0,[sp,#0x34]
        0x0001b304:    9915        ..      LDR      r1,[sp,#0x54]
        0x0001b306:    2005        .       MOVS     r0,#5
        0x0001b308:    f7fdff5a    ..Z.    BL       am_getStackedReg ; 0x191c0
        0x0001b30c:    900e        ..      STR      r0,[sp,#0x38]
        0x0001b30e:    9915        ..      LDR      r1,[sp,#0x54]
        0x0001b310:    2006        .       MOVS     r0,#6
        0x0001b312:    f7fdff55    ..U.    BL       am_getStackedReg ; 0x191c0
        0x0001b316:    900f        ..      STR      r0,[sp,#0x3c]
        0x0001b318:    9915        ..      LDR      r1,[sp,#0x54]
        0x0001b31a:    2007        .       MOVS     r0,#7
        0x0001b31c:    f7fdff50    ..P.    BL       am_getStackedReg ; 0x191c0
        0x0001b320:    9010        ..      STR      r0,[sp,#0x40]
        0x0001b322:    e7ff        ..      B        0x1b324 ; am_util_faultisr_collect_data + 200
        0x0001b324:    a803        ..      ADD      r0,sp,#0xc
        0x0001b326:    f7fefaf5    ....    BL       am_hal_fault_status_get ; 0x19914
        0x0001b32a:    2000        .       MOVS     r0,#0
        0x0001b32c:    9002        ..      STR      r0,[sp,#8]
        0x0001b32e:    e7ff        ..      B        0x1b330 ; am_util_faultisr_collect_data + 212
        0x0001b330:    e7fe        ..      B        0x1b330 ; am_util_faultisr_collect_data + 212
        0x0001b332:    0000        ..      MOVS     r0,r0
    am_valid_sp
        0x0001b334:    b082        ..      SUB      sp,sp,#8
        0x0001b336:    9000        ..      STR      r0,[sp,#0]
        0x0001b338:    9800        ..      LDR      r0,[sp,#0]
        0x0001b33a:    f1b05f80    ..._    CMP      r0,#0x10000000
        0x0001b33e:    d30c        ..      BCC      0x1b35a ; am_valid_sp + 38
        0x0001b340:    e7ff        ..      B        0x1b342 ; am_valid_sp + 14
        0x0001b342:    9800        ..      LDR      r0,[sp,#0]
        0x0001b344:    f64f71ff    O..q    MOV      r1,#0xffff
        0x0001b348:    f2c10115    ....    MOVT     r1,#0x1015
        0x0001b34c:    4288        .B      CMP      r0,r1
        0x0001b34e:    d804        ..      BHI      0x1b35a ; am_valid_sp + 38
        0x0001b350:    e7ff        ..      B        0x1b352 ; am_valid_sp + 30
        0x0001b352:    2001        .       MOVS     r0,#1
        0x0001b354:    f88d0007    ....    STRB     r0,[sp,#7]
        0x0001b358:    e003        ..      B        0x1b362 ; am_valid_sp + 46
        0x0001b35a:    2000        .       MOVS     r0,#0
        0x0001b35c:    f88d0007    ....    STRB     r0,[sp,#7]
        0x0001b360:    e7ff        ..      B        0x1b362 ; am_valid_sp + 46
        0x0001b362:    f89d0007    ....    LDRB     r0,[sp,#7]
        0x0001b366:    b002        ..      ADD      sp,sp,#8
        0x0001b368:    4770        pG      BX       lr
        0x0001b36a:    0000        ..      MOVS     r0,r0
    buck_ldo_override_init
        0x0001b36c:    b5b0        ..      PUSH     {r4,r5,r7,lr}
        0x0001b36e:    2560        `%      MOVS     r5,#0x60
        0x0001b370:    f2c40502    ....    MOVT     r5,#0x4002
        0x0001b374:    6828        (h      LDR      r0,[r5,#0]
        0x0001b376:    f2400400    @...    MOVW     r4,#0
        0x0001b37a:    f4403000    @..0    ORR      r0,r0,#0x20000
        0x0001b37e:    6028        (`      STR      r0,[r5,#0]
        0x0001b380:    6828        (h      LDR      r0,[r5,#0]
        0x0001b382:    f2c10400    ....    MOVT     r4,#0x1000
        0x0001b386:    f4402080    @..     ORR      r0,r0,#0x40000
        0x0001b38a:    6028        (`      STR      r0,[r5,#0]
        0x0001b38c:    6828        (h      LDR      r0,[r5,#0]
        0x0001b38e:    f4402000    @..     ORR      r0,r0,#0x80000
        0x0001b392:    6028        (`      STR      r0,[r5,#0]
        0x0001b394:    6828        (h      LDR      r0,[r5,#0]
        0x0001b396:    f4403080    @..0    ORR      r0,r0,#0x10000
        0x0001b39a:    6028        (`      STR      r0,[r5,#0]
        0x0001b39c:    6820         h      LDR      r0,[r4,#0]
        0x0001b39e:    1c41        A.      ADDS     r1,r0,#1
        0x0001b3a0:    d10a        ..      BNE      0x1b3b8 ; buck_ldo_override_init + 76
        0x0001b3a2:    2001        .       MOVS     r0,#1
        0x0001b3a4:    f24041c4    @..A    MOV      r1,#0x4c4
        0x0001b3a8:    2201        ."      MOVS     r2,#1
        0x0001b3aa:    4623        #F      MOV      r3,r4
        0x0001b3ac:    f7fefbae    ....    BL       am_hal_mram_info_read ; 0x19b0c
        0x0001b3b0:    bb50        P.      CBNZ     r0,0x1b408 ; buck_ldo_override_init + 156
        0x0001b3b2:    6820         h      LDR      r0,[r4,#0]
        0x0001b3b4:    1c41        A.      ADDS     r1,r0,#1
        0x0001b3b6:    d027        '.      BEQ      0x1b408 ; buck_ldo_override_init + 156
        0x0001b3b8:    2801        .(      CMP      r0,#1
        0x0001b3ba:    d80b        ..      BHI      0x1b3d4 ; buck_ldo_override_init + 104
        0x0001b3bc:    6a28        (j      LDR      r0,[r5,#0x20]
        0x0001b3be:    f36f209f    o..     BFC      r0,#10,#22
        0x0001b3c2:    2807        .(      CMP      r0,#7
        0x0001b3c4:    d306        ..      BCC      0x1b3d4 ; buck_ldo_override_init + 104
        0x0001b3c6:    6a28        (j      LDR      r0,[r5,#0x20]
        0x0001b3c8:    6a29        )j      LDR      r1,[r5,#0x20]
        0x0001b3ca:    f20030fa    ...0    ADD      r0,r0,#0x3fa
        0x0001b3ce:    f3600109    `...    BFI      r1,r0,#0,#10
        0x0001b3d2:    6229        )b      STR      r1,[r5,#0x20]
        0x0001b3d4:    6828        (h      LDR      r0,[r5,#0]
        0x0001b3d6:    f0200010     ...    BIC      r0,r0,#0x10
        0x0001b3da:    6028        (`      STR      r0,[r5,#0]
        0x0001b3dc:    6828        (h      LDR      r0,[r5,#0]
        0x0001b3de:    f040000e    @...    ORR      r0,r0,#0xe
        0x0001b3e2:    6028        (`      STR      r0,[r5,#0]
        0x0001b3e4:    6828        (h      LDR      r0,[r5,#0]
        0x0001b3e6:    f0400001    @...    ORR      r0,r0,#1
        0x0001b3ea:    6028        (`      STR      r0,[r5,#0]
        0x0001b3ec:    6828        (h      LDR      r0,[r5,#0]
        0x0001b3ee:    f4207000     ..p    BIC      r0,r0,#0x200
        0x0001b3f2:    6028        (`      STR      r0,[r5,#0]
        0x0001b3f4:    6828        (h      LDR      r0,[r5,#0]
        0x0001b3f6:    f44070e0    @..p    ORR      r0,r0,#0x1c0
        0x0001b3fa:    6028        (`      STR      r0,[r5,#0]
        0x0001b3fc:    6828        (h      LDR      r0,[r5,#0]
        0x0001b3fe:    f0400020    @. .    ORR      r0,r0,#0x20
        0x0001b402:    6028        (`      STR      r0,[r5,#0]
        0x0001b404:    bdb0        ..      POP      {r4,r5,r7,pc}
        0x0001b406:    bf00        ..      NOP      
        0x0001b408:    2000        .       MOVS     r0,#0
        0x0001b40a:    6020         `      STR      r0,[r4,#0]
        0x0001b40c:    6a28        (j      LDR      r0,[r5,#0x20]
        0x0001b40e:    f36f209f    o..     BFC      r0,#10,#22
        0x0001b412:    2807        .(      CMP      r0,#7
        0x0001b414:    d3de        ..      BCC      0x1b3d4 ; buck_ldo_override_init + 104
        0x0001b416:    e7d6        ..      B        0x1b3c6 ; buck_ldo_override_init + 90
    buck_ldo_update_override
        0x0001b418:    2160        `!      MOVS     r1,#0x60
        0x0001b41a:    f2c40102    ....    MOVT     r1,#0x4002
        0x0001b41e:    680a        .h      LDR      r2,[r1,#0]
        0x0001b420:    f4223280    "..2    BIC      r2,r2,#0x10000
        0x0001b424:    f3604210    `..B    BFI      r2,r0,#16,#1
        0x0001b428:    600a        .`      STR      r2,[r1,#0]
        0x0001b42a:    680a        .h      LDR      r2,[r1,#0]
        0x0001b42c:    f0220201    "...    BIC      r2,r2,#1
        0x0001b430:    4402        .D      ADD      r2,r2,r0
        0x0001b432:    600a        .`      STR      r2,[r1,#0]
        0x0001b434:    680a        .h      LDR      r2,[r1,#0]
        0x0001b436:    f0220220    ". .    BIC      r2,r2,#0x20
        0x0001b43a:    f3601245    `.E.    BFI      r2,r0,#5,#1
        0x0001b43e:    600a        .`      STR      r2,[r1,#0]
        0x0001b440:    4770        pG      BX       lr
        0x0001b442:    0000        ..      MOVS     r0,r0
    build_dma_cmdlist
        0x0001b444:    b5f0        ..      PUSH     {r4-r7,lr}
        0x0001b446:    6844        Dh      LDR      r4,[r0,#4]
        0x0001b448:    2901        .)      CMP      r1,#1
        0x0001b44a:    f04f0c00    O...    MOV      r12,#0
        0x0001b44e:    d045        E.      BEQ      0x1b4dc ; build_dma_cmdlist + 152
        0x0001b450:    2900        .)      CMP      r1,#0
        0x0001b452:    f040809c    @...    BNE.W    0x1b58e ; build_dma_cmdlist + 330
        0x0001b456:    6819        .h      LDR      r1,[r3,#0]
        0x0001b458:    2500        .%      MOVS     r5,#0
        0x0001b45a:    ebb54f11    ...O    CMP      r5,r1,LSR #16
        0x0001b45e:    bf1c        ..      ITT      NE
        0x0001b460:    2005        .       MOVNE    r0,#5
        0x0001b462:    bdf0        ..      POPNE    {r4-r7,pc}
        0x0001b464:    7c9d        .|      LDRB     r5,[r3,#0x12]
        0x0001b466:    2d00        .-      CMP      r5,#0
        0x0001b468:    bf1c        ..      ITT      NE
        0x0001b46a:    2007        .       MOVNE    r0,#7
        0x0001b46c:    bdf0        ..      POPNE    {r4-r7,pc}
        0x0001b46e:    2500        .%      MOVS     r5,#0
        0x0001b470:    f2c40506    ....    MOVT     r5,#0x4006
        0x0001b474:    eb053504    ...5    ADD      r5,r5,r4,LSL #12
        0x0001b478:    689c        .h      LDR      r4,[r3,#8]
        0x0001b47a:    f1050c08    ....    ADD      r12,r5,#8
        0x0001b47e:    e9c2c400    ....    STRD     r12,r4,[r2,#0]
        0x0001b482:    89dc        ..      LDRH     r4,[r3,#0xe]
        0x0001b484:    f1050c0c    ....    ADD      r12,r5,#0xc
        0x0001b488:    e9c2c402    ....    STRD     r12,r4,[r2,#8]
        0x0001b48c:    795c        \y      LDRB     r4,[r3,#5]
        0x0001b48e:    ea4f4c01    O..L    LSL      r12,r1,#16
        0x0001b492:    f893e004    ....    LDRB     lr,[r3,#4]
        0x0001b496:    7999        .y      LDRB     r1,[r3,#6]
        0x0001b498:    7b1e        .{      LDRB     r6,[r3,#0xc]
        0x0001b49a:    ea4c24c4    L..$    ORR      r4,r12,r4,LSL #11
        0x0001b49e:    6115        .a      STR      r5,[r2,#0x10]
        0x0001b4a0:    79dd        .y      LDRB     r5,[r3,#7]
        0x0001b4a2:    f0010101    ....    AND      r1,r1,#1
        0x0001b4a6:    ea44244e    D.N$    ORR      r4,r4,lr,LSL #9
        0x0001b4aa:    f0060603    ....    AND      r6,r6,#3
        0x0001b4ae:    ea4411c1    D...    ORR      r1,r4,r1,LSL #7
        0x0001b4b2:    f0050507    ....    AND      r5,r5,#7
        0x0001b4b6:    7c1f        .|      LDRB     r7,[r3,#0x10]
        0x0001b4b8:    ea411186    A...    ORR      r1,r1,r6,LSL #6
        0x0001b4bc:    7b40        @{      LDRB     r0,[r0,#0xd]
        0x0001b4be:    ea411145    A.E.    ORR      r1,r1,r5,LSL #5
        0x0001b4c2:    7c5b        [|      LDRB     r3,[r3,#0x11]
        0x0001b4c4:    ea412187    A..!    ORR      r1,r1,r7,LSL #10
        0x0001b4c8:    ea412000    A..     ORR      r0,r1,r0,LSL #8
        0x0001b4cc:    ea403003    @..0    ORR      r0,r0,r3,LSL #12
        0x0001b4d0:    f0400001    @...    ORR      r0,r0,#1
        0x0001b4d4:    6150        Pa      STR      r0,[r2,#0x14]
        0x0001b4d6:    2000        .       MOVS     r0,#0
        0x0001b4d8:    bdf0        ..      POP      {r4-r7,pc}
        0x0001b4da:    bf00        ..      NOP      
        0x0001b4dc:    685d        ]h      LDR      r5,[r3,#4]
        0x0001b4de:    ebbc6f15    ...o    CMP      r12,r5,LSR #24
        0x0001b4e2:    bf1c        ..      ITT      NE
        0x0001b4e4:    2005        .       MOVNE    r0,#5
        0x0001b4e6:    bdf0        ..      POPNE    {r4-r7,pc}
        0x0001b4e8:    f8d0e838    ..8.    LDR      lr,[r0,#0x838]
        0x0001b4ec:    f8d3c010    ....    LDR      r12,[r3,#0x10]
        0x0001b4f0:    f1be0f00    ....    CMP      lr,#0
        0x0001b4f4:    d006        ..      BEQ      0x1b504 ; build_dma_cmdlist + 192
        0x0001b4f6:    f1bc0f00    ....    CMP      r12,#0
        0x0001b4fa:    bf1c        ..      ITT      NE
        0x0001b4fc:    2007        .       MOVNE    r0,#7
        0x0001b4fe:    bdf0        ..      POPNE    {r4-r7,pc}
        0x0001b500:    f04f0c00    O...    MOV      r12,#0
        0x0001b504:    2100        .!      MOVS     r1,#0
        0x0001b506:    f2c40106    ....    MOVT     r1,#0x4006
        0x0001b50a:    eb013104    ...1    ADD      r1,r1,r4,LSL #12
        0x0001b50e:    2400        .$      MOVS     r4,#0
        0x0001b510:    6354        Tc      STR      r4,[r2,#0x34]
        0x0001b512:    f5017484    ...t    ADD      r4,r1,#0x108
        0x0001b516:    6114        .a      STR      r4,[r2,#0x10]
        0x0001b518:    68dc        .h      LDR      r4,[r3,#0xc]
        0x0001b51a:    f1020720    .. .    ADD      r7,r2,#0x20
        0x0001b51e:    6154        Ta      STR      r4,[r2,#0x14]
        0x0001b520:    f5017486    ...t    ADD      r4,r1,#0x10c
        0x0001b524:    6194        .a      STR      r4,[r2,#0x18]
        0x0001b526:    689c        .h      LDR      r4,[r3,#8]
        0x0001b528:    f5017680    ...v    ADD      r6,r1,#0x100
        0x0001b52c:    61d4        .a      STR      r4,[r2,#0x1c]
        0x0001b52e:    f5017488    ...t    ADD      r4,r1,#0x110
        0x0001b532:    c770        p.      STM      r7!,{r4-r6}
        0x0001b534:    785d        ]x      LDRB     r5,[r3,#1]
        0x0001b536:    6316        .c      STR      r6,[r2,#0x30]
        0x0001b538:    781c        .x      LDRB     r4,[r3,#0]
        0x0001b53a:    2604        .&      MOVS     r6,#4
        0x0001b53c:    ea060585    ....    AND      r5,r6,r5,LSL #2
        0x0001b540:    f3641505    d...    BFI      r5,r4,#4,#2
        0x0001b544:    1cec        ..      ADDS     r4,r5,#3
        0x0001b546:    62d4        .b      STR      r4,[r2,#0x2c]
        0x0001b548:    f501742e    ...t    ADD      r4,r1,#0x2b8
        0x0001b54c:    6094        .`      STR      r4,[r2,#8]
        0x0001b54e:    6014        .`      STR      r4,[r2,#0]
        0x0001b550:    f1be0f02    ....    CMP      lr,#2
        0x0001b554:    f44f4480    O..D    MOV      r4,#0x4000
        0x0001b558:    d00a        ..      BEQ      0x1b570 ; build_dma_cmdlist + 300
        0x0001b55a:    f1be0f01    ....    CMP      lr,#1
        0x0001b55e:    d10b        ..      BNE      0x1b578 ; build_dma_cmdlist + 308
        0x0001b560:    f24407a0    D...    MOV      r7,#0x40a0
        0x0001b564:    ea4c0507    L...    ORR      r5,r12,r7
        0x0001b568:    2702        .'      MOVS     r7,#2
        0x0001b56a:    f8c07838    ..8x    STR      r7,[r0,#0x838]
        0x0001b56e:    e005        ..      B        0x1b57c ; build_dma_cmdlist + 312
        0x0001b570:    f44f4580    O..E    MOV      r5,#0x4000
        0x0001b574:    e002        ..      B        0x1b57c ; build_dma_cmdlist + 312
        0x0001b576:    bf00        ..      NOP      
        0x0001b578:    f44c4581    L..E    ORR      r5,r12,#0x4080
        0x0001b57c:    6958        Xi      LDR      r0,[r3,#0x14]
        0x0001b57e:    f501712d    ..-q    ADD      r1,r1,#0x2b4
        0x0001b582:    f04f0c00    O...    MOV      r12,#0
        0x0001b586:    6055        U`      STR      r5,[r2,#4]
        0x0001b588:    60d4        .`      STR      r4,[r2,#0xc]
        0x0001b58a:    e9c2100e    ....    STRD     r1,r0,[r2,#0x38]
        0x0001b58e:    4660        `F      MOV      r0,r12
        0x0001b590:    bdf0        ..      POP      {r4-r7,pc}
        0x0001b592:    0000        ..      MOVS     r0,r0
    crypto_boost_trims
        0x0001b594:    e92d43f0    -..C    PUSH     {r4-r9,lr}
        0x0001b598:    b081        ..      SUB      sp,sp,#4
        0x0001b59a:    f2401970    @.p.    MOVW     r9,#0x170
        0x0001b59e:    f2c10900    ....    MOVT     r9,#0x1000
        0x0001b5a2:    f8992000    ...     LDRB     r2,[r9,#0]
        0x0001b5a6:    4604        .F      MOV      r4,r0
        0x0001b5a8:    fab2f082    ....    CLZ      r0,r2
        0x0001b5ac:    0940        @.      LSRS     r0,r0,#5
        0x0001b5ae:    4060        `@      EORS     r0,r0,r4
        0x0001b5b0:    bf1c        ..      ITT      NE
        0x0001b5b2:    b001        ..      ADDNE    sp,sp,#4
        0x0001b5b4:    e8bd83f0    ....    POPNE    {r4-r9,pc}
        0x0001b5b8:    f2400888    @...    MOVW     r8,#0x88
        0x0001b5bc:    460d        .F      MOV      r5,r1
        0x0001b5be:    f2c40802    ....    MOVT     r8,#0x4002
        0x0001b5c2:    f7fefa97    ....    BL       am_hal_interrupt_master_disable ; 0x19af4
        0x0001b5c6:    9000        ..      STR      r0,[sp,#0]
        0x0001b5c8:    f8894000    ...@    STRB     r4,[r9,#0]
        0x0001b5cc:    2c00        .,      CMP      r4,#0
        0x0001b5ce:    bf08        ..      IT       EQ
        0x0001b5d0:    426d        mB      RSBEQ    r5,r5,#0
        0x0001b5d2:    e9d90101    ....    LDRD     r0,r1,[r9,#4]
        0x0001b5d6:    223f        ?"      MOVS     r2,#0x3f
        0x0001b5d8:    4428        (D      ADD      r0,r0,r5
        0x0001b5da:    283f        ?(      CMP      r0,#0x3f
        0x0001b5dc:    bf38        8.      IT       CC
        0x0001b5de:    4602        .F      MOVCC    r2,r0
        0x0001b5e0:    0517        ..      LSLS     r7,r2,#20
        0x0001b5e2:    2800        .(      CMP      r0,#0
        0x0001b5e4:    4429        )D      ADD      r1,r1,r5
        0x0001b5e6:    f04f063f    O.?.    MOV      r6,#0x3f
        0x0001b5ea:    bf48        H.      IT       MI
        0x0001b5ec:    2700        .'      MOVMI    r7,#0
        0x0001b5ee:    293f        ?)      CMP      r1,#0x3f
        0x0001b5f0:    f8c90004    ....    STR      r0,[r9,#4]
        0x0001b5f4:    bf38        8.      IT       CC
        0x0001b5f6:    460e        .F      MOVCC    r6,r1
        0x0001b5f8:    2900        .)      CMP      r1,#0
        0x0001b5fa:    bf48        H.      IT       MI
        0x0001b5fc:    2600        .&      MOVMI    r6,#0
        0x0001b5fe:    f8c91008    ....    STR      r1,[r9,#8]
        0x0001b602:    b18c        ..      CBZ      r4,0x1b628 ; crypto_boost_trims + 148
        0x0001b604:    f8d802e4    ....    LDR      r0,[r8,#0x2e4]
        0x0001b608:    f020707c     .|p    BIC      r0,r0,#0x3f00000
        0x0001b60c:    4338        8C      ORRS     r0,r0,r7
        0x0001b60e:    f8c802e4    ....    STR      r0,[r8,#0x2e4]
        0x0001b612:    2014        .       MOVS     r0,#0x14
        0x0001b614:    f7fef8ea    ....    BL       am_hal_delay_us ; 0x197ec
        0x0001b618:    f8d80000    ....    LDR      r0,[r8,#0]
        0x0001b61c:    f020003f     .?.    BIC      r0,r0,#0x3f
        0x0001b620:    4330        0C      ORRS     r0,r0,r6
        0x0001b622:    f8c80000    ....    STR      r0,[r8,#0]
        0x0001b626:    e010        ..      B        0x1b64a ; crypto_boost_trims + 182
        0x0001b628:    f8d80000    ....    LDR      r0,[r8,#0]
        0x0001b62c:    f020003f     .?.    BIC      r0,r0,#0x3f
        0x0001b630:    4330        0C      ORRS     r0,r0,r6
        0x0001b632:    f8c80000    ....    STR      r0,[r8,#0]
        0x0001b636:    2014        .       MOVS     r0,#0x14
        0x0001b638:    f7fef8d8    ....    BL       am_hal_delay_us ; 0x197ec
        0x0001b63c:    f8d802e4    ....    LDR      r0,[r8,#0x2e4]
        0x0001b640:    f020707c     .|p    BIC      r0,r0,#0x3f00000
        0x0001b644:    4338        8C      ORRS     r0,r0,r7
        0x0001b646:    f8c802e4    ....    STR      r0,[r8,#0x2e4]
        0x0001b64a:    9800        ..      LDR      r0,[sp,#0]
        0x0001b64c:    f7fefa5a    ..Z.    BL       am_hal_interrupt_master_set ; 0x19b04
        0x0001b650:    2014        .       MOVS     r0,#0x14
        0x0001b652:    b001        ..      ADD      sp,sp,#4
        0x0001b654:    e8bd43f0    ...C    POP      {r4-r9,lr}
        0x0001b658:    f7feb8c8    ....    B        am_hal_delay_us ; 0x197ec
    debug_pin_init
        0x0001b65c:    4770        pG      BX       lr
        0x0001b65e:    0000        ..      MOVS     r0,r0
    init_pattern
        0x0001b660:    b580        ..      PUSH     {r7,lr}
        0x0001b662:    f64170c4    A..p    MOV      r0,#0x1fc4
        0x0001b666:    f2c10000    ....    MOVT     r0,#0x1000
        0x0001b66a:    3004        .0      ADDS     r0,#4
        0x0001b66c:    2108        .!      MOVS     r1,#8
        0x0001b66e:    f44f6240    O.@b    MOV      r2,#0xc00
        0x0001b672:    f000fcd9    ....    BL       pwrctrl_fill_buff_alternating_bits ; 0x1c028
        0x0001b676:    bd80        ..      POP      {r7,pc}
    internal_timer_config
        0x0001b678:    b5f0        ..      PUSH     {r4-r7,lr}
        0x0001b67a:    784c        Lx      LDRB     r4,[r1,#1]
        0x0001b67c:    2207        ."      MOVS     r2,#7
        0x0001b67e:    1e65        e.      SUBS     r5,r4,#1
        0x0001b680:    2d0c        .-      CMP      r5,#0xc
        0x0001b682:    d842        B.      BHI      0x1b70a ; internal_timer_config + 146
        0x0001b684:    f1010e08    ....    ADD      lr,r1,#8
        0x0001b688:    e89e5008    ...P    LDM      lr,{r3,r12,lr}
        0x0001b68c:    e8dff005    ....    TBB      [pc,r5]
    $d.1
        0x0001b690:    0c3d0c40    @.=.    DCD    205327424
        0x0001b694:    3d3d3d3d    ====    DCD    1027423549
        0x0001b698:    083d3d3d    ===.    DCD    138231101
        0x0001b69c:    bf000008    ....    DCD    3204448264
    $t.2
        0x0001b6a0:    2b3f        ?+      CMP      r3,#0x3f
        0x0001b6a2:    bf84        ..      ITT      HI
        0x0001b6a4:    2007        .       MOVHI    r0,#7
        0x0001b6a6:    bdf0        ..      POPHI    {r4-r7,pc}
        0x0001b6a8:    0122        ".      LSLS     r2,r4,#4
        0x0001b6aa:    780c        .x      LDRB     r4,[r1,#0]
        0x0001b6ac:    78ce        .x      LDRB     r6,[r1,#3]
        0x0001b6ae:    b2d2        ..      UXTB     r2,r2
        0x0001b6b0:    788d        .x      LDRB     r5,[r1,#2]
        0x0001b6b2:    ea422204    B.."    ORR      r2,r2,r4,LSL #8
        0x0001b6b6:    f006041f    ....    AND      r4,r6,#0x1f
        0x0001b6ba:    790f        .y      LDRB     r7,[r1,#4]
        0x0001b6bc:    ea4202c4    B...    ORR      r2,r2,r4,LSL #3
        0x0001b6c0:    f005043f    ..?.    AND      r4,r5,#0x3f
        0x0001b6c4:    ea420284    B...    ORR      r2,r2,r4,LSL #2
        0x0001b6c8:    f3674211    g..B    BFI      r2,r7,#16,#2
        0x0001b6cc:    ea426203    B..b    ORR      r2,r2,r3,LSL #24
        0x0001b6d0:    f2480300    H...    MOVW     r3,#0x8000
        0x0001b6d4:    f2c40300    ....    MOVT     r3,#0x4000
        0x0001b6d8:    eb031040    ..@.    ADD      r0,r3,r0,LSL #5
        0x0001b6dc:    7949        Iy      LDRB     r1,[r1,#5]
        0x0001b6de:    f8d03200    ...2    LDR      r3,[r0,#0x200]
        0x0001b6e2:    0209        ..      LSLS     r1,r1,#8
        0x0001b6e4:    f0230301    #...    BIC      r3,r3,#1
        0x0001b6e8:    f8c03200    ...2    STR      r3,[r0,#0x200]
        0x0001b6ec:    f8c02200    ..."    STR      r2,[r0,#0x200]
        0x0001b6f0:    f8c01210    ....    STR      r1,[r0,#0x210]
        0x0001b6f4:    f8c0c208    ....    STR      r12,[r0,#0x208]
        0x0001b6f8:    f8c0e20c    ....    STR      lr,[r0,#0x20c]
        0x0001b6fc:    f8d01200    ....    LDR      r1,[r0,#0x200]
        0x0001b700:    2200        ."      MOVS     r2,#0
        0x0001b702:    f0410102    A...    ORR      r1,r1,#2
        0x0001b706:    f8c01200    ....    STR      r1,[r0,#0x200]
        0x0001b70a:    4610        .F      MOV      r0,r2
        0x0001b70c:    bdf0        ..      POP      {r4-r7,pc}
        0x0001b70e:    bf00        ..      NOP      
        0x0001b710:    f11e0201    ....    ADDS     r2,lr,#1
        0x0001b714:    d0c8        ..      BEQ      0x1b6a8 ; internal_timer_config + 48
        0x0001b716:    45f4        .E      CMP      r12,lr
        0x0001b718:    bf9c        ..      ITT      LS
        0x0001b71a:    2007        .       MOVLS    r0,#7
        0x0001b71c:    bdf0        ..      POPLS    {r4-r7,pc}
        0x0001b71e:    e7c3        ..      B        0x1b6a8 ; internal_timer_config + 48
    main
        0x0001b720:    b580        ..      PUSH     {r7,lr}
        0x0001b722:    b086        ..      SUB      sp,sp,#0x18
        0x0001b724:    2000        .       MOVS     r0,#0
        0x0001b726:    9005        ..      STR      r0,[sp,#0x14]
        0x0001b728:    f000fca6    ....    BL       pwrctrl_set_low_power ; 0x1c078
        0x0001b72c:    9004        ..      STR      r0,[sp,#0x10]
        0x0001b72e:    9804        ..      LDR      r0,[sp,#0x10]
        0x0001b730:    b110        ..      CBZ      r0,0x1b738 ; main + 24
        0x0001b732:    e7ff        ..      B        0x1b734 ; main + 20
        0x0001b734:    e7ff        ..      B        0x1b736 ; main + 22
        0x0001b736:    e7fe        ..      B        0x1b736 ; main + 22
        0x0001b738:    f000fb48    ..H.    BL       mspi_init ; 0x1bdcc
        0x0001b73c:    9004        ..      STR      r0,[sp,#0x10]
        0x0001b73e:    9804        ..      LDR      r0,[sp,#0x10]
        0x0001b740:    b110        ..      CBZ      r0,0x1b748 ; main + 40
        0x0001b742:    e7ff        ..      B        0x1b744 ; main + 36
        0x0001b744:    e7ff        ..      B        0x1b746 ; main + 38
        0x0001b746:    e7fe        ..      B        0x1b746 ; main + 38
        0x0001b748:    9804        ..      LDR      r0,[sp,#0x10]
        0x0001b74a:    b110        ..      CBZ      r0,0x1b752 ; main + 50
        0x0001b74c:    e7ff        ..      B        0x1b74e ; main + 46
        0x0001b74e:    e7ff        ..      B        0x1b750 ; main + 48
        0x0001b750:    e7fe        ..      B        0x1b750 ; main + 48
        0x0001b752:    f7ffff83    ....    BL       debug_pin_init ; 0x1b65c
        0x0001b756:    f24c1125    L.%.    MOV      r1,#0xc125
        0x0001b75a:    f2c00101    ....    MOVT     r1,#1
        0x0001b75e:    f44f6080    O..`    MOV      r0,#0x400
        0x0001b762:    f000fcf1    ....    BL       timer_init ; 0x1c148
        0x0001b766:    9004        ..      STR      r0,[sp,#0x10]
        0x0001b768:    9804        ..      LDR      r0,[sp,#0x10]
        0x0001b76a:    b110        ..      CBZ      r0,0x1b772 ; main + 82
        0x0001b76c:    e7ff        ..      B        0x1b76e ; main + 78
        0x0001b76e:    e7ff        ..      B        0x1b770 ; main + 80
        0x0001b770:    e7fe        ..      B        0x1b770 ; main + 80
        0x0001b772:    2014        .       MOVS     r0,#0x14
        0x0001b774:    9001        ..      STR      r0,[sp,#4]
        0x0001b776:    2104        .!      MOVS     r1,#4
        0x0001b778:    f7fcfeb6    ....    BL       __NVIC_SetPriority ; 0x184e8
        0x0001b77c:    9801        ..      LDR      r0,[sp,#4]
        0x0001b77e:    f7fcfe33    ..3.    BL       __NVIC_ClearPendingIRQ ; 0x183e8
        0x0001b782:    9801        ..      LDR      r0,[sp,#4]
        0x0001b784:    f7fcfe80    ....    BL       __NVIC_EnableIRQ ; 0x18488
        0x0001b788:    f7ffff6a    ..j.    BL       init_pattern ; 0x1b660
        0x0001b78c:    f7fef9b6    ....    BL       am_hal_interrupt_master_enable ; 0x19afc
        0x0001b790:    e7ff        ..      B        0x1b792 ; main + 114
        0x0001b792:    f64170c4    A..p    MOV      r0,#0x1fc4
        0x0001b796:    f2c10000    ....    MOVT     r0,#0x1000
        0x0001b79a:    f645015b    E.[.    MOV      r1,#0x585b
        0x0001b79e:    5c40        @\      LDRB     r0,[r0,r1]
        0x0001b7a0:    2801        .(      CMP      r0,#1
        0x0001b7a2:    db0f        ..      BLT      0x1b7c4 ; main + 164
        0x0001b7a4:    e7ff        ..      B        0x1b7a6 ; main + 134
        0x0001b7a6:    f64170c4    A..p    MOV      r0,#0x1fc4
        0x0001b7aa:    f2c10000    ....    MOVT     r0,#0x1000
        0x0001b7ae:    f645015b    E.[.    MOV      r1,#0x585b
        0x0001b7b2:    5c40        @\      LDRB     r0,[r0,r1]
        0x0001b7b4:    f000fb8e    ....    BL       pwr_data_transfer_sequence ; 0x1bed4
        0x0001b7b8:    9003        ..      STR      r0,[sp,#0xc]
        0x0001b7ba:    9803        ..      LDR      r0,[sp,#0xc]
        0x0001b7bc:    b108        ..      CBZ      r0,0x1b7c2 ; main + 162
        0x0001b7be:    e7ff        ..      B        0x1b7c0 ; main + 160
        0x0001b7c0:    e02c        ,.      B        0x1b81c ; main + 252
        0x0001b7c2:    e027        '.      B        0x1b814 ; main + 244
        0x0001b7c4:    f64170c4    A..p    MOV      r0,#0x1fc4
        0x0001b7c8:    f2c10000    ....    MOVT     r0,#0x1000
        0x0001b7cc:    f6450159    E.Y.    MOV      r1,#0x5859
        0x0001b7d0:    5c40        @\      LDRB     r0,[r0,r1]
        0x0001b7d2:    07c0        ..      LSLS     r0,r0,#31
        0x0001b7d4:    b1e8        ..      CBZ      r0,0x1b812 ; main + 242
        0x0001b7d6:    e7ff        ..      B        0x1b7d8 ; main + 184
        0x0001b7d8:    f64170c4    A..p    MOV      r0,#0x1fc4
        0x0001b7dc:    f2c10000    ....    MOVT     r0,#0x1000
        0x0001b7e0:    f6450259    E.Y.    MOV      r2,#0x5859
        0x0001b7e4:    2100        .!      MOVS     r1,#0
        0x0001b7e6:    5481        .T      STRB     r1,[r0,r2]
        0x0001b7e8:    f645035c    E.\.    MOV      r3,#0x585c
        0x0001b7ec:    5cc1        .\      LDRB     r1,[r0,r3]
        0x0001b7ee:    2201        ."      MOVS     r2,#1
        0x0001b7f0:    2902        .)      CMP      r1,#2
        0x0001b7f2:    bfb8        ..      IT       LT
        0x0001b7f4:    2202        ."      MOVLT    r2,#2
        0x0001b7f6:    f645015b    E.[.    MOV      r1,#0x585b
        0x0001b7fa:    5442        BT      STRB     r2,[r0,r1]
        0x0001b7fc:    5c42        B\      LDRB     r2,[r0,r1]
        0x0001b7fe:    54c2        .T      STRB     r2,[r0,r3]
        0x0001b800:    5c40        @\      LDRB     r0,[r0,r1]
        0x0001b802:    f000fb67    ..g.    BL       pwr_data_transfer_sequence ; 0x1bed4
        0x0001b806:    9002        ..      STR      r0,[sp,#8]
        0x0001b808:    9802        ..      LDR      r0,[sp,#8]
        0x0001b80a:    b108        ..      CBZ      r0,0x1b810 ; main + 240
        0x0001b80c:    e7ff        ..      B        0x1b80e ; main + 238
        0x0001b80e:    e005        ..      B        0x1b81c ; main + 252
        0x0001b810:    e7ff        ..      B        0x1b812 ; main + 242
        0x0001b812:    e7ff        ..      B        0x1b814 ; main + 244
        0x0001b814:    2001        .       MOVS     r0,#1
        0x0001b816:    f7fffbaf    ....    BL       am_hal_sysctrl_sleep ; 0x1af78
        0x0001b81a:    e7ba        ..      B        0x1b792 ; main + 114
        0x0001b81c:    2000        .       MOVS     r0,#0
        0x0001b81e:    f7fffcd1    ....    BL       am_hal_timer_interrupt_disable ; 0x1b1c4
        0x0001b822:    f000fc89    ....    BL       timer_disable ; 0x1c138
        0x0001b826:    2014        .       MOVS     r0,#0x14
        0x0001b828:    f7fcfdf6    ....    BL       __NVIC_DisableIRQ ; 0x18418
        0x0001b82c:    e7ff        ..      B        0x1b82e ; main + 270
        0x0001b82e:    e7fe        ..      B        0x1b82e ; main + 270
    mspiCompleteCallback
        0x0001b830:    b082        ..      SUB      sp,sp,#8
        0x0001b832:    9001        ..      STR      r0,[sp,#4]
        0x0001b834:    9100        ..      STR      r1,[sp,#0]
        0x0001b836:    f64171c4    A..q    MOV      r1,#0x1fc4
        0x0001b83a:    f2c10100    ....    MOVT     r1,#0x1000
        0x0001b83e:    f6450258    E.X.    MOV      r2,#0x5858
        0x0001b842:    2001        .       MOVS     r0,#1
        0x0001b844:    5488        .T      STRB     r0,[r1,r2]
        0x0001b846:    b002        ..      ADD      sp,sp,#8
        0x0001b848:    4770        pG      BX       lr
        0x0001b84a:    0000        ..      MOVS     r0,r0
    mspi_cq_disable
        0x0001b84c:    b510        ..      PUSH     {r4,lr}
        0x0001b84e:    4604        .F      MOV      r4,r0
        0x0001b850:    f8d00828    ..(.    LDR      r0,[r0,#0x828]
        0x0001b854:    f7fdfd5c    ..\.    BL       am_hal_cmdq_disable ; 0x19310
        0x0001b858:    6861        ah      LDR      r1,[r4,#4]
        0x0001b85a:    4604        .F      MOV      r4,r0
        0x0001b85c:    f101001b    ....    ADD      r0,r1,#0x1b
        0x0001b860:    f7fdfcb8    ....    BL       am_gpu_power_disable ; 0x191d4
        0x0001b864:    4620         F      MOV      r0,r4
        0x0001b866:    bd10        ..      POP      {r4,pc}
    mspi_cq_enable
        0x0001b868:    b510        ..      PUSH     {r4,lr}
        0x0001b86a:    4604        .F      MOV      r4,r0
        0x0001b86c:    6840        @h      LDR      r0,[r0,#4]
        0x0001b86e:    301b        .0      ADDS     r0,r0,#0x1b
        0x0001b870:    f7fdfcb2    ....    BL       am_gpu_power_enable ; 0x191d8
        0x0001b874:    f8d40828    ..(.    LDR      r0,[r4,#0x828]
        0x0001b878:    e8bd4010    ...@    POP      {r4,lr}
        0x0001b87c:    f7fdbd64    ..d.    B        am_hal_cmdq_enable ; 0x19348
    mspi_device_configure
        0x0001b880:    7a82        .z      LDRB     r2,[r0,#0xa]
        0x0001b882:    2a19        .*      CMP      r2,#0x19
        0x0001b884:    bf88        ..      IT       HI
        0x0001b886:    4770        pG      BXHI     lr
        0x0001b888:    6841        Ah      LDR      r1,[r0,#4]
        0x0001b88a:    e8dff012    ....    TBH      [pc,r2,LSL #1]
    $d.6
        0x0001b88e:    0041        A.      DCW    65
        0x0001b890:    005d004b    K.].    DCD    6094923
        0x0001b894:    00710067    g.q.    DCD    7405671
        0x0001b898:    001b007b    {...    DCD    1769595
        0x0001b89c:    001b0025    %...    DCD    1769509
        0x0001b8a0:    00930025    %...    DCD    9633829
        0x0001b8a4:    00bb009d    ....    DCD    12255389
        0x0001b8a8:    00eb00d3    ....    DCD    15401171
        0x0001b8ac:    010d00f5    ....    DCD    17629429
        0x0001b8b0:    01270117    ..'.    DCD    19333399
        0x0001b8b4:    01550131    1.U.    DCD    22348081
        0x0001b8b8:    0181015f    _...    DCD    25231711
        0x0001b8bc:    019b018b    ....    DCD    26935691
        0x0001b8c0:    bf0001a5    ....    DCD    3204448677
    $t.7
        0x0001b8c4:    2000        .       MOVS     r0,#0
        0x0001b8c6:    f2c40006    ....    MOVT     r0,#0x4006
        0x0001b8ca:    eb003101    ...1    ADD      r1,r0,r1,LSL #12
        0x0001b8ce:    f8d10084    ....    LDR      r0,[r1,#0x84]
        0x0001b8d2:    220d        ."      MOVS     r2,#0xd
        0x0001b8d4:    e008        ..      B        0x1b8e8 ; mspi_device_configure + 104
        0x0001b8d6:    bf00        ..      NOP      
        0x0001b8d8:    2000        .       MOVS     r0,#0
        0x0001b8da:    f2c40006    ....    MOVT     r0,#0x4006
        0x0001b8de:    eb003101    ...1    ADD      r1,r0,r1,LSL #12
        0x0001b8e2:    f8d10084    ....    LDR      r0,[r1,#0x84]
        0x0001b8e6:    220e        ."      MOVS     r2,#0xe
        0x0001b8e8:    f3620004    b...    BFI      r0,r2,#0,#5
        0x0001b8ec:    f8c10084    ....    STR      r0,[r1,#0x84]
        0x0001b8f0:    f8d10084    ....    LDR      r0,[r1,#0x84]
        0x0001b8f4:    f0207000     ..p    BIC      r0,r0,#0x2000000
        0x0001b8f8:    f8c10084    ....    STR      r0,[r1,#0x84]
        0x0001b8fc:    f8d10090    ....    LDR      r0,[r1,#0x90]
        0x0001b900:    f4206070     .p`    BIC      r0,r0,#0xf00
        0x0001b904:    f8c10090    ....    STR      r0,[r1,#0x90]
        0x0001b908:    f24030ff    @..0    MOV      r0,#0x3ff
        0x0001b90c:    6448        Hd      STR      r0,[r1,#0x44]
        0x0001b90e:    4770        pG      BX       lr
        0x0001b910:    2200        ."      MOVS     r2,#0
        0x0001b912:    f2c40206    ....    MOVT     r2,#0x4006
        0x0001b916:    eb023101    ...1    ADD      r1,r2,r1,LSL #12
        0x0001b91a:    f8d12084    ...     LDR      r2,[r1,#0x84]
        0x0001b91e:    2301        .#      MOVS     r3,#1
        0x0001b920:    e008        ..      B        0x1b934 ; mspi_device_configure + 180
        0x0001b922:    bf00        ..      NOP      
        0x0001b924:    2200        ."      MOVS     r2,#0
        0x0001b926:    f2c40206    ....    MOVT     r2,#0x4006
        0x0001b92a:    eb023101    ...1    ADD      r1,r2,r1,LSL #12
        0x0001b92e:    f8d12084    ...     LDR      r2,[r1,#0x84]
        0x0001b932:    2302        .#      MOVS     r3,#2
        0x0001b934:    f3630204    c...    BFI      r2,r3,#0,#5
        0x0001b938:    f8c12084    ...     STR      r2,[r1,#0x84]
        0x0001b93c:    f8d12084    ...     LDR      r2,[r1,#0x84]
        0x0001b940:    f0427200    B..r    ORR      r2,r2,#0x2000000
        0x0001b944:    e112        ..      B        0x1bb6c ; mspi_device_configure + 748
        0x0001b946:    bf00        ..      NOP      
        0x0001b948:    2200        ."      MOVS     r2,#0
        0x0001b94a:    f2c40206    ....    MOVT     r2,#0x4006
        0x0001b94e:    eb023101    ...1    ADD      r1,r2,r1,LSL #12
        0x0001b952:    f8d12084    ...     LDR      r2,[r1,#0x84]
        0x0001b956:    2305        .#      MOVS     r3,#5
        0x0001b958:    e100        ..      B        0x1bb5c ; mspi_device_configure + 732
        0x0001b95a:    bf00        ..      NOP      
        0x0001b95c:    2200        ."      MOVS     r2,#0
        0x0001b95e:    f2c40206    ....    MOVT     r2,#0x4006
        0x0001b962:    eb023101    ...1    ADD      r1,r2,r1,LSL #12
        0x0001b966:    f8d12084    ...     LDR      r2,[r1,#0x84]
        0x0001b96a:    2306        .#      MOVS     r3,#6
        0x0001b96c:    e0f6        ..      B        0x1bb5c ; mspi_device_configure + 732
        0x0001b96e:    bf00        ..      NOP      
        0x0001b970:    2200        ."      MOVS     r2,#0
        0x0001b972:    f2c40206    ....    MOVT     r2,#0x4006
        0x0001b976:    eb023101    ...1    ADD      r1,r2,r1,LSL #12
        0x0001b97a:    f8d12084    ...     LDR      r2,[r1,#0x84]
        0x0001b97e:    2309        .#      MOVS     r3,#9
        0x0001b980:    e008        ..      B        0x1b994 ; mspi_device_configure + 276
        0x0001b982:    bf00        ..      NOP      
        0x0001b984:    2200        ."      MOVS     r2,#0
        0x0001b986:    f2c40206    ....    MOVT     r2,#0x4006
        0x0001b98a:    eb023101    ...1    ADD      r1,r2,r1,LSL #12
        0x0001b98e:    f8d12084    ...     LDR      r2,[r1,#0x84]
        0x0001b992:    230a        .#      MOVS     r3,#0xa
        0x0001b994:    f3630204    c...    BFI      r2,r3,#0,#5
        0x0001b998:    f8c12084    ...     STR      r2,[r1,#0x84]
        0x0001b99c:    f8d12084    ...     LDR      r2,[r1,#0x84]
        0x0001b9a0:    f0227200    "..r    BIC      r2,r2,#0x2000000
        0x0001b9a4:    f8c12084    ...     STR      r2,[r1,#0x84]
        0x0001b9a8:    f8d12090    ...     LDR      r2,[r1,#0x90]
        0x0001b9ac:    f4226270    ".pb    BIC      r2,r2,#0xf00
        0x0001b9b0:    e0b5        ..      B        0x1bb1e ; mspi_device_configure + 670
        0x0001b9b2:    bf00        ..      NOP      
        0x0001b9b4:    2000        .       MOVS     r0,#0
        0x0001b9b6:    f2c40006    ....    MOVT     r0,#0x4006
        0x0001b9ba:    eb003101    ...1    ADD      r1,r0,r1,LSL #12
        0x0001b9be:    f8d10084    ....    LDR      r0,[r1,#0x84]
        0x0001b9c2:    2211        ."      MOVS     r2,#0x11
        0x0001b9c4:    e008        ..      B        0x1b9d8 ; mspi_device_configure + 344
        0x0001b9c6:    bf00        ..      NOP      
        0x0001b9c8:    2000        .       MOVS     r0,#0
        0x0001b9ca:    f2c40006    ....    MOVT     r0,#0x4006
        0x0001b9ce:    eb003101    ...1    ADD      r1,r0,r1,LSL #12
        0x0001b9d2:    f8d10084    ....    LDR      r0,[r1,#0x84]
        0x0001b9d6:    2212        ."      MOVS     r2,#0x12
        0x0001b9d8:    f3620004    b...    BFI      r0,r2,#0,#5
        0x0001b9dc:    f8c10084    ....    STR      r0,[r1,#0x84]
        0x0001b9e0:    f8d10084    ....    LDR      r0,[r1,#0x84]
        0x0001b9e4:    f0207000     ..p    BIC      r0,r0,#0x2000000
        0x0001b9e8:    f8c10084    ....    STR      r0,[r1,#0x84]
        0x0001b9ec:    f8d12090    ...     LDR      r2,[r1,#0x90]
        0x0001b9f0:    f64f70ff    O..p    MOV      r0,#0xffff
        0x0001b9f4:    f4226270    ".pb    BIC      r2,r2,#0xf00
        0x0001b9f8:    f2c00007    ....    MOVT     r0,#7
        0x0001b9fc:    f8c12090    ...     STR      r2,[r1,#0x90]
        0x0001ba00:    6448        Hd      STR      r0,[r1,#0x44]
        0x0001ba02:    4770        pG      BX       lr
        0x0001ba04:    2200        ."      MOVS     r2,#0
        0x0001ba06:    f2c40206    ....    MOVT     r2,#0x4006
        0x0001ba0a:    eb023101    ...1    ADD      r1,r2,r1,LSL #12
        0x0001ba0e:    f8d12084    ...     LDR      r2,[r1,#0x84]
        0x0001ba12:    2301        .#      MOVS     r3,#1
        0x0001ba14:    f3630204    c...    BFI      r2,r3,#0,#5
        0x0001ba18:    f8c12084    ...     STR      r2,[r1,#0x84]
        0x0001ba1c:    f8d12084    ...     LDR      r2,[r1,#0x84]
        0x0001ba20:    f0227200    "..r    BIC      r2,r2,#0x2000000
        0x0001ba24:    f8c12084    ...     STR      r2,[r1,#0x84]
        0x0001ba28:    f8d12090    ...     LDR      r2,[r1,#0x90]
        0x0001ba2c:    f363220b    c.."    BFI      r2,r3,#8,#4
        0x0001ba30:    e0a2        ..      B        0x1bb78 ; mspi_device_configure + 760
        0x0001ba32:    bf00        ..      NOP      
        0x0001ba34:    2200        ."      MOVS     r2,#0
        0x0001ba36:    f2c40206    ....    MOVT     r2,#0x4006
        0x0001ba3a:    eb023101    ...1    ADD      r1,r2,r1,LSL #12
        0x0001ba3e:    f8d12084    ...     LDR      r2,[r1,#0x84]
        0x0001ba42:    2302        .#      MOVS     r3,#2
        0x0001ba44:    f3630204    c...    BFI      r2,r3,#0,#5
        0x0001ba48:    f8c12084    ...     STR      r2,[r1,#0x84]
        0x0001ba4c:    f8d12084    ...     LDR      r2,[r1,#0x84]
        0x0001ba50:    2301        .#      MOVS     r3,#1
        0x0001ba52:    f0227200    "..r    BIC      r2,r2,#0x2000000
        0x0001ba56:    f8c12084    ...     STR      r2,[r1,#0x84]
        0x0001ba5a:    f8d12090    ...     LDR      r2,[r1,#0x90]
        0x0001ba5e:    f363220b    c.."    BFI      r2,r3,#8,#4
        0x0001ba62:    e089        ..      B        0x1bb78 ; mspi_device_configure + 760
        0x0001ba64:    2200        ."      MOVS     r2,#0
        0x0001ba66:    f2c40206    ....    MOVT     r2,#0x4006
        0x0001ba6a:    eb023101    ...1    ADD      r1,r2,r1,LSL #12
        0x0001ba6e:    f8d12084    ...     LDR      r2,[r1,#0x84]
        0x0001ba72:    2301        .#      MOVS     r3,#1
        0x0001ba74:    e008        ..      B        0x1ba88 ; mspi_device_configure + 520
        0x0001ba76:    bf00        ..      NOP      
        0x0001ba78:    2200        ."      MOVS     r2,#0
        0x0001ba7a:    f2c40206    ....    MOVT     r2,#0x4006
        0x0001ba7e:    eb023101    ...1    ADD      r1,r2,r1,LSL #12
        0x0001ba82:    f8d12084    ...     LDR      r2,[r1,#0x84]
        0x0001ba86:    2302        .#      MOVS     r3,#2
        0x0001ba88:    f3630204    c...    BFI      r2,r3,#0,#5
        0x0001ba8c:    f8c12084    ...     STR      r2,[r1,#0x84]
        0x0001ba90:    f8d12084    ...     LDR      r2,[r1,#0x84]
        0x0001ba94:    2303        .#      MOVS     r3,#3
        0x0001ba96:    f0227200    "..r    BIC      r2,r2,#0x2000000
        0x0001ba9a:    f8c12084    ...     STR      r2,[r1,#0x84]
        0x0001ba9e:    f8d12090    ...     LDR      r2,[r1,#0x90]
        0x0001baa2:    f363220b    c.."    BFI      r2,r3,#8,#4
        0x0001baa6:    e067        g.      B        0x1bb78 ; mspi_device_configure + 760
        0x0001baa8:    2200        ."      MOVS     r2,#0
        0x0001baaa:    f2c40206    ....    MOVT     r2,#0x4006
        0x0001baae:    eb023101    ...1    ADD      r1,r2,r1,LSL #12
        0x0001bab2:    f8d12084    ...     LDR      r2,[r1,#0x84]
        0x0001bab6:    2301        .#      MOVS     r3,#1
        0x0001bab8:    e008        ..      B        0x1bacc ; mspi_device_configure + 588
        0x0001baba:    bf00        ..      NOP      
        0x0001babc:    2200        ."      MOVS     r2,#0
        0x0001babe:    f2c40206    ....    MOVT     r2,#0x4006
        0x0001bac2:    eb023101    ...1    ADD      r1,r2,r1,LSL #12
        0x0001bac6:    f8d12084    ...     LDR      r2,[r1,#0x84]
        0x0001baca:    2302        .#      MOVS     r3,#2
        0x0001bacc:    f3630204    c...    BFI      r2,r3,#0,#5
        0x0001bad0:    f8c12084    ...     STR      r2,[r1,#0x84]
        0x0001bad4:    f8d12084    ...     LDR      r2,[r1,#0x84]
        0x0001bad8:    2305        .#      MOVS     r3,#5
        0x0001bada:    e018        ..      B        0x1bb0e ; mspi_device_configure + 654
        0x0001badc:    2200        ."      MOVS     r2,#0
        0x0001bade:    f2c40206    ....    MOVT     r2,#0x4006
        0x0001bae2:    eb023101    ...1    ADD      r1,r2,r1,LSL #12
        0x0001bae6:    f8d12084    ...     LDR      r2,[r1,#0x84]
        0x0001baea:    2301        .#      MOVS     r3,#1
        0x0001baec:    e008        ..      B        0x1bb00 ; mspi_device_configure + 640
        0x0001baee:    bf00        ..      NOP      
        0x0001baf0:    2200        ."      MOVS     r2,#0
        0x0001baf2:    f2c40206    ....    MOVT     r2,#0x4006
        0x0001baf6:    eb023101    ...1    ADD      r1,r2,r1,LSL #12
        0x0001bafa:    f8d12084    ...     LDR      r2,[r1,#0x84]
        0x0001bafe:    2302        .#      MOVS     r3,#2
        0x0001bb00:    f3630204    c...    BFI      r2,r3,#0,#5
        0x0001bb04:    f8c12084    ...     STR      r2,[r1,#0x84]
        0x0001bb08:    f8d12084    ...     LDR      r2,[r1,#0x84]
        0x0001bb0c:    2307        .#      MOVS     r3,#7
        0x0001bb0e:    f0227200    "..r    BIC      r2,r2,#0x2000000
        0x0001bb12:    f8c12084    ...     STR      r2,[r1,#0x84]
        0x0001bb16:    f8d12090    ...     LDR      r2,[r1,#0x90]
        0x0001bb1a:    f363220b    c.."    BFI      r2,r3,#8,#4
        0x0001bb1e:    f8c12090    ...     STR      r2,[r1,#0x90]
        0x0001bb22:    7a42        Bz      LDRB     r2,[r0,#9]
        0x0001bb24:    2013        .       MOVS     r0,#0x13
        0x0001bb26:    f2c80000    ....    MOVT     r0,#0x8000
        0x0001bb2a:    300c        .0      ADDS     r0,r0,#0xc
        0x0001bb2c:    2a00        .*      CMP      r2,#0
        0x0001bb2e:    bf08        ..      IT       EQ
        0x0001bb30:    f240100f    @...    MOVEQ    r0,#0x10f
        0x0001bb34:    6448        Hd      STR      r0,[r1,#0x44]
        0x0001bb36:    4770        pG      BX       lr
        0x0001bb38:    2200        ."      MOVS     r2,#0
        0x0001bb3a:    f2c40206    ....    MOVT     r2,#0x4006
        0x0001bb3e:    eb023101    ...1    ADD      r1,r2,r1,LSL #12
        0x0001bb42:    f8d12084    ...     LDR      r2,[r1,#0x84]
        0x0001bb46:    2301        .#      MOVS     r3,#1
        0x0001bb48:    e008        ..      B        0x1bb5c ; mspi_device_configure + 732
        0x0001bb4a:    bf00        ..      NOP      
        0x0001bb4c:    2200        ."      MOVS     r2,#0
        0x0001bb4e:    f2c40206    ....    MOVT     r2,#0x4006
        0x0001bb52:    eb023101    ...1    ADD      r1,r2,r1,LSL #12
        0x0001bb56:    f8d12084    ...     LDR      r2,[r1,#0x84]
        0x0001bb5a:    2302        .#      MOVS     r3,#2
        0x0001bb5c:    f3630204    c...    BFI      r2,r3,#0,#5
        0x0001bb60:    f8c12084    ...     STR      r2,[r1,#0x84]
        0x0001bb64:    f8d12084    ...     LDR      r2,[r1,#0x84]
        0x0001bb68:    f0227200    "..r    BIC      r2,r2,#0x2000000
        0x0001bb6c:    f8c12084    ...     STR      r2,[r1,#0x84]
        0x0001bb70:    f8d12090    ...     LDR      r2,[r1,#0x90]
        0x0001bb74:    f4226270    ".pb    BIC      r2,r2,#0xf00
        0x0001bb78:    f8c12090    ...     STR      r2,[r1,#0x90]
        0x0001bb7c:    7a42        Bz      LDRB     r2,[r0,#9]
        0x0001bb7e:    2013        .       MOVS     r0,#0x13
        0x0001bb80:    f2c80000    ....    MOVT     r0,#0x8000
        0x0001bb84:    2a00        .*      CMP      r2,#0
        0x0001bb86:    bf08        ..      IT       EQ
        0x0001bb88:    f2401003    @...    MOVEQ    r0,#0x103
        0x0001bb8c:    6448        Hd      STR      r0,[r1,#0x44]
        0x0001bb8e:    4770        pG      BX       lr
        0x0001bb90:    2000        .       MOVS     r0,#0
        0x0001bb92:    f2c40006    ....    MOVT     r0,#0x4006
        0x0001bb96:    eb003101    ...1    ADD      r1,r0,r1,LSL #12
        0x0001bb9a:    f8d10084    ....    LDR      r0,[r1,#0x84]
        0x0001bb9e:    2201        ."      MOVS     r2,#1
        0x0001bba0:    e008        ..      B        0x1bbb4 ; mspi_device_configure + 820
        0x0001bba2:    bf00        ..      NOP      
        0x0001bba4:    2000        .       MOVS     r0,#0
        0x0001bba6:    f2c40006    ....    MOVT     r0,#0x4006
        0x0001bbaa:    eb003101    ...1    ADD      r1,r0,r1,LSL #12
        0x0001bbae:    f8d10084    ....    LDR      r0,[r1,#0x84]
        0x0001bbb2:    2202        ."      MOVS     r2,#2
        0x0001bbb4:    f3620004    b...    BFI      r0,r2,#0,#5
        0x0001bbb8:    f8c10084    ....    STR      r0,[r1,#0x84]
        0x0001bbbc:    f8d10084    ....    LDR      r0,[r1,#0x84]
        0x0001bbc0:    2209        ."      MOVS     r2,#9
        0x0001bbc2:    e018        ..      B        0x1bbf6 ; mspi_device_configure + 886
        0x0001bbc4:    2000        .       MOVS     r0,#0
        0x0001bbc6:    f2c40006    ....    MOVT     r0,#0x4006
        0x0001bbca:    eb003101    ...1    ADD      r1,r0,r1,LSL #12
        0x0001bbce:    f8d10084    ....    LDR      r0,[r1,#0x84]
        0x0001bbd2:    2201        ."      MOVS     r2,#1
        0x0001bbd4:    e008        ..      B        0x1bbe8 ; mspi_device_configure + 872
        0x0001bbd6:    bf00        ..      NOP      
        0x0001bbd8:    2000        .       MOVS     r0,#0
        0x0001bbda:    f2c40006    ....    MOVT     r0,#0x4006
        0x0001bbde:    eb003101    ...1    ADD      r1,r0,r1,LSL #12
        0x0001bbe2:    f8d10084    ....    LDR      r0,[r1,#0x84]
        0x0001bbe6:    2202        ."      MOVS     r2,#2
        0x0001bbe8:    f3620004    b...    BFI      r0,r2,#0,#5
        0x0001bbec:    f8c10084    ....    STR      r0,[r1,#0x84]
        0x0001bbf0:    f8d10084    ....    LDR      r0,[r1,#0x84]
        0x0001bbf4:    220b        ."      MOVS     r2,#0xb
        0x0001bbf6:    f0207000     ..p    BIC      r0,r0,#0x2000000
        0x0001bbfa:    f8c10084    ....    STR      r0,[r1,#0x84]
        0x0001bbfe:    f8d10090    ....    LDR      r0,[r1,#0x90]
        0x0001bc02:    f362200b    b..     BFI      r0,r2,#8,#4
        0x0001bc06:    f8c10090    ....    STR      r0,[r1,#0x90]
        0x0001bc0a:    f24030ff    @..0    MOV      r0,#0x3ff
        0x0001bc0e:    6448        Hd      STR      r0,[r1,#0x44]
        0x0001bc10:    4770        pG      BX       lr
        0x0001bc12:    0000        ..      MOVS     r0,r0
    mspi_dma_read
        0x0001bc14:    b580        ..      PUSH     {r7,lr}
        0x0001bc16:    b08e        ..      SUB      sp,sp,#0x38
        0x0001bc18:    900d        ..      STR      r0,[sp,#0x34]
        0x0001bc1a:    910c        ..      STR      r1,[sp,#0x30]
        0x0001bc1c:    920b        ..      STR      r2,[sp,#0x2c]
        0x0001bc1e:    2000        .       MOVS     r0,#0
        0x0001bc20:    900a        ..      STR      r0,[sp,#0x28]
        0x0001bc22:    2101        .!      MOVS     r1,#1
        0x0001bc24:    f88d1010    ....    STRB     r1,[sp,#0x10]
        0x0001bc28:    f88d0011    ....    STRB     r0,[sp,#0x11]
        0x0001bc2c:    9008        ..      STR      r0,[sp,#0x20]
        0x0001bc2e:    9009        ..      STR      r0,[sp,#0x24]
        0x0001bc30:    e7ff        ..      B        0x1bc32 ; mspi_dma_read + 30
        0x0001bc32:    980b        ..      LDR      r0,[sp,#0x2c]
        0x0001bc34:    2800        .(      CMP      r0,#0
        0x0001bc36:    d053        S.      BEQ      0x1bce0 ; mspi_dma_read + 204
        0x0001bc38:    e7ff        ..      B        0x1bc3a ; mspi_dma_read + 38
        0x0001bc3a:    f89d0034    ..4.    LDRB     r0,[sp,#0x34]
        0x0001bc3e:    0780        ..      LSLS     r0,r0,#30
        0x0001bc40:    b180        ..      CBZ      r0,0x1bc64 ; mspi_dma_read + 80
        0x0001bc42:    e7ff        ..      B        0x1bc44 ; mspi_dma_read + 48
        0x0001bc44:    980d        ..      LDR      r0,[sp,#0x34]
        0x0001bc46:    f36f209f    o..     BFC      r0,#10,#22
        0x0001bc4a:    f5c06080    ...`    RSB      r0,r0,#0x400
        0x0001bc4e:    990b        ..      LDR      r1,[sp,#0x2c]
        0x0001bc50:    4288        .B      CMP      r0,r1
        0x0001bc52:    d207        ..      BCS      0x1bc64 ; mspi_dma_read + 80
        0x0001bc54:    e7ff        ..      B        0x1bc56 ; mspi_dma_read + 66
        0x0001bc56:    980d        ..      LDR      r0,[sp,#0x34]
        0x0001bc58:    f0000003    ....    AND      r0,r0,#3
        0x0001bc5c:    f1c00004    ....    RSB      r0,r0,#4
        0x0001bc60:    9003        ..      STR      r0,[sp,#0xc]
        0x0001bc62:    e002        ..      B        0x1bc6a ; mspi_dma_read + 86
        0x0001bc64:    980b        ..      LDR      r0,[sp,#0x2c]
        0x0001bc66:    9003        ..      STR      r0,[sp,#0xc]
        0x0001bc68:    e7ff        ..      B        0x1bc6a ; mspi_dma_read + 86
        0x0001bc6a:    9803        ..      LDR      r0,[sp,#0xc]
        0x0001bc6c:    990b        ..      LDR      r1,[sp,#0x2c]
        0x0001bc6e:    1a40        @.      SUBS     r0,r0,r1
        0x0001bc70:    fab0f080    ....    CLZ      r0,r0
        0x0001bc74:    0940        @.      LSRS     r0,r0,#5
        0x0001bc76:    f88d000b    ....    STRB     r0,[sp,#0xb]
        0x0001bc7a:    9803        ..      LDR      r0,[sp,#0xc]
        0x0001bc7c:    9005        ..      STR      r0,[sp,#0x14]
        0x0001bc7e:    980d        ..      LDR      r0,[sp,#0x34]
        0x0001bc80:    9006        ..      STR      r0,[sp,#0x18]
        0x0001bc82:    980c        ..      LDR      r0,[sp,#0x30]
        0x0001bc84:    9007        ..      STR      r0,[sp,#0x1c]
        0x0001bc86:    f89d000b    ....    LDRB     r0,[sp,#0xb]
        0x0001bc8a:    07c0        ..      LSLS     r0,r0,#31
        0x0001bc8c:    b118        ..      CBZ      r0,0x1bc96 ; mspi_dma_read + 130
        0x0001bc8e:    e7ff        ..      B        0x1bc90 ; mspi_dma_read + 124
        0x0001bc90:    2000        .       MOVS     r0,#0
        0x0001bc92:    9009        ..      STR      r0,[sp,#0x24]
        0x0001bc94:    e7ff        ..      B        0x1bc96 ; mspi_dma_read + 130
        0x0001bc96:    f64170c4    A..p    MOV      r0,#0x1fc4
        0x0001bc9a:    f2c10000    ....    MOVT     r0,#0x1000
        0x0001bc9e:    6800        .h      LDR      r0,[r0,#0]
        0x0001bca0:    466a        jF      MOV      r2,sp
        0x0001bca2:    2100        .!      MOVS     r1,#0
        0x0001bca4:    6011        .`      STR      r1,[r2,#0]
        0x0001bca6:    f64b0331    K.1.    MOV      r3,#0xb831
        0x0001bcaa:    f2c00301    ....    MOVT     r3,#1
        0x0001bcae:    a904        ..      ADD      r1,sp,#0x10
        0x0001bcb0:    2201        ."      MOVS     r2,#1
        0x0001bcb2:    f7fefb0d    ....    BL       am_hal_mspi_nonblocking_transfer ; 0x1a2d0
        0x0001bcb6:    900a        ..      STR      r0,[sp,#0x28]
        0x0001bcb8:    980a        ..      LDR      r0,[sp,#0x28]
        0x0001bcba:    b108        ..      CBZ      r0,0x1bcc0 ; mspi_dma_read + 172
        0x0001bcbc:    e7ff        ..      B        0x1bcbe ; mspi_dma_read + 170
        0x0001bcbe:    e00f        ..      B        0x1bce0 ; mspi_dma_read + 204
        0x0001bcc0:    9903        ..      LDR      r1,[sp,#0xc]
        0x0001bcc2:    980d        ..      LDR      r0,[sp,#0x34]
        0x0001bcc4:    4408        .D      ADD      r0,r0,r1
        0x0001bcc6:    900d        ..      STR      r0,[sp,#0x34]
        0x0001bcc8:    9903        ..      LDR      r1,[sp,#0xc]
        0x0001bcca:    980b        ..      LDR      r0,[sp,#0x2c]
        0x0001bccc:    1a40        @.      SUBS     r0,r0,r1
        0x0001bcce:    900b        ..      STR      r0,[sp,#0x2c]
        0x0001bcd0:    9903        ..      LDR      r1,[sp,#0xc]
        0x0001bcd2:    980c        ..      LDR      r0,[sp,#0x30]
        0x0001bcd4:    eb000081    ....    ADD      r0,r0,r1,LSL #2
        0x0001bcd8:    900c        ..      STR      r0,[sp,#0x30]
        0x0001bcda:    2000        .       MOVS     r0,#0
        0x0001bcdc:    9008        ..      STR      r0,[sp,#0x20]
        0x0001bcde:    e7a8        ..      B        0x1bc32 ; mspi_dma_read + 30
        0x0001bce0:    980a        ..      LDR      r0,[sp,#0x28]
        0x0001bce2:    b00e        ..      ADD      sp,sp,#0x38
        0x0001bce4:    bd80        ..      POP      {r7,pc}
        0x0001bce6:    0000        ..      MOVS     r0,r0
    mspi_dma_write
        0x0001bce8:    b580        ..      PUSH     {r7,lr}
        0x0001bcea:    b08e        ..      SUB      sp,sp,#0x38
        0x0001bcec:    900d        ..      STR      r0,[sp,#0x34]
        0x0001bcee:    910c        ..      STR      r1,[sp,#0x30]
        0x0001bcf0:    920b        ..      STR      r2,[sp,#0x2c]
        0x0001bcf2:    2000        .       MOVS     r0,#0
        0x0001bcf4:    900a        ..      STR      r0,[sp,#0x28]
        0x0001bcf6:    2101        .!      MOVS     r1,#1
        0x0001bcf8:    f88d1010    ....    STRB     r1,[sp,#0x10]
        0x0001bcfc:    f88d1011    ....    STRB     r1,[sp,#0x11]
        0x0001bd00:    9008        ..      STR      r0,[sp,#0x20]
        0x0001bd02:    9009        ..      STR      r0,[sp,#0x24]
        0x0001bd04:    e7ff        ..      B        0x1bd06 ; mspi_dma_write + 30
        0x0001bd06:    980b        ..      LDR      r0,[sp,#0x2c]
        0x0001bd08:    2800        .(      CMP      r0,#0
        0x0001bd0a:    d05a        Z.      BEQ      0x1bdc2 ; mspi_dma_write + 218
        0x0001bd0c:    e7ff        ..      B        0x1bd0e ; mspi_dma_write + 38
        0x0001bd0e:    f89d0034    ..4.    LDRB     r0,[sp,#0x34]
        0x0001bd12:    0780        ..      LSLS     r0,r0,#30
        0x0001bd14:    b180        ..      CBZ      r0,0x1bd38 ; mspi_dma_write + 80
        0x0001bd16:    e7ff        ..      B        0x1bd18 ; mspi_dma_write + 48
        0x0001bd18:    980d        ..      LDR      r0,[sp,#0x34]
        0x0001bd1a:    f36f209f    o..     BFC      r0,#10,#22
        0x0001bd1e:    f5c06080    ...`    RSB      r0,r0,#0x400
        0x0001bd22:    990b        ..      LDR      r1,[sp,#0x2c]
        0x0001bd24:    4288        .B      CMP      r0,r1
        0x0001bd26:    d207        ..      BCS      0x1bd38 ; mspi_dma_write + 80
        0x0001bd28:    e7ff        ..      B        0x1bd2a ; mspi_dma_write + 66
        0x0001bd2a:    980d        ..      LDR      r0,[sp,#0x34]
        0x0001bd2c:    f0000003    ....    AND      r0,r0,#3
        0x0001bd30:    f1c00004    ....    RSB      r0,r0,#4
        0x0001bd34:    9003        ..      STR      r0,[sp,#0xc]
        0x0001bd36:    e002        ..      B        0x1bd3e ; mspi_dma_write + 86
        0x0001bd38:    980b        ..      LDR      r0,[sp,#0x2c]
        0x0001bd3a:    9003        ..      STR      r0,[sp,#0xc]
        0x0001bd3c:    e7ff        ..      B        0x1bd3e ; mspi_dma_write + 86
        0x0001bd3e:    9803        ..      LDR      r0,[sp,#0xc]
        0x0001bd40:    990b        ..      LDR      r1,[sp,#0x2c]
        0x0001bd42:    1a40        @.      SUBS     r0,r0,r1
        0x0001bd44:    fab0f080    ....    CLZ      r0,r0
        0x0001bd48:    0940        @.      LSRS     r0,r0,#5
        0x0001bd4a:    f88d000b    ....    STRB     r0,[sp,#0xb]
        0x0001bd4e:    9803        ..      LDR      r0,[sp,#0xc]
        0x0001bd50:    9005        ..      STR      r0,[sp,#0x14]
        0x0001bd52:    980d        ..      LDR      r0,[sp,#0x34]
        0x0001bd54:    9006        ..      STR      r0,[sp,#0x18]
        0x0001bd56:    980c        ..      LDR      r0,[sp,#0x30]
        0x0001bd58:    9007        ..      STR      r0,[sp,#0x1c]
        0x0001bd5a:    f89d000b    ....    LDRB     r0,[sp,#0xb]
        0x0001bd5e:    07c0        ..      LSLS     r0,r0,#31
        0x0001bd60:    b118        ..      CBZ      r0,0x1bd6a ; mspi_dma_write + 130
        0x0001bd62:    e7ff        ..      B        0x1bd64 ; mspi_dma_write + 124
        0x0001bd64:    2000        .       MOVS     r0,#0
        0x0001bd66:    9009        ..      STR      r0,[sp,#0x24]
        0x0001bd68:    e7ff        ..      B        0x1bd6a ; mspi_dma_write + 130
        0x0001bd6a:    f64170c4    A..p    MOV      r0,#0x1fc4
        0x0001bd6e:    f2c10000    ....    MOVT     r0,#0x1000
        0x0001bd72:    6800        .h      LDR      r0,[r0,#0]
        0x0001bd74:    f89d100b    ....    LDRB     r1,[sp,#0xb]
        0x0001bd78:    f0010301    ....    AND      r3,r1,#1
        0x0001bd7c:    f64b0131    K.1.    MOV      r1,#0xb831
        0x0001bd80:    f2c00101    ....    MOVT     r1,#1
        0x0001bd84:    2b00        .+      CMP      r3,#0
        0x0001bd86:    bf18        ..      IT       NE
        0x0001bd88:    460b        .F      MOVNE    r3,r1
        0x0001bd8a:    466a        jF      MOV      r2,sp
        0x0001bd8c:    2100        .!      MOVS     r1,#0
        0x0001bd8e:    6011        .`      STR      r1,[r2,#0]
        0x0001bd90:    a904        ..      ADD      r1,sp,#0x10
        0x0001bd92:    2201        ."      MOVS     r2,#1
        0x0001bd94:    f7fefa9c    ....    BL       am_hal_mspi_nonblocking_transfer ; 0x1a2d0
        0x0001bd98:    900a        ..      STR      r0,[sp,#0x28]
        0x0001bd9a:    980a        ..      LDR      r0,[sp,#0x28]
        0x0001bd9c:    b108        ..      CBZ      r0,0x1bda2 ; mspi_dma_write + 186
        0x0001bd9e:    e7ff        ..      B        0x1bda0 ; mspi_dma_write + 184
        0x0001bda0:    e00f        ..      B        0x1bdc2 ; mspi_dma_write + 218
        0x0001bda2:    9903        ..      LDR      r1,[sp,#0xc]
        0x0001bda4:    980d        ..      LDR      r0,[sp,#0x34]
        0x0001bda6:    4408        .D      ADD      r0,r0,r1
        0x0001bda8:    900d        ..      STR      r0,[sp,#0x34]
        0x0001bdaa:    9903        ..      LDR      r1,[sp,#0xc]
        0x0001bdac:    980b        ..      LDR      r0,[sp,#0x2c]
        0x0001bdae:    1a40        @.      SUBS     r0,r0,r1
        0x0001bdb0:    900b        ..      STR      r0,[sp,#0x2c]
        0x0001bdb2:    9903        ..      LDR      r1,[sp,#0xc]
        0x0001bdb4:    980c        ..      LDR      r0,[sp,#0x30]
        0x0001bdb6:    eb000081    ....    ADD      r0,r0,r1,LSL #2
        0x0001bdba:    900c        ..      STR      r0,[sp,#0x30]
        0x0001bdbc:    2000        .       MOVS     r0,#0
        0x0001bdbe:    9008        ..      STR      r0,[sp,#0x20]
        0x0001bdc0:    e7a1        ..      B        0x1bd06 ; mspi_dma_write + 30
        0x0001bdc2:    980a        ..      LDR      r0,[sp,#0x28]
        0x0001bdc4:    b00e        ..      ADD      sp,sp,#0x38
        0x0001bdc6:    bd80        ..      POP      {r7,pc}
    mspi_dummy_callback
        0x0001bdc8:    4770        pG      BX       lr
        0x0001bdca:    0000        ..      MOVS     r0,r0
    mspi_init
        0x0001bdcc:    b580        ..      PUSH     {r7,lr}
        0x0001bdce:    b084        ..      SUB      sp,sp,#0x10
        0x0001bdd0:    e7ff        ..      B        0x1bdd2 ; mspi_init + 6
        0x0001bdd2:    f2400008    @...    MOVW     r0,#8
        0x0001bdd6:    f2c10000    ....    MOVT     r0,#0x1000
        0x0001bdda:    7a01        .z      LDRB     r1,[r0,#8]
        0x0001bddc:    2000        .       MOVS     r0,#0
        0x0001bdde:    9000        ..      STR      r0,[sp,#0]
        0x0001bde0:    f7fcfbde    ....    BL       am_bsp_mspi_pins_enable ; 0x185a0
        0x0001bde4:    9800        ..      LDR      r0,[sp,#0]
        0x0001bde6:    f64171c4    A..q    MOV      r1,#0x1fc4
        0x0001bdea:    f2c10100    ....    MOVT     r1,#0x1000
        0x0001bdee:    f7fef881    ....    BL       am_hal_mspi_initialize ; 0x19ef4
        0x0001bdf2:    9002        ..      STR      r0,[sp,#8]
        0x0001bdf4:    9802        ..      LDR      r0,[sp,#8]
        0x0001bdf6:    b108        ..      CBZ      r0,0x1bdfc ; mspi_init + 48
        0x0001bdf8:    e7ff        ..      B        0x1bdfa ; mspi_init + 46
        0x0001bdfa:    e065        e.      B        0x1bec8 ; mspi_init + 252
        0x0001bdfc:    f64170c4    A..p    MOV      r0,#0x1fc4
        0x0001be00:    f2c10000    ....    MOVT     r0,#0x1000
        0x0001be04:    6800        .h      LDR      r0,[r0,#0]
        0x0001be06:    2200        ."      MOVS     r2,#0
        0x0001be08:    4611        .F      MOV      r1,r2
        0x0001be0a:    f7fefb29    ..).    BL       am_hal_mspi_power_control ; 0x1a460
        0x0001be0e:    9002        ..      STR      r0,[sp,#8]
        0x0001be10:    9802        ..      LDR      r0,[sp,#8]
        0x0001be12:    b108        ..      CBZ      r0,0x1be18 ; mspi_init + 76
        0x0001be14:    e7ff        ..      B        0x1be16 ; mspi_init + 74
        0x0001be16:    e057        W.      B        0x1bec8 ; mspi_init + 252
        0x0001be18:    f6470028    G.(.    MOV      r0,#0x7828
        0x0001be1c:    f2c10000    ....    MOVT     r0,#0x1000
        0x0001be20:    9001        ..      STR      r0,[sp,#4]
        0x0001be22:    9901        ..      LDR      r1,[sp,#4]
        0x0001be24:    f44f7040    O.@p    MOV      r0,#0x300
        0x0001be28:    6008        .`      STR      r0,[r1,#0]
        0x0001be2a:    9a01        ..      LDR      r2,[sp,#4]
        0x0001be2c:    f64170c4    A..p    MOV      r0,#0x1fc4
        0x0001be30:    f2c10000    ....    MOVT     r0,#0x1000
        0x0001be34:    f6410144    A.D.    MOV      r1,#0x1844
        0x0001be38:    4401        .D      ADD      r1,r1,r0
        0x0001be3a:    6051        Q`      STR      r1,[r2,#4]
        0x0001be3c:    6800        .h      LDR      r0,[r0,#0]
        0x0001be3e:    9901        ..      LDR      r1,[sp,#4]
        0x0001be40:    f7fdfebc    ....    BL       am_hal_mspi_configure ; 0x19bbc
        0x0001be44:    9002        ..      STR      r0,[sp,#8]
        0x0001be46:    9802        ..      LDR      r0,[sp,#8]
        0x0001be48:    b108        ..      CBZ      r0,0x1be4e ; mspi_init + 130
        0x0001be4a:    e7ff        ..      B        0x1be4c ; mspi_init + 128
        0x0001be4c:    e03c        <.      B        0x1bec8 ; mspi_init + 252
        0x0001be4e:    f64170c4    A..p    MOV      r0,#0x1fc4
        0x0001be52:    f2c10000    ....    MOVT     r0,#0x1000
        0x0001be56:    6800        .h      LDR      r0,[r0,#0]
        0x0001be58:    f2400108    @...    MOVW     r1,#8
        0x0001be5c:    f2c10100    ....    MOVT     r1,#0x1000
        0x0001be60:    f7fdff14    ....    BL       am_hal_mspi_device_configure ; 0x19c8c
        0x0001be64:    9002        ..      STR      r0,[sp,#8]
        0x0001be66:    9802        ..      LDR      r0,[sp,#8]
        0x0001be68:    b108        ..      CBZ      r0,0x1be6e ; mspi_init + 162
        0x0001be6a:    e7ff        ..      B        0x1be6c ; mspi_init + 160
        0x0001be6c:    e02c        ,.      B        0x1bec8 ; mspi_init + 252
        0x0001be6e:    f64170c4    A..p    MOV      r0,#0x1fc4
        0x0001be72:    f2c10000    ....    MOVT     r0,#0x1000
        0x0001be76:    6800        .h      LDR      r0,[r0,#0]
        0x0001be78:    f7fdffe4    ....    BL       am_hal_mspi_enable ; 0x19e44
        0x0001be7c:    9002        ..      STR      r0,[sp,#8]
        0x0001be7e:    9802        ..      LDR      r0,[sp,#8]
        0x0001be80:    b108        ..      CBZ      r0,0x1be86 ; mspi_init + 186
        0x0001be82:    e7ff        ..      B        0x1be84 ; mspi_init + 184
        0x0001be84:    e020         .      B        0x1bec8 ; mspi_init + 252
        0x0001be86:    f64170c4    A..p    MOV      r0,#0x1fc4
        0x0001be8a:    f2c10000    ....    MOVT     r0,#0x1000
        0x0001be8e:    6800        .h      LDR      r0,[r0,#0]
        0x0001be90:    f44f51d4    O..Q    MOV      r1,#0x1a80
        0x0001be94:    f7fef856    ..V.    BL       am_hal_mspi_interrupt_clear ; 0x19f44
        0x0001be98:    9002        ..      STR      r0,[sp,#8]
        0x0001be9a:    9802        ..      LDR      r0,[sp,#8]
        0x0001be9c:    b118        ..      CBZ      r0,0x1bea6 ; mspi_init + 218
        0x0001be9e:    e7ff        ..      B        0x1bea0 ; mspi_init + 212
        0x0001bea0:    2001        .       MOVS     r0,#1
        0x0001bea2:    9003        ..      STR      r0,[sp,#0xc]
        0x0001bea4:    e013        ..      B        0x1bece ; mspi_init + 258
        0x0001bea6:    f64170c4    A..p    MOV      r0,#0x1fc4
        0x0001beaa:    f2c10000    ....    MOVT     r0,#0x1000
        0x0001beae:    6800        .h      LDR      r0,[r0,#0]
        0x0001beb0:    f44f51d4    O..Q    MOV      r1,#0x1a80
        0x0001beb4:    f7fef85c    ..\.    BL       am_hal_mspi_interrupt_enable ; 0x19f70
        0x0001beb8:    9002        ..      STR      r0,[sp,#8]
        0x0001beba:    9802        ..      LDR      r0,[sp,#8]
        0x0001bebc:    b118        ..      CBZ      r0,0x1bec6 ; mspi_init + 250
        0x0001bebe:    e7ff        ..      B        0x1bec0 ; mspi_init + 244
        0x0001bec0:    2001        .       MOVS     r0,#1
        0x0001bec2:    9003        ..      STR      r0,[sp,#0xc]
        0x0001bec4:    e003        ..      B        0x1bece ; mspi_init + 258
        0x0001bec6:    e7ff        ..      B        0x1bec8 ; mspi_init + 252
        0x0001bec8:    9802        ..      LDR      r0,[sp,#8]
        0x0001beca:    9003        ..      STR      r0,[sp,#0xc]
        0x0001becc:    e7ff        ..      B        0x1bece ; mspi_init + 258
        0x0001bece:    9803        ..      LDR      r0,[sp,#0xc]
        0x0001bed0:    b004        ..      ADD      sp,sp,#0x10
        0x0001bed2:    bd80        ..      POP      {r7,pc}
    pwr_data_transfer_sequence
        0x0001bed4:    b580        ..      PUSH     {r7,lr}
        0x0001bed6:    b086        ..      SUB      sp,sp,#0x18
        0x0001bed8:    f88d0013    ....    STRB     r0,[sp,#0x13]
        0x0001bedc:    f64170c4    A..p    MOV      r0,#0x1fc4
        0x0001bee0:    f2c10000    ....    MOVT     r0,#0x1000
        0x0001bee4:    f6450158    E.X.    MOV      r1,#0x5858
        0x0001bee8:    5c40        @\      LDRB     r0,[r0,r1]
        0x0001beea:    07c0        ..      LSLS     r0,r0,#31
        0x0001beec:    b328        (.      CBZ      r0,0x1bf3a ; pwr_data_transfer_sequence + 102
        0x0001beee:    e7ff        ..      B        0x1bef0 ; pwr_data_transfer_sequence + 28
        0x0001bef0:    f64170c4    A..p    MOV      r0,#0x1fc4
        0x0001bef4:    f2c10000    ....    MOVT     r0,#0x1000
        0x0001bef8:    f6450258    E.X.    MOV      r2,#0x5858
        0x0001befc:    2100        .!      MOVS     r1,#0
        0x0001befe:    5481        .T      STRB     r1,[r0,r2]
        0x0001bf00:    f645015a    E.Z.    MOV      r1,#0x585a
        0x0001bf04:    5c40        @\      LDRB     r0,[r0,r1]
        0x0001bf06:    07c0        ..      LSLS     r0,r0,#31
        0x0001bf08:    b1b0        ..      CBZ      r0,0x1bf38 ; pwr_data_transfer_sequence + 100
        0x0001bf0a:    e7ff        ..      B        0x1bf0c ; pwr_data_transfer_sequence + 56
        0x0001bf0c:    f64171c4    A..q    MOV      r1,#0x1fc4
        0x0001bf10:    f2c10100    ....    MOVT     r1,#0x1000
        0x0001bf14:    f645025a    E.Z.    MOV      r2,#0x585a
        0x0001bf18:    2000        .       MOVS     r0,#0
        0x0001bf1a:    5488        .T      STRB     r0,[r1,r2]
        0x0001bf1c:    f6450248    E.H.    MOV      r2,#0x5848
        0x0001bf20:    5888        .X      LDR      r0,[r1,r2]
        0x0001bf22:    3001        .0      ADDS     r0,#1
        0x0001bf24:    5088        .P      STR      r0,[r1,r2]
        0x0001bf26:    280a        .(      CMP      r0,#0xa
        0x0001bf28:    db05        ..      BLT      0x1bf36 ; pwr_data_transfer_sequence + 98
        0x0001bf2a:    e7ff        ..      B        0x1bf2c ; pwr_data_transfer_sequence + 88
        0x0001bf2c:    2000        .       MOVS     r0,#0
        0x0001bf2e:    f000f863    ..c.    BL       pwr_terminate_transfer ; 0x1bff8
        0x0001bf32:    9005        ..      STR      r0,[sp,#0x14]
        0x0001bf34:    e05d        ].      B        0x1bff2 ; pwr_data_transfer_sequence + 286
        0x0001bf36:    e7ff        ..      B        0x1bf38 ; pwr_data_transfer_sequence + 100
        0x0001bf38:    e7ff        ..      B        0x1bf3a ; pwr_data_transfer_sequence + 102
        0x0001bf3a:    f64170c4    A..p    MOV      r0,#0x1fc4
        0x0001bf3e:    f2c10000    ....    MOVT     r0,#0x1000
        0x0001bf42:    f6450144    E.D.    MOV      r1,#0x5844
        0x0001bf46:    5840        @X      LDR      r0,[r0,r1]
        0x0001bf48:    2809        .(      CMP      r0,#9
        0x0001bf4a:    dc4f        O.      BGT      0x1bfec ; pwr_data_transfer_sequence + 280
        0x0001bf4c:    e7ff        ..      B        0x1bf4e ; pwr_data_transfer_sequence + 122
        0x0001bf4e:    f64170c4    A..p    MOV      r0,#0x1fc4
        0x0001bf52:    f2c10000    ....    MOVT     r0,#0x1000
        0x0001bf56:    f645015a    E.Z.    MOV      r1,#0x585a
        0x0001bf5a:    5c40        @\      LDRB     r0,[r0,r1]
        0x0001bf5c:    07c0        ..      LSLS     r0,r0,#31
        0x0001bf5e:    2800        .(      CMP      r0,#0
        0x0001bf60:    d144        D.      BNE      0x1bfec ; pwr_data_transfer_sequence + 280
        0x0001bf62:    e7ff        ..      B        0x1bf64 ; pwr_data_transfer_sequence + 144
        0x0001bf64:    f64171c4    A..q    MOV      r1,#0x1fc4
        0x0001bf68:    f2c10100    ....    MOVT     r1,#0x1000
        0x0001bf6c:    f6450244    E.D.    MOV      r2,#0x5844
        0x0001bf70:    5888        .X      LDR      r0,[r1,r2]
        0x0001bf72:    3001        .0      ADDS     r0,#1
        0x0001bf74:    5088        .P      STR      r0,[r1,r2]
        0x0001bf76:    2000        .       MOVS     r0,#0
        0x0001bf78:    9003        ..      STR      r0,[sp,#0xc]
        0x0001bf7a:    f89d0013    ....    LDRB     r0,[sp,#0x13]
        0x0001bf7e:    2801        .(      CMP      r0,#1
        0x0001bf80:    d113        ..      BNE      0x1bfaa ; pwr_data_transfer_sequence + 214
        0x0001bf82:    e7ff        ..      B        0x1bf84 ; pwr_data_transfer_sequence + 176
        0x0001bf84:    f64170c4    A..p    MOV      r0,#0x1fc4
        0x0001bf88:    f2c10000    ....    MOVT     r0,#0x1000
        0x0001bf8c:    9002        ..      STR      r0,[sp,#8]
        0x0001bf8e:    f6004124    ..$A    ADD      r1,r0,#0xc24
        0x0001bf92:    2000        .       MOVS     r0,#0
        0x0001bf94:    f64032f8    @..2    MOV      r2,#0xbf8
        0x0001bf98:    f7fffe3c    ..<.    BL       mspi_dma_read ; 0x1bc14
        0x0001bf9c:    9902        ..      LDR      r1,[sp,#8]
        0x0001bf9e:    9003        ..      STR      r0,[sp,#0xc]
        0x0001bfa0:    f645025a    E.Z.    MOV      r2,#0x585a
        0x0001bfa4:    2001        .       MOVS     r0,#1
        0x0001bfa6:    5488        .T      STRB     r0,[r1,r2]
        0x0001bfa8:    e017        ..      B        0x1bfda ; pwr_data_transfer_sequence + 262
        0x0001bfaa:    f89d0013    ....    LDRB     r0,[sp,#0x13]
        0x0001bfae:    2802        .(      CMP      r0,#2
        0x0001bfb0:    d112        ..      BNE      0x1bfd8 ; pwr_data_transfer_sequence + 260
        0x0001bfb2:    e7ff        ..      B        0x1bfb4 ; pwr_data_transfer_sequence + 224
        0x0001bfb4:    f64170c4    A..p    MOV      r0,#0x1fc4
        0x0001bfb8:    f2c10000    ....    MOVT     r0,#0x1000
        0x0001bfbc:    9001        ..      STR      r0,[sp,#4]
        0x0001bfbe:    1d01        ..      ADDS     r1,r0,#4
        0x0001bfc0:    2000        .       MOVS     r0,#0
        0x0001bfc2:    f64032f8    @..2    MOV      r2,#0xbf8
        0x0001bfc6:    f7fffe8f    ....    BL       mspi_dma_write ; 0x1bce8
        0x0001bfca:    9901        ..      LDR      r1,[sp,#4]
        0x0001bfcc:    9003        ..      STR      r0,[sp,#0xc]
        0x0001bfce:    f645025a    E.Z.    MOV      r2,#0x585a
        0x0001bfd2:    2001        .       MOVS     r0,#1
        0x0001bfd4:    5488        .T      STRB     r0,[r1,r2]
        0x0001bfd6:    e7ff        ..      B        0x1bfd8 ; pwr_data_transfer_sequence + 260
        0x0001bfd8:    e7ff        ..      B        0x1bfda ; pwr_data_transfer_sequence + 262
        0x0001bfda:    9803        ..      LDR      r0,[sp,#0xc]
        0x0001bfdc:    b128        (.      CBZ      r0,0x1bfea ; pwr_data_transfer_sequence + 278
        0x0001bfde:    e7ff        ..      B        0x1bfe0 ; pwr_data_transfer_sequence + 268
        0x0001bfe0:    2002        .       MOVS     r0,#2
        0x0001bfe2:    f000f809    ....    BL       pwr_terminate_transfer ; 0x1bff8
        0x0001bfe6:    9005        ..      STR      r0,[sp,#0x14]
        0x0001bfe8:    e003        ..      B        0x1bff2 ; pwr_data_transfer_sequence + 286
        0x0001bfea:    e7ff        ..      B        0x1bfec ; pwr_data_transfer_sequence + 280
        0x0001bfec:    2000        .       MOVS     r0,#0
        0x0001bfee:    9005        ..      STR      r0,[sp,#0x14]
        0x0001bff0:    e7ff        ..      B        0x1bff2 ; pwr_data_transfer_sequence + 286
        0x0001bff2:    9805        ..      LDR      r0,[sp,#0x14]
        0x0001bff4:    b006        ..      ADD      sp,sp,#0x18
        0x0001bff6:    bd80        ..      POP      {r7,pc}
    pwr_terminate_transfer
        0x0001bff8:    b081        ..      SUB      sp,sp,#4
        0x0001bffa:    9000        ..      STR      r0,[sp,#0]
        0x0001bffc:    f64171c4    A..q    MOV      r1,#0x1fc4
        0x0001c000:    f2c10100    ....    MOVT     r1,#0x1000
        0x0001c004:    f6450248    E.H.    MOV      r2,#0x5848
        0x0001c008:    2000        .       MOVS     r0,#0
        0x0001c00a:    5088        .P      STR      r0,[r1,r2]
        0x0001c00c:    f6450244    E.D.    MOV      r2,#0x5844
        0x0001c010:    5088        .P      STR      r0,[r1,r2]
        0x0001c012:    f645025a    E.Z.    MOV      r2,#0x585a
        0x0001c016:    5488        .T      STRB     r0,[r1,r2]
        0x0001c018:    5488        .T      STRB     r0,[r1,r2]
        0x0001c01a:    f645025b    E.[.    MOV      r2,#0x585b
        0x0001c01e:    5488        .T      STRB     r0,[r1,r2]
        0x0001c020:    9800        ..      LDR      r0,[sp,#0]
        0x0001c022:    b001        ..      ADD      sp,sp,#4
        0x0001c024:    4770        pG      BX       lr
        0x0001c026:    0000        ..      MOVS     r0,r0
    pwrctrl_fill_buff_alternating_bits
        0x0001c028:    b085        ..      SUB      sp,sp,#0x14
        0x0001c02a:    9004        ..      STR      r0,[sp,#0x10]
        0x0001c02c:    9103        ..      STR      r1,[sp,#0xc]
        0x0001c02e:    9202        ..      STR      r2,[sp,#8]
        0x0001c030:    f24a505a    J.ZP    MOV      r0,#0xa55a
        0x0001c034:    f2ca505a    ..ZP    MOVT     r0,#0xa55a
        0x0001c038:    9001        ..      STR      r0,[sp,#4]
        0x0001c03a:    9803        ..      LDR      r0,[sp,#0xc]
        0x0001c03c:    2809        .(      CMP      r0,#9
        0x0001c03e:    d306        ..      BCC      0x1c04e ; pwrctrl_fill_buff_alternating_bits + 38
        0x0001c040:    e7ff        ..      B        0x1c042 ; pwrctrl_fill_buff_alternating_bits + 26
        0x0001c042:    f64520a5    E..     MOV      r0,#0x5aa5
        0x0001c046:    f2ca505a    ..ZP    MOVT     r0,#0xa55a
        0x0001c04a:    9001        ..      STR      r0,[sp,#4]
        0x0001c04c:    e7ff        ..      B        0x1c04e ; pwrctrl_fill_buff_alternating_bits + 38
        0x0001c04e:    9804        ..      LDR      r0,[sp,#0x10]
        0x0001c050:    9000        ..      STR      r0,[sp,#0]
        0x0001c052:    9802        ..      LDR      r0,[sp,#8]
        0x0001c054:    1080        ..      ASRS     r0,r0,#2
        0x0001c056:    9002        ..      STR      r0,[sp,#8]
        0x0001c058:    e7ff        ..      B        0x1c05a ; pwrctrl_fill_buff_alternating_bits + 50
        0x0001c05a:    9802        ..      LDR      r0,[sp,#8]
        0x0001c05c:    1e41        A.      SUBS     r1,r0,#1
        0x0001c05e:    9102        ..      STR      r1,[sp,#8]
        0x0001c060:    2801        .(      CMP      r0,#1
        0x0001c062:    db06        ..      BLT      0x1c072 ; pwrctrl_fill_buff_alternating_bits + 74
        0x0001c064:    e7ff        ..      B        0x1c066 ; pwrctrl_fill_buff_alternating_bits + 62
        0x0001c066:    9801        ..      LDR      r0,[sp,#4]
        0x0001c068:    9900        ..      LDR      r1,[sp,#0]
        0x0001c06a:    1d0a        ..      ADDS     r2,r1,#4
        0x0001c06c:    9200        ..      STR      r2,[sp,#0]
        0x0001c06e:    6008        .`      STR      r0,[r1,#0]
        0x0001c070:    e7f3        ..      B        0x1c05a ; pwrctrl_fill_buff_alternating_bits + 50
        0x0001c072:    b005        ..      ADD      sp,sp,#0x14
        0x0001c074:    4770        pG      BX       lr
        0x0001c076:    0000        ..      MOVS     r0,r0
    pwrctrl_set_low_power
        0x0001c078:    b580        ..      PUSH     {r7,lr}
        0x0001c07a:    b084        ..      SUB      sp,sp,#0x10
        0x0001c07c:    e7ff        ..      B        0x1c07e ; pwrctrl_set_low_power + 6
        0x0001c07e:    f24c10e2    L...    MOV      r0,#0xc1e2
        0x0001c082:    f2c00001    ....    MOVT     r0,#1
        0x0001c086:    f7fdf8a9    ....    BL       am_hal_cachectrl_config ; 0x191dc
        0x0001c08a:    9003        ..      STR      r0,[sp,#0xc]
        0x0001c08c:    9803        ..      LDR      r0,[sp,#0xc]
        0x0001c08e:    b120         .      CBZ      r0,0x1c09a ; pwrctrl_set_low_power + 34
        0x0001c090:    e7ff        ..      B        0x1c092 ; pwrctrl_set_low_power + 26
        0x0001c092:    2001        .       MOVS     r0,#1
        0x0001c094:    f88d000f    ....    STRB     r0,[sp,#0xf]
        0x0001c098:    e040        @.      B        0x1c11c ; pwrctrl_set_low_power + 164
        0x0001c09a:    f7fdf8c1    ....    BL       am_hal_cachectrl_enable ; 0x19220
        0x0001c09e:    f7fcfa67    ..g.    BL       am_bsp_low_power_init ; 0x18570
        0x0001c0a2:    2012        .       MOVS     r0,#0x12
        0x0001c0a4:    f7fefd8c    ....    BL       am_hal_pwrctrl_periph_disable ; 0x1abc0
        0x0001c0a8:    9003        ..      STR      r0,[sp,#0xc]
        0x0001c0aa:    9803        ..      LDR      r0,[sp,#0xc]
        0x0001c0ac:    b120         .      CBZ      r0,0x1c0b8 ; pwrctrl_set_low_power + 64
        0x0001c0ae:    e7ff        ..      B        0x1c0b0 ; pwrctrl_set_low_power + 56
        0x0001c0b0:    2002        .       MOVS     r0,#2
        0x0001c0b2:    f88d000f    ....    STRB     r0,[sp,#0xf]
        0x0001c0b6:    e031        1.      B        0x1c11c ; pwrctrl_set_low_power + 164
        0x0001c0b8:    2037        7       MOVS     r0,#0x37
        0x0001c0ba:    9002        ..      STR      r0,[sp,#8]
        0x0001c0bc:    2100        .!      MOVS     r1,#0
        0x0001c0be:    9101        ..      STR      r1,[sp,#4]
        0x0001c0c0:    f7fdfc92    ....    BL       am_hal_gpio_state_write ; 0x199e8
        0x0001c0c4:    4601        .F      MOV      r1,r0
        0x0001c0c6:    9802        ..      LDR      r0,[sp,#8]
        0x0001c0c8:    9103        ..      STR      r1,[sp,#0xc]
        0x0001c0ca:    f24c11ec    L...    MOV      r1,#0xc1ec
        0x0001c0ce:    f2c00101    ....    MOVT     r1,#1
        0x0001c0d2:    6809        .h      LDR      r1,[r1,#0]
        0x0001c0d4:    f7fdfc3c    ..<.    BL       am_hal_gpio_pinconfig ; 0x19950
        0x0001c0d8:    4602        .F      MOV      r2,r0
        0x0001c0da:    9802        ..      LDR      r0,[sp,#8]
        0x0001c0dc:    9903        ..      LDR      r1,[sp,#0xc]
        0x0001c0de:    4411        .D      ADD      r1,r1,r2
        0x0001c0e0:    9103        ..      STR      r1,[sp,#0xc]
        0x0001c0e2:    2101        .!      MOVS     r1,#1
        0x0001c0e4:    f7fdfc80    ....    BL       am_hal_gpio_state_write ; 0x199e8
        0x0001c0e8:    9901        ..      LDR      r1,[sp,#4]
        0x0001c0ea:    4603        .F      MOV      r3,r0
        0x0001c0ec:    9802        ..      LDR      r0,[sp,#8]
        0x0001c0ee:    9a03        ..      LDR      r2,[sp,#0xc]
        0x0001c0f0:    441a        .D      ADD      r2,r2,r3
        0x0001c0f2:    9203        ..      STR      r2,[sp,#0xc]
        0x0001c0f4:    f7fdfc78    ..x.    BL       am_hal_gpio_state_write ; 0x199e8
        0x0001c0f8:    4601        .F      MOV      r1,r0
        0x0001c0fa:    9803        ..      LDR      r0,[sp,#0xc]
        0x0001c0fc:    4408        .D      ADD      r0,r0,r1
        0x0001c0fe:    9003        ..      STR      r0,[sp,#0xc]
        0x0001c100:    9803        ..      LDR      r0,[sp,#0xc]
        0x0001c102:    b120         .      CBZ      r0,0x1c10e ; pwrctrl_set_low_power + 150
        0x0001c104:    e7ff        ..      B        0x1c106 ; pwrctrl_set_low_power + 142
        0x0001c106:    2003        .       MOVS     r0,#3
        0x0001c108:    f88d000f    ....    STRB     r0,[sp,#0xf]
        0x0001c10c:    e006        ..      B        0x1c11c ; pwrctrl_set_low_power + 164
        0x0001c10e:    f24c10dc    L...    MOV      r0,#0xc1dc
        0x0001c112:    f2c00001    ....    MOVT     r0,#1
        0x0001c116:    f7fefec1    ....    BL       am_hal_pwrctrl_sram_config ; 0x1ae9c
        0x0001c11a:    e7ff        ..      B        0x1c11c ; pwrctrl_set_low_power + 164
        0x0001c11c:    9803        ..      LDR      r0,[sp,#0xc]
        0x0001c11e:    b004        ..      ADD      sp,sp,#0x10
        0x0001c120:    bd80        ..      POP      {r7,pc}
        0x0001c122:    0000        ..      MOVS     r0,r0
    timerCallback
        0x0001c124:    f64171c4    A..q    MOV      r1,#0x1fc4
        0x0001c128:    f2c10100    ....    MOVT     r1,#0x1000
        0x0001c12c:    f6450259    E.Y.    MOV      r2,#0x5859
        0x0001c130:    2001        .       MOVS     r0,#1
        0x0001c132:    5488        .T      STRB     r0,[r1,r2]
        0x0001c134:    4770        pG      BX       lr
        0x0001c136:    0000        ..      MOVS     r0,r0
    timer_disable
        0x0001c138:    b580        ..      PUSH     {r7,lr}
        0x0001c13a:    2000        .       MOVS     r0,#0
        0x0001c13c:    f7fefffa    ....    BL       am_hal_timer_disable ; 0x1b134
        0x0001c140:    2043        C       MOVS     r0,#0x43
        0x0001c142:    f7fcf985    ....    BL       __NVIC_DisableIRQ ; 0x18450
        0x0001c146:    bd80        ..      POP      {r7,pc}
    timer_init
        0x0001c148:    b580        ..      PUSH     {r7,lr}
        0x0001c14a:    b08e        ..      SUB      sp,sp,#0x38
        0x0001c14c:    900c        ..      STR      r0,[sp,#0x30]
        0x0001c14e:    910b        ..      STR      r1,[sp,#0x2c]
        0x0001c150:    980b        ..      LDR      r0,[sp,#0x2c]
        0x0001c152:    f6470124    G.$.    MOV      r1,#0x7824
        0x0001c156:    f2c10100    ....    MOVT     r1,#0x1000
        0x0001c15a:    6008        .`      STR      r0,[r1,#0]
        0x0001c15c:    a806        ..      ADD      r0,sp,#0x18
        0x0001c15e:    9004        ..      STR      r0,[sp,#0x10]
        0x0001c160:    f7feffd8    ....    BL       am_hal_timer_default_config_set ; 0x1b114
        0x0001c164:    9904        ..      LDR      r1,[sp,#0x10]
        0x0001c166:    200f        .       MOVS     r0,#0xf
        0x0001c168:    f88d0018    ....    STRB     r0,[sp,#0x18]
        0x0001c16c:    2002        .       MOVS     r0,#2
        0x0001c16e:    f88d0019    ....    STRB     r0,[sp,#0x19]
        0x0001c172:    980c        ..      LDR      r0,[sp,#0x30]
        0x0001c174:    900a        ..      STR      r0,[sp,#0x28]
        0x0001c176:    2000        .       MOVS     r0,#0
        0x0001c178:    f7feffca    ....    BL       am_hal_timer_config ; 0x1b110
        0x0001c17c:    9005        ..      STR      r0,[sp,#0x14]
        0x0001c17e:    9805        ..      LDR      r0,[sp,#0x14]
        0x0001c180:    b118        ..      CBZ      r0,0x1c18a ; timer_init + 66
        0x0001c182:    e7ff        ..      B        0x1c184 ; timer_init + 60
        0x0001c184:    9805        ..      LDR      r0,[sp,#0x14]
        0x0001c186:    900d        ..      STR      r0,[sp,#0x34]
        0x0001c188:    e018        ..      B        0x1c1bc ; timer_init + 116
        0x0001c18a:    2000        .       MOVS     r0,#0
        0x0001c18c:    9003        ..      STR      r0,[sp,#0xc]
        0x0001c18e:    f7feff9d    ....    BL       am_hal_timer_clear ; 0x1b0cc
        0x0001c192:    2002        .       MOVS     r0,#2
        0x0001c194:    9002        ..      STR      r0,[sp,#8]
        0x0001c196:    f7fff80d    ....    BL       am_hal_timer_interrupt_clear ; 0x1b1b4
        0x0001c19a:    2043        C       MOVS     r0,#0x43
        0x0001c19c:    9001        ..      STR      r0,[sp,#4]
        0x0001c19e:    2104        .!      MOVS     r1,#4
        0x0001c1a0:    f7fcf9c4    ....    BL       __NVIC_SetPriority ; 0x1852c
        0x0001c1a4:    9801        ..      LDR      r0,[sp,#4]
        0x0001c1a6:    f7fcf987    ....    BL       __NVIC_EnableIRQ ; 0x184b8
        0x0001c1aa:    9802        ..      LDR      r0,[sp,#8]
        0x0001c1ac:    f7fff814    ....    BL       am_hal_timer_interrupt_enable ; 0x1b1d8
        0x0001c1b0:    9803        ..      LDR      r0,[sp,#0xc]
        0x0001c1b2:    f7feffd5    ....    BL       am_hal_timer_enable ; 0x1b160
        0x0001c1b6:    9803        ..      LDR      r0,[sp,#0xc]
        0x0001c1b8:    900d        ..      STR      r0,[sp,#0x34]
        0x0001c1ba:    e7ff        ..      B        0x1c1bc ; timer_init + 116
        0x0001c1bc:    980d        ..      LDR      r0,[sp,#0x34]
        0x0001c1be:    b00e        ..      ADD      sp,sp,#0x38
        0x0001c1c0:    bd80        ..      POP      {r7,pc}
    $t
    x$fpl$fpinit
    $v0
    _fp_init
        0x0001c1c2:    eef10a10    ....    VMRS     r0,FPSCR
        0x0001c1c6:    f64f71ff    O..q    MOV      r1,#0xffff
        0x0001c1ca:    f2c031c0    ...1    MOVT     r1,#0x3c0
        0x0001c1ce:    ea200001     ...    BIC      r0,r0,r1
        0x0001c1d2:    f0407040    @.@p    ORR      r0,r0,#0x3000000
        0x0001c1d6:    eee10a10    ....    VMSR     FPSCR,r0
    __fplib_config_fpu_vfp
    __fplib_config_pureend_doubles
        0x0001c1da:    4770        pG      BX       lr
    $d.realdata
    SRAMMemCfg
        0x0001c1dc:    00000001    ....    DCD    1
        0x0001c1e0:    0100        ..      DCW    256
    am_hal_cachectrl_defaults
        0x0001c1e2:    030e        ..      DCW    782
        0x0001c1e4:    00          .       DCB    0
    am_hal_daxi_defaults
        0x0001c1e5:    000102      ...     DCB    0,1,2
        0x0001c1e8:    00000100    ....    DCD    256
    am_hal_gpio_pincfg_output
        0x0001c1ec:    00000183    ....    DCD    387
    am_hal_pwrctrl_peripheral_control
        0x0001c1f0:    40021004    ...@    DCD    1073876996
        0x0001c1f4:    00000001    ....    DCD    1
        0x0001c1f8:    40021008    ...@    DCD    1073877000
        0x0001c1fc:    00000001    ....    DCD    1
        0x0001c200:    40021004    ...@    DCD    1073876996
        0x0001c204:    00000002    ....    DCD    2
        0x0001c208:    40021008    ...@    DCD    1073877000
        0x0001c20c:    0000001e    ....    DCD    30
        0x0001c210:    40021004    ...@    DCD    1073876996
        0x0001c214:    00000004    ....    DCD    4
        0x0001c218:    40021008    ...@    DCD    1073877000
        0x0001c21c:    0000001e    ....    DCD    30
        0x0001c220:    40021004    ...@    DCD    1073876996
        0x0001c224:    00000008    ....    DCD    8
        0x0001c228:    40021008    ...@    DCD    1073877000
        0x0001c22c:    0000001e    ....    DCD    30
        0x0001c230:    40021004    ...@    DCD    1073876996
        0x0001c234:    00000010    ....    DCD    16
        0x0001c238:    40021008    ...@    DCD    1073877000
        0x0001c23c:    0000001e    ....    DCD    30
        0x0001c240:    40021004    ...@    DCD    1073876996
        0x0001c244:    00000020     ...    DCD    32
        0x0001c248:    40021008    ...@    DCD    1073877000
        0x0001c24c:    000001e0    ....    DCD    480
        0x0001c250:    40021004    ...@    DCD    1073876996
        0x0001c254:    00000040    @...    DCD    64
        0x0001c258:    40021008    ...@    DCD    1073877000
        0x0001c25c:    000001e0    ....    DCD    480
        0x0001c260:    40021004    ...@    DCD    1073876996
        0x0001c264:    00000080    ....    DCD    128
        0x0001c268:    40021008    ...@    DCD    1073877000
        0x0001c26c:    000001e0    ....    DCD    480
        0x0001c270:    40021004    ...@    DCD    1073876996
        0x0001c274:    00000100    ....    DCD    256
        0x0001c278:    40021008    ...@    DCD    1073877000
        0x0001c27c:    000001e0    ....    DCD    480
        0x0001c280:    40021004    ...@    DCD    1073876996
        0x0001c284:    00000200    ....    DCD    512
        0x0001c288:    40021008    ...@    DCD    1073877000
        0x0001c28c:    00001e00    ....    DCD    7680
        0x0001c290:    40021004    ...@    DCD    1073876996
        0x0001c294:    00000400    ....    DCD    1024
        0x0001c298:    40021008    ...@    DCD    1073877000
        0x0001c29c:    00001e00    ....    DCD    7680
        0x0001c2a0:    40021004    ...@    DCD    1073876996
        0x0001c2a4:    00000800    ....    DCD    2048
        0x0001c2a8:    40021008    ...@    DCD    1073877000
        0x0001c2ac:    00001e00    ....    DCD    7680
        0x0001c2b0:    40021004    ...@    DCD    1073876996
        0x0001c2b4:    00001000    ....    DCD    4096
        0x0001c2b8:    40021008    ...@    DCD    1073877000
        0x0001c2bc:    00001e00    ....    DCD    7680
        0x0001c2c0:    40021004    ...@    DCD    1073876996
        0x0001c2c4:    00002000    . ..    DCD    8192
        0x0001c2c8:    40021008    ...@    DCD    1073877000
        0x0001c2cc:    00002000    . ..    DCD    8192
        0x0001c2d0:    40021004    ...@    DCD    1073876996
        0x0001c2d4:    00004000    .@..    DCD    16384
        0x0001c2d8:    40021008    ...@    DCD    1073877000
        0x0001c2dc:    0001c000    ....    DCD    114688
        0x0001c2e0:    40021004    ...@    DCD    1073876996
        0x0001c2e4:    00008000    ....    DCD    32768
        0x0001c2e8:    40021008    ...@    DCD    1073877000
        0x0001c2ec:    0001c000    ....    DCD    114688
        0x0001c2f0:    40021004    ...@    DCD    1073876996
        0x0001c2f4:    00010000    ....    DCD    65536
        0x0001c2f8:    40021008    ...@    DCD    1073877000
        0x0001c2fc:    0001c000    ....    DCD    114688
        0x0001c300:    40021004    ...@    DCD    1073876996
        0x0001c304:    00020000    ....    DCD    131072
        0x0001c308:    40021008    ...@    DCD    1073877000
        0x0001c30c:    00020000    ....    DCD    131072
        0x0001c310:    40021004    ...@    DCD    1073876996
        0x0001c314:    00100000    ....    DCD    1048576
        0x0001c318:    40021008    ...@    DCD    1073877000
        0x0001c31c:    00100000    ....    DCD    1048576
        0x0001c320:    40021004    ...@    DCD    1073876996
        0x0001c324:    00200000    .. .    DCD    2097152
        0x0001c328:    40021008    ...@    DCD    1073877000
        0x0001c32c:    00200000    .. .    DCD    2097152
        0x0001c330:    40021004    ...@    DCD    1073876996
        0x0001c334:    01000000    ....    DCD    16777216
        0x0001c338:    40021008    ...@    DCD    1073877000
        0x0001c33c:    01000000    ....    DCD    16777216
        0x0001c340:    4002100c    ...@    DCD    1073877004
        0x0001c344:    00000001    ....    DCD    1
        0x0001c348:    40021010    ...@    DCD    1073877008
        0x0001c34c:    00000047    G...    DCD    71
        0x0001c350:    4002100c    ...@    DCD    1073877004
        0x0001c354:    00000002    ....    DCD    2
        0x0001c358:    40021010    ...@    DCD    1073877008
        0x0001c35c:    00000047    G...    DCD    71
        0x0001c360:    4002100c    ...@    DCD    1073877004
        0x0001c364:    00000004    ....    DCD    4
        0x0001c368:    40021010    ...@    DCD    1073877008
        0x0001c36c:    00000047    G...    DCD    71
        0x0001c370:    4002100c    ...@    DCD    1073877004
        0x0001c374:    00000040    @...    DCD    64
        0x0001c378:    40021010    ...@    DCD    1073877008
        0x0001c37c:    00000047    G...    DCD    71
    g_ui32RMpintbl
        0x0001c380:    00000000    ....    DCD    0
        0x0001c384:    00000000    ....    DCD    0
        0x0001c388:    00000000    ....    DCD    0
        0x0001c38c:    00000000    ....    DCD    0
    gAmHalCmdQReg
        0x0001c390:    40050228    (..@    DCD    1074070056
        0x0001c394:    4005022c    ,..@    DCD    1074070060
        0x0001c398:    40050240    @..@    DCD    1074070080
        0x0001c39c:    40050244    D..@    DCD    1074070084
        0x0001c3a0:    4005023c    <..@    DCD    1074070076
        0x0001c3a4:    00008000    ....    DCD    32768
        0x0001c3a8:    40050230    0..@    DCD    1074070064
        0x0001c3ac:    00000001    ....    DCD    1
        0x0001c3b0:    00000004    ....    DCD    4
        0x0001c3b4:    00000002    ....    DCD    2
        0x0001c3b8:    40051228    (..@    DCD    1074074152
        0x0001c3bc:    4005122c    ,..@    DCD    1074074156
        0x0001c3c0:    40051240    @..@    DCD    1074074176
        0x0001c3c4:    40051244    D..@    DCD    1074074180
        0x0001c3c8:    4005123c    <..@    DCD    1074074172
        0x0001c3cc:    00008000    ....    DCD    32768
        0x0001c3d0:    40051230    0..@    DCD    1074074160
        0x0001c3d4:    00000001    ....    DCD    1
        0x0001c3d8:    00000004    ....    DCD    4
        0x0001c3dc:    00000002    ....    DCD    2
        0x0001c3e0:    40052228    (".@    DCD    1074078248
        0x0001c3e4:    4005222c    ,".@    DCD    1074078252
        0x0001c3e8:    40052240    @".@    DCD    1074078272
        0x0001c3ec:    40052244    D".@    DCD    1074078276
        0x0001c3f0:    4005223c    <".@    DCD    1074078268
        0x0001c3f4:    00008000    ....    DCD    32768
        0x0001c3f8:    40052230    0".@    DCD    1074078256
        0x0001c3fc:    00000001    ....    DCD    1
        0x0001c400:    00000004    ....    DCD    4
        0x0001c404:    00000002    ....    DCD    2
        0x0001c408:    40053228    (2.@    DCD    1074082344
        0x0001c40c:    4005322c    ,2.@    DCD    1074082348
        0x0001c410:    40053240    @2.@    DCD    1074082368
        0x0001c414:    40053244    D2.@    DCD    1074082372
        0x0001c418:    4005323c    <2.@    DCD    1074082364
        0x0001c41c:    00008000    ....    DCD    32768
        0x0001c420:    40053230    02.@    DCD    1074082352
        0x0001c424:    00000001    ....    DCD    1
        0x0001c428:    00000004    ....    DCD    4
        0x0001c42c:    00000002    ....    DCD    2
        0x0001c430:    40054228    (B.@    DCD    1074086440
        0x0001c434:    4005422c    ,B.@    DCD    1074086444
        0x0001c438:    40054240    @B.@    DCD    1074086464
        0x0001c43c:    40054244    DB.@    DCD    1074086468
        0x0001c440:    4005423c    <B.@    DCD    1074086460
        0x0001c444:    00008000    ....    DCD    32768
        0x0001c448:    40054230    0B.@    DCD    1074086448
        0x0001c44c:    00000001    ....    DCD    1
        0x0001c450:    00000004    ....    DCD    4
        0x0001c454:    00000002    ....    DCD    2
        0x0001c458:    40055228    (R.@    DCD    1074090536
        0x0001c45c:    4005522c    ,R.@    DCD    1074090540
        0x0001c460:    40055240    @R.@    DCD    1074090560
        0x0001c464:    40055244    DR.@    DCD    1074090564
        0x0001c468:    4005523c    <R.@    DCD    1074090556
        0x0001c46c:    00008000    ....    DCD    32768
        0x0001c470:    40055230    0R.@    DCD    1074090544
        0x0001c474:    00000001    ....    DCD    1
        0x0001c478:    00000004    ....    DCD    4
        0x0001c47c:    00000002    ....    DCD    2
        0x0001c480:    40056228    (b.@    DCD    1074094632
        0x0001c484:    4005622c    ,b.@    DCD    1074094636
        0x0001c488:    40056240    @b.@    DCD    1074094656
        0x0001c48c:    40056244    Db.@    DCD    1074094660
        0x0001c490:    4005623c    <b.@    DCD    1074094652
        0x0001c494:    00008000    ....    DCD    32768
        0x0001c498:    40056230    0b.@    DCD    1074094640
        0x0001c49c:    00000001    ....    DCD    1
        0x0001c4a0:    00000004    ....    DCD    4
        0x0001c4a4:    00000002    ....    DCD    2
        0x0001c4a8:    40057228    (r.@    DCD    1074098728
        0x0001c4ac:    4005722c    ,r.@    DCD    1074098732
        0x0001c4b0:    40057240    @r.@    DCD    1074098752
        0x0001c4b4:    40057244    Dr.@    DCD    1074098756
        0x0001c4b8:    4005723c    <r.@    DCD    1074098748
        0x0001c4bc:    00008000    ....    DCD    32768
        0x0001c4c0:    40057230    0r.@    DCD    1074098736
        0x0001c4c4:    00000001    ....    DCD    1
        0x0001c4c8:    00000004    ....    DCD    4
        0x0001c4cc:    00000002    ....    DCD    2
        0x0001c4d0:    400602a0    ...@    DCD    1074135712
        0x0001c4d4:    400602a8    ...@    DCD    1074135720
        0x0001c4d8:    400602c0    ...@    DCD    1074135744
        0x0001c4dc:    400602c4    ...@    DCD    1074135748
        0x0001c4e0:    400602b8    ...@    DCD    1074135736
        0x0001c4e4:    00004000    .@..    DCD    16384
        0x0001c4e8:    400602ac    ...@    DCD    1074135724
        0x0001c4ec:    00000001    ....    DCD    1
        0x0001c4f0:    00000004    ....    DCD    4
        0x0001c4f4:    00000008    ....    DCD    8
        0x0001c4f8:    400612a0    ...@    DCD    1074139808
        0x0001c4fc:    400612a8    ...@    DCD    1074139816
        0x0001c500:    400612c0    ...@    DCD    1074139840
        0x0001c504:    400612c4    ...@    DCD    1074139844
        0x0001c508:    400612b8    ...@    DCD    1074139832
        0x0001c50c:    00004000    .@..    DCD    16384
        0x0001c510:    400612ac    ...@    DCD    1074139820
        0x0001c514:    00000001    ....    DCD    1
        0x0001c518:    00000004    ....    DCD    4
        0x0001c51c:    00000008    ....    DCD    8
        0x0001c520:    400622a0    .".@    DCD    1074143904
        0x0001c524:    400622a8    .".@    DCD    1074143912
        0x0001c528:    400622c0    .".@    DCD    1074143936
        0x0001c52c:    400622c4    .".@    DCD    1074143940
        0x0001c530:    400622b8    .".@    DCD    1074143928
        0x0001c534:    00004000    .@..    DCD    16384
        0x0001c538:    400622ac    .".@    DCD    1074143916
        0x0001c53c:    00000001    ....    DCD    1
        0x0001c540:    00000004    ....    DCD    4
        0x0001c544:    00000008    ....    DCD    8
    g_DefaultMcuMemCfg
        0x0001c548:    07070102    ....    DCD    117899522
        0x0001c54c:    0001        ..      DCW    1
    g_DefaultSRAMCfg
        0x0001c54e:    0003        ..      DCW    3
        0x0001c550:    03000000    ....    DCD    50331648
    g_am_hal_bootrom_helper
        0x0001c554:    0800004d    M...    DCD    134217805
        0x0001c558:    08000051    Q...    DCD    134217809
        0x0001c55c:    08000055    U...    DCD    134217813
        0x0001c560:    08000059    Y...    DCD    134217817
        0x0001c564:    0800006d    m...    DCD    134217837
        0x0001c568:    08000075    u...    DCD    134217845
        0x0001c56c:    08000079    y...    DCD    134217849
        0x0001c570:    08000081    ....    DCD    134217857
        0x0001c574:    08000099    ....    DCD    134217881
        0x0001c578:    0800009d    ....    DCD    134217885
    __tagsym$$used.7
    sGlobalAccess
        0x0001c57c:    0001c5e4    ....    DCD    116196
        0x0001c580:    0001c5d0    ....    DCD    116176
        0x0001c584:    0001c5a8    ....    DCD    116136
        0x0001c588:    0001c5bc    ....    DCD    116156
        0x0001c58c:    10060004    ....    DCD    268828676
        0x0001c590:    10060018    ....    DCD    268828696
        0x0001c594:    1006002c    ,...    DCD    268828716
    g_ui32DSpintbl
        0x0001c598:    8fc007e0    ....    DCD    2411726816
        0x0001c59c:    e3fbffff    ....    DCD    3824943103
        0x0001c5a0:    01ffffff    ....    DCD    33554431
        0x0001c5a4:    00000000    ....    DCD    0
    __tagsym$$used.1
    ui32DSP0Allowed
        0x0001c5a8:    00000000    ....    DCD    0
        0x0001c5ac:    00000000    ....    DCD    0
        0x0001c5b0:    00000000    ....    DCD    0
        0x0001c5b4:    00000000    ....    DCD    0
        0x0001c5b8:    00000000    ....    DCD    0
    __tagsym$$used.2
    ui32DSP1Allowed
        0x0001c5bc:    00000000    ....    DCD    0
        0x0001c5c0:    00000000    ....    DCD    0
        0x0001c5c4:    00000000    ....    DCD    0
        0x0001c5c8:    00000000    ....    DCD    0
        0x0001c5cc:    00000000    ....    DCD    0
    __tagsym$$used.0
    ui32MCUAllowed
        0x0001c5d0:    00000000    ....    DCD    0
        0x0001c5d4:    00000000    ....    DCD    0
        0x0001c5d8:    00000000    ....    DCD    0
        0x0001c5dc:    00000000    ....    DCD    0
        0x0001c5e0:    00000000    ....    DCD    0
    __tagsym$$used.3
    ui32SharedAccess
        0x0001c5e4:    00000000    ....    DCD    0
        0x0001c5e8:    00000000    ....    DCD    0
        0x0001c5ec:    00000000    ....    DCD    0
        0x0001c5f0:    00000000    ....    DCD    0
        0x0001c5f4:    00000000    ....    DCD    0
    Region$$Table$$Base
        0x0001c5f8:    0001c628    (...    DCD    116264
        0x0001c5fc:    10000000    ....    DCD    268435456
        0x0001c600:    00000110    ....    DCD    272
        0x0001c604:    000182cc    ....    DCD    99020
        0x0001c608:    0001c738    8...    DCD    116536
        0x0001c60c:    10060000    ....    DCD    268828672
        0x0001c610:    00000040    @...    DCD    64
        0x0001c614:    000182cc    ....    DCD    99020
        0x0001c618:    0001c738    8...    DCD    116536
        0x0001c61c:    10000110    ....    DCD    268435728
        0x0001c620:    00008728    (...    DCD    34600
        0x0001c624:    000182e8    ....    DCD    99048
    Region$$Table$$Limit

** Section #2 'MCU_TCM' (SHT_PROGBITS) [SHF_ALLOC + SHF_WRITE]
    Size   : 272 bytes (alignment 8)
    Address: 0x10000000

    0x10000000:   ff ff ff ff ff ff ff ff 00 03 00 00 03 00 02 00    ................
    0x10000010:   06 00 00 01 01 01 01 01 01 00 14 00 06 00 00 01    ................
    0x10000020:   02 00 01 00 87 05 20 00 87 05 21 00 80 0c 00 00    ...... ...!.....
    0x10000030:   80 0c 00 00 80 0c 00 00 80 0c 00 00 80 0c 00 00    ................
    0x10000040:   80 0c 00 00 80 0c 00 00 80 0c 00 00 80 0c 00 00    ................
    0x10000050:   80 0c 00 00 87 05 22 00 87 05 23 00 80 0c 00 00    ......"...#.....
    0x10000060:   80 0c 00 00 80 0c 00 00 80 0c 00 00 80 0c 00 00    ................
    0x10000070:   80 0c 00 00 80 0c 00 00 80 0c 00 00 80 0c 00 00    ................
    0x10000080:   80 0c 00 00 87 05 24 00 87 05 25 00 80 0c 00 00    ......$...%.....
    0x10000090:   80 0c 00 00 80 0c 00 00 80 0c 00 00 80 0c 00 00    ................
    0x100000a0:   80 0c 00 00 80 0c 00 00 80 0c 00 00 80 0c 00 00    ................
    0x100000b0:   80 0c 00 00 87 05 20 00 87 05 21 00 80 0c 00 00    ...... ...!.....
    0x100000c0:   80 0c 00 00 80 0c 00 00 80 0c 00 00 80 0c 00 00    ................
    0x100000d0:   80 0c 00 00 80 0c 00 00 80 0c 00 00 80 0c 00 00    ................
    0x100000e0:   80 0c 00 00 80 0c 00 00 80 0c 00 00 80 0c 00 00    ................
    0x100000f0:   80 0c 00 00 80 0c 00 00 80 0c 00 00 80 0c 00 00    ................
    0x10000100:   80 0c 00 00 80 0c 00 00 01 00 00 00 00 00 00 00    ................


** Section #3 'MCU_TCM' (SHT_NOBITS) [SHF_ALLOC + SHF_WRITE]
    Size   : 34600 bytes (alignment 8)
    Address: 0x10000110


** Section #4 'SHARED_SRAM' (SHT_PROGBITS) [SHF_ALLOC + SHF_WRITE]
    Size   : 64 bytes (alignment 4)
    Address: 0x10060000

    0x10060000:   7c c5 01 00 00 00 00 00 00 00 00 00 00 00 00 00    |...............
    0x10060010:   00 00 00 00 00 00 00 00 00 00 00 00 00 00 00 00    ................
    0x10060020:   00 00 00 00 00 00 00 00 00 00 00 00 00 00 00 00    ................
    0x10060030:   00 00 00 00 00 00 00 00 00 00 00 00 00 00 00 00    ................


** Section #5 '.debug_abbrev' (SHT_PROGBITS)
    Size   : 1435 bytes


** Section #6 '.debug_frame' (SHT_PROGBITS)
    Size   : 5560 bytes


** Section #7 '.debug_info' (SHT_PROGBITS)
    Size   : 10347 bytes


** Section #8 '.debug_line' (SHT_PROGBITS)
    Size   : 3867 bytes


** Section #9 '.debug_ranges' (SHT_PROGBITS)
    Size   : 264 bytes


** Section #10 '.debug_str' (SHT_PROGBITS)
    Size   : 20414 bytes


** Section #11 '.symtab' (SHT_SYMTAB)
    Size   : 8784 bytes (alignment 4)
    String table #12 '.strtab'
    Last local symbol no. 246

    Symbol table .symtab (548 symbols, 246 local)

      #  Symbol Name                Value      Bind  Sec  Type  Vis  Size
    ========================================================================

      1  $d                         0x00018000   Lc    1   --   De 
      2  $t                         0x00018200   Lc    1   --   De 
      3  $d                         0x00018230   Lc    1   --   De 
      4  $t                         0x00018234   Lc    1   --   De 
      5  $d                         0x00018268   Lc    1   --   De 
      6  $t                         0x00018270   Lc    1   --   De 
      7  $d                         0x0001833a   Lc    1   --   De 
      8  $t                         0x00018348   Lc    1   --   De 
      9  $d                         0x000183b0   Lc    1   --   De 
     10  $t                         0x000183b4   Lc    1   --   De 
     11  $d                         0x000183bc   Lc    1   --   De 
     12  $t                         0x000183c0   Lc    1   --   De 
     13  $t.0                       0x000183c4   Lc    1   --   De 
     14  $d.4                       0x000183e4   Lc    1   --   De 
     15  $t.6                       0x000183e8   Lc    1   --   De 
     16  $d.28                      0x000185ea   Lc    1   --   De 
     17  $t.29                      0x00018614   Lc    1   --   De 
     18  $d.30                      0x00018688   Lc    1   --   De 
     19  $t.31                      0x000186b0   Lc    1   --   De 
     20  $d.32                      0x00018722   Lc    1   --   De 
     21  $t.33                      0x0001874c   Lc    1   --   De 
     22  $d.9                       0x000196e0   Lc    1   --   De 
     23  $t.10                      0x000196e4   Lc    1   --   De 
     24  $d.5                       0x000199f6   Lc    1   --   De 
     25  $t.6                       0x000199fc   Lc    1   --   De 
     26  $d.19                      0x0001a742   Lc    1   --   De 
     27  $t.20                      0x0001a748   Lc    1   --   De 
     28  $d.3                       0x0001aac4   Lc    1   --   De 
     29  $t.4                       0x0001aacc   Lc    1   --   De 
     30  $d.7                       0x0001af26   Lc    1   --   De 
     31  $t.8                       0x0001af2c   Lc    1   --   De 
     32  $d.1                       0x0001b690   Lc    1   --   De 
     33  $t.2                       0x0001b6a0   Lc    1   --   De 
     34  $d.6                       0x0001b88e   Lc    1   --   De 
     35  $t.7                       0x0001b8c4   Lc    1   --   De 
     36  $t                         0x0001c1c2   Lc    1   --   De 
     37  $d.realdata                0x0001c1dc   Lc    1   --   De 
     38  $d.realdata                0x10000000   Lc    2   --   De 
     39  $d.realdata                0x10060000   Lc    4   --   De 
     40  am_resources.c             0x00000000   Lc  Abs  File  De 
     41  __tagsym$$used.0           0x0001c5d0   Lc    1   --   De 
     42  __tagsym$$used.1           0x0001c5a8   Lc    1   --   De 
     43  __tagsym$$used.2           0x0001c5bc   Lc    1   --   De 
     44  __tagsym$$used.3           0x0001c5e4   Lc    1   --   De 
     45  __tagsym$$used.4           0x10060004   Lc    4   --   De 
     46  __tagsym$$used.5           0x10060018   Lc    4   --   De 
     47  __tagsym$$used.6           0x1006002c   Lc    4   --   De 
     48  __tagsym$$used.7           0x0001c57c   Lc    1   --   De 
     49  __tagsym$$used.8           0x10060000   Lc    4   --   De 
     50  pwr_control_utils.c        0x00000000   Lc  Abs  File  De 
     51  SRAMMemCfg                 0x0001c1dc   Lc    1  Data  De   0x6
     52  pwr_gpio_utils.c           0x00000000   Lc  Abs  File  De 
     53  pwr_mspi.c                 0x00000000   Lc  Abs  File  De 
     54  mspi_init                  0x0001bdcd   Lc    1  Code  De   0x108
     55  debug_pin_init             0x0001b65d   Lc    1  Code  De   0x2
     56  timerCallback              0x0001c125   Lc    1  Code  De   0x12
     57  __NVIC_SetPriority         0x000184e9   Lc    1  Code  De   0x42
     58  __NVIC_ClearPendingIRQ     0x000183e9   Lc    1  Code  De   0x30
     59  __NVIC_EnableIRQ           0x00018489   Lc    1  Code  De   0x30
     60  init_pattern               0x0001b661   Lc    1  Code  De   0x18
     61  pwr_data_transfer_sequence 0x0001bed5   Lc    1  Code  De   0x124
     62  __NVIC_DisableIRQ          0x00018419   Lc    1  Code  De   0x38
     63  pwr_terminate_transfer     0x0001bff9   Lc    1  Code  De   0x2e
     64  mspi_dma_read              0x0001bc15   Lc    1  Code  De   0xd2
     65  mspi_dma_write             0x0001bce9   Lc    1  Code  De   0xe0
     66  mspiCompleteCallback       0x0001b831   Lc    1  Code  De   0x1a
     67  g_tGlb                     0x10001fc4   Lc    3  Data  De   0x5860
     68  tMspiConfig                0x10007828   Lc    3  Data  De   0xc
     69  pwr_timer_utils.c          0x00000000   Lc  Abs  File  De 
     70  __NVIC_SetPriority         0x0001852d   Lc    1  Code  De   0x42
     71  __NVIC_EnableIRQ           0x000184b9   Lc    1  Code  De   0x30
     72  __NVIC_DisableIRQ          0x00018451   Lc    1  Code  De   0x38
     73  pfnTimerCallbackFcn        0x10007824   Lc    3  Data  De   0x4
     74  am_util_delay.c            0x00000000   Lc  Abs  File  De 
     75  am_util_faultisr.c         0x00000000   Lc  Abs  File  De 
     76  am_util_stdio.c            0x00000000   Lc  Abs  File  De 
     77  ../keil6/startup_keil6.s   0x00000000   Lc  Abs  File  De 
     78  STACK                      0x10007838   Lc    3  Sect  De   0x1000
     79  StackMem                   0x10007838   Lc    3  Data  De 
     80  HEAP                       0x10007838   Lc    3  Sect  De 
     81  HeapMem                    0x10007838   Lc    3  Data  De 
     82  RESET                      0x00018000   Lc    1  Sect  De   0x234
     83  $v0                        0x00018200   Lc    1   --   De 
     84  am_cryptosec_isr           0x0001822f   Lc    1  Code  De 
     85  am_default_isr             0x0001822f   Lc    1  Code  De   0x2
     86  .text                      0x00018330   Lc    1  Sect  De   0x18
     87  $v0                        0x00018330   Lc    1   --   De 
     88  am_bsp.c                   0x00000000   Lc  Abs  File  De 
     89  am_hal_cachectrl.c         0x00000000   Lc  Abs  File  De 
     90  am_hal_fault.c             0x00000000   Lc  Abs  File  De 
     91  am_hal_interrupt.c         0x00000000   Lc  Abs  File  De 
     92  am_hal_mspi.c              0x00000000   Lc  Abs  File  De 
     93  mspi_device_configure      0x0001b881   Lc    1  Code  De   0x392
     94  mspi_cq_disable            0x0001b84d   Lc    1  Code  De   0x1c
     95  mspi_cq_enable             0x0001b869   Lc    1  Code  De   0x18
     96  mspi_dummy_callback        0x0001bdc9   Lc    1  Code  De   0x2
     97  g_MSPIState                0x10000578   Lc    3  Data  De   0x1a4c
     98  am_hal_sysctrl.c           0x00000000   Lc  Abs  File  De 
     99  am_hal_utils.c             0x00000000   Lc  Abs  File  De 
    100  am_hal_gpio.c              0x00000000   Lc  Abs  File  De 
    101  g_ui32RMpintbl             0x0001c380   Lc    1  Data  De   0x10
    102  g_ui32DSpintbl             0x0001c598   Lc    1  Data  De   0x10
    103  am_hal_pwrctrl.c           0x00000000   Lc  Abs  File  De 
    104  .L_MergedGlobals           0x10000000   Lc    2  Data  De   0x8
    105  .L_MergedGlobals.1         0x10000170   Lc    3  Data  De   0x24
    106  g_bBoostForCryptoApplied   0x10000170   Lc    3  Data  De   0x1
    107  g_bOrigTrimsStored         0x10000171   Lc    3  Data  De   0x1
    108  g_i32LatestVddfActTrim     0x10000174   Lc    3  Data  De   0x4
    109  g_i32LatestLDOActTrim      0x10000178   Lc    3  Data  De   0x4
    110  g_ui32VDDFAdjustCodes      0x1000017c   Lc    3  Data  De   0x4
    111  g_orig_ACTTRIMVDDF         0x10000180   Lc    3  Data  De   0x4
    112  g_orig_MEMLDOACTIVETRIM    0x10000184   Lc    3  Data  De   0x4
    113  g_orig_LPTRIMVDDF          0x10000188   Lc    3  Data  De   0x4
    114  g_orig_MEMLPLDOTRIM        0x1000018c   Lc    3  Data  De   0x4
    115  g_orig_TVRGVREFTRIM        0x10000190   Lc    3  Data  De   0x4
    116  am_hal_timer.c             0x00000000   Lc  Abs  File  De 
    117  am_bsp_pins.c              0x00000000   Lc  Abs  File  De 
    118  am_hal_bootrom_helper.c    0x00000000   Lc  Abs  File  De 
    119  am_hal_cmdq.c              0x00000000   Lc  Abs  File  De 
    120  gAmHalCmdq                 0x10000194   Lc    3  Data  De   0x1e4
    121  gAmHalCmdQReg              0x0001c390   Lc    1  Data  De   0x1b8
    122  am_hal_itm.c               0x00000000   Lc  Abs  File  De 
    123  am_hal_mram.c              0x00000000   Lc  Abs  File  De 
    124  am_hal_rtc.c               0x00000000   Lc  Abs  File  De 
    125  am_hal_tpiu.c              0x00000000   Lc  Abs  File  De 
    126  am_hal_uart.c              0x00000000   Lc  Abs  File  De 
    127  am_hal_dcu.c               0x00000000   Lc  Abs  File  De 
    128  am_hal_global.c            0x00000000   Lc  Abs  File  De 
    129  am_hal_pin.c               0x00000000   Lc  Abs  File  De 
    130  am_hal_queue.c             0x00000000   Lc  Abs  File  De 
    131  dc.s                       0x00000000   Lc  Abs  File  De 
    132  ../clib/memcpset.s         0x00000000   Lc  Abs  File  De 
    133  ../clib/heapaux.c          0x00000000   Lc  Abs  File  De 
    134  .text                      0x00018348   Lc    1  Sect  De 
    135  ../clib/angel/startup.s    0x00000000   Lc  Abs  File  De 
    136  !!!main                    0x00018234   Lc    1  Sect  De   0x8
    137  ../clib/angel/handlers.s   0x00000000   Lc  Abs  File  De 
    138  !!handler_copy             0x000182cc   Lc    1  Sect  De   0x1a
    139  ../fplib/d2f.s             0x00000000   Lc  Abs  File  De 
    140  ../clib/angel/kernel.s     0x00000000   Lc  Abs  File  De 
    141  .ARM.Collect$$rtentry$$00000000
                                    0x00018310   Lc    1  Sect  De 
    142  ../clib/memcpset.s         0x00000000   Lc  Abs  File  De 
    143  ../fplib/dnaninf.s         0x00000000   Lc  Abs  File  De 
    144  ../fplib/fretinf.s         0x00000000   Lc  Abs  File  De 
    145  ../fplib/usenofp.s         0x00000000   Lc  Abs  File  De 
    146  ../clib/angel/kernel.s     0x00000000   Lc  Abs  File  De 
    147  .ARM.Collect$$rtentry$$00000002
                                    0x00018310   Lc    1  Sect  De 
    148  .ARM.Collect$$rtentry$$00000009
                                    0x00018316   Lc    1  Sect  De 
    149  .ARM.Collect$$rtentry$$0000000A
                                    0x00018316   Lc    1  Sect  De   0x4
    150  .ARM.Collect$$rtentry$$0000000C
                                    0x0001831a   Lc    1  Sect  De 
    151  .ARM.Collect$$rtentry$$0000000D
                                    0x0001831a   Lc    1  Sect  De   0x8
    152  ../clib/angel/kernel.s     0x00000000   Lc  Abs  File  De 
    153  .ARM.Collect$$rtentry$$00000004
                                    0x00018310   Lc    1  Sect  De   0x6
    154  ../clib/angel/sys.s        0x00000000   Lc  Abs  File  De 
    155  .text                      0x0001834e   Lc    1  Sect  De   0x4a
    156  ../clib/stdlib.c           0x00000000   Lc  Abs  File  De 
    157  .text                      0x00018398   Lc    1  Sect  De 
    158  ../clib/angel/boardlib.s   0x00000000   Lc  Abs  File  De 
    159  ../clib/angel/boardlib.s   0x00000000   Lc  Abs  File  De 
    160  ../clib/angel/boardlib.s   0x00000000   Lc  Abs  File  De 
    161  ../clib/libinit.s          0x00000000   Lc  Abs  File  De 
    162  .ARM.Collect$$libinit$$00000000
                                    0x00018304   Lc    1  Sect  De   0x2
    163  ../clib/angel/sys.s        0x00000000   Lc  Abs  File  De 
    164  .text                      0x000183ac   Lc    1  Sect  De   0x8
    165  .bss                       0x10000110   Lc    3  Sect  De   0x60
    166  ../clib/angel/kernel.s     0x00000000   Lc  Abs  File  De 
    167  .ARM.Collect$$rtexit$$00000000
                                    0x00018322   Lc    1  Sect  De   0x2
    168  ../clib/libinit.s          0x00000000   Lc  Abs  File  De 
    169  .ARM.Collect$$libinit$$00000001
                                    0x00018306   Lc    1  Sect  De   0x4
    170  .ARM.Collect$$libinit$$00000004
                                    0x0001830a   Lc    1  Sect  De 
    171  .ARM.Collect$$libinit$$00000006
                                    0x0001830a   Lc    1  Sect  De 
    172  .ARM.Collect$$libinit$$0000000C
                                    0x0001830a   Lc    1  Sect  De 
    173  .ARM.Collect$$libinit$$0000000E
                                    0x0001830a   Lc    1  Sect  De 
    174  .ARM.Collect$$libinit$$00000010
                                    0x0001830a   Lc    1  Sect  De 
    175  .ARM.Collect$$libinit$$00000013
                                    0x0001830a   Lc    1  Sect  De 
    176  .ARM.Collect$$libinit$$00000015
                                    0x0001830a   Lc    1  Sect  De 
    177  .ARM.Collect$$libinit$$00000017
                                    0x0001830a   Lc    1  Sect  De 
    178  .ARM.Collect$$libinit$$00000019
                                    0x0001830a   Lc    1  Sect  De 
    179  .ARM.Collect$$libinit$$0000001B
                                    0x0001830a   Lc    1  Sect  De 
    180  .ARM.Collect$$libinit$$0000001D
                                    0x0001830a   Lc    1  Sect  De 
    181  .ARM.Collect$$libinit$$0000001F
                                    0x0001830a   Lc    1  Sect  De 
    182  .ARM.Collect$$libinit$$00000021
                                    0x0001830a   Lc    1  Sect  De 
    183  .ARM.Collect$$libinit$$00000023
                                    0x0001830a   Lc    1  Sect  De 
    184  .ARM.Collect$$libinit$$00000025
                                    0x0001830a   Lc    1  Sect  De 
    185  .ARM.Collect$$libinit$$00000027
                                    0x0001830a   Lc    1  Sect  De 
    186  .ARM.Collect$$libinit$$0000002E
                                    0x0001830a   Lc    1  Sect  De 
    187  .ARM.Collect$$libinit$$00000030
                                    0x0001830a   Lc    1  Sect  De 
    188  .ARM.Collect$$libinit$$00000032
                                    0x0001830a   Lc    1  Sect  De 
    189  .ARM.Collect$$libinit$$00000034
                                    0x0001830a   Lc    1  Sect  De 
    190  .ARM.Collect$$libinit$$00000035
                                    0x0001830a   Lc    1  Sect  De   0x2
    191  ../clib/angel/kernel.s     0x00000000   Lc  Abs  File  De 
    192  .ARM.Collect$$rtexit$$00000002
                                    0x00018324   Lc    1  Sect  De 
    193  .ARM.Collect$$rtexit$$00000003
                                    0x00018324   Lc    1  Sect  De   0x4
    194  .ARM.Collect$$rtexit$$00000004
                                    0x00018328   Lc    1  Sect  De   0x6
    195  ../clib/armsys.c           0x00000000   Lc  Abs  File  De 
    196  ../clib/armsys.c           0x00000000   Lc  Abs  File  De 
    197  ../fplib/fpinit.s          0x00000000   Lc  Abs  File  De 
    198  x$fpl$fpinit               0x0001c1c2   Lc    1  Sect  De   0x1a
    199  $v0                        0x0001c1c2   Lc    1   --   De 
    200  ../clib/angel/sysapp.c     0x00000000   Lc  Abs  File  De 
    201  .text                      0x000183b4   Lc    1  Sect  De 
    202  ../clib/angel/sysapp.c     0x00000000   Lc  Abs  File  De 
    203  ../clib/angel/boardlib.s   0x00000000   Lc  Abs  File  De 
    204  ../clib/armsys.c           0x00000000   Lc  Abs  File  De 
    205  ../clib/armsys.c           0x00000000   Lc  Abs  File  De 
    206  ../clib/libinit.s          0x00000000   Lc  Abs  File  De 
    207  .ARM.Collect$$libshutdown$$00000000
                                    0x0001830c   Lc    1  Sect  De   0x2
    208  ../clib/angel/sysapp.c     0x00000000   Lc  Abs  File  De 
    209  ../clib/angel/sysapp.c     0x00000000   Lc  Abs  File  De 
    210  ../clib/angel/sys.s        0x00000000   Lc  Abs  File  De 
    211  .text                      0x000183c0   Lc    1  Sect  De   0x2
    212  ../clib/angel/sys.s        0x00000000   Lc  Abs  File  De 
    213  .text                      0x000183c2   Lc    1  Sect  De 
    214  ../clib/heapalloc.c        0x00000000   Lc  Abs  File  De 
    215  ../clib/signal.c           0x00000000   Lc  Abs  File  De 
    216  ../clib/signal.c           0x00000000   Lc  Abs  File  De 
    217  ../clib/libinit.s          0x00000000   Lc  Abs  File  De 
    218  .ARM.Collect$$libshutdown$$00000002
                                    0x0001830e   Lc    1  Sect  De 
    219  .ARM.Collect$$libshutdown$$00000004
                                    0x0001830e   Lc    1  Sect  De 
    220  .ARM.Collect$$libshutdown$$00000007
                                    0x0001830e   Lc    1  Sect  De 
    221  .ARM.Collect$$libshutdown$$0000000A
                                    0x0001830e   Lc    1  Sect  De 
    222  .ARM.Collect$$libshutdown$$0000000C
                                    0x0001830e   Lc    1  Sect  De 
    223  .ARM.Collect$$libshutdown$$0000000F
                                    0x0001830e   Lc    1  Sect  De 
    224  .ARM.Collect$$libshutdown$$00000010
                                    0x0001830e   Lc    1  Sect  De   0x2
    225  ../clib/angel/rt.s         0x00000000   Lc  Abs  File  De 
    226  ../clib/signal.c           0x00000000   Lc  Abs  File  De 
    227  ../clib/signal.c           0x00000000   Lc  Abs  File  De 
    228  ../clib/signal.c           0x00000000   Lc  Abs  File  De 
    229  ../clib/signal.c           0x00000000   Lc  Abs  File  De 
    230  ../clib/angel/sysapp.c     0x00000000   Lc  Abs  File  De 
    231  ../clib/angel/sysapp.c     0x00000000   Lc  Abs  File  De 
    232  ../clib/signal.s           0x00000000   Lc  Abs  File  De 
    233  ../clib/signal.c           0x00000000   Lc  Abs  File  De 
    234  ../clib/signal.c           0x00000000   Lc  Abs  File  De 
    235  ../clib/signal.c           0x00000000   Lc  Abs  File  De 
    236  ../clib/signal.c           0x00000000   Lc  Abs  File  De 
    237  ../clib/signal.c           0x00000000   Lc  Abs  File  De 
    238  ../clib/signal.c           0x00000000   Lc  Abs  File  De 
    239  ../clib/signal.c           0x00000000   Lc  Abs  File  De 
    240  ../clib/signal.c           0x00000000   Lc  Abs  File  De 
    241  ../clib/angel/dczerorl2.s  0x00000000   Lc  Abs  File  De 
    242  !!dczerorl2                0x00018270   Lc    1  Sect  De   0x5a
    243  ../clib/angel/scatter.s    0x00000000   Lc  Abs  File  De 
    244  !!!scatter                 0x0001823c   Lc    1  Sect  De   0x34
    245  ../clib/angel/handlers.s   0x00000000   Lc  Abs  File  De 
    246  !!handler_zi               0x000182e8   Lc    1  Sect  De   0x1c
    247  BuildAttributes$$THM_ISAv4$E$P$D$K$B$S$7EM$VFPi3$EXTD16$VFPS$VFMA$PE$A:L22UL41UL21$X:L11$S22US41US21$IEEE1$IW$~IW$USESV6$~STKCKD$USESV7$~SHL$OTIME$ROPI$EBA8$UX$STANDARDLIB$REQ8$PRES8$EABIv2
                                    0x00000000   Gb  Abs   --   Hi 
    248  __Vectors                  0x00018000   Gb    1  Data  Hi 
    249  __Patchable                0x00018190   Gb    1  Data  Hi 
    250  Reset_Handler              0x00018201   Wk    1  Code  Hi   0x1c
    251  NMI_Handler                0x0001821f   Wk    1  Code  Hi   0x2
    252  MemManage_Handler          0x00018221   Wk    1  Code  Hi   0x2
    253  BusFault_Handler           0x00018223   Wk    1  Code  Hi   0x2
    254  UsageFault_Handler         0x00018225   Wk    1  Code  Hi   0x2
    255  SVC_Handler                0x00018227   Wk    1  Code  Hi   0x2
    256  DebugMon_Handler           0x00018229   Wk    1  Code  Hi   0x2
    257  PendSV_Handler             0x0001822b   Wk    1  Code  Hi   0x2
    258  SysTick_Handler            0x0001822d   Wk    1  Code  Hi   0x2
    259  am_adc_isr                 0x0001822f   Wk    1  Code  Hi 
    260  am_audadc0_isr             0x0001822f   Wk    1  Code  Hi 
    261  am_brownout_isr            0x0001822f   Wk    1  Code  Hi 
    262  am_cachecpu_isr            0x0001822f   Wk    1  Code  Hi 
    263  am_clkgen_isr              0x0001822f   Wk    1  Code  Hi 
    264  am_ctimer_isr              0x0001822f   Wk    1  Code  Hi 
    265  am_disp_isr                0x0001822f   Wk    1  Code  Hi 
    266  am_dsi_isr                 0x0001822f   Wk    1  Code  Hi 
    267  am_dspi2s0_isr             0x0001822f   Wk    1  Code  Hi 
    268  am_dspi2s1_isr             0x0001822f   Wk    1  Code  Hi 
    269  am_dspi2s2_isr             0x0001822f   Wk    1  Code  Hi 
    270  am_dspi2s3_isr             0x0001822f   Wk    1  Code  Hi 
    271  am_gpio0_001f_isr          0x0001822f   Wk    1  Code  Hi 
    272  am_gpio0_203f_isr          0x0001822f   Wk    1  Code  Hi 
    273  am_gpio0_405f_isr          0x0001822f   Wk    1  Code  Hi 
    274  am_gpio0_607f_isr          0x0001822f   Wk    1  Code  Hi 
    275  am_gpio1_001f_isr          0x0001822f   Wk    1  Code  Hi 
    276  am_gpio1_203f_isr          0x0001822f   Wk    1  Code  Hi 
    277  am_gpio1_405f_isr          0x0001822f   Wk    1  Code  Hi 
    278  am_gpio1_607f_isr          0x0001822f   Wk    1  Code  Hi 
    279  am_gpu_isr                 0x0001822f   Wk    1  Code  Hi 
    280  am_iomaster0_isr           0x0001822f   Wk    1  Code  Hi 
    281  am_iomaster1_isr           0x0001822f   Wk    1  Code  Hi 
    282  am_iomaster2_isr           0x0001822f   Wk    1  Code  Hi 
    283  am_iomaster3_isr           0x0001822f   Wk    1  Code  Hi 
    284  am_iomaster4_isr           0x0001822f   Wk    1  Code  Hi 
    285  am_iomaster5_isr           0x0001822f   Wk    1  Code  Hi 
    286  am_iomaster6_isr           0x0001822f   Wk    1  Code  Hi 
    287  am_iomaster7_isr           0x0001822f   Wk    1  Code  Hi 
    288  am_ioslave_acc_isr         0x0001822f   Wk    1  Code  Hi 
    289  am_ioslave_ios_isr         0x0001822f   Wk    1  Code  Hi 
    290  am_mspi1_isr               0x0001822f   Wk    1  Code  Hi 
    291  am_mspi2_isr               0x0001822f   Wk    1  Code  Hi 
    292  am_pdm0_isr                0x0001822f   Wk    1  Code  Hi 
    293  am_pdm1_isr                0x0001822f   Wk    1  Code  Hi 
    294  am_pdm2_isr                0x0001822f   Wk    1  Code  Hi 
    295  am_pdm3_isr                0x0001822f   Wk    1  Code  Hi 
    296  am_rtc_isr                 0x0001822f   Wk    1  Code  Hi 
    297  am_sdio_isr                0x0001822f   Wk    1  Code  Hi 
    298  am_stimer_cmpr0_isr        0x0001822f   Wk    1  Code  Hi 
    299  am_stimer_cmpr1_isr        0x0001822f   Wk    1  Code  Hi 
    300  am_stimer_cmpr2_isr        0x0001822f   Wk    1  Code  Hi 
    301  am_stimer_cmpr3_isr        0x0001822f   Wk    1  Code  Hi 
    302  am_stimer_cmpr4_isr        0x0001822f   Wk    1  Code  Hi 
    303  am_stimer_cmpr5_isr        0x0001822f   Wk    1  Code  Hi 
    304  am_stimer_cmpr6_isr        0x0001822f   Wk    1  Code  Hi 
    305  am_stimer_cmpr7_isr        0x0001822f   Wk    1  Code  Hi 
    306  am_stimerof_isr            0x0001822f   Wk    1  Code  Hi 
    307  am_timer01_isr             0x0001822f   Wk    1  Code  Hi 
    308  am_timer02_isr             0x0001822f   Wk    1  Code  Hi 
    309  am_timer03_isr             0x0001822f   Wk    1  Code  Hi 
    310  am_timer04_isr             0x0001822f   Wk    1  Code  Hi 
    311  am_timer05_isr             0x0001822f   Wk    1  Code  Hi 
    312  am_timer06_isr             0x0001822f   Wk    1  Code  Hi 
    313  am_timer07_isr             0x0001822f   Wk    1  Code  Hi 
    314  am_timer08_isr             0x0001822f   Wk    1  Code  Hi 
    315  am_timer09_isr             0x0001822f   Wk    1  Code  Hi 
    316  am_timer10_isr             0x0001822f   Wk    1  Code  Hi 
    317  am_timer11_isr             0x0001822f   Wk    1  Code  Hi 
    318  am_timer12_isr             0x0001822f   Wk    1  Code  Hi 
    319  am_timer13_isr             0x0001822f   Wk    1  Code  Hi 
    320  am_timer14_isr             0x0001822f   Wk    1  Code  Hi 
    321  am_timer15_isr             0x0001822f   Wk    1  Code  Hi 
    322  am_uart1_isr               0x0001822f   Wk    1  Code  Hi 
    323  am_uart2_isr               0x0001822f   Wk    1  Code  Hi 
    324  am_uart3_isr               0x0001822f   Wk    1  Code  Hi 
    325  am_uart_isr                0x0001822f   Wk    1  Code  Hi 
    326  am_usb_isr                 0x0001822f   Wk    1  Code  Hi 
    327  am_vcomp_isr               0x0001822f   Wk    1  Code  Hi 
    328  am_watchdog_isr            0x0001822f   Wk    1  Code  Hi 
    329  __main                     0x00018235   Gb    1  Code  Hi   0x8
    330  __scatterload              0x0001823d   Gb    1  Code  Hi 
    331  __scatterload_rt2          0x0001823d   Gb    1  Code  Hi   0x2c
    332  __scatterload_rt2_thumb_only
                                    0x0001823d   Gb    1  Code  Hi 
    333  __scatterload_null         0x0001824b   Gb    1  Code  Hi 
    334  __decompress               0x00018271   Gb    1  Code  Hi   0x5a
    335  __decompress1              0x00018271   Gb    1  Code  Hi 
    336  __scatterload_copy         0x000182cd   Gb    1  Code  Hi   0x1a
    337  __scatterload_zeroinit     0x000182e9   Gb    1  Code  Hi   0x1c
    338  __rt_lib_init              0x00018305   Gb    1  Code  De 
    339  __rt_lib_init_fp_1         0x00018307   Gb    1  Code  Hi 
    340  __rt_lib_init_alloca_1     0x0001830b   Gb    1  Code  Hi 
    341  __rt_lib_init_argv_1       0x0001830b   Gb    1  Code  Hi 
    342  __rt_lib_init_atexit_1     0x0001830b   Gb    1  Code  Hi 
    343  __rt_lib_init_clock_1      0x0001830b   Gb    1  Code  Hi 
    344  __rt_lib_init_cpp_1        0x0001830b   Gb    1  Code  Hi 
    345  __rt_lib_init_exceptions_1 0x0001830b   Gb    1  Code  Hi 
    346  __rt_lib_init_fp_trap_1    0x0001830b   Gb    1  Code  Hi 
    347  __rt_lib_init_getenv_1     0x0001830b   Gb    1  Code  Hi 
    348  __rt_lib_init_heap_1       0x0001830b   Gb    1  Code  Hi 
    349  __rt_lib_init_lc_collate_1 0x0001830b   Gb    1  Code  Hi 
    350  __rt_lib_init_lc_ctype_1   0x0001830b   Gb    1  Code  Hi 
    351  __rt_lib_init_lc_monetary_1
                                    0x0001830b   Gb    1  Code  Hi 
    352  __rt_lib_init_lc_numeric_1 0x0001830b   Gb    1  Code  Hi 
    353  __rt_lib_init_lc_time_1    0x0001830b   Gb    1  Code  Hi 
    354  __rt_lib_init_preinit_1    0x0001830b   Gb    1  Code  Hi 
    355  __rt_lib_init_rand_1       0x0001830b   Gb    1  Code  Hi 
    356  __rt_lib_init_relocate_pie_1
                                    0x0001830b   Gb    1  Code  Hi 
    357  __rt_lib_init_return       0x0001830b   Gb    1  Code  Hi 
    358  __rt_lib_init_signal_1     0x0001830b   Gb    1  Code  Hi 
    359  __rt_lib_init_stdio_1      0x0001830b   Gb    1  Code  Hi 
    360  __rt_lib_init_user_alloc_1 0x0001830b   Gb    1  Code  Hi 
    361  __rt_lib_shutdown          0x0001830d   Gb    1  Code  De 
    362  __rt_lib_shutdown_cpp_1    0x0001830f   Gb    1  Code  Hi 
    363  __rt_lib_shutdown_fp_trap_1
                                    0x0001830f   Gb    1  Code  Hi 
    364  __rt_lib_shutdown_heap_1   0x0001830f   Gb    1  Code  Hi 
    365  __rt_lib_shutdown_return   0x0001830f   Gb    1  Code  Hi 
    366  __rt_lib_shutdown_signal_1 0x0001830f   Gb    1  Code  Hi 
    367  __rt_lib_shutdown_stdio_1  0x0001830f   Gb    1  Code  Hi 
    368  __rt_lib_shutdown_user_alloc_1
                                    0x0001830f   Gb    1  Code  Hi 
    369  __rt_entry                 0x00018311   Gb    1  Code  Hi 
    370  __rt_entry_presh_1         0x00018311   Gb    1  Code  Hi 
    371  __rt_entry_sh              0x00018311   Gb    1  Code  Hi 
    372  __rt_entry_li              0x00018317   Gb    1  Code  Hi 
    373  __rt_entry_postsh_1        0x00018317   Gb    1  Code  Hi 
    374  __rt_entry_main            0x0001831b   Gb    1  Code  Hi 
    375  __rt_entry_postli_1        0x0001831b   Gb    1  Code  Hi 
    376  __rt_exit                  0x00018323   Gb    1  Code  De 
    377  __rt_exit_ls               0x00018325   Gb    1  Code  Hi 
    378  __rt_exit_prels_1          0x00018325   Gb    1  Code  Hi 
    379  __rt_exit_exit             0x00018329   Gb    1  Code  Hi 
    380  __user_initial_stackheap   0x00018331   Gb    1  Code  Hi   0xa
    381  __use_two_region_memory    0x00018349   Gb    1  Code  Hi   0x2
    382  __rt_heap_escrow$2region   0x0001834b   Gb    1  Code  De   0x2
    383  __rt_heap_expand$2region   0x0001834d   Gb    1  Code  De   0x2
    384  __user_setup_stackheap     0x0001834f   Gb    1  Code  De   0x4a
    385  exit                       0x00018399   Gb    1  Code  De   0x12
    386  __user_libspace            0x000183ad   Wk    1  Code  De   0x8
    387  __user_perproc_libspace    0x000183ad   Wk    1  Code  De 
    388  __user_perthread_libspace  0x000183ad   Wk    1  Code  De 
    389  _sys_exit                  0x000183b5   Gb    1  Code  De   0x8
    390  __I$use$semihosting        0x000183c1   Gb    1  Code  Hi 
    391  __use_no_semihosting_swi   0x000183c1   Gb    1  Code  Hi   0x2
    392  __semihosting_library_function
                                    0x000183c3   Gb    1  Code  Hi 
    393  HardFault_Handler          0x000183c5   Gb    1  Code  Hi   0x1e
    394  am_bsp_low_power_init      0x00018571   Gb    1  Code  Hi   0x2e
    395  am_bsp_mspi_pins_enable    0x000185a1   Gb    1  Code  Hi   0xc20
    396  am_getStackedReg           0x000191c1   Gb    1  Code  Hi   0x12
    397  am_gpu_power_disable       0x000191d5   Wk    1  Code  Hi   0x2
    398  am_gpu_power_enable        0x000191d9   Wk    1  Code  Hi   0x2
    399  am_hal_cachectrl_config    0x000191dd   Gb    1  Code  Hi   0x44
    400  am_hal_cachectrl_enable    0x00019221   Gb    1  Code  Hi   0x1e
    401  am_hal_cmdq_alloc_block    0x00019241   Gb    1  Code  Hi   0xce
    402  am_hal_cmdq_disable        0x00019311   Gb    1  Code  Hi   0x38
    403  am_hal_cmdq_enable         0x00019349   Gb    1  Code  Hi   0x50
    404  am_hal_cmdq_error_resume   0x00019399   Gb    1  Code  Hi   0x9c
    405  am_hal_cmdq_get_status     0x00019435   Gb    1  Code  Hi   0x9a
    406  am_hal_cmdq_init           0x000194d1   Gb    1  Code  Hi   0xbe
    407  am_hal_cmdq_post_block     0x00019591   Gb    1  Code  Hi   0x68
    408  am_hal_cmdq_release_block  0x000195f9   Gb    1  Code  Hi   0x30
    409  am_hal_daxi_config         0x00019629   Gb    1  Code  Hi   0xac
    410  am_hal_daxi_control        0x000196d5   Gb    1  Code  Hi   0x116
    411  am_hal_delay_us            0x000197ed   Gb    1  Code  Hi   0x36
    412  am_hal_delay_us_status_change
                                    0x00019825   Gb    1  Code  Hi   0x58
    413  am_hal_delay_us_status_check
                                    0x0001987d   Gb    1  Code  Hi   0x98
    414  am_hal_fault_status_get    0x00019915   Gb    1  Code  Hi   0x3a
    415  am_hal_gpio_pinconfig      0x00019951   Gb    1  Code  Hi   0x98
    416  am_hal_gpio_state_write    0x000199e9   Gb    1  Code  Hi   0x10a
    417  am_hal_interrupt_master_disable
                                    0x00019af5   Gb    1  Code  Hi   0x8
    418  am_hal_interrupt_master_enable
                                    0x00019afd   Gb    1  Code  Hi   0x8
    419  am_hal_interrupt_master_set
                                    0x00019b05   Gb    1  Code  Hi   0x6
    420  am_hal_mram_info_read      0x00019b0d   Gb    1  Code  Hi   0xb0
    421  am_hal_mspi_configure      0x00019bbd   Gb    1  Code  Hi   0xd0
    422  am_hal_mspi_device_configure
                                    0x00019c8d   Gb    1  Code  Hi   0x1b6
    423  am_hal_mspi_enable         0x00019e45   Gb    1  Code  Hi   0xae
    424  am_hal_mspi_initialize     0x00019ef5   Gb    1  Code  Hi   0x50
    425  am_hal_mspi_interrupt_clear
                                    0x00019f45   Gb    1  Code  Hi   0x2c
    426  am_hal_mspi_interrupt_enable
                                    0x00019f71   Gb    1  Code  Hi   0x30
    427  am_hal_mspi_interrupt_service
                                    0x00019fa1   Gb    1  Code  Hi   0x2f8
    428  am_hal_mspi_interrupt_status_get
                                    0x0001a299   Gb    1  Code  Hi   0x38
    429  am_hal_mspi_nonblocking_transfer
                                    0x0001a2d1   Gb    1  Code  Hi   0x18e
    430  am_hal_mspi_power_control  0x0001a461   Gb    1  Code  Hi   0x2d8
    431  am_hal_pwrctrl_control     0x0001a739   Gb    1  Code  Hi   0x1aa
    432  am_hal_pwrctrl_low_power_init
                                    0x0001a8e5   Gb    1  Code  Hi   0x112
    433  am_hal_pwrctrl_mcu_memory_config
                                    0x0001a9f9   Gb    1  Code  Hi   0x10e
    434  am_hal_pwrctrl_mcu_mode_select
                                    0x0001ab09   Gb    1  Code  Hi   0x9e
    435  am_hal_pwrctrl_mcu_mode_status
                                    0x0001aba9   Gb    1  Code  Hi   0x18
    436  am_hal_pwrctrl_periph_disable
                                    0x0001abc1   Gb    1  Code  Hi   0x134
    437  am_hal_pwrctrl_periph_enable
                                    0x0001acf5   Gb    1  Code  Hi   0x1a8
    438  am_hal_pwrctrl_sram_config 0x0001ae9d   Gb    1  Code  Hi   0xc6
    439  am_hal_rtc_osc_disable     0x0001af65   Gb    1  Code  Hi   0x14
    440  am_hal_sysctrl_sleep       0x0001af79   Gb    1  Code  Hi   0x152
    441  am_hal_timer_clear         0x0001b0cd   Gb    1  Code  Hi   0x42
    442  am_hal_timer_config        0x0001b111   Gb    1  Code  Hi   0x4
    443  am_hal_timer_default_config_set
                                    0x0001b115   Gb    1  Code  Hi   0x20
    444  am_hal_timer_disable       0x0001b135   Gb    1  Code  Hi   0x2a
    445  am_hal_timer_enable        0x0001b161   Gb    1  Code  Hi   0x52
    446  am_hal_timer_interrupt_clear
                                    0x0001b1b5   Gb    1  Code  Hi   0x10
    447  am_hal_timer_interrupt_disable
                                    0x0001b1c5   Gb    1  Code  Hi   0x12
    448  am_hal_timer_interrupt_enable
                                    0x0001b1d9   Gb    1  Code  Hi   0x12
    449  am_mspi0_isr               0x0001b1ed   Gb    1  Code  Hi   0x44
    450  am_timer00_isr             0x0001b231   Gb    1  Code  Hi   0x2c
    451  am_util_faultisr_collect_data
                                    0x0001b25d   Gb    1  Code  Hi   0xd6
    452  am_valid_sp                0x0001b335   Gb    1  Code  Hi   0x36
    453  buck_ldo_override_init     0x0001b36d   Gb    1  Code  Hi   0xac
    454  buck_ldo_update_override   0x0001b419   Gb    1  Code  Hi   0x2a
    455  build_dma_cmdlist          0x0001b445   Gb    1  Code  Hi   0x14e
    456  crypto_boost_trims         0x0001b595   Gb    1  Code  Hi   0xc8
    457  internal_timer_config      0x0001b679   Gb    1  Code  Hi   0xa8
    458  main                       0x0001b721   Gb    1  Code  Hi   0x110
    459  pwrctrl_fill_buff_alternating_bits
                                    0x0001c029   Gb    1  Code  Hi   0x4e
    460  pwrctrl_set_low_power      0x0001c079   Gb    1  Code  Hi   0xaa
    461  timer_disable              0x0001c139   Gb    1  Code  Hi   0x10
    462  timer_init                 0x0001c149   Gb    1  Code  Hi   0x7a
    463  _fp_init                   0x0001c1c3   Gb    1  Code  De   0x1a
    464  __fplib_config_fpu_vfp     0x0001c1db   Gb    1  Code  De 
    465  __fplib_config_pureend_doubles
                                    0x0001c1db   Gb    1  Code  De 
    466  am_hal_cachectrl_defaults  0x0001c1e2   Gb    1  Data  Hi   0x3
    467  am_hal_daxi_defaults       0x0001c1e5   Gb    1  Data  Hi   0x5
    468  am_hal_gpio_pincfg_output  0x0001c1ec   Gb    1  Data  Hi   0x4
    469  am_hal_pwrctrl_peripheral_control
                                    0x0001c1f0   Gb    1  Data  Hi   0x190
    470  g_DefaultMcuMemCfg         0x0001c548   Gb    1  Data  Hi   0x6
    471  g_DefaultSRAMCfg           0x0001c54e   Gb    1  Data  Hi   0x6
    472  g_am_hal_bootrom_helper    0x0001c554   Gb    1  Data  Hi   0x28
    473  sGlobalAccess              0x0001c57c   Gb    1  Data  Hi   0x1c
    474  ui32DSP0Allowed            0x0001c5a8   Gb    1  Data  Hi   0x14
    475  ui32DSP1Allowed            0x0001c5bc   Gb    1  Data  Hi   0x14
    476  ui32MCUAllowed             0x0001c5d0   Gb    1  Data  Hi   0x14
    477  ui32SharedAccess           0x0001c5e4   Gb    1  Data  Hi   0x14
    478  Region$$Table$$Base        0x0001c5f8   Gb    1   --   Hi 
    479  Region$$Table$$Limit       0x0001c628   Gb    1   --   Hi 
    480  g_ui32TrimVer              0x10000000   Gb    2  Data  Hi   0x4
    481  g_ui32origSimobuckVDDStrim 0x10000004   Gb    2  Data  Hi   0x4
    482  MSPI_DEVICE_Config         0x10000008   Gb    2  Data  Hi   0x16
    483  gDaxiConfig                0x1000001e   Gb    2  Data  Hi   0x5
    484  g_AM_BSP_GPIO_MSPI0_CE0    0x10000024   Gb    2  Data  Hi   0x4
    485  g_AM_BSP_GPIO_MSPI0_CE1    0x10000028   Gb    2  Data  Hi   0x4
    486  g_AM_BSP_GPIO_MSPI0_D0     0x1000002c   Gb    2  Data  Hi   0x4
    487  g_AM_BSP_GPIO_MSPI0_D1     0x10000030   Gb    2  Data  Hi   0x4
    488  g_AM_BSP_GPIO_MSPI0_D2     0x10000034   Gb    2  Data  Hi   0x4
    489  g_AM_BSP_GPIO_MSPI0_D3     0x10000038   Gb    2  Data  Hi   0x4
    490  g_AM_BSP_GPIO_MSPI0_D4     0x1000003c   Gb    2  Data  Hi   0x4
    491  g_AM_BSP_GPIO_MSPI0_D5     0x10000040   Gb    2  Data  Hi   0x4
    492  g_AM_BSP_GPIO_MSPI0_D6     0x10000044   Gb    2  Data  Hi   0x4
    493  g_AM_BSP_GPIO_MSPI0_D7     0x10000048   Gb    2  Data  Hi   0x4
    494  g_AM_BSP_GPIO_MSPI0_DQSDM  0x1000004c   Gb    2  Data  Hi   0x4
    495  g_AM_BSP_GPIO_MSPI0_SCK    0x10000050   Gb    2  Data  Hi   0x4
    496  g_AM_BSP_GPIO_MSPI1_CE0    0x10000054   Gb    2  Data  Hi   0x4
    497  g_AM_BSP_GPIO_MSPI1_CE1    0x10000058   Gb    2  Data  Hi   0x4
    498  g_AM_BSP_GPIO_MSPI1_D0     0x1000005c   Gb    2  Data  Hi   0x4
    499  g_AM_BSP_GPIO_MSPI1_D1     0x10000060   Gb    2  Data  Hi   0x4
    500  g_AM_BSP_GPIO_MSPI1_D2     0x10000064   Gb    2  Data  Hi   0x4
    501  g_AM_BSP_GPIO_MSPI1_D3     0x10000068   Gb    2  Data  Hi   0x4
    502  g_AM_BSP_GPIO_MSPI1_D4     0x1000006c   Gb    2  Data  Hi   0x4
    503  g_AM_BSP_GPIO_MSPI1_D5     0x10000070   Gb    2  Data  Hi   0x4
    504  g_AM_BSP_GPIO_MSPI1_D6     0x10000074   Gb    2  Data  Hi   0x4
    505  g_AM_BSP_GPIO_MSPI1_D7     0x10000078   Gb    2  Data  Hi   0x4
    506  g_AM_BSP_GPIO_MSPI1_DQSDM  0x1000007c   Gb    2  Data  Hi   0x4
    507  g_AM_BSP_GPIO_MSPI1_SCK    0x10000080   Gb    2  Data  Hi   0x4
    508  g_AM_BSP_GPIO_MSPI2_CE0    0x10000084   Gb    2  Data  Hi   0x4
    509  g_AM_BSP_GPIO_MSPI2_CE1    0x10000088   Gb    2  Data  Hi   0x4
    510  g_AM_BSP_GPIO_MSPI2_D0     0x1000008c   Gb    2  Data  Hi   0x4
    511  g_AM_BSP_GPIO_MSPI2_D1     0x10000090   Gb    2  Data  Hi   0x4
    512  g_AM_BSP_GPIO_MSPI2_D2     0x10000094   Gb    2  Data  Hi   0x4
    513  g_AM_BSP_GPIO_MSPI2_D3     0x10000098   Gb    2  Data  Hi   0x4
    514  g_AM_BSP_GPIO_MSPI2_D4     0x1000009c   Gb    2  Data  Hi   0x4
    515  g_AM_BSP_GPIO_MSPI2_D5     0x100000a0   Gb    2  Data  Hi   0x4
    516  g_AM_BSP_GPIO_MSPI2_D6     0x100000a4   Gb    2  Data  Hi   0x4
    517  g_AM_BSP_GPIO_MSPI2_D7     0x100000a8   Gb    2  Data  Hi   0x4
    518  g_AM_BSP_GPIO_MSPI2_DQSDM  0x100000ac   Gb    2  Data  Hi   0x4
    519  g_AM_BSP_GPIO_MSPI2_SCK    0x100000b0   Gb    2  Data  Hi   0x4
    520  g_AM_BSP_GPIO_X16SPI_CE0   0x100000b4   Gb    2  Data  Hi   0x4
    521  g_AM_BSP_GPIO_X16SPI_CE1   0x100000b8   Gb    2  Data  Hi   0x4
    522  g_AM_BSP_GPIO_X16SPI_D0    0x100000bc   Gb    2  Data  Hi   0x4
    523  g_AM_BSP_GPIO_X16SPI_D1    0x100000c0   Gb    2  Data  Hi   0x4
    524  g_AM_BSP_GPIO_X16SPI_D10   0x100000c4   Gb    2  Data  Hi   0x4
    525  g_AM_BSP_GPIO_X16SPI_D11   0x100000c8   Gb    2  Data  Hi   0x4
    526  g_AM_BSP_GPIO_X16SPI_D12   0x100000cc   Gb    2  Data  Hi   0x4
    527  g_AM_BSP_GPIO_X16SPI_D13   0x100000d0   Gb    2  Data  Hi   0x4
    528  g_AM_BSP_GPIO_X16SPI_D14   0x100000d4   Gb    2  Data  Hi   0x4
    529  g_AM_BSP_GPIO_X16SPI_D15   0x100000d8   Gb    2  Data  Hi   0x4
    530  g_AM_BSP_GPIO_X16SPI_D2    0x100000dc   Gb    2  Data  Hi   0x4
    531  g_AM_BSP_GPIO_X16SPI_D3    0x100000e0   Gb    2  Data  Hi   0x4
    532  g_AM_BSP_GPIO_X16SPI_D4    0x100000e4   Gb    2  Data  Hi   0x4
    533  g_AM_BSP_GPIO_X16SPI_D5    0x100000e8   Gb    2  Data  Hi   0x4
    534  g_AM_BSP_GPIO_X16SPI_D6    0x100000ec   Gb    2  Data  Hi   0x4
    535  g_AM_BSP_GPIO_X16SPI_D7    0x100000f0   Gb    2  Data  Hi   0x4
    536  g_AM_BSP_GPIO_X16SPI_D8    0x100000f4   Gb    2  Data  Hi   0x4
    537  g_AM_BSP_GPIO_X16SPI_D9    0x100000f8   Gb    2  Data  Hi   0x4
    538  g_AM_BSP_GPIO_X16SPI_DQS1DM1
                                    0x100000fc   Gb    2  Data  Hi   0x4
    539  g_AM_BSP_GPIO_X16SPI_DQSDM 0x10000100   Gb    2  Data  Hi   0x4
    540  g_AM_BSP_GPIO_X16SPI_SCK   0x10000104   Gb    2  Data  Hi   0x4
    541  g_eCurrPwrMode             0x10000108   Gb    2  Data  Hi   0x1
    542  __libspace_start           0x10000110   Gb    3  Data  De   0x60
    543  __temporary_stack_top$libspace
                                    0x10000170   Gb    3  Data  De 
    544  gFaultStack                0x10000378   Gb    3  Data  Hi   0x200
    545  psGlobalAccessPtr          0x10060000   Gb    4  Data  Hi   0x4
    546  ui32MCUClaimed             0x10060004   Gb    4  Data  Hi   0x14
    547  ui32DSP0Claimed            0x10060018   Gb    4  Data  Hi   0x14
    548  ui32DSP1Claimed            0x1006002c   Gb    4  Data  Hi   0x14


** Section #12 '.strtab' (SHT_STRTAB)
    Size   : 9792 bytes

            #  Offset String
        ====================================

            1      1: $d
            2      4: $t
            3      7: $t.0
            4     12: $d.4
            5     17: $t.6
            6     22: $d.28
            7     28: $t.29
            8     34: $d.30
            9     40: $t.31
           10     46: $d.32
           11     52: $t.33
           12     58: $d.9
           13     63: $t.10
           14     69: $d.5
           15     74: $d.19
           16     80: $t.20
           17     86: $d.3
           18     91: $t.4
           19     96: $d.7
           20    101: $t.8
           21    106: $d.1
           22    111: $t.2
           23    116: $d.6
           24    121: $t.7
           25    126: $d.realdata
           26    138: am_resources.c
           27    153: __tagsym$$used.0
           28    170: __tagsym$$used.1
           29    187: __tagsym$$used.2
           30    204: __tagsym$$used.3
           31    221: __tagsym$$used.4
           32    238: __tagsym$$used.5
           33    255: __tagsym$$used.6
           34    272: __tagsym$$used.7
           35    289: __tagsym$$used.8
           36    306: pwr_control_utils.c
           37    326: SRAMMemCfg
           38    337: pwr_gpio_utils.c
           39    354: pwr_mspi.c
           40    365: mspi_init
           41    375: debug_pin_init
           42    390: timerCallback
           43    404: __NVIC_SetPriority
           44    423: __NVIC_ClearPendingIRQ
           45    446: __NVIC_EnableIRQ
           46    463: init_pattern
           47    476: pwr_data_transfer_sequence
           48    503: __NVIC_DisableIRQ
           49    521: pwr_terminate_transfer
           50    544: mspi_dma_read
           51    558: mspi_dma_write
           52    573: mspiCompleteCallback
           53    594: g_tGlb
           54    601: tMspiConfig
           55    613: pwr_timer_utils.c
           56    631: pfnTimerCallbackFcn
           57    651: am_util_delay.c
           58    667: am_util_faultisr.c
           59    686: am_util_stdio.c
           60    702: ../keil6/startup_keil6.s
           61    727: STACK
           62    733: StackMem
           63    742: HEAP
           64    747: HeapMem
           65    755: RESET
           66    761: $v0
           67    765: am_cryptosec_isr
           68    782: am_default_isr
           69    797: .text
           70    803: am_bsp.c
           71    812: am_hal_cachectrl.c
           72    831: am_hal_fault.c
           73    846: am_hal_interrupt.c
           74    865: am_hal_mspi.c
           75    879: mspi_device_configure
           76    901: mspi_cq_disable
           77    917: mspi_cq_enable
           78    932: mspi_dummy_callback
           79    952: g_MSPIState
           80    964: am_hal_sysctrl.c
           81    981: am_hal_utils.c
           82    996: am_hal_gpio.c
           83   1010: g_ui32RMpintbl
           84   1025: g_ui32DSpintbl
           85   1040: am_hal_pwrctrl.c
           86   1057: .L_MergedGlobals
           87   1074: .L_MergedGlobals.1
           88   1093: g_bBoostForCryptoApplied
           89   1118: g_bOrigTrimsStored
           90   1137: g_i32LatestVddfActTrim
           91   1160: g_i32LatestLDOActTrim
           92   1182: g_ui32VDDFAdjustCodes
           93   1204: g_orig_ACTTRIMVDDF
           94   1223: g_orig_MEMLDOACTIVETRIM
           95   1247: g_orig_LPTRIMVDDF
           96   1265: g_orig_MEMLPLDOTRIM
           97   1285: g_orig_TVRGVREFTRIM
           98   1305: am_hal_timer.c
           99   1320: am_bsp_pins.c
          100   1334: am_hal_bootrom_helper.c
          101   1358: am_hal_cmdq.c
          102   1372: gAmHalCmdq
          103   1383: gAmHalCmdQReg
          104   1397: am_hal_itm.c
          105   1410: am_hal_mram.c
          106   1424: am_hal_rtc.c
          107   1437: am_hal_tpiu.c
          108   1451: am_hal_uart.c
          109   1465: am_hal_dcu.c
          110   1478: am_hal_global.c
          111   1494: am_hal_pin.c
          112   1507: am_hal_queue.c
          113   1522: dc.s
          114   1527: ../clib/memcpset.s
          115   1546: ../clib/heapaux.c
          116   1564: ../clib/angel/startup.s
          117   1588: !!!main
          118   1596: ../clib/angel/handlers.s
          119   1621: !!handler_copy
          120   1636: ../fplib/d2f.s
          121   1651: ../clib/angel/kernel.s
          122   1674: .ARM.Collect$$rtentry$$00000000
          123   1706: ../fplib/dnaninf.s
          124   1725: ../fplib/fretinf.s
          125   1744: ../fplib/usenofp.s
          126   1763: .ARM.Collect$$rtentry$$00000002
          127   1795: .ARM.Collect$$rtentry$$00000009
          128   1827: .ARM.Collect$$rtentry$$0000000A
          129   1859: .ARM.Collect$$rtentry$$0000000C
          130   1891: .ARM.Collect$$rtentry$$0000000D
          131   1923: .ARM.Collect$$rtentry$$00000004
          132   1955: ../clib/angel/sys.s
          133   1975: ../clib/stdlib.c
          134   1992: ../clib/angel/boardlib.s
          135   2017: ../clib/libinit.s
          136   2035: .ARM.Collect$$libinit$$00000000
          137   2067: .bss
          138   2072: .ARM.Collect$$rtexit$$00000000
          139   2103: .ARM.Collect$$libinit$$00000001
          140   2135: .ARM.Collect$$libinit$$00000004
          141   2167: .ARM.Collect$$libinit$$00000006
          142   2199: .ARM.Collect$$libinit$$0000000C
          143   2231: .ARM.Collect$$libinit$$0000000E
          144   2263: .ARM.Collect$$libinit$$00000010
          145   2295: .ARM.Collect$$libinit$$00000013
          146   2327: .ARM.Collect$$libinit$$00000015
          147   2359: .ARM.Collect$$libinit$$00000017
          148   2391: .ARM.Collect$$libinit$$00000019
          149   2423: .ARM.Collect$$libinit$$0000001B
          150   2455: .ARM.Collect$$libinit$$0000001D
          151   2487: .ARM.Collect$$libinit$$0000001F
          152   2519: .ARM.Collect$$libinit$$00000021
          153   2551: .ARM.Collect$$libinit$$00000023
          154   2583: .ARM.Collect$$libinit$$00000025
          155   2615: .ARM.Collect$$libinit$$00000027
          156   2647: .ARM.Collect$$libinit$$0000002E
          157   2679: .ARM.Collect$$libinit$$00000030
          158   2711: .ARM.Collect$$libinit$$00000032
          159   2743: .ARM.Collect$$libinit$$00000034
          160   2775: .ARM.Collect$$libinit$$00000035
          161   2807: .ARM.Collect$$rtexit$$00000002
          162   2838: .ARM.Collect$$rtexit$$00000003
          163   2869: .ARM.Collect$$rtexit$$00000004
          164   2900: ../clib/armsys.c
          165   2917: ../fplib/fpinit.s
          166   2935: x$fpl$fpinit
          167   2948: ../clib/angel/sysapp.c
          168   2971: .ARM.Collect$$libshutdown$$00000000
          169   3007: ../clib/heapalloc.c
          170   3027: ../clib/signal.c
          171   3044: .ARM.Collect$$libshutdown$$00000002
          172   3080: .ARM.Collect$$libshutdown$$00000004
          173   3116: .ARM.Collect$$libshutdown$$00000007
          174   3152: .ARM.Collect$$libshutdown$$0000000A
          175   3188: .ARM.Collect$$libshutdown$$0000000C
          176   3224: .ARM.Collect$$libshutdown$$0000000F
          177   3260: .ARM.Collect$$libshutdown$$00000010
          178   3296: ../clib/angel/rt.s
          179   3315: ../clib/signal.s
          180   3332: ../clib/angel/dczerorl2.s
          181   3358: !!dczerorl2
          182   3370: ../clib/angel/scatter.s
          183   3394: !!!scatter
          184   3405: !!handler_zi
          185   3418: BuildAttributes$$THM_ISAv4$E$P$D$K$B$S$7EM$VFPi3$EXTD16$VFPS$VFMA$PE$A:L22UL41UL21$X:L11$S22US41US21$IEEE1$IW$~IW$USESV6$~STKCKD$USESV7$~SHL$OTIME$ROPI$EBA8$UX$STANDARDLIB$REQ8$PRES8$EABIv2
          186   3608: __Vectors
          187   3618: __Patchable
          188   3630: Reset_Handler
          189   3644: NMI_Handler
          190   3656: MemManage_Handler
          191   3674: BusFault_Handler
          192   3691: UsageFault_Handler
          193   3710: SVC_Handler
          194   3722: DebugMon_Handler
          195   3739: PendSV_Handler
          196   3754: SysTick_Handler
          197   3770: am_adc_isr
          198   3781: am_audadc0_isr
          199   3796: am_brownout_isr
          200   3812: am_cachecpu_isr
          201   3828: am_clkgen_isr
          202   3842: am_ctimer_isr
          203   3856: am_disp_isr
          204   3868: am_dsi_isr
          205   3879: am_dspi2s0_isr
          206   3894: am_dspi2s1_isr
          207   3909: am_dspi2s2_isr
          208   3924: am_dspi2s3_isr
          209   3939: am_gpio0_001f_isr
          210   3957: am_gpio0_203f_isr
          211   3975: am_gpio0_405f_isr
          212   3993: am_gpio0_607f_isr
          213   4011: am_gpio1_001f_isr
          214   4029: am_gpio1_203f_isr
          215   4047: am_gpio1_405f_isr
          216   4065: am_gpio1_607f_isr
          217   4083: am_gpu_isr
          218   4094: am_iomaster0_isr
          219   4111: am_iomaster1_isr
          220   4128: am_iomaster2_isr
          221   4145: am_iomaster3_isr
          222   4162: am_iomaster4_isr
          223   4179: am_iomaster5_isr
          224   4196: am_iomaster6_isr
          225   4213: am_iomaster7_isr
          226   4230: am_ioslave_acc_isr
          227   4249: am_ioslave_ios_isr
          228   4268: am_mspi1_isr
          229   4281: am_mspi2_isr
          230   4294: am_pdm0_isr
          231   4306: am_pdm1_isr
          232   4318: am_pdm2_isr
          233   4330: am_pdm3_isr
          234   4342: am_rtc_isr
          235   4353: am_sdio_isr
          236   4365: am_stimer_cmpr0_isr
          237   4385: am_stimer_cmpr1_isr
          238   4405: am_stimer_cmpr2_isr
          239   4425: am_stimer_cmpr3_isr
          240   4445: am_stimer_cmpr4_isr
          241   4465: am_stimer_cmpr5_isr
          242   4485: am_stimer_cmpr6_isr
          243   4505: am_stimer_cmpr7_isr
          244   4525: am_stimerof_isr
          245   4541: am_timer01_isr
          246   4556: am_timer02_isr
          247   4571: am_timer03_isr
          248   4586: am_timer04_isr
          249   4601: am_timer05_isr
          250   4616: am_timer06_isr
          251   4631: am_timer07_isr
          252   4646: am_timer08_isr
          253   4661: am_timer09_isr
          254   4676: am_timer10_isr
          255   4691: am_timer11_isr
          256   4706: am_timer12_isr
          257   4721: am_timer13_isr
          258   4736: am_timer14_isr
          259   4751: am_timer15_isr
          260   4766: am_uart1_isr
          261   4779: am_uart2_isr
          262   4792: am_uart3_isr
          263   4805: am_uart_isr
          264   4817: am_usb_isr
          265   4828: am_vcomp_isr
          266   4841: am_watchdog_isr
          267   4857: __main
          268   4864: __scatterload
          269   4878: __scatterload_rt2
          270   4896: __scatterload_rt2_thumb_only
          271   4925: __scatterload_null
          272   4944: __decompress
          273   4957: __decompress1
          274   4971: __scatterload_copy
          275   4990: __scatterload_zeroinit
          276   5013: __rt_lib_init
          277   5027: __rt_lib_init_fp_1
          278   5046: __rt_lib_init_alloca_1
          279   5069: __rt_lib_init_argv_1
          280   5090: __rt_lib_init_atexit_1
          281   5113: __rt_lib_init_clock_1
          282   5135: __rt_lib_init_cpp_1
          283   5155: __rt_lib_init_exceptions_1
          284   5182: __rt_lib_init_fp_trap_1
          285   5206: __rt_lib_init_getenv_1
          286   5229: __rt_lib_init_heap_1
          287   5250: __rt_lib_init_lc_collate_1
          288   5277: __rt_lib_init_lc_ctype_1
          289   5302: __rt_lib_init_lc_monetary_1
          290   5330: __rt_lib_init_lc_numeric_1
          291   5357: __rt_lib_init_lc_time_1
          292   5381: __rt_lib_init_preinit_1
          293   5405: __rt_lib_init_rand_1
          294   5426: __rt_lib_init_relocate_pie_1
          295   5455: __rt_lib_init_return
          296   5476: __rt_lib_init_signal_1
          297   5499: __rt_lib_init_stdio_1
          298   5521: __rt_lib_init_user_alloc_1
          299   5548: __rt_lib_shutdown
          300   5566: __rt_lib_shutdown_cpp_1
          301   5590: __rt_lib_shutdown_fp_trap_1
          302   5618: __rt_lib_shutdown_heap_1
          303   5643: __rt_lib_shutdown_return
          304   5668: __rt_lib_shutdown_signal_1
          305   5695: __rt_lib_shutdown_stdio_1
          306   5721: __rt_lib_shutdown_user_alloc_1
          307   5752: __rt_entry
          308   5763: __rt_entry_presh_1
          309   5782: __rt_entry_sh
          310   5796: __rt_entry_li
          311   5810: __rt_entry_postsh_1
          312   5830: __rt_entry_main
          313   5846: __rt_entry_postli_1
          314   5866: __rt_exit
          315   5876: __rt_exit_ls
          316   5889: __rt_exit_prels_1
          317   5907: __rt_exit_exit
          318   5922: __user_initial_stackheap
          319   5947: __use_two_region_memory
          320   5971: __rt_heap_escrow$2region
          321   5996: __rt_heap_expand$2region
          322   6021: __user_setup_stackheap
          323   6044: exit
          324   6049: __user_libspace
          325   6065: __user_perproc_libspace
          326   6089: __user_perthread_libspace
          327   6115: _sys_exit
          328   6125: __I$use$semihosting
          329   6145: __use_no_semihosting_swi
          330   6170: __semihosting_library_function
          331   6201: HardFault_Handler
          332   6219: am_bsp_low_power_init
          333   6241: am_bsp_mspi_pins_enable
          334   6265: am_getStackedReg
          335   6282: am_gpu_power_disable
          336   6303: am_gpu_power_enable
          337   6323: am_hal_cachectrl_config
          338   6347: am_hal_cachectrl_enable
          339   6371: am_hal_cmdq_alloc_block
          340   6395: am_hal_cmdq_disable
          341   6415: am_hal_cmdq_enable
          342   6434: am_hal_cmdq_error_resume
          343   6459: am_hal_cmdq_get_status
          344   6482: am_hal_cmdq_init
          345   6499: am_hal_cmdq_post_block
          346   6522: am_hal_cmdq_release_block
          347   6548: am_hal_daxi_config
          348   6567: am_hal_daxi_control
          349   6587: am_hal_delay_us
          350   6603: am_hal_delay_us_status_change
          351   6633: am_hal_delay_us_status_check
          352   6662: am_hal_fault_status_get
          353   6686: am_hal_gpio_pinconfig
          354   6708: am_hal_gpio_state_write
          355   6732: am_hal_interrupt_master_disable
          356   6764: am_hal_interrupt_master_enable
          357   6795: am_hal_interrupt_master_set
          358   6823: am_hal_mram_info_read
          359   6845: am_hal_mspi_configure
          360   6867: am_hal_mspi_device_configure
          361   6896: am_hal_mspi_enable
          362   6915: am_hal_mspi_initialize
          363   6938: am_hal_mspi_interrupt_clear
          364   6966: am_hal_mspi_interrupt_enable
          365   6995: am_hal_mspi_interrupt_service
          366   7025: am_hal_mspi_interrupt_status_get
          367   7058: am_hal_mspi_nonblocking_transfer
          368   7091: am_hal_mspi_power_control
          369   7117: am_hal_pwrctrl_control
          370   7140: am_hal_pwrctrl_low_power_init
          371   7170: am_hal_pwrctrl_mcu_memory_config
          372   7203: am_hal_pwrctrl_mcu_mode_select
          373   7234: am_hal_pwrctrl_mcu_mode_status
          374   7265: am_hal_pwrctrl_periph_disable
          375   7295: am_hal_pwrctrl_periph_enable
          376   7324: am_hal_pwrctrl_sram_config
          377   7351: am_hal_rtc_osc_disable
          378   7374: am_hal_sysctrl_sleep
          379   7395: am_hal_timer_clear
          380   7414: am_hal_timer_config
          381   7434: am_hal_timer_default_config_set
          382   7466: am_hal_timer_disable
          383   7487: am_hal_timer_enable
          384   7507: am_hal_timer_interrupt_clear
          385   7536: am_hal_timer_interrupt_disable
          386   7567: am_hal_timer_interrupt_enable
          387   7597: am_mspi0_isr
          388   7610: am_timer00_isr
          389   7625: am_util_faultisr_collect_data
          390   7655: am_valid_sp
          391   7667: buck_ldo_override_init
          392   7690: buck_ldo_update_override
          393   7715: build_dma_cmdlist
          394   7733: crypto_boost_trims
          395   7752: internal_timer_config
          396   7774: main
          397   7779: pwrctrl_fill_buff_alternating_bits
          398   7814: pwrctrl_set_low_power
          399   7836: timer_disable
          400   7850: timer_init
          401   7861: _fp_init
          402   7870: __fplib_config_fpu_vfp
          403   7893: __fplib_config_pureend_doubles
          404   7924: am_hal_cachectrl_defaults
          405   7950: am_hal_daxi_defaults
          406   7971: am_hal_gpio_pincfg_output
          407   7997: am_hal_pwrctrl_peripheral_control
          408   8031: g_DefaultMcuMemCfg
          409   8050: g_DefaultSRAMCfg
          410   8067: g_am_hal_bootrom_helper
          411   8091: sGlobalAccess
          412   8105: ui32DSP0Allowed
          413   8121: ui32DSP1Allowed
          414   8137: ui32MCUAllowed
          415   8152: ui32SharedAccess
          416   8169: Region$$Table$$Base
          417   8189: Region$$Table$$Limit
          418   8210: g_ui32TrimVer
          419   8224: g_ui32origSimobuckVDDStrim
          420   8251: MSPI_DEVICE_Config
          421   8270: gDaxiConfig
          422   8282: g_AM_BSP_GPIO_MSPI0_CE0
          423   8306: g_AM_BSP_GPIO_MSPI0_CE1
          424   8330: g_AM_BSP_GPIO_MSPI0_D0
          425   8353: g_AM_BSP_GPIO_MSPI0_D1
          426   8376: g_AM_BSP_GPIO_MSPI0_D2
          427   8399: g_AM_BSP_GPIO_MSPI0_D3
          428   8422: g_AM_BSP_GPIO_MSPI0_D4
          429   8445: g_AM_BSP_GPIO_MSPI0_D5
          430   8468: g_AM_BSP_GPIO_MSPI0_D6
          431   8491: g_AM_BSP_GPIO_MSPI0_D7
          432   8514: g_AM_BSP_GPIO_MSPI0_DQSDM
          433   8540: g_AM_BSP_GPIO_MSPI0_SCK
          434   8564: g_AM_BSP_GPIO_MSPI1_CE0
          435   8588: g_AM_BSP_GPIO_MSPI1_CE1
          436   8612: g_AM_BSP_GPIO_MSPI1_D0
          437   8635: g_AM_BSP_GPIO_MSPI1_D1
          438   8658: g_AM_BSP_GPIO_MSPI1_D2
          439   8681: g_AM_BSP_GPIO_MSPI1_D3
          440   8704: g_AM_BSP_GPIO_MSPI1_D4
          441   8727: g_AM_BSP_GPIO_MSPI1_D5
          442   8750: g_AM_BSP_GPIO_MSPI1_D6
          443   8773: g_AM_BSP_GPIO_MSPI1_D7
          444   8796: g_AM_BSP_GPIO_MSPI1_DQSDM
          445   8822: g_AM_BSP_GPIO_MSPI1_SCK
          446   8846: g_AM_BSP_GPIO_MSPI2_CE0
          447   8870: g_AM_BSP_GPIO_MSPI2_CE1
          448   8894: g_AM_BSP_GPIO_MSPI2_D0
          449   8917: g_AM_BSP_GPIO_MSPI2_D1
          450   8940: g_AM_BSP_GPIO_MSPI2_D2
          451   8963: g_AM_BSP_GPIO_MSPI2_D3
          452   8986: g_AM_BSP_GPIO_MSPI2_D4
          453   9009: g_AM_BSP_GPIO_MSPI2_D5
          454   9032: g_AM_BSP_GPIO_MSPI2_D6
          455   9055: g_AM_BSP_GPIO_MSPI2_D7
          456   9078: g_AM_BSP_GPIO_MSPI2_DQSDM
          457   9104: g_AM_BSP_GPIO_MSPI2_SCK
          458   9128: g_AM_BSP_GPIO_X16SPI_CE0
          459   9153: g_AM_BSP_GPIO_X16SPI_CE1
          460   9178: g_AM_BSP_GPIO_X16SPI_D0
          461   9202: g_AM_BSP_GPIO_X16SPI_D1
          462   9226: g_AM_BSP_GPIO_X16SPI_D10
          463   9251: g_AM_BSP_GPIO_X16SPI_D11
          464   9276: g_AM_BSP_GPIO_X16SPI_D12
          465   9301: g_AM_BSP_GPIO_X16SPI_D13
          466   9326: g_AM_BSP_GPIO_X16SPI_D14
          467   9351: g_AM_BSP_GPIO_X16SPI_D15
          468   9376: g_AM_BSP_GPIO_X16SPI_D2
          469   9400: g_AM_BSP_GPIO_X16SPI_D3
          470   9424: g_AM_BSP_GPIO_X16SPI_D4
          471   9448: g_AM_BSP_GPIO_X16SPI_D5
          472   9472: g_AM_BSP_GPIO_X16SPI_D6
          473   9496: g_AM_BSP_GPIO_X16SPI_D7
          474   9520: g_AM_BSP_GPIO_X16SPI_D8
          475   9544: g_AM_BSP_GPIO_X16SPI_D9
          476   9568: g_AM_BSP_GPIO_X16SPI_DQS1DM1
          477   9597: g_AM_BSP_GPIO_X16SPI_DQSDM
          478   9624: g_AM_BSP_GPIO_X16SPI_SCK
          479   9649: g_eCurrPwrMode
          480   9664: __libspace_start
          481   9681: __temporary_stack_top$libspace
          482   9712: gFaultStack
          483   9724: psGlobalAccessPtr
          484   9742: ui32MCUClaimed
          485   9757: ui32DSP0Claimed
          486   9773: ui32DSP1Claimed
          487   9789: 
          488   9790: 
          489   9791: 


** Section #13 '.note' (SHT_NOTE)
    Size   : 32 bytes (alignment 4)


** Section #14 '.comment' (SHT_PROGBITS)
    Size   : 1652 bytes


** Section #15 '.shstrtab' (SHT_STRTAB)
    Size   : 148 bytes

            #  Offset String
        ====================================

            1      1: MCU_MRAM
            2     10: MCU_TCM
            3     18: SHARED_SRAM
            4     30: .debug_abbrev
            5     44: .debug_frame
            6     57: .debug_info
            7     69: .debug_line
            8     81: .debug_ranges
            9     95: .debug_str
           10    106: .symtab
           11    114: .strtab
           12    122: .note
           13    128: .comment
           14    137: .shstrtab
           15    147: 


