
========================================================================

** ELF Header Information

    File Name: bin\mspi_ddr_psram_loader.axf

    Machine class: ELFCLASS32 (32-bit)
    Data encoding: ELFDATA2LSB (Little endian)
    Header version: EV_CURRENT (Current version)
    Operating System ABI: none
    ABI Version: 0
    File Type: ET_EXEC (Executable) (2)
    Machine: EM_ARM (ARM)

    Image Entry point: 0x00018235
    Flags: EF_ARM_HASENTRY + EF_ARM_ABI_FLOAT_HARD (0x05000402)

    ARM ELF revision: 5 (ABI version 2)

    Conforms to Hard float procedure-call standard

    Built with
    Component: Arm Compiler for Embedded 6.19 Tool: armasm [5e73cb00]
    Component: Arm Compiler for Embedded 6.19 Tool: armlink [5e73cb00]

    Header size: 52 bytes (0x34)
    Program header entry size: 32 bytes (0x20)
    Section header entry size: 40 bytes (0x28)

    Program header entries: 1
    Section header entries: 16

    Program header offset: 106992 (0x0001a1f0)
    Section header offset: 107024 (0x0001a210)

    Section header string table index: 15

========================================================================

** Program header #0 (PT_LOAD) [PF_X + PF_W + PF_R + PF_ARM_ENTRY]
    Size : 57728 bytes (33904 bytes in file)
    Virtual address: 0x00018000 (Alignment 16)


========================================================================

** Section #1 'MCU_MRAM' (SHT_PROGBITS) [SHF_ALLOC + SHF_EXECINSTR]
    Size   : 33708 bytes (alignment 4)
    Address: 0x00018000

    $d
    RESET
    __Vectors
        0x00018000:    10005d90    .]..    DCD    268459408
        0x00018004:    00018201    ....    DCD    98817
        0x00018008:    0001821f    ....    DCD    98847
        0x0001800c:    00018501    ....    DCD    99585
        0x00018010:    00018221    !...    DCD    98849
        0x00018014:    00018223    #...    DCD    98851
        0x00018018:    00018225    %...    DCD    98853
        0x0001801c:    00000000    ....    DCD    0
        0x00018020:    00000000    ....    DCD    0
        0x00018024:    00000000    ....    DCD    0
        0x00018028:    00000000    ....    DCD    0
        0x0001802c:    00018227    '...    DCD    98855
        0x00018030:    00018229    )...    DCD    98857
        0x00018034:    00000000    ....    DCD    0
        0x00018038:    0001822b    +...    DCD    98859
        0x0001803c:    0001822d    -...    DCD    98861
        0x00018040:    0001822f    /...    DCD    98863
        0x00018044:    0001822f    /...    DCD    98863
        0x00018048:    0001822f    /...    DCD    98863
        0x0001804c:    0001822f    /...    DCD    98863
        0x00018050:    0001822f    /...    DCD    98863
        0x00018054:    0001822f    /...    DCD    98863
        0x00018058:    0001822f    /...    DCD    98863
        0x0001805c:    0001822f    /...    DCD    98863
        0x00018060:    0001822f    /...    DCD    98863
        0x00018064:    0001822f    /...    DCD    98863
        0x00018068:    0001822f    /...    DCD    98863
        0x0001806c:    0001822f    /...    DCD    98863
        0x00018070:    0001822f    /...    DCD    98863
        0x00018074:    0001822f    /...    DCD    98863
        0x00018078:    0001822f    /...    DCD    98863
        0x0001807c:    0001822f    /...    DCD    98863
        0x00018080:    0001822f    /...    DCD    98863
        0x00018084:    0001822f    /...    DCD    98863
        0x00018088:    0001822f    /...    DCD    98863
        0x0001808c:    0001822f    /...    DCD    98863
        0x00018090:    0001cd79    y...    DCD    118137
        0x00018094:    0001822f    /...    DCD    98863
        0x00018098:    0001822f    /...    DCD    98863
        0x0001809c:    0001822f    /...    DCD    98863
        0x000180a0:    0001822f    /...    DCD    98863
        0x000180a4:    0001822f    /...    DCD    98863
        0x000180a8:    0001822f    /...    DCD    98863
        0x000180ac:    0001822f    /...    DCD    98863
        0x000180b0:    0001822f    /...    DCD    98863
        0x000180b4:    0001822f    /...    DCD    98863
        0x000180b8:    0001822f    /...    DCD    98863
        0x000180bc:    0001822f    /...    DCD    98863
        0x000180c0:    0001822f    /...    DCD    98863
        0x000180c4:    0001822f    /...    DCD    98863
        0x000180c8:    0001822f    /...    DCD    98863
        0x000180cc:    0001822f    /...    DCD    98863
        0x000180d0:    0001822f    /...    DCD    98863
        0x000180d4:    0001822f    /...    DCD    98863
        0x000180d8:    0001822f    /...    DCD    98863
        0x000180dc:    0001822f    /...    DCD    98863
        0x000180e0:    0001822f    /...    DCD    98863
        0x000180e4:    0001822f    /...    DCD    98863
        0x000180e8:    0001822f    /...    DCD    98863
        0x000180ec:    0001822f    /...    DCD    98863
        0x000180f0:    0001822f    /...    DCD    98863
        0x000180f4:    0001822f    /...    DCD    98863
        0x000180f8:    0001822f    /...    DCD    98863
        0x000180fc:    0001822f    /...    DCD    98863
        0x00018100:    0001822f    /...    DCD    98863
        0x00018104:    0001822f    /...    DCD    98863
        0x00018108:    0001822f    /...    DCD    98863
        0x0001810c:    0001822f    /...    DCD    98863
        0x00018110:    0001822f    /...    DCD    98863
        0x00018114:    0001822f    /...    DCD    98863
        0x00018118:    0001822f    /...    DCD    98863
        0x0001811c:    0001822f    /...    DCD    98863
        0x00018120:    0001822f    /...    DCD    98863
        0x00018124:    0001822f    /...    DCD    98863
        0x00018128:    0001822f    /...    DCD    98863
        0x0001812c:    0001822f    /...    DCD    98863
        0x00018130:    0001822f    /...    DCD    98863
        0x00018134:    0001822f    /...    DCD    98863
        0x00018138:    0001822f    /...    DCD    98863
        0x0001813c:    0001822f    /...    DCD    98863
        0x00018140:    0001822f    /...    DCD    98863
        0x00018144:    0001822f    /...    DCD    98863
        0x00018148:    0001822f    /...    DCD    98863
        0x0001814c:    0001822f    /...    DCD    98863
        0x00018150:    0001822f    /...    DCD    98863
        0x00018154:    0001822f    /...    DCD    98863
        0x00018158:    0001822f    /...    DCD    98863
        0x0001815c:    0001822f    /...    DCD    98863
        0x00018160:    0001822f    /...    DCD    98863
        0x00018164:    0001822f    /...    DCD    98863
        0x00018168:    0001822f    /...    DCD    98863
        0x0001816c:    0001822f    /...    DCD    98863
        0x00018170:    0001822f    /...    DCD    98863
        0x00018174:    0001822f    /...    DCD    98863
        0x00018178:    0001822f    /...    DCD    98863
        0x0001817c:    0001822f    /...    DCD    98863
        0x00018180:    0001822f    /...    DCD    98863
        0x00018184:    0001822f    /...    DCD    98863
        0x00018188:    0001822f    /...    DCD    98863
        0x0001818c:    0001822f    /...    DCD    98863
    __Patchable
        0x00018190:    00000000    ....    DCD    0
        0x00018194:    00000000    ....    DCD    0
        0x00018198:    00000000    ....    DCD    0
        0x0001819c:    00000000    ....    DCD    0
        0x000181a0:    00000000    ....    DCD    0
        0x000181a4:    00000000    ....    DCD    0
        0x000181a8:    00000000    ....    DCD    0
        0x000181ac:    00000000    ....    DCD    0
        0x000181b0:    00000000    ....    DCD    0
        0x000181b4:    00000000    ....    DCD    0
        0x000181b8:    00000000    ....    DCD    0
        0x000181bc:    00000000    ....    DCD    0
        0x000181c0:    00000000    ....    DCD    0
        0x000181c4:    00000000    ....    DCD    0
        0x000181c8:    00000000    ....    DCD    0
        0x000181cc:    00000000    ....    DCD    0
        0x000181d0:    00000000    ....    DCD    0
        0x000181d4:    00000000    ....    DCD    0
        0x000181d8:    00000000    ....    DCD    0
        0x000181dc:    00000000    ....    DCD    0
        0x000181e0:    00000000    ....    DCD    0
        0x000181e4:    00000000    ....    DCD    0
        0x000181e8:    00000000    ....    DCD    0
        0x000181ec:    00000000    ....    DCD    0
        0x000181f0:    00000000    ....    DCD    0
        0x000181f4:    00000000    ....    DCD    0
        0x000181f8:    00000000    ....    DCD    0
        0x000181fc:    00000000    ....    DCD    0
    $t
    $v0
    Reset_Handler
        0x00018200:    f64e5088    N..P    MOV      r0,#0xed88
        0x00018204:    f2ce0000    ....    MOVT     r0,#0xe000
        0x00018208:    6801        .h      LDR      r1,[r0,#0]
        0x0001820a:    f4410170    A.p.    ORR      r1,r1,#0xf00000
        0x0001820e:    6001        .`      STR      r1,[r0,#0]
        0x00018210:    f3bf8f4f    ..O.    DSB      
        0x00018214:    f3bf8f6f    ..o.    ISB      
        0x00018218:    4805        .H      LDR      r0,[pc,#20] ; [0x18230] = 0x18235
        0x0001821a:    4700        .G      BX       r0
        0x0001821c:    e7fe        ..      B        0x1821c ; Reset_Handler + 28
    NMI_Handler
        0x0001821e:    e7fe        ..      B        NMI_Handler ; 0x1821e
    MemManage_Handler
        0x00018220:    e7fe        ..      B        MemManage_Handler ; 0x18220
    BusFault_Handler
        0x00018222:    e7fe        ..      B        BusFault_Handler ; 0x18222
    UsageFault_Handler
        0x00018224:    e7fe        ..      B        UsageFault_Handler ; 0x18224
    SVC_Handler
        0x00018226:    e7fe        ..      B        SVC_Handler ; 0x18226
    DebugMon_Handler
        0x00018228:    e7fe        ..      B        DebugMon_Handler ; 0x18228
    PendSV_Handler
        0x0001822a:    e7fe        ..      B        PendSV_Handler ; 0x1822a
    SysTick_Handler
        0x0001822c:    e7fe        ..      B        SysTick_Handler ; 0x1822c
    am_cryptosec_isr
    am_default_isr
    am_adc_isr
    am_audadc0_isr
    am_brownout_isr
    am_cachecpu_isr
    am_clkgen_isr
    am_ctimer_isr
    am_disp_isr
    am_dsi_isr
    am_dspi2s0_isr
    am_dspi2s1_isr
    am_dspi2s2_isr
    am_dspi2s3_isr
    am_gpio0_001f_isr
    am_gpio0_203f_isr
    am_gpio0_405f_isr
    am_gpio0_607f_isr
    am_gpio1_001f_isr
    am_gpio1_203f_isr
    am_gpio1_405f_isr
    am_gpio1_607f_isr
    am_gpu_isr
    am_iomaster0_isr
    am_iomaster1_isr
    am_iomaster2_isr
    am_iomaster3_isr
    am_iomaster4_isr
    am_iomaster5_isr
    am_iomaster6_isr
    am_iomaster7_isr
    am_ioslave_acc_isr
    am_ioslave_ios_isr
    am_mspi1_isr
    am_mspi2_isr
    am_pdm0_isr
    am_pdm1_isr
    am_pdm2_isr
    am_pdm3_isr
    am_rtc_isr
    am_sdio_isr
    am_stimer_cmpr0_isr
    am_stimer_cmpr1_isr
    am_stimer_cmpr2_isr
    am_stimer_cmpr3_isr
    am_stimer_cmpr4_isr
    am_stimer_cmpr5_isr
    am_stimer_cmpr6_isr
    am_stimer_cmpr7_isr
    am_stimerof_isr
    am_timer00_isr
    am_timer01_isr
    am_timer02_isr
    am_timer03_isr
    am_timer04_isr
    am_timer05_isr
    am_timer06_isr
    am_timer07_isr
    am_timer08_isr
    am_timer09_isr
    am_timer10_isr
    am_timer11_isr
    am_timer12_isr
    am_timer13_isr
    am_timer14_isr
    am_timer15_isr
    am_uart1_isr
    am_uart2_isr
    am_uart3_isr
    am_uart_isr
    am_usb_isr
    am_vcomp_isr
    am_watchdog_isr
        0x0001822e:    e7fe        ..      B        am_cryptosec_isr ; 0x1822e
    $d
        0x00018230:    00018235    5...    DCD    98869
    $t
    !!!main
    __main
        0x00018234:    f000f802    ....    BL       __scatterload ; 0x1823c
        0x00018238:    f000f86a    ..j.    BL       __rt_entry ; 0x18310
    !!!scatter
    __scatterload
    __scatterload_rt2
    __scatterload_rt2_thumb_only
        0x0001823c:    a00a        ..      ADR      r0,{pc}+0x2c ; 0x18268
        0x0001823e:    e8900c00    ....    LDM      r0,{r10,r11}
        0x00018242:    4482        .D      ADD      r10,r10,r0
        0x00018244:    4483        .D      ADD      r11,r11,r0
        0x00018246:    f1aa0701    ....    SUB      r7,r10,#1
    __scatterload_null
        0x0001824a:    45da        .E      CMP      r10,r11
        0x0001824c:    d101        ..      BNE      0x18252 ; __scatterload_null + 8
        0x0001824e:    f000f85f    .._.    BL       __rt_entry ; 0x18310
        0x00018252:    f2af0e09    ....    ADR      lr,{pc}-7 ; 0x1824b
        0x00018256:    e8ba000f    ....    LDM      r10!,{r0-r3}
        0x0001825a:    f0130f01    ....    TST      r3,#1
        0x0001825e:    bf18        ..      IT       NE
        0x00018260:    1afb        ..      SUBNE    r3,r7,r3
        0x00018262:    f0430301    C...    ORR      r3,r3,#1
        0x00018266:    4718        .G      BX       r3
    $d
        0x00018268:    00008114    ....    DCD    33044
        0x0001826c:    00008144    D...    DCD    33092
    $t
    !!dczerorl2
    __decompress
    __decompress1
        0x00018270:    440a        .D      ADD      r2,r2,r1
        0x00018272:    f04f0c00    O...    MOV      r12,#0
        0x00018276:    f8103b01    ...;    LDRB     r3,[r0],#1
        0x0001827a:    f0130407    ....    ANDS     r4,r3,#7
        0x0001827e:    bf08        ..      IT       EQ
        0x00018280:    f8104b01    ...K    LDRBEQ   r4,[r0],#1
        0x00018284:    111d        ..      ASRS     r5,r3,#4
        0x00018286:    bf08        ..      IT       EQ
        0x00018288:    f8105b01    ...[    LDRBEQ   r5,[r0],#1
        0x0001828c:    1e64        d.      SUBS     r4,r4,#1
        0x0001828e:    d005        ..      BEQ      0x1829c ; __decompress + 44
        0x00018290:    f8106b01    ...k    LDRB     r6,[r0],#1
        0x00018294:    1e64        d.      SUBS     r4,r4,#1
        0x00018296:    f8016b01    ...k    STRB     r6,[r1],#1
        0x0001829a:    d1f9        ..      BNE      0x18290 ; __decompress + 32
        0x0001829c:    f0130f08    ....    TST      r3,#8
        0x000182a0:    bf1e        ..      ITTT     NE
        0x000182a2:    f8104b01    ...K    LDRBNE   r4,[r0],#1
        0x000182a6:    1cad        ..      ADDNE    r5,r5,#2
        0x000182a8:    1b0c        ..      SUBNE    r4,r1,r4
        0x000182aa:    d109        ..      BNE      0x182c0 ; __decompress + 80
        0x000182ac:    1e6d        m.      SUBS     r5,r5,#1
        0x000182ae:    bf58        X.      IT       PL
        0x000182b0:    f801cb01    ....    STRBPL   r12,[r1],#1
        0x000182b4:    d5fa        ..      BPL      0x182ac ; __decompress + 60
        0x000182b6:    e005        ..      B        0x182c4 ; __decompress + 84
        0x000182b8:    f8146b01    ...k    LDRB     r6,[r4],#1
        0x000182bc:    f8016b01    ...k    STRB     r6,[r1],#1
        0x000182c0:    1e6d        m.      SUBS     r5,r5,#1
        0x000182c2:    d5f9        ..      BPL      0x182b8 ; __decompress + 72
        0x000182c4:    4291        .B      CMP      r1,r2
        0x000182c6:    d3d6        ..      BCC      0x18276 ; __decompress + 6
        0x000182c8:    4770        pG      BX       lr
        0x000182ca:    0000        ..      MOVS     r0,r0
    !!handler_copy
    __scatterload_copy
        0x000182cc:    3a10        .:      SUBS     r2,r2,#0x10
        0x000182ce:    bf24        $.      ITT      CS
        0x000182d0:    c878        x.      LDMCS    r0!,{r3-r6}
        0x000182d2:    c178        x.      STMCS    r1!,{r3-r6}
        0x000182d4:    d8fa        ..      BHI      __scatterload_copy ; 0x182cc
        0x000182d6:    0752        R.      LSLS     r2,r2,#29
        0x000182d8:    bf24        $.      ITT      CS
        0x000182da:    c830        0.      LDMCS    r0!,{r4,r5}
        0x000182dc:    c130        0.      STMCS    r1!,{r4,r5}
        0x000182de:    bf44        D.      ITT      MI
        0x000182e0:    6804        .h      LDRMI    r4,[r0,#0]
        0x000182e2:    600c        .`      STRMI    r4,[r1,#0]
        0x000182e4:    4770        pG      BX       lr
        0x000182e6:    0000        ..      MOVS     r0,r0
    !!handler_zi
    __scatterload_zeroinit
        0x000182e8:    2300        .#      MOVS     r3,#0
        0x000182ea:    2400        .$      MOVS     r4,#0
        0x000182ec:    2500        .%      MOVS     r5,#0
        0x000182ee:    2600        .&      MOVS     r6,#0
        0x000182f0:    3a10        .:      SUBS     r2,r2,#0x10
        0x000182f2:    bf28        (.      IT       CS
        0x000182f4:    c178        x.      STMCS    r1!,{r3-r6}
        0x000182f6:    d8fb        ..      BHI      0x182f0 ; __scatterload_zeroinit + 8
        0x000182f8:    0752        R.      LSLS     r2,r2,#29
        0x000182fa:    bf28        (.      IT       CS
        0x000182fc:    c130        0.      STMCS    r1!,{r4,r5}
        0x000182fe:    bf48        H.      IT       MI
        0x00018300:    600b        .`      STRMI    r3,[r1,#0]
        0x00018302:    4770        pG      BX       lr
    .ARM.Collect$$libinit$$00000000
    __rt_lib_init
        0x00018304:    b51f        ..      PUSH     {r0-r4,lr}
    .ARM.Collect$$libinit$$00000001
    __rt_lib_init_fp_1
        0x00018306:    f007fa7e    ..~.    BL       _fp_init ; 0x1f806
    .ARM.Collect$$libinit$$00000004
    .ARM.Collect$$libinit$$00000006
    .ARM.Collect$$libinit$$0000000C
    .ARM.Collect$$libinit$$0000000E
    .ARM.Collect$$libinit$$00000010
    .ARM.Collect$$libinit$$00000013
    .ARM.Collect$$libinit$$00000015
    .ARM.Collect$$libinit$$00000017
    .ARM.Collect$$libinit$$00000019
    .ARM.Collect$$libinit$$0000001B
    .ARM.Collect$$libinit$$0000001D
    .ARM.Collect$$libinit$$0000001F
    .ARM.Collect$$libinit$$00000021
    .ARM.Collect$$libinit$$00000023
    .ARM.Collect$$libinit$$00000025
    .ARM.Collect$$libinit$$00000027
    .ARM.Collect$$libinit$$0000002E
    .ARM.Collect$$libinit$$00000030
    .ARM.Collect$$libinit$$00000032
    .ARM.Collect$$libinit$$00000034
    .ARM.Collect$$libinit$$00000035
    __rt_lib_init_alloca_1
    __rt_lib_init_argv_1
    __rt_lib_init_atexit_1
    __rt_lib_init_clock_1
    __rt_lib_init_cpp_1
    __rt_lib_init_exceptions_1
    __rt_lib_init_fp_trap_1
    __rt_lib_init_getenv_1
    __rt_lib_init_heap_1
    __rt_lib_init_lc_collate_1
    __rt_lib_init_lc_ctype_1
    __rt_lib_init_lc_monetary_1
    __rt_lib_init_lc_numeric_1
    __rt_lib_init_lc_time_1
    __rt_lib_init_preinit_1
    __rt_lib_init_rand_1
    __rt_lib_init_relocate_pie_1
    __rt_lib_init_return
    __rt_lib_init_signal_1
    __rt_lib_init_stdio_1
    __rt_lib_init_user_alloc_1
        0x0001830a:    bd1f        ..      POP      {r0-r4,pc}
    .ARM.Collect$$libshutdown$$00000000
    __rt_lib_shutdown
        0x0001830c:    b510        ..      PUSH     {r4,lr}
    .ARM.Collect$$libshutdown$$00000002
    .ARM.Collect$$libshutdown$$00000004
    .ARM.Collect$$libshutdown$$00000007
    .ARM.Collect$$libshutdown$$0000000A
    .ARM.Collect$$libshutdown$$0000000C
    .ARM.Collect$$libshutdown$$0000000F
    .ARM.Collect$$libshutdown$$00000010
    __rt_lib_shutdown_cpp_1
    __rt_lib_shutdown_fp_trap_1
    __rt_lib_shutdown_heap_1
    __rt_lib_shutdown_return
    __rt_lib_shutdown_signal_1
    __rt_lib_shutdown_stdio_1
    __rt_lib_shutdown_user_alloc_1
        0x0001830e:    bd10        ..      POP      {r4,pc}
    .ARM.Collect$$rtentry$$00000000
    .ARM.Collect$$rtentry$$00000002
    .ARM.Collect$$rtentry$$00000004
    __rt_entry
    __rt_entry_presh_1
    __rt_entry_sh
        0x00018310:    f000f8bb    ....    BL       __user_setup_stackheap ; 0x1848a
        0x00018314:    4611        .F      MOV      r1,r2
    .ARM.Collect$$rtentry$$00000009
    .ARM.Collect$$rtentry$$0000000A
    __rt_entry_li
    __rt_entry_postsh_1
        0x00018316:    f7fffff5    ....    BL       __rt_lib_init ; 0x18304
    .ARM.Collect$$rtentry$$0000000C
    .ARM.Collect$$rtentry$$0000000D
    __rt_entry_main
    __rt_entry_postli_1
        0x0001831a:    f006f8b3    ....    BL       main ; 0x1e484
        0x0001831e:    f000f8d9    ....    BL       exit ; 0x184d4
    .ARM.Collect$$rtexit$$00000000
    __rt_exit
        0x00018322:    b403        ..      PUSH     {r0,r1}
    .ARM.Collect$$rtexit$$00000002
    .ARM.Collect$$rtexit$$00000003
    __rt_exit_ls
    __rt_exit_prels_1
        0x00018324:    f7fffff2    ....    BL       __rt_lib_shutdown ; 0x1830c
    .ARM.Collect$$rtexit$$00000004
    __rt_exit_exit
        0x00018328:    bc03        ..      POP      {r0,r1}
        0x0001832a:    f000f8e1    ....    BL       _sys_exit ; 0x184f0
        0x0001832e:    0000        ..      MOVS     r0,r0
    .text
    $v0
    __user_initial_stackheap
        0x00018330:    4802        .H      LDR      r0,[pc,#8] ; [0x1833c] = 0x10004d90
        0x00018332:    4903        .I      LDR      r1,[pc,#12] ; [0x18340] = 0x10005d90
        0x00018334:    4a01        .J      LDR      r2,[pc,#4] ; [0x1833c] = 0x10004d90
        0x00018336:    4b03        .K      LDR      r3,[pc,#12] ; [0x18344] = 0x10004d90
        0x00018338:    4770        pG      BX       lr
    $d
        0x0001833a:    0000        ..      DCW    0
        0x0001833c:    10004d90    .M..    DCD    268455312
        0x00018340:    10005d90    .]..    DCD    268459408
        0x00018344:    10004d90    .M..    DCD    268455312
    $t
    .text
    __aeabi_memcpy
    __rt_memcpy
        0x00018348:    2a03        .*      CMP      r2,#3
        0x0001834a:    f2408030    @.0.    BLS.W    _memcpy_lastbytes ; 0x183ae
        0x0001834e:    f0100c03    ....    ANDS     r12,r0,#3
        0x00018352:    f0008015    ....    BEQ.W    0x18380 ; __aeabi_memcpy + 56
        0x00018356:    f8113b01    ...;    LDRB     r3,[r1],#1
        0x0001835a:    f1bc0f02    ....    CMP      r12,#2
        0x0001835e:    4462        bD      ADD      r2,r2,r12
        0x00018360:    bf98        ..      IT       LS
        0x00018362:    f811cb01    ....    LDRBLS   r12,[r1],#1
        0x00018366:    f8003b01    ...;    STRB     r3,[r0],#1
        0x0001836a:    bf38        8.      IT       CC
        0x0001836c:    f8113b01    ...;    LDRBCC   r3,[r1],#1
        0x00018370:    f1a20204    ....    SUB      r2,r2,#4
        0x00018374:    bf98        ..      IT       LS
        0x00018376:    f800cb01    ....    STRBLS   r12,[r0],#1
        0x0001837a:    bf38        8.      IT       CC
        0x0001837c:    f8003b01    ...;    STRBCC   r3,[r0],#1
        0x00018380:    f0110303    ....    ANDS     r3,r1,#3
        0x00018384:    f000804f    ..O.    BEQ.W    __aeabi_memcpy4 ; 0x18426
        0x00018388:    3a08        .:      SUBS     r2,r2,#8
        0x0001838a:    f0c08008    ....    BCC.W    0x1839e ; __aeabi_memcpy + 86
        0x0001838e:    f8513b04    Q..;    LDR      r3,[r1],#4
        0x00018392:    3a08        .:      SUBS     r2,r2,#8
        0x00018394:    f851cb04    Q...    LDR      r12,[r1],#4
        0x00018398:    e8a01008    ....    STM      r0!,{r3,r12}
        0x0001839c:    e7f5        ..      B        0x1838a ; __aeabi_memcpy + 66
        0x0001839e:    1d12        ..      ADDS     r2,r2,#4
        0x000183a0:    bf5c        \.      ITT      PL
        0x000183a2:    f8513b04    Q..;    LDRPL    r3,[r1],#4
        0x000183a6:    f8403b04    @..;    STRPL    r3,[r0],#4
        0x000183aa:    f3af8000    ....    NOP.W    
    _memcpy_lastbytes
        0x000183ae:    07d2        ..      LSLS     r2,r2,#31
        0x000183b0:    bf24        $.      ITT      CS
        0x000183b2:    f8113b01    ...;    LDRBCS   r3,[r1],#1
        0x000183b6:    f811cb01    ....    LDRBCS   r12,[r1],#1
        0x000183ba:    bf48        H.      IT       MI
        0x000183bc:    f8112b01    ...+    LDRBMI   r2,[r1],#1
        0x000183c0:    bf24        $.      ITT      CS
        0x000183c2:    f8003b01    ...;    STRBCS   r3,[r0],#1
        0x000183c6:    f800cb01    ....    STRBCS   r12,[r0],#1
        0x000183ca:    bf48        H.      IT       MI
        0x000183cc:    f8002b01    ...+    STRBMI   r2,[r0],#1
        0x000183d0:    4770        pG      BX       lr
    .text
    __aeabi_memclr4
    __aeabi_memclr8
    __rt_memclr_w
        0x000183d2:    f04f0200    O...    MOV      r2,#0
    _memset_w
        0x000183d6:    b500        ..      PUSH     {lr}
        0x000183d8:    4613        .F      MOV      r3,r2
        0x000183da:    4694        .F      MOV      r12,r2
        0x000183dc:    4696        .F      MOV      lr,r2
        0x000183de:    3920         9      SUBS     r1,r1,#0x20
        0x000183e0:    bf22        ".      ITTT     CS
        0x000183e2:    e8a0500c    ...P    STMCS    r0!,{r2,r3,r12,lr}
        0x000183e6:    e8a0500c    ...P    STMCS    r0!,{r2,r3,r12,lr}
        0x000183ea:    f1b10120    .. .    SUBSCS   r1,r1,#0x20
        0x000183ee:    f4bfaff7    ....    BCS.W    0x183e0 ; _memset_w + 10
        0x000183f2:    0709        ..      LSLS     r1,r1,#28
        0x000183f4:    bf28        (.      IT       CS
        0x000183f6:    e8a0500c    ...P    STMCS    r0!,{r2,r3,r12,lr}
        0x000183fa:    bf48        H.      IT       MI
        0x000183fc:    c00c        ..      STMMI    r0!,{r2,r3}
        0x000183fe:    f85deb04    ]...    POP      {lr}
        0x00018402:    0089        ..      LSLS     r1,r1,#2
        0x00018404:    bf28        (.      IT       CS
        0x00018406:    f8402b04    @..+    STRCS    r2,[r0],#4
        0x0001840a:    bf08        ..      IT       EQ
        0x0001840c:    4770        pG      BXEQ     lr
        0x0001840e:    bf48        H.      IT       MI
        0x00018410:    f8202b02     ..+    STRHMI   r2,[r0],#2
        0x00018414:    f0114f80    ...O    TST      r1,#0x40000000
        0x00018418:    bf18        ..      IT       NE
        0x0001841a:    f8002b01    ...+    STRBNE   r2,[r0],#1
        0x0001841e:    4770        pG      BX       lr
    .text
    __use_two_region_memory
        0x00018420:    4770        pG      BX       lr
    __rt_heap_escrow$2region
        0x00018422:    4770        pG      BX       lr
    __rt_heap_expand$2region
        0x00018424:    4770        pG      BX       lr
    .text
    __aeabi_memcpy4
    __aeabi_memcpy8
    __rt_memcpy_w
        0x00018426:    b510        ..      PUSH     {r4,lr}
        0x00018428:    3a20         :      SUBS     r2,r2,#0x20
        0x0001842a:    f0c0800b    ....    BCC.W    0x18444 ; __aeabi_memcpy4 + 30
        0x0001842e:    e8b15018    ...P    LDM      r1!,{r3,r4,r12,lr}
        0x00018432:    e8a05018    ...P    STM      r0!,{r3,r4,r12,lr}
        0x00018436:    e8b15018    ...P    LDM      r1!,{r3,r4,r12,lr}
        0x0001843a:    e8a05018    ...P    STM      r0!,{r3,r4,r12,lr}
        0x0001843e:    3a20         :      SUBS     r2,r2,#0x20
        0x00018440:    f4bfaff5    ....    BCS.W    0x1842e ; __aeabi_memcpy4 + 8
        0x00018444:    ea5f7c02    _..|    LSLS     r12,r2,#28
        0x00018448:    bf24        $.      ITT      CS
        0x0001844a:    e8b15018    ...P    LDMCS    r1!,{r3,r4,r12,lr}
        0x0001844e:    e8a05018    ...P    STMCS    r0!,{r3,r4,r12,lr}
        0x00018452:    bf44        D.      ITT      MI
        0x00018454:    c918        ..      LDMMI    r1!,{r3,r4}
        0x00018456:    c018        ..      STMMI    r0!,{r3,r4}
        0x00018458:    e8bd4010    ...@    POP      {r4,lr}
        0x0001845c:    ea5f7c82    _..|    LSLS     r12,r2,#30
        0x00018460:    bf24        $.      ITT      CS
        0x00018462:    f8513b04    Q..;    LDRCS    r3,[r1],#4
        0x00018466:    f8403b04    @..;    STRCS    r3,[r0],#4
        0x0001846a:    bf08        ..      IT       EQ
        0x0001846c:    4770        pG      BXEQ     lr
    _memcpy_lastbytes_aligned
        0x0001846e:    07d2        ..      LSLS     r2,r2,#31
        0x00018470:    bf28        (.      IT       CS
        0x00018472:    f8313b02    1..;    LDRHCS   r3,[r1],#2
        0x00018476:    bf48        H.      IT       MI
        0x00018478:    f8112b01    ...+    LDRBMI   r2,[r1],#1
        0x0001847c:    bf28        (.      IT       CS
        0x0001847e:    f8203b02     ..;    STRHCS   r3,[r0],#2
        0x00018482:    bf48        H.      IT       MI
        0x00018484:    f8002b01    ...+    STRBMI   r2,[r0],#1
        0x00018488:    4770        pG      BX       lr
    .text
    __user_setup_stackheap
        0x0001848a:    4675        uF      MOV      r5,lr
        0x0001848c:    f000f82c    ..,.    BL       __user_libspace ; 0x184e8
        0x00018490:    46ae        .F      MOV      lr,r5
        0x00018492:    0005        ..      MOVS     r5,r0
        0x00018494:    4669        iF      MOV      r1,sp
        0x00018496:    4653        SF      MOV      r3,r10
        0x00018498:    f0200007     ...    BIC      r0,r0,#7
        0x0001849c:    4685        .F      MOV      sp,r0
        0x0001849e:    b018        ..      ADD      sp,sp,#0x60
        0x000184a0:    b520         .      PUSH     {r5,lr}
        0x000184a2:    f7ffff45    ..E.    BL       __user_initial_stackheap ; 0x18330
        0x000184a6:    e8bd4020    .. @    POP      {r5,lr}
        0x000184aa:    f04f0600    O...    MOV      r6,#0
        0x000184ae:    f04f0700    O...    MOV      r7,#0
        0x000184b2:    f04f0800    O...    MOV      r8,#0
        0x000184b6:    f04f0b00    O...    MOV      r11,#0
        0x000184ba:    46ac        .F      MOV      r12,r5
        0x000184bc:    e8ac09c0    ....    STM      r12!,{r6-r8,r11}
        0x000184c0:    e8ac09c0    ....    STM      r12!,{r6-r8,r11}
        0x000184c4:    e8ac09c0    ....    STM      r12!,{r6-r8,r11}
        0x000184c8:    e8ac09c0    ....    STM      r12!,{r6-r8,r11}
        0x000184cc:    f0210107    !...    BIC      r1,r1,#7
        0x000184d0:    468d        .F      MOV      sp,r1
        0x000184d2:    4770        pG      BX       lr
    .text
    exit
        0x000184d4:    b510        ..      PUSH     {r4,lr}
        0x000184d6:    4604        .F      MOV      r4,r0
        0x000184d8:    f3af8000    ....    NOP.W    
        0x000184dc:    4620         F      MOV      r0,r4
        0x000184de:    e8bd4010    ...@    POP      {r4,lr}
        0x000184e2:    f7ffbf1e    ....    B.W      __rt_exit ; 0x18322
        0x000184e6:    0000        ..      MOVS     r0,r0
    .text
    __user_libspace
    __user_perproc_libspace
    __user_perthread_libspace
        0x000184e8:    4800        .H      LDR      r0,[pc,#0] ; [0x184ec] = 0x10000170
        0x000184ea:    4770        pG      BX       lr
    $d
        0x000184ec:    10000170    p...    DCD    268435824
    $t
    .text
    _sys_exit
        0x000184f0:    4901        .I      LDR      r1,[pc,#4] ; [0x184f8] = 0x20026
        0x000184f2:    2018        .       MOVS     r0,#0x18
        0x000184f4:    beab        ..      BKPT     #0xab
        0x000184f6:    e7fe        ..      B        0x184f6 ; _sys_exit + 6
    $d
        0x000184f8:    00020026    &...    DCD    131110
    $t
    .text
    __I$use$semihosting
    __use_no_semihosting_swi
        0x000184fc:    4770        pG      BX       lr
    .text
    __semihosting_library_function
        0x000184fe:    0000        ..      MOVS     r0,r0
    $t.0
    HardFault_Handler
        0x00018500:    f01e0f04    ....    TST      lr,#4
        0x00018504:    bf0c        ..      ITE      EQ
        0x00018506:    f3ef8008    ....    MRSEQ    r0,MSP
        0x0001850a:    f3ef8009    ....    MRSNE    r0,PSP
        0x0001850e:    4904        .I      LDR      r1,[pc,#16] ; [0x18520] = 0x10002c28
        0x00018510:    f5017100    ...q    ADD      r1,r1,#0x200
        0x00018514:    f0210103    !...    BIC      r1,r1,#3
        0x00018518:    468d        .F      MOV      sp,r1
        0x0001851a:    f004bc59    ..Y.    B.W      am_util_faultisr_collect_data ; 0x1cdd0
        0x0001851e:    0000        ..      MOVS     r0,r0
    $d.4
        0x00018520:    10002c28    (,..    DCD    268446760
    $t.3
    __NVIC_EnableIRQ
        0x00018524:    b081        ..      SUB      sp,sp,#4
        0x00018526:    f88d0003    ....    STRB     r0,[sp,#3]
        0x0001852a:    f99d0003    ....    LDRSB    r0,[sp,#3]
        0x0001852e:    2800        .(      CMP      r0,#0
        0x00018530:    d40e        ..      BMI      0x18550 ; __NVIC_EnableIRQ + 44
        0x00018532:    e7ff        ..      B        0x18534 ; __NVIC_EnableIRQ + 16
        0x00018534:    f99d1003    ....    LDRSB    r1,[sp,#3]
        0x00018538:    f001021f    ....    AND      r2,r1,#0x1f
        0x0001853c:    2001        .       MOVS     r0,#1
        0x0001853e:    4090        .@      LSLS     r0,r0,r2
        0x00018540:    094a        J.      LSRS     r2,r1,#5
        0x00018542:    f24e1100    N...    MOVW     r1,#0xe100
        0x00018546:    f2ce0100    ....    MOVT     r1,#0xe000
        0x0001854a:    f8410022    A.".    STR      r0,[r1,r2,LSL #2]
        0x0001854e:    e7ff        ..      B        0x18550 ; __NVIC_EnableIRQ + 44
        0x00018550:    b001        ..      ADD      sp,sp,#4
        0x00018552:    4770        pG      BX       lr
    __NVIC_SetPriority
        0x00018554:    b082        ..      SUB      sp,sp,#8
        0x00018556:    f88d0007    ....    STRB     r0,[sp,#7]
        0x0001855a:    9100        ..      STR      r1,[sp,#0]
        0x0001855c:    f99d0007    ....    LDRSB    r0,[sp,#7]
        0x00018560:    2800        .(      CMP      r0,#0
        0x00018562:    d40a        ..      BMI      0x1857a ; __NVIC_SetPriority + 38
        0x00018564:    e7ff        ..      B        0x18566 ; __NVIC_SetPriority + 18
        0x00018566:    9800        ..      LDR      r0,[sp,#0]
        0x00018568:    0140        @.      LSLS     r0,r0,#5
        0x0001856a:    f99d1007    ....    LDRSB    r1,[sp,#7]
        0x0001856e:    f24e4200    N..B    MOVW     r2,#0xe400
        0x00018572:    f2ce0200    ....    MOVT     r2,#0xe000
        0x00018576:    5488        .T      STRB     r0,[r1,r2]
        0x00018578:    e00b        ..      B        0x18592 ; __NVIC_SetPriority + 62
        0x0001857a:    9800        ..      LDR      r0,[sp,#0]
        0x0001857c:    0140        @.      LSLS     r0,r0,#5
        0x0001857e:    f89d1007    ....    LDRB     r1,[sp,#7]
        0x00018582:    f001010f    ....    AND      r1,r1,#0xf
        0x00018586:    f64e5214    N..R    MOV      r2,#0xed14
        0x0001858a:    f2ce0200    ....    MOVT     r2,#0xe000
        0x0001858e:    5488        .T      STRB     r0,[r1,r2]
        0x00018590:    e7ff        ..      B        0x18592 ; __NVIC_SetPriority + 62
        0x00018592:    b002        ..      ADD      sp,sp,#8
        0x00018594:    4770        pG      BX       lr
        0x00018596:    0000        ..      MOVS     r0,r0
    am_bsp_itm_printf_enable
        0x00018598:    b580        ..      PUSH     {r7,lr}
        0x0001859a:    b082        ..      SUB      sp,sp,#8
        0x0001859c:    f2410008    A...    MOV      r0,#0x1008
        0x000185a0:    f2c40002    ....    MOVT     r0,#0x4002
        0x000185a4:    6800        .h      LDR      r0,[r0,#0]
        0x000185a6:    02c0        ..      LSLS     r0,r0,#11
        0x000185a8:    d512        ..      BPL      0x185d0 ; am_bsp_itm_printf_enable + 56
        0x000185aa:    f640207c    @.|     MOV      r0,#0xa7c
        0x000185ae:    f2c4000c    ....    MOVT     r0,#0x400c
        0x000185b2:    6800        .h      LDR      r0,[r0,#0]
        0x000185b4:    07c0        ..      LSLS     r0,r0,#31
        0x000185b6:    d00b        ..      BEQ      0x185d0 ; am_bsp_itm_printf_enable + 56
        0x000185b8:    a801        ..      ADD      r0,sp,#4
        0x000185ba:    f001fe89    ....    BL       am_hal_dcu_get ; 0x1a2d0
        0x000185be:    f89d0004    ....    LDRB     r0,[sp,#4]
        0x000185c2:    06c0        ..      LSLS     r0,r0,#27
        0x000185c4:    d408        ..      BMI      0x185d8 ; am_bsp_itm_printf_enable + 64
        0x000185c6:    2001        .       MOVS     r0,#1
        0x000185c8:    2110        .!      MOVS     r1,#0x10
        0x000185ca:    f001fea1    ....    BL       am_hal_dcu_update ; 0x1a310
        0x000185ce:    b118        ..      CBZ      r0,0x185d8 ; am_bsp_itm_printf_enable + 64
        0x000185d0:    f04f30ff    O..0    MOV      r0,#0xffffffff
        0x000185d4:    b002        ..      ADD      sp,sp,#8
        0x000185d6:    bd80        ..      POP      {r7,pc}
        0x000185d8:    f24010d0    @...    MOVW     r0,#0x1d0
        0x000185dc:    f2c10000    ....    MOVT     r0,#0x1000
        0x000185e0:    2101        .!      MOVS     r1,#1
        0x000185e2:    7001        .p      STRB     r1,[r0,#0]
        0x000185e4:    f002f860    ..`.    BL       am_hal_itm_enable ; 0x1a6a8
        0x000185e8:    f2442040    D.@     MOV      r0,#0x4240
        0x000185ec:    f2c0000f    ....    MOVT     r0,#0xf
        0x000185f0:    f004fb8a    ....    BL       am_hal_tpiu_enable ; 0x1cd08
        0x000185f4:    f642602c    B.,`    MOV      r0,#0x2e2c
        0x000185f8:    f2c10000    ....    MOVT     r0,#0x1000
        0x000185fc:    6801        .h      LDR      r1,[r0,#0]
        0x000185fe:    201c        .       MOVS     r0,#0x1c
        0x00018600:    f001ff94    ....    BL       am_hal_gpio_pinconfig ; 0x1a52c
        0x00018604:    f24a7001    J..p    MOV      r0,#0xa701
        0x00018608:    f2c00001    ....    MOVT     r0,#1
        0x0001860c:    f004fda2    ....    BL       am_util_stdio_printf_init ; 0x1d154
        0x00018610:    2000        .       MOVS     r0,#0
        0x00018612:    b002        ..      ADD      sp,sp,#8
        0x00018614:    bd80        ..      POP      {r7,pc}
        0x00018616:    0000        ..      MOVS     r0,r0
    am_bsp_low_power_init
        0x00018618:    b580        ..      PUSH     {r7,lr}
        0x0001861a:    f004f85d    ..].    BL       am_hal_pwrctrl_low_power_init ; 0x1c6d8
        0x0001861e:    2000        .       MOVS     r0,#0
        0x00018620:    2100        .!      MOVS     r1,#0
        0x00018622:    f003ff4b    ..K.    BL       am_hal_pwrctrl_control ; 0x1c4bc
        0x00018626:    e8bd4080    ...@    POP      {r7,lr}
        0x0001862a:    f004bb63    ..c.    B.W      am_hal_rtc_osc_disable ; 0x1ccf4
        0x0001862e:    0000        ..      MOVS     r0,r0
    am_bsp_mspi_pins_enable
        0x00018630:    e92d4ff0    -..O    PUSH     {r4-r11,lr}
        0x00018634:    b081        ..      SUB      sp,sp,#4
        0x00018636:    2802        .(      CMP      r0,#2
        0x00018638:    460f        .F      MOV      r7,r1
        0x0001863a:    d04d        M.      BEQ      0x186d8 ; am_bsp_mspi_pins_enable + 168
        0x0001863c:    2801        .(      CMP      r0,#1
        0x0001863e:    f0008099    ....    BEQ.W    0x18774 ; am_bsp_mspi_pins_enable + 324
        0x00018642:    2800        .(      CMP      r0,#0
        0x00018644:    f04080ea    @...    BNE.W    0x1881c ; am_bsp_mspi_pins_enable + 492
        0x00018648:    ea4f0077    O.w.    ROR      r0,r7,#1
        0x0001864c:    2809        .(      CMP      r0,#9
        0x0001864e:    f20080e5    ....    BHI.W    0x1881c ; am_bsp_mspi_pins_enable + 492
        0x00018652:    f2401a68    @.h.    MOVW     r10,#0x168
        0x00018656:    f2401924    @.$.    MOVW     r9,#0x124
        0x0001865a:    f2401420    @. .    MOVW     r4,#0x120
        0x0001865e:    f240151c    @...    MOVW     r5,#0x11c
        0x00018662:    f04f0848    O.H.    MOV      r8,#0x48
        0x00018666:    f2c10a00    ....    MOVT     r10,#0x1000
        0x0001866a:    f04f0b41    O.A.    MOV      r11,#0x41
        0x0001866e:    f2c10900    ....    MOVT     r9,#0x1000
        0x00018672:    2640        @&      MOVS     r6,#0x40
        0x00018674:    f2c10400    ....    MOVT     r4,#0x1000
        0x00018678:    2739        9'      MOVS     r7,#0x39
        0x0001867a:    f2c10500    ....    MOVT     r5,#0x1000
        0x0001867e:    e8dff010    ....    TBH      [pc,r0,LSL #1]
    $d.35
        0x00018682:    03f8        ..      DCW    1016
        0x00018684:    000b00cd    ....    DCD    721101
        0x00018688:    0145022d    -.E.    DCD    21299757
        0x0001868c:    00cd0189    ....    DCD    13435273
        0x00018690:    000b00cd    ....    DCD    721101
        0x00018694:    bf00000b    ....    DCD    3204448267
    $t.36
        0x00018698:    6829        )h      LDR      r1,[r5,#0]
        0x0001869a:    2039        9       MOVS     r0,#0x39
        0x0001869c:    f001ff46    ..F.    BL       am_hal_gpio_pinconfig ; 0x1a52c
        0x000186a0:    6821        !h      LDR      r1,[r4,#0]
        0x000186a2:    2040        @       MOVS     r0,#0x40
        0x000186a4:    f001ff42    ..B.    BL       am_hal_gpio_pinconfig ; 0x1a52c
        0x000186a8:    f2401a68    @.h.    MOVW     r10,#0x168
        0x000186ac:    f2401944    @.D.    MOVW     r9,#0x144
        0x000186b0:    f2401440    @.@.    MOVW     r4,#0x140
        0x000186b4:    f2401524    @.$.    MOVW     r5,#0x124
        0x000186b8:    f04f0848    O.H.    MOV      r8,#0x48
        0x000186bc:    f2c10a00    ....    MOVT     r10,#0x1000
        0x000186c0:    f04f0b43    O.C.    MOV      r11,#0x43
        0x000186c4:    f2c10900    ....    MOVT     r9,#0x1000
        0x000186c8:    2642        B&      MOVS     r6,#0x42
        0x000186ca:    f2c10400    ....    MOVT     r4,#0x1000
        0x000186ce:    2741        A'      MOVS     r7,#0x41
        0x000186d0:    f2c10500    ....    MOVT     r5,#0x1000
        0x000186d4:    e3cd        ..      B        0x18e72 ; am_bsp_mspi_pins_enable + 2114
        0x000186d6:    bf00        ..      NOP      
        0x000186d8:    2f13        ./      CMP      r7,#0x13
        0x000186da:    f200809f    ....    BHI.W    0x1881c ; am_bsp_mspi_pins_enable + 492
        0x000186de:    f2400aec    @...    MOVW     r10,#0xec
        0x000186e2:    f24009cc    @...    MOVW     r9,#0xcc
        0x000186e6:    f24004c8    @...    MOVW     r4,#0xc8
        0x000186ea:    f24005c0    @...    MOVW     r5,#0xc0
        0x000186ee:    f04f0852    O.R.    MOV      r8,#0x52
        0x000186f2:    f2c10a00    ....    MOVT     r10,#0x1000
        0x000186f6:    f04f0b4b    O.K.    MOV      r11,#0x4b
        0x000186fa:    f2c10900    ....    MOVT     r9,#0x1000
        0x000186fe:    264a        J&      MOVS     r6,#0x4a
        0x00018700:    f2c10400    ....    MOVT     r4,#0x1000
        0x00018704:    f2c10500    ....    MOVT     r5,#0x1000
        0x00018708:    e8dff017    ....    TBH      [pc,r7,LSL #1]
    $d.37
        0x0001870c:    029403b3    ....    DCD    43254707
        0x00018710:    00880088    ....    DCD    8913032
        0x00018714:    00dc0014    ....    DCD    14417940
        0x00018718:    02e802ac    ....    DCD    48759468
        0x0001871c:    036c0328    (.l.    DCD    57410344
        0x00018720:    00880088    ....    DCD    8913032
        0x00018724:    00880088    ....    DCD    8913032
        0x00018728:    00880088    ....    DCD    8913032
        0x0001872c:    00dc0014    ....    DCD    14417940
        0x00018730:    00dc0014    ....    DCD    14417940
    $t.38
        0x00018734:    6829        )h      LDR      r1,[r5,#0]
        0x00018736:    2000        .       MOVS     r0,#0
        0x00018738:    f001fef8    ....    BL       am_hal_gpio_pinconfig ; 0x1a52c
        0x0001873c:    6821        !h      LDR      r1,[r4,#0]
        0x0001873e:    204a        J       MOVS     r0,#0x4a
        0x00018740:    f001fef4    ....    BL       am_hal_gpio_pinconfig ; 0x1a52c
        0x00018744:    f2400aec    @...    MOVW     r10,#0xec
        0x00018748:    f24009d4    @...    MOVW     r9,#0xd4
        0x0001874c:    f24004d0    @...    MOVW     r4,#0xd0
        0x00018750:    f24005cc    @...    MOVW     r5,#0xcc
        0x00018754:    f04f0852    O.R.    MOV      r8,#0x52
        0x00018758:    f2c10a00    ....    MOVT     r10,#0x1000
        0x0001875c:    f04f0b4d    O.M.    MOV      r11,#0x4d
        0x00018760:    f2c10900    ....    MOVT     r9,#0x1000
        0x00018764:    264c        L&      MOVS     r6,#0x4c
        0x00018766:    f2c10400    ....    MOVT     r4,#0x1000
        0x0001876a:    274b        K'      MOVS     r7,#0x4b
        0x0001876c:    f2c10500    ....    MOVT     r5,#0x1000
        0x00018770:    e37f        ..      B        0x18e72 ; am_bsp_mspi_pins_enable + 2114
        0x00018772:    bf00        ..      NOP      
        0x00018774:    f24000bc    @...    MOVW     r0,#0xbc
        0x00018778:    f2c10000    ....    MOVT     r0,#0x1000
        0x0001877c:    6801        .h      LDR      r1,[r0,#0]
        0x0001877e:    2022        "       MOVS     r0,#0x22
        0x00018780:    f001fed4    ....    BL       am_hal_gpio_pinconfig ; 0x1a52c
        0x00018784:    f24000b8    @...    MOVW     r0,#0xb8
        0x00018788:    f2c10000    ....    MOVT     r0,#0x1000
        0x0001878c:    6801        .h      LDR      r1,[r0,#0]
        0x0001878e:    2023        #       MOVS     r0,#0x23
        0x00018790:    f001fecc    ....    BL       am_hal_gpio_pinconfig ; 0x1a52c
        0x00018794:    2022        "       MOVS     r0,#0x22
        0x00018796:    2100        .!      MOVS     r1,#0
        0x00018798:    f001fef4    ....    BL       am_hal_gpio_state_write ; 0x1a584
        0x0001879c:    2023        #       MOVS     r0,#0x23
        0x0001879e:    2100        .!      MOVS     r1,#0
        0x000187a0:    f001fef0    ....    BL       am_hal_gpio_state_write ; 0x1a584
        0x000187a4:    ea4f0077    O.w.    ROR      r0,r7,#1
        0x000187a8:    280c        .(      CMP      r0,#0xc
        0x000187aa:    d837        7.      BHI      0x1881c ; am_bsp_mspi_pins_enable + 492
        0x000187ac:    e8dff010    ....    TBH      [pc,r0,LSL #1]
    $d.39
        0x000187b0:    003601da    ..6.    DCD    3539418
        0x000187b4:    01fa000e    ....    DCD    33161230
        0x000187b8:    0036003a    :.6.    DCD    3539002
        0x000187bc:    00360036    6.6.    DCD    3538998
        0x000187c0:    000e000e    ....    DCD    917518
        0x000187c4:    003a0036    6.:.    DCD    3801142
        0x000187c8:    bf00003a    :...    DCD    3204448314
    $t.40
        0x000187cc:    f24000f0    @...    MOVW     r0,#0xf0
        0x000187d0:    f2c10000    ....    MOVT     r0,#0x1000
        0x000187d4:    6801        .h      LDR      r1,[r0,#0]
        0x000187d6:    2038        8       MOVS     r0,#0x38
        0x000187d8:    f001fea8    ....    BL       am_hal_gpio_pinconfig ; 0x1a52c
        0x000187dc:    f24000f4    @...    MOVW     r0,#0xf4
        0x000187e0:    f2c10000    ....    MOVT     r0,#0x1000
        0x000187e4:    6801        .h      LDR      r1,[r0,#0]
        0x000187e6:    2025        %       MOVS     r0,#0x25
        0x000187e8:    f001fea0    ....    BL       am_hal_gpio_pinconfig ; 0x1a52c
        0x000187ec:    f2401a18    @...    MOVW     r10,#0x118
        0x000187f0:    f2401900    @...    MOVW     r9,#0x100
        0x000187f4:    f24004fc    @...    MOVW     r4,#0xfc
        0x000187f8:    f24005f8    @...    MOVW     r5,#0xf8
        0x000187fc:    f04f082d    O.-.    MOV      r8,#0x2d
        0x00018800:    f2c10a00    ....    MOVT     r10,#0x1000
        0x00018804:    f04f0b28    O.(.    MOV      r11,#0x28
        0x00018808:    f2c10900    ....    MOVT     r9,#0x1000
        0x0001880c:    2627        '&      MOVS     r6,#0x27
        0x0001880e:    f2c10400    ....    MOVT     r4,#0x1000
        0x00018812:    2726        &'      MOVS     r7,#0x26
        0x00018814:    f2c10500    ....    MOVT     r5,#0x1000
        0x00018818:    e32b        +.      B        0x18e72 ; am_bsp_mspi_pins_enable + 2114
        0x0001881a:    bf00        ..      NOP      
        0x0001881c:    b001        ..      ADD      sp,sp,#4
        0x0001881e:    e8bd8ff0    ....    POP      {r4-r11,pc}
        0x00018822:    bf00        ..      NOP      
        0x00018824:    f24000f0    @...    MOVW     r0,#0xf0
        0x00018828:    f2c10000    ....    MOVT     r0,#0x1000
        0x0001882c:    6801        .h      LDR      r1,[r0,#0]
        0x0001882e:    2038        8       MOVS     r0,#0x38
        0x00018830:    f001fe7c    ..|.    BL       am_hal_gpio_pinconfig ; 0x1a52c
        0x00018834:    f24000f4    @...    MOVW     r0,#0xf4
        0x00018838:    f2c10000    ....    MOVT     r0,#0x1000
        0x0001883c:    6801        .h      LDR      r1,[r0,#0]
        0x0001883e:    2025        %       MOVS     r0,#0x25
        0x00018840:    f001fe74    ..t.    BL       am_hal_gpio_pinconfig ; 0x1a52c
        0x00018844:    f24000f8    @...    MOVW     r0,#0xf8
        0x00018848:    f2c10000    ....    MOVT     r0,#0x1000
        0x0001884c:    6801        .h      LDR      r1,[r0,#0]
        0x0001884e:    2026        &       MOVS     r0,#0x26
        0x00018850:    f001fe6c    ..l.    BL       am_hal_gpio_pinconfig ; 0x1a52c
        0x00018854:    f24000fc    @...    MOVW     r0,#0xfc
        0x00018858:    f2c10000    ....    MOVT     r0,#0x1000
        0x0001885c:    6801        .h      LDR      r1,[r0,#0]
        0x0001885e:    2027        '       MOVS     r0,#0x27
        0x00018860:    f001fe64    ..d.    BL       am_hal_gpio_pinconfig ; 0x1a52c
        0x00018864:    f2401000    @...    MOVW     r0,#0x100
        0x00018868:    f2c10000    ....    MOVT     r0,#0x1000
        0x0001886c:    6801        .h      LDR      r1,[r0,#0]
        0x0001886e:    2028        (       MOVS     r0,#0x28
        0x00018870:    f001fe5c    ..\.    BL       am_hal_gpio_pinconfig ; 0x1a52c
        0x00018874:    f2401004    @...    MOVW     r0,#0x104
        0x00018878:    f2c10000    ....    MOVT     r0,#0x1000
        0x0001887c:    6801        .h      LDR      r1,[r0,#0]
        0x0001887e:    2029        )       MOVS     r0,#0x29
        0x00018880:    f001fe54    ..T.    BL       am_hal_gpio_pinconfig ; 0x1a52c
        0x00018884:    f2401008    @...    MOVW     r0,#0x108
        0x00018888:    f2c10000    ....    MOVT     r0,#0x1000
        0x0001888c:    6801        .h      LDR      r1,[r0,#0]
        0x0001888e:    202a        *       MOVS     r0,#0x2a
        0x00018890:    f001fe4c    ..L.    BL       am_hal_gpio_pinconfig ; 0x1a52c
        0x00018894:    f2401a14    @...    MOVW     r10,#0x114
        0x00018898:    f2401918    @...    MOVW     r9,#0x118
        0x0001889c:    f2401410    @...    MOVW     r4,#0x110
        0x000188a0:    f240150c    @...    MOVW     r5,#0x10c
        0x000188a4:    f04f082e    O...    MOV      r8,#0x2e
        0x000188a8:    f2c10a00    ....    MOVT     r10,#0x1000
        0x000188ac:    f04f0b2d    O.-.    MOV      r11,#0x2d
        0x000188b0:    f2c10900    ....    MOVT     r9,#0x1000
        0x000188b4:    262c        ,&      MOVS     r6,#0x2c
        0x000188b6:    f2c10400    ....    MOVT     r4,#0x1000
        0x000188ba:    272b        +'      MOVS     r7,#0x2b
        0x000188bc:    f2c10500    ....    MOVT     r5,#0x1000
        0x000188c0:    e2d7        ..      B        0x18e72 ; am_bsp_mspi_pins_enable + 2114
        0x000188c2:    bf00        ..      NOP      
        0x000188c4:    f24000c4    @...    MOVW     r0,#0xc4
        0x000188c8:    f2c10000    ....    MOVT     r0,#0x1000
        0x000188cc:    6801        .h      LDR      r1,[r0,#0]
        0x000188ce:    2056        V       MOVS     r0,#0x56
        0x000188d0:    f001fe2c    ..,.    BL       am_hal_gpio_pinconfig ; 0x1a52c
        0x000188d4:    6821        !h      LDR      r1,[r4,#0]
        0x000188d6:    204a        J       MOVS     r0,#0x4a
        0x000188d8:    f001fe28    ..(.    BL       am_hal_gpio_pinconfig ; 0x1a52c
        0x000188dc:    f2400aec    @...    MOVW     r10,#0xec
        0x000188e0:    f24009d4    @...    MOVW     r9,#0xd4
        0x000188e4:    f24004d0    @...    MOVW     r4,#0xd0
        0x000188e8:    f24005cc    @...    MOVW     r5,#0xcc
        0x000188ec:    f04f0852    O.R.    MOV      r8,#0x52
        0x000188f0:    f2c10a00    ....    MOVT     r10,#0x1000
        0x000188f4:    f04f0b4d    O.M.    MOV      r11,#0x4d
        0x000188f8:    f2c10900    ....    MOVT     r9,#0x1000
        0x000188fc:    264c        L&      MOVS     r6,#0x4c
        0x000188fe:    f2c10400    ....    MOVT     r4,#0x1000
        0x00018902:    274b        K'      MOVS     r7,#0x4b
        0x00018904:    f2c10500    ....    MOVT     r5,#0x1000
        0x00018908:    e2b3        ..      B        0x18e72 ; am_bsp_mspi_pins_enable + 2114
        0x0001890a:    bf00        ..      NOP      
        0x0001890c:    6829        )h      LDR      r1,[r5,#0]
        0x0001890e:    2039        9       MOVS     r0,#0x39
        0x00018910:    f001fe0c    ....    BL       am_hal_gpio_pinconfig ; 0x1a52c
        0x00018914:    6821        !h      LDR      r1,[r4,#0]
        0x00018916:    2040        @       MOVS     r0,#0x40
        0x00018918:    f001fe08    ....    BL       am_hal_gpio_pinconfig ; 0x1a52c
        0x0001891c:    f8d91000    ....    LDR      r1,[r9,#0]
        0x00018920:    2041        A       MOVS     r0,#0x41
        0x00018922:    f001fe03    ....    BL       am_hal_gpio_pinconfig ; 0x1a52c
        0x00018926:    f2401040    @.@.    MOVW     r0,#0x140
        0x0001892a:    f2c10000    ....    MOVT     r0,#0x1000
        0x0001892e:    6801        .h      LDR      r1,[r0,#0]
        0x00018930:    2042        B       MOVS     r0,#0x42
        0x00018932:    f001fdfb    ....    BL       am_hal_gpio_pinconfig ; 0x1a52c
        0x00018936:    f2401044    @.D.    MOVW     r0,#0x144
        0x0001893a:    f2c10000    ....    MOVT     r0,#0x1000
        0x0001893e:    6801        .h      LDR      r1,[r0,#0]
        0x00018940:    2043        C       MOVS     r0,#0x43
        0x00018942:    f001fdf3    ....    BL       am_hal_gpio_pinconfig ; 0x1a52c
        0x00018946:    f2401048    @.H.    MOVW     r0,#0x148
        0x0001894a:    f2c10000    ....    MOVT     r0,#0x1000
        0x0001894e:    6801        .h      LDR      r1,[r0,#0]
        0x00018950:    2044        D       MOVS     r0,#0x44
        0x00018952:    f001fdeb    ....    BL       am_hal_gpio_pinconfig ; 0x1a52c
        0x00018956:    f240104c    @.L.    MOVW     r0,#0x14c
        0x0001895a:    f2c10000    ....    MOVT     r0,#0x1000
        0x0001895e:    6801        .h      LDR      r1,[r0,#0]
        0x00018960:    2045        E       MOVS     r0,#0x45
        0x00018962:    f001fde3    ....    BL       am_hal_gpio_pinconfig ; 0x1a52c
        0x00018966:    f2401a60    @.`.    MOVW     r10,#0x160
        0x0001896a:    f2401968    @.h.    MOVW     r9,#0x168
        0x0001896e:    f2401454    @.T.    MOVW     r4,#0x154
        0x00018972:    f2401550    @.P.    MOVW     r5,#0x150
        0x00018976:    f04f0849    O.I.    MOV      r8,#0x49
        0x0001897a:    f2c10a00    ....    MOVT     r10,#0x1000
        0x0001897e:    f04f0b48    O.H.    MOV      r11,#0x48
        0x00018982:    f2c10900    ....    MOVT     r9,#0x1000
        0x00018986:    2647        G&      MOVS     r6,#0x47
        0x00018988:    f2c10400    ....    MOVT     r4,#0x1000
        0x0001898c:    2746        F'      MOVS     r7,#0x46
        0x0001898e:    f2c10500    ....    MOVT     r5,#0x1000
        0x00018992:    e26e        n.      B        0x18e72 ; am_bsp_mspi_pins_enable + 2114
        0x00018994:    f24000bc    @...    MOVW     r0,#0xbc
        0x00018998:    f2c10000    ....    MOVT     r0,#0x1000
        0x0001899c:    6801        .h      LDR      r1,[r0,#0]
        0x0001899e:    2022        "       MOVS     r0,#0x22
        0x000189a0:    f001fdc4    ....    BL       am_hal_gpio_pinconfig ; 0x1a52c
        0x000189a4:    f24000b8    @...    MOVW     r0,#0xb8
        0x000189a8:    f2c10000    ....    MOVT     r0,#0x1000
        0x000189ac:    6801        .h      LDR      r1,[r0,#0]
        0x000189ae:    2023        #       MOVS     r0,#0x23
        0x000189b0:    f001fdbc    ....    BL       am_hal_gpio_pinconfig ; 0x1a52c
        0x000189b4:    2022        "       MOVS     r0,#0x22
        0x000189b6:    2101        .!      MOVS     r1,#1
        0x000189b8:    f001fde4    ....    BL       am_hal_gpio_state_write ; 0x1a584
        0x000189bc:    2023        #       MOVS     r0,#0x23
        0x000189be:    2100        .!      MOVS     r1,#0
        0x000189c0:    f001fde0    ....    BL       am_hal_gpio_state_write ; 0x1a584
        0x000189c4:    6829        )h      LDR      r1,[r5,#0]
        0x000189c6:    2039        9       MOVS     r0,#0x39
        0x000189c8:    f001fdb0    ....    BL       am_hal_gpio_pinconfig ; 0x1a52c
        0x000189cc:    6821        !h      LDR      r1,[r4,#0]
        0x000189ce:    2040        @       MOVS     r0,#0x40
        0x000189d0:    f001fdac    ....    BL       am_hal_gpio_pinconfig ; 0x1a52c
        0x000189d4:    f8d91000    ....    LDR      r1,[r9,#0]
        0x000189d8:    2041        A       MOVS     r0,#0x41
        0x000189da:    f001fda7    ....    BL       am_hal_gpio_pinconfig ; 0x1a52c
        0x000189de:    f2401040    @.@.    MOVW     r0,#0x140
        0x000189e2:    f2c10000    ....    MOVT     r0,#0x1000
        0x000189e6:    6801        .h      LDR      r1,[r0,#0]
        0x000189e8:    2042        B       MOVS     r0,#0x42
        0x000189ea:    f001fd9f    ....    BL       am_hal_gpio_pinconfig ; 0x1a52c
        0x000189ee:    f2401044    @.D.    MOVW     r0,#0x144
        0x000189f2:    f2c10000    ....    MOVT     r0,#0x1000
        0x000189f6:    6801        .h      LDR      r1,[r0,#0]
        0x000189f8:    2043        C       MOVS     r0,#0x43
        0x000189fa:    f001fd97    ....    BL       am_hal_gpio_pinconfig ; 0x1a52c
        0x000189fe:    f2401048    @.H.    MOVW     r0,#0x148
        0x00018a02:    f2c10000    ....    MOVT     r0,#0x1000
        0x00018a06:    6801        .h      LDR      r1,[r0,#0]
        0x00018a08:    2044        D       MOVS     r0,#0x44
        0x00018a0a:    f001fd8f    ....    BL       am_hal_gpio_pinconfig ; 0x1a52c
        0x00018a0e:    f240104c    @.L.    MOVW     r0,#0x14c
        0x00018a12:    f2c10000    ....    MOVT     r0,#0x1000
        0x00018a16:    6801        .h      LDR      r1,[r0,#0]
        0x00018a18:    2045        E       MOVS     r0,#0x45
        0x00018a1a:    f001fd87    ....    BL       am_hal_gpio_pinconfig ; 0x1a52c
        0x00018a1e:    f2401050    @.P.    MOVW     r0,#0x150
        0x00018a22:    f2c10000    ....    MOVT     r0,#0x1000
        0x00018a26:    6801        .h      LDR      r1,[r0,#0]
        0x00018a28:    2046        F       MOVS     r0,#0x46
        0x00018a2a:    f001fd7f    ....    BL       am_hal_gpio_pinconfig ; 0x1a52c
        0x00018a2e:    f2401054    @.T.    MOVW     r0,#0x154
        0x00018a32:    f2c10000    ....    MOVT     r0,#0x1000
        0x00018a36:    6801        .h      LDR      r1,[r0,#0]
        0x00018a38:    2047        G       MOVS     r0,#0x47
        0x00018a3a:    f001fd77    ..w.    BL       am_hal_gpio_pinconfig ; 0x1a52c
        0x00018a3e:    f2401058    @.X.    MOVW     r0,#0x158
        0x00018a42:    f2c10000    ....    MOVT     r0,#0x1000
        0x00018a46:    6801        .h      LDR      r1,[r0,#0]
        0x00018a48:    2025        %       MOVS     r0,#0x25
        0x00018a4a:    f001fd6f    ..o.    BL       am_hal_gpio_pinconfig ; 0x1a52c
        0x00018a4e:    f240105c    @.\.    MOVW     r0,#0x15c
        0x00018a52:    f2c10000    ....    MOVT     r0,#0x1000
        0x00018a56:    6801        .h      LDR      r1,[r0,#0]
        0x00018a58:    2026        &       MOVS     r0,#0x26
        0x00018a5a:    f001fd67    ..g.    BL       am_hal_gpio_pinconfig ; 0x1a52c
        0x00018a5e:    f2401028    @.(.    MOVW     r0,#0x128
        0x00018a62:    f2c10000    ....    MOVT     r0,#0x1000
        0x00018a66:    6801        .h      LDR      r1,[r0,#0]
        0x00018a68:    2027        '       MOVS     r0,#0x27
        0x00018a6a:    f001fd5f    .._.    BL       am_hal_gpio_pinconfig ; 0x1a52c
        0x00018a6e:    f240102c    @.,.    MOVW     r0,#0x12c
        0x00018a72:    f2c10000    ....    MOVT     r0,#0x1000
        0x00018a76:    6801        .h      LDR      r1,[r0,#0]
        0x00018a78:    2028        (       MOVS     r0,#0x28
        0x00018a7a:    f001fd57    ..W.    BL       am_hal_gpio_pinconfig ; 0x1a52c
        0x00018a7e:    f2401030    @.0.    MOVW     r0,#0x130
        0x00018a82:    f2c10000    ....    MOVT     r0,#0x1000
        0x00018a86:    6801        .h      LDR      r1,[r0,#0]
        0x00018a88:    2029        )       MOVS     r0,#0x29
        0x00018a8a:    f001fd4f    ..O.    BL       am_hal_gpio_pinconfig ; 0x1a52c
        0x00018a8e:    f2401034    @.4.    MOVW     r0,#0x134
        0x00018a92:    f2c10000    ....    MOVT     r0,#0x1000
        0x00018a96:    6801        .h      LDR      r1,[r0,#0]
        0x00018a98:    202a        *       MOVS     r0,#0x2a
        0x00018a9a:    f001fd47    ..G.    BL       am_hal_gpio_pinconfig ; 0x1a52c
        0x00018a9e:    f2401038    @.8.    MOVW     r0,#0x138
        0x00018aa2:    f2c10000    ....    MOVT     r0,#0x1000
        0x00018aa6:    6801        .h      LDR      r1,[r0,#0]
        0x00018aa8:    202b        +       MOVS     r0,#0x2b
        0x00018aaa:    f001fd3f    ..?.    BL       am_hal_gpio_pinconfig ; 0x1a52c
        0x00018aae:    f2401a64    @.d.    MOVW     r10,#0x164
        0x00018ab2:    f2401960    @.`.    MOVW     r9,#0x160
        0x00018ab6:    f2401468    @.h.    MOVW     r4,#0x168
        0x00018aba:    f240153c    @.<.    MOVW     r5,#0x13c
        0x00018abe:    f04f082d    O.-.    MOV      r8,#0x2d
        0x00018ac2:    f2c10a00    ....    MOVT     r10,#0x1000
        0x00018ac6:    f04f0b49    O.I.    MOV      r11,#0x49
        0x00018aca:    f2c10900    ....    MOVT     r9,#0x1000
        0x00018ace:    2648        H&      MOVS     r6,#0x48
        0x00018ad0:    f2c10400    ....    MOVT     r4,#0x1000
        0x00018ad4:    272c        ,'      MOVS     r7,#0x2c
        0x00018ad6:    f2c10500    ....    MOVT     r5,#0x1000
        0x00018ada:    e1ca        ..      B        0x18e72 ; am_bsp_mspi_pins_enable + 2114
        0x00018adc:    6829        )h      LDR      r1,[r5,#0]
        0x00018ade:    2039        9       MOVS     r0,#0x39
        0x00018ae0:    f001fd24    ..$.    BL       am_hal_gpio_pinconfig ; 0x1a52c
        0x00018ae4:    6821        !h      LDR      r1,[r4,#0]
        0x00018ae6:    2040        @       MOVS     r0,#0x40
        0x00018ae8:    f001fd20    .. .    BL       am_hal_gpio_pinconfig ; 0x1a52c
        0x00018aec:    f8d91000    ....    LDR      r1,[r9,#0]
        0x00018af0:    2041        A       MOVS     r0,#0x41
        0x00018af2:    f001fd1b    ....    BL       am_hal_gpio_pinconfig ; 0x1a52c
        0x00018af6:    f2401040    @.@.    MOVW     r0,#0x140
        0x00018afa:    f2c10000    ....    MOVT     r0,#0x1000
        0x00018afe:    6801        .h      LDR      r1,[r0,#0]
        0x00018b00:    2042        B       MOVS     r0,#0x42
        0x00018b02:    f001fd13    ....    BL       am_hal_gpio_pinconfig ; 0x1a52c
        0x00018b06:    f2401044    @.D.    MOVW     r0,#0x144
        0x00018b0a:    f2c10000    ....    MOVT     r0,#0x1000
        0x00018b0e:    6801        .h      LDR      r1,[r0,#0]
        0x00018b10:    2043        C       MOVS     r0,#0x43
        0x00018b12:    f001fd0b    ....    BL       am_hal_gpio_pinconfig ; 0x1a52c
        0x00018b16:    f2401048    @.H.    MOVW     r0,#0x148
        0x00018b1a:    f2c10000    ....    MOVT     r0,#0x1000
        0x00018b1e:    6801        .h      LDR      r1,[r0,#0]
        0x00018b20:    2044        D       MOVS     r0,#0x44
        0x00018b22:    f001fd03    ....    BL       am_hal_gpio_pinconfig ; 0x1a52c
        0x00018b26:    f240104c    @.L.    MOVW     r0,#0x14c
        0x00018b2a:    f2c10000    ....    MOVT     r0,#0x1000
        0x00018b2e:    6801        .h      LDR      r1,[r0,#0]
        0x00018b30:    2045        E       MOVS     r0,#0x45
        0x00018b32:    f001fcfb    ....    BL       am_hal_gpio_pinconfig ; 0x1a52c
        0x00018b36:    f2401a60    @.`.    MOVW     r10,#0x160
        0x00018b3a:    f2401968    @.h.    MOVW     r9,#0x168
        0x00018b3e:    f2401454    @.T.    MOVW     r4,#0x154
        0x00018b42:    f2401550    @.P.    MOVW     r5,#0x150
        0x00018b46:    f04f0849    O.I.    MOV      r8,#0x49
        0x00018b4a:    f2c10a00    ....    MOVT     r10,#0x1000
        0x00018b4e:    f04f0b48    O.H.    MOV      r11,#0x48
        0x00018b52:    f2c10900    ....    MOVT     r9,#0x1000
        0x00018b56:    2647        G&      MOVS     r6,#0x47
        0x00018b58:    f2c10400    ....    MOVT     r4,#0x1000
        0x00018b5c:    2746        F'      MOVS     r7,#0x46
        0x00018b5e:    f2c10500    ....    MOVT     r5,#0x1000
        0x00018b62:    e186        ..      B        0x18e72 ; am_bsp_mspi_pins_enable + 2114
        0x00018b64:    f24000f0    @...    MOVW     r0,#0xf0
        0x00018b68:    f2c10000    ....    MOVT     r0,#0x1000
        0x00018b6c:    6801        .h      LDR      r1,[r0,#0]
        0x00018b6e:    2038        8       MOVS     r0,#0x38
        0x00018b70:    f001fcdc    ....    BL       am_hal_gpio_pinconfig ; 0x1a52c
        0x00018b74:    f2401a14    @...    MOVW     r10,#0x114
        0x00018b78:    f2401918    @...    MOVW     r9,#0x118
        0x00018b7c:    f24004f8    @...    MOVW     r4,#0xf8
        0x00018b80:    f24005f4    @...    MOVW     r5,#0xf4
        0x00018b84:    f04f082e    O...    MOV      r8,#0x2e
        0x00018b88:    f2c10a00    ....    MOVT     r10,#0x1000
        0x00018b8c:    f04f0b2d    O.-.    MOV      r11,#0x2d
        0x00018b90:    f2c10900    ....    MOVT     r9,#0x1000
        0x00018b94:    2626        &&      MOVS     r6,#0x26
        0x00018b96:    f2c10400    ....    MOVT     r4,#0x1000
        0x00018b9a:    2725        %'      MOVS     r7,#0x25
        0x00018b9c:    f2c10500    ....    MOVT     r5,#0x1000
        0x00018ba0:    e167        g.      B        0x18e72 ; am_bsp_mspi_pins_enable + 2114
        0x00018ba2:    bf00        ..      NOP      
        0x00018ba4:    f24000f0    @...    MOVW     r0,#0xf0
        0x00018ba8:    f2c10000    ....    MOVT     r0,#0x1000
        0x00018bac:    6801        .h      LDR      r1,[r0,#0]
        0x00018bae:    2038        8       MOVS     r0,#0x38
        0x00018bb0:    f001fcbc    ....    BL       am_hal_gpio_pinconfig ; 0x1a52c
        0x00018bb4:    f24000f4    @...    MOVW     r0,#0xf4
        0x00018bb8:    f2c10000    ....    MOVT     r0,#0x1000
        0x00018bbc:    6801        .h      LDR      r1,[r0,#0]
        0x00018bbe:    2025        %       MOVS     r0,#0x25
        0x00018bc0:    f001fcb4    ....    BL       am_hal_gpio_pinconfig ; 0x1a52c
        0x00018bc4:    f24000f8    @...    MOVW     r0,#0xf8
        0x00018bc8:    f2c10000    ....    MOVT     r0,#0x1000
        0x00018bcc:    6801        .h      LDR      r1,[r0,#0]
        0x00018bce:    2026        &       MOVS     r0,#0x26
        0x00018bd0:    f001fcac    ....    BL       am_hal_gpio_pinconfig ; 0x1a52c
        0x00018bd4:    f24000fc    @...    MOVW     r0,#0xfc
        0x00018bd8:    f2c10000    ....    MOVT     r0,#0x1000
        0x00018bdc:    6801        .h      LDR      r1,[r0,#0]
        0x00018bde:    2027        '       MOVS     r0,#0x27
        0x00018be0:    f001fca4    ....    BL       am_hal_gpio_pinconfig ; 0x1a52c
        0x00018be4:    f2401000    @...    MOVW     r0,#0x100
        0x00018be8:    f2c10000    ....    MOVT     r0,#0x1000
        0x00018bec:    6801        .h      LDR      r1,[r0,#0]
        0x00018bee:    2028        (       MOVS     r0,#0x28
        0x00018bf0:    f001fc9c    ....    BL       am_hal_gpio_pinconfig ; 0x1a52c
        0x00018bf4:    f2401004    @...    MOVW     r0,#0x104
        0x00018bf8:    f2c10000    ....    MOVT     r0,#0x1000
        0x00018bfc:    6801        .h      LDR      r1,[r0,#0]
        0x00018bfe:    2029        )       MOVS     r0,#0x29
        0x00018c00:    f001fc94    ....    BL       am_hal_gpio_pinconfig ; 0x1a52c
        0x00018c04:    f2401a18    @...    MOVW     r10,#0x118
        0x00018c08:    f2401910    @...    MOVW     r9,#0x110
        0x00018c0c:    f240140c    @...    MOVW     r4,#0x10c
        0x00018c10:    f2401508    @...    MOVW     r5,#0x108
        0x00018c14:    f04f082d    O.-.    MOV      r8,#0x2d
        0x00018c18:    f2c10a00    ....    MOVT     r10,#0x1000
        0x00018c1c:    f04f0b2c    O.,.    MOV      r11,#0x2c
        0x00018c20:    f2c10900    ....    MOVT     r9,#0x1000
        0x00018c24:    262b        +&      MOVS     r6,#0x2b
        0x00018c26:    f2c10400    ....    MOVT     r4,#0x1000
        0x00018c2a:    272a        *'      MOVS     r7,#0x2a
        0x00018c2c:    f2c10500    ....    MOVT     r5,#0x1000
        0x00018c30:    e11f        ..      B        0x18e72 ; am_bsp_mspi_pins_enable + 2114
        0x00018c32:    bf00        ..      NOP      
        0x00018c34:    f2400aec    @...    MOVW     r10,#0xec
        0x00018c38:    f24009cc    @...    MOVW     r9,#0xcc
        0x00018c3c:    f24004c8    @...    MOVW     r4,#0xc8
        0x00018c40:    f24005c4    @...    MOVW     r5,#0xc4
        0x00018c44:    f04f0852    O.R.    MOV      r8,#0x52
        0x00018c48:    f2c10a00    ....    MOVT     r10,#0x1000
        0x00018c4c:    f04f0b4b    O.K.    MOV      r11,#0x4b
        0x00018c50:    f2c10900    ....    MOVT     r9,#0x1000
        0x00018c54:    264a        J&      MOVS     r6,#0x4a
        0x00018c56:    f2c10400    ....    MOVT     r4,#0x1000
        0x00018c5a:    2756        V'      MOVS     r7,#0x56
        0x00018c5c:    f2c10500    ....    MOVT     r5,#0x1000
        0x00018c60:    e107        ..      B        0x18e72 ; am_bsp_mspi_pins_enable + 2114
        0x00018c62:    bf00        ..      NOP      
        0x00018c64:    6829        )h      LDR      r1,[r5,#0]
        0x00018c66:    2000        .       MOVS     r0,#0
        0x00018c68:    f001fc60    ..`.    BL       am_hal_gpio_pinconfig ; 0x1a52c
        0x00018c6c:    6821        !h      LDR      r1,[r4,#0]
        0x00018c6e:    204a        J       MOVS     r0,#0x4a
        0x00018c70:    f001fc5c    ..\.    BL       am_hal_gpio_pinconfig ; 0x1a52c
        0x00018c74:    f8d91000    ....    LDR      r1,[r9,#0]
        0x00018c78:    204b        K       MOVS     r0,#0x4b
        0x00018c7a:    f001fc57    ..W.    BL       am_hal_gpio_pinconfig ; 0x1a52c
        0x00018c7e:    f24000d0    @...    MOVW     r0,#0xd0
        0x00018c82:    f2c10000    ....    MOVT     r0,#0x1000
        0x00018c86:    6801        .h      LDR      r1,[r0,#0]
        0x00018c88:    204c        L       MOVS     r0,#0x4c
        0x00018c8a:    f001fc4f    ..O.    BL       am_hal_gpio_pinconfig ; 0x1a52c
        0x00018c8e:    f24000d4    @...    MOVW     r0,#0xd4
        0x00018c92:    f2c10000    ....    MOVT     r0,#0x1000
        0x00018c96:    6801        .h      LDR      r1,[r0,#0]
        0x00018c98:    204d        M       MOVS     r0,#0x4d
        0x00018c9a:    f001fc47    ..G.    BL       am_hal_gpio_pinconfig ; 0x1a52c
        0x00018c9e:    f24000d8    @...    MOVW     r0,#0xd8
        0x00018ca2:    f2c10000    ....    MOVT     r0,#0x1000
        0x00018ca6:    6801        .h      LDR      r1,[r0,#0]
        0x00018ca8:    204e        N       MOVS     r0,#0x4e
        0x00018caa:    f001fc3f    ..?.    BL       am_hal_gpio_pinconfig ; 0x1a52c
        0x00018cae:    f2400aec    @...    MOVW     r10,#0xec
        0x00018cb2:    f24009e4    @...    MOVW     r9,#0xe4
        0x00018cb6:    f24004e0    @...    MOVW     r4,#0xe0
        0x00018cba:    f24005dc    @...    MOVW     r5,#0xdc
        0x00018cbe:    f04f0852    O.R.    MOV      r8,#0x52
        0x00018cc2:    f2c10a00    ....    MOVT     r10,#0x1000
        0x00018cc6:    f04f0b51    O.Q.    MOV      r11,#0x51
        0x00018cca:    f2c10900    ....    MOVT     r9,#0x1000
        0x00018cce:    2650        P&      MOVS     r6,#0x50
        0x00018cd0:    f2c10400    ....    MOVT     r4,#0x1000
        0x00018cd4:    274f        O'      MOVS     r7,#0x4f
        0x00018cd6:    f2c10500    ....    MOVT     r5,#0x1000
        0x00018cda:    e0ca        ..      B        0x18e72 ; am_bsp_mspi_pins_enable + 2114
        0x00018cdc:    f24000c4    @...    MOVW     r0,#0xc4
        0x00018ce0:    f2c10000    ....    MOVT     r0,#0x1000
        0x00018ce4:    6801        .h      LDR      r1,[r0,#0]
        0x00018ce6:    2056        V       MOVS     r0,#0x56
        0x00018ce8:    f001fc20    .. .    BL       am_hal_gpio_pinconfig ; 0x1a52c
        0x00018cec:    6821        !h      LDR      r1,[r4,#0]
        0x00018cee:    204a        J       MOVS     r0,#0x4a
        0x00018cf0:    f001fc1c    ....    BL       am_hal_gpio_pinconfig ; 0x1a52c
        0x00018cf4:    f8d91000    ....    LDR      r1,[r9,#0]
        0x00018cf8:    204b        K       MOVS     r0,#0x4b
        0x00018cfa:    f001fc17    ....    BL       am_hal_gpio_pinconfig ; 0x1a52c
        0x00018cfe:    f24000d0    @...    MOVW     r0,#0xd0
        0x00018d02:    f2c10000    ....    MOVT     r0,#0x1000
        0x00018d06:    6801        .h      LDR      r1,[r0,#0]
        0x00018d08:    204c        L       MOVS     r0,#0x4c
        0x00018d0a:    f001fc0f    ....    BL       am_hal_gpio_pinconfig ; 0x1a52c
        0x00018d0e:    f24000d4    @...    MOVW     r0,#0xd4
        0x00018d12:    f2c10000    ....    MOVT     r0,#0x1000
        0x00018d16:    6801        .h      LDR      r1,[r0,#0]
        0x00018d18:    204d        M       MOVS     r0,#0x4d
        0x00018d1a:    f001fc07    ....    BL       am_hal_gpio_pinconfig ; 0x1a52c
        0x00018d1e:    f24000d8    @...    MOVW     r0,#0xd8
        0x00018d22:    f2c10000    ....    MOVT     r0,#0x1000
        0x00018d26:    6801        .h      LDR      r1,[r0,#0]
        0x00018d28:    204e        N       MOVS     r0,#0x4e
        0x00018d2a:    f001fbff    ....    BL       am_hal_gpio_pinconfig ; 0x1a52c
        0x00018d2e:    f2400aec    @...    MOVW     r10,#0xec
        0x00018d32:    f24009e4    @...    MOVW     r9,#0xe4
        0x00018d36:    f24004e0    @...    MOVW     r4,#0xe0
        0x00018d3a:    f24005dc    @...    MOVW     r5,#0xdc
        0x00018d3e:    f04f0852    O.R.    MOV      r8,#0x52
        0x00018d42:    f2c10a00    ....    MOVT     r10,#0x1000
        0x00018d46:    f04f0b51    O.Q.    MOV      r11,#0x51
        0x00018d4a:    f2c10900    ....    MOVT     r9,#0x1000
        0x00018d4e:    2650        P&      MOVS     r6,#0x50
        0x00018d50:    f2c10400    ....    MOVT     r4,#0x1000
        0x00018d54:    274f        O'      MOVS     r7,#0x4f
        0x00018d56:    f2c10500    ....    MOVT     r5,#0x1000
        0x00018d5a:    e08a        ..      B        0x18e72 ; am_bsp_mspi_pins_enable + 2114
        0x00018d5c:    6829        )h      LDR      r1,[r5,#0]
        0x00018d5e:    2000        .       MOVS     r0,#0
        0x00018d60:    f001fbe4    ....    BL       am_hal_gpio_pinconfig ; 0x1a52c
        0x00018d64:    6821        !h      LDR      r1,[r4,#0]
        0x00018d66:    204a        J       MOVS     r0,#0x4a
        0x00018d68:    f001fbe0    ....    BL       am_hal_gpio_pinconfig ; 0x1a52c
        0x00018d6c:    f8d91000    ....    LDR      r1,[r9,#0]
        0x00018d70:    204b        K       MOVS     r0,#0x4b
        0x00018d72:    f001fbdb    ....    BL       am_hal_gpio_pinconfig ; 0x1a52c
        0x00018d76:    f24000d0    @...    MOVW     r0,#0xd0
        0x00018d7a:    f2c10000    ....    MOVT     r0,#0x1000
        0x00018d7e:    6801        .h      LDR      r1,[r0,#0]
        0x00018d80:    204c        L       MOVS     r0,#0x4c
        0x00018d82:    f001fbd3    ....    BL       am_hal_gpio_pinconfig ; 0x1a52c
        0x00018d86:    f24000d4    @...    MOVW     r0,#0xd4
        0x00018d8a:    f2c10000    ....    MOVT     r0,#0x1000
        0x00018d8e:    6801        .h      LDR      r1,[r0,#0]
        0x00018d90:    204d        M       MOVS     r0,#0x4d
        0x00018d92:    f001fbcb    ....    BL       am_hal_gpio_pinconfig ; 0x1a52c
        0x00018d96:    f24000d8    @...    MOVW     r0,#0xd8
        0x00018d9a:    f2c10000    ....    MOVT     r0,#0x1000
        0x00018d9e:    6801        .h      LDR      r1,[r0,#0]
        0x00018da0:    204e        N       MOVS     r0,#0x4e
        0x00018da2:    f001fbc3    ....    BL       am_hal_gpio_pinconfig ; 0x1a52c
        0x00018da6:    f24000dc    @...    MOVW     r0,#0xdc
        0x00018daa:    f2c10000    ....    MOVT     r0,#0x1000
        0x00018dae:    6801        .h      LDR      r1,[r0,#0]
        0x00018db0:    204f        O       MOVS     r0,#0x4f
        0x00018db2:    f001fbbb    ....    BL       am_hal_gpio_pinconfig ; 0x1a52c
        0x00018db6:    f2400ae8    @...    MOVW     r10,#0xe8
        0x00018dba:    f24009ec    @...    MOVW     r9,#0xec
        0x00018dbe:    f24004e4    @...    MOVW     r4,#0xe4
        0x00018dc2:    f24005e0    @...    MOVW     r5,#0xe0
        0x00018dc6:    f04f0853    O.S.    MOV      r8,#0x53
        0x00018dca:    f2c10a00    ....    MOVT     r10,#0x1000
        0x00018dce:    f04f0b52    O.R.    MOV      r11,#0x52
        0x00018dd2:    f2c10900    ....    MOVT     r9,#0x1000
        0x00018dd6:    2651        Q&      MOVS     r6,#0x51
        0x00018dd8:    f2c10400    ....    MOVT     r4,#0x1000
        0x00018ddc:    2750        P'      MOVS     r7,#0x50
        0x00018dde:    f2c10500    ....    MOVT     r5,#0x1000
        0x00018de2:    e046        F.      B        0x18e72 ; am_bsp_mspi_pins_enable + 2114
        0x00018de4:    f24000c4    @...    MOVW     r0,#0xc4
        0x00018de8:    f2c10000    ....    MOVT     r0,#0x1000
        0x00018dec:    6801        .h      LDR      r1,[r0,#0]
        0x00018dee:    2056        V       MOVS     r0,#0x56
        0x00018df0:    f001fb9c    ....    BL       am_hal_gpio_pinconfig ; 0x1a52c
        0x00018df4:    6821        !h      LDR      r1,[r4,#0]
        0x00018df6:    204a        J       MOVS     r0,#0x4a
        0x00018df8:    f001fb98    ....    BL       am_hal_gpio_pinconfig ; 0x1a52c
        0x00018dfc:    f8d91000    ....    LDR      r1,[r9,#0]
        0x00018e00:    204b        K       MOVS     r0,#0x4b
        0x00018e02:    f001fb93    ....    BL       am_hal_gpio_pinconfig ; 0x1a52c
        0x00018e06:    f24000d0    @...    MOVW     r0,#0xd0
        0x00018e0a:    f2c10000    ....    MOVT     r0,#0x1000
        0x00018e0e:    6801        .h      LDR      r1,[r0,#0]
        0x00018e10:    204c        L       MOVS     r0,#0x4c
        0x00018e12:    f001fb8b    ....    BL       am_hal_gpio_pinconfig ; 0x1a52c
        0x00018e16:    f24000d4    @...    MOVW     r0,#0xd4
        0x00018e1a:    f2c10000    ....    MOVT     r0,#0x1000
        0x00018e1e:    6801        .h      LDR      r1,[r0,#0]
        0x00018e20:    204d        M       MOVS     r0,#0x4d
        0x00018e22:    f001fb83    ....    BL       am_hal_gpio_pinconfig ; 0x1a52c
        0x00018e26:    f24000d8    @...    MOVW     r0,#0xd8
        0x00018e2a:    f2c10000    ....    MOVT     r0,#0x1000
        0x00018e2e:    6801        .h      LDR      r1,[r0,#0]
        0x00018e30:    204e        N       MOVS     r0,#0x4e
        0x00018e32:    f001fb7b    ..{.    BL       am_hal_gpio_pinconfig ; 0x1a52c
        0x00018e36:    f24000dc    @...    MOVW     r0,#0xdc
        0x00018e3a:    f2c10000    ....    MOVT     r0,#0x1000
        0x00018e3e:    6801        .h      LDR      r1,[r0,#0]
        0x00018e40:    204f        O       MOVS     r0,#0x4f
        0x00018e42:    f001fb73    ..s.    BL       am_hal_gpio_pinconfig ; 0x1a52c
        0x00018e46:    f2400ae8    @...    MOVW     r10,#0xe8
        0x00018e4a:    f24009ec    @...    MOVW     r9,#0xec
        0x00018e4e:    f24004e4    @...    MOVW     r4,#0xe4
        0x00018e52:    f24005e0    @...    MOVW     r5,#0xe0
        0x00018e56:    f04f0853    O.S.    MOV      r8,#0x53
        0x00018e5a:    f2c10a00    ....    MOVT     r10,#0x1000
        0x00018e5e:    f04f0b52    O.R.    MOV      r11,#0x52
        0x00018e62:    f2c10900    ....    MOVT     r9,#0x1000
        0x00018e66:    2651        Q&      MOVS     r6,#0x51
        0x00018e68:    f2c10400    ....    MOVT     r4,#0x1000
        0x00018e6c:    2750        P'      MOVS     r7,#0x50
        0x00018e6e:    f2c10500    ....    MOVT     r5,#0x1000
        0x00018e72:    6829        )h      LDR      r1,[r5,#0]
        0x00018e74:    4638        8F      MOV      r0,r7
        0x00018e76:    f001fb59    ..Y.    BL       am_hal_gpio_pinconfig ; 0x1a52c
        0x00018e7a:    6821        !h      LDR      r1,[r4,#0]
        0x00018e7c:    4630        0F      MOV      r0,r6
        0x00018e7e:    f001fb55    ..U.    BL       am_hal_gpio_pinconfig ; 0x1a52c
        0x00018e82:    f8d91000    ....    LDR      r1,[r9,#0]
        0x00018e86:    4658        XF      MOV      r0,r11
        0x00018e88:    f001fb50    ..P.    BL       am_hal_gpio_pinconfig ; 0x1a52c
        0x00018e8c:    f8da1000    ....    LDR      r1,[r10,#0]
        0x00018e90:    4640        @F      MOV      r0,r8
        0x00018e92:    b001        ..      ADD      sp,sp,#4
        0x00018e94:    e8bd4ff0    ...O    POP      {r4-r11,lr}
        0x00018e98:    f001bb48    ..H.    B.W      am_hal_gpio_pinconfig ; 0x1a52c
    am_device_command_read
        0x00018e9c:    b580        ..      PUSH     {r7,lr}
        0x00018e9e:    b08a        ..      SUB      sp,sp,#0x28
        0x00018ea0:    f8ddc034    ..4.    LDR      r12,[sp,#0x34]
        0x00018ea4:    f8ddc030    ..0.    LDR      r12,[sp,#0x30]
        0x00018ea8:    9009        ..      STR      r0,[sp,#0x24]
        0x00018eaa:    f8ad1022    ..".    STRH     r1,[sp,#0x22]
        0x00018eae:    f88d2021    ..!     STRB     r2,[sp,#0x21]
        0x00018eb2:    9307        ..      STR      r3,[sp,#0x1c]
        0x00018eb4:    980d        ..      LDR      r0,[sp,#0x34]
        0x00018eb6:    9001        ..      STR      r0,[sp,#4]
        0x00018eb8:    2000        .       MOVS     r0,#0
        0x00018eba:    f88d0008    ....    STRB     r0,[sp,#8]
        0x00018ebe:    f88d000a    ....    STRB     r0,[sp,#0xa]
        0x00018ec2:    f89d1021    ..!.    LDRB     r1,[sp,#0x21]
        0x00018ec6:    f0010101    ....    AND      r1,r1,#1
        0x00018eca:    f88d100b    ....    STRB     r1,[sp,#0xb]
        0x00018ece:    9907        ..      LDR      r1,[sp,#0x1c]
        0x00018ed0:    9103        ..      STR      r1,[sp,#0xc]
        0x00018ed2:    2101        .!      MOVS     r1,#1
        0x00018ed4:    f88d1010    ....    STRB     r1,[sp,#0x10]
        0x00018ed8:    f8bd2022    .."     LDRH     r2,[sp,#0x22]
        0x00018edc:    f8ad2012    ...     STRH     r2,[sp,#0x12]
        0x00018ee0:    f88d1014    ....    STRB     r1,[sp,#0x14]
        0x00018ee4:    f88d0009    ....    STRB     r0,[sp,#9]
        0x00018ee8:    f88d1015    ....    STRB     r1,[sp,#0x15]
        0x00018eec:    f88d0016    ....    STRB     r0,[sp,#0x16]
        0x00018ef0:    980c        ..      LDR      r0,[sp,#0x30]
        0x00018ef2:    9006        ..      STR      r0,[sp,#0x18]
        0x00018ef4:    9809        ..      LDR      r0,[sp,#0x24]
        0x00018ef6:    a901        ..      ADD      r1,sp,#4
        0x00018ef8:    f2442240    D.@"    MOV      r2,#0x4240
        0x00018efc:    f2c0020f    ....    MOVT     r2,#0xf
        0x00018f00:    f001fcf2    ....    BL       am_hal_mspi_blocking_transfer ; 0x1a8e8
        0x00018f04:    b00a        ..      ADD      sp,sp,#0x28
        0x00018f06:    bd80        ..      POP      {r7,pc}
    am_device_command_write
        0x00018f08:    b580        ..      PUSH     {r7,lr}
        0x00018f0a:    b08a        ..      SUB      sp,sp,#0x28
        0x00018f0c:    f8ddc034    ..4.    LDR      r12,[sp,#0x34]
        0x00018f10:    f8ddc030    ..0.    LDR      r12,[sp,#0x30]
        0x00018f14:    9009        ..      STR      r0,[sp,#0x24]
        0x00018f16:    f8ad1022    ..".    STRH     r1,[sp,#0x22]
        0x00018f1a:    f88d2021    ..!     STRB     r2,[sp,#0x21]
        0x00018f1e:    9307        ..      STR      r3,[sp,#0x1c]
        0x00018f20:    980d        ..      LDR      r0,[sp,#0x34]
        0x00018f22:    9001        ..      STR      r0,[sp,#4]
        0x00018f24:    2000        .       MOVS     r0,#0
        0x00018f26:    f88d0008    ....    STRB     r0,[sp,#8]
        0x00018f2a:    2101        .!      MOVS     r1,#1
        0x00018f2c:    f88d100a    ....    STRB     r1,[sp,#0xa]
        0x00018f30:    f89d2021    ..!     LDRB     r2,[sp,#0x21]
        0x00018f34:    f0020201    ....    AND      r2,r2,#1
        0x00018f38:    f88d200b    ...     STRB     r2,[sp,#0xb]
        0x00018f3c:    9a07        ..      LDR      r2,[sp,#0x1c]
        0x00018f3e:    9203        ..      STR      r2,[sp,#0xc]
        0x00018f40:    f88d1010    ....    STRB     r1,[sp,#0x10]
        0x00018f44:    f8bd1022    ..".    LDRH     r1,[sp,#0x22]
        0x00018f48:    f8ad1012    ....    STRH     r1,[sp,#0x12]
        0x00018f4c:    f88d0014    ....    STRB     r0,[sp,#0x14]
        0x00018f50:    f88d0009    ....    STRB     r0,[sp,#9]
        0x00018f54:    f88d0015    ....    STRB     r0,[sp,#0x15]
        0x00018f58:    f88d0016    ....    STRB     r0,[sp,#0x16]
        0x00018f5c:    980c        ..      LDR      r0,[sp,#0x30]
        0x00018f5e:    9006        ..      STR      r0,[sp,#0x18]
        0x00018f60:    9809        ..      LDR      r0,[sp,#0x24]
        0x00018f62:    a901        ..      ADD      r1,sp,#4
        0x00018f64:    f2442240    D.@"    MOV      r2,#0x4240
        0x00018f68:    f2c0020f    ....    MOVT     r2,#0xf
        0x00018f6c:    f001fcbc    ....    BL       am_hal_mspi_blocking_transfer ; 0x1a8e8
        0x00018f70:    b00a        ..      ADD      sp,sp,#0x28
        0x00018f72:    bd80        ..      POP      {r7,pc}
    am_devices_mspi_psram_aps12808l_apply_ddr_timing
        0x00018f74:    b580        ..      PUSH     {r7,lr}
        0x00018f76:    b086        ..      SUB      sp,sp,#0x18
        0x00018f78:    9005        ..      STR      r0,[sp,#0x14]
        0x00018f7a:    9104        ..      STR      r1,[sp,#0x10]
        0x00018f7c:    9805        ..      LDR      r0,[sp,#0x14]
        0x00018f7e:    9003        ..      STR      r0,[sp,#0xc]
        0x00018f80:    9803        ..      LDR      r0,[sp,#0xc]
        0x00018f82:    6800        .h      LDR      r0,[r0,#0]
        0x00018f84:    eb000280    ....    ADD      r2,r0,r0,LSL #2
        0x00018f88:    f2400160    @.`.    MOVW     r1,#0x60
        0x00018f8c:    f2c10100    ....    MOVT     r1,#0x1000
        0x00018f90:    eb010042    ..B.    ADD      r0,r1,r2,LSL #1
        0x00018f94:    f8511012    Q...    LDR      r1,[r1,r2,LSL #1]
        0x00018f98:    9100        ..      STR      r1,[sp,#0]
        0x00018f9a:    8901        ..      LDRH     r1,[r0,#8]
        0x00018f9c:    f8ad1008    ....    STRH     r1,[sp,#8]
        0x00018fa0:    6840        @h      LDR      r0,[r0,#4]
        0x00018fa2:    9001        ..      STR      r0,[sp,#4]
        0x00018fa4:    9804        ..      LDR      r0,[sp,#0x10]
        0x00018fa6:    6880        .h      LDR      r0,[r0,#8]
        0x00018fa8:    f88d0004    ....    STRB     r0,[sp,#4]
        0x00018fac:    9803        ..      LDR      r0,[sp,#0xc]
        0x00018fae:    6800        .h      LDR      r0,[r0,#0]
        0x00018fb0:    2802        .(      CMP      r0,#2
        0x00018fb2:    d105        ..      BNE      0x18fc0 ; am_devices_mspi_psram_aps12808l_apply_ddr_timing + 76
        0x00018fb4:    e7ff        ..      B        0x18fb6 ; am_devices_mspi_psram_aps12808l_apply_ddr_timing + 66
        0x00018fb6:    9804        ..      LDR      r0,[sp,#0x10]
        0x00018fb8:    68c0        .h      LDR      r0,[r0,#0xc]
        0x00018fba:    f88d0003    ....    STRB     r0,[sp,#3]
        0x00018fbe:    e7ff        ..      B        0x18fc0 ; am_devices_mspi_psram_aps12808l_apply_ddr_timing + 76
        0x00018fc0:    9803        ..      LDR      r0,[sp,#0xc]
        0x00018fc2:    6840        @h      LDR      r0,[r0,#4]
        0x00018fc4:    210b        .!      MOVS     r1,#0xb
        0x00018fc6:    466a        jF      MOV      r2,sp
        0x00018fc8:    f001fd86    ....    BL       am_hal_mspi_control ; 0x1aad8
        0x00018fcc:    b006        ..      ADD      sp,sp,#0x18
        0x00018fce:    bd80        ..      POP      {r7,pc}
    am_devices_mspi_psram_aps12808l_ddr_deinit
        0x00018fd0:    b580        ..      PUSH     {r7,lr}
        0x00018fd2:    b084        ..      SUB      sp,sp,#0x10
        0x00018fd4:    9002        ..      STR      r0,[sp,#8]
        0x00018fd6:    9802        ..      LDR      r0,[sp,#8]
        0x00018fd8:    9000        ..      STR      r0,[sp,#0]
        0x00018fda:    9800        ..      LDR      r0,[sp,#0]
        0x00018fdc:    6840        @h      LDR      r0,[r0,#4]
        0x00018fde:    f04f31ff    O..1    MOV      r1,#0xffffffff
        0x00018fe2:    f002fe77    ..w.    BL       am_hal_mspi_interrupt_disable ; 0x1bcd4
        0x00018fe6:    9001        ..      STR      r0,[sp,#4]
        0x00018fe8:    9801        ..      LDR      r0,[sp,#4]
        0x00018fea:    b118        ..      CBZ      r0,0x18ff4 ; am_devices_mspi_psram_aps12808l_ddr_deinit + 36
        0x00018fec:    e7ff        ..      B        0x18fee ; am_devices_mspi_psram_aps12808l_ddr_deinit + 30
        0x00018fee:    2001        .       MOVS     r0,#1
        0x00018ff0:    9003        ..      STR      r0,[sp,#0xc]
        0x00018ff2:    e032        2.      B        0x1905a ; am_devices_mspi_psram_aps12808l_ddr_deinit + 138
        0x00018ff4:    9800        ..      LDR      r0,[sp,#0]
        0x00018ff6:    6840        @h      LDR      r0,[r0,#4]
        0x00018ff8:    f04f31ff    O..1    MOV      r1,#0xffffffff
        0x00018ffc:    f002fe54    ..T.    BL       am_hal_mspi_interrupt_clear ; 0x1bca8
        0x00019000:    9001        ..      STR      r0,[sp,#4]
        0x00019002:    9801        ..      LDR      r0,[sp,#4]
        0x00019004:    b118        ..      CBZ      r0,0x1900e ; am_devices_mspi_psram_aps12808l_ddr_deinit + 62
        0x00019006:    e7ff        ..      B        0x19008 ; am_devices_mspi_psram_aps12808l_ddr_deinit + 56
        0x00019008:    2001        .       MOVS     r0,#1
        0x0001900a:    9003        ..      STR      r0,[sp,#0xc]
        0x0001900c:    e025        %.      B        0x1905a ; am_devices_mspi_psram_aps12808l_ddr_deinit + 138
        0x0001900e:    9800        ..      LDR      r0,[sp,#0]
        0x00019010:    6840        @h      LDR      r0,[r0,#4]
        0x00019012:    f002fd3f    ..?.    BL       am_hal_mspi_disable ; 0x1ba94
        0x00019016:    9001        ..      STR      r0,[sp,#4]
        0x00019018:    9801        ..      LDR      r0,[sp,#4]
        0x0001901a:    b118        ..      CBZ      r0,0x19024 ; am_devices_mspi_psram_aps12808l_ddr_deinit + 84
        0x0001901c:    e7ff        ..      B        0x1901e ; am_devices_mspi_psram_aps12808l_ddr_deinit + 78
        0x0001901e:    2001        .       MOVS     r0,#1
        0x00019020:    9003        ..      STR      r0,[sp,#0xc]
        0x00019022:    e01a        ..      B        0x1905a ; am_devices_mspi_psram_aps12808l_ddr_deinit + 138
        0x00019024:    9800        ..      LDR      r0,[sp,#0]
        0x00019026:    6840        @h      LDR      r0,[r0,#4]
        0x00019028:    2102        .!      MOVS     r1,#2
        0x0001902a:    2200        ."      MOVS     r2,#0
        0x0001902c:    f003f8d8    ....    BL       am_hal_mspi_power_control ; 0x1c1e0
        0x00019030:    b118        ..      CBZ      r0,0x1903a ; am_devices_mspi_psram_aps12808l_ddr_deinit + 106
        0x00019032:    e7ff        ..      B        0x19034 ; am_devices_mspi_psram_aps12808l_ddr_deinit + 100
        0x00019034:    2001        .       MOVS     r0,#1
        0x00019036:    9003        ..      STR      r0,[sp,#0xc]
        0x00019038:    e00f        ..      B        0x1905a ; am_devices_mspi_psram_aps12808l_ddr_deinit + 138
        0x0001903a:    9800        ..      LDR      r0,[sp,#0]
        0x0001903c:    6840        @h      LDR      r0,[r0,#4]
        0x0001903e:    f002fc35    ..5.    BL       am_hal_mspi_deinitialize ; 0x1b8ac
        0x00019042:    9001        ..      STR      r0,[sp,#4]
        0x00019044:    9801        ..      LDR      r0,[sp,#4]
        0x00019046:    b118        ..      CBZ      r0,0x19050 ; am_devices_mspi_psram_aps12808l_ddr_deinit + 128
        0x00019048:    e7ff        ..      B        0x1904a ; am_devices_mspi_psram_aps12808l_ddr_deinit + 122
        0x0001904a:    2001        .       MOVS     r0,#1
        0x0001904c:    9003        ..      STR      r0,[sp,#0xc]
        0x0001904e:    e004        ..      B        0x1905a ; am_devices_mspi_psram_aps12808l_ddr_deinit + 138
        0x00019050:    9900        ..      LDR      r1,[sp,#0]
        0x00019052:    2000        .       MOVS     r0,#0
        0x00019054:    7248        Hr      STRB     r0,[r1,#9]
        0x00019056:    9003        ..      STR      r0,[sp,#0xc]
        0x00019058:    e7ff        ..      B        0x1905a ; am_devices_mspi_psram_aps12808l_ddr_deinit + 138
        0x0001905a:    9803        ..      LDR      r0,[sp,#0xc]
        0x0001905c:    b004        ..      ADD      sp,sp,#0x10
        0x0001905e:    bd80        ..      POP      {r7,pc}
    am_devices_mspi_psram_aps12808l_ddr_disable_xip
        0x00019060:    b580        ..      PUSH     {r7,lr}
        0x00019062:    b084        ..      SUB      sp,sp,#0x10
        0x00019064:    9002        ..      STR      r0,[sp,#8]
        0x00019066:    9802        ..      LDR      r0,[sp,#8]
        0x00019068:    9000        ..      STR      r0,[sp,#0]
        0x0001906a:    9800        ..      LDR      r0,[sp,#0]
        0x0001906c:    6802        .h      LDR      r2,[r0,#0]
        0x0001906e:    6840        @h      LDR      r0,[r0,#4]
        0x00019070:    f2400180    @...    MOVW     r1,#0x80
        0x00019074:    f2c10100    ....    MOVT     r1,#0x1000
        0x00019078:    eb011202    ....    ADD      r2,r1,r2,LSL #4
        0x0001907c:    2111        .!      MOVS     r1,#0x11
        0x0001907e:    f001fd2b    ..+.    BL       am_hal_mspi_control ; 0x1aad8
        0x00019082:    9001        ..      STR      r0,[sp,#4]
        0x00019084:    9801        ..      LDR      r0,[sp,#4]
        0x00019086:    b118        ..      CBZ      r0,0x19090 ; am_devices_mspi_psram_aps12808l_ddr_disable_xip + 48
        0x00019088:    e7ff        ..      B        0x1908a ; am_devices_mspi_psram_aps12808l_ddr_disable_xip + 42
        0x0001908a:    2001        .       MOVS     r0,#1
        0x0001908c:    9003        ..      STR      r0,[sp,#0xc]
        0x0001908e:    e002        ..      B        0x19096 ; am_devices_mspi_psram_aps12808l_ddr_disable_xip + 54
        0x00019090:    2000        .       MOVS     r0,#0
        0x00019092:    9003        ..      STR      r0,[sp,#0xc]
        0x00019094:    e7ff        ..      B        0x19096 ; am_devices_mspi_psram_aps12808l_ddr_disable_xip + 54
        0x00019096:    9803        ..      LDR      r0,[sp,#0xc]
        0x00019098:    b004        ..      ADD      sp,sp,#0x10
        0x0001909a:    bd80        ..      POP      {r7,pc}
    am_devices_mspi_psram_aps12808l_ddr_enable_scrambling
        0x0001909c:    b580        ..      PUSH     {r7,lr}
        0x0001909e:    b084        ..      SUB      sp,sp,#0x10
        0x000190a0:    9002        ..      STR      r0,[sp,#8]
        0x000190a2:    9802        ..      LDR      r0,[sp,#8]
        0x000190a4:    9000        ..      STR      r0,[sp,#0]
        0x000190a6:    9800        ..      LDR      r0,[sp,#0]
        0x000190a8:    6802        .h      LDR      r2,[r0,#0]
        0x000190aa:    6840        @h      LDR      r0,[r0,#4]
        0x000190ac:    f2400180    @...    MOVW     r1,#0x80
        0x000190b0:    f2c10100    ....    MOVT     r1,#0x1000
        0x000190b4:    eb011202    ....    ADD      r2,r1,r2,LSL #4
        0x000190b8:    2107        .!      MOVS     r1,#7
        0x000190ba:    f001fd0d    ....    BL       am_hal_mspi_control ; 0x1aad8
        0x000190be:    9001        ..      STR      r0,[sp,#4]
        0x000190c0:    9801        ..      LDR      r0,[sp,#4]
        0x000190c2:    b118        ..      CBZ      r0,0x190cc ; am_devices_mspi_psram_aps12808l_ddr_enable_scrambling + 48
        0x000190c4:    e7ff        ..      B        0x190c6 ; am_devices_mspi_psram_aps12808l_ddr_enable_scrambling + 42
        0x000190c6:    2001        .       MOVS     r0,#1
        0x000190c8:    9003        ..      STR      r0,[sp,#0xc]
        0x000190ca:    e002        ..      B        0x190d2 ; am_devices_mspi_psram_aps12808l_ddr_enable_scrambling + 54
        0x000190cc:    2000        .       MOVS     r0,#0
        0x000190ce:    9003        ..      STR      r0,[sp,#0xc]
        0x000190d0:    e7ff        ..      B        0x190d2 ; am_devices_mspi_psram_aps12808l_ddr_enable_scrambling + 54
        0x000190d2:    9803        ..      LDR      r0,[sp,#0xc]
        0x000190d4:    b004        ..      ADD      sp,sp,#0x10
        0x000190d6:    bd80        ..      POP      {r7,pc}
    am_devices_mspi_psram_aps12808l_ddr_enable_xip
        0x000190d8:    b580        ..      PUSH     {r7,lr}
        0x000190da:    b084        ..      SUB      sp,sp,#0x10
        0x000190dc:    9002        ..      STR      r0,[sp,#8]
        0x000190de:    9802        ..      LDR      r0,[sp,#8]
        0x000190e0:    9000        ..      STR      r0,[sp,#0]
        0x000190e2:    9800        ..      LDR      r0,[sp,#0]
        0x000190e4:    6802        .h      LDR      r2,[r0,#0]
        0x000190e6:    6840        @h      LDR      r0,[r0,#4]
        0x000190e8:    f2400180    @...    MOVW     r1,#0x80
        0x000190ec:    f2c10100    ....    MOVT     r1,#0x1000
        0x000190f0:    eb011202    ....    ADD      r2,r1,r2,LSL #4
        0x000190f4:    210f        .!      MOVS     r1,#0xf
        0x000190f6:    f001fcef    ....    BL       am_hal_mspi_control ; 0x1aad8
        0x000190fa:    9001        ..      STR      r0,[sp,#4]
        0x000190fc:    9801        ..      LDR      r0,[sp,#4]
        0x000190fe:    b118        ..      CBZ      r0,0x19108 ; am_devices_mspi_psram_aps12808l_ddr_enable_xip + 48
        0x00019100:    e7ff        ..      B        0x19102 ; am_devices_mspi_psram_aps12808l_ddr_enable_xip + 42
        0x00019102:    2001        .       MOVS     r0,#1
        0x00019104:    9003        ..      STR      r0,[sp,#0xc]
        0x00019106:    e015        ..      B        0x19134 ; am_devices_mspi_psram_aps12808l_ddr_enable_xip + 92
        0x00019108:    9800        ..      LDR      r0,[sp,#0]
        0x0001910a:    6802        .h      LDR      r2,[r0,#0]
        0x0001910c:    6840        @h      LDR      r0,[r0,#4]
        0x0001910e:    f2400180    @...    MOVW     r1,#0x80
        0x00019112:    f2c10100    ....    MOVT     r1,#0x1000
        0x00019116:    eb011202    ....    ADD      r2,r1,r2,LSL #4
        0x0001911a:    2112        .!      MOVS     r1,#0x12
        0x0001911c:    f001fcdc    ....    BL       am_hal_mspi_control ; 0x1aad8
        0x00019120:    9001        ..      STR      r0,[sp,#4]
        0x00019122:    9801        ..      LDR      r0,[sp,#4]
        0x00019124:    b118        ..      CBZ      r0,0x1912e ; am_devices_mspi_psram_aps12808l_ddr_enable_xip + 86
        0x00019126:    e7ff        ..      B        0x19128 ; am_devices_mspi_psram_aps12808l_ddr_enable_xip + 80
        0x00019128:    2001        .       MOVS     r0,#1
        0x0001912a:    9003        ..      STR      r0,[sp,#0xc]
        0x0001912c:    e002        ..      B        0x19134 ; am_devices_mspi_psram_aps12808l_ddr_enable_xip + 92
        0x0001912e:    2000        .       MOVS     r0,#0
        0x00019130:    9003        ..      STR      r0,[sp,#0xc]
        0x00019132:    e7ff        ..      B        0x19134 ; am_devices_mspi_psram_aps12808l_ddr_enable_xip + 92
        0x00019134:    9803        ..      LDR      r0,[sp,#0xc]
        0x00019136:    b004        ..      ADD      sp,sp,#0x10
        0x00019138:    bd80        ..      POP      {r7,pc}
        0x0001913a:    0000        ..      MOVS     r0,r0
    am_devices_mspi_psram_aps12808l_ddr_init
        0x0001913c:    b580        ..      PUSH     {r7,lr}
        0x0001913e:    b09a        ..      SUB      sp,sp,#0x68
        0x00019140:    9018        ..      STR      r0,[sp,#0x60]
        0x00019142:    9117        ..      STR      r1,[sp,#0x5c]
        0x00019144:    9216        ..      STR      r2,[sp,#0x58]
        0x00019146:    9315        ..      STR      r3,[sp,#0x54]
        0x00019148:    2000        .       MOVS     r0,#0
        0x0001914a:    900c        ..      STR      r0,[sp,#0x30]
        0x0001914c:    9818        ..      LDR      r0,[sp,#0x60]
        0x0001914e:    2803        .(      CMP      r0,#3
        0x00019150:    d803        ..      BHI      0x1915a ; am_devices_mspi_psram_aps12808l_ddr_init + 30
        0x00019152:    e7ff        ..      B        0x19154 ; am_devices_mspi_psram_aps12808l_ddr_init + 24
        0x00019154:    9817        ..      LDR      r0,[sp,#0x5c]
        0x00019156:    b918        ..      CBNZ     r0,0x19160 ; am_devices_mspi_psram_aps12808l_ddr_init + 36
        0x00019158:    e7ff        ..      B        0x1915a ; am_devices_mspi_psram_aps12808l_ddr_init + 30
        0x0001915a:    2001        .       MOVS     r0,#1
        0x0001915c:    9019        ..      STR      r0,[sp,#0x64]
        0x0001915e:    e135        5.      B        0x193cc ; am_devices_mspi_psram_aps12808l_ddr_init + 656
        0x00019160:    f001f9bc    ....    BL       am_hal_fault_capture_enable ; 0x1a4dc
        0x00019164:    2000        .       MOVS     r0,#0
        0x00019166:    900c        ..      STR      r0,[sp,#0x30]
        0x00019168:    e7ff        ..      B        0x1916a ; am_devices_mspi_psram_aps12808l_ddr_init + 46
        0x0001916a:    980c        ..      LDR      r0,[sp,#0x30]
        0x0001916c:    2801        .(      CMP      r0,#1
        0x0001916e:    d813        ..      BHI      0x19198 ; am_devices_mspi_psram_aps12808l_ddr_init + 92
        0x00019170:    e7ff        ..      B        0x19172 ; am_devices_mspi_psram_aps12808l_ddr_init + 54
        0x00019172:    980c        ..      LDR      r0,[sp,#0x30]
        0x00019174:    eb000140    ..@.    ADD      r1,r0,r0,LSL #1
        0x00019178:    f6424004    B..@    MOV      r0,#0x2c04
        0x0001917c:    f2c10000    ....    MOVT     r0,#0x1000
        0x00019180:    eb000081    ....    ADD      r0,r0,r1,LSL #2
        0x00019184:    7a40        @z      LDRB     r0,[r0,#9]
        0x00019186:    07c0        ..      LSLS     r0,r0,#31
        0x00019188:    b908        ..      CBNZ     r0,0x1918e ; am_devices_mspi_psram_aps12808l_ddr_init + 82
        0x0001918a:    e7ff        ..      B        0x1918c ; am_devices_mspi_psram_aps12808l_ddr_init + 80
        0x0001918c:    e004        ..      B        0x19198 ; am_devices_mspi_psram_aps12808l_ddr_init + 92
        0x0001918e:    e7ff        ..      B        0x19190 ; am_devices_mspi_psram_aps12808l_ddr_init + 84
        0x00019190:    980c        ..      LDR      r0,[sp,#0x30]
        0x00019192:    3001        .0      ADDS     r0,#1
        0x00019194:    900c        ..      STR      r0,[sp,#0x30]
        0x00019196:    e7e8        ..      B        0x1916a ; am_devices_mspi_psram_aps12808l_ddr_init + 46
        0x00019198:    980c        ..      LDR      r0,[sp,#0x30]
        0x0001919a:    2802        .(      CMP      r0,#2
        0x0001919c:    d103        ..      BNE      0x191a6 ; am_devices_mspi_psram_aps12808l_ddr_init + 106
        0x0001919e:    e7ff        ..      B        0x191a0 ; am_devices_mspi_psram_aps12808l_ddr_init + 100
        0x000191a0:    2001        .       MOVS     r0,#1
        0x000191a2:    9019        ..      STR      r0,[sp,#0x64]
        0x000191a4:    e112        ..      B        0x193cc ; am_devices_mspi_psram_aps12808l_ddr_init + 656
        0x000191a6:    9817        ..      LDR      r0,[sp,#0x5c]
        0x000191a8:    7800        .x      LDRB     r0,[r0,#0]
        0x000191aa:    4601        .F      MOV      r1,r0
        0x000191ac:    9101        ..      STR      r1,[sp,#4]
        0x000191ae:    2808        .(      CMP      r0,#8
        0x000191b0:    d004        ..      BEQ      0x191bc ; am_devices_mspi_psram_aps12808l_ddr_init + 128
        0x000191b2:    e7ff        ..      B        0x191b4 ; am_devices_mspi_psram_aps12808l_ddr_init + 120
        0x000191b4:    9801        ..      LDR      r0,[sp,#4]
        0x000191b6:    2809        .(      CMP      r0,#9
        0x000191b8:    d009        ..      BEQ      0x191ce ; am_devices_mspi_psram_aps12808l_ddr_init + 146
        0x000191ba:    e011        ..      B        0x191e0 ; am_devices_mspi_psram_aps12808l_ddr_init + 164
        0x000191bc:    f2400120    @. .    MOVW     r1,#0x20
        0x000191c0:    f2c10100    ....    MOVT     r1,#0x1000
        0x000191c4:    a80e        ..      ADD      r0,sp,#0x38
        0x000191c6:    2216        ."      MOVS     r2,#0x16
        0x000191c8:    f7fff8be    ....    BL       __aeabi_memcpy ; 0x18348
        0x000191cc:    e00b        ..      B        0x191e6 ; am_devices_mspi_psram_aps12808l_ddr_init + 170
        0x000191ce:    f2400136    @.6.    MOVW     r1,#0x36
        0x000191d2:    f2c10100    ....    MOVT     r1,#0x1000
        0x000191d6:    a80e        ..      ADD      r0,sp,#0x38
        0x000191d8:    2216        ."      MOVS     r2,#0x16
        0x000191da:    f7fff8b5    ....    BL       __aeabi_memcpy ; 0x18348
        0x000191de:    e002        ..      B        0x191e6 ; am_devices_mspi_psram_aps12808l_ddr_init + 170
        0x000191e0:    2001        .       MOVS     r0,#1
        0x000191e2:    9019        ..      STR      r0,[sp,#0x64]
        0x000191e4:    e0f2        ..      B        0x193cc ; am_devices_mspi_psram_aps12808l_ddr_init + 656
        0x000191e6:    9817        ..      LDR      r0,[sp,#0x5c]
        0x000191e8:    7800        .x      LDRB     r0,[r0,#0]
        0x000191ea:    f88d0040    ..@.    STRB     r0,[sp,#0x40]
        0x000191ee:    9817        ..      LDR      r0,[sp,#0x5c]
        0x000191f0:    7840        @x      LDRB     r0,[r0,#1]
        0x000191f2:    f88d0043    ..C.    STRB     r0,[sp,#0x43]
        0x000191f6:    9818        ..      LDR      r0,[sp,#0x60]
        0x000191f8:    a90d        ..      ADD      r1,sp,#0x34
        0x000191fa:    f002fd2d    ..-.    BL       am_hal_mspi_initialize ; 0x1bc58
        0x000191fe:    b118        ..      CBZ      r0,0x19208 ; am_devices_mspi_psram_aps12808l_ddr_init + 204
        0x00019200:    e7ff        ..      B        0x19202 ; am_devices_mspi_psram_aps12808l_ddr_init + 198
        0x00019202:    2001        .       MOVS     r0,#1
        0x00019204:    9019        ..      STR      r0,[sp,#0x64]
        0x00019206:    e0e1        ..      B        0x193cc ; am_devices_mspi_psram_aps12808l_ddr_init + 656
        0x00019208:    980d        ..      LDR      r0,[sp,#0x34]
        0x0001920a:    2200        ."      MOVS     r2,#0
        0x0001920c:    4611        .F      MOV      r1,r2
        0x0001920e:    f002ffe7    ....    BL       am_hal_mspi_power_control ; 0x1c1e0
        0x00019212:    b118        ..      CBZ      r0,0x1921c ; am_devices_mspi_psram_aps12808l_ddr_init + 224
        0x00019214:    e7ff        ..      B        0x19216 ; am_devices_mspi_psram_aps12808l_ddr_init + 218
        0x00019216:    2001        .       MOVS     r0,#1
        0x00019218:    9019        ..      STR      r0,[sp,#0x64]
        0x0001921a:    e0d7        ..      B        0x193cc ; am_devices_mspi_psram_aps12808l_ddr_init + 656
        0x0001921c:    f642421c    B..B    MOV      r2,#0x2c1c
        0x00019220:    f2c10200    ....    MOVT     r2,#0x1000
        0x00019224:    6810        .h      LDR      r0,[r2,#0]
        0x00019226:    6851        Qh      LDR      r1,[r2,#4]
        0x00019228:    6892        .h      LDR      r2,[r2,#8]
        0x0001922a:    920b        ..      STR      r2,[sp,#0x2c]
        0x0001922c:    910a        ..      STR      r1,[sp,#0x28]
        0x0001922e:    9009        ..      STR      r0,[sp,#0x24]
        0x00019230:    9817        ..      LDR      r0,[sp,#0x5c]
        0x00019232:    6880        .h      LDR      r0,[r0,#8]
        0x00019234:    9009        ..      STR      r0,[sp,#0x24]
        0x00019236:    9817        ..      LDR      r0,[sp,#0x5c]
        0x00019238:    6840        @h      LDR      r0,[r0,#4]
        0x0001923a:    900a        ..      STR      r0,[sp,#0x28]
        0x0001923c:    980d        ..      LDR      r0,[sp,#0x34]
        0x0001923e:    a909        ..      ADD      r1,sp,#0x24
        0x00019240:    f001fbe2    ....    BL       am_hal_mspi_configure ; 0x1aa08
        0x00019244:    b118        ..      CBZ      r0,0x1924e ; am_devices_mspi_psram_aps12808l_ddr_init + 274
        0x00019246:    e7ff        ..      B        0x19248 ; am_devices_mspi_psram_aps12808l_ddr_init + 268
        0x00019248:    2001        .       MOVS     r0,#1
        0x0001924a:    9019        ..      STR      r0,[sp,#0x64]
        0x0001924c:    e0be        ..      B        0x193cc ; am_devices_mspi_psram_aps12808l_ddr_init + 656
        0x0001924e:    980d        ..      LDR      r0,[sp,#0x34]
        0x00019250:    a90e        ..      ADD      r1,sp,#0x38
        0x00019252:    f002fb45    ..E.    BL       am_hal_mspi_device_configure ; 0x1b8e0
        0x00019256:    b118        ..      CBZ      r0,0x19260 ; am_devices_mspi_psram_aps12808l_ddr_init + 292
        0x00019258:    e7ff        ..      B        0x1925a ; am_devices_mspi_psram_aps12808l_ddr_init + 286
        0x0001925a:    2001        .       MOVS     r0,#1
        0x0001925c:    9019        ..      STR      r0,[sp,#0x64]
        0x0001925e:    e0b5        ..      B        0x193cc ; am_devices_mspi_psram_aps12808l_ddr_init + 656
        0x00019260:    9918        ..      LDR      r1,[sp,#0x60]
        0x00019262:    f2400080    @...    MOVW     r0,#0x80
        0x00019266:    f2c10000    ....    MOVT     r0,#0x1000
        0x0001926a:    eb001c01    ....    ADD      r12,r0,r1,LSL #4
        0x0001926e:    0109        ..      LSLS     r1,r1,#4
        0x00019270:    f8dc2004    ...     LDR      r2,[r12,#4]
        0x00019274:    f8dc3008    ...0    LDR      r3,[r12,#8]
        0x00019278:    f8dcc00c    ....    LDR      r12,[r12,#0xc]
        0x0001927c:    f8cdc020    .. .    STR      r12,[sp,#0x20]
        0x00019280:    9307        ..      STR      r3,[sp,#0x1c]
        0x00019282:    9206        ..      STR      r2,[sp,#0x18]
        0x00019284:    5840        @X      LDR      r0,[r0,r1]
        0x00019286:    9005        ..      STR      r0,[sp,#0x14]
        0x00019288:    9817        ..      LDR      r0,[sp,#0x5c]
        0x0001928a:    68c0        .h      LDR      r0,[r0,#0xc]
        0x0001928c:    9005        ..      STR      r0,[sp,#0x14]
        0x0001928e:    9817        ..      LDR      r0,[sp,#0x5c]
        0x00019290:    6900        .i      LDR      r0,[r0,#0x10]
        0x00019292:    9006        ..      STR      r0,[sp,#0x18]
        0x00019294:    980d        ..      LDR      r0,[sp,#0x34]
        0x00019296:    210f        .!      MOVS     r1,#0xf
        0x00019298:    aa05        ..      ADD      r2,sp,#0x14
        0x0001929a:    f001fc1d    ....    BL       am_hal_mspi_control ; 0x1aad8
        0x0001929e:    9014        ..      STR      r0,[sp,#0x50]
        0x000192a0:    9814        ..      LDR      r0,[sp,#0x50]
        0x000192a2:    b118        ..      CBZ      r0,0x192ac ; am_devices_mspi_psram_aps12808l_ddr_init + 368
        0x000192a4:    e7ff        ..      B        0x192a6 ; am_devices_mspi_psram_aps12808l_ddr_init + 362
        0x000192a6:    2001        .       MOVS     r0,#1
        0x000192a8:    9019        ..      STR      r0,[sp,#0x64]
        0x000192aa:    e08f        ..      B        0x193cc ; am_devices_mspi_psram_aps12808l_ddr_init + 656
        0x000192ac:    9818        ..      LDR      r0,[sp,#0x60]
        0x000192ae:    eb000280    ....    ADD      r2,r0,r0,LSL #2
        0x000192b2:    f2400160    @.`.    MOVW     r1,#0x60
        0x000192b6:    f2c10100    ....    MOVT     r1,#0x1000
        0x000192ba:    eb010042    ..B.    ADD      r0,r1,r2,LSL #1
        0x000192be:    f8511012    Q...    LDR      r1,[r1,r2,LSL #1]
        0x000192c2:    9102        ..      STR      r1,[sp,#8]
        0x000192c4:    8901        ..      LDRH     r1,[r0,#8]
        0x000192c6:    f8ad1010    ....    STRH     r1,[sp,#0x10]
        0x000192ca:    6840        @h      LDR      r0,[r0,#4]
        0x000192cc:    9003        ..      STR      r0,[sp,#0xc]
        0x000192ce:    980d        ..      LDR      r0,[sp,#0x34]
        0x000192d0:    210b        .!      MOVS     r1,#0xb
        0x000192d2:    aa02        ..      ADD      r2,sp,#8
        0x000192d4:    f001fc00    ....    BL       am_hal_mspi_control ; 0x1aad8
        0x000192d8:    9014        ..      STR      r0,[sp,#0x50]
        0x000192da:    9814        ..      LDR      r0,[sp,#0x50]
        0x000192dc:    b118        ..      CBZ      r0,0x192e6 ; am_devices_mspi_psram_aps12808l_ddr_init + 426
        0x000192de:    e7ff        ..      B        0x192e0 ; am_devices_mspi_psram_aps12808l_ddr_init + 420
        0x000192e0:    2001        .       MOVS     r0,#1
        0x000192e2:    9019        ..      STR      r0,[sp,#0x64]
        0x000192e4:    e072        r.      B        0x193cc ; am_devices_mspi_psram_aps12808l_ddr_init + 656
        0x000192e6:    980d        ..      LDR      r0,[sp,#0x34]
        0x000192e8:    210a        .!      MOVS     r1,#0xa
        0x000192ea:    2200        ."      MOVS     r2,#0
        0x000192ec:    f001fbf4    ....    BL       am_hal_mspi_control ; 0x1aad8
        0x000192f0:    9014        ..      STR      r0,[sp,#0x50]
        0x000192f2:    9814        ..      LDR      r0,[sp,#0x50]
        0x000192f4:    b118        ..      CBZ      r0,0x192fe ; am_devices_mspi_psram_aps12808l_ddr_init + 450
        0x000192f6:    e7ff        ..      B        0x192f8 ; am_devices_mspi_psram_aps12808l_ddr_init + 444
        0x000192f8:    2001        .       MOVS     r0,#1
        0x000192fa:    9019        ..      STR      r0,[sp,#0x64]
        0x000192fc:    e066        f.      B        0x193cc ; am_devices_mspi_psram_aps12808l_ddr_init + 656
        0x000192fe:    980d        ..      LDR      r0,[sp,#0x34]
        0x00019300:    f002fc12    ....    BL       am_hal_mspi_enable ; 0x1bb28
        0x00019304:    b118        ..      CBZ      r0,0x1930e ; am_devices_mspi_psram_aps12808l_ddr_init + 466
        0x00019306:    e7ff        ..      B        0x19308 ; am_devices_mspi_psram_aps12808l_ddr_init + 460
        0x00019308:    2001        .       MOVS     r0,#1
        0x0001930a:    9019        ..      STR      r0,[sp,#0x64]
        0x0001930c:    e05e        ^.      B        0x193cc ; am_devices_mspi_psram_aps12808l_ddr_init + 656
        0x0001930e:    9818        ..      LDR      r0,[sp,#0x60]
        0x00019310:    f89d1040    ..@.    LDRB     r1,[sp,#0x40]
        0x00019314:    f7fff98c    ....    BL       am_bsp_mspi_pins_enable ; 0x18630
        0x00019318:    2096        .       MOVS     r0,#0x96
        0x0001931a:    f003fd51    ..Q.    BL       am_util_delay_us ; 0x1cdc0
        0x0001931e:    980d        ..      LDR      r0,[sp,#0x34]
        0x00019320:    f000fc02    ....    BL       am_devices_mspi_psram_aps12808l_reset ; 0x19b28
        0x00019324:    b118        ..      CBZ      r0,0x1932e ; am_devices_mspi_psram_aps12808l_ddr_init + 498
        0x00019326:    e7ff        ..      B        0x19328 ; am_devices_mspi_psram_aps12808l_ddr_init + 492
        0x00019328:    2001        .       MOVS     r0,#1
        0x0001932a:    9019        ..      STR      r0,[sp,#0x64]
        0x0001932c:    e04e        N.      B        0x193cc ; am_devices_mspi_psram_aps12808l_ddr_init + 656
        0x0001932e:    2002        .       MOVS     r0,#2
        0x00019330:    f003fd46    ..F.    BL       am_util_delay_us ; 0x1cdc0
        0x00019334:    980d        ..      LDR      r0,[sp,#0x34]
        0x00019336:    f000faa9    ....    BL       am_devices_mspi_psram_aps12808l_id ; 0x1988c
        0x0001933a:    b118        ..      CBZ      r0,0x19344 ; am_devices_mspi_psram_aps12808l_ddr_init + 520
        0x0001933c:    e7ff        ..      B        0x1933e ; am_devices_mspi_psram_aps12808l_ddr_init + 514
        0x0001933e:    2001        .       MOVS     r0,#1
        0x00019340:    9019        ..      STR      r0,[sp,#0x64]
        0x00019342:    e043        C.      B        0x193cc ; am_devices_mspi_psram_aps12808l_ddr_init + 656
        0x00019344:    980d        ..      LDR      r0,[sp,#0x34]
        0x00019346:    f44f51d4    O..Q    MOV      r1,#0x1a80
        0x0001934a:    f002fcad    ....    BL       am_hal_mspi_interrupt_clear ; 0x1bca8
        0x0001934e:    9014        ..      STR      r0,[sp,#0x50]
        0x00019350:    9814        ..      LDR      r0,[sp,#0x50]
        0x00019352:    b118        ..      CBZ      r0,0x1935c ; am_devices_mspi_psram_aps12808l_ddr_init + 544
        0x00019354:    e7ff        ..      B        0x19356 ; am_devices_mspi_psram_aps12808l_ddr_init + 538
        0x00019356:    2001        .       MOVS     r0,#1
        0x00019358:    9019        ..      STR      r0,[sp,#0x64]
        0x0001935a:    e037        7.      B        0x193cc ; am_devices_mspi_psram_aps12808l_ddr_init + 656
        0x0001935c:    980d        ..      LDR      r0,[sp,#0x34]
        0x0001935e:    f44f51d4    O..Q    MOV      r1,#0x1a80
        0x00019362:    f002fccf    ....    BL       am_hal_mspi_interrupt_enable ; 0x1bd04
        0x00019366:    9014        ..      STR      r0,[sp,#0x50]
        0x00019368:    9814        ..      LDR      r0,[sp,#0x50]
        0x0001936a:    b118        ..      CBZ      r0,0x19374 ; am_devices_mspi_psram_aps12808l_ddr_init + 568
        0x0001936c:    e7ff        ..      B        0x1936e ; am_devices_mspi_psram_aps12808l_ddr_init + 562
        0x0001936e:    2001        .       MOVS     r0,#1
        0x00019370:    9019        ..      STR      r0,[sp,#0x64]
        0x00019372:    e02b        +.      B        0x193cc ; am_devices_mspi_psram_aps12808l_ddr_init + 656
        0x00019374:    980c        ..      LDR      r0,[sp,#0x30]
        0x00019376:    eb000040    ..@.    ADD      r0,r0,r0,LSL #1
        0x0001937a:    f6424104    B..A    MOV      r1,#0x2c04
        0x0001937e:    f2c10100    ....    MOVT     r1,#0x1000
        0x00019382:    eb010280    ....    ADD      r2,r1,r0,LSL #2
        0x00019386:    2001        .       MOVS     r0,#1
        0x00019388:    7250        Pr      STRB     r0,[r2,#9]
        0x0001938a:    980c        ..      LDR      r0,[sp,#0x30]
        0x0001938c:    eb000040    ..@.    ADD      r0,r0,r0,LSL #1
        0x00019390:    eb010080    ....    ADD      r0,r1,r0,LSL #2
        0x00019394:    9a16        ..      LDR      r2,[sp,#0x58]
        0x00019396:    6010        .`      STR      r0,[r2,#0]
        0x00019398:    980d        ..      LDR      r0,[sp,#0x34]
        0x0001939a:    9a0c        ..      LDR      r2,[sp,#0x30]
        0x0001939c:    eb020242    ..B.    ADD      r2,r2,r2,LSL #1
        0x000193a0:    eb010282    ....    ADD      r2,r1,r2,LSL #2
        0x000193a4:    6050        P`      STR      r0,[r2,#4]
        0x000193a6:    9a15        ..      LDR      r2,[sp,#0x54]
        0x000193a8:    6010        .`      STR      r0,[r2,#0]
        0x000193aa:    9818        ..      LDR      r0,[sp,#0x60]
        0x000193ac:    9a0c        ..      LDR      r2,[sp,#0x30]
        0x000193ae:    eb020242    ..B.    ADD      r2,r2,r2,LSL #1
        0x000193b2:    f8410022    A.".    STR      r0,[r1,r2,LSL #2]
        0x000193b6:    f89d0040    ..@.    LDRB     r0,[sp,#0x40]
        0x000193ba:    9a0c        ..      LDR      r2,[sp,#0x30]
        0x000193bc:    eb020242    ..B.    ADD      r2,r2,r2,LSL #1
        0x000193c0:    eb010182    ....    ADD      r1,r1,r2,LSL #2
        0x000193c4:    7208        .r      STRB     r0,[r1,#8]
        0x000193c6:    2000        .       MOVS     r0,#0
        0x000193c8:    9019        ..      STR      r0,[sp,#0x64]
        0x000193ca:    e7ff        ..      B        0x193cc ; am_devices_mspi_psram_aps12808l_ddr_init + 656
        0x000193cc:    9819        ..      LDR      r0,[sp,#0x64]
        0x000193ce:    b01a        ..      ADD      sp,sp,#0x68
        0x000193d0:    bd80        ..      POP      {r7,pc}
        0x000193d2:    0000        ..      MOVS     r0,r0
    am_devices_mspi_psram_aps12808l_ddr_init_timing_check
        0x000193d4:    b580        ..      PUSH     {r7,lr}
        0x000193d6:    b0b8        ..      SUB      sp,sp,#0xe0
        0x000193d8:    9036        6.      STR      r0,[sp,#0xd8]
        0x000193da:    9135        5.      STR      r1,[sp,#0xd4]
        0x000193dc:    9234        4.      STR      r2,[sp,#0xd0]
        0x000193de:    2000        .       MOVS     r0,#0
        0x000193e0:    9002        ..      STR      r0,[sp,#8]
        0x000193e2:    9030        0.      STR      r0,[sp,#0xc0]
        0x000193e4:    902f        /.      STR      r0,[sp,#0xbc]
        0x000193e6:    902e        ..      STR      r0,[sp,#0xb8]
        0x000193e8:    a80e        ..      ADD      r0,sp,#0x38
        0x000193ea:    2180        .!      MOVS     r1,#0x80
        0x000193ec:    f7fefff1    ....    BL       __aeabi_memclr4 ; 0x183d2
        0x000193f0:    9802        ..      LDR      r0,[sp,#8]
        0x000193f2:    900c        ..      STR      r0,[sp,#0x30]
        0x000193f4:    9836        6.      LDR      r0,[sp,#0xd8]
        0x000193f6:    eb000280    ....    ADD      r2,r0,r0,LSL #2
        0x000193fa:    f2400160    @.`.    MOVW     r1,#0x60
        0x000193fe:    f2c10100    ....    MOVT     r1,#0x1000
        0x00019402:    eb010042    ..B.    ADD      r0,r1,r2,LSL #1
        0x00019406:    f8511012    Q...    LDR      r1,[r1,r2,LSL #1]
        0x0001940a:    9109        ..      STR      r1,[sp,#0x24]
        0x0001940c:    8901        ..      LDRH     r1,[r0,#8]
        0x0001940e:    f8ad102c    ..,.    STRH     r1,[sp,#0x2c]
        0x00019412:    6840        @h      LDR      r0,[r0,#4]
        0x00019414:    900a        ..      STR      r0,[sp,#0x28]
        0x00019416:    9835        5.      LDR      r0,[sp,#0xd4]
        0x00019418:    7800        .x      LDRB     r0,[r0,#0]
        0x0001941a:    4601        .F      MOV      r1,r0
        0x0001941c:    9103        ..      STR      r1,[sp,#0xc]
        0x0001941e:    2808        .(      CMP      r0,#8
        0x00019420:    d004        ..      BEQ      0x1942c ; am_devices_mspi_psram_aps12808l_ddr_init_timing_check + 88
        0x00019422:    e7ff        ..      B        0x19424 ; am_devices_mspi_psram_aps12808l_ddr_init_timing_check + 80
        0x00019424:    9803        ..      LDR      r0,[sp,#0xc]
        0x00019426:    2809        .(      CMP      r0,#9
        0x00019428:    d006        ..      BEQ      0x19438 ; am_devices_mspi_psram_aps12808l_ddr_init_timing_check + 100
        0x0001942a:    e00b        ..      B        0x19444 ; am_devices_mspi_psram_aps12808l_ddr_init_timing_check + 112
        0x0001942c:    f2400020    @. .    MOVW     r0,#0x20
        0x00019430:    f2c10000    ....    MOVT     r0,#0x1000
        0x00019434:    9008        ..      STR      r0,[sp,#0x20]
        0x00019436:    e008        ..      B        0x1944a ; am_devices_mspi_psram_aps12808l_ddr_init_timing_check + 118
        0x00019438:    f2400036    @.6.    MOVW     r0,#0x36
        0x0001943c:    f2c10000    ....    MOVT     r0,#0x1000
        0x00019440:    9008        ..      STR      r0,[sp,#0x20]
        0x00019442:    e002        ..      B        0x1944a ; am_devices_mspi_psram_aps12808l_ddr_init_timing_check + 118
        0x00019444:    2001        .       MOVS     r0,#1
        0x00019446:    9037        7.      STR      r0,[sp,#0xdc]
        0x00019448:    e121        !.      B        0x1968e ; am_devices_mspi_psram_aps12808l_ddr_init_timing_check + 698
        0x0001944a:    9808        ..      LDR      r0,[sp,#0x20]
        0x0001944c:    8a40        @.      LDRH     r0,[r0,#0x12]
        0x0001944e:    f8ad001e    ....    STRH     r0,[sp,#0x1e]
        0x00019452:    9808        ..      LDR      r0,[sp,#0x20]
        0x00019454:    7d00        .}      LDRB     r0,[r0,#0x14]
        0x00019456:    f88d001d    ....    STRB     r0,[sp,#0x1d]
        0x0001945a:    9908        ..      LDR      r1,[sp,#0x20]
        0x0001945c:    2000        .       MOVS     r0,#0
        0x0001945e:    8248        H.      STRH     r0,[r1,#0x12]
        0x00019460:    9908        ..      LDR      r1,[sp,#0x20]
        0x00019462:    7508        .u      STRB     r0,[r1,#0x14]
        0x00019464:    9836        6.      LDR      r0,[sp,#0xd8]
        0x00019466:    9935        5.      LDR      r1,[sp,#0xd4]
        0x00019468:    aa32        2.      ADD      r2,sp,#0xc8
        0x0001946a:    ab31        1.      ADD      r3,sp,#0xc4
        0x0001946c:    f7fffe66    ..f.    BL       am_devices_mspi_psram_aps12808l_ddr_init ; 0x1913c
        0x00019470:    9033        3.      STR      r0,[sp,#0xcc]
        0x00019472:    9833        3.      LDR      r0,[sp,#0xcc]
        0x00019474:    b118        ..      CBZ      r0,0x1947e ; am_devices_mspi_psram_aps12808l_ddr_init_timing_check + 170
        0x00019476:    e7ff        ..      B        0x19478 ; am_devices_mspi_psram_aps12808l_ddr_init_timing_check + 164
        0x00019478:    9833        3.      LDR      r0,[sp,#0xcc]
        0x0001947a:    9037        7.      STR      r0,[sp,#0xdc]
        0x0001947c:    e107        ..      B        0x1968e ; am_devices_mspi_psram_aps12808l_ddr_init_timing_check + 698
        0x0001947e:    f8bd001e    ....    LDRH     r0,[sp,#0x1e]
        0x00019482:    9908        ..      LDR      r1,[sp,#0x20]
        0x00019484:    8248        H.      STRH     r0,[r1,#0x12]
        0x00019486:    f89d001d    ....    LDRB     r0,[sp,#0x1d]
        0x0001948a:    9908        ..      LDR      r1,[sp,#0x20]
        0x0001948c:    7508        .u      STRB     r0,[r1,#0x14]
        0x0001948e:    9832        2.      LDR      r0,[sp,#0xc8]
        0x00019490:    f7fffe22    ..".    BL       am_devices_mspi_psram_aps12808l_ddr_enable_xip ; 0x190d8
        0x00019494:    9033        3.      STR      r0,[sp,#0xcc]
        0x00019496:    9833        3.      LDR      r0,[sp,#0xcc]
        0x00019498:    b118        ..      CBZ      r0,0x194a2 ; am_devices_mspi_psram_aps12808l_ddr_init_timing_check + 206
        0x0001949a:    e7ff        ..      B        0x1949c ; am_devices_mspi_psram_aps12808l_ddr_init_timing_check + 200
        0x0001949c:    9833        3.      LDR      r0,[sp,#0xcc]
        0x0001949e:    9037        7.      STR      r0,[sp,#0xdc]
        0x000194a0:    e0f5        ..      B        0x1968e ; am_devices_mspi_psram_aps12808l_ddr_init_timing_check + 698
        0x000194a2:    9836        6.      LDR      r0,[sp,#0xd8]
        0x000194a4:    2802        .(      CMP      r0,#2
        0x000194a6:    f0408088    @...    BNE.W    0x195ba ; am_devices_mspi_psram_aps12808l_ddr_init_timing_check + 486
        0x000194aa:    e7ff        ..      B        0x194ac ; am_devices_mspi_psram_aps12808l_ddr_init_timing_check + 216
        0x000194ac:    2000        .       MOVS     r0,#0
        0x000194ae:    f88d001c    ....    STRB     r0,[sp,#0x1c]
        0x000194b2:    e7ff        ..      B        0x194b4 ; am_devices_mspi_psram_aps12808l_ddr_init_timing_check + 224
        0x000194b4:    f89d001c    ....    LDRB     r0,[sp,#0x1c]
        0x000194b8:    281f        .(      CMP      r0,#0x1f
        0x000194ba:    dc4d        M.      BGT      0x19558 ; am_devices_mspi_psram_aps12808l_ddr_init_timing_check + 388
        0x000194bc:    e7ff        ..      B        0x194be ; am_devices_mspi_psram_aps12808l_ddr_init_timing_check + 234
        0x000194be:    2000        .       MOVS     r0,#0
        0x000194c0:    f88d001b    ....    STRB     r0,[sp,#0x1b]
        0x000194c4:    e7ff        ..      B        0x194c6 ; am_devices_mspi_psram_aps12808l_ddr_init_timing_check + 242
        0x000194c6:    f89d001b    ....    LDRB     r0,[sp,#0x1b]
        0x000194ca:    281f        .(      CMP      r0,#0x1f
        0x000194cc:    dc3d        =.      BGT      0x1954a ; am_devices_mspi_psram_aps12808l_ddr_init_timing_check + 374
        0x000194ce:    e7ff        ..      B        0x194d0 ; am_devices_mspi_psram_aps12808l_ddr_init_timing_check + 252
        0x000194d0:    f89d001c    ....    LDRB     r0,[sp,#0x1c]
        0x000194d4:    f88d0027    ..'.    STRB     r0,[sp,#0x27]
        0x000194d8:    f89d001b    ....    LDRB     r0,[sp,#0x1b]
        0x000194dc:    f88d0028    ..(.    STRB     r0,[sp,#0x28]
        0x000194e0:    9831        1.      LDR      r0,[sp,#0xc4]
        0x000194e2:    210b        .!      MOVS     r1,#0xb
        0x000194e4:    aa09        ..      ADD      r2,sp,#0x24
        0x000194e6:    f001faf7    ....    BL       am_hal_mspi_control ; 0x1aad8
        0x000194ea:    9033        3.      STR      r0,[sp,#0xcc]
        0x000194ec:    9833        3.      LDR      r0,[sp,#0xcc]
        0x000194ee:    b118        ..      CBZ      r0,0x194f8 ; am_devices_mspi_psram_aps12808l_ddr_init_timing_check + 292
        0x000194f0:    e7ff        ..      B        0x194f2 ; am_devices_mspi_psram_aps12808l_ddr_init_timing_check + 286
        0x000194f2:    2001        .       MOVS     r0,#1
        0x000194f4:    9037        7.      STR      r0,[sp,#0xdc]
        0x000194f6:    e0ca        ..      B        0x1968e ; am_devices_mspi_psram_aps12808l_ddr_init_timing_check + 698
        0x000194f8:    9936        6.      LDR      r1,[sp,#0xd8]
        0x000194fa:    f240305c    @.\0    MOVW     r0,#0x35c
        0x000194fe:    f2c00002    ....    MOVT     r0,#2
        0x00019502:    f8500021    P.!.    LDR      r0,[r0,r1,LSL #2]
        0x00019506:    f89d101b    ....    LDRB     r1,[sp,#0x1b]
        0x0001950a:    4408        .D      ADD      r0,r0,r1
        0x0001950c:    900d        ..      STR      r0,[sp,#0x34]
        0x0001950e:    9832        2.      LDR      r0,[sp,#0xc8]
        0x00019510:    9a0d        ..      LDR      r2,[sp,#0x34]
        0x00019512:    f44f3100    O..1    MOV      r1,#0x20000
        0x00019516:    f005fe67    ..g.    BL       psram_check_by_xip ; 0x1f1e8
        0x0001951a:    b970        p.      CBNZ     r0,0x1953a ; am_devices_mspi_psram_aps12808l_ddr_init_timing_check + 358
        0x0001951c:    e7ff        ..      B        0x1951e ; am_devices_mspi_psram_aps12808l_ddr_init_timing_check + 330
        0x0001951e:    f89d101b    ....    LDRB     r1,[sp,#0x1b]
        0x00019522:    2001        .       MOVS     r0,#1
        0x00019524:    fa00f301    ....    LSL      r3,r0,r1
        0x00019528:    f89d201c    ...     LDRB     r2,[sp,#0x1c]
        0x0001952c:    a90e        ..      ADD      r1,sp,#0x38
        0x0001952e:    f8510022    Q.".    LDR      r0,[r1,r2,LSL #2]
        0x00019532:    4318        .C      ORRS     r0,r0,r3
        0x00019534:    f8410022    A.".    STR      r0,[r1,r2,LSL #2]
        0x00019538:    e000        ..      B        0x1953c ; am_devices_mspi_psram_aps12808l_ddr_init_timing_check + 360
        0x0001953a:    e7ff        ..      B        0x1953c ; am_devices_mspi_psram_aps12808l_ddr_init_timing_check + 360
        0x0001953c:    e7ff        ..      B        0x1953e ; am_devices_mspi_psram_aps12808l_ddr_init_timing_check + 362
        0x0001953e:    f89d001b    ....    LDRB     r0,[sp,#0x1b]
        0x00019542:    3001        .0      ADDS     r0,#1
        0x00019544:    f88d001b    ....    STRB     r0,[sp,#0x1b]
        0x00019548:    e7bd        ..      B        0x194c6 ; am_devices_mspi_psram_aps12808l_ddr_init_timing_check + 242
        0x0001954a:    e7ff        ..      B        0x1954c ; am_devices_mspi_psram_aps12808l_ddr_init_timing_check + 376
        0x0001954c:    f89d001c    ....    LDRB     r0,[sp,#0x1c]
        0x00019550:    3001        .0      ADDS     r0,#1
        0x00019552:    f88d001c    ....    STRB     r0,[sp,#0x1c]
        0x00019556:    e7ad        ..      B        0x194b4 ; am_devices_mspi_psram_aps12808l_ddr_init_timing_check + 224
        0x00019558:    2000        .       MOVS     r0,#0
        0x0001955a:    9005        ..      STR      r0,[sp,#0x14]
        0x0001955c:    e7ff        ..      B        0x1955e ; am_devices_mspi_psram_aps12808l_ddr_init_timing_check + 394
        0x0001955e:    9805        ..      LDR      r0,[sp,#0x14]
        0x00019560:    281f        .(      CMP      r0,#0x1f
        0x00019562:    d818        ..      BHI      0x19596 ; am_devices_mspi_psram_aps12808l_ddr_init_timing_check + 450
        0x00019564:    e7ff        ..      B        0x19566 ; am_devices_mspi_psram_aps12808l_ddr_init_timing_check + 402
        0x00019566:    9905        ..      LDR      r1,[sp,#0x14]
        0x00019568:    a80e        ..      ADD      r0,sp,#0x38
        0x0001956a:    eb000081    ....    ADD      r0,r0,r1,LSL #2
        0x0001956e:    f004f9f1    ....    BL       count_consecutive_ones ; 0x1d954
        0x00019572:    900c        ..      STR      r0,[sp,#0x30]
        0x00019574:    980c        ..      LDR      r0,[sp,#0x30]
        0x00019576:    2809        .(      CMP      r0,#9
        0x00019578:    d308        ..      BCC      0x1958c ; am_devices_mspi_psram_aps12808l_ddr_init_timing_check + 440
        0x0001957a:    e7ff        ..      B        0x1957c ; am_devices_mspi_psram_aps12808l_ddr_init_timing_check + 424
        0x0001957c:    9905        ..      LDR      r1,[sp,#0x14]
        0x0001957e:    2001        .       MOVS     r0,#1
        0x00019580:    fa00f101    ....    LSL      r1,r0,r1
        0x00019584:    982e        ..      LDR      r0,[sp,#0xb8]
        0x00019586:    4308        .C      ORRS     r0,r0,r1
        0x00019588:    902e        ..      STR      r0,[sp,#0xb8]
        0x0001958a:    e7ff        ..      B        0x1958c ; am_devices_mspi_psram_aps12808l_ddr_init_timing_check + 440
        0x0001958c:    e7ff        ..      B        0x1958e ; am_devices_mspi_psram_aps12808l_ddr_init_timing_check + 442
        0x0001958e:    9805        ..      LDR      r0,[sp,#0x14]
        0x00019590:    3001        .0      ADDS     r0,#1
        0x00019592:    9005        ..      STR      r0,[sp,#0x14]
        0x00019594:    e7e3        ..      B        0x1955e ; am_devices_mspi_psram_aps12808l_ddr_init_timing_check + 394
        0x00019596:    982e        ..      LDR      r0,[sp,#0xb8]
        0x00019598:    b918        ..      CBNZ     r0,0x195a2 ; am_devices_mspi_psram_aps12808l_ddr_init_timing_check + 462
        0x0001959a:    e7ff        ..      B        0x1959c ; am_devices_mspi_psram_aps12808l_ddr_init_timing_check + 456
        0x0001959c:    2001        .       MOVS     r0,#1
        0x0001959e:    9037        7.      STR      r0,[sp,#0xdc]
        0x000195a0:    e075        u.      B        0x1968e ; am_devices_mspi_psram_aps12808l_ddr_init_timing_check + 698
        0x000195a2:    a82e        ..      ADD      r0,sp,#0xb8
        0x000195a4:    f004fb30    ..0.    BL       find_mid_point ; 0x1dc08
        0x000195a8:    9030        0.      STR      r0,[sp,#0xc0]
        0x000195aa:    9930        0.      LDR      r1,[sp,#0xc0]
        0x000195ac:    a80e        ..      ADD      r0,sp,#0x38
        0x000195ae:    eb000081    ....    ADD      r0,r0,r1,LSL #2
        0x000195b2:    f004fb29    ..).    BL       find_mid_point ; 0x1dc08
        0x000195b6:    902f        /.      STR      r0,[sp,#0xbc]
        0x000195b8:    e04e        N.      B        0x19658 ; am_devices_mspi_psram_aps12808l_ddr_init_timing_check + 644
        0x000195ba:    2000        .       MOVS     r0,#0
        0x000195bc:    f88d0013    ....    STRB     r0,[sp,#0x13]
        0x000195c0:    e7ff        ..      B        0x195c2 ; am_devices_mspi_psram_aps12808l_ddr_init_timing_check + 494
        0x000195c2:    f89d0013    ....    LDRB     r0,[sp,#0x13]
        0x000195c6:    281f        .(      CMP      r0,#0x1f
        0x000195c8:    dc34        4.      BGT      0x19634 ; am_devices_mspi_psram_aps12808l_ddr_init_timing_check + 608
        0x000195ca:    e7ff        ..      B        0x195cc ; am_devices_mspi_psram_aps12808l_ddr_init_timing_check + 504
        0x000195cc:    f89d0013    ....    LDRB     r0,[sp,#0x13]
        0x000195d0:    f88d0028    ..(.    STRB     r0,[sp,#0x28]
        0x000195d4:    9831        1.      LDR      r0,[sp,#0xc4]
        0x000195d6:    210b        .!      MOVS     r1,#0xb
        0x000195d8:    aa09        ..      ADD      r2,sp,#0x24
        0x000195da:    f001fa7d    ..}.    BL       am_hal_mspi_control ; 0x1aad8
        0x000195de:    9033        3.      STR      r0,[sp,#0xcc]
        0x000195e0:    9833        3.      LDR      r0,[sp,#0xcc]
        0x000195e2:    b118        ..      CBZ      r0,0x195ec ; am_devices_mspi_psram_aps12808l_ddr_init_timing_check + 536
        0x000195e4:    e7ff        ..      B        0x195e6 ; am_devices_mspi_psram_aps12808l_ddr_init_timing_check + 530
        0x000195e6:    2001        .       MOVS     r0,#1
        0x000195e8:    9037        7.      STR      r0,[sp,#0xdc]
        0x000195ea:    e050        P.      B        0x1968e ; am_devices_mspi_psram_aps12808l_ddr_init_timing_check + 698
        0x000195ec:    9936        6.      LDR      r1,[sp,#0xd8]
        0x000195ee:    f240305c    @.\0    MOVW     r0,#0x35c
        0x000195f2:    f2c00002    ....    MOVT     r0,#2
        0x000195f6:    f8500021    P.!.    LDR      r0,[r0,r1,LSL #2]
        0x000195fa:    f89d1013    ....    LDRB     r1,[sp,#0x13]
        0x000195fe:    4408        .D      ADD      r0,r0,r1
        0x00019600:    900d        ..      STR      r0,[sp,#0x34]
        0x00019602:    9832        2.      LDR      r0,[sp,#0xc8]
        0x00019604:    9a0d        ..      LDR      r2,[sp,#0x34]
        0x00019606:    f44f3100    O..1    MOV      r1,#0x20000
        0x0001960a:    f005fded    ....    BL       psram_check_by_xip ; 0x1f1e8
        0x0001960e:    b948        H.      CBNZ     r0,0x19624 ; am_devices_mspi_psram_aps12808l_ddr_init_timing_check + 592
        0x00019610:    e7ff        ..      B        0x19612 ; am_devices_mspi_psram_aps12808l_ddr_init_timing_check + 574
        0x00019612:    f89d1013    ....    LDRB     r1,[sp,#0x13]
        0x00019616:    2001        .       MOVS     r0,#1
        0x00019618:    fa00f101    ....    LSL      r1,r0,r1
        0x0001961c:    980e        ..      LDR      r0,[sp,#0x38]
        0x0001961e:    4308        .C      ORRS     r0,r0,r1
        0x00019620:    900e        ..      STR      r0,[sp,#0x38]
        0x00019622:    e000        ..      B        0x19626 ; am_devices_mspi_psram_aps12808l_ddr_init_timing_check + 594
        0x00019624:    e7ff        ..      B        0x19626 ; am_devices_mspi_psram_aps12808l_ddr_init_timing_check + 594
        0x00019626:    e7ff        ..      B        0x19628 ; am_devices_mspi_psram_aps12808l_ddr_init_timing_check + 596
        0x00019628:    f89d0013    ....    LDRB     r0,[sp,#0x13]
        0x0001962c:    3001        .0      ADDS     r0,#1
        0x0001962e:    f88d0013    ....    STRB     r0,[sp,#0x13]
        0x00019632:    e7c6        ..      B        0x195c2 ; am_devices_mspi_psram_aps12808l_ddr_init_timing_check + 494
        0x00019634:    a80e        ..      ADD      r0,sp,#0x38
        0x00019636:    9001        ..      STR      r0,[sp,#4]
        0x00019638:    f004f98c    ....    BL       count_consecutive_ones ; 0x1d954
        0x0001963c:    4601        .F      MOV      r1,r0
        0x0001963e:    9801        ..      LDR      r0,[sp,#4]
        0x00019640:    910c        ..      STR      r1,[sp,#0x30]
        0x00019642:    f004fae1    ....    BL       find_mid_point ; 0x1dc08
        0x00019646:    902f        /.      STR      r0,[sp,#0xbc]
        0x00019648:    980c        ..      LDR      r0,[sp,#0x30]
        0x0001964a:    2807        .(      CMP      r0,#7
        0x0001964c:    d803        ..      BHI      0x19656 ; am_devices_mspi_psram_aps12808l_ddr_init_timing_check + 642
        0x0001964e:    e7ff        ..      B        0x19650 ; am_devices_mspi_psram_aps12808l_ddr_init_timing_check + 636
        0x00019650:    2001        .       MOVS     r0,#1
        0x00019652:    9037        7.      STR      r0,[sp,#0xdc]
        0x00019654:    e01b        ..      B        0x1968e ; am_devices_mspi_psram_aps12808l_ddr_init_timing_check + 698
        0x00019656:    e7ff        ..      B        0x19658 ; am_devices_mspi_psram_aps12808l_ddr_init_timing_check + 644
        0x00019658:    9832        2.      LDR      r0,[sp,#0xc8]
        0x0001965a:    f7fffcb9    ....    BL       am_devices_mspi_psram_aps12808l_ddr_deinit ; 0x18fd0
        0x0001965e:    982f        /.      LDR      r0,[sp,#0xbc]
        0x00019660:    9934        4.      LDR      r1,[sp,#0xd0]
        0x00019662:    6088        .`      STR      r0,[r1,#8]
        0x00019664:    9934        4.      LDR      r1,[sp,#0xd0]
        0x00019666:    2000        .       MOVS     r0,#0
        0x00019668:    6048        H`      STR      r0,[r1,#4]
        0x0001966a:    9934        4.      LDR      r1,[sp,#0xd0]
        0x0001966c:    2006        .       MOVS     r0,#6
        0x0001966e:    6008        .`      STR      r0,[r1,#0]
        0x00019670:    9836        6.      LDR      r0,[sp,#0xd8]
        0x00019672:    2802        .(      CMP      r0,#2
        0x00019674:    d104        ..      BNE      0x19680 ; am_devices_mspi_psram_aps12808l_ddr_init_timing_check + 684
        0x00019676:    e7ff        ..      B        0x19678 ; am_devices_mspi_psram_aps12808l_ddr_init_timing_check + 676
        0x00019678:    9830        0.      LDR      r0,[sp,#0xc0]
        0x0001967a:    9934        4.      LDR      r1,[sp,#0xd0]
        0x0001967c:    60c8        .`      STR      r0,[r1,#0xc]
        0x0001967e:    e003        ..      B        0x19688 ; am_devices_mspi_psram_aps12808l_ddr_init_timing_check + 692
        0x00019680:    9934        4.      LDR      r1,[sp,#0xd0]
        0x00019682:    2000        .       MOVS     r0,#0
        0x00019684:    60c8        .`      STR      r0,[r1,#0xc]
        0x00019686:    e7ff        ..      B        0x19688 ; am_devices_mspi_psram_aps12808l_ddr_init_timing_check + 692
        0x00019688:    2000        .       MOVS     r0,#0
        0x0001968a:    9037        7.      STR      r0,[sp,#0xdc]
        0x0001968c:    e7ff        ..      B        0x1968e ; am_devices_mspi_psram_aps12808l_ddr_init_timing_check + 698
        0x0001968e:    9837        7.      LDR      r0,[sp,#0xdc]
        0x00019690:    b038        8.      ADD      sp,sp,#0xe0
        0x00019692:    bd80        ..      POP      {r7,pc}
    am_devices_mspi_psram_aps12808l_ddr_read
        0x00019694:    b510        ..      PUSH     {r4,lr}
        0x00019696:    b090        ..      SUB      sp,sp,#0x40
        0x00019698:    4684        .F      MOV      r12,r0
        0x0001969a:    9812        ..      LDR      r0,[sp,#0x48]
        0x0001969c:    f8cdc038    ..8.    STR      r12,[sp,#0x38]
        0x000196a0:    910d        ..      STR      r1,[sp,#0x34]
        0x000196a2:    920c        ..      STR      r2,[sp,#0x30]
        0x000196a4:    930b        ..      STR      r3,[sp,#0x2c]
        0x000196a6:    f88d002b    ..+.    STRB     r0,[sp,#0x2b]
        0x000196aa:    980e        ..      LDR      r0,[sp,#0x38]
        0x000196ac:    9008        ..      STR      r0,[sp,#0x20]
        0x000196ae:    f89d002b    ..+.    LDRB     r0,[sp,#0x2b]
        0x000196b2:    07c0        ..      LSLS     r0,r0,#31
        0x000196b4:    2800        .(      CMP      r0,#0
        0x000196b6:    d047        G.      BEQ      0x19748 ; am_devices_mspi_psram_aps12808l_ddr_read + 180
        0x000196b8:    e7ff        ..      B        0x196ba ; am_devices_mspi_psram_aps12808l_ddr_read + 38
        0x000196ba:    2200        ."      MOVS     r2,#0
        0x000196bc:    f88d201f    ...     STRB     r2,[sp,#0x1f]
        0x000196c0:    9808        ..      LDR      r0,[sp,#0x20]
        0x000196c2:    9b0d        ..      LDR      r3,[sp,#0x34]
        0x000196c4:    990c        ..      LDR      r1,[sp,#0x30]
        0x000196c6:    f8dde02c    ..,.    LDR      lr,[sp,#0x2c]
        0x000196ca:    46ec        .F      MOV      r12,sp
        0x000196cc:    f10d041f    ....    ADD      r4,sp,#0x1f
        0x000196d0:    f8cc4014    ...@    STR      r4,[r12,#0x14]
        0x000196d4:    f24f04a5    O...    MOV      r4,#0xf0a5
        0x000196d8:    f2c00401    ....    MOVT     r4,#1
        0x000196dc:    f8cc4010    ...@    STR      r4,[r12,#0x10]
        0x000196e0:    f8cc200c    ...     STR      r2,[r12,#0xc]
        0x000196e4:    f8cc2008    ...     STR      r2,[r12,#8]
        0x000196e8:    f8cce004    ....    STR      lr,[r12,#4]
        0x000196ec:    f8cc1000    ....    STR      r1,[r12,#0]
        0x000196f0:    4611        .F      MOV      r1,r2
        0x000196f2:    f005fdf7    ....    BL       psram_nonblocking_transfer ; 0x1f2e4
        0x000196f6:    9009        ..      STR      r0,[sp,#0x24]
        0x000196f8:    9809        ..      LDR      r0,[sp,#0x24]
        0x000196fa:    b118        ..      CBZ      r0,0x19704 ; am_devices_mspi_psram_aps12808l_ddr_read + 112
        0x000196fc:    e7ff        ..      B        0x196fe ; am_devices_mspi_psram_aps12808l_ddr_read + 106
        0x000196fe:    2001        .       MOVS     r0,#1
        0x00019700:    900f        ..      STR      r0,[sp,#0x3c]
        0x00019702:    e042        B.      B        0x1978a ; am_devices_mspi_psram_aps12808l_ddr_read + 246
        0x00019704:    2000        .       MOVS     r0,#0
        0x00019706:    9006        ..      STR      r0,[sp,#0x18]
        0x00019708:    e7ff        ..      B        0x1970a ; am_devices_mspi_psram_aps12808l_ddr_read + 118
        0x0001970a:    9806        ..      LDR      r0,[sp,#0x18]
        0x0001970c:    f244213f    D.?!    MOV      r1,#0x423f
        0x00019710:    f2c0010f    ....    MOVT     r1,#0xf
        0x00019714:    4288        .B      CMP      r0,r1
        0x00019716:    d80e        ..      BHI      0x19736 ; am_devices_mspi_psram_aps12808l_ddr_read + 162
        0x00019718:    e7ff        ..      B        0x1971a ; am_devices_mspi_psram_aps12808l_ddr_read + 134
        0x0001971a:    f89d001f    ....    LDRB     r0,[sp,#0x1f]
        0x0001971e:    07c0        ..      LSLS     r0,r0,#31
        0x00019720:    b108        ..      CBZ      r0,0x19726 ; am_devices_mspi_psram_aps12808l_ddr_read + 146
        0x00019722:    e7ff        ..      B        0x19724 ; am_devices_mspi_psram_aps12808l_ddr_read + 144
        0x00019724:    e007        ..      B        0x19736 ; am_devices_mspi_psram_aps12808l_ddr_read + 162
        0x00019726:    2001        .       MOVS     r0,#1
        0x00019728:    f000fe44    ..D.    BL       am_hal_delay_us ; 0x1a3b4
        0x0001972c:    e7ff        ..      B        0x1972e ; am_devices_mspi_psram_aps12808l_ddr_read + 154
        0x0001972e:    9806        ..      LDR      r0,[sp,#0x18]
        0x00019730:    3001        .0      ADDS     r0,#1
        0x00019732:    9006        ..      STR      r0,[sp,#0x18]
        0x00019734:    e7e9        ..      B        0x1970a ; am_devices_mspi_psram_aps12808l_ddr_read + 118
        0x00019736:    f89d001f    ....    LDRB     r0,[sp,#0x1f]
        0x0001973a:    07c0        ..      LSLS     r0,r0,#31
        0x0001973c:    b918        ..      CBNZ     r0,0x19746 ; am_devices_mspi_psram_aps12808l_ddr_read + 178
        0x0001973e:    e7ff        ..      B        0x19740 ; am_devices_mspi_psram_aps12808l_ddr_read + 172
        0x00019740:    2001        .       MOVS     r0,#1
        0x00019742:    900f        ..      STR      r0,[sp,#0x3c]
        0x00019744:    e021        !.      B        0x1978a ; am_devices_mspi_psram_aps12808l_ddr_read + 246
        0x00019746:    e01d        ..      B        0x19784 ; am_devices_mspi_psram_aps12808l_ddr_read + 240
        0x00019748:    9808        ..      LDR      r0,[sp,#0x20]
        0x0001974a:    9b0d        ..      LDR      r3,[sp,#0x34]
        0x0001974c:    990c        ..      LDR      r1,[sp,#0x30]
        0x0001974e:    f8dde02c    ..,.    LDR      lr,[sp,#0x2c]
        0x00019752:    46ec        .F      MOV      r12,sp
        0x00019754:    2200        ."      MOVS     r2,#0
        0x00019756:    f8cc2014    ...     STR      r2,[r12,#0x14]
        0x0001975a:    f8cc2010    ...     STR      r2,[r12,#0x10]
        0x0001975e:    f8cc200c    ...     STR      r2,[r12,#0xc]
        0x00019762:    f8cc2008    ...     STR      r2,[r12,#8]
        0x00019766:    f8cce004    ....    STR      lr,[r12,#4]
        0x0001976a:    f8cc1000    ....    STR      r1,[r12,#0]
        0x0001976e:    4611        .F      MOV      r1,r2
        0x00019770:    f005fdb8    ....    BL       psram_nonblocking_transfer ; 0x1f2e4
        0x00019774:    9009        ..      STR      r0,[sp,#0x24]
        0x00019776:    9809        ..      LDR      r0,[sp,#0x24]
        0x00019778:    b118        ..      CBZ      r0,0x19782 ; am_devices_mspi_psram_aps12808l_ddr_read + 238
        0x0001977a:    e7ff        ..      B        0x1977c ; am_devices_mspi_psram_aps12808l_ddr_read + 232
        0x0001977c:    2001        .       MOVS     r0,#1
        0x0001977e:    900f        ..      STR      r0,[sp,#0x3c]
        0x00019780:    e003        ..      B        0x1978a ; am_devices_mspi_psram_aps12808l_ddr_read + 246
        0x00019782:    e7ff        ..      B        0x19784 ; am_devices_mspi_psram_aps12808l_ddr_read + 240
        0x00019784:    2000        .       MOVS     r0,#0
        0x00019786:    900f        ..      STR      r0,[sp,#0x3c]
        0x00019788:    e7ff        ..      B        0x1978a ; am_devices_mspi_psram_aps12808l_ddr_read + 246
        0x0001978a:    980f        ..      LDR      r0,[sp,#0x3c]
        0x0001978c:    b010        ..      ADD      sp,sp,#0x40
        0x0001978e:    bd10        ..      POP      {r4,pc}
    am_devices_mspi_psram_aps12808l_ddr_write
        0x00019790:    b510        ..      PUSH     {r4,lr}
        0x00019792:    b090        ..      SUB      sp,sp,#0x40
        0x00019794:    4684        .F      MOV      r12,r0
        0x00019796:    9812        ..      LDR      r0,[sp,#0x48]
        0x00019798:    f8cdc038    ..8.    STR      r12,[sp,#0x38]
        0x0001979c:    910d        ..      STR      r1,[sp,#0x34]
        0x0001979e:    920c        ..      STR      r2,[sp,#0x30]
        0x000197a0:    930b        ..      STR      r3,[sp,#0x2c]
        0x000197a2:    f88d002b    ..+.    STRB     r0,[sp,#0x2b]
        0x000197a6:    980e        ..      LDR      r0,[sp,#0x38]
        0x000197a8:    9008        ..      STR      r0,[sp,#0x20]
        0x000197aa:    f89d002b    ..+.    LDRB     r0,[sp,#0x2b]
        0x000197ae:    07c0        ..      LSLS     r0,r0,#31
        0x000197b0:    2800        .(      CMP      r0,#0
        0x000197b2:    d047        G.      BEQ      0x19844 ; am_devices_mspi_psram_aps12808l_ddr_write + 180
        0x000197b4:    e7ff        ..      B        0x197b6 ; am_devices_mspi_psram_aps12808l_ddr_write + 38
        0x000197b6:    2100        .!      MOVS     r1,#0
        0x000197b8:    f88d101f    ....    STRB     r1,[sp,#0x1f]
        0x000197bc:    9808        ..      LDR      r0,[sp,#0x20]
        0x000197be:    9b0d        ..      LDR      r3,[sp,#0x34]
        0x000197c0:    9a0c        ..      LDR      r2,[sp,#0x30]
        0x000197c2:    f8dde02c    ..,.    LDR      lr,[sp,#0x2c]
        0x000197c6:    46ec        .F      MOV      r12,sp
        0x000197c8:    f10d041f    ....    ADD      r4,sp,#0x1f
        0x000197cc:    f8cc4014    ...@    STR      r4,[r12,#0x14]
        0x000197d0:    f24f04a5    O...    MOV      r4,#0xf0a5
        0x000197d4:    f2c00401    ....    MOVT     r4,#1
        0x000197d8:    f8cc4010    ...@    STR      r4,[r12,#0x10]
        0x000197dc:    f8cc100c    ....    STR      r1,[r12,#0xc]
        0x000197e0:    f8cc1008    ....    STR      r1,[r12,#8]
        0x000197e4:    f8cce004    ....    STR      lr,[r12,#4]
        0x000197e8:    f8cc2000    ...     STR      r2,[r12,#0]
        0x000197ec:    2201        ."      MOVS     r2,#1
        0x000197ee:    f005fd79    ..y.    BL       psram_nonblocking_transfer ; 0x1f2e4
        0x000197f2:    9009        ..      STR      r0,[sp,#0x24]
        0x000197f4:    9809        ..      LDR      r0,[sp,#0x24]
        0x000197f6:    b118        ..      CBZ      r0,0x19800 ; am_devices_mspi_psram_aps12808l_ddr_write + 112
        0x000197f8:    e7ff        ..      B        0x197fa ; am_devices_mspi_psram_aps12808l_ddr_write + 106
        0x000197fa:    2001        .       MOVS     r0,#1
        0x000197fc:    900f        ..      STR      r0,[sp,#0x3c]
        0x000197fe:    e042        B.      B        0x19886 ; am_devices_mspi_psram_aps12808l_ddr_write + 246
        0x00019800:    2000        .       MOVS     r0,#0
        0x00019802:    9006        ..      STR      r0,[sp,#0x18]
        0x00019804:    e7ff        ..      B        0x19806 ; am_devices_mspi_psram_aps12808l_ddr_write + 118
        0x00019806:    9806        ..      LDR      r0,[sp,#0x18]
        0x00019808:    f244213f    D.?!    MOV      r1,#0x423f
        0x0001980c:    f2c0010f    ....    MOVT     r1,#0xf
        0x00019810:    4288        .B      CMP      r0,r1
        0x00019812:    d80e        ..      BHI      0x19832 ; am_devices_mspi_psram_aps12808l_ddr_write + 162
        0x00019814:    e7ff        ..      B        0x19816 ; am_devices_mspi_psram_aps12808l_ddr_write + 134
        0x00019816:    f89d001f    ....    LDRB     r0,[sp,#0x1f]
        0x0001981a:    07c0        ..      LSLS     r0,r0,#31
        0x0001981c:    b108        ..      CBZ      r0,0x19822 ; am_devices_mspi_psram_aps12808l_ddr_write + 146
        0x0001981e:    e7ff        ..      B        0x19820 ; am_devices_mspi_psram_aps12808l_ddr_write + 144
        0x00019820:    e007        ..      B        0x19832 ; am_devices_mspi_psram_aps12808l_ddr_write + 162
        0x00019822:    2001        .       MOVS     r0,#1
        0x00019824:    f000fdc6    ....    BL       am_hal_delay_us ; 0x1a3b4
        0x00019828:    e7ff        ..      B        0x1982a ; am_devices_mspi_psram_aps12808l_ddr_write + 154
        0x0001982a:    9806        ..      LDR      r0,[sp,#0x18]
        0x0001982c:    3001        .0      ADDS     r0,#1
        0x0001982e:    9006        ..      STR      r0,[sp,#0x18]
        0x00019830:    e7e9        ..      B        0x19806 ; am_devices_mspi_psram_aps12808l_ddr_write + 118
        0x00019832:    f89d001f    ....    LDRB     r0,[sp,#0x1f]
        0x00019836:    07c0        ..      LSLS     r0,r0,#31
        0x00019838:    b918        ..      CBNZ     r0,0x19842 ; am_devices_mspi_psram_aps12808l_ddr_write + 178
        0x0001983a:    e7ff        ..      B        0x1983c ; am_devices_mspi_psram_aps12808l_ddr_write + 172
        0x0001983c:    2001        .       MOVS     r0,#1
        0x0001983e:    900f        ..      STR      r0,[sp,#0x3c]
        0x00019840:    e021        !.      B        0x19886 ; am_devices_mspi_psram_aps12808l_ddr_write + 246
        0x00019842:    e01d        ..      B        0x19880 ; am_devices_mspi_psram_aps12808l_ddr_write + 240
        0x00019844:    9808        ..      LDR      r0,[sp,#0x20]
        0x00019846:    9b0d        ..      LDR      r3,[sp,#0x34]
        0x00019848:    9a0c        ..      LDR      r2,[sp,#0x30]
        0x0001984a:    f8dde02c    ..,.    LDR      lr,[sp,#0x2c]
        0x0001984e:    46ec        .F      MOV      r12,sp
        0x00019850:    2100        .!      MOVS     r1,#0
        0x00019852:    f8cc1014    ....    STR      r1,[r12,#0x14]
        0x00019856:    f8cc1010    ....    STR      r1,[r12,#0x10]
        0x0001985a:    f8cc100c    ....    STR      r1,[r12,#0xc]
        0x0001985e:    f8cc1008    ....    STR      r1,[r12,#8]
        0x00019862:    f8cce004    ....    STR      lr,[r12,#4]
        0x00019866:    f8cc2000    ...     STR      r2,[r12,#0]
        0x0001986a:    2201        ."      MOVS     r2,#1
        0x0001986c:    f005fd3a    ..:.    BL       psram_nonblocking_transfer ; 0x1f2e4
        0x00019870:    9009        ..      STR      r0,[sp,#0x24]
        0x00019872:    9809        ..      LDR      r0,[sp,#0x24]
        0x00019874:    b118        ..      CBZ      r0,0x1987e ; am_devices_mspi_psram_aps12808l_ddr_write + 238
        0x00019876:    e7ff        ..      B        0x19878 ; am_devices_mspi_psram_aps12808l_ddr_write + 232
        0x00019878:    2001        .       MOVS     r0,#1
        0x0001987a:    900f        ..      STR      r0,[sp,#0x3c]
        0x0001987c:    e003        ..      B        0x19886 ; am_devices_mspi_psram_aps12808l_ddr_write + 246
        0x0001987e:    e7ff        ..      B        0x19880 ; am_devices_mspi_psram_aps12808l_ddr_write + 240
        0x00019880:    2000        .       MOVS     r0,#0
        0x00019882:    900f        ..      STR      r0,[sp,#0x3c]
        0x00019884:    e7ff        ..      B        0x19886 ; am_devices_mspi_psram_aps12808l_ddr_write + 246
        0x00019886:    980f        ..      LDR      r0,[sp,#0x3c]
        0x00019888:    b010        ..      ADD      sp,sp,#0x40
        0x0001988a:    bd10        ..      POP      {r4,pc}
    am_devices_mspi_psram_aps12808l_id
        0x0001988c:    b580        ..      PUSH     {r7,lr}
        0x0001988e:    b08c        ..      SUB      sp,sp,#0x30
        0x00019890:    900a        ..      STR      r0,[sp,#0x28]
        0x00019892:    2300        .#      MOVS     r3,#0
        0x00019894:    f88d301f    ...0    STRB     r3,[sp,#0x1f]
        0x00019898:    f88d301e    ...0    STRB     r3,[sp,#0x1e]
        0x0001989c:    f88d301d    ...0    STRB     r3,[sp,#0x1d]
        0x000198a0:    980a        ..      LDR      r0,[sp,#0x28]
        0x000198a2:    466a        jF      MOV      r2,sp
        0x000198a4:    2104        .!      MOVS     r1,#4
        0x000198a6:    6051        Q`      STR      r1,[r2,#4]
        0x000198a8:    a908        ..      ADD      r1,sp,#0x20
        0x000198aa:    6011        .`      STR      r1,[r2,#0]
        0x000198ac:    f2440140    D.@.    MOV      r1,#0x4040
        0x000198b0:    2201        ."      MOVS     r2,#1
        0x000198b2:    f7fffaf3    ....    BL       am_device_command_read ; 0x18e9c
        0x000198b6:    9009        ..      STR      r0,[sp,#0x24]
        0x000198b8:    9809        ..      LDR      r0,[sp,#0x24]
        0x000198ba:    b118        ..      CBZ      r0,0x198c4 ; am_devices_mspi_psram_aps12808l_id + 56
        0x000198bc:    e7ff        ..      B        0x198be ; am_devices_mspi_psram_aps12808l_id + 50
        0x000198be:    2001        .       MOVS     r0,#1
        0x000198c0:    900b        ..      STR      r0,[sp,#0x2c]
        0x000198c2:    e12d        -.      B        0x19b20 ; am_devices_mspi_psram_aps12808l_id + 660
        0x000198c4:    9808        ..      LDR      r0,[sp,#0x20]
        0x000198c6:    f88d001d    ....    STRB     r0,[sp,#0x1d]
        0x000198ca:    e7ff        ..      B        0x198cc ; am_devices_mspi_psram_aps12808l_id + 64
        0x000198cc:    f89d001d    ....    LDRB     r0,[sp,#0x1d]
        0x000198d0:    f00000e3    ....    AND      r0,r0,#0xe3
        0x000198d4:    f88d001d    ....    STRB     r0,[sp,#0x1d]
        0x000198d8:    f89d001d    ....    LDRB     r0,[sp,#0x1d]
        0x000198dc:    f00000fc    ....    AND      r0,r0,#0xfc
        0x000198e0:    f88d001d    ....    STRB     r0,[sp,#0x1d]
        0x000198e4:    f89d001d    ....    LDRB     r0,[sp,#0x1d]
        0x000198e8:    f0400001    @...    ORR      r0,r0,#1
        0x000198ec:    f88d001d    ....    STRB     r0,[sp,#0x1d]
        0x000198f0:    f89d001d    ....    LDRB     r0,[sp,#0x1d]
        0x000198f4:    f0400020    @. .    ORR      r0,r0,#0x20
        0x000198f8:    f88d001d    ....    STRB     r0,[sp,#0x1d]
        0x000198fc:    f89d001d    ....    LDRB     r0,[sp,#0x1d]
        0x00019900:    9008        ..      STR      r0,[sp,#0x20]
        0x00019902:    980a        ..      LDR      r0,[sp,#0x28]
        0x00019904:    466a        jF      MOV      r2,sp
        0x00019906:    2104        .!      MOVS     r1,#4
        0x00019908:    6051        Q`      STR      r1,[r2,#4]
        0x0001990a:    a908        ..      ADD      r1,sp,#0x20
        0x0001990c:    6011        .`      STR      r1,[r2,#0]
        0x0001990e:    f24c01c0    L...    MOV      r1,#0xc0c0
        0x00019912:    2201        ."      MOVS     r2,#1
        0x00019914:    2300        .#      MOVS     r3,#0
        0x00019916:    f7fffaf7    ....    BL       am_device_command_write ; 0x18f08
        0x0001991a:    9009        ..      STR      r0,[sp,#0x24]
        0x0001991c:    9809        ..      LDR      r0,[sp,#0x24]
        0x0001991e:    b118        ..      CBZ      r0,0x19928 ; am_devices_mspi_psram_aps12808l_id + 156
        0x00019920:    e7ff        ..      B        0x19922 ; am_devices_mspi_psram_aps12808l_id + 150
        0x00019922:    2001        .       MOVS     r0,#1
        0x00019924:    900b        ..      STR      r0,[sp,#0x2c]
        0x00019926:    e0fb        ..      B        0x19b20 ; am_devices_mspi_psram_aps12808l_id + 660
        0x00019928:    980a        ..      LDR      r0,[sp,#0x28]
        0x0001992a:    466a        jF      MOV      r2,sp
        0x0001992c:    2104        .!      MOVS     r1,#4
        0x0001992e:    6051        Q`      STR      r1,[r2,#4]
        0x00019930:    a908        ..      ADD      r1,sp,#0x20
        0x00019932:    6011        .`      STR      r1,[r2,#0]
        0x00019934:    f2440140    D.@.    MOV      r1,#0x4040
        0x00019938:    2201        ."      MOVS     r2,#1
        0x0001993a:    2300        .#      MOVS     r3,#0
        0x0001993c:    f7fffaae    ....    BL       am_device_command_read ; 0x18e9c
        0x00019940:    9009        ..      STR      r0,[sp,#0x24]
        0x00019942:    9809        ..      LDR      r0,[sp,#0x24]
        0x00019944:    b118        ..      CBZ      r0,0x1994e ; am_devices_mspi_psram_aps12808l_id + 194
        0x00019946:    e7ff        ..      B        0x19948 ; am_devices_mspi_psram_aps12808l_id + 188
        0x00019948:    2001        .       MOVS     r0,#1
        0x0001994a:    900b        ..      STR      r0,[sp,#0x2c]
        0x0001994c:    e0e8        ..      B        0x19b20 ; am_devices_mspi_psram_aps12808l_id + 660
        0x0001994e:    9808        ..      LDR      r0,[sp,#0x20]
        0x00019950:    f88d001d    ....    STRB     r0,[sp,#0x1d]
        0x00019954:    e7ff        ..      B        0x19956 ; am_devices_mspi_psram_aps12808l_id + 202
        0x00019956:    980a        ..      LDR      r0,[sp,#0x28]
        0x00019958:    466a        jF      MOV      r2,sp
        0x0001995a:    2304        .#      MOVS     r3,#4
        0x0001995c:    6053        S`      STR      r3,[r2,#4]
        0x0001995e:    a908        ..      ADD      r1,sp,#0x20
        0x00019960:    6011        .`      STR      r1,[r2,#0]
        0x00019962:    f2440140    D.@.    MOV      r1,#0x4040
        0x00019966:    2201        ."      MOVS     r2,#1
        0x00019968:    f7fffa98    ....    BL       am_device_command_read ; 0x18e9c
        0x0001996c:    9009        ..      STR      r0,[sp,#0x24]
        0x0001996e:    9809        ..      LDR      r0,[sp,#0x24]
        0x00019970:    b118        ..      CBZ      r0,0x1997a ; am_devices_mspi_psram_aps12808l_id + 238
        0x00019972:    e7ff        ..      B        0x19974 ; am_devices_mspi_psram_aps12808l_id + 232
        0x00019974:    2001        .       MOVS     r0,#1
        0x00019976:    900b        ..      STR      r0,[sp,#0x2c]
        0x00019978:    e0d2        ..      B        0x19b20 ; am_devices_mspi_psram_aps12808l_id + 660
        0x0001997a:    9808        ..      LDR      r0,[sp,#0x20]
        0x0001997c:    f88d001d    ....    STRB     r0,[sp,#0x1d]
        0x00019980:    e7ff        ..      B        0x19982 ; am_devices_mspi_psram_aps12808l_id + 246
        0x00019982:    f89d001d    ....    LDRB     r0,[sp,#0x1d]
        0x00019986:    f000001f    ....    AND      r0,r0,#0x1f
        0x0001998a:    9008        ..      STR      r0,[sp,#0x20]
        0x0001998c:    980a        ..      LDR      r0,[sp,#0x28]
        0x0001998e:    466a        jF      MOV      r2,sp
        0x00019990:    2304        .#      MOVS     r3,#4
        0x00019992:    6053        S`      STR      r3,[r2,#4]
        0x00019994:    a908        ..      ADD      r1,sp,#0x20
        0x00019996:    6011        .`      STR      r1,[r2,#0]
        0x00019998:    f24c01c0    L...    MOV      r1,#0xc0c0
        0x0001999c:    2201        ."      MOVS     r2,#1
        0x0001999e:    f7fffab3    ....    BL       am_device_command_write ; 0x18f08
        0x000199a2:    9009        ..      STR      r0,[sp,#0x24]
        0x000199a4:    9809        ..      LDR      r0,[sp,#0x24]
        0x000199a6:    b118        ..      CBZ      r0,0x199b0 ; am_devices_mspi_psram_aps12808l_id + 292
        0x000199a8:    e7ff        ..      B        0x199aa ; am_devices_mspi_psram_aps12808l_id + 286
        0x000199aa:    2001        .       MOVS     r0,#1
        0x000199ac:    900b        ..      STR      r0,[sp,#0x2c]
        0x000199ae:    e0b7        ..      B        0x19b20 ; am_devices_mspi_psram_aps12808l_id + 660
        0x000199b0:    980a        ..      LDR      r0,[sp,#0x28]
        0x000199b2:    466a        jF      MOV      r2,sp
        0x000199b4:    2304        .#      MOVS     r3,#4
        0x000199b6:    6053        S`      STR      r3,[r2,#4]
        0x000199b8:    a908        ..      ADD      r1,sp,#0x20
        0x000199ba:    6011        .`      STR      r1,[r2,#0]
        0x000199bc:    f2440140    D.@.    MOV      r1,#0x4040
        0x000199c0:    2201        ."      MOVS     r2,#1
        0x000199c2:    f7fffa6b    ..k.    BL       am_device_command_read ; 0x18e9c
        0x000199c6:    9009        ..      STR      r0,[sp,#0x24]
        0x000199c8:    9809        ..      LDR      r0,[sp,#0x24]
        0x000199ca:    b118        ..      CBZ      r0,0x199d4 ; am_devices_mspi_psram_aps12808l_id + 328
        0x000199cc:    e7ff        ..      B        0x199ce ; am_devices_mspi_psram_aps12808l_id + 322
        0x000199ce:    2001        .       MOVS     r0,#1
        0x000199d0:    900b        ..      STR      r0,[sp,#0x2c]
        0x000199d2:    e0a5        ..      B        0x19b20 ; am_devices_mspi_psram_aps12808l_id + 660
        0x000199d4:    9808        ..      LDR      r0,[sp,#0x20]
        0x000199d6:    f88d001d    ....    STRB     r0,[sp,#0x1d]
        0x000199da:    e7ff        ..      B        0x199dc ; am_devices_mspi_psram_aps12808l_id + 336
        0x000199dc:    980a        ..      LDR      r0,[sp,#0x28]
        0x000199de:    466a        jF      MOV      r2,sp
        0x000199e0:    2104        .!      MOVS     r1,#4
        0x000199e2:    6051        Q`      STR      r1,[r2,#4]
        0x000199e4:    a908        ..      ADD      r1,sp,#0x20
        0x000199e6:    6011        .`      STR      r1,[r2,#0]
        0x000199e8:    f2440140    D.@.    MOV      r1,#0x4040
        0x000199ec:    2301        .#      MOVS     r3,#1
        0x000199ee:    461a        .F      MOV      r2,r3
        0x000199f0:    f7fffa54    ..T.    BL       am_device_command_read ; 0x18e9c
        0x000199f4:    9009        ..      STR      r0,[sp,#0x24]
        0x000199f6:    9809        ..      LDR      r0,[sp,#0x24]
        0x000199f8:    b118        ..      CBZ      r0,0x19a02 ; am_devices_mspi_psram_aps12808l_id + 374
        0x000199fa:    e7ff        ..      B        0x199fc ; am_devices_mspi_psram_aps12808l_id + 368
        0x000199fc:    2001        .       MOVS     r0,#1
        0x000199fe:    900b        ..      STR      r0,[sp,#0x2c]
        0x00019a00:    e08e        ..      B        0x19b20 ; am_devices_mspi_psram_aps12808l_id + 660
        0x00019a02:    9808        ..      LDR      r0,[sp,#0x20]
        0x00019a04:    f88d001f    ....    STRB     r0,[sp,#0x1f]
        0x00019a08:    f89d001f    ....    LDRB     r0,[sp,#0x1f]
        0x00019a0c:    f000001f    ....    AND      r0,r0,#0x1f
        0x00019a10:    280d        .(      CMP      r0,#0xd
        0x00019a12:    d101        ..      BNE      0x19a18 ; am_devices_mspi_psram_aps12808l_id + 396
        0x00019a14:    e7ff        ..      B        0x19a16 ; am_devices_mspi_psram_aps12808l_id + 394
        0x00019a16:    e7ff        ..      B        0x19a18 ; am_devices_mspi_psram_aps12808l_id + 396
        0x00019a18:    e7ff        ..      B        0x19a1a ; am_devices_mspi_psram_aps12808l_id + 398
        0x00019a1a:    980a        ..      LDR      r0,[sp,#0x28]
        0x00019a1c:    466a        jF      MOV      r2,sp
        0x00019a1e:    2104        .!      MOVS     r1,#4
        0x00019a20:    6051        Q`      STR      r1,[r2,#4]
        0x00019a22:    a908        ..      ADD      r1,sp,#0x20
        0x00019a24:    6011        .`      STR      r1,[r2,#0]
        0x00019a26:    f2440140    D.@.    MOV      r1,#0x4040
        0x00019a2a:    2201        ."      MOVS     r2,#1
        0x00019a2c:    2302        .#      MOVS     r3,#2
        0x00019a2e:    f7fffa35    ..5.    BL       am_device_command_read ; 0x18e9c
        0x00019a32:    9009        ..      STR      r0,[sp,#0x24]
        0x00019a34:    9809        ..      LDR      r0,[sp,#0x24]
        0x00019a36:    b118        ..      CBZ      r0,0x19a40 ; am_devices_mspi_psram_aps12808l_id + 436
        0x00019a38:    e7ff        ..      B        0x19a3a ; am_devices_mspi_psram_aps12808l_id + 430
        0x00019a3a:    2001        .       MOVS     r0,#1
        0x00019a3c:    900b        ..      STR      r0,[sp,#0x2c]
        0x00019a3e:    e06f        o.      B        0x19b20 ; am_devices_mspi_psram_aps12808l_id + 660
        0x00019a40:    9808        ..      LDR      r0,[sp,#0x20]
        0x00019a42:    f88d001e    ....    STRB     r0,[sp,#0x1e]
        0x00019a46:    f89d001e    ....    LDRB     r0,[sp,#0x1e]
        0x00019a4a:    f0000007    ....    AND      r0,r0,#7
        0x00019a4e:    2801        .(      CMP      r0,#1
        0x00019a50:    d101        ..      BNE      0x19a56 ; am_devices_mspi_psram_aps12808l_id + 458
        0x00019a52:    e7ff        ..      B        0x19a54 ; am_devices_mspi_psram_aps12808l_id + 456
        0x00019a54:    e01a        ..      B        0x19a8c ; am_devices_mspi_psram_aps12808l_id + 512
        0x00019a56:    f89d001e    ....    LDRB     r0,[sp,#0x1e]
        0x00019a5a:    f0000007    ....    AND      r0,r0,#7
        0x00019a5e:    2803        .(      CMP      r0,#3
        0x00019a60:    d101        ..      BNE      0x19a66 ; am_devices_mspi_psram_aps12808l_id + 474
        0x00019a62:    e7ff        ..      B        0x19a64 ; am_devices_mspi_psram_aps12808l_id + 472
        0x00019a64:    e011        ..      B        0x19a8a ; am_devices_mspi_psram_aps12808l_id + 510
        0x00019a66:    f89d001e    ....    LDRB     r0,[sp,#0x1e]
        0x00019a6a:    f0000007    ....    AND      r0,r0,#7
        0x00019a6e:    2805        .(      CMP      r0,#5
        0x00019a70:    d101        ..      BNE      0x19a76 ; am_devices_mspi_psram_aps12808l_id + 490
        0x00019a72:    e7ff        ..      B        0x19a74 ; am_devices_mspi_psram_aps12808l_id + 488
        0x00019a74:    e008        ..      B        0x19a88 ; am_devices_mspi_psram_aps12808l_id + 508
        0x00019a76:    f89d001e    ....    LDRB     r0,[sp,#0x1e]
        0x00019a7a:    f0000007    ....    AND      r0,r0,#7
        0x00019a7e:    2807        .(      CMP      r0,#7
        0x00019a80:    d101        ..      BNE      0x19a86 ; am_devices_mspi_psram_aps12808l_id + 506
        0x00019a82:    e7ff        ..      B        0x19a84 ; am_devices_mspi_psram_aps12808l_id + 504
        0x00019a84:    e7ff        ..      B        0x19a86 ; am_devices_mspi_psram_aps12808l_id + 506
        0x00019a86:    e7ff        ..      B        0x19a88 ; am_devices_mspi_psram_aps12808l_id + 508
        0x00019a88:    e7ff        ..      B        0x19a8a ; am_devices_mspi_psram_aps12808l_id + 510
        0x00019a8a:    e7ff        ..      B        0x19a8c ; am_devices_mspi_psram_aps12808l_id + 512
        0x00019a8c:    e7ff        ..      B        0x19a8e ; am_devices_mspi_psram_aps12808l_id + 514
        0x00019a8e:    2000        .       MOVS     r0,#0
        0x00019a90:    9006        ..      STR      r0,[sp,#0x18]
        0x00019a92:    9008        ..      STR      r0,[sp,#0x20]
        0x00019a94:    980a        ..      LDR      r0,[sp,#0x28]
        0x00019a96:    466a        jF      MOV      r2,sp
        0x00019a98:    2104        .!      MOVS     r1,#4
        0x00019a9a:    9105        ..      STR      r1,[sp,#0x14]
        0x00019a9c:    6051        Q`      STR      r1,[r2,#4]
        0x00019a9e:    a908        ..      ADD      r1,sp,#0x20
        0x00019aa0:    9102        ..      STR      r1,[sp,#8]
        0x00019aa2:    6011        .`      STR      r1,[r2,#0]
        0x00019aa4:    f2440140    D.@.    MOV      r1,#0x4040
        0x00019aa8:    9103        ..      STR      r1,[sp,#0xc]
        0x00019aaa:    2201        ."      MOVS     r2,#1
        0x00019aac:    9204        ..      STR      r2,[sp,#0x10]
        0x00019aae:    2303        .#      MOVS     r3,#3
        0x00019ab0:    f7fff9f4    ....    BL       am_device_command_read ; 0x18e9c
        0x00019ab4:    9b02        ..      LDR      r3,[sp,#8]
        0x00019ab6:    9903        ..      LDR      r1,[sp,#0xc]
        0x00019ab8:    9a04        ..      LDR      r2,[sp,#0x10]
        0x00019aba:    f8dde014    ....    LDR      lr,[sp,#0x14]
        0x00019abe:    4684        .F      MOV      r12,r0
        0x00019ac0:    9806        ..      LDR      r0,[sp,#0x18]
        0x00019ac2:    f8cdc024    ..$.    STR      r12,[sp,#0x24]
        0x00019ac6:    f8ddc020    .. .    LDR      r12,[sp,#0x20]
        0x00019aca:    f88dc01d    ....    STRB     r12,[sp,#0x1d]
        0x00019ace:    9008        ..      STR      r0,[sp,#0x20]
        0x00019ad0:    980a        ..      LDR      r0,[sp,#0x28]
        0x00019ad2:    46ec        .F      MOV      r12,sp
        0x00019ad4:    f8cce004    ....    STR      lr,[r12,#4]
        0x00019ad8:    f8cc3000    ...0    STR      r3,[r12,#0]
        0x00019adc:    2306        .#      MOVS     r3,#6
        0x00019ade:    f7fff9dd    ....    BL       am_device_command_read ; 0x18e9c
        0x00019ae2:    9b02        ..      LDR      r3,[sp,#8]
        0x00019ae4:    9903        ..      LDR      r1,[sp,#0xc]
        0x00019ae6:    9a04        ..      LDR      r2,[sp,#0x10]
        0x00019ae8:    f8dde014    ....    LDR      lr,[sp,#0x14]
        0x00019aec:    4684        .F      MOV      r12,r0
        0x00019aee:    9806        ..      LDR      r0,[sp,#0x18]
        0x00019af0:    f8cdc024    ..$.    STR      r12,[sp,#0x24]
        0x00019af4:    f8ddc020    .. .    LDR      r12,[sp,#0x20]
        0x00019af8:    f88dc01d    ....    STRB     r12,[sp,#0x1d]
        0x00019afc:    9008        ..      STR      r0,[sp,#0x20]
        0x00019afe:    980a        ..      LDR      r0,[sp,#0x28]
        0x00019b00:    46ec        .F      MOV      r12,sp
        0x00019b02:    f8cce004    ....    STR      lr,[r12,#4]
        0x00019b06:    f8cc3000    ...0    STR      r3,[r12,#0]
        0x00019b0a:    2308        .#      MOVS     r3,#8
        0x00019b0c:    f7fff9c6    ....    BL       am_device_command_read ; 0x18e9c
        0x00019b10:    4601        .F      MOV      r1,r0
        0x00019b12:    9806        ..      LDR      r0,[sp,#0x18]
        0x00019b14:    9109        ..      STR      r1,[sp,#0x24]
        0x00019b16:    9908        ..      LDR      r1,[sp,#0x20]
        0x00019b18:    f88d101d    ....    STRB     r1,[sp,#0x1d]
        0x00019b1c:    900b        ..      STR      r0,[sp,#0x2c]
        0x00019b1e:    e7ff        ..      B        0x19b20 ; am_devices_mspi_psram_aps12808l_id + 660
        0x00019b20:    980b        ..      LDR      r0,[sp,#0x2c]
        0x00019b22:    b00c        ..      ADD      sp,sp,#0x30
        0x00019b24:    bd80        ..      POP      {r7,pc}
        0x00019b26:    0000        ..      MOVS     r0,r0
    am_devices_mspi_psram_aps12808l_reset
        0x00019b28:    b580        ..      PUSH     {r7,lr}
        0x00019b2a:    b086        ..      SUB      sp,sp,#0x18
        0x00019b2c:    9004        ..      STR      r0,[sp,#0x10]
        0x00019b2e:    2300        .#      MOVS     r3,#0
        0x00019b30:    9303        ..      STR      r3,[sp,#0xc]
        0x00019b32:    9804        ..      LDR      r0,[sp,#0x10]
        0x00019b34:    466a        jF      MOV      r2,sp
        0x00019b36:    2102        .!      MOVS     r1,#2
        0x00019b38:    6051        Q`      STR      r1,[r2,#4]
        0x00019b3a:    a903        ..      ADD      r1,sp,#0xc
        0x00019b3c:    6011        .`      STR      r1,[r2,#0]
        0x00019b3e:    f64f71ff    O..q    MOV      r1,#0xffff
        0x00019b42:    2201        ."      MOVS     r2,#1
        0x00019b44:    f7fff9e0    ....    BL       am_device_command_write ; 0x18f08
        0x00019b48:    b118        ..      CBZ      r0,0x19b52 ; am_devices_mspi_psram_aps12808l_reset + 42
        0x00019b4a:    e7ff        ..      B        0x19b4c ; am_devices_mspi_psram_aps12808l_reset + 36
        0x00019b4c:    2001        .       MOVS     r0,#1
        0x00019b4e:    9005        ..      STR      r0,[sp,#0x14]
        0x00019b50:    e002        ..      B        0x19b58 ; am_devices_mspi_psram_aps12808l_reset + 48
        0x00019b52:    2000        .       MOVS     r0,#0
        0x00019b54:    9005        ..      STR      r0,[sp,#0x14]
        0x00019b56:    e7ff        ..      B        0x19b58 ; am_devices_mspi_psram_aps12808l_reset + 48
        0x00019b58:    9805        ..      LDR      r0,[sp,#0x14]
        0x00019b5a:    b006        ..      ADD      sp,sp,#0x18
        0x00019b5c:    bd80        ..      POP      {r7,pc}
        0x00019b5e:    0000        ..      MOVS     r0,r0
    am_getStackedReg
        0x00019b60:    b082        ..      SUB      sp,sp,#8
        0x00019b62:    9001        ..      STR      r0,[sp,#4]
        0x00019b64:    9100        ..      STR      r1,[sp,#0]
        0x00019b66:    9800        ..      LDR      r0,[sp,#0]
        0x00019b68:    9901        ..      LDR      r1,[sp,#4]
        0x00019b6a:    f8500021    P.!.    LDR      r0,[r0,r1,LSL #2]
        0x00019b6e:    b002        ..      ADD      sp,sp,#8
        0x00019b70:    4770        pG      BX       lr
        0x00019b72:    0000        ..      MOVS     r0,r0
    am_hal_cachectrl_config
        0x00019b74:    b5b0        ..      PUSH     {r4,r5,r7,lr}
        0x00019b76:    b082        ..      SUB      sp,sp,#8
        0x00019b78:    4604        .F      MOV      r4,r0
        0x00019b7a:    f000fd89    ....    BL       am_hal_interrupt_master_disable ; 0x1a690
        0x00019b7e:    9001        ..      STR      r0,[sp,#4]
        0x00019b80:    f04f4590    O..E    MOV      r5,#0x48000000
        0x00019b84:    6828        (h      LDR      r0,[r5,#0]
        0x00019b86:    f4207040     .@p    BIC      r0,r0,#0x300
        0x00019b8a:    6028        (`      STR      r0,[r5,#0]
        0x00019b8c:    9801        ..      LDR      r0,[sp,#4]
        0x00019b8e:    f000fd87    ....    BL       am_hal_interrupt_master_set ; 0x1a6a0
        0x00019b92:    78a1        .x      LDRB     r1,[r4,#2]
        0x00019b94:    7820         x      LDRB     r0,[r4,#0]
        0x00019b96:    7862        bx      LDRB     r2,[r4,#1]
        0x00019b98:    0049        I.      LSLS     r1,r1,#1
        0x00019b9a:    b2c9        ..      UXTB     r1,r1
        0x00019b9c:    f0020203    ....    AND      r2,r2,#3
        0x00019ba0:    f3601107    `...    BFI      r1,r0,#4,#4
        0x00019ba4:    ea412002    A..     ORR      r0,r1,r2,LSL #8
        0x00019ba8:    f4401080    @...    ORR      r0,r0,#0x100000
        0x00019bac:    f4406180    @..a    ORR      r1,r0,#0x400
        0x00019bb0:    2000        .       MOVS     r0,#0
        0x00019bb2:    6029        )`      STR      r1,[r5,#0]
        0x00019bb4:    b002        ..      ADD      sp,sp,#8
        0x00019bb6:    bdb0        ..      POP      {r4,r5,r7,pc}
    am_hal_cachectrl_enable
        0x00019bb8:    f04f4090    O..@    MOV      r0,#0x48000000
        0x00019bbc:    6801        .h      LDR      r1,[r0,#0]
        0x00019bbe:    f0410101    A...    ORR      r1,r1,#1
        0x00019bc2:    6001        .`      STR      r1,[r0,#0]
        0x00019bc4:    2108        .!      MOVS     r1,#8
        0x00019bc6:    f6c40100    ....    MOVT     r1,#0x4800
        0x00019bca:    6808        .h      LDR      r0,[r1,#0]
        0x00019bcc:    f0400201    @...    ORR      r2,r0,#1
        0x00019bd0:    2000        .       MOVS     r0,#0
        0x00019bd2:    600a        .`      STR      r2,[r1,#0]
        0x00019bd4:    4770        pG      BX       lr
        0x00019bd6:    0000        ..      MOVS     r0,r0
    am_hal_cmdq_alloc_block
        0x00019bd8:    b5f0        ..      PUSH     {r4-r7,lr}
        0x00019bda:    b081        ..      SUB      sp,sp,#4
        0x00019bdc:    b3a0        ..      CBZ      r0,0x19c48 ; am_hal_cmdq_alloc_block + 112
        0x00019bde:    4605        .F      MOV      r5,r0
        0x00019be0:    6800        .h      LDR      r0,[r0,#0]
        0x00019be2:    460f        .F      MOV      r7,r1
        0x00019be4:    f64c51cd    L..Q    MOV      r1,#0xcdcd
        0x00019be8:    f020407e     .~@    BIC      r0,r0,#0xfe000000
        0x00019bec:    f2c011cd    ....    MOVT     r1,#0x1cd
        0x00019bf0:    4288        .B      CMP      r0,r1
        0x00019bf2:    d129        ).      BNE      0x19c48 ; am_hal_cmdq_alloc_block + 112
        0x00019bf4:    4616        .F      MOV      r6,r2
        0x00019bf6:    2a00        .*      CMP      r2,#0
        0x00019bf8:    f04f0006    O...    MOV      r0,#6
        0x00019bfc:    d051        Q.      BEQ      0x19ca2 ; am_hal_cmdq_alloc_block + 202
        0x00019bfe:    461c        .F      MOV      r4,r3
        0x00019c00:    2b00        .+      CMP      r3,#0
        0x00019c02:    d04e        N.      BEQ      0x19ca2 ; am_hal_cmdq_alloc_block + 202
        0x00019c04:    e9d50104    ....    LDRD     r0,r1,[r5,#0x10]
        0x00019c08:    4288        .B      CMP      r0,r1
        0x00019c0a:    d121        !.      BNE      0x19c50 ; am_hal_cmdq_alloc_block + 120
        0x00019c0c:    f000fd40    ..@.    BL       am_hal_interrupt_master_disable ; 0x1a690
        0x00019c10:    9000        ..      STR      r0,[sp,#0]
        0x00019c12:    e9d51008    ....    LDRD     r1,r0,[r5,#0x20]
        0x00019c16:    e9d00201    ....    LDRD     r0,r2,[r0,#4]
        0x00019c1a:    460b        .F      MOV      r3,r1
        0x00019c1c:    6812        .h      LDR      r2,[r2,#0]
        0x00019c1e:    f3620307    b...    BFI      r3,r2,#0,#8
        0x00019c22:    4299        .B      CMP      r1,r3
        0x00019c24:    bfb8        ..      IT       LT
        0x00019c26:    f5a37380    ...s    SUBLT    r3,r3,#0x100
        0x00019c2a:    61eb        .a      STR      r3,[r5,#0x1c]
        0x00019c2c:    6800        .h      LDR      r0,[r0,#0]
        0x00019c2e:    60e8        .`      STR      r0,[r5,#0xc]
        0x00019c30:    9800        ..      LDR      r0,[sp,#0]
        0x00019c32:    f000fd35    ..5.    BL       am_hal_interrupt_master_set ; 0x1a6a0
        0x00019c36:    e9d51007    ....    LDRD     r1,r0,[r5,#0x1c]
        0x00019c3a:    31fe        .1      ADDS     r1,r1,#0xfe
        0x00019c3c:    4281        .B      CMP      r1,r0
        0x00019c3e:    da0b        ..      BGE      0x19c58 ; am_hal_cmdq_alloc_block + 128
        0x00019c40:    2005        .       MOVS     r0,#5
        0x00019c42:    b001        ..      ADD      sp,sp,#4
        0x00019c44:    bdf0        ..      POP      {r4-r7,pc}
        0x00019c46:    bf00        ..      NOP      
        0x00019c48:    2002        .       MOVS     r0,#2
        0x00019c4a:    b001        ..      ADD      sp,sp,#4
        0x00019c4c:    bdf0        ..      POP      {r4-r7,pc}
        0x00019c4e:    bf00        ..      NOP      
        0x00019c50:    2007        .       MOVS     r0,#7
        0x00019c52:    b001        ..      ADD      sp,sp,#4
        0x00019c54:    bdf0        ..      POP      {r4-r7,pc}
        0x00019c56:    bf00        ..      NOP      
        0x00019c58:    e9d53103    ...1    LDRD     r3,r1,[r5,#0xc]
        0x00019c5c:    00fa        ..      LSLS     r2,r7,#3
        0x00019c5e:    4299        .B      CMP      r1,r3
        0x00019c60:    d204        ..      BCS      0x19c6c ; am_hal_cmdq_alloc_block + 148
        0x00019c62:    1857        W.      ADDS     r7,r2,r1
        0x00019c64:    3708        .7      ADDS     r7,r7,#8
        0x00019c66:    429f        .B      CMP      r7,r3
        0x00019c68:    d2ea        ..      BCS      0x19c40 ; am_hal_cmdq_alloc_block + 104
        0x00019c6a:    e013        ..      B        0x19c94 ; am_hal_cmdq_alloc_block + 188
        0x00019c6c:    eb020c01    ....    ADD      r12,r2,r1
        0x00019c70:    f8d5e008    ....    LDR      lr,[r5,#8]
        0x00019c74:    f10c0710    ....    ADD      r7,r12,#0x10
        0x00019c78:    4577        wE      CMP      r7,lr
        0x00019c7a:    d90b        ..      BLS      0x19c94 ; am_hal_cmdq_alloc_block + 188
        0x00019c7c:    f8d5c004    ....    LDR      r12,[r5,#4]
        0x00019c80:    eb02070c    ....    ADD      r7,r2,r12
        0x00019c84:    3708        .7      ADDS     r7,r7,#8
        0x00019c86:    429f        .B      CMP      r7,r3
        0x00019c88:    d2da        ..      BCS      0x19c40 ; am_hal_cmdq_alloc_block + 104
        0x00019c8a:    6a6b        kj      LDR      r3,[r5,#0x24]
        0x00019c8c:    685b        [h      LDR      r3,[r3,#4]
        0x00019c8e:    e9c13c00    ...<    STRD     r3,r12,[r1,#0]
        0x00019c92:    4661        aF      MOV      r1,r12
        0x00019c94:    3001        .0      ADDS     r0,#1
        0x00019c96:    6228        (b      STR      r0,[r5,#0x20]
        0x00019c98:    6020         `      STR      r0,[r4,#0]
        0x00019c9a:    1888        ..      ADDS     r0,r1,r2
        0x00019c9c:    6168        ha      STR      r0,[r5,#0x14]
        0x00019c9e:    2000        .       MOVS     r0,#0
        0x00019ca0:    6031        1`      STR      r1,[r6,#0]
        0x00019ca2:    b001        ..      ADD      sp,sp,#4
        0x00019ca4:    bdf0        ..      POP      {r4-r7,pc}
        0x00019ca6:    0000        ..      MOVS     r0,r0
    am_hal_cmdq_disable
        0x00019ca8:    b1c0        ..      CBZ      r0,0x19cdc ; am_hal_cmdq_disable + 52
        0x00019caa:    6801        .h      LDR      r1,[r0,#0]
        0x00019cac:    f64c53cd    L..S    MOV      r3,#0xcdcd
        0x00019cb0:    f021427e    !.~B    BIC      r2,r1,#0xfe000000
        0x00019cb4:    f2c013cd    ....    MOVT     r3,#0x1cd
        0x00019cb8:    429a        .B      CMP      r2,r3
        0x00019cba:    d10f        ..      BNE      0x19cdc ; am_hal_cmdq_disable + 52
        0x00019cbc:    0189        ..      LSLS     r1,r1,#6
        0x00019cbe:    bf5c        \.      ITT      PL
        0x00019cc0:    2000        .       MOVPL    r0,#0
        0x00019cc2:    4770        pG      BXPL     lr
        0x00019cc4:    6a41        Aj      LDR      r1,[r0,#0x24]
        0x00019cc6:    6809        .h      LDR      r1,[r1,#0]
        0x00019cc8:    680a        .h      LDR      r2,[r1,#0]
        0x00019cca:    f0220201    "...    BIC      r2,r2,#1
        0x00019cce:    600a        .`      STR      r2,[r1,#0]
        0x00019cd0:    6801        .h      LDR      r1,[r0,#0]
        0x00019cd2:    f0217100    !..q    BIC      r1,r1,#0x2000000
        0x00019cd6:    6001        .`      STR      r1,[r0,#0]
        0x00019cd8:    2000        .       MOVS     r0,#0
        0x00019cda:    4770        pG      BX       lr
        0x00019cdc:    2002        .       MOVS     r0,#2
        0x00019cde:    4770        pG      BX       lr
    am_hal_cmdq_enable
        0x00019ce0:    b510        ..      PUSH     {r4,lr}
        0x00019ce2:    b318        ..      CBZ      r0,0x19d2c ; am_hal_cmdq_enable + 76
        0x00019ce4:    4604        .F      MOV      r4,r0
        0x00019ce6:    6800        .h      LDR      r0,[r0,#0]
        0x00019ce8:    f64c52cd    L..R    MOV      r2,#0xcdcd
        0x00019cec:    f020417e     .~A    BIC      r1,r0,#0xfe000000
        0x00019cf0:    f2c012cd    ....    MOVT     r2,#0x1cd
        0x00019cf4:    4291        .B      CMP      r1,r2
        0x00019cf6:    d119        ..      BNE      0x19d2c ; am_hal_cmdq_enable + 76
        0x00019cf8:    0180        ..      LSLS     r0,r0,#6
        0x00019cfa:    bf44        D.      ITT      MI
        0x00019cfc:    2000        .       MOVMI    r0,#0
        0x00019cfe:    bd10        ..      POPMI    {r4,pc}
        0x00019d00:    68a0        .h      LDR      r0,[r4,#8]
        0x00019d02:    2100        .!      MOVS     r1,#0
        0x00019d04:    f2c10106    ....    MOVT     r1,#0x1006
        0x00019d08:    4288        .B      CMP      r0,r1
        0x00019d0a:    d303        ..      BCC      0x19d14 ; am_hal_cmdq_enable + 52
        0x00019d0c:    2001        .       MOVS     r0,#1
        0x00019d0e:    2100        .!      MOVS     r1,#0
        0x00019d10:    f000fa52    ..R.    BL       am_hal_daxi_control ; 0x1a1b8
        0x00019d14:    6a60        `j      LDR      r0,[r4,#0x24]
        0x00019d16:    6800        .h      LDR      r0,[r0,#0]
        0x00019d18:    6801        .h      LDR      r1,[r0,#0]
        0x00019d1a:    f0410101    A...    ORR      r1,r1,#1
        0x00019d1e:    6001        .`      STR      r1,[r0,#0]
        0x00019d20:    6820         h      LDR      r0,[r4,#0]
        0x00019d22:    f0407000    @..p    ORR      r0,r0,#0x2000000
        0x00019d26:    6020         `      STR      r0,[r4,#0]
        0x00019d28:    2000        .       MOVS     r0,#0
        0x00019d2a:    bd10        ..      POP      {r4,pc}
        0x00019d2c:    2002        .       MOVS     r0,#2
        0x00019d2e:    bd10        ..      POP      {r4,pc}
    am_hal_cmdq_error_resume
        0x00019d30:    b580        ..      PUSH     {r7,lr}
        0x00019d32:    2800        .(      CMP      r0,#0
        0x00019d34:    d048        H.      BEQ      0x19dc8 ; am_hal_cmdq_error_resume + 152
        0x00019d36:    6801        .h      LDR      r1,[r0,#0]
        0x00019d38:    f64c53cd    L..S    MOV      r3,#0xcdcd
        0x00019d3c:    f021427e    !.~B    BIC      r2,r1,#0xfe000000
        0x00019d40:    f2c013cd    ....    MOVT     r3,#0x1cd
        0x00019d44:    429a        .B      CMP      r2,r3
        0x00019d46:    d13f        ?.      BNE      0x19dc8 ; am_hal_cmdq_error_resume + 152
        0x00019d48:    0189        ..      LSLS     r1,r1,#6
        0x00019d4a:    bf5c        \.      ITT      PL
        0x00019d4c:    2000        .       MOVPL    r0,#0
        0x00019d4e:    bd80        ..      POPPL    {r7,pc}
        0x00019d50:    6a41        Aj      LDR      r1,[r0,#0x24]
        0x00019d52:    e8915008    ...P    LDM      r1,{r3,r12,lr}
        0x00019d56:    6819        .h      LDR      r1,[r3,#0]
        0x00019d58:    f0210101    !...    BIC      r1,r1,#1
        0x00019d5c:    6019        .`      STR      r1,[r3,#0]
        0x00019d5e:    f8dc3000    ...0    LDR      r3,[r12,#0]
        0x00019d62:    6819        .h      LDR      r1,[r3,#0]
        0x00019d64:    f0210201    !...    BIC      r2,r1,#1
        0x00019d68:    4572        rE      CMP      r2,lr
        0x00019d6a:    d023        #.      BEQ      0x19db4 ; am_hal_cmdq_error_resume + 132
        0x00019d6c:    4561        aE      CMP      r1,r12
        0x00019d6e:    bf14        ..      ITE      NE
        0x00019d70:    3308        .3      ADDNE    r3,r3,#8
        0x00019d72:    685b        [h      LDREQ    r3,[r3,#4]
        0x00019d74:    6819        .h      LDR      r1,[r3,#0]
        0x00019d76:    f0210201    !...    BIC      r2,r1,#1
        0x00019d7a:    4572        rE      CMP      r2,lr
        0x00019d7c:    d01a        ..      BEQ      0x19db4 ; am_hal_cmdq_error_resume + 132
        0x00019d7e:    4561        aE      CMP      r1,r12
        0x00019d80:    bf0c        ..      ITE      EQ
        0x00019d82:    685b        [h      LDREQ    r3,[r3,#4]
        0x00019d84:    3308        .3      ADDNE    r3,r3,#8
        0x00019d86:    6819        .h      LDR      r1,[r3,#0]
        0x00019d88:    f0210201    !...    BIC      r2,r1,#1
        0x00019d8c:    4572        rE      CMP      r2,lr
        0x00019d8e:    d011        ..      BEQ      0x19db4 ; am_hal_cmdq_error_resume + 132
        0x00019d90:    4561        aE      CMP      r1,r12
        0x00019d92:    bf0c        ..      ITE      EQ
        0x00019d94:    685b        [h      LDREQ    r3,[r3,#4]
        0x00019d96:    3308        .3      ADDNE    r3,r3,#8
        0x00019d98:    6819        .h      LDR      r1,[r3,#0]
        0x00019d9a:    f0210201    !...    BIC      r2,r1,#1
        0x00019d9e:    4572        rE      CMP      r2,lr
        0x00019da0:    d008        ..      BEQ      0x19db4 ; am_hal_cmdq_error_resume + 132
        0x00019da2:    4561        aE      CMP      r1,r12
        0x00019da4:    bf0c        ..      ITE      EQ
        0x00019da6:    685b        [h      LDREQ    r3,[r3,#4]
        0x00019da8:    3308        .3      ADDNE    r3,r3,#8
        0x00019daa:    6819        .h      LDR      r1,[r3,#0]
        0x00019dac:    f0210201    !...    BIC      r2,r1,#1
        0x00019db0:    4572        rE      CMP      r2,lr
        0x00019db2:    d1db        ..      BNE      0x19d6c ; am_hal_cmdq_error_resume + 60
        0x00019db4:    f8c3e000    ....    STR      lr,[r3,#0]
        0x00019db8:    f8cc3000    ...0    STR      r3,[r12,#0]
        0x00019dbc:    6801        .h      LDR      r1,[r0,#0]
        0x00019dbe:    f0217100    !..q    BIC      r1,r1,#0x2000000
        0x00019dc2:    6001        .`      STR      r1,[r0,#0]
        0x00019dc4:    2000        .       MOVS     r0,#0
        0x00019dc6:    bd80        ..      POP      {r7,pc}
        0x00019dc8:    2002        .       MOVS     r0,#2
        0x00019dca:    bd80        ..      POP      {r7,pc}
    am_hal_cmdq_get_status
        0x00019dcc:    b5b0        ..      PUSH     {r4,r5,r7,lr}
        0x00019dce:    b082        ..      SUB      sp,sp,#8
        0x00019dd0:    2800        .(      CMP      r0,#0
        0x00019dd2:    d041        A.      BEQ      0x19e58 ; am_hal_cmdq_get_status + 140
        0x00019dd4:    4605        .F      MOV      r5,r0
        0x00019dd6:    6800        .h      LDR      r0,[r0,#0]
        0x00019dd8:    460c        .F      MOV      r4,r1
        0x00019dda:    f64c51cd    L..Q    MOV      r1,#0xcdcd
        0x00019dde:    f020407e     .~@    BIC      r0,r0,#0xfe000000
        0x00019de2:    f2c011cd    ....    MOVT     r1,#0x1cd
        0x00019de6:    4288        .B      CMP      r0,r1
        0x00019de8:    d136        6.      BNE      0x19e58 ; am_hal_cmdq_get_status + 140
        0x00019dea:    b3cc        ..      CBZ      r4,0x19e60 ; am_hal_cmdq_get_status + 148
        0x00019dec:    f000fc50    ..P.    BL       am_hal_interrupt_master_disable ; 0x1a690
        0x00019df0:    9001        ..      STR      r0,[sp,#4]
        0x00019df2:    e9d51008    ....    LDRD     r1,r0,[r5,#0x20]
        0x00019df6:    e9d00201    ....    LDRD     r0,r2,[r0,#4]
        0x00019dfa:    460b        .F      MOV      r3,r1
        0x00019dfc:    6812        .h      LDR      r2,[r2,#0]
        0x00019dfe:    f3620307    b...    BFI      r3,r2,#0,#8
        0x00019e02:    4299        .B      CMP      r1,r3
        0x00019e04:    bfb8        ..      IT       LT
        0x00019e06:    f5a37380    ...s    SUBLT    r3,r3,#0x100
        0x00019e0a:    61eb        .a      STR      r3,[r5,#0x1c]
        0x00019e0c:    6800        .h      LDR      r0,[r0,#0]
        0x00019e0e:    60e8        .`      STR      r0,[r5,#0xc]
        0x00019e10:    9801        ..      LDR      r0,[sp,#4]
        0x00019e12:    f000fc45    ..E.    BL       am_hal_interrupt_master_set ; 0x1a6a0
        0x00019e16:    e9d50104    ....    LDRD     r0,r1,[r5,#0x10]
        0x00019e1a:    e9d52307    ...#    LDRD     r2,r3,[r5,#0x1c]
        0x00019e1e:    4281        .B      CMP      r1,r0
        0x00019e20:    60a3        .`      STR      r3,[r4,#8]
        0x00019e22:    bf18        ..      IT       NE
        0x00019e24:    3b01        .;      SUBNE    r3,#1
        0x00019e26:    6a68        hj      LDR      r0,[r5,#0x24]
        0x00019e28:    6063        c`      STR      r3,[r4,#4]
        0x00019e2a:    f1000318    ....    ADD      r3,r0,#0x18
        0x00019e2e:    6022        "`      STR      r2,[r4,#0]
        0x00019e30:    cb0e        ..      LDM      r3,{r1-r3}
        0x00019e32:    6a40        @j      LDR      r0,[r0,#0x24]
        0x00019e34:    6809        .h      LDR      r1,[r1,#0]
        0x00019e36:    400a        .@      ANDS     r2,r2,r1
        0x00019e38:    bf18        ..      IT       NE
        0x00019e3a:    2201        ."      MOVNE    r2,#1
        0x00019e3c:    4008        .@      ANDS     r0,r0,r1
        0x00019e3e:    7322        "s      STRB     r2,[r4,#0xc]
        0x00019e40:    bf18        ..      IT       NE
        0x00019e42:    2001        .       MOVNE    r0,#1
        0x00019e44:    7360        `s      STRB     r0,[r4,#0xd]
        0x00019e46:    ea130001    ....    ANDS     r0,r3,r1
        0x00019e4a:    bf18        ..      IT       NE
        0x00019e4c:    2001        .       MOVNE    r0,#1
        0x00019e4e:    73a0        .s      STRB     r0,[r4,#0xe]
        0x00019e50:    2000        .       MOVS     r0,#0
        0x00019e52:    b002        ..      ADD      sp,sp,#8
        0x00019e54:    bdb0        ..      POP      {r4,r5,r7,pc}
        0x00019e56:    bf00        ..      NOP      
        0x00019e58:    2002        .       MOVS     r0,#2
        0x00019e5a:    b002        ..      ADD      sp,sp,#8
        0x00019e5c:    bdb0        ..      POP      {r4,r5,r7,pc}
        0x00019e5e:    bf00        ..      NOP      
        0x00019e60:    2006        .       MOVS     r0,#6
        0x00019e62:    b002        ..      ADD      sp,sp,#8
        0x00019e64:    bdb0        ..      POP      {r4,r5,r7,pc}
        0x00019e66:    0000        ..      MOVS     r0,r0
    am_hal_cmdq_init
        0x00019e68:    e92d41f0    -..A    PUSH     {r4-r8,lr}
        0x00019e6c:    280a        .(      CMP      r0,#0xa
        0x00019e6e:    bf84        ..      ITT      HI
        0x00019e70:    2005        .       MOVHI    r0,#5
        0x00019e72:    e8bd81f0    ....    POPHI    {r4-r8,pc}
        0x00019e76:    b171        q.      CBZ      r1,0x19e96 ; am_hal_cmdq_init + 46
        0x00019e78:    4603        .F      MOV      r3,r0
        0x00019e7a:    2a00        .*      CMP      r2,#0
        0x00019e7c:    f04f0006    O...    MOV      r0,#6
        0x00019e80:    d04f        O.      BEQ      0x19f22 ; am_hal_cmdq_init + 186
        0x00019e82:    f8d1e004    ....    LDR      lr,[r1,#4]
        0x00019e86:    f1be0f00    ....    CMP      lr,#0
        0x00019e8a:    bf08        ..      IT       EQ
        0x00019e8c:    e8bd81f0    ....    POPEQ    {r4-r8,pc}
        0x00019e90:    6808        .h      LDR      r0,[r1,#0]
        0x00019e92:    2802        .(      CMP      r0,#2
        0x00019e94:    d202        ..      BCS      0x19e9c ; am_hal_cmdq_init + 52
        0x00019e96:    2006        .       MOVS     r0,#6
        0x00019e98:    e8bd81f0    ....    POP      {r4-r8,pc}
        0x00019e9c:    f6422c20    B. ,    MOV      r12,#0x2a20
        0x00019ea0:    252c        ,%      MOVS     r5,#0x2c
        0x00019ea2:    f2c10c00    ....    MOVT     r12,#0x1000
        0x00019ea6:    fb03f405    ....    MUL      r4,r3,r5
        0x00019eaa:    f85c4004    \..@    LDR      r4,[r12,r4]
        0x00019eae:    01e6        ..      LSLS     r6,r4,#7
        0x00019eb0:    bf44        D.      ITT      MI
        0x00019eb2:    2007        .       MOVMI    r0,#7
        0x00019eb4:    e8bd81f0    ....    POPMI    {r4-r8,pc}
        0x00019eb8:    f64f2854    O.T(    MOV      r8,#0xfa54
        0x00019ebc:    fb13cc05    ....    SMLABB   r12,r3,r5,r12
        0x00019ec0:    00c5        ..      LSLS     r5,r0,#3
        0x00019ec2:    eb0e06c0    ....    ADD      r6,lr,r0,LSL #3
        0x00019ec6:    f64c50cd    L..P    MOV      r0,#0xcdcd
        0x00019eca:    eb030383    ....    ADD      r3,r3,r3,LSL #2
        0x00019ece:    f2c00801    ....    MOVT     r8,#1
        0x00019ed2:    f2c010cd    ....    MOVT     r0,#0x1cd
        0x00019ed6:    eb0807c3    ....    ADD      r7,r8,r3,LSL #3
        0x00019eda:    f3600419    `...    BFI      r4,r0,#0,#26
        0x00019ede:    e9cce601    ....    STRD     lr,r6,[r12,#4]
        0x00019ee2:    e9cce505    ....    STRD     lr,r5,[r12,#0x14]
        0x00019ee6:    e9d76502    ...e    LDRD     r6,r5,[r7,#8]
        0x00019eea:    f8cc4000    ...@    STR      r4,[r12,#0]
        0x00019eee:    2000        .       MOVS     r0,#0
        0x00019ef0:    693c        <i      LDR      r4,[r7,#0x10]
        0x00019ef2:    f8cc7024    ..$p    STR      r7,[r12,#0x24]
        0x00019ef6:    e9ccee03    ....    STRD     lr,lr,[r12,#0xc]
        0x00019efa:    e9cc0007    ....    STRD     r0,r0,[r12,#0x1c]
        0x00019efe:    6030        0`      STR      r0,[r6,#0]
        0x00019f00:    6028        (`      STR      r0,[r5,#0]
        0x00019f02:    697e        ~i      LDR      r6,[r7,#0x14]
        0x00019f04:    6825        %h      LDR      r5,[r4,#0]
        0x00019f06:    687f        .h      LDR      r7,[r7,#4]
        0x00019f08:    432e        .C      ORRS     r6,r6,r5
        0x00019f0a:    6026        &`      STR      r6,[r4,#0]
        0x00019f0c:    684e        Nh      LDR      r6,[r1,#4]
        0x00019f0e:    f8583033    X.30    LDR      r3,[r8,r3,LSL #3]
        0x00019f12:    603e        >`      STR      r6,[r7,#0]
        0x00019f14:    7a09        .z      LDRB     r1,[r1,#8]
        0x00019f16:    2702        .'      MOVS     r7,#2
        0x00019f18:    ea070141    ..A.    AND      r1,r7,r1,LSL #1
        0x00019f1c:    6019        .`      STR      r1,[r3,#0]
        0x00019f1e:    f8c2c000    ....    STR      r12,[r2,#0]
        0x00019f22:    e8bd81f0    ....    POP      {r4-r8,pc}
        0x00019f26:    0000        ..      MOVS     r0,r0
    am_hal_cmdq_post_block
        0x00019f28:    b510        ..      PUSH     {r4,lr}
        0x00019f2a:    b378        x.      CBZ      r0,0x19f8c ; am_hal_cmdq_post_block + 100
        0x00019f2c:    4604        .F      MOV      r4,r0
        0x00019f2e:    6800        .h      LDR      r0,[r0,#0]
        0x00019f30:    f64c52cd    L..R    MOV      r2,#0xcdcd
        0x00019f34:    f020407e     .~@    BIC      r0,r0,#0xfe000000
        0x00019f38:    f2c012cd    ....    MOVT     r2,#0x1cd
        0x00019f3c:    4290        .B      CMP      r0,r2
        0x00019f3e:    d125        %.      BNE      0x19f8c ; am_hal_cmdq_post_block + 100
        0x00019f40:    e9d40304    ....    LDRD     r0,r3,[r4,#0x10]
        0x00019f44:    4298        .B      CMP      r0,r3
        0x00019f46:    bf04        ..      ITT      EQ
        0x00019f48:    2007        .       MOVEQ    r0,#7
        0x00019f4a:    bd10        ..      POPEQ    {r4,pc}
        0x00019f4c:    6a62        bj      LDR      r2,[r4,#0x24]
        0x00019f4e:    f8d4c008    ....    LDR      r12,[r4,#8]
        0x00019f52:    6890        .h      LDR      r0,[r2,#8]
        0x00019f54:    f8d4e020    .. .    LDR      lr,[r4,#0x20]
        0x00019f58:    4308        .C      ORRS     r0,r0,r1
        0x00019f5a:    2100        .!      MOVS     r1,#0
        0x00019f5c:    f2c10106    ....    MOVT     r1,#0x1006
        0x00019f60:    e9c30e00    ....    STRD     r0,lr,[r3,#0]
        0x00019f64:    f1030008    ....    ADD      r0,r3,#8
        0x00019f68:    458c        .E      CMP      r12,r1
        0x00019f6a:    6120         a      STR      r0,[r4,#0x10]
        0x00019f6c:    6160        `a      STR      r0,[r4,#0x14]
        0x00019f6e:    d306        ..      BCC      0x19f7e ; am_hal_cmdq_post_block + 86
        0x00019f70:    2001        .       MOVS     r0,#1
        0x00019f72:    2100        .!      MOVS     r1,#0
        0x00019f74:    f000f920    .. .    BL       am_hal_daxi_control ; 0x1a1b8
        0x00019f78:    f894e020    .. .    LDRB     lr,[r4,#0x20]
        0x00019f7c:    6a62        bj      LDR      r2,[r4,#0x24]
        0x00019f7e:    68d0        .h      LDR      r0,[r2,#0xc]
        0x00019f80:    fa5ff18e    _...    UXTB     r1,lr
        0x00019f84:    6001        .`      STR      r1,[r0,#0]
        0x00019f86:    2000        .       MOVS     r0,#0
        0x00019f88:    bd10        ..      POP      {r4,pc}
        0x00019f8a:    bf00        ..      NOP      
        0x00019f8c:    2002        .       MOVS     r0,#2
        0x00019f8e:    bd10        ..      POP      {r4,pc}
    am_hal_cmdq_post_loop_block
        0x00019f90:    b570        p.      PUSH     {r4-r6,lr}
        0x00019f92:    b378        x.      CBZ      r0,0x19ff4 ; am_hal_cmdq_post_loop_block + 100
        0x00019f94:    4604        .F      MOV      r4,r0
        0x00019f96:    6800        .h      LDR      r0,[r0,#0]
        0x00019f98:    f64c52cd    L..R    MOV      r2,#0xcdcd
        0x00019f9c:    f020407e     .~@    BIC      r0,r0,#0xfe000000
        0x00019fa0:    f2c012cd    ....    MOVT     r2,#0x1cd
        0x00019fa4:    4290        .B      CMP      r0,r2
        0x00019fa6:    d125        %.      BNE      0x19ff4 ; am_hal_cmdq_post_loop_block + 100
        0x00019fa8:    e9d40204    ....    LDRD     r0,r2,[r4,#0x10]
        0x00019fac:    4290        .B      CMP      r0,r2
        0x00019fae:    bf04        ..      ITT      EQ
        0x00019fb0:    2007        .       MOVEQ    r0,#7
        0x00019fb2:    bd70        p.      POPEQ    {r4-r6,pc}
        0x00019fb4:    6a60        `j      LDR      r0,[r4,#0x24]
        0x00019fb6:    e9d4ec01    ....    LDRD     lr,r12,[r4,#4]
        0x00019fba:    e9d03501    ...5    LDRD     r3,r5,[r0,#4]
        0x00019fbe:    2600        .&      MOVS     r6,#0
        0x00019fc0:    4319        .C      ORRS     r1,r1,r3
        0x00019fc2:    e9c25600    ...V    STRD     r5,r6,[r2,#0]
        0x00019fc6:    e9c21e02    ....    STRD     r1,lr,[r2,#8]
        0x00019fca:    f1020110    ....    ADD      r1,r2,#0x10
        0x00019fce:    2200        ."      MOVS     r2,#0
        0x00019fd0:    f2c10206    ....    MOVT     r2,#0x1006
        0x00019fd4:    4594        .E      CMP      r12,r2
        0x00019fd6:    6121        !a      STR      r1,[r4,#0x10]
        0x00019fd8:    6161        aa      STR      r1,[r4,#0x14]
        0x00019fda:    d304        ..      BCC      0x19fe6 ; am_hal_cmdq_post_loop_block + 86
        0x00019fdc:    2001        .       MOVS     r0,#1
        0x00019fde:    2100        .!      MOVS     r1,#0
        0x00019fe0:    f000f8ea    ....    BL       am_hal_daxi_control ; 0x1a1b8
        0x00019fe4:    6a60        `j      LDR      r0,[r4,#0x24]
        0x00019fe6:    f8941020    .. .    LDRB     r1,[r4,#0x20]
        0x00019fea:    68c0        .h      LDR      r0,[r0,#0xc]
        0x00019fec:    6001        .`      STR      r1,[r0,#0]
        0x00019fee:    2000        .       MOVS     r0,#0
        0x00019ff0:    bd70        p.      POP      {r4-r6,pc}
        0x00019ff2:    bf00        ..      NOP      
        0x00019ff4:    2002        .       MOVS     r0,#2
        0x00019ff6:    bd70        p.      POP      {r4-r6,pc}
    am_hal_cmdq_release_block
        0x00019ff8:    b1a0        ..      CBZ      r0,0x1a024 ; am_hal_cmdq_release_block + 44
        0x00019ffa:    6801        .h      LDR      r1,[r0,#0]
        0x00019ffc:    f64c52cd    L..R    MOV      r2,#0xcdcd
        0x0001a000:    f021417e    !.~A    BIC      r1,r1,#0xfe000000
        0x0001a004:    f2c012cd    ....    MOVT     r2,#0x1cd
        0x0001a008:    4291        .B      CMP      r1,r2
        0x0001a00a:    d10b        ..      BNE      0x1a024 ; am_hal_cmdq_release_block + 44
        0x0001a00c:    e9d01204    ....    LDRD     r1,r2,[r0,#0x10]
        0x0001a010:    4291        .B      CMP      r1,r2
        0x0001a012:    bf04        ..      ITT      EQ
        0x0001a014:    2007        .       MOVEQ    r0,#7
        0x0001a016:    4770        pG      BXEQ     lr
        0x0001a018:    6a02        .j      LDR      r2,[r0,#0x20]
        0x0001a01a:    6141        Aa      STR      r1,[r0,#0x14]
        0x0001a01c:    1e51        Q.      SUBS     r1,r2,#1
        0x0001a01e:    6201        .b      STR      r1,[r0,#0x20]
        0x0001a020:    2000        .       MOVS     r0,#0
        0x0001a022:    4770        pG      BX       lr
        0x0001a024:    2002        .       MOVS     r0,#2
        0x0001a026:    4770        pG      BX       lr
    am_hal_cmdq_reset
        0x0001a028:    b580        ..      PUSH     {r7,lr}
        0x0001a02a:    b348        H.      CBZ      r0,0x1a080 ; am_hal_cmdq_reset + 88
        0x0001a02c:    6801        .h      LDR      r1,[r0,#0]
        0x0001a02e:    f64c53cd    L..S    MOV      r3,#0xcdcd
        0x0001a032:    f021427e    !.~B    BIC      r2,r1,#0xfe000000
        0x0001a036:    f2c013cd    ....    MOVT     r3,#0x1cd
        0x0001a03a:    429a        .B      CMP      r2,r3
        0x0001a03c:    d120         .      BNE      0x1a080 ; am_hal_cmdq_reset + 88
        0x0001a03e:    0189        ..      LSLS     r1,r1,#6
        0x0001a040:    bf44        D.      ITT      MI
        0x0001a042:    2007        .       MOVMI    r0,#7
        0x0001a044:    bd80        ..      POPMI    {r7,pc}
        0x0001a046:    6a41        Aj      LDR      r1,[r0,#0x24]
        0x0001a048:    e9d12c00    ...,    LDRD     r2,r12,[r1,#0]
        0x0001a04c:    e9d13e02    ...>    LDRD     r3,lr,[r1,#8]
        0x0001a050:    6811        .h      LDR      r1,[r2,#0]
        0x0001a052:    f0210101    !...    BIC      r1,r1,#1
        0x0001a056:    6011        .`      STR      r1,[r2,#0]
        0x0001a058:    6841        Ah      LDR      r1,[r0,#4]
        0x0001a05a:    e9c01103    ....    STRD     r1,r1,[r0,#0xc]
        0x0001a05e:    6141        Aa      STR      r1,[r0,#0x14]
        0x0001a060:    2100        .!      MOVS     r1,#0
        0x0001a062:    e9c01107    ....    STRD     r1,r1,[r0,#0x1c]
        0x0001a066:    6019        .`      STR      r1,[r3,#0]
        0x0001a068:    f8ce1000    ....    STR      r1,[lr,#0]
        0x0001a06c:    6842        Bh      LDR      r2,[r0,#4]
        0x0001a06e:    f8cc2000    ...     STR      r2,[r12,#0]
        0x0001a072:    6802        .h      LDR      r2,[r0,#0]
        0x0001a074:    f0227200    "..r    BIC      r2,r2,#0x2000000
        0x0001a078:    6002        .`      STR      r2,[r0,#0]
        0x0001a07a:    4608        .F      MOV      r0,r1
        0x0001a07c:    bd80        ..      POP      {r7,pc}
        0x0001a07e:    bf00        ..      NOP      
        0x0001a080:    2002        .       MOVS     r0,#2
        0x0001a082:    bd80        ..      POP      {r7,pc}
    am_hal_cmdq_term
        0x0001a084:    b5b0        ..      PUSH     {r4,r5,r7,lr}
        0x0001a086:    b082        ..      SUB      sp,sp,#8
        0x0001a088:    b3c0        ..      CBZ      r0,0x1a0fc ; am_hal_cmdq_term + 120
        0x0001a08a:    4604        .F      MOV      r4,r0
        0x0001a08c:    6800        .h      LDR      r0,[r0,#0]
        0x0001a08e:    460d        .F      MOV      r5,r1
        0x0001a090:    f64c51cd    L..Q    MOV      r1,#0xcdcd
        0x0001a094:    f020407e     .~@    BIC      r0,r0,#0xfe000000
        0x0001a098:    f2c011cd    ....    MOVT     r1,#0x1cd
        0x0001a09c:    4288        .B      CMP      r0,r1
        0x0001a09e:    d12d        -.      BNE      0x1a0fc ; am_hal_cmdq_term + 120
        0x0001a0a0:    f000faf6    ....    BL       am_hal_interrupt_master_disable ; 0x1a690
        0x0001a0a4:    9001        ..      STR      r0,[sp,#4]
        0x0001a0a6:    e9d41008    ....    LDRD     r1,r0,[r4,#0x20]
        0x0001a0aa:    e9d00201    ....    LDRD     r0,r2,[r0,#4]
        0x0001a0ae:    460b        .F      MOV      r3,r1
        0x0001a0b0:    6812        .h      LDR      r2,[r2,#0]
        0x0001a0b2:    f3620307    b...    BFI      r3,r2,#0,#8
        0x0001a0b6:    4299        .B      CMP      r1,r3
        0x0001a0b8:    bfb8        ..      IT       LT
        0x0001a0ba:    f5a37380    ...s    SUBLT    r3,r3,#0x100
        0x0001a0be:    61e3        .a      STR      r3,[r4,#0x1c]
        0x0001a0c0:    6800        .h      LDR      r0,[r0,#0]
        0x0001a0c2:    60e0        .`      STR      r0,[r4,#0xc]
        0x0001a0c4:    9801        ..      LDR      r0,[sp,#4]
        0x0001a0c6:    f000faeb    ....    BL       am_hal_interrupt_master_set ; 0x1a6a0
        0x0001a0ca:    b91d        ..      CBNZ     r5,0x1a0d4 ; am_hal_cmdq_term + 80
        0x0001a0cc:    e9d40107    ....    LDRD     r0,r1,[r4,#0x1c]
        0x0001a0d0:    4288        .B      CMP      r0,r1
        0x0001a0d2:    d117        ..      BNE      0x1a104 ; am_hal_cmdq_term + 128
        0x0001a0d4:    6820         h      LDR      r0,[r4,#0]
        0x0001a0d6:    6a61        aj      LDR      r1,[r4,#0x24]
        0x0001a0d8:    f0207080     ..p    BIC      r0,r0,#0x1000000
        0x0001a0dc:    6020         `      STR      r0,[r4,#0]
        0x0001a0de:    6808        .h      LDR      r0,[r1,#0]
        0x0001a0e0:    690a        .i      LDR      r2,[r1,#0x10]
        0x0001a0e2:    6803        .h      LDR      r3,[r0,#0]
        0x0001a0e4:    f0230301    #...    BIC      r3,r3,#1
        0x0001a0e8:    6003        .`      STR      r3,[r0,#0]
        0x0001a0ea:    6948        Hi      LDR      r0,[r1,#0x14]
        0x0001a0ec:    6811        .h      LDR      r1,[r2,#0]
        0x0001a0ee:    ea210000    !...    BIC      r0,r1,r0
        0x0001a0f2:    6010        .`      STR      r0,[r2,#0]
        0x0001a0f4:    2000        .       MOVS     r0,#0
        0x0001a0f6:    b002        ..      ADD      sp,sp,#8
        0x0001a0f8:    bdb0        ..      POP      {r4,r5,r7,pc}
        0x0001a0fa:    bf00        ..      NOP      
        0x0001a0fc:    2002        .       MOVS     r0,#2
        0x0001a0fe:    b002        ..      ADD      sp,sp,#8
        0x0001a100:    bdb0        ..      POP      {r4,r5,r7,pc}
        0x0001a102:    bf00        ..      NOP      
        0x0001a104:    2003        .       MOVS     r0,#3
        0x0001a106:    b002        ..      ADD      sp,sp,#8
        0x0001a108:    bdb0        ..      POP      {r4,r5,r7,pc}
        0x0001a10a:    0000        ..      MOVS     r0,r0
    am_hal_daxi_config
        0x0001a10c:    b570        p.      PUSH     {r4-r6,lr}
        0x0001a10e:    b082        ..      SUB      sp,sp,#8
        0x0001a110:    2654        T&      MOVS     r6,#0x54
        0x0001a112:    2500        .%      MOVS     r5,#0
        0x0001a114:    4604        .F      MOV      r4,r0
        0x0001a116:    f6c40600    ....    MOVT     r6,#0x4800
        0x0001a11a:    f2c475ff    ...u    MOVT     r5,#0x47ff
        0x0001a11e:    f000fab7    ....    BL       am_hal_interrupt_master_disable ; 0x1a690
        0x0001a122:    9000        ..      STR      r0,[sp,#0]
        0x0001a124:    f000fab4    ....    BL       am_hal_interrupt_master_disable ; 0x1a690
        0x0001a128:    9001        ..      STR      r0,[sp,#4]
        0x0001a12a:    f8560c04    V...    LDR      r0,[r6,#-4]
        0x0001a12e:    0740        @.      LSLS     r0,r0,#29
        0x0001a130:    d418        ..      BMI      0x1a164 ; am_hal_daxi_config + 88
        0x0001a132:    f3bf8f4f    ..O.    DSB      
        0x0001a136:    6830        0h      LDR      r0,[r6,#0]
        0x0001a138:    f0400001    @...    ORR      r0,r0,#1
        0x0001a13c:    6030        0`      STR      r0,[r6,#0]
        0x0001a13e:    6828        (h      LDR      r0,[r5,#0]
        0x0001a140:    6830        0h      LDR      r0,[r6,#0]
        0x0001a142:    0740        @.      LSLS     r0,r0,#29
        0x0001a144:    d409        ..      BMI      0x1a15a ; am_hal_daxi_config + 78
        0x0001a146:    6830        0h      LDR      r0,[r6,#0]
        0x0001a148:    0740        @.      LSLS     r0,r0,#29
        0x0001a14a:    bf5c        \.      ITT      PL
        0x0001a14c:    6830        0h      LDRPL    r0,[r6,#0]
        0x0001a14e:    ea5f7040    _.@p    LSLSPL   r0,r0,#29
        0x0001a152:    d402        ..      BMI      0x1a15a ; am_hal_daxi_config + 78
        0x0001a154:    6830        0h      LDR      r0,[r6,#0]
        0x0001a156:    0740        @.      LSLS     r0,r0,#29
        0x0001a158:    d5f2        ..      BPL      0x1a140 ; am_hal_daxi_config + 52
        0x0001a15a:    6830        0h      LDR      r0,[r6,#0]
        0x0001a15c:    f0400002    @...    ORR      r0,r0,#2
        0x0001a160:    6030        0`      STR      r0,[r6,#0]
        0x0001a162:    6828        (h      LDR      r0,[r5,#0]
        0x0001a164:    9801        ..      LDR      r0,[sp,#4]
        0x0001a166:    f000fa9b    ....    BL       am_hal_interrupt_master_set ; 0x1a6a0
        0x0001a16a:    b1dc        ..      CBZ      r4,0x1a1a4 ; am_hal_daxi_config + 152
        0x0001a16c:    7860        `x      LDRB     r0,[r4,#1]
        0x0001a16e:    7922        "y      LDRB     r2,[r4,#4]
        0x0001a170:    78a1        .x      LDRB     r1,[r4,#2]
        0x0001a172:    78e3        .x      LDRB     r3,[r4,#3]
        0x0001a174:    f0020201    ....    AND      r2,r2,#1
        0x0001a178:    f000007f    ....    AND      r0,r0,#0x7f
        0x0001a17c:    ea420040    B.@.    ORR      r0,r2,r0,LSL #1
        0x0001a180:    f363200b    c..     BFI      r0,r3,#8,#4
        0x0001a184:    f001011f    ....    AND      r1,r1,#0x1f
        0x0001a188:    ea404001    @..@    ORR      r0,r0,r1,LSL #16
        0x0001a18c:    f8460c04    F...    STR      r0,[r6,#-4]
        0x0001a190:    7920         y      LDRB     r0,[r4,#4]
        0x0001a192:    f24001b0    @...    MOVW     r1,#0xb0
        0x0001a196:    f2c10100    ....    MOVT     r1,#0x1000
        0x0001a19a:    7108        .q      STRB     r0,[r1,#4]
        0x0001a19c:    6820         h      LDR      r0,[r4,#0]
        0x0001a19e:    6008        .`      STR      r0,[r1,#0]
        0x0001a1a0:    e003        ..      B        0x1a1aa ; am_hal_daxi_config + 158
        0x0001a1a2:    bf00        ..      NOP      
        0x0001a1a4:    2006        .       MOVS     r0,#6
        0x0001a1a6:    f8460c04    F...    STR      r0,[r6,#-4]
        0x0001a1aa:    6828        (h      LDR      r0,[r5,#0]
        0x0001a1ac:    9800        ..      LDR      r0,[sp,#0]
        0x0001a1ae:    f000fa77    ..w.    BL       am_hal_interrupt_master_set ; 0x1a6a0
        0x0001a1b2:    2000        .       MOVS     r0,#0
        0x0001a1b4:    b002        ..      ADD      sp,sp,#8
        0x0001a1b6:    bd70        p.      POP      {r4-r6,pc}
    am_hal_daxi_control
        0x0001a1b8:    b5b0        ..      PUSH     {r4,r5,r7,lr}
        0x0001a1ba:    b084        ..      SUB      sp,sp,#0x10
        0x0001a1bc:    2803        .(      CMP      r0,#3
        0x0001a1be:    d817        ..      BHI      0x1a1f0 ; am_hal_daxi_control + 56
        0x0001a1c0:    e8dff000    ....    TBB      [pc,r0]
    $d.9
        0x0001a1c4:    7c461a02    ..F|    DCD    2084968962
    $t.10
        0x0001a1c8:    2054        T       MOVS     r0,#0x54
        0x0001a1ca:    f6c40000    ....    MOVT     r0,#0x4800
        0x0001a1ce:    f8501c04    P...    LDR      r1,[r0,#-4]
        0x0001a1d2:    0749        I.      LSLS     r1,r1,#29
        0x0001a1d4:    d409        ..      BMI      0x1a1ea ; am_hal_daxi_control + 50
        0x0001a1d6:    f3bf8f4f    ..O.    DSB      
        0x0001a1da:    6801        .h      LDR      r1,[r0,#0]
        0x0001a1dc:    f0410102    A...    ORR      r1,r1,#2
        0x0001a1e0:    6001        .`      STR      r1,[r0,#0]
        0x0001a1e2:    2000        .       MOVS     r0,#0
        0x0001a1e4:    f2c470ff    ...p    MOVT     r0,#0x47ff
        0x0001a1e8:    6800        .h      LDR      r0,[r0,#0]
        0x0001a1ea:    2000        .       MOVS     r0,#0
        0x0001a1ec:    b004        ..      ADD      sp,sp,#0x10
        0x0001a1ee:    bdb0        ..      POP      {r4,r5,r7,pc}
        0x0001a1f0:    2006        .       MOVS     r0,#6
        0x0001a1f2:    b004        ..      ADD      sp,sp,#0x10
        0x0001a1f4:    bdb0        ..      POP      {r4,r5,r7,pc}
        0x0001a1f6:    bf00        ..      NOP      
        0x0001a1f8:    2454        T$      MOVS     r4,#0x54
        0x0001a1fa:    f6c40400    ....    MOVT     r4,#0x4800
        0x0001a1fe:    f000fa47    ..G.    BL       am_hal_interrupt_master_disable ; 0x1a690
        0x0001a202:    9001        ..      STR      r0,[sp,#4]
        0x0001a204:    f8540c04    T...    LDR      r0,[r4,#-4]
        0x0001a208:    0740        @.      LSLS     r0,r0,#29
        0x0001a20a:    d41b        ..      BMI      0x1a244 ; am_hal_daxi_control + 140
        0x0001a20c:    f3bf8f4f    ..O.    DSB      
        0x0001a210:    6821        !h      LDR      r1,[r4,#0]
        0x0001a212:    2000        .       MOVS     r0,#0
        0x0001a214:    f0410101    A...    ORR      r1,r1,#1
        0x0001a218:    f2c470ff    ...p    MOVT     r0,#0x47ff
        0x0001a21c:    6021        !`      STR      r1,[r4,#0]
        0x0001a21e:    6801        .h      LDR      r1,[r0,#0]
        0x0001a220:    6821        !h      LDR      r1,[r4,#0]
        0x0001a222:    0749        I.      LSLS     r1,r1,#29
        0x0001a224:    d409        ..      BMI      0x1a23a ; am_hal_daxi_control + 130
        0x0001a226:    6821        !h      LDR      r1,[r4,#0]
        0x0001a228:    0749        I.      LSLS     r1,r1,#29
        0x0001a22a:    bf5c        \.      ITT      PL
        0x0001a22c:    6821        !h      LDRPL    r1,[r4,#0]
        0x0001a22e:    ea5f7141    _.Aq    LSLSPL   r1,r1,#29
        0x0001a232:    d402        ..      BMI      0x1a23a ; am_hal_daxi_control + 130
        0x0001a234:    6821        !h      LDR      r1,[r4,#0]
        0x0001a236:    0749        I.      LSLS     r1,r1,#29
        0x0001a238:    d5f2        ..      BPL      0x1a220 ; am_hal_daxi_control + 104
        0x0001a23a:    6821        !h      LDR      r1,[r4,#0]
        0x0001a23c:    f0410102    A...    ORR      r1,r1,#2
        0x0001a240:    6021        !`      STR      r1,[r4,#0]
        0x0001a242:    6800        .h      LDR      r0,[r0,#0]
        0x0001a244:    9801        ..      LDR      r0,[sp,#4]
        0x0001a246:    f000fa2b    ..+.    BL       am_hal_interrupt_master_set ; 0x1a6a0
        0x0001a24a:    2000        .       MOVS     r0,#0
        0x0001a24c:    b004        ..      ADD      sp,sp,#0x10
        0x0001a24e:    bdb0        ..      POP      {r4,r5,r7,pc}
        0x0001a250:    2454        T$      MOVS     r4,#0x54
        0x0001a252:    2500        .%      MOVS     r5,#0
        0x0001a254:    f6c40400    ....    MOVT     r4,#0x4800
        0x0001a258:    f2c475ff    ...u    MOVT     r5,#0x47ff
        0x0001a25c:    f000fa18    ....    BL       am_hal_interrupt_master_disable ; 0x1a690
        0x0001a260:    9002        ..      STR      r0,[sp,#8]
        0x0001a262:    f000fa15    ....    BL       am_hal_interrupt_master_disable ; 0x1a690
        0x0001a266:    9003        ..      STR      r0,[sp,#0xc]
        0x0001a268:    f8540c04    T...    LDR      r0,[r4,#-4]
        0x0001a26c:    0740        @.      LSLS     r0,r0,#29
        0x0001a26e:    d418        ..      BMI      0x1a2a2 ; am_hal_daxi_control + 234
        0x0001a270:    f3bf8f4f    ..O.    DSB      
        0x0001a274:    6820         h      LDR      r0,[r4,#0]
        0x0001a276:    f0400001    @...    ORR      r0,r0,#1
        0x0001a27a:    6020         `      STR      r0,[r4,#0]
        0x0001a27c:    6828        (h      LDR      r0,[r5,#0]
        0x0001a27e:    6820         h      LDR      r0,[r4,#0]
        0x0001a280:    0740        @.      LSLS     r0,r0,#29
        0x0001a282:    d409        ..      BMI      0x1a298 ; am_hal_daxi_control + 224
        0x0001a284:    6820         h      LDR      r0,[r4,#0]
        0x0001a286:    0740        @.      LSLS     r0,r0,#29
        0x0001a288:    bf5c        \.      ITT      PL
        0x0001a28a:    6820         h      LDRPL    r0,[r4,#0]
        0x0001a28c:    ea5f7040    _.@p    LSLSPL   r0,r0,#29
        0x0001a290:    d402        ..      BMI      0x1a298 ; am_hal_daxi_control + 224
        0x0001a292:    6820         h      LDR      r0,[r4,#0]
        0x0001a294:    0740        @.      LSLS     r0,r0,#29
        0x0001a296:    d5f2        ..      BPL      0x1a27e ; am_hal_daxi_control + 198
        0x0001a298:    6820         h      LDR      r0,[r4,#0]
        0x0001a29a:    f0400002    @...    ORR      r0,r0,#2
        0x0001a29e:    6020         `      STR      r0,[r4,#0]
        0x0001a2a0:    6828        (h      LDR      r0,[r5,#0]
        0x0001a2a2:    9803        ..      LDR      r0,[sp,#0xc]
        0x0001a2a4:    f000f9fc    ....    BL       am_hal_interrupt_master_set ; 0x1a6a0
        0x0001a2a8:    2006        .       MOVS     r0,#6
        0x0001a2aa:    f8440c04    D...    STR      r0,[r4,#-4]
        0x0001a2ae:    6828        (h      LDR      r0,[r5,#0]
        0x0001a2b0:    9802        ..      LDR      r0,[sp,#8]
        0x0001a2b2:    f000f9f5    ....    BL       am_hal_interrupt_master_set ; 0x1a6a0
        0x0001a2b6:    2000        .       MOVS     r0,#0
        0x0001a2b8:    b004        ..      ADD      sp,sp,#0x10
        0x0001a2ba:    bdb0        ..      POP      {r4,r5,r7,pc}
        0x0001a2bc:    f24000b0    @...    MOVW     r0,#0xb0
        0x0001a2c0:    f2c10000    ....    MOVT     r0,#0x1000
        0x0001a2c4:    f7ffff22    ..".    BL       am_hal_daxi_config ; 0x1a10c
        0x0001a2c8:    2000        .       MOVS     r0,#0
        0x0001a2ca:    b004        ..      ADD      sp,sp,#0x10
        0x0001a2cc:    bdb0        ..      POP      {r4,r5,r7,pc}
        0x0001a2ce:    0000        ..      MOVS     r0,r0
    am_hal_dcu_get
        0x0001a2d0:    b510        ..      PUSH     {r4,lr}
        0x0001a2d2:    f2410108    A...    MOV      r1,#0x1008
        0x0001a2d6:    f2c40102    ....    MOVT     r1,#0x4002
        0x0001a2da:    6809        .h      LDR      r1,[r1,#0]
        0x0001a2dc:    02c9        ..      LSLS     r1,r1,#11
        0x0001a2de:    d507        ..      BPL      0x1a2f0 ; am_hal_dcu_get + 32
        0x0001a2e0:    4604        .F      MOV      r4,r0
        0x0001a2e2:    f640207c    @.|     MOV      r0,#0xa7c
        0x0001a2e6:    f2c4000c    ....    MOVT     r0,#0x400c
        0x0001a2ea:    6800        .h      LDR      r0,[r0,#0]
        0x0001a2ec:    07c0        ..      LSLS     r0,r0,#31
        0x0001a2ee:    d101        ..      BNE      0x1a2f4 ; am_hal_dcu_get + 36
        0x0001a2f0:    2007        .       MOVS     r0,#7
        0x0001a2f2:    bd10        ..      POP      {r4,pc}
        0x0001a2f4:    f2400000    @...    MOVW     r0,#0
        0x0001a2f8:    f2c10000    ....    MOVT     r0,#0x1000
        0x0001a2fc:    6801        .h      LDR      r1,[r0,#0]
        0x0001a2fe:    2205        ."      MOVS     r2,#5
        0x0001a300:    6808        .h      LDR      r0,[r1,#0]
        0x0001a302:    6849        Ih      LDR      r1,[r1,#4]
        0x0001a304:    f004f82c    ..,.    BL       get_ui32_dcu_mask ; 0x1e360
        0x0001a308:    6020         `      STR      r0,[r4,#0]
        0x0001a30a:    2000        .       MOVS     r0,#0
        0x0001a30c:    bd10        ..      POP      {r4,pc}
        0x0001a30e:    0000        ..      MOVS     r0,r0
    am_hal_dcu_update
        0x0001a310:    b5f0        ..      PUSH     {r4-r7,lr}
        0x0001a312:    b081        ..      SUB      sp,sp,#4
        0x0001a314:    f2410208    A...    MOV      r2,#0x1008
        0x0001a318:    f2c40202    ....    MOVT     r2,#0x4002
        0x0001a31c:    6812        .h      LDR      r2,[r2,#0]
        0x0001a31e:    02d2        ..      LSLS     r2,r2,#11
        0x0001a320:    d516        ..      BPL      0x1a350 ; am_hal_dcu_update + 64
        0x0001a322:    f640257c    @.|%    MOV      r5,#0xa7c
        0x0001a326:    f2c4050c    ....    MOVT     r5,#0x400c
        0x0001a32a:    4604        .F      MOV      r4,r0
        0x0001a32c:    6828        (h      LDR      r0,[r5,#0]
        0x0001a32e:    07c0        ..      LSLS     r0,r0,#31
        0x0001a330:    d00e        ..      BEQ      0x1a350 ; am_hal_dcu_update + 64
        0x0001a332:    4608        .F      MOV      r0,r1
        0x0001a334:    f003fe02    ....    BL       get_raw_dcu_mask ; 0x1df3c
        0x0001a338:    f2400c00    @...    MOVW     r12,#0
        0x0001a33c:    f2c10c00    ....    MOVT     r12,#0x1000
        0x0001a340:    f8dc3004    ...0    LDR      r3,[r12,#4]
        0x0001a344:    681a        .h      LDR      r2,[r3,#0]
        0x0001a346:    685b        [h      LDR      r3,[r3,#4]
        0x0001a348:    4002        .@      ANDS     r2,r2,r0
        0x0001a34a:    400b        .@      ANDS     r3,r3,r1
        0x0001a34c:    431a        .C      ORRS     r2,r2,r3
        0x0001a34e:    d003        ..      BEQ      0x1a358 ; am_hal_dcu_update + 72
        0x0001a350:    2007        .       MOVS     r0,#7
        0x0001a352:    b001        ..      ADD      sp,sp,#4
        0x0001a354:    bdf0        ..      POP      {r4-r7,pc}
        0x0001a356:    bf00        ..      NOP      
        0x0001a358:    f8dc2000    ...     LDR      r2,[r12,#0]
        0x0001a35c:    2610        .&      MOVS     r6,#0x10
        0x0001a35e:    6813        .h      LDR      r3,[r2,#0]
        0x0001a360:    f8d2e004    ....    LDR      lr,[r2,#4]
        0x0001a364:    2c00        .,      CMP      r4,#0
        0x0001a366:    bf18        ..      IT       NE
        0x0001a368:    2608        .&      MOVNE    r6,#8
        0x0001a36a:    eb0c0406    ....    ADD      r4,r12,r6
        0x0001a36e:    f85c6006    \..`    LDR      r6,[r12,r6]
        0x0001a372:    6864        dh      LDR      r4,[r4,#4]
        0x0001a374:    ea230700    #...    BIC      r7,r3,r0
        0x0001a378:    ea2e0301    ....    BIC      r3,lr,r1
        0x0001a37c:    4030        0@      ANDS     r0,r0,r6
        0x0001a37e:    4021        !@      ANDS     r1,r1,r4
        0x0001a380:    4419        .D      ADD      r1,r1,r3
        0x0001a382:    4438        8D      ADD      r0,r0,r7
        0x0001a384:    6010        .`      STR      r0,[r2,#0]
        0x0001a386:    6051        Q`      STR      r1,[r2,#4]
        0x0001a388:    6828        (h      LDR      r0,[r5,#0]
        0x0001a38a:    07c0        ..      LSLS     r0,r0,#31
        0x0001a38c:    d10e        ..      BNE      0x1a3ac ; am_hal_dcu_update + 156
        0x0001a38e:    6828        (h      LDR      r0,[r5,#0]
        0x0001a390:    07c0        ..      LSLS     r0,r0,#31
        0x0001a392:    bf04        ..      ITT      EQ
        0x0001a394:    6828        (h      LDREQ    r0,[r5,#0]
        0x0001a396:    ea5f70c0    _..p    LSLSEQ   r0,r0,#31
        0x0001a39a:    d107        ..      BNE      0x1a3ac ; am_hal_dcu_update + 156
        0x0001a39c:    6828        (h      LDR      r0,[r5,#0]
        0x0001a39e:    07c0        ..      LSLS     r0,r0,#31
        0x0001a3a0:    f04f0000    O...    MOV      r0,#0
        0x0001a3a4:    d0f0        ..      BEQ      0x1a388 ; am_hal_dcu_update + 120
        0x0001a3a6:    b001        ..      ADD      sp,sp,#4
        0x0001a3a8:    bdf0        ..      POP      {r4-r7,pc}
        0x0001a3aa:    bf00        ..      NOP      
        0x0001a3ac:    2000        .       MOVS     r0,#0
        0x0001a3ae:    b001        ..      ADD      sp,sp,#4
        0x0001a3b0:    bdf0        ..      POP      {r4-r7,pc}
        0x0001a3b2:    0000        ..      MOVS     r0,r0
    am_hal_delay_us
        0x0001a3b4:    f2410100    A...    MOVW     r1,#0x1000
        0x0001a3b8:    f2c40102    ....    MOVT     r1,#0x4002
        0x0001a3bc:    6809        .h      LDR      r1,[r1,#0]
        0x0001a3be:    2205        ."      MOVS     r2,#5
        0x0001a3c0:    f0010118    ....    AND      r1,r1,#0x18
        0x0001a3c4:    2910        .)      CMP      r1,#0x10
        0x0001a3c6:    bf08        ..      IT       EQ
        0x0001a3c8:    2206        ."      MOVEQ    r2,#6
        0x0001a3ca:    fa00f002    ....    LSL      r0,r0,r2
        0x0001a3ce:    f04f010f    O...    MOV      r1,#0xf
        0x0001a3d2:    bf08        ..      IT       EQ
        0x0001a3d4:    2115        .!      MOVEQ    r1,#0x15
        0x0001a3d6:    4281        .B      CMP      r1,r0
        0x0001a3d8:    bf28        (.      IT       CS
        0x0001a3da:    4770        pG      BXCS     lr
        0x0001a3dc:    1a40        @.      SUBS     r0,r0,r1
        0x0001a3de:    f64f4118    O..A    MOV      r1,#0xfc18
        0x0001a3e2:    f2c00101    ....    MOVT     r1,#1
        0x0001a3e6:    6a49        Ij      LDR      r1,[r1,#0x24]
        0x0001a3e8:    4708        .G      BX       r1
        0x0001a3ea:    0000        ..      MOVS     r0,r0
    am_hal_delay_us_status_change
        0x0001a3ec:    e92d43f0    -..C    PUSH     {r4-r9,lr}
        0x0001a3f0:    b081        ..      SUB      sp,sp,#4
        0x0001a3f2:    460d        .F      MOV      r5,r1
        0x0001a3f4:    6809        .h      LDR      r1,[r1,#0]
        0x0001a3f6:    4011        .@      ANDS     r1,r1,r2
        0x0001a3f8:    4299        .B      CMP      r1,r3
        0x0001a3fa:    d01b        ..      BEQ      0x1a434 ; am_hal_delay_us_status_change + 72
        0x0001a3fc:    f64f4118    O..A    MOV      r1,#0xfc18
        0x0001a400:    f2c00101    ....    MOVT     r1,#1
        0x0001a404:    6a4f        Oj      LDR      r7,[r1,#0x24]
        0x0001a406:    f2410900    A...    MOVW     r9,#0x1000
        0x0001a40a:    4698        .F      MOV      r8,r3
        0x0001a40c:    4616        .F      MOV      r6,r2
        0x0001a40e:    1c44        D.      ADDS     r4,r0,#1
        0x0001a410:    f2c40902    ....    MOVT     r9,#0x4002
        0x0001a414:    3c01        .<      SUBS     r4,#1
        0x0001a416:    d011        ..      BEQ      0x1a43c ; am_hal_delay_us_status_change + 80
        0x0001a418:    f8d90000    ....    LDR      r0,[r9,#0]
        0x0001a41c:    f0000018    ....    AND      r0,r0,#0x18
        0x0001a420:    2810        .(      CMP      r0,#0x10
        0x0001a422:    f04f0011    O...    MOV      r0,#0x11
        0x0001a426:    bf08        ..      IT       EQ
        0x0001a428:    202b        +       MOVEQ    r0,#0x2b
        0x0001a42a:    47b8        .G      BLX      r7
        0x0001a42c:    6828        (h      LDR      r0,[r5,#0]
        0x0001a42e:    4030        0@      ANDS     r0,r0,r6
        0x0001a430:    4540        @E      CMP      r0,r8
        0x0001a432:    d1ef        ..      BNE      0x1a414 ; am_hal_delay_us_status_change + 40
        0x0001a434:    2000        .       MOVS     r0,#0
        0x0001a436:    b001        ..      ADD      sp,sp,#4
        0x0001a438:    e8bd83f0    ....    POP      {r4-r9,pc}
        0x0001a43c:    2004        .       MOVS     r0,#4
        0x0001a43e:    b001        ..      ADD      sp,sp,#4
        0x0001a440:    e8bd83f0    ....    POP      {r4-r9,pc}
    am_hal_delay_us_status_check
        0x0001a444:    e92d43f0    -..C    PUSH     {r4-r9,lr}
        0x0001a448:    b081        ..      SUB      sp,sp,#4
        0x0001a44a:    4615        .F      MOV      r5,r2
        0x0001a44c:    f64f4218    O..B    MOV      r2,#0xfc18
        0x0001a450:    460e        .F      MOV      r6,r1
        0x0001a452:    f2c00201    ....    MOVT     r2,#1
        0x0001a456:    9908        ..      LDR      r1,[sp,#0x20]
        0x0001a458:    f8d29024    ..$.    LDR      r9,[r2,#0x24]
        0x0001a45c:    6832        2h      LDR      r2,[r6,#0]
        0x0001a45e:    461c        .F      MOV      r4,r3
        0x0001a460:    2900        .)      CMP      r1,#0
        0x0001a462:    ea020105    ....    AND      r1,r2,r5
        0x0001a466:    d019        ..      BEQ      0x1a49c ; am_hal_delay_us_status_check + 88
        0x0001a468:    42a1        .B      CMP      r1,r4
        0x0001a46a:    d02f        /.      BEQ      0x1a4cc ; am_hal_delay_us_status_check + 136
        0x0001a46c:    f2410800    A...    MOVW     r8,#0x1000
        0x0001a470:    f2c40802    ....    MOVT     r8,#0x4002
        0x0001a474:    1c47        G.      ADDS     r7,r0,#1
        0x0001a476:    bf00        ..      NOP      
        0x0001a478:    3f01        .?      SUBS     r7,#1
        0x0001a47a:    d02b        +.      BEQ      0x1a4d4 ; am_hal_delay_us_status_check + 144
        0x0001a47c:    f8d80000    ....    LDR      r0,[r8,#0]
        0x0001a480:    f0000018    ....    AND      r0,r0,#0x18
        0x0001a484:    2810        .(      CMP      r0,#0x10
        0x0001a486:    f04f0011    O...    MOV      r0,#0x11
        0x0001a48a:    bf08        ..      IT       EQ
        0x0001a48c:    202b        +       MOVEQ    r0,#0x2b
        0x0001a48e:    47c8        .G      BLX      r9
        0x0001a490:    6830        0h      LDR      r0,[r6,#0]
        0x0001a492:    4028        (@      ANDS     r0,r0,r5
        0x0001a494:    42a0        .B      CMP      r0,r4
        0x0001a496:    d1ef        ..      BNE      0x1a478 ; am_hal_delay_us_status_check + 52
        0x0001a498:    e018        ..      B        0x1a4cc ; am_hal_delay_us_status_check + 136
        0x0001a49a:    bf00        ..      NOP      
        0x0001a49c:    42a1        .B      CMP      r1,r4
        0x0001a49e:    d115        ..      BNE      0x1a4cc ; am_hal_delay_us_status_check + 136
        0x0001a4a0:    f2410800    A...    MOVW     r8,#0x1000
        0x0001a4a4:    f2c40802    ....    MOVT     r8,#0x4002
        0x0001a4a8:    1c47        G.      ADDS     r7,r0,#1
        0x0001a4aa:    bf00        ..      NOP      
        0x0001a4ac:    3f01        .?      SUBS     r7,#1
        0x0001a4ae:    d011        ..      BEQ      0x1a4d4 ; am_hal_delay_us_status_check + 144
        0x0001a4b0:    f8d80000    ....    LDR      r0,[r8,#0]
        0x0001a4b4:    f0000018    ....    AND      r0,r0,#0x18
        0x0001a4b8:    2810        .(      CMP      r0,#0x10
        0x0001a4ba:    f04f0011    O...    MOV      r0,#0x11
        0x0001a4be:    bf08        ..      IT       EQ
        0x0001a4c0:    202b        +       MOVEQ    r0,#0x2b
        0x0001a4c2:    47c8        .G      BLX      r9
        0x0001a4c4:    6830        0h      LDR      r0,[r6,#0]
        0x0001a4c6:    4028        (@      ANDS     r0,r0,r5
        0x0001a4c8:    42a0        .B      CMP      r0,r4
        0x0001a4ca:    d0ef        ..      BEQ      0x1a4ac ; am_hal_delay_us_status_check + 104
        0x0001a4cc:    2000        .       MOVS     r0,#0
        0x0001a4ce:    b001        ..      ADD      sp,sp,#4
        0x0001a4d0:    e8bd83f0    ....    POP      {r4-r9,pc}
        0x0001a4d4:    2004        .       MOVS     r0,#4
        0x0001a4d6:    b001        ..      ADD      sp,sp,#4
        0x0001a4d8:    e8bd83f0    ....    POP      {r4-r9,pc}
    am_hal_fault_capture_enable
        0x0001a4dc:    2190        .!      MOVS     r1,#0x90
        0x0001a4de:    f6c40100    ....    MOVT     r1,#0x4800
        0x0001a4e2:    6808        .h      LDR      r0,[r1,#0]
        0x0001a4e4:    f0400201    @...    ORR      r2,r0,#1
        0x0001a4e8:    2000        .       MOVS     r0,#0
        0x0001a4ea:    600a        .`      STR      r2,[r1,#0]
        0x0001a4ec:    4770        pG      BX       lr
        0x0001a4ee:    0000        ..      MOVS     r0,r0
    am_hal_fault_status_get
        0x0001a4f0:    2800        .(      CMP      r0,#0
        0x0001a4f2:    bf04        ..      ITT      EQ
        0x0001a4f4:    2006        .       MOVEQ    r0,#6
        0x0001a4f6:    4770        pG      BXEQ     lr
        0x0001a4f8:    2180        .!      MOVS     r1,#0x80
        0x0001a4fa:    f6c40100    ....    MOVT     r1,#0x4800
        0x0001a4fe:    68ca        .h      LDR      r2,[r1,#0xc]
        0x0001a500:    f0020301    ....    AND      r3,r2,#1
        0x0001a504:    7003        .p      STRB     r3,[r0,#0]
        0x0001a506:    f3c20340    ..@.    UBFX     r3,r2,#1,#1
        0x0001a50a:    f3c20280    ....    UBFX     r2,r2,#2,#1
        0x0001a50e:    7203        .r      STRB     r3,[r0,#8]
        0x0001a510:    7402        .t      STRB     r2,[r0,#0x10]
        0x0001a512:    684a        Jh      LDR      r2,[r1,#4]
        0x0001a514:    60c2        .`      STR      r2,[r0,#0xc]
        0x0001a516:    680a        .h      LDR      r2,[r1,#0]
        0x0001a518:    6843        Ch      LDR      r3,[r0,#4]
        0x0001a51a:    431a        .C      ORRS     r2,r2,r3
        0x0001a51c:    6042        B`      STR      r2,[r0,#4]
        0x0001a51e:    6889        .h      LDR      r1,[r1,#8]
        0x0001a520:    6942        Bi      LDR      r2,[r0,#0x14]
        0x0001a522:    4311        .C      ORRS     r1,r1,r2
        0x0001a524:    6141        Aa      STR      r1,[r0,#0x14]
        0x0001a526:    2000        .       MOVS     r0,#0
        0x0001a528:    4770        pG      BX       lr
        0x0001a52a:    0000        ..      MOVS     r0,r0
    am_hal_gpio_pinconfig
        0x0001a52c:    b081        ..      SUB      sp,sp,#4
        0x0001a52e:    287f        .(      CMP      r0,#0x7f
        0x0001a530:    9100        ..      STR      r1,[sp,#0]
        0x0001a532:    bf82        ..      ITTT     HI
        0x0001a534:    2005        .       MOVHI    r0,#5
        0x0001a536:    b001        ..      ADDHI    sp,sp,#4
        0x0001a538:    4770        pG      BXHI     lr
        0x0001a53a:    0509        ..      LSLS     r1,r1,#20
        0x0001a53c:    d50b        ..      BPL      0x1a556 ; am_hal_gpio_pinconfig + 42
        0x0001a53e:    f2403210    @..2    MOVW     r2,#0x310
        0x0001a542:    0941        A.      LSRS     r1,r0,#5
        0x0001a544:    f2c00202    ....    MOVT     r2,#2
        0x0001a548:    f8521021    R.!.    LDR      r1,[r2,r1,LSL #2]
        0x0001a54c:    f000021f    ....    AND      r2,r0,#0x1f
        0x0001a550:    40d1        .@      LSRS     r1,r1,r2
        0x0001a552:    07c9        ..      LSLS     r1,r1,#31
        0x0001a554:    d012        ..      BEQ      0x1a57c ; am_hal_gpio_pinconfig + 80
        0x0001a556:    f2402100    @..!    MOVW     r1,#0x200
        0x0001a55a:    f2c40101    ....    MOVT     r1,#0x4001
        0x0001a55e:    2273        s"      MOVS     r2,#0x73
        0x0001a560:    600a        .`      STR      r2,[r1,#0]
        0x0001a562:    9a00        ..      LDR      r2,[sp,#0]
        0x0001a564:    f64f6300    O..c    MOVW     r3,#0xfe00
        0x0001a568:    eb010080    ....    ADD      r0,r1,r0,LSL #2
        0x0001a56c:    f6cf73ff    ...s    MOVT     r3,#0xffff
        0x0001a570:    50c2        .P      STR      r2,[r0,r3]
        0x0001a572:    2000        .       MOVS     r0,#0
        0x0001a574:    6008        .`      STR      r0,[r1,#0]
        0x0001a576:    b001        ..      ADD      sp,sp,#4
        0x0001a578:    4770        pG      BX       lr
        0x0001a57a:    bf00        ..      NOP      
        0x0001a57c:    2007        .       MOVS     r0,#7
        0x0001a57e:    b001        ..      ADD      sp,sp,#4
        0x0001a580:    4770        pG      BX       lr
        0x0001a582:    0000        ..      MOVS     r0,r0
    am_hal_gpio_state_write
        0x0001a584:    b510        ..      PUSH     {r4,lr}
        0x0001a586:    b082        ..      SUB      sp,sp,#8
        0x0001a588:    2905        .)      CMP      r1,#5
        0x0001a58a:    d813        ..      BHI      0x1a5b4 ; am_hal_gpio_state_write + 48
        0x0001a58c:    4604        .F      MOV      r4,r0
        0x0001a58e:    e8dff001    ....    TBB      [pc,r1]
    $d.5
        0x0001a592:    1503        ..      DCW    5379
        0x0001a594:    65534127    'ASe    DCD    1699954983
    $t.6
        0x0001a598:    f004001f    ....    AND      r0,r4,#0x1f
        0x0001a59c:    2101        .!      MOVS     r1,#1
        0x0001a59e:    f2402214    @.."    MOVW     r2,#0x214
        0x0001a5a2:    fa01f000    ....    LSL      r0,r1,r0
        0x0001a5a6:    f3c41141    ..A.    UBFX     r1,r4,#5,#2
        0x0001a5aa:    f2c40201    ....    MOVT     r2,#0x4001
        0x0001a5ae:    eb020181    ....    ADD      r1,r2,r1,LSL #2
        0x0001a5b2:    6208        .b      STR      r0,[r1,#0x20]
        0x0001a5b4:    2000        .       MOVS     r0,#0
        0x0001a5b6:    b002        ..      ADD      sp,sp,#8
        0x0001a5b8:    bd10        ..      POP      {r4,pc}
        0x0001a5ba:    bf00        ..      NOP      
        0x0001a5bc:    f004001f    ....    AND      r0,r4,#0x1f
        0x0001a5c0:    2101        .!      MOVS     r1,#1
        0x0001a5c2:    f2402214    @.."    MOVW     r2,#0x214
        0x0001a5c6:    fa01f000    ....    LSL      r0,r1,r0
        0x0001a5ca:    f3c41141    ..A.    UBFX     r1,r4,#5,#2
        0x0001a5ce:    f2c40201    ....    MOVT     r2,#0x4001
        0x0001a5d2:    eb020181    ....    ADD      r1,r2,r1,LSL #2
        0x0001a5d6:    6108        .a      STR      r0,[r1,#0x10]
        0x0001a5d8:    2000        .       MOVS     r0,#0
        0x0001a5da:    b002        ..      ADD      sp,sp,#8
        0x0001a5dc:    bd10        ..      POP      {r4,pc}
        0x0001a5de:    bf00        ..      NOP      
        0x0001a5e0:    f000f856    ..V.    BL       am_hal_interrupt_master_disable ; 0x1a690
        0x0001a5e4:    f2402314    @..#    MOVW     r3,#0x214
        0x0001a5e8:    9001        ..      STR      r0,[sp,#4]
        0x0001a5ea:    f3c41241    ..A.    UBFX     r2,r4,#5,#2
        0x0001a5ee:    f2c40301    ....    MOVT     r3,#0x4001
        0x0001a5f2:    f004001f    ....    AND      r0,r4,#0x1f
        0x0001a5f6:    2101        .!      MOVS     r1,#1
        0x0001a5f8:    f8534022    S."@    LDR      r4,[r3,r2,LSL #2]
        0x0001a5fc:    fa01f000    ....    LSL      r0,r1,r0
        0x0001a600:    4060        `@      EORS     r0,r0,r4
        0x0001a602:    f8430022    C.".    STR      r0,[r3,r2,LSL #2]
        0x0001a606:    9801        ..      LDR      r0,[sp,#4]
        0x0001a608:    f000f84a    ..J.    BL       am_hal_interrupt_master_set ; 0x1a6a0
        0x0001a60c:    2000        .       MOVS     r0,#0
        0x0001a60e:    b002        ..      ADD      sp,sp,#8
        0x0001a610:    bd10        ..      POP      {r4,pc}
        0x0001a612:    bf00        ..      NOP      
        0x0001a614:    f004001f    ....    AND      r0,r4,#0x1f
        0x0001a618:    2101        .!      MOVS     r1,#1
        0x0001a61a:    f2402214    @.."    MOVW     r2,#0x214
        0x0001a61e:    fa01f000    ....    LSL      r0,r1,r0
        0x0001a622:    f3c41141    ..A.    UBFX     r1,r4,#5,#2
        0x0001a626:    f2c40201    ....    MOVT     r2,#0x4001
        0x0001a62a:    eb020181    ....    ADD      r1,r2,r1,LSL #2
        0x0001a62e:    6508        .e      STR      r0,[r1,#0x50]
        0x0001a630:    2000        .       MOVS     r0,#0
        0x0001a632:    b002        ..      ADD      sp,sp,#8
        0x0001a634:    bd10        ..      POP      {r4,pc}
        0x0001a636:    bf00        ..      NOP      
        0x0001a638:    f004001f    ....    AND      r0,r4,#0x1f
        0x0001a63c:    2101        .!      MOVS     r1,#1
        0x0001a63e:    f2402214    @.."    MOVW     r2,#0x214
        0x0001a642:    fa01f000    ....    LSL      r0,r1,r0
        0x0001a646:    f3c41141    ..A.    UBFX     r1,r4,#5,#2
        0x0001a64a:    f2c40201    ....    MOVT     r2,#0x4001
        0x0001a64e:    eb020181    ....    ADD      r1,r2,r1,LSL #2
        0x0001a652:    6408        .d      STR      r0,[r1,#0x40]
        0x0001a654:    2000        .       MOVS     r0,#0
        0x0001a656:    b002        ..      ADD      sp,sp,#8
        0x0001a658:    bd10        ..      POP      {r4,pc}
        0x0001a65a:    bf00        ..      NOP      
        0x0001a65c:    f000f818    ....    BL       am_hal_interrupt_master_disable ; 0x1a690
        0x0001a660:    f2402314    @..#    MOVW     r3,#0x214
        0x0001a664:    f3c41241    ..A.    UBFX     r2,r4,#5,#2
        0x0001a668:    f2c40301    ....    MOVT     r3,#0x4001
        0x0001a66c:    9000        ..      STR      r0,[sp,#0]
        0x0001a66e:    eb030282    ....    ADD      r2,r3,r2,LSL #2
        0x0001a672:    f004001f    ....    AND      r0,r4,#0x1f
        0x0001a676:    2101        .!      MOVS     r1,#1
        0x0001a678:    6b13        .k      LDR      r3,[r2,#0x30]
        0x0001a67a:    fa01f000    ....    LSL      r0,r1,r0
        0x0001a67e:    4058        X@      EORS     r0,r0,r3
        0x0001a680:    6310        .c      STR      r0,[r2,#0x30]
        0x0001a682:    9800        ..      LDR      r0,[sp,#0]
        0x0001a684:    f000f80c    ....    BL       am_hal_interrupt_master_set ; 0x1a6a0
        0x0001a688:    2000        .       MOVS     r0,#0
        0x0001a68a:    b002        ..      ADD      sp,sp,#8
        0x0001a68c:    bd10        ..      POP      {r4,pc}
        0x0001a68e:    0000        ..      MOVS     r0,r0
    am_hal_interrupt_master_disable
        0x0001a690:    f3ef8010    ....    MRS      r0,PRIMASK
        0x0001a694:    b672        r.      CPSID    i
        0x0001a696:    4770        pG      BX       lr
    am_hal_interrupt_master_enable
        0x0001a698:    f3ef8010    ....    MRS      r0,PRIMASK
        0x0001a69c:    b662        b.      CPSIE    i
        0x0001a69e:    4770        pG      BX       lr
    am_hal_interrupt_master_set
        0x0001a6a0:    f3808810    ....    MSR      PRIMASK,r0
        0x0001a6a4:    4770        pG      BX       lr
        0x0001a6a6:    0000        ..      MOVS     r0,r0
    am_hal_itm_enable
        0x0001a6a8:    f64e50fc    N..P    MOV      r0,#0xedfc
        0x0001a6ac:    f2ce0000    ....    MOVT     r0,#0xe000
        0x0001a6b0:    6801        .h      LDR      r1,[r0,#0]
        0x0001a6b2:    f0417180    A..q    ORR      r1,r1,#0x1000000
        0x0001a6b6:    6001        .`      STR      r1,[r0,#0]
        0x0001a6b8:    6801        .h      LDR      r1,[r0,#0]
        0x0001a6ba:    01c9        ..      LSLS     r1,r1,#7
        0x0001a6bc:    d409        ..      BMI      0x1a6d2 ; am_hal_itm_enable + 42
        0x0001a6be:    6801        .h      LDR      r1,[r0,#0]
        0x0001a6c0:    01c9        ..      LSLS     r1,r1,#7
        0x0001a6c2:    bf5c        \.      ITT      PL
        0x0001a6c4:    6801        .h      LDRPL    r1,[r0,#0]
        0x0001a6c6:    ea5f11c1    _...    LSLSPL   r1,r1,#7
        0x0001a6ca:    d402        ..      BMI      0x1a6d2 ; am_hal_itm_enable + 42
        0x0001a6cc:    6801        .h      LDR      r1,[r0,#0]
        0x0001a6ce:    01c9        ..      LSLS     r1,r1,#7
        0x0001a6d0:    d5f2        ..      BPL      0x1a6b8 ; am_hal_itm_enable + 16
        0x0001a6d2:    f6406000    @..`    MOVW     r0,#0xe00
        0x0001a6d6:    f64c6155    L.Ua    MOV      r1,#0xce55
        0x0001a6da:    f2ce0000    ....    MOVT     r0,#0xe000
        0x0001a6de:    f2cc51ac    ...Q    MOVT     r1,#0xc5ac
        0x0001a6e2:    f8c011b0    ....    STR      r1,[r0,#0x1b0]
        0x0001a6e6:    210f        .!      MOVS     r1,#0xf
        0x0001a6e8:    6401        .d      STR      r1,[r0,#0x40]
        0x0001a6ea:    f04f31ff    O..1    MOV      r1,#0xffffffff
        0x0001a6ee:    6001        .`      STR      r1,[r0,#0]
        0x0001a6f0:    f2405111    @..Q    MOV      r1,#0x511
        0x0001a6f4:    f2c00115    ....    MOVT     r1,#0x15
        0x0001a6f8:    f8c01080    ....    STR      r1,[r0,#0x80]
        0x0001a6fc:    4770        pG      BX       lr
        0x0001a6fe:    0000        ..      MOVS     r0,r0
    am_hal_itm_print
        0x0001a700:    b510        ..      PUSH     {r4,lr}
        0x0001a702:    f04f31ff    O..1    MOV      r1,#0xffffffff
        0x0001a706:    bf00        ..      NOP      
        0x0001a708:    1842        B.      ADDS     r2,r0,r1
        0x0001a70a:    7853        Sx      LDRB     r3,[r2,#1]
        0x0001a70c:    b143        C.      CBZ      r3,0x1a720 ; am_hal_itm_print + 32
        0x0001a70e:    7893        .x      LDRB     r3,[r2,#2]
        0x0001a710:    b153        S.      CBZ      r3,0x1a728 ; am_hal_itm_print + 40
        0x0001a712:    78d3        .x      LDRB     r3,[r2,#3]
        0x0001a714:    b333        3.      CBZ      r3,0x1a764 ; am_hal_itm_print + 100
        0x0001a716:    7912        .y      LDRB     r2,[r2,#4]
        0x0001a718:    3104        .1      ADDS     r1,#4
        0x0001a71a:    2a00        .*      CMP      r2,#0
        0x0001a71c:    d1f4        ..      BNE      0x1a708 ; am_hal_itm_print + 8
        0x0001a71e:    e004        ..      B        0x1a72a ; am_hal_itm_print + 42
        0x0001a720:    3101        .1      ADDS     r1,#1
        0x0001a722:    b919        ..      CBNZ     r1,0x1a72c ; am_hal_itm_print + 44
        0x0001a724:    e021        !.      B        0x1a76a ; am_hal_itm_print + 106
        0x0001a726:    bf00        ..      NOP      
        0x0001a728:    3102        .1      ADDS     r1,#2
        0x0001a72a:    b1f1        ..      CBZ      r1,0x1a76a ; am_hal_itm_print + 106
        0x0001a72c:    f0110e03    ....    ANDS     lr,r1,#3
        0x0001a730:    f1a10c01    ....    SUB      r12,r1,#1
        0x0001a734:    d040        @.      BEQ      0x1a7b8 ; am_hal_itm_print + 184
        0x0001a736:    7802        .x      LDRB     r2,[r0,#0]
        0x0001a738:    f04f4360    O.`C    MOV      r3,#0xe0000000
        0x0001a73c:    681c        .h      LDR      r4,[r3,#0]
        0x0001a73e:    b934        4.      CBNZ     r4,0x1a74e ; am_hal_itm_print + 78
        0x0001a740:    681c        .h      LDR      r4,[r3,#0]
        0x0001a742:    b924        $.      CBNZ     r4,0x1a74e ; am_hal_itm_print + 78
        0x0001a744:    681c        .h      LDR      r4,[r3,#0]
        0x0001a746:    b914        ..      CBNZ     r4,0x1a74e ; am_hal_itm_print + 78
        0x0001a748:    681c        .h      LDR      r4,[r3,#0]
        0x0001a74a:    2c00        .,      CMP      r4,#0
        0x0001a74c:    d0f6        ..      BEQ      0x1a73c ; am_hal_itm_print + 60
        0x0001a74e:    1c44        D.      ADDS     r4,r0,#1
        0x0001a750:    f04f4360    O.`C    MOV      r3,#0xe0000000
        0x0001a754:    f1be0f01    ....    CMP      lr,#1
        0x0001a758:    701a        .p      STRB     r2,[r3,#0]
        0x0001a75a:    d107        ..      BNE      0x1a76c ; am_hal_itm_print + 108
        0x0001a75c:    4661        aF      MOV      r1,r12
        0x0001a75e:    4620         F      MOV      r0,r4
        0x0001a760:    e02a        *.      B        0x1a7b8 ; am_hal_itm_print + 184
        0x0001a762:    bf00        ..      NOP      
        0x0001a764:    3103        .1      ADDS     r1,#3
        0x0001a766:    2900        .)      CMP      r1,#0
        0x0001a768:    d1e0        ..      BNE      0x1a72c ; am_hal_itm_print + 44
        0x0001a76a:    bd10        ..      POP      {r4,pc}
        0x0001a76c:    7822        "x      LDRB     r2,[r4,#0]
        0x0001a76e:    bf00        ..      NOP      
        0x0001a770:    681c        .h      LDR      r4,[r3,#0]
        0x0001a772:    b934        4.      CBNZ     r4,0x1a782 ; am_hal_itm_print + 130
        0x0001a774:    681c        .h      LDR      r4,[r3,#0]
        0x0001a776:    b924        $.      CBNZ     r4,0x1a782 ; am_hal_itm_print + 130
        0x0001a778:    681c        .h      LDR      r4,[r3,#0]
        0x0001a77a:    b914        ..      CBNZ     r4,0x1a782 ; am_hal_itm_print + 130
        0x0001a77c:    681c        .h      LDR      r4,[r3,#0]
        0x0001a77e:    2c00        .,      CMP      r4,#0
        0x0001a780:    d0f6        ..      BEQ      0x1a770 ; am_hal_itm_print + 112
        0x0001a782:    1c84        ..      ADDS     r4,r0,#2
        0x0001a784:    f04f4360    O.`C    MOV      r3,#0xe0000000
        0x0001a788:    f1be0f02    ....    CMP      lr,#2
        0x0001a78c:    701a        .p      STRB     r2,[r3,#0]
        0x0001a78e:    d103        ..      BNE      0x1a798 ; am_hal_itm_print + 152
        0x0001a790:    3902        .9      SUBS     r1,#2
        0x0001a792:    4620         F      MOV      r0,r4
        0x0001a794:    e010        ..      B        0x1a7b8 ; am_hal_itm_print + 184
        0x0001a796:    bf00        ..      NOP      
        0x0001a798:    7822        "x      LDRB     r2,[r4,#0]
        0x0001a79a:    bf00        ..      NOP      
        0x0001a79c:    681c        .h      LDR      r4,[r3,#0]
        0x0001a79e:    b934        4.      CBNZ     r4,0x1a7ae ; am_hal_itm_print + 174
        0x0001a7a0:    681c        .h      LDR      r4,[r3,#0]
        0x0001a7a2:    b924        $.      CBNZ     r4,0x1a7ae ; am_hal_itm_print + 174
        0x0001a7a4:    681c        .h      LDR      r4,[r3,#0]
        0x0001a7a6:    b914        ..      CBNZ     r4,0x1a7ae ; am_hal_itm_print + 174
        0x0001a7a8:    681c        .h      LDR      r4,[r3,#0]
        0x0001a7aa:    2c00        .,      CMP      r4,#0
        0x0001a7ac:    d0f6        ..      BEQ      0x1a79c ; am_hal_itm_print + 156
        0x0001a7ae:    3003        .0      ADDS     r0,#3
        0x0001a7b0:    f04f4360    O.`C    MOV      r3,#0xe0000000
        0x0001a7b4:    3903        .9      SUBS     r1,#3
        0x0001a7b6:    701a        .p      STRB     r2,[r3,#0]
        0x0001a7b8:    f1bc0f03    ....    CMP      r12,#3
        0x0001a7bc:    bf38        8.      IT       CC
        0x0001a7be:    bd10        ..      POPCC    {r4,pc}
        0x0001a7c0:    f04f4260    O.`B    MOV      r2,#0xe0000000
        0x0001a7c4:    e004        ..      B        0x1a7d0 ; am_hal_itm_print + 208
        0x0001a7c6:    bf00        ..      NOP      
        0x0001a7c8:    3004        .0      ADDS     r0,#4
        0x0001a7ca:    3904        .9      SUBS     r1,#4
        0x0001a7cc:    7013        .p      STRB     r3,[r2,#0]
        0x0001a7ce:    d0cc        ..      BEQ      0x1a76a ; am_hal_itm_print + 106
        0x0001a7d0:    7803        .x      LDRB     r3,[r0,#0]
        0x0001a7d2:    bf00        ..      NOP      
        0x0001a7d4:    6814        .h      LDR      r4,[r2,#0]
        0x0001a7d6:    b934        4.      CBNZ     r4,0x1a7e6 ; am_hal_itm_print + 230
        0x0001a7d8:    6814        .h      LDR      r4,[r2,#0]
        0x0001a7da:    b924        $.      CBNZ     r4,0x1a7e6 ; am_hal_itm_print + 230
        0x0001a7dc:    6814        .h      LDR      r4,[r2,#0]
        0x0001a7de:    b914        ..      CBNZ     r4,0x1a7e6 ; am_hal_itm_print + 230
        0x0001a7e0:    6814        .h      LDR      r4,[r2,#0]
        0x0001a7e2:    2c00        .,      CMP      r4,#0
        0x0001a7e4:    d0f6        ..      BEQ      0x1a7d4 ; am_hal_itm_print + 212
        0x0001a7e6:    7013        .p      STRB     r3,[r2,#0]
        0x0001a7e8:    7843        Cx      LDRB     r3,[r0,#1]
        0x0001a7ea:    bf00        ..      NOP      
        0x0001a7ec:    6814        .h      LDR      r4,[r2,#0]
        0x0001a7ee:    b934        4.      CBNZ     r4,0x1a7fe ; am_hal_itm_print + 254
        0x0001a7f0:    6814        .h      LDR      r4,[r2,#0]
        0x0001a7f2:    b924        $.      CBNZ     r4,0x1a7fe ; am_hal_itm_print + 254
        0x0001a7f4:    6814        .h      LDR      r4,[r2,#0]
        0x0001a7f6:    b914        ..      CBNZ     r4,0x1a7fe ; am_hal_itm_print + 254
        0x0001a7f8:    6814        .h      LDR      r4,[r2,#0]
        0x0001a7fa:    2c00        .,      CMP      r4,#0
        0x0001a7fc:    d0f6        ..      BEQ      0x1a7ec ; am_hal_itm_print + 236
        0x0001a7fe:    7013        .p      STRB     r3,[r2,#0]
        0x0001a800:    7883        .x      LDRB     r3,[r0,#2]
        0x0001a802:    bf00        ..      NOP      
        0x0001a804:    6814        .h      LDR      r4,[r2,#0]
        0x0001a806:    b934        4.      CBNZ     r4,0x1a816 ; am_hal_itm_print + 278
        0x0001a808:    6814        .h      LDR      r4,[r2,#0]
        0x0001a80a:    b924        $.      CBNZ     r4,0x1a816 ; am_hal_itm_print + 278
        0x0001a80c:    6814        .h      LDR      r4,[r2,#0]
        0x0001a80e:    b914        ..      CBNZ     r4,0x1a816 ; am_hal_itm_print + 278
        0x0001a810:    6814        .h      LDR      r4,[r2,#0]
        0x0001a812:    2c00        .,      CMP      r4,#0
        0x0001a814:    d0f6        ..      BEQ      0x1a804 ; am_hal_itm_print + 260
        0x0001a816:    7013        .p      STRB     r3,[r2,#0]
        0x0001a818:    78c3        .x      LDRB     r3,[r0,#3]
        0x0001a81a:    bf00        ..      NOP      
        0x0001a81c:    6814        .h      LDR      r4,[r2,#0]
        0x0001a81e:    2c00        .,      CMP      r4,#0
        0x0001a820:    d1d2        ..      BNE      0x1a7c8 ; am_hal_itm_print + 200
        0x0001a822:    6814        .h      LDR      r4,[r2,#0]
        0x0001a824:    2c00        .,      CMP      r4,#0
        0x0001a826:    d1cf        ..      BNE      0x1a7c8 ; am_hal_itm_print + 200
        0x0001a828:    6814        .h      LDR      r4,[r2,#0]
        0x0001a82a:    2c00        .,      CMP      r4,#0
        0x0001a82c:    d1cc        ..      BNE      0x1a7c8 ; am_hal_itm_print + 200
        0x0001a82e:    6814        .h      LDR      r4,[r2,#0]
        0x0001a830:    2c00        .,      CMP      r4,#0
        0x0001a832:    d0f3        ..      BEQ      0x1a81c ; am_hal_itm_print + 284
        0x0001a834:    e7c8        ..      B        0x1a7c8 ; am_hal_itm_print + 200
        0x0001a836:    0000        ..      MOVS     r0,r0
    am_hal_mram_info_read
        0x0001a838:    b580        ..      PUSH     {r7,lr}
        0x0001a83a:    2801        .(      CMP      r0,#1
        0x0001a83c:    d010        ..      BEQ      0x1a860 ; am_hal_mram_info_read + 40
        0x0001a83e:    2800        .(      CMP      r0,#0
        0x0001a840:    d14c        L.      BNE      0x1a8dc ; am_hal_mram_info_read + 164
        0x0001a842:    2000        .       MOVS     r0,#0
        0x0001a844:    ebb02f51    ..Q/    CMP      r0,r1,LSR #9
        0x0001a848:    f04f0002    O...    MOV      r0,#2
        0x0001a84c:    d14b        K.      BNE      0x1a8e6 ; am_hal_mram_info_read + 174
        0x0001a84e:    eb020c01    ....    ADD      r12,r2,r1
        0x0001a852:    f5bc7f00    ....    CMP      r12,#0x200
        0x0001a856:    d846        F.      BHI      0x1a8e6 ; am_hal_mram_info_read + 174
        0x0001a858:    f04f4084    O..@    MOV      r0,#0x42000000
        0x0001a85c:    b992        ..      CBNZ     r2,0x1a884 ; am_hal_mram_info_read + 76
        0x0001a85e:    e03a        :.      B        0x1a8d6 ; am_hal_mram_info_read + 158
        0x0001a860:    f5a160c0    ...`    SUB      r0,r1,#0x600
        0x0001a864:    f5107fc0    ....    CMN      r0,#0x180
        0x0001a868:    f04f0002    O...    MOV      r0,#2
        0x0001a86c:    d33b        ;.      BCC      0x1a8e6 ; am_hal_mram_info_read + 174
        0x0001a86e:    eb020c01    ....    ADD      r12,r2,r1
        0x0001a872:    f5bc6fc0    ...o    CMP      r12,#0x600
        0x0001a876:    bf88        ..      IT       HI
        0x0001a878:    bd80        ..      POPHI    {r7,pc}
        0x0001a87a:    f2420000    B...    MOVW     r0,#0x2000
        0x0001a87e:    f2c42000    ...     MOVT     r0,#0x4200
        0x0001a882:    b342        B.      CBZ      r2,0x1a8d6 ; am_hal_mram_info_read + 158
        0x0001a884:    eb000181    ....    ADD      r1,r0,r1,LSL #2
        0x0001a888:    1e50        P.      SUBS     r0,r2,#1
        0x0001a88a:    2803        .(      CMP      r0,#3
        0x0001a88c:    f0020c03    ....    AND      r12,r2,#3
        0x0001a890:    d314        ..      BCC      0x1a8bc ; am_hal_mram_info_read + 132
        0x0001a892:    f0220203    "...    BIC      r2,r2,#3
        0x0001a896:    bf00        ..      NOP      
        0x0001a898:    6808        .h      LDR      r0,[r1,#0]
        0x0001a89a:    f1010e10    ....    ADD      lr,r1,#0x10
        0x0001a89e:    6018        .`      STR      r0,[r3,#0]
        0x0001a8a0:    6848        Hh      LDR      r0,[r1,#4]
        0x0001a8a2:    3a04        .:      SUBS     r2,#4
        0x0001a8a4:    6058        X`      STR      r0,[r3,#4]
        0x0001a8a6:    6888        .h      LDR      r0,[r1,#8]
        0x0001a8a8:    6098        .`      STR      r0,[r3,#8]
        0x0001a8aa:    68c9        .h      LDR      r1,[r1,#0xc]
        0x0001a8ac:    f1030010    ....    ADD      r0,r3,#0x10
        0x0001a8b0:    60d9        .`      STR      r1,[r3,#0xc]
        0x0001a8b2:    4671        qF      MOV      r1,lr
        0x0001a8b4:    4603        .F      MOV      r3,r0
        0x0001a8b6:    d1ef        ..      BNE      0x1a898 ; am_hal_mram_info_read + 96
        0x0001a8b8:    4671        qF      MOV      r1,lr
        0x0001a8ba:    4603        .F      MOV      r3,r0
        0x0001a8bc:    f1bc0f00    ....    CMP      r12,#0
        0x0001a8c0:    d009        ..      BEQ      0x1a8d6 ; am_hal_mram_info_read + 158
        0x0001a8c2:    6808        .h      LDR      r0,[r1,#0]
        0x0001a8c4:    f1bc0f01    ....    CMP      r12,#1
        0x0001a8c8:    6018        .`      STR      r0,[r3,#0]
        0x0001a8ca:    d004        ..      BEQ      0x1a8d6 ; am_hal_mram_info_read + 158
        0x0001a8cc:    6848        Hh      LDR      r0,[r1,#4]
        0x0001a8ce:    f1bc0f02    ....    CMP      r12,#2
        0x0001a8d2:    6058        X`      STR      r0,[r3,#4]
        0x0001a8d4:    d104        ..      BNE      0x1a8e0 ; am_hal_mram_info_read + 168
        0x0001a8d6:    2000        .       MOVS     r0,#0
        0x0001a8d8:    bd80        ..      POP      {r7,pc}
        0x0001a8da:    bf00        ..      NOP      
        0x0001a8dc:    2001        .       MOVS     r0,#1
        0x0001a8de:    bd80        ..      POP      {r7,pc}
        0x0001a8e0:    6888        .h      LDR      r0,[r1,#8]
        0x0001a8e2:    6098        .`      STR      r0,[r3,#8]
        0x0001a8e4:    2000        .       MOVS     r0,#0
        0x0001a8e6:    bd80        ..      POP      {r7,pc}
    am_hal_mspi_blocking_transfer
        0x0001a8e8:    b570        p.      PUSH     {r4-r6,lr}
        0x0001a8ea:    b082        ..      SUB      sp,sp,#8
        0x0001a8ec:    b300        ..      CBZ      r0,0x1a930 ; am_hal_mspi_blocking_transfer + 72
        0x0001a8ee:    4614        .F      MOV      r4,r2
        0x0001a8f0:    6802        .h      LDR      r2,[r0,#0]
        0x0001a8f2:    f64b63be    K..c    MOV      r3,#0xbebe
        0x0001a8f6:    f022427e    ".~B    BIC      r2,r2,#0xfe000000
        0x0001a8fa:    f2c013be    ....    MOVT     r3,#0x1be
        0x0001a8fe:    429a        .B      CMP      r2,r3
        0x0001a900:    d116        ..      BNE      0x1a930 ; am_hal_mspi_blocking_transfer + 72
        0x0001a902:    7a82        .z      LDRB     r2,[r0,#0xa]
        0x0001a904:    f00202fe    ....    AND      r2,r2,#0xfe
        0x0001a908:    2a0a        .*      CMP      r2,#0xa
        0x0001a90a:    d102        ..      BNE      0x1a912 ; am_hal_mspi_blocking_transfer + 42
        0x0001a90c:    7a0a        .z      LDRB     r2,[r1,#8]
        0x0001a90e:    0792        ..      LSLS     r2,r2,#30
        0x0001a910:    d10a        ..      BNE      0x1a928 ; am_hal_mspi_blocking_transfer + 64
        0x0001a912:    7c8a        .|      LDRB     r2,[r1,#0x12]
        0x0001a914:    b942        B.      CBNZ     r2,0x1a928 ; am_hal_mspi_blocking_transfer + 64
        0x0001a916:    6a02        .j      LDR      r2,[r0,#0x20]
        0x0001a918:    b932        2.      CBNZ     r2,0x1a928 ; am_hal_mspi_blocking_transfer + 64
        0x0001a91a:    f8d02840    ..@(    LDR      r2,[r0,#0x840]
        0x0001a91e:    b91a        ..      CBNZ     r2,0x1a928 ; am_hal_mspi_blocking_transfer + 64
        0x0001a920:    f890282c    ..,(    LDRB     r2,[r0,#0x82c]
        0x0001a924:    2a02        .*      CMP      r2,#2
        0x0001a926:    d107        ..      BNE      0x1a938 ; am_hal_mspi_blocking_transfer + 80
        0x0001a928:    2007        .       MOVS     r0,#7
        0x0001a92a:    b002        ..      ADD      sp,sp,#8
        0x0001a92c:    bd70        p.      POP      {r4-r6,pc}
        0x0001a92e:    bf00        ..      NOP      
        0x0001a930:    2002        .       MOVS     r0,#2
        0x0001a932:    b002        ..      ADD      sp,sp,#8
        0x0001a934:    bd70        p.      POP      {r4-r6,pc}
        0x0001a936:    bf00        ..      NOP      
        0x0001a938:    790a        .y      LDRB     r2,[r1,#4]
        0x0001a93a:    680b        .h      LDR      r3,[r1,#0]
        0x0001a93c:    0252        R.      LSLS     r2,r2,#9
        0x0001a93e:    ea424203    B..B    ORR      r2,r2,r3,LSL #16
        0x0001a942:    7b0b        .{      LDRB     r3,[r1,#0xc]
        0x0001a944:    798e        .y      LDRB     r6,[r1,#6]
        0x0001a946:    f8d0c004    ....    LDR      r12,[r0,#4]
        0x0001a94a:    2b00        .+      CMP      r3,#0
        0x0001a94c:    f2400300    @...    MOVW     r3,#0
        0x0001a950:    f0060601    ....    AND      r6,r6,#1
        0x0001a954:    f2c40306    ....    MOVT     r3,#0x4006
        0x0001a958:    ea4212c6    B...    ORR      r2,r2,r6,LSL #7
        0x0001a95c:    d005        ..      BEQ      0x1a96a ; am_hal_mspi_blocking_transfer + 130
        0x0001a95e:    89ce        ..      LDRH     r6,[r1,#0xe]
        0x0001a960:    f0420240    B.@.    ORR      r2,r2,#0x40
        0x0001a964:    eb03350c    ...5    ADD      r5,r3,r12,LSL #12
        0x0001a968:    60ee        .`      STR      r6,[r5,#0xc]
        0x0001a96a:    79ce        .y      LDRB     r6,[r1,#7]
        0x0001a96c:    b136        6.      CBZ      r6,0x1a97c ; am_hal_mspi_blocking_transfer + 148
        0x0001a96e:    688e        .h      LDR      r6,[r1,#8]
        0x0001a970:    f0420220    B. .    ORR      r2,r2,#0x20
        0x0001a974:    eb03350c    ...5    ADD      r5,r3,r12,LSL #12
        0x0001a978:    60ae        .`      STR      r6,[r5,#8]
        0x0001a97a:    e001        ..      B        0x1a980 ; am_hal_mspi_blocking_transfer + 152
        0x0001a97c:    eb03350c    ...5    ADD      r5,r3,r12,LSL #12
        0x0001a980:    7c0e        .|      LDRB     r6,[r1,#0x10]
        0x0001a982:    f891e005    ....    LDRB     lr,[r1,#5]
        0x0001a986:    2e00        ..      CMP      r6,#0
        0x0001a988:    7b46        F{      LDRB     r6,[r0,#0xd]
        0x0001a98a:    7c4b        K|      LDRB     r3,[r1,#0x11]
        0x0001a98c:    bf18        ..      IT       NE
        0x0001a98e:    f4426280    B..b    ORRNE    r2,r2,#0x400
        0x0001a992:    ea422206    B.."    ORR      r2,r2,r6,LSL #8
        0x0001a996:    ea423203    B..2    ORR      r2,r2,r3,LSL #12
        0x0001a99a:    f1be0f00    ....    CMP      lr,#0
        0x0001a99e:    bf18        ..      IT       NE
        0x0001a9a0:    f4426200    B..b    ORRNE    r2,r2,#0x800
        0x0001a9a4:    2300        .#      MOVS     r3,#0
        0x0001a9a6:    f0420201    B...    ORR      r2,r2,#1
        0x0001a9aa:    f8d56200    ...b    LDR      r6,[r5,#0x200]
        0x0001a9ae:    f8c53200    ...2    STR      r3,[r5,#0x200]
        0x0001a9b2:    f04f33ff    O..3    MOV      r3,#0xffffffff
        0x0001a9b6:    f8c53208    ...2    STR      r3,[r5,#0x208]
        0x0001a9ba:    602a        *`      STR      r2,[r5,#0]
        0x0001a9bc:    798a        .y      LDRB     r2,[r1,#6]
        0x0001a9be:    2a01        .*      CMP      r2,#1
        0x0001a9c0:    d008        ..      BEQ      0x1a9d4 ; am_hal_mspi_blocking_transfer + 236
        0x0001a9c2:    b972        r.      CBNZ     r2,0x1a9e2 ; am_hal_mspi_blocking_transfer + 250
        0x0001a9c4:    680a        .h      LDR      r2,[r1,#0]
        0x0001a9c6:    6949        Ii      LDR      r1,[r1,#0x14]
        0x0001a9c8:    6903        .i      LDR      r3,[r0,#0x10]
        0x0001a9ca:    4660        `F      MOV      r0,r12
        0x0001a9cc:    f004f9de    ....    BL       mspi_fifo_read ; 0x1ed8c
        0x0001a9d0:    e006        ..      B        0x1a9e0 ; am_hal_mspi_blocking_transfer + 248
        0x0001a9d2:    bf00        ..      NOP      
        0x0001a9d4:    680a        .h      LDR      r2,[r1,#0]
        0x0001a9d6:    6949        Ii      LDR      r1,[r1,#0x14]
        0x0001a9d8:    6903        .i      LDR      r3,[r0,#0x10]
        0x0001a9da:    4660        `F      MOV      r0,r12
        0x0001a9dc:    f004fa38    ..8.    BL       mspi_fifo_write ; 0x1ee50
        0x0001a9e0:    b948        H.      CBNZ     r0,0x1a9f6 ; am_hal_mspi_blocking_transfer + 270
        0x0001a9e2:    f04f0c01    O...    MOV      r12,#1
        0x0001a9e6:    4620         F      MOV      r0,r4
        0x0001a9e8:    4629        )F      MOV      r1,r5
        0x0001a9ea:    2202        ."      MOVS     r2,#2
        0x0001a9ec:    2302        .#      MOVS     r3,#2
        0x0001a9ee:    f8cdc000    ....    STR      r12,[sp,#0]
        0x0001a9f2:    f7fffd27    ..'.    BL       am_hal_delay_us_status_check ; 0x1a444
        0x0001a9f6:    f04f31ff    O..1    MOV      r1,#0xffffffff
        0x0001a9fa:    f8c51208    ....    STR      r1,[r5,#0x208]
        0x0001a9fe:    f8c56200    ...b    STR      r6,[r5,#0x200]
        0x0001aa02:    b002        ..      ADD      sp,sp,#8
        0x0001aa04:    bd70        p.      POP      {r4-r6,pc}
        0x0001aa06:    0000        ..      MOVS     r0,r0
    am_hal_mspi_configure
        0x0001aa08:    b5f0        ..      PUSH     {r4-r7,lr}
        0x0001aa0a:    6802        .h      LDR      r2,[r0,#0]
        0x0001aa0c:    f64b65be    K..e    MOV      r5,#0xbebe
        0x0001aa10:    f022437e    ".~C    BIC      r3,r2,#0xfe000000
        0x0001aa14:    f2c015be    ....    MOVT     r5,#0x1be
        0x0001aa18:    42ab        .B      CMP      r3,r5
        0x0001aa1a:    bf1c        ..      ITT      NE
        0x0001aa1c:    2002        .       MOVNE    r0,#2
        0x0001aa1e:    bdf0        ..      POPNE    {r4-r7,pc}
        0x0001aa20:    0192        ..      LSLS     r2,r2,#6
        0x0001aa22:    bf44        D.      ITT      MI
        0x0001aa24:    2007        .       MOVMI    r0,#7
        0x0001aa26:    bdf0        ..      POPMI    {r4-r7,pc}
        0x0001aa28:    f8d0e004    ....    LDR      lr,[r0,#4]
        0x0001aa2c:    2200        ."      MOVS     r2,#0
        0x0001aa2e:    f2c40206    ....    MOVT     r2,#0x4006
        0x0001aa32:    eb02330e    ...3    ADD      r3,r2,lr,LSL #12
        0x0001aa36:    f8d32090    ...     LDR      r2,[r3,#0x90]
        0x0001aa3a:    f6426c30    B.0l    MOV      r12,#0x2e30
        0x0001aa3e:    f0220201    "...    BIC      r2,r2,#1
        0x0001aa42:    f8c32090    ...     STR      r2,[r3,#0x90]
        0x0001aa46:    2200        ."      MOVS     r2,#0
        0x0001aa48:    f8c3209c    ...     STR      r2,[r3,#0x9c]
        0x0001aa4c:    f8c32080    ...     STR      r2,[r3,#0x80]
        0x0001aa50:    f2c10c00    ....    MOVT     r12,#0x1000
        0x0001aa54:    f64003c4    @...    MOV      r3,#0x8c4
        0x0001aa58:    684c        Lh      LDR      r4,[r1,#4]
        0x0001aa5a:    fb0ec303    ....    MLA      r3,lr,r3,r12
        0x0001aa5e:    680d        .h      LDR      r5,[r1,#0]
        0x0001aa60:    619c        .a      STR      r4,[r3,#0x18]
        0x0001aa62:    6984        .i      LDR      r4,[r0,#0x18]
        0x0001aa64:    615d        ]a      STR      r5,[r3,#0x14]
        0x0001aa66:    b37c        |.      CBZ      r4,0x1aac8 ; am_hal_mspi_configure + 192
        0x0001aa68:    6946        Fi      LDR      r6,[r0,#0x14]
        0x0001aa6a:    2700        .'      MOVS     r7,#0
        0x0001aa6c:    00b5        ..      LSLS     r5,r6,#2
        0x0001aa6e:    eb040686    ....    ADD      r6,r4,r6,LSL #2
        0x0001aa72:    f2c10706    ....    MOVT     r7,#0x1006
        0x0001aa76:    42be        .B      CMP      r6,r7
        0x0001aa78:    bf38        8.      IT       CC
        0x0001aa7a:    2201        ."      MOVCC    r2,#1
        0x0001aa7c:    f88028c0    ...(    STRB     r2,[r0,#0x8c0]
        0x0001aa80:    d30d        ..      BCC      0x1aa9e ; am_hal_mspi_configure + 150
        0x0001aa82:    f104020f    ....    ADD      r2,r4,#0xf
        0x0001aa86:    f004040f    ....    AND      r4,r4,#0xf
        0x0001aa8a:    1b2c        ,.      SUBS     r4,r5,r4
        0x0001aa8c:    f06f0503    o...    MVN      r5,#3
        0x0001aa90:    ea050494    ....    AND      r4,r5,r4,LSR #2
        0x0001aa94:    f022020f    "...    BIC      r2,r2,#0xf
        0x0001aa98:    00a5        ..      LSLS     r5,r4,#2
        0x0001aa9a:    e9c04205    ...B    STRD     r4,r2,[r0,#0x14]
        0x0001aa9e:    f6486239    H.9b    MOV      r2,#0x8e39
        0x0001aaa2:    f1a50020    .. .    SUB      r0,r5,#0x20
        0x0001aaa6:    f6c302e3    ....    MOVT     r2,#0x38e3
        0x0001aaaa:    fba02402    ...$    UMULL    r2,r4,r0,r2
        0x0001aaae:    0922        ".      LSRS     r2,r4,#4
        0x0001aab0:    f64004c4    @...    MOV      r4,#0x8c4
        0x0001aab4:    fb0ec704    ....    MLA      r7,lr,r4,r12
        0x0001aab8:    f6440647    D.G.    MOV      r6,#0x4847
        0x0001aabc:    42b0        .B      CMP      r0,r6
        0x0001aabe:    bf88        ..      IT       HI
        0x0001aac0:    f44f7280    O..r    MOVHI    r2,#0x100
        0x0001aac4:    f8c72858    ..X(    STR      r2,[r7,#0x858]
        0x0001aac8:    7a08        .z      LDRB     r0,[r1,#8]
        0x0001aaca:    7258        Xr      STRB     r0,[r3,#9]
        0x0001aacc:    2001        .       MOVS     r0,#1
        0x0001aace:    7218        .r      STRB     r0,[r3,#8]
        0x0001aad0:    201a        .       MOVS     r0,#0x1a
        0x0001aad2:    7298        .r      STRB     r0,[r3,#0xa]
        0x0001aad4:    2000        .       MOVS     r0,#0
        0x0001aad6:    bdf0        ..      POP      {r4-r7,pc}
    am_hal_mspi_control
        0x0001aad8:    e92d47f0    -..G    PUSH     {r4-r10,lr}
        0x0001aadc:    b082        ..      SUB      sp,sp,#8
        0x0001aade:    b188        ..      CBZ      r0,0x1ab04 ; am_hal_mspi_control + 44
        0x0001aae0:    4605        .F      MOV      r5,r0
        0x0001aae2:    6800        .h      LDR      r0,[r0,#0]
        0x0001aae4:    4614        .F      MOV      r4,r2
        0x0001aae6:    f64b62be    K..b    MOV      r2,#0xbebe
        0x0001aaea:    f020407e     .~@    BIC      r0,r0,#0xfe000000
        0x0001aaee:    f2c012be    ....    MOVT     r2,#0x1be
        0x0001aaf2:    4290        .B      CMP      r0,r2
        0x0001aaf4:    d106        ..      BNE      0x1ab04 ; am_hal_mspi_control + 44
        0x0001aaf6:    2924        $)      CMP      r1,#0x24
        0x0001aaf8:    d90a        ..      BLS      0x1ab10 ; am_hal_mspi_control + 56
        0x0001aafa:    2606        .&      MOVS     r6,#6
        0x0001aafc:    4630        0F      MOV      r0,r6
        0x0001aafe:    b002        ..      ADD      sp,sp,#8
        0x0001ab00:    e8bd87f0    ....    POP      {r4-r10,pc}
        0x0001ab04:    2602        .&      MOVS     r6,#2
        0x0001ab06:    4630        0F      MOV      r0,r6
        0x0001ab08:    b002        ..      ADD      sp,sp,#8
        0x0001ab0a:    e8bd87f0    ....    POP      {r4-r10,pc}
        0x0001ab0e:    bf00        ..      NOP      
        0x0001ab10:    7a28        (z      LDRB     r0,[r5,#8]
        0x0001ab12:    2800        .(      CMP      r0,#0
        0x0001ab14:    f0008513    ....    BEQ.W    0x1b53e ; am_hal_mspi_control + 2662
        0x0001ab18:    2923        #)      CMP      r1,#0x23
        0x0001ab1a:    f20084a5    ....    BHI.W    0x1b468 ; am_hal_mspi_control + 2448
        0x0001ab1e:    686f        oh      LDR      r7,[r5,#4]
        0x0001ab20:    e8dff011    ....    TBH      [pc,r1,LSL #1]
    $d.12
        0x0001ab24:    00360024    $.6.    DCD    3538980
        0x0001ab28:    0064004e    N.d.    DCD    6553678
        0x0001ab2c:    00940084    ....    DCD    9699460
        0x0001ab30:    00b400a4    ....    DCD    11796644
        0x0001ab34:    00d800c4    ....    DCD    14155972
        0x0001ab38:    00f800e8    ....    DCD    16253160
        0x0001ab3c:    01e00170    p...    DCD    31457648
        0x0001ab40:    02640234    4.d.    DCD    40108596
        0x0001ab44:    0298027a    z...    DCD    43516538
        0x0001ab48:    02bc02ac    ....    DCD    45875884
        0x0001ab4c:    02ea02d4    ....    DCD    48890580
        0x0001ab50:    030602f8    ....    DCD    50725624
        0x0001ab54:    03660360    `.f.    DCD    57017184
        0x0001ab58:    038c037a    z...    DCD    59507578
        0x0001ab5c:    040e03ec    ....    DCD    68027372
        0x0001ab60:    044a0422    ".J.    DCD    71959586
        0x0001ab64:    047e045c    \.~.    DCD    75367516
        0x0001ab68:    04b804a8    ....    DCD    79168680
    $t.13
        0x0001ab6c:    2c00        .,      CMP      r4,#0
        0x0001ab6e:    f000847b    ..{.    BEQ.W    0x1b468 ; am_hal_mspi_control + 2448
        0x0001ab72:    2100        .!      MOVS     r1,#0
        0x0001ab74:    f2c40106    ....    MOVT     r1,#0x4006
        0x0001ab78:    eb013107    ...1    ADD      r1,r1,r7,LSL #12
        0x0001ab7c:    6820         h      LDR      r0,[r4,#0]
        0x0001ab7e:    6b0a        .k      LDR      r2,[r1,#0x30]
        0x0001ab80:    2600        .&      MOVS     r6,#0
        0x0001ab82:    f3600200    `...    BFI      r2,r0,#0,#1
        0x0001ab86:    630a        .c      STR      r2,[r1,#0x30]
        0x0001ab88:    4630        0F      MOV      r0,r6
        0x0001ab8a:    b002        ..      ADD      sp,sp,#8
        0x0001ab8c:    e8bd87f0    ....    POP      {r4-r10,pc}
        0x0001ab90:    2c00        .,      CMP      r4,#0
        0x0001ab92:    f0008469    ..i.    BEQ.W    0x1b468 ; am_hal_mspi_control + 2448
        0x0001ab96:    6820         h      LDR      r0,[r4,#0]
        0x0001ab98:    f24e01e0    N...    MOV      r1,#0xe0e0
        0x0001ab9c:    f2c001e0    ....    MOVT     r1,#0xe0
        0x0001aba0:    4208        .B      TST      r0,r1
        0x0001aba2:    f0408461    @.a.    BNE.W    0x1b468 ; am_hal_mspi_control + 2448
        0x0001aba6:    2100        .!      MOVS     r1,#0
        0x0001aba8:    f2c40106    ....    MOVT     r1,#0x4006
        0x0001abac:    eb013107    ...1    ADD      r1,r1,r7,LSL #12
        0x0001abb0:    f8c102b4    ....    STR      r0,[r1,#0x2b4]
        0x0001abb4:    2600        .&      MOVS     r6,#0
        0x0001abb6:    4630        0F      MOV      r0,r6
        0x0001abb8:    b002        ..      ADD      sp,sp,#8
        0x0001abba:    e8bd87f0    ....    POP      {r4-r10,pc}
        0x0001abbe:    bf00        ..      NOP      
        0x0001abc0:    2c00        .,      CMP      r4,#0
        0x0001abc2:    f0008451    ..Q.    BEQ.W    0x1b468 ; am_hal_mspi_control + 2448
        0x0001abc6:    6820         h      LDR      r0,[r4,#0]
        0x0001abc8:    2807        .(      CMP      r0,#7
        0x0001abca:    f200844d    ..M.    BHI.W    0x1b468 ; am_hal_mspi_control + 2448
        0x0001abce:    2100        .!      MOVS     r1,#0
        0x0001abd0:    f2c40106    ....    MOVT     r1,#0x4006
        0x0001abd4:    eb013107    ...1    ADD      r1,r1,r7,LSL #12
        0x0001abd8:    6b0a        .k      LDR      r2,[r1,#0x30]
        0x0001abda:    2600        .&      MOVS     r6,#0
        0x0001abdc:    f3601207    `...    BFI      r2,r0,#4,#4
        0x0001abe0:    630a        .c      STR      r2,[r1,#0x30]
        0x0001abe2:    4630        0F      MOV      r0,r6
        0x0001abe4:    b002        ..      ADD      sp,sp,#8
        0x0001abe6:    e8bd87f0    ....    POP      {r4-r10,pc}
        0x0001abea:    bf00        ..      NOP      
        0x0001abec:    2c00        .,      CMP      r4,#0
        0x0001abee:    f000843b    ..;.    BEQ.W    0x1b468 ; am_hal_mspi_control + 2448
        0x0001abf2:    6820         h      LDR      r0,[r4,#0]
        0x0001abf4:    2606        .&      MOVS     r6,#6
        0x0001abf6:    2807        .(      CMP      r0,#7
        0x0001abf8:    f63faf80    ?...    BHI.W    0x1aafc ; am_hal_mspi_control + 36
        0x0001abfc:    2101        .!      MOVS     r1,#1
        0x0001abfe:    4081        .@      LSLS     r1,r1,r0
        0x0001ac00:    f0110f87    ....    TST      r1,#0x87
        0x0001ac04:    f43faf7a    ?.z.    BEQ      0x1aafc ; am_hal_mspi_control + 36
        0x0001ac08:    2100        .!      MOVS     r1,#0
        0x0001ac0a:    f2c40106    ....    MOVT     r1,#0x4006
        0x0001ac0e:    eb013107    ...1    ADD      r1,r1,r7,LSL #12
        0x0001ac12:    2380        .#      MOVS     r3,#0x80
        0x0001ac14:    6b0a        .k      LDR      r2,[r1,#0x30]
        0x0001ac16:    eb031000    ....    ADD      r0,r3,r0,LSL #4
        0x0001ac1a:    0900        ..      LSRS     r0,r0,#4
        0x0001ac1c:    f3601207    `...    BFI      r2,r0,#4,#4
        0x0001ac20:    630a        .c      STR      r2,[r1,#0x30]
        0x0001ac22:    2600        .&      MOVS     r6,#0
        0x0001ac24:    4630        0F      MOV      r0,r6
        0x0001ac26:    b002        ..      ADD      sp,sp,#8
        0x0001ac28:    e8bd87f0    ....    POP      {r4-r10,pc}
        0x0001ac2c:    2000        .       MOVS     r0,#0
        0x0001ac2e:    f2c40006    ....    MOVT     r0,#0x4006
        0x0001ac32:    eb003007    ...0    ADD      r0,r0,r7,LSL #12
        0x0001ac36:    f8d01090    ....    LDR      r1,[r0,#0x90]
        0x0001ac3a:    2600        .&      MOVS     r6,#0
        0x0001ac3c:    f4215180    !..Q    BIC      r1,r1,#0x1000
        0x0001ac40:    f8c01090    ....    STR      r1,[r0,#0x90]
        0x0001ac44:    4630        0F      MOV      r0,r6
        0x0001ac46:    b002        ..      ADD      sp,sp,#8
        0x0001ac48:    e8bd87f0    ....    POP      {r4-r10,pc}
        0x0001ac4c:    2000        .       MOVS     r0,#0
        0x0001ac4e:    f2c40006    ....    MOVT     r0,#0x4006
        0x0001ac52:    eb003007    ...0    ADD      r0,r0,r7,LSL #12
        0x0001ac56:    f8d01090    ....    LDR      r1,[r0,#0x90]
        0x0001ac5a:    2600        .&      MOVS     r6,#0
        0x0001ac5c:    f4415180    A..Q    ORR      r1,r1,#0x1000
        0x0001ac60:    f8c01090    ....    STR      r1,[r0,#0x90]
        0x0001ac64:    4630        0F      MOV      r0,r6
        0x0001ac66:    b002        ..      ADD      sp,sp,#8
        0x0001ac68:    e8bd87f0    ....    POP      {r4-r10,pc}
        0x0001ac6c:    2000        .       MOVS     r0,#0
        0x0001ac6e:    f2c40006    ....    MOVT     r0,#0x4006
        0x0001ac72:    eb003007    ...0    ADD      r0,r0,r7,LSL #12
        0x0001ac76:    f8d0109c    ....    LDR      r1,[r0,#0x9c]
        0x0001ac7a:    2600        .&      MOVS     r6,#0
        0x0001ac7c:    f0214100    !..A    BIC      r1,r1,#0x80000000
        0x0001ac80:    f8c0109c    ....    STR      r1,[r0,#0x9c]
        0x0001ac84:    4630        0F      MOV      r0,r6
        0x0001ac86:    b002        ..      ADD      sp,sp,#8
        0x0001ac88:    e8bd87f0    ....    POP      {r4-r10,pc}
        0x0001ac8c:    2000        .       MOVS     r0,#0
        0x0001ac8e:    f2c40006    ....    MOVT     r0,#0x4006
        0x0001ac92:    eb003007    ...0    ADD      r0,r0,r7,LSL #12
        0x0001ac96:    f8d0109c    ....    LDR      r1,[r0,#0x9c]
        0x0001ac9a:    2600        .&      MOVS     r6,#0
        0x0001ac9c:    f0414100    A..A    ORR      r1,r1,#0x80000000
        0x0001aca0:    f8c0109c    ....    STR      r1,[r0,#0x9c]
        0x0001aca4:    4630        0F      MOV      r0,r6
        0x0001aca6:    b002        ..      ADD      sp,sp,#8
        0x0001aca8:    e8bd87f0    ....    POP      {r4-r10,pc}
        0x0001acac:    2c00        .,      CMP      r4,#0
        0x0001acae:    f00083db    ....    BEQ.W    0x1b468 ; am_hal_mspi_control + 2448
        0x0001acb2:    2100        .!      MOVS     r1,#0
        0x0001acb4:    f2c40106    ....    MOVT     r1,#0x4006
        0x0001acb8:    eb013107    ...1    ADD      r1,r1,r7,LSL #12
        0x0001acbc:    7820         x      LDRB     r0,[r4,#0]
        0x0001acbe:    f8d12090    ...     LDR      r2,[r1,#0x90]
        0x0001acc2:    2600        .&      MOVS     r6,#0
        0x0001acc4:    f3600283    `...    BFI      r2,r0,#2,#2
        0x0001acc8:    f8c12090    ...     STR      r2,[r1,#0x90]
        0x0001accc:    4630        0F      MOV      r0,r6
        0x0001acce:    b002        ..      ADD      sp,sp,#8
        0x0001acd0:    e8bd87f0    ....    POP      {r4-r10,pc}
        0x0001acd4:    2000        .       MOVS     r0,#0
        0x0001acd6:    f2c40006    ....    MOVT     r0,#0x4006
        0x0001acda:    eb003007    ...0    ADD      r0,r0,r7,LSL #12
        0x0001acde:    f8d01088    ....    LDR      r1,[r0,#0x88]
        0x0001ace2:    2600        .&      MOVS     r6,#0
        0x0001ace4:    f0210101    !...    BIC      r1,r1,#1
        0x0001ace8:    f8c01088    ....    STR      r1,[r0,#0x88]
        0x0001acec:    4630        0F      MOV      r0,r6
        0x0001acee:    b002        ..      ADD      sp,sp,#8
        0x0001acf0:    e8bd87f0    ....    POP      {r4-r10,pc}
        0x0001acf4:    2000        .       MOVS     r0,#0
        0x0001acf6:    f2c40006    ....    MOVT     r0,#0x4006
        0x0001acfa:    eb003007    ...0    ADD      r0,r0,r7,LSL #12
        0x0001acfe:    f8d01088    ....    LDR      r1,[r0,#0x88]
        0x0001ad02:    2600        .&      MOVS     r6,#0
        0x0001ad04:    f0410101    A...    ORR      r1,r1,#1
        0x0001ad08:    f8c01088    ....    STR      r1,[r0,#0x88]
        0x0001ad0c:    4630        0F      MOV      r0,r6
        0x0001ad0e:    b002        ..      ADD      sp,sp,#8
        0x0001ad10:    e8bd87f0    ....    POP      {r4-r10,pc}
        0x0001ad14:    2c00        .,      CMP      r4,#0
        0x0001ad16:    f00083a7    ....    BEQ.W    0x1b468 ; am_hal_mspi_control + 2448
        0x0001ad1a:    2000        .       MOVS     r0,#0
        0x0001ad1c:    f2c40006    ....    MOVT     r0,#0x4006
        0x0001ad20:    eb003007    ...0    ADD      r0,r0,r7,LSL #12
        0x0001ad24:    7821        !x      LDRB     r1,[r4,#0]
        0x0001ad26:    f8d02088    ...     LDR      r2,[r0,#0x88]
        0x0001ad2a:    f001013f    ..?.    AND      r1,r1,#0x3f
        0x0001ad2e:    f0220204    "...    BIC      r2,r2,#4
        0x0001ad32:    ea420181    B...    ORR      r1,r2,r1,LSL #2
        0x0001ad36:    f8c01088    ....    STR      r1,[r0,#0x88]
        0x0001ad3a:    7861        ax      LDRB     r1,[r4,#1]
        0x0001ad3c:    f8d02088    ...     LDR      r2,[r0,#0x88]
        0x0001ad40:    f001011f    ....    AND      r1,r1,#0x1f
        0x0001ad44:    f0220208    "...    BIC      r2,r2,#8
        0x0001ad48:    ea4201c1    B...    ORR      r1,r2,r1,LSL #3
        0x0001ad4c:    f8c01088    ....    STR      r1,[r0,#0x88]
        0x0001ad50:    78a1        .x      LDRB     r1,[r4,#2]
        0x0001ad52:    f8d02088    ...     LDR      r2,[r0,#0x88]
        0x0001ad56:    f001010f    ....    AND      r1,r1,#0xf
        0x0001ad5a:    f0220210    "...    BIC      r2,r2,#0x10
        0x0001ad5e:    ea421101    B...    ORR      r1,r2,r1,LSL #4
        0x0001ad62:    f8c01088    ....    STR      r1,[r0,#0x88]
        0x0001ad66:    78e1        .x      LDRB     r1,[r4,#3]
        0x0001ad68:    f8d02088    ...     LDR      r2,[r0,#0x88]
        0x0001ad6c:    f001011f    ....    AND      r1,r1,#0x1f
        0x0001ad70:    f4227278    ".xr    BIC      r2,r2,#0x3e0
        0x0001ad74:    ea421141    B.A.    ORR      r1,r2,r1,LSL #5
        0x0001ad78:    f8c01088    ....    STR      r1,[r0,#0x88]
        0x0001ad7c:    7921        !y      LDRB     r1,[r4,#4]
        0x0001ad7e:    f8d02088    ...     LDR      r2,[r0,#0x88]
        0x0001ad82:    f001011f    ....    AND      r1,r1,#0x1f
        0x0001ad86:    f42242f8    "..B    BIC      r2,r2,#0x7c00
        0x0001ad8a:    ea422181    B..!    ORR      r1,r2,r1,LSL #10
        0x0001ad8e:    f8c01088    ....    STR      r1,[r0,#0x88]
        0x0001ad92:    7961        ay      LDRB     r1,[r4,#5]
        0x0001ad94:    f8d02088    ...     LDR      r2,[r0,#0x88]
        0x0001ad98:    f001011f    ....    AND      r1,r1,#0x1f
        0x0001ad9c:    f4222278    ".x"    BIC      r2,r2,#0xf8000
        0x0001ada0:    ea4231c1    B..1    ORR      r1,r2,r1,LSL #15
        0x0001ada4:    f8c01088    ....    STR      r1,[r0,#0x88]
        0x0001ada8:    79a1        .y      LDRB     r1,[r4,#6]
        0x0001adaa:    f8d02088    ...     LDR      r2,[r0,#0x88]
        0x0001adae:    2600        .&      MOVS     r6,#0
        0x0001adb0:    f4221280    "...    BIC      r2,r2,#0x100000
        0x0001adb4:    ea425101    B..Q    ORR      r1,r2,r1,LSL #20
        0x0001adb8:    f8c01088    ....    STR      r1,[r0,#0x88]
        0x0001adbc:    79e1        .y      LDRB     r1,[r4,#7]
        0x0001adbe:    f8d02088    ...     LDR      r2,[r0,#0x88]
        0x0001adc2:    f001011f    ....    AND      r1,r1,#0x1f
        0x0001adc6:    f0227278    ".xr    BIC      r2,r2,#0x3e00000
        0x0001adca:    ea425141    B.AQ    ORR      r1,r2,r1,LSL #21
        0x0001adce:    f8c01088    ....    STR      r1,[r0,#0x88]
        0x0001add2:    7a21        !z      LDRB     r1,[r4,#8]
        0x0001add4:    f8d02088    ...     LDR      r2,[r0,#0x88]
        0x0001add8:    f001011f    ....    AND      r1,r1,#0x1f
        0x0001addc:    f02242f8    "..B    BIC      r2,r2,#0x7c000000
        0x0001ade0:    ea426181    B..a    ORR      r1,r2,r1,LSL #26
        0x0001ade4:    f8c01088    ....    STR      r1,[r0,#0x88]
        0x0001ade8:    7a61        az      LDRB     r1,[r4,#9]
        0x0001adea:    f8d02088    ...     LDR      r2,[r0,#0x88]
        0x0001adee:    f0224200    "..B    BIC      r2,r2,#0x80000000
        0x0001adf2:    ea4271c1    B..q    ORR      r1,r2,r1,LSL #31
        0x0001adf6:    f8c01088    ....    STR      r1,[r0,#0x88]
        0x0001adfa:    4630        0F      MOV      r0,r6
        0x0001adfc:    b002        ..      ADD      sp,sp,#8
        0x0001adfe:    e8bd87f0    ....    POP      {r4-r10,pc}
        0x0001ae02:    bf00        ..      NOP      
        0x0001ae04:    2c00        .,      CMP      r4,#0
        0x0001ae06:    f000832f    ../.    BEQ.W    0x1b468 ; am_hal_mspi_control + 2448
        0x0001ae0a:    2000        .       MOVS     r0,#0
        0x0001ae0c:    f2c40006    ....    MOVT     r0,#0x4006
        0x0001ae10:    eb003007    ...0    ADD      r0,r0,r7,LSL #12
        0x0001ae14:    7a61        az      LDRB     r1,[r4,#9]
        0x0001ae16:    f8d0208c    ...     LDR      r2,[r0,#0x8c]
        0x0001ae1a:    2600        .&      MOVS     r6,#0
        0x0001ae1c:    f3610203    a...    BFI      r2,r1,#0,#4
        0x0001ae20:    f8c0208c    ...     STR      r2,[r0,#0x8c]
        0x0001ae24:    7a21        !z      LDRB     r1,[r4,#8]
        0x0001ae26:    f8d0208c    ...     LDR      r2,[r0,#0x8c]
        0x0001ae2a:    f001010f    ....    AND      r1,r1,#0xf
        0x0001ae2e:    f0220210    "...    BIC      r2,r2,#0x10
        0x0001ae32:    ea421101    B...    ORR      r1,r2,r1,LSL #4
        0x0001ae36:    f8c0108c    ....    STR      r1,[r0,#0x8c]
        0x0001ae3a:    79e1        .y      LDRB     r1,[r4,#7]
        0x0001ae3c:    f8d0208c    ...     LDR      r2,[r0,#0x8c]
        0x0001ae40:    f0010107    ....    AND      r1,r1,#7
        0x0001ae44:    f0220220    ". .    BIC      r2,r2,#0x20
        0x0001ae48:    ea421141    B.A.    ORR      r1,r2,r1,LSL #5
        0x0001ae4c:    f8c0108c    ....    STR      r1,[r0,#0x8c]
        0x0001ae50:    79a1        .y      LDRB     r1,[r4,#6]
        0x0001ae52:    f8d0208c    ...     LDR      r2,[r0,#0x8c]
        0x0001ae56:    f0010101    ....    AND      r1,r1,#1
        0x0001ae5a:    f0220280    "...    BIC      r2,r2,#0x80
        0x0001ae5e:    ea4211c1    B...    ORR      r1,r2,r1,LSL #7
        0x0001ae62:    f8c0108c    ....    STR      r1,[r0,#0x8c]
        0x0001ae66:    7961        ay      LDRB     r1,[r4,#5]
        0x0001ae68:    f8d0208c    ...     LDR      r2,[r0,#0x8c]
        0x0001ae6c:    f4227280    "..r    BIC      r2,r2,#0x100
        0x0001ae70:    ea422101    B..!    ORR      r1,r2,r1,LSL #8
        0x0001ae74:    f8c0108c    ....    STR      r1,[r0,#0x8c]
        0x0001ae78:    7921        !y      LDRB     r1,[r4,#4]
        0x0001ae7a:    f8d0208c    ...     LDR      r2,[r0,#0x8c]
        0x0001ae7e:    f0010103    ....    AND      r1,r1,#3
        0x0001ae82:    f42262c0    "..b    BIC      r2,r2,#0x600
        0x0001ae86:    ea422141    B.A!    ORR      r1,r2,r1,LSL #9
        0x0001ae8a:    f8c0108c    ....    STR      r1,[r0,#0x8c]
        0x0001ae8e:    78e1        .x      LDRB     r1,[r4,#3]
        0x0001ae90:    f8d0208c    ...     LDR      r2,[r0,#0x8c]
        0x0001ae94:    f4226200    "..b    BIC      r2,r2,#0x800
        0x0001ae98:    ea4221c1    B..!    ORR      r1,r2,r1,LSL #11
        0x0001ae9c:    f8c0108c    ....    STR      r1,[r0,#0x8c]
        0x0001aea0:    78a1        .x      LDRB     r1,[r4,#2]
        0x0001aea2:    f8d0208c    ...     LDR      r2,[r0,#0x8c]
        0x0001aea6:    f4225280    "..R    BIC      r2,r2,#0x1000
        0x0001aeaa:    ea423101    B..1    ORR      r1,r2,r1,LSL #12
        0x0001aeae:    f8c0108c    ....    STR      r1,[r0,#0x8c]
        0x0001aeb2:    7861        ax      LDRB     r1,[r4,#1]
        0x0001aeb4:    f8d0208c    ...     LDR      r2,[r0,#0x8c]
        0x0001aeb8:    f4225200    "..R    BIC      r2,r2,#0x2000
        0x0001aebc:    ea423141    B.A1    ORR      r1,r2,r1,LSL #13
        0x0001aec0:    f8c0108c    ....    STR      r1,[r0,#0x8c]
        0x0001aec4:    7821        !x      LDRB     r1,[r4,#0]
        0x0001aec6:    f8d0208c    ...     LDR      r2,[r0,#0x8c]
        0x0001aeca:    f0010107    ....    AND      r1,r1,#7
        0x0001aece:    f42232e0    "..2    BIC      r2,r2,#0x1c000
        0x0001aed2:    ea423181    B..1    ORR      r1,r2,r1,LSL #14
        0x0001aed6:    f8c0108c    ....    STR      r1,[r0,#0x8c]
        0x0001aeda:    4630        0F      MOV      r0,r6
        0x0001aedc:    b002        ..      ADD      sp,sp,#8
        0x0001aede:    e8bd87f0    ....    POP      {r4-r10,pc}
        0x0001aee2:    bf00        ..      NOP      
        0x0001aee4:    2c00        .,      CMP      r4,#0
        0x0001aee6:    f00082bf    ....    BEQ.W    0x1b468 ; am_hal_mspi_control + 2448
        0x0001aeea:    2000        .       MOVS     r0,#0
        0x0001aeec:    f2c40006    ....    MOVT     r0,#0x4006
        0x0001aef0:    eb003007    ...0    ADD      r0,r0,r7,LSL #12
        0x0001aef4:    7821        !x      LDRB     r1,[r4,#0]
        0x0001aef6:    f8d02084    ...     LDR      r2,[r0,#0x84]
        0x0001aefa:    2600        .&      MOVS     r6,#0
        0x0001aefc:    f0227280    "..r    BIC      r2,r2,#0x1000000
        0x0001af00:    ea426101    B..a    ORR      r1,r2,r1,LSL #24
        0x0001af04:    f8c01084    ....    STR      r1,[r0,#0x84]
        0x0001af08:    7861        ax      LDRB     r1,[r4,#1]
        0x0001af0a:    f8d02084    ...     LDR      r2,[r0,#0x84]
        0x0001af0e:    f4220200    "...    BIC      r2,r2,#0x800000
        0x0001af12:    ea4251c1    B..Q    ORR      r1,r2,r1,LSL #23
        0x0001af16:    f8c01084    ....    STR      r1,[r0,#0x84]
        0x0001af1a:    78a1        .x      LDRB     r1,[r4,#2]
        0x0001af1c:    f8d02084    ...     LDR      r2,[r0,#0x84]
        0x0001af20:    f4220280    "...    BIC      r2,r2,#0x400000
        0x0001af24:    ea425181    B..Q    ORR      r1,r2,r1,LSL #22
        0x0001af28:    f8c01084    ....    STR      r1,[r0,#0x84]
        0x0001af2c:    7961        ay      LDRB     r1,[r4,#5]
        0x0001af2e:    f8d02084    ...     LDR      r2,[r0,#0x84]
        0x0001af32:    f001013f    ..?.    AND      r1,r1,#0x3f
        0x0001af36:    f422527c    ".|R    BIC      r2,r2,#0x3f00
        0x0001af3a:    ea422101    B..!    ORR      r1,r2,r1,LSL #8
        0x0001af3e:    f8c01084    ....    STR      r1,[r0,#0x84]
        0x0001af42:    7961        ay      LDRB     r1,[r4,#5]
        0x0001af44:    f8d02090    ...     LDR      r2,[r0,#0x90]
        0x0001af48:    f001013f    ..?.    AND      r1,r1,#0x3f
        0x0001af4c:    f422227c    ".|"    BIC      r2,r2,#0xfc000
        0x0001af50:    ea423181    B..1    ORR      r1,r2,r1,LSL #14
        0x0001af54:    f8c01090    ....    STR      r1,[r0,#0x90]
        0x0001af58:    78e1        .x      LDRB     r1,[r4,#3]
        0x0001af5a:    f8d02088    ...     LDR      r2,[r0,#0x88]
        0x0001af5e:    f001011f    ....    AND      r1,r1,#0x1f
        0x0001af62:    f4227278    ".xr    BIC      r2,r2,#0x3e0
        0x0001af66:    ea421141    B.A.    ORR      r1,r2,r1,LSL #5
        0x0001af6a:    f8c01088    ....    STR      r1,[r0,#0x88]
        0x0001af6e:    7921        !y      LDRB     r1,[r4,#4]
        0x0001af70:    f8d02088    ...     LDR      r2,[r0,#0x88]
        0x0001af74:    f001011f    ....    AND      r1,r1,#0x1f
        0x0001af78:    f42242f8    "..B    BIC      r2,r2,#0x7c00
        0x0001af7c:    ea422181    B..!    ORR      r1,r2,r1,LSL #10
        0x0001af80:    f8c01088    ....    STR      r1,[r0,#0x88]
        0x0001af84:    4630        0F      MOV      r0,r6
        0x0001af86:    b002        ..      ADD      sp,sp,#8
        0x0001af88:    e8bd87f0    ....    POP      {r4-r10,pc}
        0x0001af8c:    2c00        .,      CMP      r4,#0
        0x0001af8e:    f000826b    ..k.    BEQ.W    0x1b468 ; am_hal_mspi_control + 2448
        0x0001af92:    2000        .       MOVS     r0,#0
        0x0001af94:    f2c40006    ....    MOVT     r0,#0x4006
        0x0001af98:    eb003007    ...0    ADD      r0,r0,r7,LSL #12
        0x0001af9c:    f8d01084    ....    LDR      r1,[r0,#0x84]
        0x0001afa0:    2600        .&      MOVS     r6,#0
        0x0001afa2:    f3c16100    ...a    UBFX     r1,r1,#24,#1
        0x0001afa6:    7021        !p      STRB     r1,[r4,#0]
        0x0001afa8:    f8d01084    ....    LDR      r1,[r0,#0x84]
        0x0001afac:    f3c151c0    ...Q    UBFX     r1,r1,#23,#1
        0x0001afb0:    7061        ap      STRB     r1,[r4,#1]
        0x0001afb2:    f8d01084    ....    LDR      r1,[r0,#0x84]
        0x0001afb6:    f3c15180    ...Q    UBFX     r1,r1,#22,#1
        0x0001afba:    70a1        .p      STRB     r1,[r4,#2]
        0x0001afbc:    f8d01084    ....    LDR      r1,[r0,#0x84]
        0x0001afc0:    f3c12105    ...!    UBFX     r1,r1,#8,#6
        0x0001afc4:    7161        aq      STRB     r1,[r4,#5]
        0x0001afc6:    f8d01090    ....    LDR      r1,[r0,#0x90]
        0x0001afca:    f3c13185    ...1    UBFX     r1,r1,#14,#6
        0x0001afce:    7161        aq      STRB     r1,[r4,#5]
        0x0001afd0:    f8d01088    ....    LDR      r1,[r0,#0x88]
        0x0001afd4:    f3c11144    ..D.    UBFX     r1,r1,#5,#5
        0x0001afd8:    70e1        .p      STRB     r1,[r4,#3]
        0x0001afda:    f8d00088    ....    LDR      r0,[r0,#0x88]
        0x0001afde:    f3c02084    ...     UBFX     r0,r0,#10,#5
        0x0001afe2:    7120         q      STRB     r0,[r4,#4]
        0x0001afe4:    4630        0F      MOV      r0,r6
        0x0001afe6:    b002        ..      ADD      sp,sp,#8
        0x0001afe8:    e8bd87f0    ....    POP      {r4-r10,pc}
        0x0001afec:    2f00        ./      CMP      r7,#0
        0x0001afee:    f0008261    ..a.    BEQ.W    0x1b4b4 ; am_hal_mspi_control + 2524
        0x0001aff2:    2f01        ./      CMP      r7,#1
        0x0001aff4:    f000826a    ..j.    BEQ.W    0x1b4cc ; am_hal_mspi_control + 2548
        0x0001aff8:    2f02        ./      CMP      r7,#2
        0x0001affa:    f0408273    @.s.    BNE.W    0x1b4e4 ; am_hal_mspi_control + 2572
        0x0001affe:    68a0        .h      LDR      r0,[r4,#8]
        0x0001b000:    f1004160    ..`A    ADD      r1,r0,#0xe0000000
        0x0001b004:    f1b14f7c    ..|O    CMP      r1,#0xfc000000
        0x0001b008:    f080826d    ..m.    BCS.W    0x1b4e6 ; am_hal_mspi_control + 2574
        0x0001b00c:    2605        .&      MOVS     r6,#5
        0x0001b00e:    4630        0F      MOV      r0,r6
        0x0001b010:    b002        ..      ADD      sp,sp,#8
        0x0001b012:    e8bd87f0    ....    POP      {r4-r10,pc}
        0x0001b016:    bf00        ..      NOP      
        0x0001b018:    2c00        .,      CMP      r4,#0
        0x0001b01a:    f0008225    ..%.    BEQ.W    0x1b468 ; am_hal_mspi_control + 2448
        0x0001b01e:    79e0        .y      LDRB     r0,[r4,#7]
        0x0001b020:    79a1        .y      LDRB     r1,[r4,#6]
        0x0001b022:    0380        ..      LSLS     r0,r0,#14
        0x0001b024:    7a22        "z      LDRB     r2,[r4,#8]
        0x0001b026:    ea405041    @.AP    ORR      r0,r0,r1,LSL #21
        0x0001b02a:    7961        ay      LDRB     r1,[r4,#5]
        0x0001b02c:    f362304d    b.M0    BFI      r0,r2,#13,#1
        0x0001b030:    6822        "h      LDR      r2,[r4,#0]
        0x0001b032:    ea403001    @..0    ORR      r0,r0,r1,LSL #12
        0x0001b036:    2100        .!      MOVS     r1,#0
        0x0001b038:    f36f321f    o..2    BFC      r2,#12,#20
        0x0001b03c:    f2c40106    ....    MOVT     r1,#0x4006
        0x0001b040:    4410        .D      ADD      r0,r0,r2
        0x0001b042:    eb013107    ...1    ADD      r1,r1,r7,LSL #12
        0x0001b046:    f8c100a0    ....    STR      r0,[r1,#0xa0]
        0x0001b04a:    2600        .&      MOVS     r6,#0
        0x0001b04c:    4630        0F      MOV      r0,r6
        0x0001b04e:    b002        ..      ADD      sp,sp,#8
        0x0001b050:    e8bd87f0    ....    POP      {r4-r10,pc}
        0x0001b054:    2001        .       MOVS     r0,#1
        0x0001b056:    2100        .!      MOVS     r1,#0
        0x0001b058:    2600        .&      MOVS     r6,#0
        0x0001b05a:    f7fff8ad    ....    BL       am_hal_daxi_control ; 0x1a1b8
        0x0001b05e:    2000        .       MOVS     r0,#0
        0x0001b060:    f2c40006    ....    MOVT     r0,#0x4006
        0x0001b064:    eb003007    ...0    ADD      r0,r0,r7,LSL #12
        0x0001b068:    f8d01090    ....    LDR      r1,[r0,#0x90]
        0x0001b06c:    f0210101    !...    BIC      r1,r1,#1
        0x0001b070:    f8c01090    ....    STR      r1,[r0,#0x90]
        0x0001b074:    4630        0F      MOV      r0,r6
        0x0001b076:    b002        ..      ADD      sp,sp,#8
        0x0001b078:    e8bd87f0    ....    POP      {r4-r10,pc}
        0x0001b07c:    2000        .       MOVS     r0,#0
        0x0001b07e:    f2c40006    ....    MOVT     r0,#0x4006
        0x0001b082:    eb003007    ...0    ADD      r0,r0,r7,LSL #12
        0x0001b086:    f8d01090    ....    LDR      r1,[r0,#0x90]
        0x0001b08a:    2600        .&      MOVS     r6,#0
        0x0001b08c:    f0410101    A...    ORR      r1,r1,#1
        0x0001b090:    f8c01090    ....    STR      r1,[r0,#0x90]
        0x0001b094:    4630        0F      MOV      r0,r6
        0x0001b096:    b002        ..      ADD      sp,sp,#8
        0x0001b098:    e8bd87f0    ....    POP      {r4-r10,pc}
        0x0001b09c:    2100        .!      MOVS     r1,#0
        0x0001b09e:    0338        8.      LSLS     r0,r7,#12
        0x0001b0a0:    f2c40106    ....    MOVT     r1,#0x4006
        0x0001b0a4:    580a        .X      LDR      r2,[r1,r0]
        0x0001b0a6:    eb013307    ...3    ADD      r3,r1,r7,LSL #12
        0x0001b0aa:    f4427280    B..r    ORR      r2,r2,#0x100
        0x0001b0ae:    500a        .P      STR      r2,[r1,r0]
        0x0001b0b0:    f8d30090    ....    LDR      r0,[r3,#0x90]
        0x0001b0b4:    2600        .&      MOVS     r6,#0
        0x0001b0b6:    f0400010    @...    ORR      r0,r0,#0x10
        0x0001b0ba:    f8c30090    ....    STR      r0,[r3,#0x90]
        0x0001b0be:    2001        .       MOVS     r0,#1
        0x0001b0c0:    7368        hs      STRB     r0,[r5,#0xd]
        0x0001b0c2:    4630        0F      MOV      r0,r6
        0x0001b0c4:    b002        ..      ADD      sp,sp,#8
        0x0001b0c6:    e8bd87f0    ....    POP      {r4-r10,pc}
        0x0001b0ca:    bf00        ..      NOP      
        0x0001b0cc:    2100        .!      MOVS     r1,#0
        0x0001b0ce:    0338        8.      LSLS     r0,r7,#12
        0x0001b0d0:    f2c40106    ....    MOVT     r1,#0x4006
        0x0001b0d4:    580a        .X      LDR      r2,[r1,r0]
        0x0001b0d6:    eb013307    ...3    ADD      r3,r1,r7,LSL #12
        0x0001b0da:    f4227280    "..r    BIC      r2,r2,#0x100
        0x0001b0de:    500a        .P      STR      r2,[r1,r0]
        0x0001b0e0:    f8d30090    ....    LDR      r0,[r3,#0x90]
        0x0001b0e4:    2600        .&      MOVS     r6,#0
        0x0001b0e6:    f0200010     ...    BIC      r0,r0,#0x10
        0x0001b0ea:    f8c30090    ....    STR      r0,[r3,#0x90]
        0x0001b0ee:    736e        ns      STRB     r6,[r5,#0xd]
        0x0001b0f0:    4630        0F      MOV      r0,r6
        0x0001b0f2:    b002        ..      ADD      sp,sp,#8
        0x0001b0f4:    e8bd87f0    ....    POP      {r4-r10,pc}
        0x0001b0f8:    2c00        .,      CMP      r4,#0
        0x0001b0fa:    f00081b5    ....    BEQ.W    0x1b468 ; am_hal_mspi_control + 2448
        0x0001b0fe:    7821        !x      LDRB     r1,[r4,#0]
        0x0001b100:    4638        8F      MOV      r0,r7
        0x0001b102:    72e9        .r      STRB     r1,[r5,#0xb]
        0x0001b104:    f003fed8    ....    BL       mspi_piomixed_configure ; 0x1eeb8
        0x0001b108:    2600        .&      MOVS     r6,#0
        0x0001b10a:    4630        0F      MOV      r0,r6
        0x0001b10c:    b002        ..      ADD      sp,sp,#8
        0x0001b10e:    e8bd87f0    ....    POP      {r4-r10,pc}
        0x0001b112:    bf00        ..      NOP      
        0x0001b114:    2c00        .,      CMP      r4,#0
        0x0001b116:    f00081a7    ....    BEQ.W    0x1b468 ; am_hal_mspi_control + 2448
        0x0001b11a:    7820         x      LDRB     r0,[r4,#0]
        0x0001b11c:    72a8        .r      STRB     r0,[r5,#0xa]
        0x0001b11e:    4628        (F      MOV      r0,r5
        0x0001b120:    f003fc68    ..h.    BL       mspi_device_configure ; 0x1e9f4
        0x0001b124:    2600        .&      MOVS     r6,#0
        0x0001b126:    4630        0F      MOV      r0,r6
        0x0001b128:    b002        ..      ADD      sp,sp,#8
        0x0001b12a:    e8bd87f0    ....    POP      {r4-r10,pc}
        0x0001b12e:    bf00        ..      NOP      
        0x0001b130:    2100        .!      MOVS     r1,#0
        0x0001b132:    f2c40106    ....    MOVT     r1,#0x4006
        0x0001b136:    eb013107    ...1    ADD      r1,r1,r7,LSL #12
        0x0001b13a:    7820         x      LDRB     r0,[r4,#0]
        0x0001b13c:    f8d12084    ...     LDR      r2,[r1,#0x84]
        0x0001b140:    2605        .&      MOVS     r6,#5
        0x0001b142:    f3604215    `..B    BFI      r2,r0,#16,#6
        0x0001b146:    f8c12084    ...     STR      r2,[r1,#0x84]
        0x0001b14a:    1e42        B.      SUBS     r2,r0,#1
        0x0001b14c:    2a1f        .*      CMP      r2,#0x1f
        0x0001b14e:    f63facd5    ?...    BHI      0x1aafc ; am_hal_mspi_control + 36
        0x0001b152:    2301        .#      MOVS     r3,#1
        0x0001b154:    f64807ae    H...    MOV      r7,#0x88ae
        0x0001b158:    4093        .@      LSLS     r3,r3,r2
        0x0001b15a:    f2c80780    ....    MOVT     r7,#0x8080
        0x0001b15e:    423b        ;B      TST      r3,r7
        0x0001b160:    f00081fe    ....    BEQ.W    0x1b560 ; am_hal_mspi_control + 2696
        0x0001b164:    f8d13084    ...0    LDR      r3,[r1,#0x84]
        0x0001b168:    f0237380    #..s    BIC      r3,r3,#0x1000000
        0x0001b16c:    f8c13084    ...0    STR      r3,[r1,#0x84]
        0x0001b170:    f8d13084    ...0    LDR      r3,[r1,#0x84]
        0x0001b174:    f4230300    #...    BIC      r3,r3,#0x800000
        0x0001b178:    f8c13084    ...0    STR      r3,[r1,#0x84]
        0x0001b17c:    f8d13084    ...0    LDR      r3,[r1,#0x84]
        0x0001b180:    f4230380    #...    BIC      r3,r3,#0x400000
        0x0001b184:    f8c13084    ...0    STR      r3,[r1,#0x84]
        0x0001b188:    69ab        .i      LDR      r3,[r5,#0x18]
        0x0001b18a:    b32b        +.      CBZ      r3,0x1b1d8 ; am_hal_mspi_control + 1792
        0x0001b18c:    2320         #      MOVS     r3,#0x20
        0x0001b18e:    2a1f        .*      CMP      r2,#0x1f
        0x0001b190:    f04f0605    O...    MOV      r6,#5
        0x0001b194:    f8c13114    ...1    STR      r3,[r1,#0x114]
        0x0001b198:    f63facb0    ?...    BHI      0x1aafc ; am_hal_mspi_control + 36
        0x0001b19c:    2301        .#      MOVS     r3,#1
        0x0001b19e:    fa03f202    ....    LSL      r2,r3,r2
        0x0001b1a2:    f64803ac    H...    MOV      r3,#0x88ac
        0x0001b1a6:    f2c80380    ....    MOVT     r3,#0x8080
        0x0001b1aa:    421a        .B      TST      r2,r3
        0x0001b1ac:    f00081e0    ....    BEQ.W    0x1b570 ; am_hal_mspi_control + 2712
        0x0001b1b0:    2208        ."      MOVS     r2,#8
        0x0001b1b2:    f8d13118    ...1    LDR      r3,[r1,#0x118]
        0x0001b1b6:    f023031f    #...    BIC      r3,r3,#0x1f
        0x0001b1ba:    441a        .D      ADD      r2,r2,r3
        0x0001b1bc:    f8c12118    ...!    STR      r2,[r1,#0x118]
        0x0001b1c0:    6a0a        .j      LDR      r2,[r1,#0x20]
        0x0001b1c2:    231e        .#      MOVS     r3,#0x1e
        0x0001b1c4:    f363220d    c.."    BFI      r2,r3,#8,#6
        0x0001b1c8:    620a        .b      STR      r2,[r1,#0x20]
        0x0001b1ca:    f8d12118    ...!    LDR      r2,[r1,#0x118]
        0x0001b1ce:    2308        .#      MOVS     r3,#8
        0x0001b1d0:    f363220c    c.."    BFI      r2,r3,#8,#5
        0x0001b1d4:    f8c12118    ...!    STR      r2,[r1,#0x118]
        0x0001b1d8:    7328        (s      STRB     r0,[r5,#0xc]
        0x0001b1da:    2600        .&      MOVS     r6,#0
        0x0001b1dc:    4630        0F      MOV      r0,r6
        0x0001b1de:    b002        ..      ADD      sp,sp,#8
        0x0001b1e0:    e8bd87f0    ....    POP      {r4-r10,pc}
        0x0001b1e4:    4628        (F      MOV      r0,r5
        0x0001b1e6:    b002        ..      ADD      sp,sp,#8
        0x0001b1e8:    e8bd47f0    ...G    POP      {r4-r10,lr}
        0x0001b1ec:    f003bbc2    ....    B.W      mspi_cq_pause ; 0x1e974
        0x0001b1f0:    f89508c0    ....    LDRB     r0,[r5,#0x8c0]
        0x0001b1f4:    b918        ..      CBNZ     r0,0x1b1fe ; am_hal_mspi_control + 1830
        0x0001b1f6:    2001        .       MOVS     r0,#1
        0x0001b1f8:    2100        .!      MOVS     r1,#0
        0x0001b1fa:    f7feffdd    ....    BL       am_hal_daxi_control ; 0x1a1b8
        0x0001b1fe:    2000        .       MOVS     r0,#0
        0x0001b200:    f2c40006    ....    MOVT     r0,#0x4006
        0x0001b204:    eb003007    ...0    ADD      r0,r0,r7,LSL #12
        0x0001b208:    2180        .!      MOVS     r1,#0x80
        0x0001b20a:    f8c012b4    ....    STR      r1,[r0,#0x2b4]
        0x0001b20e:    2600        .&      MOVS     r6,#0
        0x0001b210:    4630        0F      MOV      r0,r6
        0x0001b212:    b002        ..      ADD      sp,sp,#8
        0x0001b214:    e8bd87f0    ....    POP      {r4-r10,pc}
        0x0001b218:    2c00        .,      CMP      r4,#0
        0x0001b21a:    f0008125    ..%.    BEQ.W    0x1b468 ; am_hal_mspi_control + 2448
        0x0001b21e:    69a8        .i      LDR      r0,[r5,#0x18]
        0x0001b220:    2800        .(      CMP      r0,#0
        0x0001b222:    f000818c    ....    BEQ.W    0x1b53e ; am_hal_mspi_control + 2662
        0x0001b226:    7824        $x      LDRB     r4,[r4,#0]
        0x0001b228:    f895082c    ..,.    LDRB     r0,[r5,#0x82c]
        0x0001b22c:    4284        .B      CMP      r4,r0
        0x0001b22e:    f040817f    @...    BNE.W    0x1b530 ; am_hal_mspi_control + 2648
        0x0001b232:    2600        .&      MOVS     r6,#0
        0x0001b234:    4630        0F      MOV      r0,r6
        0x0001b236:    b002        ..      ADD      sp,sp,#8
        0x0001b238:    e8bd87f0    ....    POP      {r4-r10,pc}
        0x0001b23c:    2c00        .,      CMP      r4,#0
        0x0001b23e:    f0008113    ....    BEQ.W    0x1b468 ; am_hal_mspi_control + 2448
        0x0001b242:    7920         y      LDRB     r0,[r4,#4]
        0x0001b244:    f0100fe0    ....    TST      r0,#0xe0
        0x0001b248:    f040810e    @...    BNE.W    0x1b468 ; am_hal_mspi_control + 2448
        0x0001b24c:    68a0        .h      LDR      r0,[r4,#8]
        0x0001b24e:    f24e01e0    N...    MOV      r1,#0xe0e0
        0x0001b252:    f2c001e0    ....    MOVT     r1,#0xe0
        0x0001b256:    4208        .B      TST      r0,r1
        0x0001b258:    f0408106    @...    BNE.W    0x1b468 ; am_hal_mspi_control + 2448
        0x0001b25c:    f895082c    ..,.    LDRB     r0,[r5,#0x82c]
        0x0001b260:    2801        .(      CMP      r0,#1
        0x0001b262:    f040816c    @.l.    BNE.W    0x1b53e ; am_hal_mspi_control + 2662
        0x0001b266:    f8d50838    ..8.    LDR      r0,[r5,#0x838]
        0x0001b26a:    f2400900    @...    MOVW     r9,#0
        0x0001b26e:    f2c40906    ....    MOVT     r9,#0x4006
        0x0001b272:    b170        p.      CBZ      r0,0x1b292 ; am_hal_mspi_control + 1978
        0x0001b274:    f89508c0    ....    LDRB     r0,[r5,#0x8c0]
        0x0001b278:    2100        .!      MOVS     r1,#0
        0x0001b27a:    f8c51838    ..8.    STR      r1,[r5,#0x838]
        0x0001b27e:    b918        ..      CBNZ     r0,0x1b288 ; am_hal_mspi_control + 1968
        0x0001b280:    2001        .       MOVS     r0,#1
        0x0001b282:    2100        .!      MOVS     r1,#0
        0x0001b284:    f7feff98    ....    BL       am_hal_daxi_control ; 0x1a1b8
        0x0001b288:    eb093007    ...0    ADD      r0,r9,r7,LSL #12
        0x0001b28c:    2120         !      MOVS     r1,#0x20
        0x0001b28e:    f8c012b4    ....    STR      r1,[r0,#0x2b4]
        0x0001b292:    7820         x      LDRB     r0,[r4,#0]
        0x0001b294:    b120         .      CBZ      r0,0x1b2a0 ; am_hal_mspi_control + 1992
        0x0001b296:    f895082d    ..-.    LDRB     r0,[r5,#0x82d]
        0x0001b29a:    2800        .(      CMP      r0,#0
        0x0001b29c:    f00081fc    ....    BEQ.W    0x1b698 ; am_hal_mspi_control + 3008
        0x0001b2a0:    f04f0800    O...    MOV      r8,#0
        0x0001b2a4:    f04f0a00    O...    MOV      r10,#0
        0x0001b2a8:    f8d50828    ..(.    LDR      r0,[r5,#0x828]
        0x0001b2ac:    aa01        ..      ADD      r2,sp,#4
        0x0001b2ae:    466b        kF      MOV      r3,sp
        0x0001b2b0:    2103        .!      MOVS     r1,#3
        0x0001b2b2:    f7fefc91    ....    BL       am_hal_cmdq_alloc_block ; 0x19bd8
        0x0001b2b6:    4606        .F      MOV      r6,r0
        0x0001b2b8:    2800        .(      CMP      r0,#0
        0x0001b2ba:    f47fac1f    ....    BNE      0x1aafc ; am_hal_mspi_control + 36
        0x0001b2be:    9801        ..      LDR      r0,[sp,#4]
        0x0001b2c0:    eb093107    ...1    ADD      r1,r9,r7,LSL #12
        0x0001b2c4:    f501722e    ...r    ADD      r2,r1,#0x2b8
        0x0001b2c8:    f501712d    ..-q    ADD      r1,r1,#0x2b4
        0x0001b2cc:    6082        .`      STR      r2,[r0,#8]
        0x0001b2ce:    6002        .`      STR      r2,[r0,#0]
        0x0001b2d0:    6101        .a      STR      r1,[r0,#0x10]
        0x0001b2d2:    f8d52838    ..8(    LDR      r2,[r5,#0x838]
        0x0001b2d6:    f44f4180    O..A    MOV      r1,#0x4000
        0x0001b2da:    2a02        .*      CMP      r2,#2
        0x0001b2dc:    f0008262    ..b.    BEQ.W    0x1b7a4 ; am_hal_mspi_control + 3276
        0x0001b2e0:    6863        ch      LDR      r3,[r4,#4]
        0x0001b2e2:    2a01        .*      CMP      r2,#1
        0x0001b2e4:    ea43020a    C...    ORR      r2,r3,r10
        0x0001b2e8:    f0408260    @.`.    BNE.W    0x1b7ac ; am_hal_mspi_control + 3284
        0x0001b2ec:    f24403a0    D...    MOV      r3,#0x40a0
        0x0001b2f0:    431a        .C      ORRS     r2,r2,r3
        0x0001b2f2:    2302        .#      MOVS     r3,#2
        0x0001b2f4:    f8c53838    ..88    STR      r3,[r5,#0x838]
        0x0001b2f8:    e25a        Z.      B        0x1b7b0 ; am_hal_mspi_control + 3288
        0x0001b2fa:    bf00        ..      NOP      
        0x0001b2fc:    2c00        .,      CMP      r4,#0
        0x0001b2fe:    f00080b3    ....    BEQ.W    0x1b468 ; am_hal_mspi_control + 2448
        0x0001b302:    f8d50854    ..T.    LDR      r0,[r5,#0x854]
        0x0001b306:    2800        .(      CMP      r0,#0
        0x0001b308:    f0408119    @...    BNE.W    0x1b53e ; am_hal_mspi_control + 2662
        0x0001b30c:    2600        .&      MOVS     r6,#0
        0x0001b30e:    2001        .       MOVS     r0,#1
        0x0001b310:    f8c56850    ..Ph    STR      r6,[r5,#0x850]
        0x0001b314:    f8c56840    ..@h    STR      r6,[r5,#0x840]
        0x0001b318:    f8c5084c    ..L.    STR      r0,[r5,#0x84c]
        0x0001b31c:    6860        `h      LDR      r0,[r4,#4]
        0x0001b31e:    f64a21ab    J..!    MOV      r1,#0xaaab
        0x0001b322:    f6ca21aa    ...!    MOVT     r1,#0xaaaa
        0x0001b326:    fba00101    ....    UMULL    r0,r1,r0,r1
        0x0001b32a:    6820         h      LDR      r0,[r4,#0]
        0x0001b32c:    f8c50854    ..T.    STR      r0,[r5,#0x854]
        0x0001b330:    0908        ..      LSRS     r0,r1,#4
        0x0001b332:    f8c50848    ..H.    STR      r0,[r5,#0x848]
        0x0001b336:    4630        0F      MOV      r0,r6
        0x0001b338:    b002        ..      ADD      sp,sp,#8
        0x0001b33a:    e8bd87f0    ....    POP      {r4-r10,pc}
        0x0001b33e:    bf00        ..      NOP      
        0x0001b340:    2000        .       MOVS     r0,#0
        0x0001b342:    f2c40006    ....    MOVT     r0,#0x4006
        0x0001b346:    eb003007    ...0    ADD      r0,r0,r7,LSL #12
        0x0001b34a:    f44f1100    O...    MOV      r1,#0x200000
        0x0001b34e:    f8c012b4    ....    STR      r1,[r0,#0x2b4]
        0x0001b352:    2001        .       MOVS     r0,#1
        0x0001b354:    2600        .&      MOVS     r6,#0
        0x0001b356:    f8c50838    ..8.    STR      r0,[r5,#0x838]
        0x0001b35a:    f8c56844    ..Dh    STR      r6,[r5,#0x844]
        0x0001b35e:    4630        0F      MOV      r0,r6
        0x0001b360:    b002        ..      ADD      sp,sp,#8
        0x0001b362:    e8bd87f0    ....    POP      {r4-r10,pc}
        0x0001b366:    bf00        ..      NOP      
        0x0001b368:    f89508c0    ....    LDRB     r0,[r5,#0x8c0]
        0x0001b36c:    b918        ..      CBNZ     r0,0x1b376 ; am_hal_mspi_control + 2206
        0x0001b36e:    2001        .       MOVS     r0,#1
        0x0001b370:    2100        .!      MOVS     r1,#0
        0x0001b372:    f7feff21    ..!.    BL       am_hal_daxi_control ; 0x1a1b8
        0x0001b376:    2000        .       MOVS     r0,#0
        0x0001b378:    f2c40006    ....    MOVT     r0,#0x4006
        0x0001b37c:    eb003007    ...0    ADD      r0,r0,r7,LSL #12
        0x0001b380:    2120         !      MOVS     r1,#0x20
        0x0001b382:    f8c012b4    ....    STR      r1,[r0,#0x2b4]
        0x0001b386:    f8d50844    ..D.    LDR      r0,[r5,#0x844]
        0x0001b38a:    2600        .&      MOVS     r6,#0
        0x0001b38c:    2800        .(      CMP      r0,#0
        0x0001b38e:    f8c56838    ..8h    STR      r6,[r5,#0x838]
        0x0001b392:    f47fabb3    ....    BNE      0x1aafc ; am_hal_mspi_control + 36
        0x0001b396:    4628        (F      MOV      r0,r5
        0x0001b398:    2100        .!      MOVS     r1,#0
        0x0001b39a:    2400        .$      MOVS     r4,#0
        0x0001b39c:    f004f86a    ..j.    BL       sched_hiprio ; 0x1f474
        0x0001b3a0:    4606        .F      MOV      r6,r0
        0x0001b3a2:    2800        .(      CMP      r0,#0
        0x0001b3a4:    f47fabaa    ....    BNE      0x1aafc ; am_hal_mspi_control + 36
        0x0001b3a8:    f8c54844    ..DH    STR      r4,[r5,#0x844]
        0x0001b3ac:    2600        .&      MOVS     r6,#0
        0x0001b3ae:    4630        0F      MOV      r0,r6
        0x0001b3b0:    b002        ..      ADD      sp,sp,#8
        0x0001b3b2:    e8bd87f0    ....    POP      {r4-r10,pc}
        0x0001b3b6:    bf00        ..      NOP      
        0x0001b3b8:    2c00        .,      CMP      r4,#0
        0x0001b3ba:    d055        U.      BEQ      0x1b468 ; am_hal_mspi_control + 2448
        0x0001b3bc:    f8d50828    ..(.    LDR      r0,[r5,#0x828]
        0x0001b3c0:    2800        .(      CMP      r0,#0
        0x0001b3c2:    f00080bc    ....    BEQ.W    0x1b53e ; am_hal_mspi_control + 2662
        0x0001b3c6:    6a29        )j      LDR      r1,[r5,#0x20]
        0x0001b3c8:    f5b17f80    ....    CMP      r1,#0x100
        0x0001b3cc:    f04080bc    @...    BNE.W    0x1b548 ; am_hal_mspi_control + 2672
        0x0001b3d0:    2605        .&      MOVS     r6,#5
        0x0001b3d2:    4630        0F      MOV      r0,r6
        0x0001b3d4:    b002        ..      ADD      sp,sp,#8
        0x0001b3d6:    e8bd87f0    ....    POP      {r4-r10,pc}
        0x0001b3da:    bf00        ..      NOP      
        0x0001b3dc:    2c00        .,      CMP      r4,#0
        0x0001b3de:    d043        C.      BEQ      0x1b468 ; am_hal_mspi_control + 2448
        0x0001b3e0:    7820         x      LDRB     r0,[r4,#0]
        0x0001b3e2:    2803        .(      CMP      r0,#3
        0x0001b3e4:    d840        @.      BHI      0x1b468 ; am_hal_mspi_control + 2448
        0x0001b3e6:    7860        `x      LDRB     r0,[r4,#1]
        0x0001b3e8:    2801        .(      CMP      r0,#1
        0x0001b3ea:    d83d        =.      BHI      0x1b468 ; am_hal_mspi_control + 2448
        0x0001b3ec:    2100        .!      MOVS     r1,#0
        0x0001b3ee:    f2c40106    ....    MOVT     r1,#0x4006
        0x0001b3f2:    eb013107    ...1    ADD      r1,r1,r7,LSL #12
        0x0001b3f6:    f8d12084    ...     LDR      r2,[r1,#0x84]
        0x0001b3fa:    2600        .&      MOVS     r6,#0
        0x0001b3fc:    f0220280    "...    BIC      r2,r2,#0x80
        0x0001b400:    ea4210c0    B...    ORR      r0,r2,r0,LSL #7
        0x0001b404:    f8c10084    ....    STR      r0,[r1,#0x84]
        0x0001b408:    7820         x      LDRB     r0,[r4,#0]
        0x0001b40a:    f8d12084    ...     LDR      r2,[r1,#0x84]
        0x0001b40e:    f3601246    `.F.    BFI      r2,r0,#5,#2
        0x0001b412:    f8c12084    ...     STR      r2,[r1,#0x84]
        0x0001b416:    4630        0F      MOV      r0,r6
        0x0001b418:    b002        ..      ADD      sp,sp,#8
        0x0001b41a:    e8bd87f0    ....    POP      {r4-r10,pc}
        0x0001b41e:    bf00        ..      NOP      
        0x0001b420:    b314        ..      CBZ      r4,0x1b468 ; am_hal_mspi_control + 2448
        0x0001b422:    2000        .       MOVS     r0,#0
        0x0001b424:    f2c40006    ....    MOVT     r0,#0x4006
        0x0001b428:    eb003007    ...0    ADD      r0,r0,r7,LSL #12
        0x0001b42c:    7a61        az      LDRB     r1,[r4,#9]
        0x0001b42e:    f8d02084    ...     LDR      r2,[r0,#0x84]
        0x0001b432:    2600        .&      MOVS     r6,#0
        0x0001b434:    f022427c    ".|B    BIC      r2,r2,#0xfc000000
        0x0001b438:    ea426181    B..a    ORR      r1,r2,r1,LSL #26
        0x0001b43c:    f8c01084    ....    STR      r1,[r0,#0x84]
        0x0001b440:    f8d01090    ....    LDR      r1,[r0,#0x90]
        0x0001b444:    2205        ."      MOVS     r2,#5
        0x0001b446:    f362210b    b..!    BFI      r1,r2,#8,#4
        0x0001b44a:    f8c01090    ....    STR      r1,[r0,#0x90]
        0x0001b44e:    7b21        !{      LDRB     r1,[r4,#0xc]
        0x0001b450:    f8d02090    ...     LDR      r2,[r0,#0x90]
        0x0001b454:    f4225200    "..R    BIC      r2,r2,#0x2000
        0x0001b458:    ea423141    B.A1    ORR      r1,r2,r1,LSL #13
        0x0001b45c:    f8c01090    ....    STR      r1,[r0,#0x90]
        0x0001b460:    4630        0F      MOV      r0,r6
        0x0001b462:    b002        ..      ADD      sp,sp,#8
        0x0001b464:    e8bd87f0    ....    POP      {r4-r10,pc}
        0x0001b468:    2606        .&      MOVS     r6,#6
        0x0001b46a:    4630        0F      MOV      r0,r6
        0x0001b46c:    b002        ..      ADD      sp,sp,#8
        0x0001b46e:    e8bd87f0    ....    POP      {r4-r10,pc}
        0x0001b472:    bf00        ..      NOP      
        0x0001b474:    2000        .       MOVS     r0,#0
        0x0001b476:    f2c40006    ....    MOVT     r0,#0x4006
        0x0001b47a:    eb003007    ...0    ADD      r0,r0,r7,LSL #12
        0x0001b47e:    f8d01090    ....    LDR      r1,[r0,#0x90]
        0x0001b482:    2600        .&      MOVS     r6,#0
        0x0001b484:    f0210140    !.@.    BIC      r1,r1,#0x40
        0x0001b488:    f8c01090    ....    STR      r1,[r0,#0x90]
        0x0001b48c:    4630        0F      MOV      r0,r6
        0x0001b48e:    b002        ..      ADD      sp,sp,#8
        0x0001b490:    e8bd87f0    ....    POP      {r4-r10,pc}
        0x0001b494:    2000        .       MOVS     r0,#0
        0x0001b496:    f2c40006    ....    MOVT     r0,#0x4006
        0x0001b49a:    eb003007    ...0    ADD      r0,r0,r7,LSL #12
        0x0001b49e:    f8d01090    ....    LDR      r1,[r0,#0x90]
        0x0001b4a2:    2600        .&      MOVS     r6,#0
        0x0001b4a4:    f0410140    A.@.    ORR      r1,r1,#0x40
        0x0001b4a8:    f8c01090    ....    STR      r1,[r0,#0x90]
        0x0001b4ac:    4630        0F      MOV      r0,r6
        0x0001b4ae:    b002        ..      ADD      sp,sp,#8
        0x0001b4b0:    e8bd87f0    ....    POP      {r4-r10,pc}
        0x0001b4b4:    68a0        .h      LDR      r0,[r4,#8]
        0x0001b4b6:    f1004168    ..hA    ADD      r1,r0,#0xe8000000
        0x0001b4ba:    f1b14f7c    ..|O    CMP      r1,#0xfc000000
        0x0001b4be:    d212        ..      BCS      0x1b4e6 ; am_hal_mspi_control + 2574
        0x0001b4c0:    2605        .&      MOVS     r6,#5
        0x0001b4c2:    4630        0F      MOV      r0,r6
        0x0001b4c4:    b002        ..      ADD      sp,sp,#8
        0x0001b4c6:    e8bd87f0    ....    POP      {r4-r10,pc}
        0x0001b4ca:    bf00        ..      NOP      
        0x0001b4cc:    68a0        .h      LDR      r0,[r4,#8]
        0x0001b4ce:    f1004164    ..dA    ADD      r1,r0,#0xe4000000
        0x0001b4d2:    f1b14f7c    ..|O    CMP      r1,#0xfc000000
        0x0001b4d6:    d206        ..      BCS      0x1b4e6 ; am_hal_mspi_control + 2574
        0x0001b4d8:    2605        .&      MOVS     r6,#5
        0x0001b4da:    4630        0F      MOV      r0,r6
        0x0001b4dc:    b002        ..      ADD      sp,sp,#8
        0x0001b4de:    e8bd87f0    ....    POP      {r4-r10,pc}
        0x0001b4e2:    bf00        ..      NOP      
        0x0001b4e4:    68a0        .h      LDR      r0,[r4,#8]
        0x0001b4e6:    2600        .&      MOVS     r6,#0
        0x0001b4e8:    2100        .!      MOVS     r1,#0
        0x0001b4ea:    f2c40606    ....    MOVT     r6,#0x4006
        0x0001b4ee:    f2c031ff    ...1    MOVT     r1,#0x3ff
        0x0001b4f2:    eb063707    ...7    ADD      r7,r6,r7,LSL #12
        0x0001b4f6:    4008        .@      ANDS     r0,r0,r1
        0x0001b4f8:    7b21        !{      LDRB     r1,[r4,#0xc]
        0x0001b4fa:    7b62        b{      LDRB     r2,[r4,#0xd]
        0x0001b4fc:    8863        c.      LDRH     r3,[r4,#2]
        0x0001b4fe:    f8d7609c    ...`    LDR      r6,[r7,#0x9c]
        0x0001b502:    f3611004    a...    BFI      r0,r1,#4,#1
        0x0001b506:    f3630609    c...    BFI      r6,r3,#0,#10
        0x0001b50a:    f8c7609c    ...`    STR      r6,[r7,#0x9c]
        0x0001b50e:    f002010f    ....    AND      r1,r2,#0xf
        0x0001b512:    88e2        ..      LDRH     r2,[r4,#6]
        0x0001b514:    f8d7309c    ...0    LDR      r3,[r7,#0x9c]
        0x0001b518:    4408        .D      ADD      r0,r0,r1
        0x0001b51a:    f3624319    b..C    BFI      r3,r2,#16,#10
        0x0001b51e:    f8c7309c    ...0    STR      r3,[r7,#0x9c]
        0x0001b522:    f8c70080    ....    STR      r0,[r7,#0x80]
        0x0001b526:    2600        .&      MOVS     r6,#0
        0x0001b528:    4630        0F      MOV      r0,r6
        0x0001b52a:    b002        ..      ADD      sp,sp,#8
        0x0001b52c:    e8bd87f0    ....    POP      {r4-r10,pc}
        0x0001b530:    2802        .(      CMP      r0,#2
        0x0001b532:    d03d        =.      BEQ      0x1b5b0 ; am_hal_mspi_control + 2776
        0x0001b534:    2800        .(      CMP      r0,#0
        0x0001b536:    d142        B.      BNE      0x1b5be ; am_hal_mspi_control + 2790
        0x0001b538:    6a28        (j      LDR      r0,[r5,#0x20]
        0x0001b53a:    2800        .(      CMP      r0,#0
        0x0001b53c:    d03f        ?.      BEQ      0x1b5be ; am_hal_mspi_control + 2790
        0x0001b53e:    2607        .&      MOVS     r6,#7
        0x0001b540:    4630        0F      MOV      r0,r6
        0x0001b542:    b002        ..      ADD      sp,sp,#8
        0x0001b544:    e8bd87f0    ....    POP      {r4-r10,pc}
        0x0001b548:    68e1        .h      LDR      r1,[r4,#0xc]
        0x0001b54a:    aa01        ..      ADD      r2,sp,#4
        0x0001b54c:    3103        .1      ADDS     r1,#3
        0x0001b54e:    466b        kF      MOV      r3,sp
        0x0001b550:    f7fefb42    ..B.    BL       am_hal_cmdq_alloc_block ; 0x19bd8
        0x0001b554:    b190        ..      CBZ      r0,0x1b57c ; am_hal_mspi_control + 2724
        0x0001b556:    2605        .&      MOVS     r6,#5
        0x0001b558:    4630        0F      MOV      r0,r6
        0x0001b55a:    b002        ..      ADD      sp,sp,#8
        0x0001b55c:    e8bd87f0    ....    POP      {r4-r10,pc}
        0x0001b560:    2a00        .*      CMP      r2,#0
        0x0001b562:    f47faacb    ....    BNE      0x1aafc ; am_hal_mspi_control + 36
        0x0001b566:    f8d13084    ...0    LDR      r3,[r1,#0x84]
        0x0001b56a:    f0437380    C..s    ORR      r3,r3,#0x1000000
        0x0001b56e:    e5fd        ..      B        0x1b16c ; am_hal_mspi_control + 1684
        0x0001b570:    0792        ..      LSLS     r2,r2,#30
        0x0001b572:    f43faac3    ?...    BEQ      0x1aafc ; am_hal_mspi_control + 36
        0x0001b576:    220c        ."      MOVS     r2,#0xc
        0x0001b578:    e61b        ..      B        0x1b1b2 ; am_hal_mspi_control + 1754
        0x0001b57a:    bf00        ..      NOP      
        0x0001b57c:    2000        .       MOVS     r0,#0
        0x0001b57e:    f2c40006    ....    MOVT     r0,#0x4006
        0x0001b582:    eb003c07    ...<    ADD      r12,r0,r7,LSL #12
        0x0001b586:    f8dd9004    ....    LDR      r9,[sp,#4]
        0x0001b58a:    f50c7e2e    ...~    ADD      lr,r12,#0x2b8
        0x0001b58e:    f8c9e000    ....    STR      lr,[r9,#0]
        0x0001b592:    f8d51838    ..8.    LDR      r1,[r5,#0x838]
        0x0001b596:    2902        .)      CMP      r1,#2
        0x0001b598:    d026        &.      BEQ      0x1b5e8 ; am_hal_mspi_control + 2832
        0x0001b59a:    6820         h      LDR      r0,[r4,#0]
        0x0001b59c:    2901        .)      CMP      r1,#1
        0x0001b59e:    d127        '.      BNE      0x1b5f0 ; am_hal_mspi_control + 2840
        0x0001b5a0:    f24401a0    D...    MOV      r1,#0x40a0
        0x0001b5a4:    4308        .C      ORRS     r0,r0,r1
        0x0001b5a6:    2102        .!      MOVS     r1,#2
        0x0001b5a8:    f8c51838    ..8.    STR      r1,[r5,#0x838]
        0x0001b5ac:    e022        ".      B        0x1b5f4 ; am_hal_mspi_control + 2844
        0x0001b5ae:    bf00        ..      NOP      
        0x0001b5b0:    4628        (F      MOV      r0,r5
        0x0001b5b2:    f003f9df    ....    BL       mspi_cq_pause ; 0x1e974
        0x0001b5b6:    4606        .F      MOV      r6,r0
        0x0001b5b8:    2800        .(      CMP      r0,#0
        0x0001b5ba:    f47faa9f    ....    BNE      0x1aafc ; am_hal_mspi_control + 36
        0x0001b5be:    f8d50828    ..(.    LDR      r0,[r5,#0x828]
        0x0001b5c2:    f7fefd31    ..1.    BL       am_hal_cmdq_reset ; 0x1a028
        0x0001b5c6:    2600        .&      MOVS     r6,#0
        0x0001b5c8:    2001        .       MOVS     r0,#1
        0x0001b5ca:    f8c56830    ..0h    STR      r6,[r5,#0x830]
        0x0001b5ce:    e9c56607    ...f    STRD     r6,r6,[r5,#0x1c]
        0x0001b5d2:    f885482c    ..,H    STRB     r4,[r5,#0x82c]
        0x0001b5d6:    f885082d    ..-.    STRB     r0,[r5,#0x82d]
        0x0001b5da:    f8c5685c    ..\h    STR      r6,[r5,#0x85c]
        0x0001b5de:    4630        0F      MOV      r0,r6
        0x0001b5e0:    b002        ..      ADD      sp,sp,#8
        0x0001b5e2:    e8bd87f0    ....    POP      {r4-r10,pc}
        0x0001b5e6:    bf00        ..      NOP      
        0x0001b5e8:    f44f4080    O..@    MOV      r0,#0x4000
        0x0001b5ec:    e002        ..      B        0x1b5f4 ; am_hal_mspi_control + 2844
        0x0001b5ee:    bf00        ..      NOP      
        0x0001b5f0:    f4404081    @..@    ORR      r0,r0,#0x4080
        0x0001b5f4:    f8c90004    ....    STR      r0,[r9,#4]
        0x0001b5f8:    68e1        .h      LDR      r1,[r4,#0xc]
        0x0001b5fa:    f1090008    ....    ADD      r0,r9,#8
        0x0001b5fe:    b139        9.      CBZ      r1,0x1b610 ; am_hal_mspi_control + 2872
        0x0001b600:    68a7        .h      LDR      r7,[r4,#8]
        0x0001b602:    1e4b        K.      SUBS     r3,r1,#1
        0x0001b604:    2b03        .+      CMP      r3,#3
        0x0001b606:    f0010803    ....    AND      r8,r1,#3
        0x0001b60a:    d203        ..      BCS      0x1b614 ; am_hal_mspi_control + 2876
        0x0001b60c:    2100        .!      MOVS     r1,#0
        0x0001b60e:    e024        $.      B        0x1b65a ; am_hal_mspi_control + 2946
        0x0001b610:    4606        .F      MOV      r6,r0
        0x0001b612:    e075        u.      B        0x1b700 ; am_hal_mspi_control + 3112
        0x0001b614:    f0210003    !...    BIC      r0,r1,#3
        0x0001b618:    f1c00a00    ....    RSB      r10,r0,#0
        0x0001b61c:    2000        .       MOVS     r0,#0
        0x0001b61e:    2100        .!      MOVS     r1,#0
        0x0001b620:    587a        zX      LDR      r2,[r7,r1]
        0x0001b622:    eb090301    ....    ADD      r3,r9,r1
        0x0001b626:    187e        ~.      ADDS     r6,r7,r1
        0x0001b628:    609a        .`      STR      r2,[r3,#8]
        0x0001b62a:    6872        rh      LDR      r2,[r6,#4]
        0x0001b62c:    3804        .8      SUBS     r0,#4
        0x0001b62e:    60da        .`      STR      r2,[r3,#0xc]
        0x0001b630:    68b2        .h      LDR      r2,[r6,#8]
        0x0001b632:    4582        .E      CMP      r10,r0
        0x0001b634:    611a        .a      STR      r2,[r3,#0x10]
        0x0001b636:    68f2        .h      LDR      r2,[r6,#0xc]
        0x0001b638:    f1010120    .. .    ADD      r1,r1,#0x20
        0x0001b63c:    615a        Za      STR      r2,[r3,#0x14]
        0x0001b63e:    6932        2i      LDR      r2,[r6,#0x10]
        0x0001b640:    619a        .a      STR      r2,[r3,#0x18]
        0x0001b642:    6972        ri      LDR      r2,[r6,#0x14]
        0x0001b644:    61da        .a      STR      r2,[r3,#0x1c]
        0x0001b646:    69b2        .i      LDR      r2,[r6,#0x18]
        0x0001b648:    621a        .b      STR      r2,[r3,#0x20]
        0x0001b64a:    69f2        .i      LDR      r2,[r6,#0x1c]
        0x0001b64c:    625a        Zb      STR      r2,[r3,#0x24]
        0x0001b64e:    d1e7        ..      BNE      0x1b620 ; am_hal_mspi_control + 2888
        0x0001b650:    4489        .D      ADD      r9,r9,r1
        0x0001b652:    f1090608    ....    ADD      r6,r9,#8
        0x0001b656:    4241        AB      RSBS     r1,r0,#0
        0x0001b658:    4630        0F      MOV      r0,r6
        0x0001b65a:    f1b80f00    ....    CMP      r8,#0
        0x0001b65e:    d04f        O.      BEQ      0x1b700 ; am_hal_mspi_control + 3112
        0x0001b660:    eb0706c1    ....    ADD      r6,r7,r1,LSL #3
        0x0001b664:    f8577031    W.1p    LDR      r7,[r7,r1,LSL #3]
        0x0001b668:    4601        .F      MOV      r1,r0
        0x0001b66a:    f8417b08    A..{    STR      r7,[r1],#8
        0x0001b66e:    6877        wh      LDR      r7,[r6,#4]
        0x0001b670:    f1b80f01    ....    CMP      r8,#1
        0x0001b674:    f8c9700c    ...p    STR      r7,[r9,#0xc]
        0x0001b678:    d102        ..      BNE      0x1b680 ; am_hal_mspi_control + 2984
        0x0001b67a:    460e        .F      MOV      r6,r1
        0x0001b67c:    4681        .F      MOV      r9,r0
        0x0001b67e:    e03f        ?.      B        0x1b700 ; am_hal_mspi_control + 3112
        0x0001b680:    e9d62702    ...'    LDRD     r2,r7,[r6,#8]
        0x0001b684:    f1b80f02    ....    CMP      r8,#2
        0x0001b688:    f1000910    ....    ADD      r9,r0,#0x10
        0x0001b68c:    e9c02702    ...'    STRD     r2,r7,[r0,#8]
        0x0001b690:    d130        0.      BNE      0x1b6f4 ; am_hal_mspi_control + 3100
        0x0001b692:    464e        NF      MOV      r6,r9
        0x0001b694:    4689        .F      MOV      r9,r1
        0x0001b696:    e033        3.      B        0x1b700 ; am_hal_mspi_control + 3112
        0x0001b698:    f8d50828    ..(.    LDR      r0,[r5,#0x828]
        0x0001b69c:    aa01        ..      ADD      r2,sp,#4
        0x0001b69e:    466b        kF      MOV      r3,sp
        0x0001b6a0:    2101        .!      MOVS     r1,#1
        0x0001b6a2:    f7fefa99    ....    BL       am_hal_cmdq_alloc_block ; 0x19bd8
        0x0001b6a6:    4606        .F      MOV      r6,r0
        0x0001b6a8:    2800        .(      CMP      r0,#0
        0x0001b6aa:    f47faa27    ..'.    BNE      0x1aafc ; am_hal_mspi_control + 36
        0x0001b6ae:    f89d0000    ....    LDRB     r0,[sp,#0]
        0x0001b6b2:    f64e7185    N..q    MOV      r1,#0xef85
        0x0001b6b6:    f2c00101    ....    MOVT     r1,#1
        0x0001b6ba:    eb050080    ....    ADD      r0,r5,r0,LSL #2
        0x0001b6be:    6281        .b      STR      r1,[r0,#0x28]
        0x0001b6c0:    f8c05428    ..(T    STR      r5,[r0,#0x428]
        0x0001b6c4:    eb093007    ...0    ADD      r0,r9,r7,LSL #12
        0x0001b6c8:    9901        ..      LDR      r1,[sp,#4]
        0x0001b6ca:    f500702d    ..-p    ADD      r0,r0,#0x2b4
        0x0001b6ce:    2200        ."      MOVS     r2,#0
        0x0001b6d0:    e9c10200    ....    STRD     r0,r2,[r1,#0]
        0x0001b6d4:    f7feffdc    ....    BL       am_hal_interrupt_master_disable ; 0x1a690
        0x0001b6d8:    f8d51828    ..(.    LDR      r1,[r5,#0x828]
        0x0001b6dc:    4680        .F      MOV      r8,r0
        0x0001b6de:    4608        .F      MOV      r0,r1
        0x0001b6e0:    2101        .!      MOVS     r1,#1
        0x0001b6e2:    f7fefc21    ..!.    BL       am_hal_cmdq_post_block ; 0x19f28
        0x0001b6e6:    2800        .(      CMP      r0,#0
        0x0001b6e8:    f00080cc    ....    BEQ.W    0x1b884 ; am_hal_mspi_control + 3500
        0x0001b6ec:    4606        .F      MOV      r6,r0
        0x0001b6ee:    4640        @F      MOV      r0,r8
        0x0001b6f0:    e077        w.      B        0x1b7e2 ; am_hal_mspi_control + 3338
        0x0001b6f2:    bf00        ..      NOP      
        0x0001b6f4:    e9d61304    ....    LDRD     r1,r3,[r6,#0x10]
        0x0001b6f8:    f1000618    ....    ADD      r6,r0,#0x18
        0x0001b6fc:    e9c01304    ....    STRD     r1,r3,[r0,#0x10]
        0x0001b700:    69a0        .i      LDR      r0,[r4,#0x18]
        0x0001b702:    2800        .(      CMP      r0,#0
        0x0001b704:    bf18        ..      IT       NE
        0x0001b706:    6006        .`      STRNE    r6,[r0,#0]
        0x0001b708:    f50c702d    ..-p    ADD      r0,r12,#0x2b4
        0x0001b70c:    f8c6e000    ....    STR      lr,[r6,#0]
        0x0001b710:    f8490f10    I...    STR      r0,[r9,#0x10]!
        0x0001b714:    f44f4080    O..@    MOV      r0,#0x4000
        0x0001b718:    f8490c04    I...    STR      r0,[r9,#-4]
        0x0001b71c:    6926        &i      LDR      r6,[r4,#0x10]
        0x0001b71e:    6860        `h      LDR      r0,[r4,#4]
        0x0001b720:    f8cd9004    ....    STR      r9,[sp,#4]
        0x0001b724:    f8c90004    ....    STR      r0,[r9,#4]
        0x0001b728:    b93e        >.      CBNZ     r6,0x1b73a ; am_hal_mspi_control + 3170
        0x0001b72a:    f8d50838    ..8.    LDR      r0,[r5,#0x838]
        0x0001b72e:    b918        ..      CBNZ     r0,0x1b738 ; am_hal_mspi_control + 3168
        0x0001b730:    f895082c    ..,.    LDRB     r0,[r5,#0x82c]
        0x0001b734:    2800        .(      CMP      r0,#0
        0x0001b736:    d06f        o.      BEQ      0x1b818 ; am_hal_mspi_control + 3392
        0x0001b738:    2600        .&      MOVS     r6,#0
        0x0001b73a:    f89d0000    ....    LDRB     r0,[sp,#0]
        0x0001b73e:    eb050080    ....    ADD      r0,r5,r0,LSL #2
        0x0001b742:    6286        .b      STR      r6,[r0,#0x28]
        0x0001b744:    6961        ai      LDR      r1,[r4,#0x14]
        0x0001b746:    f8c01428    ..(.    STR      r1,[r0,#0x428]
        0x0001b74a:    f7feffa1    ....    BL       am_hal_interrupt_master_disable ; 0x1a690
        0x0001b74e:    4680        .F      MOV      r8,r0
        0x0001b750:    f8d50828    ..(.    LDR      r0,[r5,#0x828]
        0x0001b754:    4631        1F      MOV      r1,r6
        0x0001b756:    2e00        ..      CMP      r6,#0
        0x0001b758:    bf18        ..      IT       NE
        0x0001b75a:    2101        .!      MOVNE    r1,#1
        0x0001b75c:    f7fefbe4    ....    BL       am_hal_cmdq_post_block ; 0x19f28
        0x0001b760:    4607        .F      MOV      r7,r0
        0x0001b762:    b158        X.      CBZ      r0,0x1b77c ; am_hal_mspi_control + 3236
        0x0001b764:    4640        @F      MOV      r0,r8
        0x0001b766:    f7feff9b    ....    BL       am_hal_interrupt_master_set ; 0x1a6a0
        0x0001b76a:    f8d50828    ..(.    LDR      r0,[r5,#0x828]
        0x0001b76e:    f7fefc43    ..C.    BL       am_hal_cmdq_release_block ; 0x19ff8
        0x0001b772:    463e        >F      MOV      r6,r7
        0x0001b774:    4630        0F      MOV      r0,r6
        0x0001b776:    b002        ..      ADD      sp,sp,#8
        0x0001b778:    e8bd87f0    ....    POP      {r4-r10,pc}
        0x0001b77c:    f8d59020    .. .    LDR      r9,[r5,#0x20]
        0x0001b780:    f8d51830    ..0.    LDR      r1,[r5,#0x830]
        0x0001b784:    f1090001    ....    ADD      r0,r9,#1
        0x0001b788:    6228        (b      STR      r0,[r5,#0x20]
        0x0001b78a:    1c48        H.      ADDS     r0,r1,#1
        0x0001b78c:    f8c50830    ..0.    STR      r0,[r5,#0x830]
        0x0001b790:    6920         i      LDR      r0,[r4,#0x10]
        0x0001b792:    b118        ..      CBZ      r0,0x1b79c ; am_hal_mspi_control + 3268
        0x0001b794:    2000        .       MOVS     r0,#0
        0x0001b796:    f885082d    ..-.    STRB     r0,[r5,#0x82d]
        0x0001b79a:    e04e        N.      B        0x1b83a ; am_hal_mspi_control + 3426
        0x0001b79c:    2e00        ..      CMP      r6,#0
        0x0001b79e:    d049        I.      BEQ      0x1b834 ; am_hal_mspi_control + 3420
        0x0001b7a0:    2000        .       MOVS     r0,#0
        0x0001b7a2:    e04a        J.      B        0x1b83a ; am_hal_mspi_control + 3426
        0x0001b7a4:    f44f4280    O..B    MOV      r2,#0x4000
        0x0001b7a8:    e002        ..      B        0x1b7b0 ; am_hal_mspi_control + 3288
        0x0001b7aa:    bf00        ..      NOP      
        0x0001b7ac:    f4424281    B..B    ORR      r2,r2,#0x4080
        0x0001b7b0:    6042        B`      STR      r2,[r0,#4]
        0x0001b7b2:    60c1        .`      STR      r1,[r0,#0xc]
        0x0001b7b4:    68a1        .h      LDR      r1,[r4,#8]
        0x0001b7b6:    ea410108    A...    ORR      r1,r1,r8
        0x0001b7ba:    6141        Aa      STR      r1,[r0,#0x14]
        0x0001b7bc:    f7feff68    ..h.    BL       am_hal_interrupt_master_disable ; 0x1a690
        0x0001b7c0:    7822        "x      LDRB     r2,[r4,#0]
        0x0001b7c2:    f8d51828    ..(.    LDR      r1,[r5,#0x828]
        0x0001b7c6:    4607        .F      MOV      r7,r0
        0x0001b7c8:    4608        .F      MOV      r0,r1
        0x0001b7ca:    f04f0100    O...    MOV      r1,#0
        0x0001b7ce:    b11a        ..      CBZ      r2,0x1b7d8 ; am_hal_mspi_control + 3328
        0x0001b7d0:    f7fefbde    ....    BL       am_hal_cmdq_post_loop_block ; 0x19f90
        0x0001b7d4:    e002        ..      B        0x1b7dc ; am_hal_mspi_control + 3332
        0x0001b7d6:    bf00        ..      NOP      
        0x0001b7d8:    f7fefba6    ....    BL       am_hal_cmdq_post_block ; 0x19f28
        0x0001b7dc:    4606        .F      MOV      r6,r0
        0x0001b7de:    b158        X.      CBZ      r0,0x1b7f8 ; am_hal_mspi_control + 3360
        0x0001b7e0:    4638        8F      MOV      r0,r7
        0x0001b7e2:    f7feff5d    ..].    BL       am_hal_interrupt_master_set ; 0x1a6a0
        0x0001b7e6:    f8d50828    ..(.    LDR      r0,[r5,#0x828]
        0x0001b7ea:    f7fefc05    ....    BL       am_hal_cmdq_release_block ; 0x19ff8
        0x0001b7ee:    4630        0F      MOV      r0,r6
        0x0001b7f0:    b002        ..      ADD      sp,sp,#8
        0x0001b7f2:    e8bd87f0    ....    POP      {r4-r10,pc}
        0x0001b7f6:    bf00        ..      NOP      
        0x0001b7f8:    6a2e        .j      LDR      r6,[r5,#0x20]
        0x0001b7fa:    1c70        p.      ADDS     r0,r6,#1
        0x0001b7fc:    6228        (b      STR      r0,[r5,#0x20]
        0x0001b7fe:    7820         x      LDRB     r0,[r4,#0]
        0x0001b800:    0040        @.      LSLS     r0,r0,#1
        0x0001b802:    f885082c    ..,.    STRB     r0,[r5,#0x82c]
        0x0001b806:    4638        8F      MOV      r0,r7
        0x0001b808:    f7feff4a    ..J.    BL       am_hal_interrupt_master_set ; 0x1a6a0
        0x0001b80c:    b376        v.      CBZ      r6,0x1b86c ; am_hal_mspi_control + 3476
        0x0001b80e:    2600        .&      MOVS     r6,#0
        0x0001b810:    4630        0F      MOV      r0,r6
        0x0001b812:    b002        ..      ADD      sp,sp,#8
        0x0001b814:    e8bd87f0    ....    POP      {r4-r10,pc}
        0x0001b818:    f8d50858    ..X.    LDR      r0,[r5,#0x858]
        0x0001b81c:    f8d5185c    ..\.    LDR      r1,[r5,#0x85c]
        0x0001b820:    f64e5689    N..V    MOV      r6,#0xed89
        0x0001b824:    f2c00601    ....    MOVT     r6,#1
        0x0001b828:    ebb10f50    ..P.    CMP      r1,r0,LSR #1
        0x0001b82c:    bf38        8.      IT       CC
        0x0001b82e:    2600        .&      MOVCC    r6,#0
        0x0001b830:    e783        ..      B        0x1b73a ; am_hal_mspi_control + 3170
        0x0001b832:    bf00        ..      NOP      
        0x0001b834:    f8d5085c    ..\.    LDR      r0,[r5,#0x85c]
        0x0001b838:    3001        .0      ADDS     r0,#1
        0x0001b83a:    f8c5085c    ..\.    STR      r0,[r5,#0x85c]
        0x0001b83e:    4640        @F      MOV      r0,r8
        0x0001b840:    f7feff2e    ....    BL       am_hal_interrupt_master_set ; 0x1a6a0
        0x0001b844:    f1b90f00    ....    CMP      r9,#0
        0x0001b848:    d004        ..      BEQ      0x1b854 ; am_hal_mspi_control + 3452
        0x0001b84a:    463e        >F      MOV      r6,r7
        0x0001b84c:    4630        0F      MOV      r0,r6
        0x0001b84e:    b002        ..      ADD      sp,sp,#8
        0x0001b850:    e8bd87f0    ....    POP      {r4-r10,pc}
        0x0001b854:    f8d50828    ..(.    LDR      r0,[r5,#0x828]
        0x0001b858:    f7fefa42    ..B.    BL       am_hal_cmdq_enable ; 0x19ce0
        0x0001b85c:    4606        .F      MOV      r6,r0
        0x0001b85e:    2800        .(      CMP      r0,#0
        0x0001b860:    bf08        ..      IT       EQ
        0x0001b862:    463e        >F      MOVEQ    r6,r7
        0x0001b864:    4630        0F      MOV      r0,r6
        0x0001b866:    b002        ..      ADD      sp,sp,#8
        0x0001b868:    e8bd87f0    ....    POP      {r4-r10,pc}
        0x0001b86c:    f8d50828    ..(.    LDR      r0,[r5,#0x828]
        0x0001b870:    f7fefa36    ..6.    BL       am_hal_cmdq_enable ; 0x19ce0
        0x0001b874:    4606        .F      MOV      r6,r0
        0x0001b876:    2800        .(      CMP      r0,#0
        0x0001b878:    bf08        ..      IT       EQ
        0x0001b87a:    2600        .&      MOVEQ    r6,#0
        0x0001b87c:    4630        0F      MOV      r0,r6
        0x0001b87e:    b002        ..      ADD      sp,sp,#8
        0x0001b880:    e8bd87f0    ....    POP      {r4-r10,pc}
        0x0001b884:    6a2e        .j      LDR      r6,[r5,#0x20]
        0x0001b886:    1c70        p.      ADDS     r0,r6,#1
        0x0001b888:    6228        (b      STR      r0,[r5,#0x20]
        0x0001b88a:    4640        @F      MOV      r0,r8
        0x0001b88c:    f7feff08    ....    BL       am_hal_interrupt_master_set ; 0x1a6a0
        0x0001b890:    b93e        >.      CBNZ     r6,0x1b8a2 ; am_hal_mspi_control + 3530
        0x0001b892:    f8d50828    ..(.    LDR      r0,[r5,#0x828]
        0x0001b896:    f7fefa23    ..#.    BL       am_hal_cmdq_enable ; 0x19ce0
        0x0001b89a:    4606        .F      MOV      r6,r0
        0x0001b89c:    2800        .(      CMP      r0,#0
        0x0001b89e:    f47fa92d    ..-.    BNE      0x1aafc ; am_hal_mspi_control + 36
        0x0001b8a2:    f04f0a40    O.@.    MOV      r10,#0x40
        0x0001b8a6:    f44f0880    O...    MOV      r8,#0x400000
        0x0001b8aa:    e4fd        ..      B        0x1b2a8 ; am_hal_mspi_control + 2000
    am_hal_mspi_deinitialize
        0x0001b8ac:    b510        ..      PUSH     {r4,lr}
        0x0001b8ae:    b1a8        ..      CBZ      r0,0x1b8dc ; am_hal_mspi_deinitialize + 48
        0x0001b8b0:    4604        .F      MOV      r4,r0
        0x0001b8b2:    6800        .h      LDR      r0,[r0,#0]
        0x0001b8b4:    f64b62be    K..b    MOV      r2,#0xbebe
        0x0001b8b8:    f020417e     .~A    BIC      r1,r0,#0xfe000000
        0x0001b8bc:    f2c012be    ....    MOVT     r2,#0x1be
        0x0001b8c0:    4291        .B      CMP      r1,r2
        0x0001b8c2:    d10b        ..      BNE      0x1b8dc ; am_hal_mspi_deinitialize + 48
        0x0001b8c4:    0181        ..      LSLS     r1,r0,#6
        0x0001b8c6:    d503        ..      BPL      0x1b8d0 ; am_hal_mspi_deinitialize + 36
        0x0001b8c8:    4620         F      MOV      r0,r4
        0x0001b8ca:    f000f8e3    ....    BL       am_hal_mspi_disable ; 0x1ba94
        0x0001b8ce:    6820         h      LDR      r0,[r4,#0]
        0x0001b8d0:    f0207180     ..q    BIC      r1,r0,#0x1000000
        0x0001b8d4:    2000        .       MOVS     r0,#0
        0x0001b8d6:    e9c41000    ....    STRD     r1,r0,[r4,#0]
        0x0001b8da:    bd10        ..      POP      {r4,pc}
        0x0001b8dc:    2002        .       MOVS     r0,#2
        0x0001b8de:    bd10        ..      POP      {r4,pc}
    am_hal_mspi_device_configure
        0x0001b8e0:    b570        p.      PUSH     {r4-r6,lr}
        0x0001b8e2:    b328        (.      CBZ      r0,0x1b930 ; am_hal_mspi_device_configure + 80
        0x0001b8e4:    4604        .F      MOV      r4,r0
        0x0001b8e6:    6800        .h      LDR      r0,[r0,#0]
        0x0001b8e8:    460d        .F      MOV      r5,r1
        0x0001b8ea:    f64b61be    K..a    MOV      r1,#0xbebe
        0x0001b8ee:    f020407e     .~@    BIC      r0,r0,#0xfe000000
        0x0001b8f2:    f2c011be    ....    MOVT     r1,#0x1be
        0x0001b8f6:    4288        .B      CMP      r0,r1
        0x0001b8f8:    d11a        ..      BNE      0x1b930 ; am_hal_mspi_device_configure + 80
        0x0001b8fa:    7a20         z      LDRB     r0,[r4,#8]
        0x0001b8fc:    b1d0        ..      CBZ      r0,0x1b934 ; am_hal_mspi_device_configure + 84
        0x0001b8fe:    786b        kx      LDRB     r3,[r5,#1]
        0x0001b900:    782a        *x      LDRB     r2,[r5,#0]
        0x0001b902:    78ae        .x      LDRB     r6,[r5,#2]
        0x0001b904:    2160        `!      MOVS     r1,#0x60
        0x0001b906:    7aa8        .z      LDRB     r0,[r5,#0xa]
        0x0001b908:    ea011143    ..C.    AND      r1,r1,r3,LSL #5
        0x0001b90c:    f8d4c004    ....    LDR      r12,[r4,#4]
        0x0001b910:    f36611c7    f...    BFI      r1,r6,#7,#1
        0x0001b914:    f002023f    ..?.    AND      r2,r2,#0x3f
        0x0001b918:    2803        .(      CMP      r0,#3
        0x0001b91a:    ea412e02    A...    ORR      lr,r1,r2,LSL #8
        0x0001b91e:    d00b        ..      BEQ      0x1b938 ; am_hal_mspi_device_configure + 88
        0x0001b920:    2802        .(      CMP      r0,#2
        0x0001b922:    d00d        ..      BEQ      0x1b940 ; am_hal_mspi_device_configure + 96
        0x0001b924:    2801        .(      CMP      r0,#1
        0x0001b926:    bf08        ..      IT       EQ
        0x0001b928:    f50e4e00    ...N    ADDEQ    lr,lr,#0x8000
        0x0001b92c:    e00a        ..      B        0x1b944 ; am_hal_mspi_device_configure + 100
        0x0001b92e:    bf00        ..      NOP      
        0x0001b930:    2002        .       MOVS     r0,#2
        0x0001b932:    bd70        p.      POP      {r4-r6,pc}
        0x0001b934:    2007        .       MOVS     r0,#7
        0x0001b936:    bd70        p.      POP      {r4-r6,pc}
        0x0001b938:    f50e4e40    ..@N    ADD      lr,lr,#0xc000
        0x0001b93c:    e002        ..      B        0x1b944 ; am_hal_mspi_device_configure + 100
        0x0001b93e:    bf00        ..      NOP      
        0x0001b940:    f50e4e80    ...N    ADD      lr,lr,#0x4000
        0x0001b944:    7aee        .z      LDRB     r6,[r5,#0xb]
        0x0001b946:    2005        .       MOVS     r0,#5
        0x0001b948:    1e73        s.      SUBS     r3,r6,#1
        0x0001b94a:    2b1f        .+      CMP      r3,#0x1f
        0x0001b94c:    f20080a1    ....    BHI.W    0x1ba92 ; am_hal_mspi_device_configure + 434
        0x0001b950:    2101        .!      MOVS     r1,#1
        0x0001b952:    f64802ae    H...    MOV      r2,#0x88ae
        0x0001b956:    4099        .@      LSLS     r1,r1,r3
        0x0001b958:    f2c80280    ....    MOVT     r2,#0x8080
        0x0001b95c:    4211        .B      TST      r1,r2
        0x0001b95e:    f3664e15    f..N    BFI      lr,r6,#16,#6
        0x0001b962:    d06f        o.      BEQ      0x1ba44 ; am_hal_mspi_device_configure + 356
        0x0001b964:    7a68        hz      LDRB     r0,[r5,#9]
        0x0001b966:    2100        .!      MOVS     r1,#0
        0x0001b968:    f2c40106    ....    MOVT     r1,#0x4006
        0x0001b96c:    ea4e6080    N..`    ORR      r0,lr,r0,LSL #26
        0x0001b970:    eb01310c    ...1    ADD      r1,r1,r12,LSL #12
        0x0001b974:    f8c10084    ....    STR      r0,[r1,#0x84]
        0x0001b978:    7c28        (|      LDRB     r0,[r5,#0x10]
        0x0001b97a:    f8d12088    ...     LDR      r2,[r1,#0x88]
        0x0001b97e:    f0220201    "...    BIC      r2,r2,#1
        0x0001b982:    4310        .C      ORRS     r0,r0,r2
        0x0001b984:    f8c10088    ....    STR      r0,[r1,#0x88]
        0x0001b988:    6b08        .k      LDR      r0,[r1,#0x30]
        0x0001b98a:    f6417203    A..r    MOV      r2,#0x1f03
        0x0001b98e:    f0200001     ...    BIC      r0,r0,#1
        0x0001b992:    6308        .c      STR      r0,[r1,#0x30]
        0x0001b994:    f8d10090    ....    LDR      r0,[r1,#0x90]
        0x0001b998:    f6cf4200    ...B    MOVT     r2,#0xfc00
        0x0001b99c:    4010        .@      ANDS     r0,r0,r2
        0x0001b99e:    7bea        .{      LDRB     r2,[r5,#0xf]
        0x0001b9a0:    7b63        c{      LDRB     r3,[r4,#0xd]
        0x0001b9a2:    2a00        .*      CMP      r2,#0
        0x0001b9a4:    f003020f    ....    AND      r2,r3,#0xf
        0x0001b9a8:    ea401002    @...    ORR      r0,r0,r2,LSL #4
        0x0001b9ac:    d008        ..      BEQ      0x1b9c0 ; am_hal_mspi_device_configure + 224
        0x0001b9ae:    782a        *x      LDRB     r2,[r5,#0]
        0x0001b9b0:    f002023f    ..?.    AND      r2,r2,#0x3f
        0x0001b9b4:    ea403082    @..0    ORR      r0,r0,r2,LSL #14
        0x0001b9b8:    f040002c    @.,.    ORR      r0,r0,#0x2c
        0x0001b9bc:    e001        ..      B        0x1b9c2 ; am_hal_mspi_device_configure + 226
        0x0001b9be:    bf00        ..      NOP      
        0x0001b9c0:    300c        .0      ADDS     r0,r0,#0xc
        0x0001b9c2:    7b6e        n{      LDRB     r6,[r5,#0xd]
        0x0001b9c4:    7baa        .{      LDRB     r2,[r5,#0xe]
        0x0001b9c6:    f895c009    ....    LDRB     r12,[r5,#9]
        0x0001b9ca:    7b2b        +{      LDRB     r3,[r5,#0xc]
        0x0001b9cc:    2e00        ..      CMP      r6,#0
        0x0001b9ce:    bf18        ..      IT       NE
        0x0001b9d0:    f0400040    @.@.    ORRNE    r0,r0,#0x40
        0x0001b9d4:    2a00        .*      CMP      r2,#0
        0x0001b9d6:    bf18        ..      IT       NE
        0x0001b9d8:    f0400080    @...    ORRNE    r0,r0,#0x80
        0x0001b9dc:    ea403043    @.C0    ORR      r0,r0,r3,LSL #13
        0x0001b9e0:    f00c023f    ..?.    AND      r2,r12,#0x3f
        0x0001b9e4:    ea405002    @..P    ORR      r0,r0,r2,LSL #20
        0x0001b9e8:    f8c10090    ....    STR      r0,[r1,#0x90]
        0x0001b9ec:    88e8        ..      LDRH     r0,[r5,#6]
        0x0001b9ee:    88aa        ..      LDRH     r2,[r5,#4]
        0x0001b9f0:    2600        .&      MOVS     r6,#0
        0x0001b9f2:    ea404002    @..@    ORR      r0,r0,r2,LSL #16
        0x0001b9f6:    f8c10094    ....    STR      r0,[r1,#0x94]
        0x0001b9fa:    8a68        h.      LDRH     r0,[r5,#0x12]
        0x0001b9fc:    7d2a        *}      LDRB     r2,[r5,#0x14]
        0x0001b9fe:    f36f301f    o..0    BFC      r0,#12,#20
        0x0001ba02:    f362300f    b..0    BFI      r0,r2,#12,#4
        0x0001ba06:    f8c10098    ....    STR      r0,[r1,#0x98]
        0x0001ba0a:    6b08        .k      LDR      r0,[r1,#0x30]
        0x0001ba0c:    2207        ."      MOVS     r2,#7
        0x0001ba0e:    f3621007    b...    BFI      r0,r2,#4,#4
        0x0001ba12:    6308        .c      STR      r0,[r1,#0x30]
        0x0001ba14:    69a0        .i      LDR      r0,[r4,#0x18]
        0x0001ba16:    7366        fs      STRB     r6,[r4,#0xd]
        0x0001ba18:    b378        x.      CBZ      r0,0x1ba7a ; am_hal_mspi_device_configure + 410
        0x0001ba1a:    2020                MOVS     r0,#0x20
        0x0001ba1c:    f8c10114    ....    STR      r0,[r1,#0x114]
        0x0001ba20:    7ae8        .z      LDRB     r0,[r5,#0xb]
        0x0001ba22:    1e42        B.      SUBS     r2,r0,#1
        0x0001ba24:    2a1f        .*      CMP      r2,#0x1f
        0x0001ba26:    f04f0005    O...    MOV      r0,#5
        0x0001ba2a:    d832        2.      BHI      0x1ba92 ; am_hal_mspi_device_configure + 434
        0x0001ba2c:    2301        .#      MOVS     r3,#1
        0x0001ba2e:    fa03f202    ....    LSL      r2,r3,r2
        0x0001ba32:    f64803ac    H...    MOV      r3,#0x88ac
        0x0001ba36:    f2c80380    ....    MOVT     r3,#0x8080
        0x0001ba3a:    421a        .B      TST      r2,r3
        0x0001ba3c:    d006        ..      BEQ      0x1ba4c ; am_hal_mspi_device_configure + 364
        0x0001ba3e:    2008        .       MOVS     r0,#8
        0x0001ba40:    e008        ..      B        0x1ba54 ; am_hal_mspi_device_configure + 372
        0x0001ba42:    bf00        ..      NOP      
        0x0001ba44:    bb2b        +.      CBNZ     r3,0x1ba92 ; am_hal_mspi_device_configure + 434
        0x0001ba46:    f10e7e80    ...~    ADD      lr,lr,#0x1000000
        0x0001ba4a:    e78b        ..      B        0x1b964 ; am_hal_mspi_device_configure + 132
        0x0001ba4c:    0792        ..      LSLS     r2,r2,#30
        0x0001ba4e:    bf08        ..      IT       EQ
        0x0001ba50:    bd70        p.      POPEQ    {r4-r6,pc}
        0x0001ba52:    200c        .       MOVS     r0,#0xc
        0x0001ba54:    f8d12118    ...!    LDR      r2,[r1,#0x118]
        0x0001ba58:    f022021f    "...    BIC      r2,r2,#0x1f
        0x0001ba5c:    4410        .D      ADD      r0,r0,r2
        0x0001ba5e:    f8c10118    ....    STR      r0,[r1,#0x118]
        0x0001ba62:    6a08        .j      LDR      r0,[r1,#0x20]
        0x0001ba64:    221e        ."      MOVS     r2,#0x1e
        0x0001ba66:    f362200d    b..     BFI      r0,r2,#8,#6
        0x0001ba6a:    6208        .b      STR      r0,[r1,#0x20]
        0x0001ba6c:    f8d10118    ....    LDR      r0,[r1,#0x118]
        0x0001ba70:    2208        ."      MOVS     r2,#8
        0x0001ba72:    f362200c    b..     BFI      r0,r2,#8,#5
        0x0001ba76:    f8c10118    ....    STR      r0,[r1,#0x118]
        0x0001ba7a:    7a28        (z      LDRB     r0,[r5,#8]
        0x0001ba7c:    72a0        .r      STRB     r0,[r4,#0xa]
        0x0001ba7e:    4620         F      MOV      r0,r4
        0x0001ba80:    f002ffb8    ....    BL       mspi_device_configure ; 0x1e9f4
        0x0001ba84:    7ae8        .z      LDRB     r0,[r5,#0xb]
        0x0001ba86:    7366        fs      STRB     r6,[r4,#0xd]
        0x0001ba88:    7320         s      STRB     r0,[r4,#0xc]
        0x0001ba8a:    f2427010    B..p    MOV      r0,#0x2710
        0x0001ba8e:    6120         a      STR      r0,[r4,#0x10]
        0x0001ba90:    2000        .       MOVS     r0,#0
        0x0001ba92:    bd70        p.      POP      {r4-r6,pc}
    am_hal_mspi_disable
        0x0001ba94:    b5b0        ..      PUSH     {r4,r5,r7,lr}
        0x0001ba96:    b1a8        ..      CBZ      r0,0x1bac4 ; am_hal_mspi_disable + 48
        0x0001ba98:    4604        .F      MOV      r4,r0
        0x0001ba9a:    6800        .h      LDR      r0,[r0,#0]
        0x0001ba9c:    f64b62be    K..b    MOV      r2,#0xbebe
        0x0001baa0:    f020417e     .~A    BIC      r1,r0,#0xfe000000
        0x0001baa4:    f2c012be    ....    MOVT     r2,#0x1be
        0x0001baa8:    4291        .B      CMP      r1,r2
        0x0001baaa:    d10b        ..      BNE      0x1bac4 ; am_hal_mspi_disable + 48
        0x0001baac:    0180        ..      LSLS     r0,r0,#6
        0x0001baae:    bf5c        \.      ITT      PL
        0x0001bab0:    2000        .       MOVPL    r0,#0
        0x0001bab2:    bdb0        ..      POPPL    {r4,r5,r7,pc}
        0x0001bab4:    f8d40840    ..@.    LDR      r0,[r4,#0x840]
        0x0001bab8:    b908        ..      CBNZ     r0,0x1babe ; am_hal_mspi_disable + 42
        0x0001baba:    6a20         j      LDR      r0,[r4,#0x20]
        0x0001babc:    b120         .      CBZ      r0,0x1bac8 ; am_hal_mspi_disable + 52
        0x0001babe:    2003        .       MOVS     r0,#3
        0x0001bac0:    bdb0        ..      POP      {r4,r5,r7,pc}
        0x0001bac2:    bf00        ..      NOP      
        0x0001bac4:    2002        .       MOVS     r0,#2
        0x0001bac6:    bdb0        ..      POP      {r4,r5,r7,pc}
        0x0001bac8:    69a0        .i      LDR      r0,[r4,#0x18]
        0x0001baca:    b1c0        ..      CBZ      r0,0x1bafe ; am_hal_mspi_disable + 106
        0x0001bacc:    f8d40828    ..(.    LDR      r0,[r4,#0x828]
        0x0001bad0:    f7fef8ea    ....    BL       am_hal_cmdq_disable ; 0x19ca8
        0x0001bad4:    4605        .F      MOV      r5,r0
        0x0001bad6:    bb28        (.      CBNZ     r0,0x1bb24 ; am_hal_mspi_disable + 144
        0x0001bad8:    6860        `h      LDR      r0,[r4,#4]
        0x0001bada:    f6426130    B.0a    MOV      r1,#0x2e30
        0x0001bade:    f2c10100    ....    MOVT     r1,#0x1000
        0x0001bae2:    f64002c4    @...    MOV      r2,#0x8c4
        0x0001bae6:    fb001102    ....    MLA      r1,r0,r2,r1
        0x0001baea:    f8d10828    ..(.    LDR      r0,[r1,#0x828]
        0x0001baee:    b130        0.      CBZ      r0,0x1bafe ; am_hal_mspi_disable + 106
        0x0001baf0:    f6010528    ..(.    ADD      r5,r1,#0x828
        0x0001baf4:    2101        .!      MOVS     r1,#1
        0x0001baf6:    f7fefac5    ....    BL       am_hal_cmdq_term ; 0x1a084
        0x0001bafa:    2000        .       MOVS     r0,#0
        0x0001bafc:    6028        (`      STR      r0,[r5,#0]
        0x0001bafe:    e9d40100    ....    LDRD     r0,r1,[r4,#0]
        0x0001bb02:    f0207000     ..p    BIC      r0,r0,#0x2000000
        0x0001bb06:    6020         `      STR      r0,[r4,#0]
        0x0001bb08:    0308        ..      LSLS     r0,r1,#12
        0x0001bb0a:    2190        .!      MOVS     r1,#0x90
        0x0001bb0c:    f2c40106    ....    MOVT     r1,#0x4006
        0x0001bb10:    5808        .X      LDR      r0,[r1,r0]
        0x0001bb12:    07c0        ..      LSLS     r0,r0,#31
        0x0001bb14:    bf04        ..      ITT      EQ
        0x0001bb16:    2000        .       MOVEQ    r0,#0
        0x0001bb18:    bdb0        ..      POPEQ    {r4,r5,r7,pc}
        0x0001bb1a:    2001        .       MOVS     r0,#1
        0x0001bb1c:    2100        .!      MOVS     r1,#0
        0x0001bb1e:    2500        .%      MOVS     r5,#0
        0x0001bb20:    f7fefb4a    ..J.    BL       am_hal_daxi_control ; 0x1a1b8
        0x0001bb24:    4628        (F      MOV      r0,r5
        0x0001bb26:    bdb0        ..      POP      {r4,r5,r7,pc}
    am_hal_mspi_enable
        0x0001bb28:    b5b0        ..      PUSH     {r4,r5,r7,lr}
        0x0001bb2a:    b084        ..      SUB      sp,sp,#0x10
        0x0001bb2c:    2800        .(      CMP      r0,#0
        0x0001bb2e:    d04b        K.      BEQ      0x1bbc8 ; am_hal_mspi_enable + 160
        0x0001bb30:    4604        .F      MOV      r4,r0
        0x0001bb32:    6800        .h      LDR      r0,[r0,#0]
        0x0001bb34:    f64b62be    K..b    MOV      r2,#0xbebe
        0x0001bb38:    f020417e     .~A    BIC      r1,r0,#0xfe000000
        0x0001bb3c:    f2c012be    ....    MOVT     r2,#0x1be
        0x0001bb40:    4291        .B      CMP      r1,r2
        0x0001bb42:    d141        A.      BNE      0x1bbc8 ; am_hal_mspi_enable + 160
        0x0001bb44:    7a21        !z      LDRB     r1,[r4,#8]
        0x0001bb46:    2900        .)      CMP      r1,#0
        0x0001bb48:    d042        B.      BEQ      0x1bbd0 ; am_hal_mspi_enable + 168
        0x0001bb4a:    69a1        .i      LDR      r1,[r4,#0x18]
        0x0001bb4c:    b3b1        ..      CBZ      r1,0x1bbbc ; am_hal_mspi_enable + 148
        0x0001bb4e:    6962        bi      LDR      r2,[r4,#0x14]
        0x0001bb50:    9102        ..      STR      r1,[sp,#8]
        0x0001bb52:    0851        Q.      LSRS     r1,r2,#1
        0x0001bb54:    9101        ..      STR      r1,[sp,#4]
        0x0001bb56:    2101        .!      MOVS     r1,#1
        0x0001bb58:    6860        `h      LDR      r0,[r4,#4]
        0x0001bb5a:    f88d100c    ....    STRB     r1,[sp,#0xc]
        0x0001bb5e:    f6426130    B.0a    MOV      r1,#0x2e30
        0x0001bb62:    f2c10100    ....    MOVT     r1,#0x1000
        0x0001bb66:    f64002c4    @...    MOV      r2,#0x8c4
        0x0001bb6a:    fb001102    ....    MLA      r1,r0,r2,r1
        0x0001bb6e:    3008        .0      ADDS     r0,r0,#8
        0x0001bb70:    2500        .%      MOVS     r5,#0
        0x0001bb72:    f6010228    ..(.    ADD      r2,r1,#0x828
        0x0001bb76:    b2c0        ..      UXTB     r0,r0
        0x0001bb78:    a901        ..      ADD      r1,sp,#4
        0x0001bb7a:    e9c45507    ...U    STRD     r5,r5,[r4,#0x1c]
        0x0001bb7e:    f7fef973    ..s.    BL       am_hal_cmdq_init ; 0x19e68
        0x0001bb82:    6860        `h      LDR      r0,[r4,#4]
        0x0001bb84:    f24021b4    @..!    MOVW     r1,#0x2b4
        0x0001bb88:    2280        ."      MOVS     r2,#0x80
        0x0001bb8a:    0300        ..      LSLS     r0,r0,#12
        0x0001bb8c:    f2c40106    ....    MOVT     r1,#0x4006
        0x0001bb90:    f2c00240    ..@.    MOVT     r2,#0x40
        0x0001bb94:    500a        .P      STR      r2,[r1,r0]
        0x0001bb96:    f8c45854    ..TX    STR      r5,[r4,#0x854]
        0x0001bb9a:    f884583c    ..<X    STRB     r5,[r4,#0x83c]
        0x0001bb9e:    f44f7080    O..p    MOV      r0,#0x100
        0x0001bba2:    f8a4082c    ..,.    STRH     r0,[r4,#0x82c]
        0x0001bba6:    6820         h      LDR      r0,[r4,#0]
        0x0001bba8:    f8c45838    ..8X    STR      r5,[r4,#0x838]
        0x0001bbac:    f8c45840    ..@X    STR      r5,[r4,#0x840]
        0x0001bbb0:    f8c45844    ..DX    STR      r5,[r4,#0x844]
        0x0001bbb4:    f8c45830    ..0X    STR      r5,[r4,#0x830]
        0x0001bbb8:    f8c4585c    ..\X    STR      r5,[r4,#0x85c]
        0x0001bbbc:    f0407000    @..p    ORR      r0,r0,#0x2000000
        0x0001bbc0:    6020         `      STR      r0,[r4,#0]
        0x0001bbc2:    2000        .       MOVS     r0,#0
        0x0001bbc4:    b004        ..      ADD      sp,sp,#0x10
        0x0001bbc6:    bdb0        ..      POP      {r4,r5,r7,pc}
        0x0001bbc8:    2002        .       MOVS     r0,#2
        0x0001bbca:    b004        ..      ADD      sp,sp,#0x10
        0x0001bbcc:    bdb0        ..      POP      {r4,r5,r7,pc}
        0x0001bbce:    bf00        ..      NOP      
        0x0001bbd0:    2007        .       MOVS     r0,#7
        0x0001bbd2:    b004        ..      ADD      sp,sp,#0x10
        0x0001bbd4:    bdb0        ..      POP      {r4,r5,r7,pc}
        0x0001bbd6:    0000        ..      MOVS     r0,r0
    am_hal_mspi_highprio_transfer
        0x0001bbd8:    b510        ..      PUSH     {r4,lr}
        0x0001bbda:    b1a8        ..      CBZ      r0,0x1bc08 ; am_hal_mspi_highprio_transfer + 48
        0x0001bbdc:    4604        .F      MOV      r4,r0
        0x0001bbde:    6800        .h      LDR      r0,[r0,#0]
        0x0001bbe0:    f64b62be    K..b    MOV      r2,#0xbebe
        0x0001bbe4:    f020407e     .~@    BIC      r0,r0,#0xfe000000
        0x0001bbe8:    f2c012be    ....    MOVT     r2,#0x1be
        0x0001bbec:    4290        .B      CMP      r0,r2
        0x0001bbee:    d10b        ..      BNE      0x1bc08 ; am_hal_mspi_highprio_transfer + 48
        0x0001bbf0:    69a0        .i      LDR      r0,[r4,#0x18]
        0x0001bbf2:    b158        X.      CBZ      r0,0x1bc0c ; am_hal_mspi_highprio_transfer + 52
        0x0001bbf4:    f8d40854    ..T.    LDR      r0,[r4,#0x854]
        0x0001bbf8:    b140        @.      CBZ      r0,0x1bc0c ; am_hal_mspi_highprio_transfer + 52
        0x0001bbfa:    6908        .i      LDR      r0,[r1,#0x10]
        0x0001bbfc:    b908        ..      CBNZ     r0,0x1bc02 ; am_hal_mspi_highprio_transfer + 42
        0x0001bbfe:    6948        Hi      LDR      r0,[r1,#0x14]
        0x0001bc00:    b130        0.      CBZ      r0,0x1bc10 ; am_hal_mspi_highprio_transfer + 56
        0x0001bc02:    2006        .       MOVS     r0,#6
        0x0001bc04:    bd10        ..      POP      {r4,pc}
        0x0001bc06:    bf00        ..      NOP      
        0x0001bc08:    2002        .       MOVS     r0,#2
        0x0001bc0a:    bd10        ..      POP      {r4,pc}
        0x0001bc0c:    2007        .       MOVS     r0,#7
        0x0001bc0e:    bd10        ..      POP      {r4,pc}
        0x0001bc10:    7aa0        .z      LDRB     r0,[r4,#0xa]
        0x0001bc12:    f8ddc008    ....    LDR      r12,[sp,#8]
        0x0001bc16:    f00000fe    ....    AND      r0,r0,#0xfe
        0x0001bc1a:    280a        .(      CMP      r0,#0xa
        0x0001bc1c:    d104        ..      BNE      0x1bc28 ; am_hal_mspi_highprio_transfer + 80
        0x0001bc1e:    7a08        .z      LDRB     r0,[r1,#8]
        0x0001bc20:    0780        ..      LSLS     r0,r0,#30
        0x0001bc22:    bf1c        ..      ITT      NE
        0x0001bc24:    2007        .       MOVNE    r0,#7
        0x0001bc26:    bd10        ..      POPNE    {r4,pc}
        0x0001bc28:    4620         F      MOV      r0,r4
        0x0001bc2a:    461a        .F      MOV      r2,r3
        0x0001bc2c:    4663        cF      MOV      r3,r12
        0x0001bc2e:    f002fe71    ..q.    BL       mspi_add_hp_transaction ; 0x1e914
        0x0001bc32:    2800        .(      CMP      r0,#0
        0x0001bc34:    bf18        ..      IT       NE
        0x0001bc36:    bd10        ..      POPNE    {r4,pc}
        0x0001bc38:    f8d40838    ..8.    LDR      r0,[r4,#0x838]
        0x0001bc3c:    b130        0.      CBZ      r0,0x1bc4c ; am_hal_mspi_highprio_transfer + 116
        0x0001bc3e:    f8d40844    ..D.    LDR      r0,[r4,#0x844]
        0x0001bc42:    3001        .0      ADDS     r0,#1
        0x0001bc44:    f8c40844    ..D.    STR      r0,[r4,#0x844]
        0x0001bc48:    2000        .       MOVS     r0,#0
        0x0001bc4a:    bd10        ..      POP      {r4,pc}
        0x0001bc4c:    4620         F      MOV      r0,r4
        0x0001bc4e:    2101        .!      MOVS     r1,#1
        0x0001bc50:    e8bd4010    ...@    POP      {r4,lr}
        0x0001bc54:    f003bc0e    ....    B.W      sched_hiprio ; 0x1f474
    am_hal_mspi_initialize
        0x0001bc58:    b580        ..      PUSH     {r7,lr}
        0x0001bc5a:    2802        .(      CMP      r0,#2
        0x0001bc5c:    bf84        ..      ITT      HI
        0x0001bc5e:    2005        .       MOVHI    r0,#5
        0x0001bc60:    bd80        ..      POPHI    {r7,pc}
        0x0001bc62:    b1f9        ..      CBZ      r1,0x1bca4 ; am_hal_mspi_initialize + 76
        0x0001bc64:    f6426c30    B.0l    MOV      r12,#0x2e30
        0x0001bc68:    f6400ec4    @...    MOV      lr,#0x8c4
        0x0001bc6c:    f2c10c00    ....    MOVT     r12,#0x1000
        0x0001bc70:    fb00f20e    ....    MUL      r2,r0,lr
        0x0001bc74:    f85c2002    \..     LDR      r2,[r12,r2]
        0x0001bc78:    01d3        ..      LSLS     r3,r2,#7
        0x0001bc7a:    bf44        D.      ITT      MI
        0x0001bc7c:    2007        .       MOVMI    r0,#7
        0x0001bc7e:    bd80        ..      POPMI    {r7,pc}
        0x0001bc80:    f64b63be    K..c    MOV      r3,#0xbebe
        0x0001bc84:    fb00cc0e    ....    MLA      r12,r0,lr,r12
        0x0001bc88:    f2c013be    ....    MOVT     r3,#0x1be
        0x0001bc8c:    f3630218    c...    BFI      r2,r3,#0,#25
        0x0001bc90:    e9cc2000    ...     STRD     r2,r0,[r12,#0]
        0x0001bc94:    2000        .       MOVS     r0,#0
        0x0001bc96:    f88c000c    ....    STRB     r0,[r12,#0xc]
        0x0001bc9a:    f8cc0018    ....    STR      r0,[r12,#0x18]
        0x0001bc9e:    f8c1c000    ....    STR      r12,[r1,#0]
        0x0001bca2:    bd80        ..      POP      {r7,pc}
        0x0001bca4:    2006        .       MOVS     r0,#6
        0x0001bca6:    bd80        ..      POP      {r7,pc}
    am_hal_mspi_interrupt_clear
        0x0001bca8:    b190        ..      CBZ      r0,0x1bcd0 ; am_hal_mspi_interrupt_clear + 40
        0x0001bcaa:    6802        .h      LDR      r2,[r0,#0]
        0x0001bcac:    f64b63be    K..c    MOV      r3,#0xbebe
        0x0001bcb0:    f022427e    ".~B    BIC      r2,r2,#0xfe000000
        0x0001bcb4:    f2c013be    ....    MOVT     r3,#0x1be
        0x0001bcb8:    429a        .B      CMP      r2,r3
        0x0001bcba:    d109        ..      BNE      0x1bcd0 ; am_hal_mspi_interrupt_clear + 40
        0x0001bcbc:    6840        @h      LDR      r0,[r0,#4]
        0x0001bcbe:    f2402208    @.."    MOVW     r2,#0x208
        0x0001bcc2:    0300        ..      LSLS     r0,r0,#12
        0x0001bcc4:    f2c40206    ....    MOVT     r2,#0x4006
        0x0001bcc8:    5011        .P      STR      r1,[r2,r0]
        0x0001bcca:    2000        .       MOVS     r0,#0
        0x0001bccc:    4770        pG      BX       lr
        0x0001bcce:    bf00        ..      NOP      
        0x0001bcd0:    2002        .       MOVS     r0,#2
        0x0001bcd2:    4770        pG      BX       lr
    am_hal_mspi_interrupt_disable
        0x0001bcd4:    b1a0        ..      CBZ      r0,0x1bd00 ; am_hal_mspi_interrupt_disable + 44
        0x0001bcd6:    6802        .h      LDR      r2,[r0,#0]
        0x0001bcd8:    f64b63be    K..c    MOV      r3,#0xbebe
        0x0001bcdc:    f022427e    ".~B    BIC      r2,r2,#0xfe000000
        0x0001bce0:    f2c013be    ....    MOVT     r3,#0x1be
        0x0001bce4:    429a        .B      CMP      r2,r3
        0x0001bce6:    d10b        ..      BNE      0x1bd00 ; am_hal_mspi_interrupt_disable + 44
        0x0001bce8:    6840        @h      LDR      r0,[r0,#4]
        0x0001bcea:    f2402200    @.."    MOVW     r2,#0x200
        0x0001bcee:    0300        ..      LSLS     r0,r0,#12
        0x0001bcf0:    f2c40206    ....    MOVT     r2,#0x4006
        0x0001bcf4:    5813        .X      LDR      r3,[r2,r0]
        0x0001bcf6:    ea230101    #...    BIC      r1,r3,r1
        0x0001bcfa:    5011        .P      STR      r1,[r2,r0]
        0x0001bcfc:    2000        .       MOVS     r0,#0
        0x0001bcfe:    4770        pG      BX       lr
        0x0001bd00:    2002        .       MOVS     r0,#2
        0x0001bd02:    4770        pG      BX       lr
    am_hal_mspi_interrupt_enable
        0x0001bd04:    b1a0        ..      CBZ      r0,0x1bd30 ; am_hal_mspi_interrupt_enable + 44
        0x0001bd06:    6802        .h      LDR      r2,[r0,#0]
        0x0001bd08:    f64b63be    K..c    MOV      r3,#0xbebe
        0x0001bd0c:    f022427e    ".~B    BIC      r2,r2,#0xfe000000
        0x0001bd10:    f2c013be    ....    MOVT     r3,#0x1be
        0x0001bd14:    429a        .B      CMP      r2,r3
        0x0001bd16:    d10b        ..      BNE      0x1bd30 ; am_hal_mspi_interrupt_enable + 44
        0x0001bd18:    6840        @h      LDR      r0,[r0,#4]
        0x0001bd1a:    f2402200    @.."    MOVW     r2,#0x200
        0x0001bd1e:    0300        ..      LSLS     r0,r0,#12
        0x0001bd20:    f2c40206    ....    MOVT     r2,#0x4006
        0x0001bd24:    5813        .X      LDR      r3,[r2,r0]
        0x0001bd26:    4319        .C      ORRS     r1,r1,r3
        0x0001bd28:    5011        .P      STR      r1,[r2,r0]
        0x0001bd2a:    2000        .       MOVS     r0,#0
        0x0001bd2c:    4770        pG      BX       lr
        0x0001bd2e:    bf00        ..      NOP      
        0x0001bd30:    2002        .       MOVS     r0,#2
        0x0001bd32:    4770        pG      BX       lr
    am_hal_mspi_interrupt_service
        0x0001bd34:    e92d47f0    -..G    PUSH     {r4-r10,lr}
        0x0001bd38:    b084        ..      SUB      sp,sp,#0x10
        0x0001bd3a:    2800        .(      CMP      r0,#0
        0x0001bd3c:    d04c        L.      BEQ      0x1bdd8 ; am_hal_mspi_interrupt_service + 164
        0x0001bd3e:    4604        .F      MOV      r4,r0
        0x0001bd40:    6800        .h      LDR      r0,[r0,#0]
        0x0001bd42:    460d        .F      MOV      r5,r1
        0x0001bd44:    f64b61be    K..a    MOV      r1,#0xbebe
        0x0001bd48:    f020407e     .~@    BIC      r0,r0,#0xfe000000
        0x0001bd4c:    f2c011be    ....    MOVT     r1,#0x1be
        0x0001bd50:    4288        .B      CMP      r0,r1
        0x0001bd52:    d141        A.      BNE      0x1bdd8 ; am_hal_mspi_interrupt_service + 164
        0x0001bd54:    f8d4a004    ....    LDR      r10,[r4,#4]
        0x0001bd58:    f894083c    ..<.    LDRB     r0,[r4,#0x83c]
        0x0001bd5c:    2800        .(      CMP      r0,#0
        0x0001bd5e:    d03f        ?.      BEQ      0x1bde0 ; am_hal_mspi_interrupt_service + 172
        0x0001bd60:    6a60        `j      LDR      r0,[r4,#0x24]
        0x0001bd62:    4328        (C      ORRS     r0,r0,r5
        0x0001bd64:    f4105fc6    ..._    TST      r0,#0x18c0
        0x0001bd68:    6260        `b      STR      r0,[r4,#0x24]
        0x0001bd6a:    f000807f    ....    BEQ.W    0x1be6c ; am_hal_mspi_interrupt_service + 312
        0x0001bd6e:    f2400800    @...    MOVW     r8,#0
        0x0001bd72:    f2c40806    ....    MOVT     r8,#0x4006
        0x0001bd76:    eb08360a    ...6    ADD      r6,r8,r10,LSL #12
        0x0001bd7a:    f8d61104    ....    LDR      r1,[r6,#0x104]
        0x0001bd7e:    07c9        ..      LSLS     r1,r1,#31
        0x0001bd80:    d00c        ..      BEQ      0x1bd9c ; am_hal_mspi_interrupt_service + 104
        0x0001bd82:    f8d61104    ....    LDR      r1,[r6,#0x104]
        0x0001bd86:    07c9        ..      LSLS     r1,r1,#31
        0x0001bd88:    bf1c        ..      ITT      NE
        0x0001bd8a:    f8d61104    ....    LDRNE    r1,[r6,#0x104]
        0x0001bd8e:    ea5f71c1    _..q    LSLSNE   r1,r1,#31
        0x0001bd92:    d003        ..      BEQ      0x1bd9c ; am_hal_mspi_interrupt_service + 104
        0x0001bd94:    f8d61104    ....    LDR      r1,[r6,#0x104]
        0x0001bd98:    07c9        ..      LSLS     r1,r1,#31
        0x0001bd9a:    d1ee        ..      BNE      0x1bd7a ; am_hal_mspi_interrupt_service + 70
        0x0001bd9c:    f8d61204    ....    LDR      r1,[r6,#0x204]
        0x0001bda0:    4308        .C      ORRS     r0,r0,r1
        0x0001bda2:    6260        `b      STR      r0,[r4,#0x24]
        0x0001bda4:    f04f30ff    O..0    MOV      r0,#0xffffffff
        0x0001bda8:    f8c60208    ....    STR      r0,[r6,#0x208]
        0x0001bdac:    8ca0        ..      LDRH     r0,[r4,#0x24]
        0x0001bdae:    f4105fc4    ..._    TST      r0,#0x1880
        0x0001bdb2:    d05f        _.      BEQ      0x1be74 ; am_hal_mspi_interrupt_service + 320
        0x0001bdb4:    f8d60100    ....    LDR      r0,[r6,#0x100]
        0x0001bdb8:    f04f0901    O...    MOV      r9,#1
        0x0001bdbc:    f0200003     ...    BIC      r0,r0,#3
        0x0001bdc0:    f8c60100    ....    STR      r0,[r6,#0x100]
        0x0001bdc4:    6b30        0k      LDR      r0,[r6,#0x30]
        0x0001bdc6:    f0204080     ..@    BIC      r0,r0,#0x40000000
        0x0001bdca:    6330        0c      STR      r0,[r6,#0x30]
        0x0001bdcc:    6b30        0k      LDR      r0,[r6,#0x30]
        0x0001bdce:    f0404080    @..@    ORR      r0,r0,#0x40000000
        0x0001bdd2:    6330        0c      STR      r0,[r6,#0x30]
        0x0001bdd4:    e050        P.      B        0x1be78 ; am_hal_mspi_interrupt_service + 324
        0x0001bdd6:    bf00        ..      NOP      
        0x0001bdd8:    2002        .       MOVS     r0,#2
        0x0001bdda:    b004        ..      ADD      sp,sp,#0x10
        0x0001bddc:    e8bd87f0    ....    POP      {r4-r10,pc}
        0x0001bde0:    6a20         j      LDR      r0,[r4,#0x20]
        0x0001bde2:    2800        .(      CMP      r0,#0
        0x0001bde4:    d042        B.      BEQ      0x1be6c ; am_hal_mspi_interrupt_service + 312
        0x0001bde6:    f6426030    B.0`    MOV      r0,#0x2e30
        0x0001bdea:    6a62        bj      LDR      r2,[r4,#0x24]
        0x0001bdec:    f2c10000    ....    MOVT     r0,#0x1000
        0x0001bdf0:    f64001c4    @...    MOV      r1,#0x8c4
        0x0001bdf4:    fb0a0901    ....    MLA      r9,r10,r1,r0
        0x0001bdf8:    ea420005    B...    ORR      r0,r2,r5
        0x0001bdfc:    6260        `b      STR      r0,[r4,#0x24]
        0x0001bdfe:    f8d90828    ..(.    LDR      r0,[r9,#0x828]
        0x0001be02:    2800        .(      CMP      r0,#0
        0x0001be04:    f000809d    ....    BEQ.W    0x1bf42 ; am_hal_mspi_interrupt_service + 526
        0x0001be08:    4669        iF      MOV      r1,sp
        0x0001be0a:    f7fdffdf    ....    BL       am_hal_cmdq_get_status ; 0x19dcc
        0x0001be0e:    2800        .(      CMP      r0,#0
        0x0001be10:    f0408097    @...    BNE.W    0x1bf42 ; am_hal_mspi_interrupt_service + 526
        0x0001be14:    f04f0800    O...    MOV      r8,#0
        0x0001be18:    f8848834    ..4.    STRB     r8,[r4,#0x834]
        0x0001be1c:    f8940834    ..4.    LDRB     r0,[r4,#0x834]
        0x0001be20:    2800        .(      CMP      r0,#0
        0x0001be22:    f040808b    @...    BNE.W    0x1bf3c ; am_hal_mspi_interrupt_service + 520
        0x0001be26:    69e0        .i      LDR      r0,[r4,#0x1c]
        0x0001be28:    9900        ..      LDR      r1,[sp,#0]
        0x0001be2a:    4288        .B      CMP      r0,r1
        0x0001be2c:    f0008086    ....    BEQ.W    0x1bf3c ; am_hal_mspi_interrupt_service + 520
        0x0001be30:    3001        .0      ADDS     r0,#1
        0x0001be32:    61e0        .a      STR      r0,[r4,#0x1c]
        0x0001be34:    b2c0        ..      UXTB     r0,r0
        0x0001be36:    eb040680    ....    ADD      r6,r4,r0,LSL #2
        0x0001be3a:    4637        7F      MOV      r7,r6
        0x0001be3c:    f8570f28    W.(.    LDR      r0,[r7,#0x28]!
        0x0001be40:    6a21        !j      LDR      r1,[r4,#0x20]
        0x0001be42:    2800        .(      CMP      r0,#0
        0x0001be44:    f1a10001    ....    SUB      r0,r1,#1
        0x0001be48:    6220         b      STR      r0,[r4,#0x20]
        0x0001be4a:    d0e7        ..      BEQ      0x1be1c ; am_hal_mspi_interrupt_service + 232
        0x0001be4c:    2000        .       MOVS     r0,#0
        0x0001be4e:    2100        .!      MOVS     r1,#0
        0x0001be50:    f7fef9b2    ....    BL       am_hal_daxi_control ; 0x1a1b8
        0x0001be54:    683a        :h      LDR      r2,[r7,#0]
        0x0001be56:    f8d60428    ..(.    LDR      r0,[r6,#0x428]
        0x0001be5a:    2100        .!      MOVS     r1,#0
        0x0001be5c:    4790        .G      BLX      r2
        0x0001be5e:    f894082c    ..,.    LDRB     r0,[r4,#0x82c]
        0x0001be62:    2802        .(      CMP      r0,#2
        0x0001be64:    bf18        ..      IT       NE
        0x0001be66:    f8c78000    ....    STRNE    r8,[r7,#0]
        0x0001be6a:    e7d7        ..      B        0x1be1c ; am_hal_mspi_interrupt_service + 232
        0x0001be6c:    2000        .       MOVS     r0,#0
        0x0001be6e:    b004        ..      ADD      sp,sp,#0x10
        0x0001be70:    e8bd87f0    ....    POP      {r4-r10,pc}
        0x0001be74:    f04f0900    O...    MOV      r9,#0
        0x0001be78:    f8d42850    ..P(    LDR      r2,[r4,#0x850]
        0x0001be7c:    f8d41848    ..H.    LDR      r1,[r4,#0x848]
        0x0001be80:    3201        .2      ADDS     r2,#1
        0x0001be82:    fbb2f7f1    ....    UDIV     r7,r2,r1
        0x0001be86:    f8d40840    ..@.    LDR      r0,[r4,#0x840]
        0x0001be8a:    fb072111    ...!    MLS      r1,r7,r1,r2
        0x0001be8e:    f8d43854    ..T8    LDR      r3,[r4,#0x854]
        0x0001be92:    eb010141    ..A.    ADD      r1,r1,r1,LSL #1
        0x0001be96:    3801        .8      SUBS     r0,#1
        0x0001be98:    eb0305c1    ....    ADD      r5,r3,r1,LSL #3
        0x0001be9c:    f8c42850    ..P(    STR      r2,[r4,#0x850]
        0x0001bea0:    f8c40840    ..@.    STR      r0,[r4,#0x840]
        0x0001bea4:    462f        /F      MOV      r7,r5
        0x0001bea6:    f8571f10    W...    LDR      r1,[r7,#0x10]!
        0x0001beaa:    b169        i.      CBZ      r1,0x1bec8 ; am_hal_mspi_interrupt_service + 404
        0x0001beac:    2000        .       MOVS     r0,#0
        0x0001beae:    2100        .!      MOVS     r1,#0
        0x0001beb0:    f04f0a00    O...    MOV      r10,#0
        0x0001beb4:    f7fef980    ....    BL       am_hal_daxi_control ; 0x1a1b8
        0x0001beb8:    683a        :h      LDR      r2,[r7,#0]
        0x0001beba:    6968        hi      LDR      r0,[r5,#0x14]
        0x0001bebc:    4649        IF      MOV      r1,r9
        0x0001bebe:    4790        .G      BLX      r2
        0x0001bec0:    f8c7a000    ....    STR      r10,[r7,#0]
        0x0001bec4:    f8d40840    ..@.    LDR      r0,[r4,#0x840]
        0x0001bec8:    b330        0.      CBZ      r0,0x1bf18 ; am_hal_mspi_interrupt_service + 484
        0x0001beca:    f8d41850    ..P.    LDR      r1,[r4,#0x850]
        0x0001bece:    f8d42848    ..H(    LDR      r2,[r4,#0x848]
        0x0001bed2:    3101        .1      ADDS     r1,#1
        0x0001bed4:    fbb1f3f2    ....    UDIV     r3,r1,r2
        0x0001bed8:    6867        gh      LDR      r7,[r4,#4]
        0x0001beda:    fb031112    ....    MLS      r1,r3,r2,r1
        0x0001bede:    2000        .       MOVS     r0,#0
        0x0001bee0:    f8d42854    ..T(    LDR      r2,[r4,#0x854]
        0x0001bee4:    eb083307    ...3    ADD      r3,r8,r7,LSL #12
        0x0001bee8:    6260        `b      STR      r0,[r4,#0x24]
        0x0001beea:    eb010141    ..A.    ADD      r1,r1,r1,LSL #1
        0x0001beee:    f8c30100    ....    STR      r0,[r3,#0x100]
        0x0001bef2:    f8527031    R.1p    LDR      r7,[r2,r1,LSL #3]
        0x0001bef6:    eb0201c1    ....    ADD      r1,r2,r1,LSL #3
        0x0001befa:    f8c37108    ...q    STR      r7,[r3,#0x108]
        0x0001befe:    684a        Jh      LDR      r2,[r1,#4]
        0x0001bf00:    f8c3210c    ...!    STR      r2,[r3,#0x10c]
        0x0001bf04:    688a        .h      LDR      r2,[r1,#8]
        0x0001bf06:    f8c32110    ...!    STR      r2,[r3,#0x110]
        0x0001bf0a:    68c9        .h      LDR      r1,[r1,#0xc]
        0x0001bf0c:    f8c31100    ....    STR      r1,[r3,#0x100]
        0x0001bf10:    b004        ..      ADD      sp,sp,#0x10
        0x0001bf12:    e8bd87f0    ....    POP      {r4-r10,pc}
        0x0001bf16:    bf00        ..      NOP      
        0x0001bf18:    2000        .       MOVS     r0,#0
        0x0001bf1a:    f884083c    ..<.    STRB     r0,[r4,#0x83c]
        0x0001bf1e:    f8c60100    ....    STR      r0,[r6,#0x100]
        0x0001bf22:    f8d61200    ....    LDR      r1,[r6,#0x200]
        0x0001bf26:    f0210140    !.@.    BIC      r1,r1,#0x40
        0x0001bf2a:    f8c61200    ....    STR      r1,[r6,#0x200]
        0x0001bf2e:    2180        .!      MOVS     r1,#0x80
        0x0001bf30:    f8c612b4    ....    STR      r1,[r6,#0x2b4]
        0x0001bf34:    b004        ..      ADD      sp,sp,#0x10
        0x0001bf36:    e8bd87f0    ....    POP      {r4-r10,pc}
        0x0001bf3a:    bf00        ..      NOP      
        0x0001bf3c:    f8940834    ..4.    LDRB     r0,[r4,#0x834]
        0x0001bf40:    b180        ..      CBZ      r0,0x1bf64 ; am_hal_mspi_interrupt_service + 560
        0x0001bf42:    6a20         j      LDR      r0,[r4,#0x20]
        0x0001bf44:    b950        P.      CBNZ     r0,0x1bf5c ; am_hal_mspi_interrupt_service + 552
        0x0001bf46:    2000        .       MOVS     r0,#0
        0x0001bf48:    f2c40006    ....    MOVT     r0,#0x4006
        0x0001bf4c:    eb00300a    ...0    ADD      r0,r0,r10,LSL #12
        0x0001bf50:    f8d01100    ....    LDR      r1,[r0,#0x100]
        0x0001bf54:    f0210103    !...    BIC      r1,r1,#3
        0x0001bf58:    f8c01100    ....    STR      r1,[r0,#0x100]
        0x0001bf5c:    2000        .       MOVS     r0,#0
        0x0001bf5e:    b004        ..      ADD      sp,sp,#0x10
        0x0001bf60:    e8bd87f0    ....    POP      {r4-r10,pc}
        0x0001bf64:    f4155fc4    ..._    TST      r5,#0x1880
        0x0001bf68:    d106        ..      BNE      0x1bf78 ; am_hal_mspi_interrupt_service + 580
        0x0001bf6a:    f89d000e    ....    LDRB     r0,[sp,#0xe]
        0x0001bf6e:    b918        ..      CBNZ     r0,0x1bf78 ; am_hal_mspi_interrupt_service + 580
        0x0001bf70:    6a20         j      LDR      r0,[r4,#0x20]
        0x0001bf72:    2800        .(      CMP      r0,#0
        0x0001bf74:    d1f2        ..      BNE      0x1bf5c ; am_hal_mspi_interrupt_service + 552
        0x0001bf76:    e04b        K.      B        0x1c010 ; am_hal_mspi_interrupt_service + 732
        0x0001bf78:    69e0        .i      LDR      r0,[r4,#0x1c]
        0x0001bf7a:    6a21        !j      LDR      r1,[r4,#0x20]
        0x0001bf7c:    3001        .0      ADDS     r0,#1
        0x0001bf7e:    61e0        .a      STR      r0,[r4,#0x1c]
        0x0001bf80:    b2c0        ..      UXTB     r0,r0
        0x0001bf82:    eb040780    ....    ADD      r7,r4,r0,LSL #2
        0x0001bf86:    463d        =F      MOV      r5,r7
        0x0001bf88:    f8550f28    U.(.    LDR      r0,[r5,#0x28]!
        0x0001bf8c:    2800        .(      CMP      r0,#0
        0x0001bf8e:    f1a10001    ....    SUB      r0,r1,#1
        0x0001bf92:    6220         b      STR      r0,[r4,#0x20]
        0x0001bf94:    d010        ..      BEQ      0x1bfb8 ; am_hal_mspi_interrupt_service + 644
        0x0001bf96:    2000        .       MOVS     r0,#0
        0x0001bf98:    2100        .!      MOVS     r1,#0
        0x0001bf9a:    f04f0800    O...    MOV      r8,#0
        0x0001bf9e:    f7fef90b    ....    BL       am_hal_daxi_control ; 0x1a1b8
        0x0001bfa2:    682a        *h      LDR      r2,[r5,#0]
        0x0001bfa4:    f8d70428    ..(.    LDR      r0,[r7,#0x428]
        0x0001bfa8:    2101        .!      MOVS     r1,#1
        0x0001bfaa:    4790        .G      BLX      r2
        0x0001bfac:    f894082c    ..,.    LDRB     r0,[r4,#0x82c]
        0x0001bfb0:    2802        .(      CMP      r0,#2
        0x0001bfb2:    bf18        ..      IT       NE
        0x0001bfb4:    f8c58000    ....    STRNE    r8,[r5,#0]
        0x0001bfb8:    f8d40828    ..(.    LDR      r0,[r4,#0x828]
        0x0001bfbc:    f7fdfe74    ..t.    BL       am_hal_cmdq_disable ; 0x19ca8
        0x0001bfc0:    2800        .(      CMP      r0,#0
        0x0001bfc2:    d1cc        ..      BNE      0x1bf5e ; am_hal_mspi_interrupt_service + 554
        0x0001bfc4:    2000        .       MOVS     r0,#0
        0x0001bfc6:    f2c40006    ....    MOVT     r0,#0x4006
        0x0001bfca:    eb00300a    ...0    ADD      r0,r0,r10,LSL #12
        0x0001bfce:    f8d01100    ....    LDR      r1,[r0,#0x100]
        0x0001bfd2:    f6090228    ..(.    ADD      r2,r9,#0x828
        0x0001bfd6:    f0210103    !...    BIC      r1,r1,#3
        0x0001bfda:    f8c01100    ....    STR      r1,[r0,#0x100]
        0x0001bfde:    6b01        .k      LDR      r1,[r0,#0x30]
        0x0001bfe0:    f0214180    !..A    BIC      r1,r1,#0x40000000
        0x0001bfe4:    6301        .c      STR      r1,[r0,#0x30]
        0x0001bfe6:    6b01        .k      LDR      r1,[r0,#0x30]
        0x0001bfe8:    f0414180    A..A    ORR      r1,r1,#0x40000000
        0x0001bfec:    6301        .c      STR      r1,[r0,#0x30]
        0x0001bfee:    f8d012ac    ....    LDR      r1,[r0,#0x2ac]
        0x0001bff2:    f8c012ac    ....    STR      r1,[r0,#0x2ac]
        0x0001bff6:    6810        .h      LDR      r0,[r2,#0]
        0x0001bff8:    f7fdfe9a    ....    BL       am_hal_cmdq_error_resume ; 0x19d30
        0x0001bffc:    6a20         j      LDR      r0,[r4,#0x20]
        0x0001bffe:    b138        8.      CBZ      r0,0x1c010 ; am_hal_mspi_interrupt_service + 732
        0x0001c000:    f8d40828    ..(.    LDR      r0,[r4,#0x828]
        0x0001c004:    f7fdfe6c    ..l.    BL       am_hal_cmdq_enable ; 0x19ce0
        0x0001c008:    2800        .(      CMP      r0,#0
        0x0001c00a:    d1a8        ..      BNE      0x1bf5e ; am_hal_mspi_interrupt_service + 554
        0x0001c00c:    e7b0        ..      B        0x1bf70 ; am_hal_mspi_interrupt_service + 572
        0x0001c00e:    bf00        ..      NOP      
        0x0001c010:    f8d40828    ..(.    LDR      r0,[r4,#0x828]
        0x0001c014:    f7fdfe48    ..H.    BL       am_hal_cmdq_disable ; 0x19ca8
        0x0001c018:    2800        .(      CMP      r0,#0
        0x0001c01a:    d1a0        ..      BNE      0x1bf5e ; am_hal_mspi_interrupt_service + 554
        0x0001c01c:    e791        ..      B        0x1bf42 ; am_hal_mspi_interrupt_service + 526
        0x0001c01e:    0000        ..      MOVS     r0,r0
    am_hal_mspi_interrupt_status_get
        0x0001c020:    b1c0        ..      CBZ      r0,0x1c054 ; am_hal_mspi_interrupt_status_get + 52
        0x0001c022:    6803        .h      LDR      r3,[r0,#0]
        0x0001c024:    f0234c7e    #.~L    BIC      r12,r3,#0xfe000000
        0x0001c028:    f64b63be    K..c    MOV      r3,#0xbebe
        0x0001c02c:    f2c013be    ....    MOVT     r3,#0x1be
        0x0001c030:    459c        .E      CMP      r12,r3
        0x0001c032:    d10f        ..      BNE      0x1c054 ; am_hal_mspi_interrupt_status_get + 52
        0x0001c034:    6840        @h      LDR      r0,[r0,#4]
        0x0001c036:    2300        .#      MOVS     r3,#0
        0x0001c038:    f2c40306    ....    MOVT     r3,#0x4006
        0x0001c03c:    eb033300    ...3    ADD      r3,r3,r0,LSL #12
        0x0001c040:    f8d30204    ....    LDR      r0,[r3,#0x204]
        0x0001c044:    2a00        .*      CMP      r2,#0
        0x0001c046:    bf1c        ..      ITT      NE
        0x0001c048:    f8d32200    ..."    LDRNE    r2,[r3,#0x200]
        0x0001c04c:    4010        .@      ANDNE    r0,r0,r2
        0x0001c04e:    6008        .`      STR      r0,[r1,#0]
        0x0001c050:    2000        .       MOVS     r0,#0
        0x0001c052:    4770        pG      BX       lr
        0x0001c054:    2002        .       MOVS     r0,#2
        0x0001c056:    4770        pG      BX       lr
    am_hal_mspi_nonblocking_transfer
        0x0001c058:    e92d43f0    -..C    PUSH     {r4-r9,lr}
        0x0001c05c:    b083        ..      SUB      sp,sp,#0xc
        0x0001c05e:    b1a8        ..      CBZ      r0,0x1c08c ; am_hal_mspi_nonblocking_transfer + 52
        0x0001c060:    4604        .F      MOV      r4,r0
        0x0001c062:    6800        .h      LDR      r0,[r0,#0]
        0x0001c064:    460f        .F      MOV      r7,r1
        0x0001c066:    f64b61be    K..a    MOV      r1,#0xbebe
        0x0001c06a:    f020407e     .~@    BIC      r0,r0,#0xfe000000
        0x0001c06e:    f2c011be    ....    MOVT     r1,#0x1be
        0x0001c072:    4288        .B      CMP      r0,r1
        0x0001c074:    d10a        ..      BNE      0x1c08c ; am_hal_mspi_nonblocking_transfer + 52
        0x0001c076:    69a0        .i      LDR      r0,[r4,#0x18]
        0x0001c078:    b1c0        ..      CBZ      r0,0x1c0ac ; am_hal_mspi_nonblocking_transfer + 84
        0x0001c07a:    f894082c    ..,.    LDRB     r0,[r4,#0x82c]
        0x0001c07e:    2802        .(      CMP      r0,#2
        0x0001c080:    d10a        ..      BNE      0x1c098 ; am_hal_mspi_nonblocking_transfer + 64
        0x0001c082:    2607        .&      MOVS     r6,#7
        0x0001c084:    4630        0F      MOV      r0,r6
        0x0001c086:    b003        ..      ADD      sp,sp,#0xc
        0x0001c088:    e8bd83f0    ....    POP      {r4-r9,pc}
        0x0001c08c:    2602        .&      MOVS     r6,#2
        0x0001c08e:    4630        0F      MOV      r0,r6
        0x0001c090:    b003        ..      ADD      sp,sp,#0xc
        0x0001c092:    e8bd83f0    ....    POP      {r4-r9,pc}
        0x0001c096:    bf00        ..      NOP      
        0x0001c098:    7aa1        .z      LDRB     r1,[r4,#0xa]
        0x0001c09a:    4698        .F      MOV      r8,r3
        0x0001c09c:    f00101fe    ....    AND      r1,r1,#0xfe
        0x0001c0a0:    4615        .F      MOV      r5,r2
        0x0001c0a2:    290a        .)      CMP      r1,#0xa
        0x0001c0a4:    d108        ..      BNE      0x1c0b8 ; am_hal_mspi_nonblocking_transfer + 96
        0x0001c0a6:    7a39        9z      LDRB     r1,[r7,#8]
        0x0001c0a8:    0789        ..      LSLS     r1,r1,#30
        0x0001c0aa:    d005        ..      BEQ      0x1c0b8 ; am_hal_mspi_nonblocking_transfer + 96
        0x0001c0ac:    2607        .&      MOVS     r6,#7
        0x0001c0ae:    4630        0F      MOV      r0,r6
        0x0001c0b0:    b003        ..      ADD      sp,sp,#0xc
        0x0001c0b2:    e8bd83f0    ....    POP      {r4-r9,pc}
        0x0001c0b6:    bf00        ..      NOP      
        0x0001c0b8:    f1b80f00    ....    CMP      r8,#0
        0x0001c0bc:    46c1        .F      MOV      r9,r8
        0x0001c0be:    d113        ..      BNE      0x1c0e8 ; am_hal_mspi_nonblocking_transfer + 144
        0x0001c0c0:    f8d41838    ..8.    LDR      r1,[r4,#0x838]
        0x0001c0c4:    4308        .C      ORRS     r0,r0,r1
        0x0001c0c6:    d10d        ..      BNE      0x1c0e4 ; am_hal_mspi_nonblocking_transfer + 140
        0x0001c0c8:    f8d40858    ..X.    LDR      r0,[r4,#0x858]
        0x0001c0cc:    f8d4185c    ..\.    LDR      r1,[r4,#0x85c]
        0x0001c0d0:    f64e5989    N..Y    MOV      r9,#0xed89
        0x0001c0d4:    f2c00901    ....    MOVT     r9,#1
        0x0001c0d8:    ebb10f50    ..P.    CMP      r1,r0,LSR #1
        0x0001c0dc:    bf38        8.      IT       CC
        0x0001c0de:    f04f0900    O...    MOVCC    r9,#0
        0x0001c0e2:    e001        ..      B        0x1c0e8 ; am_hal_mspi_nonblocking_transfer + 144
        0x0001c0e4:    f04f0900    O...    MOV      r9,#0
        0x0001c0e8:    6a20         j      LDR      r0,[r4,#0x20]
        0x0001c0ea:    f5b07f80    ....    CMP      r0,#0x100
        0x0001c0ee:    d105        ..      BNE      0x1c0fc ; am_hal_mspi_nonblocking_transfer + 164
        0x0001c0f0:    2605        .&      MOVS     r6,#5
        0x0001c0f2:    4630        0F      MOV      r0,r6
        0x0001c0f4:    b003        ..      ADD      sp,sp,#0xc
        0x0001c0f6:    e8bd83f0    ....    POP      {r4-r9,pc}
        0x0001c0fa:    bf00        ..      NOP      
        0x0001c0fc:    1e68        h.      SUBS     r0,r5,#1
        0x0001c0fe:    fab0f080    ....    CLZ      r0,r0
        0x0001c102:    0940        @.      LSRS     r0,r0,#5
        0x0001c104:    00c1        ..      LSLS     r1,r0,#3
        0x0001c106:    f8d40828    ..(.    LDR      r0,[r4,#0x828]
        0x0001c10a:    aa02        ..      ADD      r2,sp,#8
        0x0001c10c:    ab01        ..      ADD      r3,sp,#4
        0x0001c10e:    2d00        .-      CMP      r5,#0
        0x0001c110:    bf08        ..      IT       EQ
        0x0001c112:    2103        .!      MOVEQ    r1,#3
        0x0001c114:    f7fdfd60    ..`.    BL       am_hal_cmdq_alloc_block ; 0x19bd8
        0x0001c118:    4606        .F      MOV      r6,r0
        0x0001c11a:    2800        .(      CMP      r0,#0
        0x0001c11c:    d1b2        ..      BNE      0x1c084 ; am_hal_mspi_nonblocking_transfer + 44
        0x0001c11e:    9a02        ..      LDR      r2,[sp,#8]
        0x0001c120:    4620         F      MOV      r0,r4
        0x0001c122:    4629        )F      MOV      r1,r5
        0x0001c124:    463b        ;F      MOV      r3,r7
        0x0001c126:    f001fb6d    ..m.    BL       build_dma_cmdlist ; 0x1d804
        0x0001c12a:    b148        H.      CBZ      r0,0x1c140 ; am_hal_mspi_nonblocking_transfer + 232
        0x0001c12c:    4606        .F      MOV      r6,r0
        0x0001c12e:    f8d40828    ..(.    LDR      r0,[r4,#0x828]
        0x0001c132:    f7fdff61    ..a.    BL       am_hal_cmdq_release_block ; 0x19ff8
        0x0001c136:    4630        0F      MOV      r0,r6
        0x0001c138:    b003        ..      ADD      sp,sp,#0xc
        0x0001c13a:    e8bd83f0    ....    POP      {r4-r9,pc}
        0x0001c13e:    bf00        ..      NOP      
        0x0001c140:    f89d0004    ....    LDRB     r0,[sp,#4]
        0x0001c144:    990a        ..      LDR      r1,[sp,#0x28]
        0x0001c146:    eb040080    ....    ADD      r0,r4,r0,LSL #2
        0x0001c14a:    f8c09028    ..(.    STR      r9,[r0,#0x28]
        0x0001c14e:    f8c01428    ..(.    STR      r1,[r0,#0x428]
        0x0001c152:    f7fefa9d    ....    BL       am_hal_interrupt_master_disable ; 0x1a690
        0x0001c156:    4606        .F      MOV      r6,r0
        0x0001c158:    f8d40828    ..(.    LDR      r0,[r4,#0x828]
        0x0001c15c:    4649        IF      MOV      r1,r9
        0x0001c15e:    f1b90f00    ....    CMP      r9,#0
        0x0001c162:    bf18        ..      IT       NE
        0x0001c164:    2101        .!      MOVNE    r1,#1
        0x0001c166:    f7fdfedf    ....    BL       am_hal_cmdq_post_block ; 0x19f28
        0x0001c16a:    4605        .F      MOV      r5,r0
        0x0001c16c:    b140        @.      CBZ      r0,0x1c180 ; am_hal_mspi_nonblocking_transfer + 296
        0x0001c16e:    4630        0F      MOV      r0,r6
        0x0001c170:    f7fefa96    ....    BL       am_hal_interrupt_master_set ; 0x1a6a0
        0x0001c174:    f8d40828    ..(.    LDR      r0,[r4,#0x828]
        0x0001c178:    f7fdff3e    ..>.    BL       am_hal_cmdq_release_block ; 0x19ff8
        0x0001c17c:    e01f        ..      B        0x1c1be ; am_hal_mspi_nonblocking_transfer + 358
        0x0001c17e:    bf00        ..      NOP      
        0x0001c180:    6a27        'j      LDR      r7,[r4,#0x20]
        0x0001c182:    f8d41830    ..0.    LDR      r1,[r4,#0x830]
        0x0001c186:    1c78        x.      ADDS     r0,r7,#1
        0x0001c188:    6220         b      STR      r0,[r4,#0x20]
        0x0001c18a:    1c48        H.      ADDS     r0,r1,#1
        0x0001c18c:    f1b80f00    ....    CMP      r8,#0
        0x0001c190:    f8c40830    ..0.    STR      r0,[r4,#0x830]
        0x0001c194:    d004        ..      BEQ      0x1c1a0 ; am_hal_mspi_nonblocking_transfer + 328
        0x0001c196:    2000        .       MOVS     r0,#0
        0x0001c198:    f884082d    ..-.    STRB     r0,[r4,#0x82d]
        0x0001c19c:    e009        ..      B        0x1c1b2 ; am_hal_mspi_nonblocking_transfer + 346
        0x0001c19e:    bf00        ..      NOP      
        0x0001c1a0:    f1b90f00    ....    CMP      r9,#0
        0x0001c1a4:    d002        ..      BEQ      0x1c1ac ; am_hal_mspi_nonblocking_transfer + 340
        0x0001c1a6:    2000        .       MOVS     r0,#0
        0x0001c1a8:    e003        ..      B        0x1c1b2 ; am_hal_mspi_nonblocking_transfer + 346
        0x0001c1aa:    bf00        ..      NOP      
        0x0001c1ac:    f8d4085c    ..\.    LDR      r0,[r4,#0x85c]
        0x0001c1b0:    3001        .0      ADDS     r0,#1
        0x0001c1b2:    f8c4085c    ..\.    STR      r0,[r4,#0x85c]
        0x0001c1b6:    4630        0F      MOV      r0,r6
        0x0001c1b8:    f7fefa72    ..r.    BL       am_hal_interrupt_master_set ; 0x1a6a0
        0x0001c1bc:    b127        '.      CBZ      r7,0x1c1c8 ; am_hal_mspi_nonblocking_transfer + 368
        0x0001c1be:    462e        .F      MOV      r6,r5
        0x0001c1c0:    4630        0F      MOV      r0,r6
        0x0001c1c2:    b003        ..      ADD      sp,sp,#0xc
        0x0001c1c4:    e8bd83f0    ....    POP      {r4-r9,pc}
        0x0001c1c8:    f8d40828    ..(.    LDR      r0,[r4,#0x828]
        0x0001c1cc:    f7fdfd88    ....    BL       am_hal_cmdq_enable ; 0x19ce0
        0x0001c1d0:    4606        .F      MOV      r6,r0
        0x0001c1d2:    2800        .(      CMP      r0,#0
        0x0001c1d4:    bf08        ..      IT       EQ
        0x0001c1d6:    462e        .F      MOVEQ    r6,r5
        0x0001c1d8:    4630        0F      MOV      r0,r6
        0x0001c1da:    b003        ..      ADD      sp,sp,#0xc
        0x0001c1dc:    e8bd83f0    ....    POP      {r4-r9,pc}
    am_hal_mspi_power_control
        0x0001c1e0:    b570        p.      PUSH     {r4-r6,lr}
        0x0001c1e2:    b1a8        ..      CBZ      r0,0x1c210 ; am_hal_mspi_power_control + 48
        0x0001c1e4:    4604        .F      MOV      r4,r0
        0x0001c1e6:    6800        .h      LDR      r0,[r0,#0]
        0x0001c1e8:    f64b65be    K..e    MOV      r5,#0xbebe
        0x0001c1ec:    f2c015be    ....    MOVT     r5,#0x1be
        0x0001c1f0:    f020437e     .~C    BIC      r3,r0,#0xfe000000
        0x0001c1f4:    42ab        .B      CMP      r3,r5
        0x0001c1f6:    d10b        ..      BNE      0x1c210 ; am_hal_mspi_power_control + 48
        0x0001c1f8:    1e4b        K.      SUBS     r3,r1,#1
        0x0001c1fa:    2b02        .+      CMP      r3,#2
        0x0001c1fc:    d20a        ..      BCS      0x1c214 ; am_hal_mspi_power_control + 52
        0x0001c1fe:    f8d41840    ..@.    LDR      r1,[r4,#0x840]
        0x0001c202:    b919        ..      CBNZ     r1,0x1c20c ; am_hal_mspi_power_control + 44
        0x0001c204:    6a21        !j      LDR      r1,[r4,#0x20]
        0x0001c206:    2900        .)      CMP      r1,#0
        0x0001c208:    f00080cc    ....    BEQ.W    0x1c3a4 ; am_hal_mspi_power_control + 452
        0x0001c20c:    2003        .       MOVS     r0,#3
        0x0001c20e:    bd70        p.      POP      {r4-r6,pc}
        0x0001c210:    2002        .       MOVS     r0,#2
        0x0001c212:    bd70        p.      POP      {r4-r6,pc}
        0x0001c214:    2900        .)      CMP      r1,#0
        0x0001c216:    bf1c        ..      ITT      NE
        0x0001c218:    2006        .       MOVNE    r0,#6
        0x0001c21a:    bd70        p.      POPNE    {r4-r6,pc}
        0x0001c21c:    2a00        .*      CMP      r2,#0
        0x0001c21e:    f00080b7    ....    BEQ.W    0x1c390 ; am_hal_mspi_power_control + 432
        0x0001c222:    f8940860    ..`.    LDRB     r0,[r4,#0x860]
        0x0001c226:    2800        .(      CMP      r0,#0
        0x0001c228:    f00080ba    ....    BEQ.W    0x1c3a0 ; am_hal_mspi_power_control + 448
        0x0001c22c:    7920         y      LDRB     r0,[r4,#4]
        0x0001c22e:    300e        .0      ADDS     r0,r0,#0xe
        0x0001c230:    b2c0        ..      UXTB     r0,r0
        0x0001c232:    f000fc27    ..'.    BL       am_hal_pwrctrl_periph_enable ; 0x1ca84
        0x0001c236:    6862        bh      LDR      r2,[r4,#4]
        0x0001c238:    2000        .       MOVS     r0,#0
        0x0001c23a:    f8d41864    ..d.    LDR      r1,[r4,#0x864]
        0x0001c23e:    f2c40006    ....    MOVT     r0,#0x4006
        0x0001c242:    eb003202    ...2    ADD      r2,r0,r2,LSL #12
        0x0001c246:    f8c21080    ....    STR      r1,[r2,#0x80]
        0x0001c24a:    6861        ah      LDR      r1,[r4,#4]
        0x0001c24c:    f8d42868    ..h(    LDR      r2,[r4,#0x868]
        0x0001c250:    eb003101    ...1    ADD      r1,r0,r1,LSL #12
        0x0001c254:    f8c12084    ...     STR      r2,[r1,#0x84]
        0x0001c258:    6861        ah      LDR      r1,[r4,#4]
        0x0001c25a:    f8d4286c    ..l(    LDR      r2,[r4,#0x86c]
        0x0001c25e:    eb003101    ...1    ADD      r1,r0,r1,LSL #12
        0x0001c262:    f8c12088    ...     STR      r2,[r1,#0x88]
        0x0001c266:    6861        ah      LDR      r1,[r4,#4]
        0x0001c268:    f8d42870    ..p(    LDR      r2,[r4,#0x870]
        0x0001c26c:    eb003101    ...1    ADD      r1,r0,r1,LSL #12
        0x0001c270:    f8c1208c    ...     STR      r2,[r1,#0x8c]
        0x0001c274:    6861        ah      LDR      r1,[r4,#4]
        0x0001c276:    f8d42874    ..t(    LDR      r2,[r4,#0x874]
        0x0001c27a:    eb003101    ...1    ADD      r1,r0,r1,LSL #12
        0x0001c27e:    f8c12090    ...     STR      r2,[r1,#0x90]
        0x0001c282:    6861        ah      LDR      r1,[r4,#4]
        0x0001c284:    f8d42878    ..x(    LDR      r2,[r4,#0x878]
        0x0001c288:    eb003101    ...1    ADD      r1,r0,r1,LSL #12
        0x0001c28c:    f8c12094    ...     STR      r2,[r1,#0x94]
        0x0001c290:    6861        ah      LDR      r1,[r4,#4]
        0x0001c292:    f8d4287c    ..|(    LDR      r2,[r4,#0x87c]
        0x0001c296:    eb003101    ...1    ADD      r1,r0,r1,LSL #12
        0x0001c29a:    f8c12098    ...     STR      r2,[r1,#0x98]
        0x0001c29e:    6861        ah      LDR      r1,[r4,#4]
        0x0001c2a0:    f8d42880    ...(    LDR      r2,[r4,#0x880]
        0x0001c2a4:    eb003101    ...1    ADD      r1,r0,r1,LSL #12
        0x0001c2a8:    f8c1209c    ...     STR      r2,[r1,#0x9c]
        0x0001c2ac:    6861        ah      LDR      r1,[r4,#4]
        0x0001c2ae:    f8d42884    ...(    LDR      r2,[r4,#0x884]
        0x0001c2b2:    eb003101    ...1    ADD      r1,r0,r1,LSL #12
        0x0001c2b6:    f8c120a0    ...     STR      r2,[r1,#0xa0]
        0x0001c2ba:    6861        ah      LDR      r1,[r4,#4]
        0x0001c2bc:    f8d42888    ...(    LDR      r2,[r4,#0x888]
        0x0001c2c0:    eb003101    ...1    ADD      r1,r0,r1,LSL #12
        0x0001c2c4:    630a        .c      STR      r2,[r1,#0x30]
        0x0001c2c6:    6861        ah      LDR      r1,[r4,#4]
        0x0001c2c8:    f8d4288c    ...(    LDR      r2,[r4,#0x88c]
        0x0001c2cc:    eb003101    ...1    ADD      r1,r0,r1,LSL #12
        0x0001c2d0:    644a        Jd      STR      r2,[r1,#0x44]
        0x0001c2d2:    6861        ah      LDR      r1,[r4,#4]
        0x0001c2d4:    f8d42890    ...(    LDR      r2,[r4,#0x890]
        0x0001c2d8:    eb003101    ...1    ADD      r1,r0,r1,LSL #12
        0x0001c2dc:    648a        .d      STR      r2,[r1,#0x48]
        0x0001c2de:    6861        ah      LDR      r1,[r4,#4]
        0x0001c2e0:    f8d42894    ...(    LDR      r2,[r4,#0x894]
        0x0001c2e4:    eb003101    ...1    ADD      r1,r0,r1,LSL #12
        0x0001c2e8:    64ca        .d      STR      r2,[r1,#0x4c]
        0x0001c2ea:    6861        ah      LDR      r1,[r4,#4]
        0x0001c2ec:    f8d4289c    ...(    LDR      r2,[r4,#0x89c]
        0x0001c2f0:    eb003101    ...1    ADD      r1,r0,r1,LSL #12
        0x0001c2f4:    f8c122a8    ..."    STR      r2,[r1,#0x2a8]
        0x0001c2f8:    6861        ah      LDR      r1,[r4,#4]
        0x0001c2fa:    f8d428a0    ...(    LDR      r2,[r4,#0x8a0]
        0x0001c2fe:    eb003101    ...1    ADD      r1,r0,r1,LSL #12
        0x0001c302:    f8c122b8    ..."    STR      r2,[r1,#0x2b8]
        0x0001c306:    6861        ah      LDR      r1,[r4,#4]
        0x0001c308:    f8d428a4    ...(    LDR      r2,[r4,#0x8a4]
        0x0001c30c:    eb003101    ...1    ADD      r1,r0,r1,LSL #12
        0x0001c310:    f8c122c0    ..."    STR      r2,[r1,#0x2c0]
        0x0001c314:    6861        ah      LDR      r1,[r4,#4]
        0x0001c316:    f8d428a8    ...(    LDR      r2,[r4,#0x8a8]
        0x0001c31a:    eb003101    ...1    ADD      r1,r0,r1,LSL #12
        0x0001c31e:    f8c122c4    ..."    STR      r2,[r1,#0x2c4]
        0x0001c322:    6861        ah      LDR      r1,[r4,#4]
        0x0001c324:    f8d428ac    ...(    LDR      r2,[r4,#0x8ac]
        0x0001c328:    eb003101    ...1    ADD      r1,r0,r1,LSL #12
        0x0001c32c:    f8c12200    ..."    STR      r2,[r1,#0x200]
        0x0001c330:    6861        ah      LDR      r1,[r4,#4]
        0x0001c332:    f89428b0    ...(    LDRB     r2,[r4,#0x8b0]
        0x0001c336:    eb003101    ...1    ADD      r1,r0,r1,LSL #12
        0x0001c33a:    f8c122b4    ..."    STR      r2,[r1,#0x2b4]
        0x0001c33e:    6861        ah      LDR      r1,[r4,#4]
        0x0001c340:    f8d428b4    ...(    LDR      r2,[r4,#0x8b4]
        0x0001c344:    eb003101    ...1    ADD      r1,r0,r1,LSL #12
        0x0001c348:    f8c12114    ...!    STR      r2,[r1,#0x114]
        0x0001c34c:    6861        ah      LDR      r1,[r4,#4]
        0x0001c34e:    f8d428b8    ...(    LDR      r2,[r4,#0x8b8]
        0x0001c352:    eb003101    ...1    ADD      r1,r0,r1,LSL #12
        0x0001c356:    f8c12118    ...!    STR      r2,[r1,#0x118]
        0x0001c35a:    6861        ah      LDR      r1,[r4,#4]
        0x0001c35c:    f8d428bc    ...(    LDR      r2,[r4,#0x8bc]
        0x0001c360:    eb003101    ...1    ADD      r1,r0,r1,LSL #12
        0x0001c364:    620a        .b      STR      r2,[r1,#0x20]
        0x0001c366:    f8d41898    ....    LDR      r1,[r4,#0x898]
        0x0001c36a:    6862        bh      LDR      r2,[r4,#4]
        0x0001c36c:    f0210101    !...    BIC      r1,r1,#1
        0x0001c370:    eb003002    ...0    ADD      r0,r0,r2,LSL #12
        0x0001c374:    f8c012a0    ....    STR      r1,[r0,#0x2a0]
        0x0001c378:    f8940898    ....    LDRB     r0,[r4,#0x898]
        0x0001c37c:    07c0        ..      LSLS     r0,r0,#31
        0x0001c37e:    d003        ..      BEQ      0x1c388 ; am_hal_mspi_power_control + 424
        0x0001c380:    f8d40828    ..(.    LDR      r0,[r4,#0x828]
        0x0001c384:    f7fdfcac    ....    BL       am_hal_cmdq_enable ; 0x19ce0
        0x0001c388:    2000        .       MOVS     r0,#0
        0x0001c38a:    f8840860    ..`.    STRB     r0,[r4,#0x860]
        0x0001c38e:    bd70        p.      POP      {r4-r6,pc}
        0x0001c390:    7920         y      LDRB     r0,[r4,#4]
        0x0001c392:    300e        .0      ADDS     r0,r0,#0xe
        0x0001c394:    b2c0        ..      UXTB     r0,r0
        0x0001c396:    f000fb75    ..u.    BL       am_hal_pwrctrl_periph_enable ; 0x1ca84
        0x0001c39a:    2000        .       MOVS     r0,#0
        0x0001c39c:    bd70        p.      POP      {r4-r6,pc}
        0x0001c39e:    bf00        ..      NOP      
        0x0001c3a0:    2007        .       MOVS     r0,#7
        0x0001c3a2:    bd70        p.      POP      {r4-r6,pc}
        0x0001c3a4:    2600        .&      MOVS     r6,#0
        0x0001c3a6:    2a00        .*      CMP      r2,#0
        0x0001c3a8:    f2c40606    ....    MOVT     r6,#0x4006
        0x0001c3ac:    d065        e.      BEQ      0x1c47a ; am_hal_mspi_power_control + 666
        0x0001c3ae:    6860        `h      LDR      r0,[r4,#4]
        0x0001c3b0:    eb063000    ...0    ADD      r0,r6,r0,LSL #12
        0x0001c3b4:    f8d01080    ....    LDR      r1,[r0,#0x80]
        0x0001c3b8:    f8c41864    ..d.    STR      r1,[r4,#0x864]
        0x0001c3bc:    f8d01084    ....    LDR      r1,[r0,#0x84]
        0x0001c3c0:    f8c41868    ..h.    STR      r1,[r4,#0x868]
        0x0001c3c4:    f8d01088    ....    LDR      r1,[r0,#0x88]
        0x0001c3c8:    f8c4186c    ..l.    STR      r1,[r4,#0x86c]
        0x0001c3cc:    f8d0108c    ....    LDR      r1,[r0,#0x8c]
        0x0001c3d0:    f8c41870    ..p.    STR      r1,[r4,#0x870]
        0x0001c3d4:    f8d01090    ....    LDR      r1,[r0,#0x90]
        0x0001c3d8:    f8c41874    ..t.    STR      r1,[r4,#0x874]
        0x0001c3dc:    f8d01094    ....    LDR      r1,[r0,#0x94]
        0x0001c3e0:    f8c41878    ..x.    STR      r1,[r4,#0x878]
        0x0001c3e4:    f8d01098    ....    LDR      r1,[r0,#0x98]
        0x0001c3e8:    f8c4187c    ..|.    STR      r1,[r4,#0x87c]
        0x0001c3ec:    f8d0109c    ....    LDR      r1,[r0,#0x9c]
        0x0001c3f0:    f8c41880    ....    STR      r1,[r4,#0x880]
        0x0001c3f4:    f8d010a0    ....    LDR      r1,[r0,#0xa0]
        0x0001c3f8:    f8c41884    ....    STR      r1,[r4,#0x884]
        0x0001c3fc:    6b01        .k      LDR      r1,[r0,#0x30]
        0x0001c3fe:    f8c41888    ....    STR      r1,[r4,#0x888]
        0x0001c402:    6c41        Al      LDR      r1,[r0,#0x44]
        0x0001c404:    f8c4188c    ....    STR      r1,[r4,#0x88c]
        0x0001c408:    6c81        .l      LDR      r1,[r0,#0x48]
        0x0001c40a:    f8c41890    ....    STR      r1,[r4,#0x890]
        0x0001c40e:    6cc1        .l      LDR      r1,[r0,#0x4c]
        0x0001c410:    f8c41894    ....    STR      r1,[r4,#0x894]
        0x0001c414:    f8d012a8    ....    LDR      r1,[r0,#0x2a8]
        0x0001c418:    f8c4189c    ....    STR      r1,[r4,#0x89c]
        0x0001c41c:    f8d012b8    ....    LDR      r1,[r0,#0x2b8]
        0x0001c420:    f8c418a0    ....    STR      r1,[r4,#0x8a0]
        0x0001c424:    f8d012c0    ....    LDR      r1,[r0,#0x2c0]
        0x0001c428:    f8c418a4    ....    STR      r1,[r4,#0x8a4]
        0x0001c42c:    f8d012c4    ....    LDR      r1,[r0,#0x2c4]
        0x0001c430:    f8c418a8    ....    STR      r1,[r4,#0x8a8]
        0x0001c434:    f8d01200    ....    LDR      r1,[r0,#0x200]
        0x0001c438:    f8c418ac    ....    STR      r1,[r4,#0x8ac]
        0x0001c43c:    f8d012b0    ....    LDR      r1,[r0,#0x2b0]
        0x0001c440:    f8c418b0    ....    STR      r1,[r4,#0x8b0]
        0x0001c444:    f8d01114    ....    LDR      r1,[r0,#0x114]
        0x0001c448:    f8c418b4    ....    STR      r1,[r4,#0x8b4]
        0x0001c44c:    f8d01118    ....    LDR      r1,[r0,#0x118]
        0x0001c450:    f8c418b8    ....    STR      r1,[r4,#0x8b8]
        0x0001c454:    6a01        .j      LDR      r1,[r0,#0x20]
        0x0001c456:    f8c418bc    ....    STR      r1,[r4,#0x8bc]
        0x0001c45a:    f8d012a0    ....    LDR      r1,[r0,#0x2a0]
        0x0001c45e:    f8c41898    ....    STR      r1,[r4,#0x898]
        0x0001c462:    f8d002a0    ....    LDR      r0,[r0,#0x2a0]
        0x0001c466:    07c0        ..      LSLS     r0,r0,#31
        0x0001c468:    d003        ..      BEQ      0x1c472 ; am_hal_mspi_power_control + 658
        0x0001c46a:    f8d40828    ..(.    LDR      r0,[r4,#0x828]
        0x0001c46e:    f7fdfc1b    ....    BL       am_hal_cmdq_disable ; 0x19ca8
        0x0001c472:    6820         h      LDR      r0,[r4,#0]
        0x0001c474:    2101        .!      MOVS     r1,#1
        0x0001c476:    f8841860    ..`.    STRB     r1,[r4,#0x860]
        0x0001c47a:    f020407e     .~@    BIC      r0,r0,#0xfe000000
        0x0001c47e:    42a8        .B      CMP      r0,r5
        0x0001c480:    d109        ..      BNE      0x1c496 ; am_hal_mspi_power_control + 694
        0x0001c482:    6860        `h      LDR      r0,[r4,#4]
        0x0001c484:    f64172ff    A..r    MOV      r2,#0x1fff
        0x0001c488:    eb063000    ...0    ADD      r0,r6,r0,LSL #12
        0x0001c48c:    f8d01200    ....    LDR      r1,[r0,#0x200]
        0x0001c490:    4391        .C      BICS     r1,r1,r2
        0x0001c492:    f8c01200    ....    STR      r1,[r0,#0x200]
        0x0001c496:    6860        `h      LDR      r0,[r4,#4]
        0x0001c498:    eb063100    ...1    ADD      r1,r6,r0,LSL #12
        0x0001c49c:    f8d11090    ....    LDR      r1,[r1,#0x90]
        0x0001c4a0:    07c9        ..      LSLS     r1,r1,#31
        0x0001c4a2:    d004        ..      BEQ      0x1c4ae ; am_hal_mspi_power_control + 718
        0x0001c4a4:    2001        .       MOVS     r0,#1
        0x0001c4a6:    2100        .!      MOVS     r1,#0
        0x0001c4a8:    f7fdfe86    ....    BL       am_hal_daxi_control ; 0x1a1b8
        0x0001c4ac:    6860        `h      LDR      r0,[r4,#4]
        0x0001c4ae:    300e        .0      ADDS     r0,r0,#0xe
        0x0001c4b0:    b2c0        ..      UXTB     r0,r0
        0x0001c4b2:    f000fa4f    ..O.    BL       am_hal_pwrctrl_periph_disable ; 0x1c954
        0x0001c4b6:    2000        .       MOVS     r0,#0
        0x0001c4b8:    bd70        p.      POP      {r4-r6,pc}
        0x0001c4ba:    0000        ..      MOVS     r0,r0
    am_hal_pwrctrl_control
        0x0001c4bc:    b5b0        ..      PUSH     {r4,r5,r7,lr}
        0x0001c4be:    2804        .(      CMP      r0,#4
        0x0001c4c0:    d84d        M.      BHI      0x1c55e ; am_hal_pwrctrl_control + 162
        0x0001c4c2:    e8dff000    ....    TBB      [pc,r0]
    $d.22
        0x0001c4c6:    1d03        ..      DCW    7427
        0x0001c4c8:    00453d2d    -=E.    DCD    4537645
    $t.23
        0x0001c4cc:    f2400418    @...    MOVW     r4,#0x18
        0x0001c4d0:    f2c10400    ....    MOVT     r4,#0x1000
        0x0001c4d4:    6820         h      LDR      r0,[r4,#0]
        0x0001c4d6:    2560        `%      MOVS     r5,#0x60
        0x0001c4d8:    1c41        A.      ADDS     r1,r0,#1
        0x0001c4da:    f2c40502    ....    MOVT     r5,#0x4002
        0x0001c4de:    d10a        ..      BNE      0x1c4f6 ; am_hal_pwrctrl_control + 58
        0x0001c4e0:    2001        .       MOVS     r0,#1
        0x0001c4e2:    f24041c4    @..A    MOV      r1,#0x4c4
        0x0001c4e6:    2201        ."      MOVS     r2,#1
        0x0001c4e8:    4623        #F      MOV      r3,r4
        0x0001c4ea:    f7fef9a5    ....    BL       am_hal_mram_info_read ; 0x1a838
        0x0001c4ee:    bbc8        ..      CBNZ     r0,0x1c564 ; am_hal_pwrctrl_control + 168
        0x0001c4f0:    6820         h      LDR      r0,[r4,#0]
        0x0001c4f2:    1c41        A.      ADDS     r1,r0,#1
        0x0001c4f4:    d036        6.      BEQ      0x1c564 ; am_hal_pwrctrl_control + 168
        0x0001c4f6:    2802        .(      CMP      r0,#2
        0x0001c4f8:    d936        6.      BLS      0x1c568 ; am_hal_pwrctrl_control + 172
        0x0001c4fa:    2100        .!      MOVS     r1,#0
        0x0001c4fc:    e067        g.      B        0x1c5ce ; am_hal_pwrctrl_control + 274
        0x0001c4fe:    bf00        ..      NOP      
        0x0001c500:    f2411000    A...    MOVW     r0,#0x1100
        0x0001c504:    f2c40002    ....    MOVT     r0,#0x4002
        0x0001c508:    f8500cf8    P...    LDR      r0,[r0,#-0xf8]
        0x0001c50c:    02c0        ..      LSLS     r0,r0,#11
        0x0001c50e:    d505        ..      BPL      0x1c51c ; am_hal_pwrctrl_control + 96
        0x0001c510:    2014        .       MOVS     r0,#0x14
        0x0001c512:    f000fa1f    ....    BL       am_hal_pwrctrl_periph_disable ; 0x1c954
        0x0001c516:    2800        .(      CMP      r0,#0
        0x0001c518:    bf18        ..      IT       NE
        0x0001c51a:    bdb0        ..      POPNE    {r4,r5,r7,pc}
        0x0001c51c:    2000        .       MOVS     r0,#0
        0x0001c51e:    bdb0        ..      POP      {r4,r5,r7,pc}
        0x0001c520:    2060        `       MOVS     r0,#0x60
        0x0001c522:    f2c40002    ....    MOVT     r0,#0x4002
        0x0001c526:    f8d010c4    ....    LDR      r1,[r0,#0xc4]
        0x0001c52a:    2220         "      MOVS     r2,#0x20
        0x0001c52c:    f3620187    b...    BFI      r1,r2,#2,#6
        0x0001c530:    f8c010c4    ....    STR      r1,[r0,#0xc4]
        0x0001c534:    2101        .!      MOVS     r1,#1
        0x0001c536:    f8c010c0    ....    STR      r1,[r0,#0xc0]
        0x0001c53a:    2000        .       MOVS     r0,#0
        0x0001c53c:    bdb0        ..      POP      {r4,r5,r7,pc}
        0x0001c53e:    bf00        ..      NOP      
        0x0001c540:    f2411100    A...    MOVW     r1,#0x1100
        0x0001c544:    f2c40102    ....    MOVT     r1,#0x4002
        0x0001c548:    2000        .       MOVS     r0,#0
        0x0001c54a:    f8410cfc    A...    STR      r0,[r1,#-0xfc]
        0x0001c54e:    bdb0        ..      POP      {r4,r5,r7,pc}
        0x0001c550:    b129        ).      CBZ      r1,0x1c55e ; am_hal_pwrctrl_control + 162
        0x0001c552:    f24010d8    @...    MOVW     r0,#0x1d8
        0x0001c556:    f2c10000    ....    MOVT     r0,#0x1000
        0x0001c55a:    6a80        .j      LDR      r0,[r0,#0x28]
        0x0001c55c:    6008        .`      STR      r0,[r1,#0]
        0x0001c55e:    2006        .       MOVS     r0,#6
        0x0001c560:    bdb0        ..      POP      {r4,r5,r7,pc}
        0x0001c562:    bf00        ..      NOP      
        0x0001c564:    2000        .       MOVS     r0,#0
        0x0001c566:    6020         `      STR      r0,[r4,#0]
        0x0001c568:    f8d51318    ....    LDR      r1,[r5,#0x318]
        0x0001c56c:    220a        ."      MOVS     r2,#0xa
        0x0001c56e:    f02151f8    !..Q    BIC      r1,r1,#0x1f000000
        0x0001c572:    f8c51318    ....    STR      r1,[r5,#0x318]
        0x0001c576:    f8d512f8    ....    LDR      r1,[r5,#0x2f8]
        0x0001c57a:    f42101f8    !...    BIC      r1,r1,#0x7c0000
        0x0001c57e:    f8c512f8    ....    STR      r1,[r5,#0x2f8]
        0x0001c582:    f8d512e4    ....    LDR      r1,[r5,#0x2e4]
        0x0001c586:    f362611c    b..a    BFI      r1,r2,#24,#5
        0x0001c58a:    f8c512e4    ....    STR      r1,[r5,#0x2e4]
        0x0001c58e:    f8d512e4    ....    LDR      r1,[r5,#0x2e4]
        0x0001c592:    f36221ce    b..!    BFI      r1,r2,#11,#4
        0x0001c596:    f8c512e4    ....    STR      r1,[r5,#0x2e4]
        0x0001c59a:    f8d512f8    ....    LDR      r1,[r5,#0x2f8]
        0x0001c59e:    220f        ."      MOVS     r2,#0xf
        0x0001c5a0:    f362210c    b..!    BFI      r1,r2,#8,#5
        0x0001c5a4:    f8c512f8    ....    STR      r1,[r5,#0x2f8]
        0x0001c5a8:    f8d512f4    ....    LDR      r1,[r5,#0x2f4]
        0x0001c5ac:    f44111f0    A...    ORR      r1,r1,#0x1e0000
        0x0001c5b0:    f8c512f4    ....    STR      r1,[r5,#0x2f4]
        0x0001c5b4:    f8d51300    ....    LDR      r1,[r5,#0x300]
        0x0001c5b8:    f362519a    b..Q    BFI      r1,r2,#22,#5
        0x0001c5bc:    f8c51300    ....    STR      r1,[r5,#0x300]
        0x0001c5c0:    f8d51300    ....    LDR      r1,[r5,#0x300]
        0x0001c5c4:    f44111f0    A...    ORR      r1,r1,#0x1e0000
        0x0001c5c8:    f8c51300    ....    STR      r1,[r5,#0x300]
        0x0001c5cc:    2101        .!      MOVS     r1,#1
        0x0001c5ce:    f8d522e8    ..."    LDR      r2,[r5,#0x2e8]
        0x0001c5d2:    230a        .#      MOVS     r3,#0xa
        0x0001c5d4:    f363629d    c..b    BFI      r2,r3,#26,#4
        0x0001c5d8:    f8c522e8    ..."    STR      r2,[r5,#0x2e8]
        0x0001c5dc:    f8d522e8    ..."    LDR      r2,[r5,#0x2e8]
        0x0001c5e0:    f3633250    c.P2    BFI      r2,r3,#13,#4
        0x0001c5e4:    f8c522e8    ..."    STR      r2,[r5,#0x2e8]
        0x0001c5e8:    f8d522fc    ..."    LDR      r2,[r5,#0x2fc]
        0x0001c5ec:    f0427270    B.pr    ORR      r2,r2,#0x3c00000
        0x0001c5f0:    f8c522fc    ..."    STR      r2,[r5,#0x2fc]
        0x0001c5f4:    f8d522fc    ..."    LDR      r2,[r5,#0x2fc]
        0x0001c5f8:    f44252f0    B..R    ORR      r2,r2,#0x1e00
        0x0001c5fc:    f8c522fc    ..."    STR      r2,[r5,#0x2fc]
        0x0001c600:    f8d52320    .. #    LDR      r2,[r5,#0x320]
        0x0001c604:    f0424200    B..B    ORR      r2,r2,#0x80000000
        0x0001c608:    f8c52320    .. #    STR      r2,[r5,#0x320]
        0x0001c60c:    f8d52320    .. #    LDR      r2,[r5,#0x320]
        0x0001c610:    f0424280    B..B    ORR      r2,r2,#0x40000000
        0x0001c614:    f8c52320    .. #    STR      r2,[r5,#0x320]
        0x0001c618:    f8d52310    ...#    LDR      r2,[r5,#0x310]
        0x0001c61c:    f3c25205    ...R    UBFX     r2,r2,#20,#6
        0x0001c620:    6062        b`      STR      r2,[r4,#4]
        0x0001c622:    f8d52310    ...#    LDR      r2,[r5,#0x310]
        0x0001c626:    f022727c    ".|r    BIC      r2,r2,#0x3f00000
        0x0001c62a:    f8c52310    ...#    STR      r2,[r5,#0x310]
        0x0001c62e:    f04f0207    O...    MOV      r2,#7
        0x0001c632:    f8c522dc    ..."    STR      r2,[r5,#0x2dc]
        0x0001c636:    b161        a.      CBZ      r1,0x1c652 ; am_hal_pwrctrl_control + 406
        0x0001c638:    f8d512e0    ....    LDR      r1,[r5,#0x2e0]
        0x0001c63c:    2201        ."      MOVS     r2,#1
        0x0001c63e:    f0217170    !.pq    BIC      r1,r1,#0x3c00000
        0x0001c642:    f8c512e0    ....    STR      r1,[r5,#0x2e0]
        0x0001c646:    f8d512e0    ....    LDR      r1,[r5,#0x2e0]
        0x0001c64a:    f362118a    b...    BFI      r1,r2,#6,#5
        0x0001c64e:    f8c512e0    ....    STR      r1,[r5,#0x2e0]
        0x0001c652:    2806        .(      CMP      r0,#6
        0x0001c654:    d308        ..      BCC      0x1c668 ; am_hal_pwrctrl_control + 428
        0x0001c656:    200f        .       MOVS     r0,#0xf
        0x0001c658:    f8c502dc    ....    STR      r0,[r5,#0x2dc]
        0x0001c65c:    f8d50150    ..P.    LDR      r0,[r5,#0x150]
        0x0001c660:    f0200018     ...    BIC      r0,r0,#0x18
        0x0001c664:    f8c50150    ..P.    STR      r0,[r5,#0x150]
        0x0001c668:    f2411000    A...    MOVW     r0,#0x1100
        0x0001c66c:    f2c40002    ....    MOVT     r0,#0x4002
        0x0001c670:    6801        .h      LDR      r1,[r0,#0]
        0x0001c672:    f0410101    A...    ORR      r1,r1,#1
        0x0001c676:    6001        .`      STR      r1,[r0,#0]
        0x0001c678:    f8d50318    ....    LDR      r0,[r5,#0x318]
        0x0001c67c:    f0404000    @..@    ORR      r0,r0,#0x80000000
        0x0001c680:    f8c50318    ....    STR      r0,[r5,#0x318]
        0x0001c684:    6828        (h      LDR      r0,[r5,#0]
        0x0001c686:    f4403000    @..0    ORR      r0,r0,#0x20000
        0x0001c68a:    6028        (`      STR      r0,[r5,#0]
        0x0001c68c:    6828        (h      LDR      r0,[r5,#0]
        0x0001c68e:    f4402080    @..     ORR      r0,r0,#0x40000
        0x0001c692:    6028        (`      STR      r0,[r5,#0]
        0x0001c694:    6828        (h      LDR      r0,[r5,#0]
        0x0001c696:    f4402000    @..     ORR      r0,r0,#0x80000
        0x0001c69a:    6028        (`      STR      r0,[r5,#0]
        0x0001c69c:    6828        (h      LDR      r0,[r5,#0]
        0x0001c69e:    f4403080    @..0    ORR      r0,r0,#0x10000
        0x0001c6a2:    6028        (`      STR      r0,[r5,#0]
        0x0001c6a4:    6828        (h      LDR      r0,[r5,#0]
        0x0001c6a6:    f0200010     ...    BIC      r0,r0,#0x10
        0x0001c6aa:    6028        (`      STR      r0,[r5,#0]
        0x0001c6ac:    6828        (h      LDR      r0,[r5,#0]
        0x0001c6ae:    f040000e    @...    ORR      r0,r0,#0xe
        0x0001c6b2:    6028        (`      STR      r0,[r5,#0]
        0x0001c6b4:    6828        (h      LDR      r0,[r5,#0]
        0x0001c6b6:    f0400001    @...    ORR      r0,r0,#1
        0x0001c6ba:    6028        (`      STR      r0,[r5,#0]
        0x0001c6bc:    6828        (h      LDR      r0,[r5,#0]
        0x0001c6be:    f4207000     ..p    BIC      r0,r0,#0x200
        0x0001c6c2:    6028        (`      STR      r0,[r5,#0]
        0x0001c6c4:    6828        (h      LDR      r0,[r5,#0]
        0x0001c6c6:    f44070e0    @..p    ORR      r0,r0,#0x1c0
        0x0001c6ca:    6028        (`      STR      r0,[r5,#0]
        0x0001c6cc:    6828        (h      LDR      r0,[r5,#0]
        0x0001c6ce:    f0400020    @. .    ORR      r0,r0,#0x20
        0x0001c6d2:    6028        (`      STR      r0,[r5,#0]
        0x0001c6d4:    2000        .       MOVS     r0,#0
        0x0001c6d6:    bdb0        ..      POP      {r4,r5,r7,pc}
    am_hal_pwrctrl_low_power_init
        0x0001c6d8:    b5f0        ..      PUSH     {r4-r7,lr}
        0x0001c6da:    b081        ..      SUB      sp,sp,#4
        0x0001c6dc:    f2410608    A...    MOV      r6,#0x1008
        0x0001c6e0:    f2c40602    ....    MOVT     r6,#0x4002
        0x0001c6e4:    6830        0h      LDR      r0,[r6,#0]
        0x0001c6e6:    f24014d8    @...    MOVW     r4,#0x1d8
        0x0001c6ea:    f3c05000    ...P    UBFX     r0,r0,#20,#1
        0x0001c6ee:    f2c10400    ....    MOVT     r4,#0x1000
        0x0001c6f2:    7020         p      STRB     r0,[r4,#0]
        0x0001c6f4:    f64f400c    O..@    MOV      r0,#0xfc0c
        0x0001c6f8:    2588        .%      MOVS     r5,#0x88
        0x0001c6fa:    f2c00001    ....    MOVT     r0,#1
        0x0001c6fe:    f2c40502    ....    MOVT     r5,#0x4002
        0x0001c702:    f000f89f    ....    BL       am_hal_pwrctrl_mcu_memory_config ; 0x1c844
        0x0001c706:    f64f4012    O..@    MOV      r0,#0xfc12
        0x0001c70a:    f2c00001    ....    MOVT     r0,#1
        0x0001c70e:    f000fa8d    ....    BL       am_hal_pwrctrl_sram_config ; 0x1cc2c
        0x0001c712:    f2440744    D.D.    MOV      r7,#0x4044
        0x0001c716:    f2c40700    ....    MOVT     r7,#0x4000
        0x0001c71a:    6838        8h      LDR      r0,[r7,#0]
        0x0001c71c:    f440007c    @.|.    ORR      r0,r0,#0xfc0000
        0x0001c720:    6038        8`      STR      r0,[r7,#0]
        0x0001c722:    2000        .       MOVS     r0,#0
        0x0001c724:    f8c60138    ..8.    STR      r0,[r6,#0x138]
        0x0001c728:    f8c6013c    ..<.    STR      r0,[r6,#0x13c]
        0x0001c72c:    f8c60140    ..@.    STR      r0,[r6,#0x140]
        0x0001c730:    f8c60144    ..D.    STR      r0,[r6,#0x144]
        0x0001c734:    f8c60148    ..H.    STR      r0,[r6,#0x148]
        0x0001c738:    f8c6014c    ..L.    STR      r0,[r6,#0x14c]
        0x0001c73c:    f8c60150    ..P.    STR      r0,[r6,#0x150]
        0x0001c740:    f8c60154    ..T.    STR      r0,[r6,#0x154]
        0x0001c744:    f8c60158    ..X.    STR      r0,[r6,#0x158]
        0x0001c748:    f8c6015c    ..\.    STR      r0,[r6,#0x15c]
        0x0001c74c:    f8c60160    ..`.    STR      r0,[r6,#0x160]
        0x0001c750:    f8c60164    ..d.    STR      r0,[r6,#0x164]
        0x0001c754:    f8c60168    ..h.    STR      r0,[r6,#0x168]
        0x0001c758:    f8c6016c    ..l.    STR      r0,[r6,#0x16c]
        0x0001c75c:    f8c60170    ..p.    STR      r0,[r6,#0x170]
        0x0001c760:    f8c60174    ..t.    STR      r0,[r6,#0x174]
        0x0001c764:    f8c60178    ..x.    STR      r0,[r6,#0x178]
        0x0001c768:    f8c6017c    ..|.    STR      r0,[r6,#0x17c]
        0x0001c76c:    f8c60180    ....    STR      r0,[r6,#0x180]
        0x0001c770:    f64f002d    O.-.    MOV      r0,#0xf82d
        0x0001c774:    f2c00001    ....    MOVT     r0,#1
        0x0001c778:    f7fdfcc8    ....    BL       am_hal_daxi_config ; 0x1a10c
        0x0001c77c:    2064        d       MOVS     r0,#0x64
        0x0001c77e:    f7fdfe19    ....    BL       am_hal_delay_us ; 0x1a3b4
        0x0001c782:    6838        8h      LDR      r0,[r7,#0]
        0x0001c784:    2104        .!      MOVS     r1,#4
        0x0001c786:    f0400040    @.@.    ORR      r0,r0,#0x40
        0x0001c78a:    6038        8`      STR      r0,[r7,#0]
        0x0001c78c:    f8d502f4    ....    LDR      r0,[r5,#0x2f4]
        0x0001c790:    f04060b0    @..`    ORR      r0,r0,#0x5800000
        0x0001c794:    f44000fd    @...    ORR      r0,r0,#0x7e8000
        0x0001c798:    f8c502f4    ....    STR      r0,[r5,#0x2f4]
        0x0001c79c:    f8d503bc    ....    LDR      r0,[r5,#0x3bc]
        0x0001c7a0:    f361200f    a..     BFI      r0,r1,#8,#8
        0x0001c7a4:    f8c503bc    ....    STR      r0,[r5,#0x3bc]
        0x0001c7a8:    7860        `x      LDRB     r0,[r4,#1]
        0x0001c7aa:    2801        .(      CMP      r0,#1
        0x0001c7ac:    d102        ..      BNE      0x1c7b4 ; am_hal_pwrctrl_low_power_init + 220
        0x0001c7ae:    e9d40104    ....    LDRD     r0,r1,[r4,#0x10]
        0x0001c7b2:    e01c        ..      B        0x1c7ee ; am_hal_pwrctrl_low_power_init + 278
        0x0001c7b4:    f8d502e4    ....    LDR      r0,[r5,#0x2e4]
        0x0001c7b8:    f3c05005    ...P    UBFX     r0,r0,#20,#6
        0x0001c7bc:    6120         a      STR      r0,[r4,#0x10]
        0x0001c7be:    6829        )h      LDR      r1,[r5,#0]
        0x0001c7c0:    f001013f    ..?.    AND      r1,r1,#0x3f
        0x0001c7c4:    6161        aa      STR      r1,[r4,#0x14]
        0x0001c7c6:    f8d522e4    ..."    LDR      r2,[r5,#0x2e4]
        0x0001c7ca:    0e92        ..      LSRS     r2,r2,#26
        0x0001c7cc:    61a2        .a      STR      r2,[r4,#0x18]
        0x0001c7ce:    682a        *h      LDR      r2,[r5,#0]
        0x0001c7d0:    f3c24285    ...B    UBFX     r2,r2,#18,#6
        0x0001c7d4:    61e2        .a      STR      r2,[r4,#0x1c]
        0x0001c7d6:    f8552c44    U.D,    LDR      r2,[r5,#-0x44]
        0x0001c7da:    f3c212c6    ....    UBFX     r2,r2,#7,#7
        0x0001c7de:    6222        "b      STR      r2,[r4,#0x20]
        0x0001c7e0:    f8552c08    U..,    LDR      r2,[r5,#-8]
        0x0001c7e4:    f36f229f    o.."    BFC      r2,#10,#22
        0x0001c7e8:    6262        bb      STR      r2,[r4,#0x24]
        0x0001c7ea:    2201        ."      MOVS     r2,#1
        0x0001c7ec:    7062        bp      STRB     r2,[r4,#1]
        0x0001c7ee:    2200        ."      MOVS     r2,#0
        0x0001c7f0:    1d23        #.      ADDS     r3,r4,#4
        0x0001c7f2:    c307        ..      STM      r3!,{r0-r2}
        0x0001c7f4:    466b        kF      MOV      r3,sp
        0x0001c7f6:    2001        .       MOVS     r0,#1
        0x0001c7f8:    f44f6192    O..a    MOV      r1,#0x490
        0x0001c7fc:    2201        ."      MOVS     r2,#1
        0x0001c7fe:    f7fef81b    ....    BL       am_hal_mram_info_read ; 0x1a838
        0x0001c802:    b118        ..      CBZ      r0,0x1c80c ; am_hal_pwrctrl_low_power_init + 308
        0x0001c804:    2000        .       MOVS     r0,#0
        0x0001c806:    b001        ..      ADD      sp,sp,#4
        0x0001c808:    bdf0        ..      POP      {r4-r7,pc}
        0x0001c80a:    bf00        ..      NOP      
        0x0001c80c:    9800        ..      LDR      r0,[sp,#0]
        0x0001c80e:    f0100f06    ....    TST      r0,#6
        0x0001c812:    d007        ..      BEQ      0x1c824 ; am_hal_pwrctrl_low_power_init + 332
        0x0001c814:    0781        ..      LSLS     r1,r0,#30
        0x0001c816:    d40b        ..      BMI      0x1c830 ; am_hal_pwrctrl_low_power_init + 344
        0x0001c818:    2006        .       MOVS     r0,#6
        0x0001c81a:    60e0        .`      STR      r0,[r4,#0xc]
        0x0001c81c:    2000        .       MOVS     r0,#0
        0x0001c81e:    b001        ..      ADD      sp,sp,#4
        0x0001c820:    bdf0        ..      POP      {r4-r7,pc}
        0x0001c822:    bf00        ..      NOP      
        0x0001c824:    2003        .       MOVS     r0,#3
        0x0001c826:    60e0        .`      STR      r0,[r4,#0xc]
        0x0001c828:    2000        .       MOVS     r0,#0
        0x0001c82a:    b001        ..      ADD      sp,sp,#4
        0x0001c82c:    bdf0        ..      POP      {r4-r7,pc}
        0x0001c82e:    bf00        ..      NOP      
        0x0001c830:    0740        @.      LSLS     r0,r0,#29
        0x0001c832:    f04f0000    O...    MOV      r0,#0
        0x0001c836:    bf58        X.      IT       PL
        0x0001c838:    2009        .       MOVPL    r0,#9
        0x0001c83a:    60e0        .`      STR      r0,[r4,#0xc]
        0x0001c83c:    2000        .       MOVS     r0,#0
        0x0001c83e:    b001        ..      ADD      sp,sp,#4
        0x0001c840:    bdf0        ..      POP      {r4-r7,pc}
        0x0001c842:    0000        ..      MOVS     r0,r0
    am_hal_pwrctrl_mcu_memory_config
        0x0001c844:    b570        p.      PUSH     {r4-r6,lr}
        0x0001c846:    b082        ..      SUB      sp,sp,#8
        0x0001c848:    4606        .F      MOV      r6,r0
        0x0001c84a:    7800        .x      LDRB     r0,[r0,#0]
        0x0001c84c:    f2410514    A...    MOV      r5,#0x1014
        0x0001c850:    2802        .(      CMP      r0,#2
        0x0001c852:    f2c40502    ....    MOVT     r5,#0x4002
        0x0001c856:    d007        ..      BEQ      0x1c868 ; am_hal_pwrctrl_mcu_memory_config + 36
        0x0001c858:    2801        .(      CMP      r0,#1
        0x0001c85a:    d00d        ..      BEQ      0x1c878 ; am_hal_pwrctrl_mcu_memory_config + 52
        0x0001c85c:    b9a0        ..      CBNZ     r0,0x1c888 ; am_hal_pwrctrl_mcu_memory_config + 68
        0x0001c85e:    6828        (h      LDR      r0,[r5,#0]
        0x0001c860:    f0200010     ...    BIC      r0,r0,#0x10
        0x0001c864:    e00b        ..      B        0x1c87e ; am_hal_pwrctrl_mcu_memory_config + 58
        0x0001c866:    bf00        ..      NOP      
        0x0001c868:    6828        (h      LDR      r0,[r5,#0]
        0x0001c86a:    f0400010    @...    ORR      r0,r0,#0x10
        0x0001c86e:    6028        (`      STR      r0,[r5,#0]
        0x0001c870:    6828        (h      LDR      r0,[r5,#0]
        0x0001c872:    f0400020    @. .    ORR      r0,r0,#0x20
        0x0001c876:    e006        ..      B        0x1c886 ; am_hal_pwrctrl_mcu_memory_config + 66
        0x0001c878:    6828        (h      LDR      r0,[r5,#0]
        0x0001c87a:    f0400010    @...    ORR      r0,r0,#0x10
        0x0001c87e:    6028        (`      STR      r0,[r5,#0]
        0x0001c880:    6828        (h      LDR      r0,[r5,#0]
        0x0001c882:    f0200020     . .    BIC      r0,r0,#0x20
        0x0001c886:    6028        (`      STR      r0,[r5,#0]
        0x0001c888:    78b0        .x      LDRB     r0,[r6,#2]
        0x0001c88a:    6829        )h      LDR      r1,[r5,#0]
        0x0001c88c:    2401        .$      MOVS     r4,#1
        0x0001c88e:    f3600102    `...    BFI      r1,r0,#0,#3
        0x0001c892:    6029        )`      STR      r1,[r5,#0]
        0x0001c894:    7930        0y      LDRB     r0,[r6,#4]
        0x0001c896:    6829        )h      LDR      r1,[r5,#0]
        0x0001c898:    f000001f    ....    AND      r0,r0,#0x1f
        0x0001c89c:    f0210108    !...    BIC      r1,r1,#8
        0x0001c8a0:    ea4100c0    A...    ORR      r0,r1,r0,LSL #3
        0x0001c8a4:    6028        (`      STR      r0,[r5,#0]
        0x0001c8a6:    4629        )F      MOV      r1,r5
        0x0001c8a8:    f8513b04    Q..;    LDR      r3,[r1],#4
        0x0001c8ac:    2005        .       MOVS     r0,#5
        0x0001c8ae:    223f        ?"      MOVS     r2,#0x3f
        0x0001c8b0:    9400        ..      STR      r4,[sp,#0]
        0x0001c8b2:    f7fdfdc7    ....    BL       am_hal_delay_us_status_check ; 0x1a444
        0x0001c8b6:    b108        ..      CBZ      r0,0x1c8bc ; am_hal_pwrctrl_mcu_memory_config + 120
        0x0001c8b8:    b002        ..      ADD      sp,sp,#8
        0x0001c8ba:    bd70        p.      POP      {r4-r6,pc}
        0x0001c8bc:    6868        hh      LDR      r0,[r5,#4]
        0x0001c8be:    6829        )h      LDR      r1,[r5,#0]
        0x0001c8c0:    4048        H@      EORS     r0,r0,r1
        0x0001c8c2:    06c0        ..      LSLS     r0,r0,#27
        0x0001c8c4:    d42e        ..      BMI      0x1c924 ; am_hal_pwrctrl_mcu_memory_config + 224
        0x0001c8c6:    6868        hh      LDR      r0,[r5,#4]
        0x0001c8c8:    6829        )h      LDR      r1,[r5,#0]
        0x0001c8ca:    4048        H@      EORS     r0,r0,r1
        0x0001c8cc:    0680        ..      LSLS     r0,r0,#26
        0x0001c8ce:    d429        ).      BMI      0x1c924 ; am_hal_pwrctrl_mcu_memory_config + 224
        0x0001c8d0:    6868        hh      LDR      r0,[r5,#4]
        0x0001c8d2:    6829        )h      LDR      r1,[r5,#0]
        0x0001c8d4:    4048        H@      EORS     r0,r0,r1
        0x0001c8d6:    0740        @.      LSLS     r0,r0,#29
        0x0001c8d8:    d124        $.      BNE      0x1c924 ; am_hal_pwrctrl_mcu_memory_config + 224
        0x0001c8da:    6868        hh      LDR      r0,[r5,#4]
        0x0001c8dc:    6829        )h      LDR      r1,[r5,#0]
        0x0001c8de:    4048        H@      EORS     r0,r0,r1
        0x0001c8e0:    0700        ..      LSLS     r0,r0,#28
        0x0001c8e2:    d41f        ..      BMI      0x1c924 ; am_hal_pwrctrl_mcu_memory_config + 224
        0x0001c8e4:    7870        px      LDRB     r0,[r6,#1]
        0x0001c8e6:    68a9        .h      LDR      r1,[r5,#8]
        0x0001c8e8:    2800        .(      CMP      r0,#0
        0x0001c8ea:    f0210110    !...    BIC      r1,r1,#0x10
        0x0001c8ee:    bf08        ..      IT       EQ
        0x0001c8f0:    3110        .1      ADDEQ    r1,r1,#0x10
        0x0001c8f2:    60a9        .`      STR      r1,[r5,#8]
        0x0001c8f4:    7970        py      LDRB     r0,[r6,#5]
        0x0001c8f6:    68a9        .h      LDR      r1,[r5,#8]
        0x0001c8f8:    2800        .(      CMP      r0,#0
        0x0001c8fa:    f0210108    !...    BIC      r1,r1,#8
        0x0001c8fe:    bf08        ..      IT       EQ
        0x0001c900:    3108        .1      ADDEQ    r1,r1,#8
        0x0001c902:    60a9        .`      STR      r1,[r5,#8]
        0x0001c904:    78f1        .x      LDRB     r1,[r6,#3]
        0x0001c906:    2000        .       MOVS     r0,#0
        0x0001c908:    2907        .)      CMP      r1,#7
        0x0001c90a:    d8d5        ..      BHI      0x1c8b8 ; am_hal_pwrctrl_mcu_memory_config + 116
        0x0001c90c:    e8dff001    ....    TBB      [pc,r1]
    $d.3
        0x0001c910:    14040e06    ....    DCD    335810054
        0x0001c914:    1a040404    ....    DCD    436470788
    $t.4
        0x0001c918:    e7ce        ..      B        0x1c8b8 ; am_hal_pwrctrl_mcu_memory_config + 116
        0x0001c91a:    bf00        ..      NOP      
        0x0001c91c:    68a8        .h      LDR      r0,[r5,#8]
        0x0001c91e:    f0400007    @...    ORR      r0,r0,#7
        0x0001c922:    e012        ..      B        0x1c94a ; am_hal_pwrctrl_mcu_memory_config + 262
        0x0001c924:    2001        .       MOVS     r0,#1
        0x0001c926:    b002        ..      ADD      sp,sp,#8
        0x0001c928:    bd70        p.      POP      {r4-r6,pc}
        0x0001c92a:    bf00        ..      NOP      
        0x0001c92c:    68a8        .h      LDR      r0,[r5,#8]
        0x0001c92e:    2106        .!      MOVS     r1,#6
        0x0001c930:    f3610002    a...    BFI      r0,r1,#0,#3
        0x0001c934:    e009        ..      B        0x1c94a ; am_hal_pwrctrl_mcu_memory_config + 262
        0x0001c936:    bf00        ..      NOP      
        0x0001c938:    68a8        .h      LDR      r0,[r5,#8]
        0x0001c93a:    2104        .!      MOVS     r1,#4
        0x0001c93c:    f3610002    a...    BFI      r0,r1,#0,#3
        0x0001c940:    e003        ..      B        0x1c94a ; am_hal_pwrctrl_mcu_memory_config + 262
        0x0001c942:    bf00        ..      NOP      
        0x0001c944:    68a8        .h      LDR      r0,[r5,#8]
        0x0001c946:    f0200007     ...    BIC      r0,r0,#7
        0x0001c94a:    60a8        .`      STR      r0,[r5,#8]
        0x0001c94c:    2000        .       MOVS     r0,#0
        0x0001c94e:    b002        ..      ADD      sp,sp,#8
        0x0001c950:    bd70        p.      POP      {r4-r6,pc}
        0x0001c952:    0000        ..      MOVS     r0,r0
    am_hal_pwrctrl_periph_disable
        0x0001c954:    e92d43f0    -..C    PUSH     {r4-r9,lr}
        0x0001c958:    b083        ..      SUB      sp,sp,#0xc
        0x0001c95a:    2821        !(      CMP      r0,#0x21
        0x0001c95c:    d904        ..      BLS      0x1c968 ; am_hal_pwrctrl_periph_disable + 20
        0x0001c95e:    2406        .$      MOVS     r4,#6
        0x0001c960:    4620         F      MOV      r0,r4
        0x0001c962:    b003        ..      ADD      sp,sp,#0xc
        0x0001c964:    e8bd83f0    ....    POP      {r4-r9,pc}
        0x0001c968:    f64f0134    O.4.    MOV      r1,#0xf834
        0x0001c96c:    f2c00101    ....    MOVT     r1,#1
        0x0001c970:    0102        ..      LSLS     r2,r0,#4
        0x0001c972:    f8518002    Q...    LDR      r8,[r1,r2]
        0x0001c976:    eb011500    ....    ADD      r5,r1,r0,LSL #4
        0x0001c97a:    686f        oh      LDR      r7,[r5,#4]
        0x0001c97c:    f8d81000    ....    LDR      r1,[r8,#0]
        0x0001c980:    4239        9B      TST      r1,r7
        0x0001c982:    d074        t.      BEQ      0x1ca6e ; am_hal_pwrctrl_periph_disable + 282
        0x0001c984:    2814        .(      CMP      r0,#0x14
        0x0001c986:    d12d        -.      BNE      0x1c9e4 ; am_hal_pwrctrl_periph_disable + 144
        0x0001c988:    f64076e0    @..v    MOVW     r6,#0xfe0
        0x0001c98c:    f2c4060c    ....    MOVT     r6,#0x400c
        0x0001c990:    6830        0h      LDR      r0,[r6,#0]
        0x0001c992:    28c0        .(      CMP      r0,#0xc0
        0x0001c994:    d126        &.      BNE      0x1c9e4 ; am_hal_pwrctrl_periph_disable + 144
        0x0001c996:    f6402980    @..)    MOVW     r9,#0xa80
        0x0001c99a:    f2c4090c    ....    MOVT     r9,#0x400c
        0x0001c99e:    f1a90104    ....    SUB      r1,r9,#4
        0x0001c9a2:    2064        d       MOVS     r0,#0x64
        0x0001c9a4:    2201        ."      MOVS     r2,#1
        0x0001c9a6:    2301        .#      MOVS     r3,#1
        0x0001c9a8:    f7fdfd20    .. .    BL       am_hal_delay_us_status_change ; 0x1a3ec
        0x0001c9ac:    4604        .F      MOV      r4,r0
        0x0001c9ae:    2800        .(      CMP      r0,#0
        0x0001c9b0:    d1d6        ..      BNE      0x1c960 ; am_hal_pwrctrl_periph_disable + 12
        0x0001c9b2:    f5066173    ..sa    ADD      r1,r6,#0xf30
        0x0001c9b6:    2064        d       MOVS     r0,#0x64
        0x0001c9b8:    2201        ."      MOVS     r2,#1
        0x0001c9ba:    2301        .#      MOVS     r3,#1
        0x0001c9bc:    f7fdfd16    ....    BL       am_hal_delay_us_status_change ; 0x1a3ec
        0x0001c9c0:    4604        .F      MOV      r4,r0
        0x0001c9c2:    2800        .(      CMP      r0,#0
        0x0001c9c4:    d1cc        ..      BNE      0x1c960 ; am_hal_pwrctrl_periph_disable + 12
        0x0001c9c6:    f8d90000    ....    LDR      r0,[r9,#0]
        0x0001c9ca:    f0400001    @...    ORR      r0,r0,#1
        0x0001c9ce:    f8c90000    ....    STR      r0,[r9,#0]
        0x0001c9d2:    f24010d8    @...    MOVW     r0,#0x1d8
        0x0001c9d6:    f2c10000    ....    MOVT     r0,#0x1000
        0x0001c9da:    68c1        .h      LDR      r1,[r0,#0xc]
        0x0001c9dc:    b111        ..      CBZ      r1,0x1c9e4 ; am_hal_pwrctrl_periph_disable + 144
        0x0001c9de:    2000        .       MOVS     r0,#0
        0x0001c9e0:    f000ffce    ....    BL       crypto_boost_trims ; 0x1d980
        0x0001c9e4:    e9d56502    ...e    LDRD     r6,r5,[r5,#8]
        0x0001c9e8:    f7fdfe52    ..R.    BL       am_hal_interrupt_master_disable ; 0x1a690
        0x0001c9ec:    9002        ..      STR      r0,[sp,#8]
        0x0001c9ee:    f8d80000    ....    LDR      r0,[r8,#0]
        0x0001c9f2:    43b8        .C      BICS     r0,r0,r7
        0x0001c9f4:    f8c80000    ....    STR      r0,[r8,#0]
        0x0001c9f8:    9802        ..      LDR      r0,[sp,#8]
        0x0001c9fa:    f7fdfe51    ..Q.    BL       am_hal_interrupt_master_set ; 0x1a6a0
        0x0001c9fe:    2400        .$      MOVS     r4,#0
        0x0001ca00:    2005        .       MOVS     r0,#5
        0x0001ca02:    4631        1F      MOV      r1,r6
        0x0001ca04:    462a        *F      MOV      r2,r5
        0x0001ca06:    462b        +F      MOV      r3,r5
        0x0001ca08:    9400        ..      STR      r4,[sp,#0]
        0x0001ca0a:    f7fdfd1b    ....    BL       am_hal_delay_us_status_check ; 0x1a444
        0x0001ca0e:    2800        .(      CMP      r0,#0
        0x0001ca10:    d0a6        ..      BEQ      0x1c960 ; am_hal_pwrctrl_periph_disable + 12
        0x0001ca12:    f5b57ff0    ....    CMP      r5,#0x1e0
        0x0001ca16:    f04f0400    O...    MOV      r4,#0
        0x0001ca1a:    db0d        ..      BLT      0x1ca38 ; am_hal_pwrctrl_periph_disable + 228
        0x0001ca1c:    d01a        ..      BEQ      0x1ca54 ; am_hal_pwrctrl_periph_disable + 256
        0x0001ca1e:    f5b53fe0    ...?    CMP      r5,#0x1c000
        0x0001ca22:    d01d        ..      BEQ      0x1ca60 ; am_hal_pwrctrl_periph_disable + 268
        0x0001ca24:    f5b55ff0    ..._    CMP      r5,#0x1e00
        0x0001ca28:    d19a        ..      BNE      0x1c960 ; am_hal_pwrctrl_periph_disable + 12
        0x0001ca2a:    f8d80000    ....    LDR      r0,[r8,#0]
        0x0001ca2e:    f4105ff0    ..._    TST      r0,#0x1e00
        0x0001ca32:    d11a        ..      BNE      0x1ca6a ; am_hal_pwrctrl_periph_disable + 278
        0x0001ca34:    e01b        ..      B        0x1ca6e ; am_hal_pwrctrl_periph_disable + 282
        0x0001ca36:    bf00        ..      NOP      
        0x0001ca38:    2d1e        .-      CMP      r5,#0x1e
        0x0001ca3a:    d01d        ..      BEQ      0x1ca78 ; am_hal_pwrctrl_periph_disable + 292
        0x0001ca3c:    2dff        .-      CMP      r5,#0xff
        0x0001ca3e:    f47faf8f    ....    BNE.W    0x1c960 ; am_hal_pwrctrl_periph_disable + 12
        0x0001ca42:    f8d80000    ....    LDR      r0,[r8,#0]
        0x0001ca46:    0600        ..      LSLS     r0,r0,#24
        0x0001ca48:    d10f        ..      BNE      0x1ca6a ; am_hal_pwrctrl_periph_disable + 278
        0x0001ca4a:    2400        .$      MOVS     r4,#0
        0x0001ca4c:    4620         F      MOV      r0,r4
        0x0001ca4e:    b003        ..      ADD      sp,sp,#0xc
        0x0001ca50:    e8bd83f0    ....    POP      {r4-r9,pc}
        0x0001ca54:    f8d80000    ....    LDR      r0,[r8,#0]
        0x0001ca58:    f4107ff0    ....    TST      r0,#0x1e0
        0x0001ca5c:    d105        ..      BNE      0x1ca6a ; am_hal_pwrctrl_periph_disable + 278
        0x0001ca5e:    e006        ..      B        0x1ca6e ; am_hal_pwrctrl_periph_disable + 282
        0x0001ca60:    f8d80000    ....    LDR      r0,[r8,#0]
        0x0001ca64:    f4103fe0    ...?    TST      r0,#0x1c000
        0x0001ca68:    d001        ..      BEQ      0x1ca6e ; am_hal_pwrctrl_periph_disable + 282
        0x0001ca6a:    f8d80000    ....    LDR      r0,[r8,#0]
        0x0001ca6e:    2400        .$      MOVS     r4,#0
        0x0001ca70:    4620         F      MOV      r0,r4
        0x0001ca72:    b003        ..      ADD      sp,sp,#0xc
        0x0001ca74:    e8bd83f0    ....    POP      {r4-r9,pc}
        0x0001ca78:    f8d80000    ....    LDR      r0,[r8,#0]
        0x0001ca7c:    f0100f1e    ....    TST      r0,#0x1e
        0x0001ca80:    d1f3        ..      BNE      0x1ca6a ; am_hal_pwrctrl_periph_disable + 278
        0x0001ca82:    e7f4        ..      B        0x1ca6e ; am_hal_pwrctrl_periph_disable + 282
    am_hal_pwrctrl_periph_enable
        0x0001ca84:    e92d4ff0    -..O    PUSH     {r4-r11,lr}
        0x0001ca88:    b085        ..      SUB      sp,sp,#0x14
        0x0001ca8a:    2821        !(      CMP      r0,#0x21
        0x0001ca8c:    d904        ..      BLS      0x1ca98 ; am_hal_pwrctrl_periph_enable + 20
        0x0001ca8e:    2706        .'      MOVS     r7,#6
        0x0001ca90:    4638        8F      MOV      r0,r7
        0x0001ca92:    b005        ..      ADD      sp,sp,#0x14
        0x0001ca94:    e8bd8ff0    ....    POP      {r4-r11,pc}
        0x0001ca98:    4606        .F      MOV      r6,r0
        0x0001ca9a:    f64f0134    O.4.    MOV      r1,#0xf834
        0x0001ca9e:    f2c00101    ....    MOVT     r1,#1
        0x0001caa2:    0132        2.      LSLS     r2,r6,#4
        0x0001caa4:    588f        .X      LDR      r7,[r1,r2]
        0x0001caa6:    eb011000    ....    ADD      r0,r1,r0,LSL #4
        0x0001caaa:    6845        Eh      LDR      r5,[r0,#4]
        0x0001caac:    6839        9h      LDR      r1,[r7,#0]
        0x0001caae:    4229        )B      TST      r1,r5
        0x0001cab0:    d004        ..      BEQ      0x1cabc ; am_hal_pwrctrl_periph_enable + 56
        0x0001cab2:    2700        .'      MOVS     r7,#0
        0x0001cab4:    4638        8F      MOV      r0,r7
        0x0001cab6:    b005        ..      ADD      sp,sp,#0x14
        0x0001cab8:    e8bd8ff0    ....    POP      {r4-r11,pc}
        0x0001cabc:    e9d08902    ....    LDRD     r8,r9,[r0,#8]
        0x0001cac0:    f2401ad8    @...    MOVW     r10,#0x1d8
        0x0001cac4:    2e14        ..      CMP      r6,#0x14
        0x0001cac6:    f2c10a00    ....    MOVT     r10,#0x1000
        0x0001caca:    d140        @.      BNE      0x1cb4e ; am_hal_pwrctrl_periph_enable + 202
        0x0001cacc:    f8da400c    ...@    LDR      r4,[r10,#0xc]
        0x0001cad0:    b3ec        ..      CBZ      r4,0x1cb4e ; am_hal_pwrctrl_periph_enable + 202
        0x0001cad2:    f89a0000    ....    LDRB     r0,[r10,#0]
        0x0001cad6:    bbd0        ..      CBNZ     r0,0x1cb4e ; am_hal_pwrctrl_periph_enable + 202
        0x0001cad8:    f7fdfdda    ....    BL       am_hal_interrupt_master_disable ; 0x1a690
        0x0001cadc:    9003        ..      STR      r0,[sp,#0xc]
        0x0001cade:    2001        .       MOVS     r0,#1
        0x0001cae0:    f88a0000    ....    STRB     r0,[r10,#0]
        0x0001cae4:    e9da0101    ....    LDRD     r0,r1,[r10,#4]
        0x0001cae8:    223f        ?"      MOVS     r2,#0x3f
        0x0001caea:    4420         D      ADD      r0,r0,r4
        0x0001caec:    283f        ?(      CMP      r0,#0x3f
        0x0001caee:    bf38        8.      IT       CC
        0x0001caf0:    4602        .F      MOVCC    r2,r0
        0x0001caf2:    440c        .D      ADD      r4,r4,r1
        0x0001caf4:    f8cd8004    ....    STR      r8,[sp,#4]
        0x0001caf8:    f2400888    @...    MOVW     r8,#0x88
        0x0001cafc:    e9ca0401    ....    STRD     r0,r4,[r10,#4]
        0x0001cb00:    f2c40802    ....    MOVT     r8,#0x4002
        0x0001cb04:    f8d812e4    ....    LDR      r1,[r8,#0x2e4]
        0x0001cb08:    f04f0b3f    O.?.    MOV      r11,#0x3f
        0x0001cb0c:    2c3f        ?,      CMP      r4,#0x3f
        0x0001cb0e:    bf38        8.      IT       CC
        0x0001cb10:    46a3        .F      MOVCC    r11,r4
        0x0001cb12:    f021717c    !.|q    BIC      r1,r1,#0x3f00000
        0x0001cb16:    2800        .(      CMP      r0,#0
        0x0001cb18:    f04f0014    O...    MOV      r0,#0x14
        0x0001cb1c:    bf58        X.      IT       PL
        0x0001cb1e:    ea415102    A..Q    ORRPL    r1,r1,r2,LSL #20
        0x0001cb22:    f8c812e4    ....    STR      r1,[r8,#0x2e4]
        0x0001cb26:    f7fdfc45    ..E.    BL       am_hal_delay_us ; 0x1a3b4
        0x0001cb2a:    f8d80000    ....    LDR      r0,[r8,#0]
        0x0001cb2e:    2c00        .,      CMP      r4,#0
        0x0001cb30:    f020003f     .?.    BIC      r0,r0,#0x3f
        0x0001cb34:    bf58        X.      IT       PL
        0x0001cb36:    ea40000b    @...    ORRPL    r0,r0,r11
        0x0001cb3a:    f8c80000    ....    STR      r0,[r8,#0]
        0x0001cb3e:    f8dd8004    ....    LDR      r8,[sp,#4]
        0x0001cb42:    9803        ..      LDR      r0,[sp,#0xc]
        0x0001cb44:    f7fdfdac    ....    BL       am_hal_interrupt_master_set ; 0x1a6a0
        0x0001cb48:    2014        .       MOVS     r0,#0x14
        0x0001cb4a:    f7fdfc33    ..3.    BL       am_hal_delay_us ; 0x1a3b4
        0x0001cb4e:    f7fdfd9f    ....    BL       am_hal_interrupt_master_disable ; 0x1a690
        0x0001cb52:    9002        ..      STR      r0,[sp,#8]
        0x0001cb54:    6838        8h      LDR      r0,[r7,#0]
        0x0001cb56:    4328        (C      ORRS     r0,r0,r5
        0x0001cb58:    6038        8`      STR      r0,[r7,#0]
        0x0001cb5a:    9802        ..      LDR      r0,[sp,#8]
        0x0001cb5c:    f7fdfda0    ....    BL       am_hal_interrupt_master_set ; 0x1a6a0
        0x0001cb60:    2701        .'      MOVS     r7,#1
        0x0001cb62:    2005        .       MOVS     r0,#5
        0x0001cb64:    4641        AF      MOV      r1,r8
        0x0001cb66:    464a        JF      MOV      r2,r9
        0x0001cb68:    464b        KF      MOV      r3,r9
        0x0001cb6a:    9700        ..      STR      r7,[sp,#0]
        0x0001cb6c:    f7fdfc6a    ..j.    BL       am_hal_delay_us_status_check ; 0x1a444
        0x0001cb70:    2800        .(      CMP      r0,#0
        0x0001cb72:    d041        A.      BEQ      0x1cbf8 ; am_hal_pwrctrl_periph_enable + 372
        0x0001cb74:    4607        .F      MOV      r7,r0
        0x0001cb76:    2e14        ..      CMP      r6,#0x14
        0x0001cb78:    d18a        ..      BNE      0x1ca90 ; am_hal_pwrctrl_periph_enable + 12
        0x0001cb7a:    f8da400c    ...@    LDR      r4,[r10,#0xc]
        0x0001cb7e:    2c00        .,      CMP      r4,#0
        0x0001cb80:    f43faf86    ?...    BEQ.W    0x1ca90 ; am_hal_pwrctrl_periph_enable + 12
        0x0001cb84:    f89a0000    ....    LDRB     r0,[r10,#0]
        0x0001cb88:    2800        .(      CMP      r0,#0
        0x0001cb8a:    f43faf81    ?...    BEQ.W    0x1ca90 ; am_hal_pwrctrl_periph_enable + 12
        0x0001cb8e:    f7fdfd7f    ....    BL       am_hal_interrupt_master_disable ; 0x1a690
        0x0001cb92:    9004        ..      STR      r0,[sp,#0x10]
        0x0001cb94:    2000        .       MOVS     r0,#0
        0x0001cb96:    f88a0000    ....    STRB     r0,[r10,#0]
        0x0001cb9a:    e9da0101    ....    LDRD     r0,r1,[r10,#4]
        0x0001cb9e:    263f        ?&      MOVS     r6,#0x3f
        0x0001cba0:    1b05        ..      SUBS     r5,r0,r4
        0x0001cba2:    1b09        ..      SUBS     r1,r1,r4
        0x0001cba4:    2488        .$      MOVS     r4,#0x88
        0x0001cba6:    2d3f        ?-      CMP      r5,#0x3f
        0x0001cba8:    bf38        8.      IT       CC
        0x0001cbaa:    462e        .F      MOVCC    r6,r5
        0x0001cbac:    e9ca5101    ...Q    STRD     r5,r1,[r10,#4]
        0x0001cbb0:    f2c40402    ....    MOVT     r4,#0x4002
        0x0001cbb4:    6822        "h      LDR      r2,[r4,#0]
        0x0001cbb6:    203f        ?       MOVS     r0,#0x3f
        0x0001cbb8:    293f        ?)      CMP      r1,#0x3f
        0x0001cbba:    bf38        8.      IT       CC
        0x0001cbbc:    4608        .F      MOVCC    r0,r1
        0x0001cbbe:    f022023f    ".?.    BIC      r2,r2,#0x3f
        0x0001cbc2:    2900        .)      CMP      r1,#0
        0x0001cbc4:    bf58        X.      IT       PL
        0x0001cbc6:    4302        .C      ORRPL    r2,r2,r0
        0x0001cbc8:    2014        .       MOVS     r0,#0x14
        0x0001cbca:    6022        "`      STR      r2,[r4,#0]
        0x0001cbcc:    f7fdfbf2    ....    BL       am_hal_delay_us ; 0x1a3b4
        0x0001cbd0:    f8d402e4    ....    LDR      r0,[r4,#0x2e4]
        0x0001cbd4:    2d00        .-      CMP      r5,#0
        0x0001cbd6:    f020707c     .|p    BIC      r0,r0,#0x3f00000
        0x0001cbda:    bf58        X.      IT       PL
        0x0001cbdc:    ea405006    @..P    ORRPL    r0,r0,r6,LSL #20
        0x0001cbe0:    f8c402e4    ....    STR      r0,[r4,#0x2e4]
        0x0001cbe4:    9804        ..      LDR      r0,[sp,#0x10]
        0x0001cbe6:    f7fdfd5b    ..[.    BL       am_hal_interrupt_master_set ; 0x1a6a0
        0x0001cbea:    2014        .       MOVS     r0,#0x14
        0x0001cbec:    f7fdfbe2    ....    BL       am_hal_delay_us ; 0x1a3b4
        0x0001cbf0:    4638        8F      MOV      r0,r7
        0x0001cbf2:    b005        ..      ADD      sp,sp,#0x14
        0x0001cbf4:    e8bd8ff0    ....    POP      {r4-r11,pc}
        0x0001cbf8:    2e14        ..      CMP      r6,#0x14
        0x0001cbfa:    d10c        ..      BNE      0x1cc16 ; am_hal_pwrctrl_periph_enable + 402
        0x0001cbfc:    f6417110    A..q    MOV      r1,#0x1f10
        0x0001cc00:    f2c4010c    ....    MOVT     r1,#0x400c
        0x0001cc04:    2064        d       MOVS     r0,#0x64
        0x0001cc06:    2201        ."      MOVS     r2,#1
        0x0001cc08:    2301        .#      MOVS     r3,#1
        0x0001cc0a:    f7fdfbef    ....    BL       am_hal_delay_us_status_change ; 0x1a3ec
        0x0001cc0e:    4607        .F      MOV      r7,r0
        0x0001cc10:    2800        .(      CMP      r0,#0
        0x0001cc12:    f47faf3d    ..=.    BNE      0x1ca90 ; am_hal_pwrctrl_periph_enable + 12
        0x0001cc16:    f8d80000    ....    LDR      r0,[r8,#0]
        0x0001cc1a:    ea000009    ....    AND      r0,r0,r9
        0x0001cc1e:    fab0f080    ....    CLZ      r0,r0
        0x0001cc22:    0947        G.      LSRS     r7,r0,#5
        0x0001cc24:    4638        8F      MOV      r0,r7
        0x0001cc26:    b005        ..      ADD      sp,sp,#0x14
        0x0001cc28:    e8bd8ff0    ....    POP      {r4-r11,pc}
    am_hal_pwrctrl_sram_config
        0x0001cc2c:    b570        p.      PUSH     {r4-r6,lr}
        0x0001cc2e:    b082        ..      SUB      sp,sp,#8
        0x0001cc30:    f241062c    A.,.    MOV      r6,#0x102c
        0x0001cc34:    f2c40602    ....    MOVT     r6,#0x4002
        0x0001cc38:    4604        .F      MOV      r4,r0
        0x0001cc3a:    7800        .x      LDRB     r0,[r0,#0]
        0x0001cc3c:    f8561c08    V...    LDR      r1,[r6,#-8]
        0x0001cc40:    2501        .%      MOVS     r5,#1
        0x0001cc42:    f3600101    `...    BFI      r1,r0,#0,#2
        0x0001cc46:    f8461c08    F...    STR      r1,[r6,#-8]
        0x0001cc4a:    f8563c08    V..<    LDR      r3,[r6,#-8]
        0x0001cc4e:    1f31        1.      SUBS     r1,r6,#4
        0x0001cc50:    2005        .       MOVS     r0,#5
        0x0001cc52:    2203        ."      MOVS     r2,#3
        0x0001cc54:    9500        ..      STR      r5,[sp,#0]
        0x0001cc56:    f7fdfbf5    ....    BL       am_hal_delay_us_status_check ; 0x1a444
        0x0001cc5a:    b108        ..      CBZ      r0,0x1cc60 ; am_hal_pwrctrl_sram_config + 52
        0x0001cc5c:    b002        ..      ADD      sp,sp,#8
        0x0001cc5e:    bd70        p.      POP      {r4-r6,pc}
        0x0001cc60:    f8560c04    V...    LDR      r0,[r6,#-4]
        0x0001cc64:    f8561c08    V...    LDR      r1,[r6,#-8]
        0x0001cc68:    4048        H@      EORS     r0,r0,r1
        0x0001cc6a:    0780        ..      LSLS     r0,r0,#30
        0x0001cc6c:    d002        ..      BEQ      0x1cc74 ; am_hal_pwrctrl_sram_config + 72
        0x0001cc6e:    2001        .       MOVS     r0,#1
        0x0001cc70:    b002        ..      ADD      sp,sp,#8
        0x0001cc72:    bd70        p.      POP      {r4-r6,pc}
        0x0001cc74:    7860        `x      LDRB     r0,[r4,#1]
        0x0001cc76:    6831        1h      LDR      r1,[r6,#0]
        0x0001cc78:    f3600183    `...    BFI      r1,r0,#2,#2
        0x0001cc7c:    6031        1`      STR      r1,[r6,#0]
        0x0001cc7e:    78a0        .x      LDRB     r0,[r4,#2]
        0x0001cc80:    6831        1h      LDR      r1,[r6,#0]
        0x0001cc82:    f0000003    ....    AND      r0,r0,#3
        0x0001cc86:    f02101c0    !...    BIC      r1,r1,#0xc0
        0x0001cc8a:    ea411080    A...    ORR      r0,r1,r0,LSL #6
        0x0001cc8e:    6030        0`      STR      r0,[r6,#0]
        0x0001cc90:    78e0        .x      LDRB     r0,[r4,#3]
        0x0001cc92:    6831        1h      LDR      r1,[r6,#0]
        0x0001cc94:    f0000003    ....    AND      r0,r0,#3
        0x0001cc98:    f4217140    !.@q    BIC      r1,r1,#0x300
        0x0001cc9c:    ea412000    A..     ORR      r0,r1,r0,LSL #8
        0x0001cca0:    6030        0`      STR      r0,[r6,#0]
        0x0001cca2:    7920         y      LDRB     r0,[r4,#4]
        0x0001cca4:    6831        1h      LDR      r1,[r6,#0]
        0x0001cca6:    f3601105    `...    BFI      r1,r0,#4,#2
        0x0001ccaa:    6031        1`      STR      r1,[r6,#0]
        0x0001ccac:    7960        `y      LDRB     r0,[r4,#5]
        0x0001ccae:    2803        .(      CMP      r0,#3
        0x0001ccb0:    d808        ..      BHI      0x1ccc4 ; am_hal_pwrctrl_sram_config + 152
        0x0001ccb2:    e8dff000    ....    TBB      [pc,r0]
    $d.7
        0x0001ccb6:    0b03        ..      DCW    2819
        0x0001ccb8:    bf00170f    ....    DCD    3204454159
    $t.8
        0x0001ccbc:    6830        0h      LDR      r0,[r6,#0]
        0x0001ccbe:    f0400003    @...    ORR      r0,r0,#3
        0x0001ccc2:    6030        0`      STR      r0,[r6,#0]
        0x0001ccc4:    2000        .       MOVS     r0,#0
        0x0001ccc6:    b002        ..      ADD      sp,sp,#8
        0x0001ccc8:    bd70        p.      POP      {r4-r6,pc}
        0x0001ccca:    bf00        ..      NOP      
        0x0001cccc:    6830        0h      LDR      r0,[r6,#0]
        0x0001ccce:    2102        .!      MOVS     r1,#2
        0x0001ccd0:    e002        ..      B        0x1ccd8 ; am_hal_pwrctrl_sram_config + 172
        0x0001ccd2:    bf00        ..      NOP      
        0x0001ccd4:    6830        0h      LDR      r0,[r6,#0]
        0x0001ccd6:    2101        .!      MOVS     r1,#1
        0x0001ccd8:    f3610001    a...    BFI      r0,r1,#0,#2
        0x0001ccdc:    6030        0`      STR      r0,[r6,#0]
        0x0001ccde:    2000        .       MOVS     r0,#0
        0x0001cce0:    b002        ..      ADD      sp,sp,#8
        0x0001cce2:    bd70        p.      POP      {r4-r6,pc}
        0x0001cce4:    6830        0h      LDR      r0,[r6,#0]
        0x0001cce6:    f0200003     ...    BIC      r0,r0,#3
        0x0001ccea:    6030        0`      STR      r0,[r6,#0]
        0x0001ccec:    2000        .       MOVS     r0,#0
        0x0001ccee:    b002        ..      ADD      sp,sp,#8
        0x0001ccf0:    bd70        p.      POP      {r4-r6,pc}
        0x0001ccf2:    0000        ..      MOVS     r0,r0
    am_hal_rtc_osc_disable
        0x0001ccf4:    f6440100    D...    MOVW     r1,#0x4800
        0x0001ccf8:    f2c40100    ....    MOVT     r1,#0x4000
        0x0001ccfc:    6808        .h      LDR      r0,[r1,#0]
        0x0001ccfe:    f0400210    @...    ORR      r2,r0,#0x10
        0x0001cd02:    2000        .       MOVS     r0,#0
        0x0001cd04:    600a        .`      STR      r2,[r1,#0]
        0x0001cd06:    4770        pG      BX       lr
    am_hal_tpiu_enable
        0x0001cd08:    f647337f    G..3    MOV      r3,#0x7b7f
        0x0001cd0c:    f6cf73e1    ...s    MOVT     r3,#0xffe1
        0x0001cd10:    2104        .!      MOVS     r1,#4
        0x0001cd12:    18c2        ..      ADDS     r2,r0,r3
        0x0001cd14:    f5034361    ..aC    ADD      r3,r3,#0xe100
        0x0001cd18:    f2ce0104    ....    MOVT     r1,#0xe004
        0x0001cd1c:    f04f0c00    O...    MOV      r12,#0
        0x0001cd20:    429a        .B      CMP      r2,r3
        0x0001cd22:    f6464300    F..C    MOVW     r3,#0x6c00
        0x0001cd26:    f8c1c300    ....    STR      r12,[r1,#0x300]
        0x0001cd2a:    bf3c        <.      ITT      CC
        0x0001cd2c:    f2442040    D.@     MOVCC    r0,#0x4240
        0x0001cd30:    f2c0000f    ....    MOVTCC   r0,#0xf
        0x0001cd34:    f2c023dc    ...#    MOVT     r3,#0x2dc
        0x0001cd38:    fbb3f0f0    ....    UDIV     r0,r3,r0
        0x0001cd3c:    2201        ."      MOVS     r2,#1
        0x0001cd3e:    3801        .8      SUBS     r0,#1
        0x0001cd40:    b280        ..      UXTH     r0,r0
        0x0001cd42:    600a        .`      STR      r2,[r1,#0]
        0x0001cd44:    60c8        .`      STR      r0,[r1,#0xc]
        0x0001cd46:    2002        .       MOVS     r0,#2
        0x0001cd48:    f8c100ec    ....    STR      r0,[r1,#0xec]
        0x0001cd4c:    f6407100    @..q    MOVW     r1,#0xf00
        0x0001cd50:    f2ce0104    ....    MOVT     r1,#0xe004
        0x0001cd54:    f8c1c000    ....    STR      r12,[r1,#0]
        0x0001cd58:    f2402150    @.P!    MOVW     r1,#0x250
        0x0001cd5c:    f2c40102    ....    MOVT     r1,#0x4002
        0x0001cd60:    680a        .h      LDR      r2,[r1,#0]
        0x0001cd62:    f3600243    `.C.    BFI      r2,r0,#1,#3
        0x0001cd66:    600a        .`      STR      r2,[r1,#0]
        0x0001cd68:    6808        .h      LDR      r0,[r1,#0]
        0x0001cd6a:    f0400201    @...    ORR      r2,r0,#1
        0x0001cd6e:    2064        d       MOVS     r0,#0x64
        0x0001cd70:    600a        .`      STR      r2,[r1,#0]
        0x0001cd72:    f7fdbb1f    ....    B        am_hal_delay_us ; 0x1a3b4
        0x0001cd76:    0000        ..      MOVS     r0,r0
    am_mspi0_isr
        0x0001cd78:    b580        ..      PUSH     {r7,lr}
        0x0001cd7a:    b082        ..      SUB      sp,sp,#8
        0x0001cd7c:    f644508c    D..P    MOV      r0,#0x4d8c
        0x0001cd80:    f2c10000    ....    MOVT     r0,#0x1000
        0x0001cd84:    9000        ..      STR      r0,[sp,#0]
        0x0001cd86:    6800        .h      LDR      r0,[r0,#0]
        0x0001cd88:    a901        ..      ADD      r1,sp,#4
        0x0001cd8a:    2200        ."      MOVS     r2,#0
        0x0001cd8c:    f7fff948    ..H.    BL       am_hal_mspi_interrupt_status_get ; 0x1c020
        0x0001cd90:    9800        ..      LDR      r0,[sp,#0]
        0x0001cd92:    6800        .h      LDR      r0,[r0,#0]
        0x0001cd94:    9901        ..      LDR      r1,[sp,#4]
        0x0001cd96:    f7feff87    ....    BL       am_hal_mspi_interrupt_clear ; 0x1bca8
        0x0001cd9a:    9800        ..      LDR      r0,[sp,#0]
        0x0001cd9c:    6800        .h      LDR      r0,[r0,#0]
        0x0001cd9e:    9901        ..      LDR      r1,[sp,#4]
        0x0001cda0:    f7feffc8    ....    BL       am_hal_mspi_interrupt_service ; 0x1bd34
        0x0001cda4:    b002        ..      ADD      sp,sp,#8
        0x0001cda6:    bd80        ..      POP      {r7,pc}
    am_util_delay_ms
        0x0001cda8:    b580        ..      PUSH     {r7,lr}
        0x0001cdaa:    b082        ..      SUB      sp,sp,#8
        0x0001cdac:    9001        ..      STR      r0,[sp,#4]
        0x0001cdae:    9801        ..      LDR      r0,[sp,#4]
        0x0001cdb0:    f44f717a    O.zq    MOV      r1,#0x3e8
        0x0001cdb4:    4348        HC      MULS     r0,r1,r0
        0x0001cdb6:    f7fdfafd    ....    BL       am_hal_delay_us ; 0x1a3b4
        0x0001cdba:    b002        ..      ADD      sp,sp,#8
        0x0001cdbc:    bd80        ..      POP      {r7,pc}
        0x0001cdbe:    0000        ..      MOVS     r0,r0
    am_util_delay_us
        0x0001cdc0:    b580        ..      PUSH     {r7,lr}
        0x0001cdc2:    b082        ..      SUB      sp,sp,#8
        0x0001cdc4:    9001        ..      STR      r0,[sp,#4]
        0x0001cdc6:    9801        ..      LDR      r0,[sp,#4]
        0x0001cdc8:    f7fdfaf4    ....    BL       am_hal_delay_us ; 0x1a3b4
        0x0001cdcc:    b002        ..      ADD      sp,sp,#8
        0x0001cdce:    bd80        ..      POP      {r7,pc}
    am_util_faultisr_collect_data
        0x0001cdd0:    b580        ..      PUSH     {r7,lr}
        0x0001cdd2:    b096        ..      SUB      sp,sp,#0x58
        0x0001cdd4:    9015        ..      STR      r0,[sp,#0x54]
        0x0001cdd6:    2000        .       MOVS     r0,#0
        0x0001cdd8:    9008        ..      STR      r0,[sp,#0x20]
        0x0001cdda:    9007        ..      STR      r0,[sp,#0x1c]
        0x0001cddc:    9006        ..      STR      r0,[sp,#0x18]
        0x0001cdde:    9005        ..      STR      r0,[sp,#0x14]
        0x0001cde0:    9004        ..      STR      r0,[sp,#0x10]
        0x0001cde2:    9003        ..      STR      r0,[sp,#0xc]
        0x0001cde4:    9002        ..      STR      r0,[sp,#8]
        0x0001cde6:    9802        ..      LDR      r0,[sp,#8]
        0x0001cde8:    9013        ..      STR      r0,[sp,#0x4c]
        0x0001cdea:    f64e5028    N.(P    MOV      r0,#0xed28
        0x0001cdee:    f2ce0000    ....    MOVT     r0,#0xe000
        0x0001cdf2:    6800        .h      LDR      r0,[r0,#0]
        0x0001cdf4:    9013        ..      STR      r0,[sp,#0x4c]
        0x0001cdf6:    9813        ..      LDR      r0,[sp,#0x4c]
        0x0001cdf8:    f88d0050    ..P.    STRB     r0,[sp,#0x50]
        0x0001cdfc:    9813        ..      LDR      r0,[sp,#0x4c]
        0x0001cdfe:    0a00        ..      LSRS     r0,r0,#8
        0x0001ce00:    f88d0051    ..Q.    STRB     r0,[sp,#0x51]
        0x0001ce04:    9813        ..      LDR      r0,[sp,#0x4c]
        0x0001ce06:    0c00        ..      LSRS     r0,r0,#16
        0x0001ce08:    f8ad0052    ..R.    STRH     r0,[sp,#0x52]
        0x0001ce0c:    f64e5038    N.8P    MOV      r0,#0xed38
        0x0001ce10:    f2ce0000    ....    MOVT     r0,#0xe000
        0x0001ce14:    6800        .h      LDR      r0,[r0,#0]
        0x0001ce16:    9012        ..      STR      r0,[sp,#0x48]
        0x0001ce18:    9815        ..      LDR      r0,[sp,#0x54]
        0x0001ce1a:    f000fcd7    ....    BL       am_valid_sp ; 0x1d7cc
        0x0001ce1e:    b3d8        ..      CBZ      r0,0x1ce98 ; am_util_faultisr_collect_data + 200
        0x0001ce20:    e7ff        ..      B        0x1ce22 ; am_util_faultisr_collect_data + 82
        0x0001ce22:    f89d0051    ..Q.    LDRB     r0,[sp,#0x51]
        0x0001ce26:    0780        ..      LSLS     r0,r0,#30
        0x0001ce28:    2800        .(      CMP      r0,#0
        0x0001ce2a:    d506        ..      BPL      0x1ce3a ; am_util_faultisr_collect_data + 106
        0x0001ce2c:    e7ff        ..      B        0x1ce2e ; am_util_faultisr_collect_data + 94
        0x0001ce2e:    9915        ..      LDR      r1,[sp,#0x54]
        0x0001ce30:    2006        .       MOVS     r0,#6
        0x0001ce32:    f7fcfe95    ....    BL       am_getStackedReg ; 0x19b60
        0x0001ce36:    9001        ..      STR      r0,[sp,#4]
        0x0001ce38:    e003        ..      B        0x1ce42 ; am_util_faultisr_collect_data + 114
        0x0001ce3a:    f04f30ff    O..0    MOV      r0,#0xffffffff
        0x0001ce3e:    9001        ..      STR      r0,[sp,#4]
        0x0001ce40:    e7ff        ..      B        0x1ce42 ; am_util_faultisr_collect_data + 114
        0x0001ce42:    9801        ..      LDR      r0,[sp,#4]
        0x0001ce44:    9011        ..      STR      r0,[sp,#0x44]
        0x0001ce46:    9915        ..      LDR      r1,[sp,#0x54]
        0x0001ce48:    2000        .       MOVS     r0,#0
        0x0001ce4a:    f7fcfe89    ....    BL       am_getStackedReg ; 0x19b60
        0x0001ce4e:    9009        ..      STR      r0,[sp,#0x24]
        0x0001ce50:    9915        ..      LDR      r1,[sp,#0x54]
        0x0001ce52:    2001        .       MOVS     r0,#1
        0x0001ce54:    f7fcfe84    ....    BL       am_getStackedReg ; 0x19b60
        0x0001ce58:    900a        ..      STR      r0,[sp,#0x28]
        0x0001ce5a:    9915        ..      LDR      r1,[sp,#0x54]
        0x0001ce5c:    2002        .       MOVS     r0,#2
        0x0001ce5e:    f7fcfe7f    ....    BL       am_getStackedReg ; 0x19b60
        0x0001ce62:    900b        ..      STR      r0,[sp,#0x2c]
        0x0001ce64:    9915        ..      LDR      r1,[sp,#0x54]
        0x0001ce66:    2003        .       MOVS     r0,#3
        0x0001ce68:    f7fcfe7a    ..z.    BL       am_getStackedReg ; 0x19b60
        0x0001ce6c:    900c        ..      STR      r0,[sp,#0x30]
        0x0001ce6e:    9915        ..      LDR      r1,[sp,#0x54]
        0x0001ce70:    2004        .       MOVS     r0,#4
        0x0001ce72:    f7fcfe75    ..u.    BL       am_getStackedReg ; 0x19b60
        0x0001ce76:    900d        ..      STR      r0,[sp,#0x34]
        0x0001ce78:    9915        ..      LDR      r1,[sp,#0x54]
        0x0001ce7a:    2005        .       MOVS     r0,#5
        0x0001ce7c:    f7fcfe70    ..p.    BL       am_getStackedReg ; 0x19b60
        0x0001ce80:    900e        ..      STR      r0,[sp,#0x38]
        0x0001ce82:    9915        ..      LDR      r1,[sp,#0x54]
        0x0001ce84:    2006        .       MOVS     r0,#6
        0x0001ce86:    f7fcfe6b    ..k.    BL       am_getStackedReg ; 0x19b60
        0x0001ce8a:    900f        ..      STR      r0,[sp,#0x3c]
        0x0001ce8c:    9915        ..      LDR      r1,[sp,#0x54]
        0x0001ce8e:    2007        .       MOVS     r0,#7
        0x0001ce90:    f7fcfe66    ..f.    BL       am_getStackedReg ; 0x19b60
        0x0001ce94:    9010        ..      STR      r0,[sp,#0x40]
        0x0001ce96:    e7ff        ..      B        0x1ce98 ; am_util_faultisr_collect_data + 200
        0x0001ce98:    a803        ..      ADD      r0,sp,#0xc
        0x0001ce9a:    f7fdfb29    ..).    BL       am_hal_fault_status_get ; 0x1a4f0
        0x0001ce9e:    f64f70fa    O..p    MOV      r0,#0xfffa
        0x0001cea2:    f2c00001    ....    MOVT     r0,#1
        0x0001cea6:    f000f927    ..'.    BL       am_util_stdio_printf ; 0x1d0f8
        0x0001ceaa:    9815        ..      LDR      r0,[sp,#0x54]
        0x0001ceac:    f000fc8e    ....    BL       am_valid_sp ; 0x1d7cc
        0x0001ceb0:    b938        8.      CBNZ     r0,0x1cec2 ; am_util_faultisr_collect_data + 242
        0x0001ceb2:    e7ff        ..      B        0x1ceb4 ; am_util_faultisr_collect_data + 228
        0x0001ceb4:    f64f7089    O..p    MOV      r0,#0xff89
        0x0001ceb8:    f2c00001    ....    MOVT     r0,#1
        0x0001cebc:    f000f91c    ....    BL       am_util_stdio_printf ; 0x1d0f8
        0x0001cec0:    e03e        >.      B        0x1cf40 ; am_util_faultisr_collect_data + 368
        0x0001cec2:    f2400027    @.'.    MOVW     r0,#0x27
        0x0001cec6:    f2c00002    ....    MOVT     r0,#2
        0x0001ceca:    f000f915    ....    BL       am_util_stdio_printf ; 0x1d0f8
        0x0001cece:    9909        ..      LDR      r1,[sp,#0x24]
        0x0001ced0:    f240203a    @.:     MOV      r0,#0x23a
        0x0001ced4:    f2c00002    ....    MOVT     r0,#2
        0x0001ced8:    f000f90e    ....    BL       am_util_stdio_printf ; 0x1d0f8
        0x0001cedc:    990a        ..      LDR      r1,[sp,#0x28]
        0x0001cede:    f240204c    @.L     MOVW     r0,#0x24c
        0x0001cee2:    f2c00002    ....    MOVT     r0,#2
        0x0001cee6:    f000f907    ....    BL       am_util_stdio_printf ; 0x1d0f8
        0x0001ceea:    990b        ..      LDR      r1,[sp,#0x2c]
        0x0001ceec:    f240205e    @.^     MOV      r0,#0x25e
        0x0001cef0:    f2c00002    ....    MOVT     r0,#2
        0x0001cef4:    f000f900    ....    BL       am_util_stdio_printf ; 0x1d0f8
        0x0001cef8:    990c        ..      LDR      r1,[sp,#0x30]
        0x0001cefa:    f2402070    @.p     MOVW     r0,#0x270
        0x0001cefe:    f2c00002    ....    MOVT     r0,#2
        0x0001cf02:    f000f8f9    ....    BL       am_util_stdio_printf ; 0x1d0f8
        0x0001cf06:    990d        ..      LDR      r1,[sp,#0x34]
        0x0001cf08:    f24020ce    @..     MOV      r0,#0x2ce
        0x0001cf0c:    f2c00002    ....    MOVT     r0,#2
        0x0001cf10:    f000f8f2    ....    BL       am_util_stdio_printf ; 0x1d0f8
        0x0001cf14:    990e        ..      LDR      r1,[sp,#0x38]
        0x0001cf16:    f2402094    @..     MOVW     r0,#0x294
        0x0001cf1a:    f2c00002    ....    MOVT     r0,#2
        0x0001cf1e:    f000f8eb    ....    BL       am_util_stdio_printf ; 0x1d0f8
        0x0001cf22:    990f        ..      LDR      r1,[sp,#0x3c]
        0x0001cf24:    f2402082    @..     MOV      r0,#0x282
        0x0001cf28:    f2c00002    ....    MOVT     r0,#2
        0x0001cf2c:    f000f8e4    ....    BL       am_util_stdio_printf ; 0x1d0f8
        0x0001cf30:    9910        ..      LDR      r1,[sp,#0x40]
        0x0001cf32:    f2400014    @...    MOVW     r0,#0x14
        0x0001cf36:    f2c00002    ....    MOVT     r0,#2
        0x0001cf3a:    f000f8dd    ....    BL       am_util_stdio_printf ; 0x1d0f8
        0x0001cf3e:    e7ff        ..      B        0x1cf40 ; am_util_faultisr_collect_data + 368
        0x0001cf40:    f2400053    @.S.    MOVW     r0,#0x53
        0x0001cf44:    f2c00002    ....    MOVT     r0,#2
        0x0001cf48:    f000f8d6    ....    BL       am_util_stdio_printf ; 0x1d0f8
        0x0001cf4c:    9911        ..      LDR      r1,[sp,#0x44]
        0x0001cf4e:    f24020e0    @..     MOVW     r0,#0x2e0
        0x0001cf52:    f2c00002    ....    MOVT     r0,#2
        0x0001cf56:    f000f8cf    ....    BL       am_util_stdio_printf ; 0x1d0f8
        0x0001cf5a:    9912        ..      LDR      r1,[sp,#0x48]
        0x0001cf5c:    f24020a6    @..     MOV      r0,#0x2a6
        0x0001cf60:    f2c00002    ....    MOVT     r0,#2
        0x0001cf64:    f000f8c8    ....    BL       am_util_stdio_printf ; 0x1d0f8
        0x0001cf68:    f89d1050    ..P.    LDRB     r1,[sp,#0x50]
        0x0001cf6c:    f240107e    @.~.    MOVW     r0,#0x17e
        0x0001cf70:    f2c00002    ....    MOVT     r0,#2
        0x0001cf74:    f000f8c0    ....    BL       am_util_stdio_printf ; 0x1d0f8
        0x0001cf78:    f8bd1052    ..R.    LDRH     r1,[sp,#0x52]
        0x0001cf7c:    f24010ad    @...    MOV      r0,#0x1ad
        0x0001cf80:    f2c00002    ....    MOVT     r0,#2
        0x0001cf84:    f000f8b8    ....    BL       am_util_stdio_printf ; 0x1d0f8
        0x0001cf88:    f89d1051    ..Q.    LDRB     r1,[sp,#0x51]
        0x0001cf8c:    f2401054    @.T.    MOVW     r0,#0x154
        0x0001cf90:    f2c00002    ....    MOVT     r0,#2
        0x0001cf94:    f000f8b0    ....    BL       am_util_stdio_printf ; 0x1d0f8
        0x0001cf98:    2080        .       MOVS     r0,#0x80
        0x0001cf9a:    9002        ..      STR      r0,[sp,#8]
        0x0001cf9c:    e7ff        ..      B        0x1cf9e ; am_util_faultisr_collect_data + 462
        0x0001cf9e:    9802        ..      LDR      r0,[sp,#8]
        0x0001cfa0:    2800        .(      CMP      r0,#0
        0x0001cfa2:    d062        b.      BEQ      0x1d06a ; am_util_faultisr_collect_data + 666
        0x0001cfa4:    e7ff        ..      B        0x1cfa6 ; am_util_faultisr_collect_data + 470
        0x0001cfa6:    f89d0051    ..Q.    LDRB     r0,[sp,#0x51]
        0x0001cfaa:    9902        ..      LDR      r1,[sp,#8]
        0x0001cfac:    4008        .@      ANDS     r0,r0,r1
        0x0001cfae:    4601        .F      MOV      r1,r0
        0x0001cfb0:    9100        ..      STR      r1,[sp,#0]
        0x0001cfb2:    2801        .(      CMP      r0,#1
        0x0001cfb4:    d04d        M.      BEQ      0x1d052 ; am_util_faultisr_collect_data + 642
        0x0001cfb6:    e7ff        ..      B        0x1cfb8 ; am_util_faultisr_collect_data + 488
        0x0001cfb8:    9800        ..      LDR      r0,[sp,#0]
        0x0001cfba:    2802        .(      CMP      r0,#2
        0x0001cfbc:    d042        B.      BEQ      0x1d044 ; am_util_faultisr_collect_data + 628
        0x0001cfbe:    e7ff        ..      B        0x1cfc0 ; am_util_faultisr_collect_data + 496
        0x0001cfc0:    9800        ..      LDR      r0,[sp,#0]
        0x0001cfc2:    2804        .(      CMP      r0,#4
        0x0001cfc4:    d037        7.      BEQ      0x1d036 ; am_util_faultisr_collect_data + 614
        0x0001cfc6:    e7ff        ..      B        0x1cfc8 ; am_util_faultisr_collect_data + 504
        0x0001cfc8:    9800        ..      LDR      r0,[sp,#0]
        0x0001cfca:    2808        .(      CMP      r0,#8
        0x0001cfcc:    d02c        ,.      BEQ      0x1d028 ; am_util_faultisr_collect_data + 600
        0x0001cfce:    e7ff        ..      B        0x1cfd0 ; am_util_faultisr_collect_data + 512
        0x0001cfd0:    9800        ..      LDR      r0,[sp,#0]
        0x0001cfd2:    2810        .(      CMP      r0,#0x10
        0x0001cfd4:    d021        !.      BEQ      0x1d01a ; am_util_faultisr_collect_data + 586
        0x0001cfd6:    e7ff        ..      B        0x1cfd8 ; am_util_faultisr_collect_data + 520
        0x0001cfd8:    9800        ..      LDR      r0,[sp,#0]
        0x0001cfda:    2820         (      CMP      r0,#0x20
        0x0001cfdc:    d016        ..      BEQ      0x1d00c ; am_util_faultisr_collect_data + 572
        0x0001cfde:    e7ff        ..      B        0x1cfe0 ; am_util_faultisr_collect_data + 528
        0x0001cfe0:    9800        ..      LDR      r0,[sp,#0]
        0x0001cfe2:    2840        @(      CMP      r0,#0x40
        0x0001cfe4:    d00b        ..      BEQ      0x1cffe ; am_util_faultisr_collect_data + 558
        0x0001cfe6:    e7ff        ..      B        0x1cfe8 ; am_util_faultisr_collect_data + 536
        0x0001cfe8:    9800        ..      LDR      r0,[sp,#0]
        0x0001cfea:    2880        .(      CMP      r0,#0x80
        0x0001cfec:    d138        8.      BNE      0x1d060 ; am_util_faultisr_collect_data + 656
        0x0001cfee:    e7ff        ..      B        0x1cff0 ; am_util_faultisr_collect_data + 544
        0x0001cff0:    f2400088    @...    MOVW     r0,#0x88
        0x0001cff4:    f2c00002    ....    MOVT     r0,#2
        0x0001cff8:    f000f87e    ..~.    BL       am_util_stdio_printf ; 0x1d0f8
        0x0001cffc:    e031        1.      B        0x1d062 ; am_util_faultisr_collect_data + 658
        0x0001cffe:    f240006b    @.k.    MOVW     r0,#0x6b
        0x0001d002:    f2c00002    ....    MOVT     r0,#2
        0x0001d006:    f000f877    ..w.    BL       am_util_stdio_printf ; 0x1d0f8
        0x0001d00a:    e02a        *.      B        0x1d062 ; am_util_faultisr_collect_data + 658
        0x0001d00c:    f24000fd    @...    MOVW     r0,#0xfd
        0x0001d010:    f2c00002    ....    MOVT     r0,#2
        0x0001d014:    f000f870    ..p.    BL       am_util_stdio_printf ; 0x1d0f8
        0x0001d018:    e023        #.      B        0x1d062 ; am_util_faultisr_collect_data + 658
        0x0001d01a:    f24000c5    @...    MOVW     r0,#0xc5
        0x0001d01e:    f2c00002    ....    MOVT     r0,#2
        0x0001d022:    f000f869    ..i.    BL       am_util_stdio_printf ; 0x1d0f8
        0x0001d026:    e01c        ..      B        0x1d062 ; am_util_faultisr_collect_data + 658
        0x0001d028:    f24000e0    @...    MOVW     r0,#0xe0
        0x0001d02c:    f2c00002    ....    MOVT     r0,#2
        0x0001d030:    f000f862    ..b.    BL       am_util_stdio_printf ; 0x1d0f8
        0x0001d034:    e015        ..      B        0x1d062 ; am_util_faultisr_collect_data + 658
        0x0001d036:    f2401018    @...    MOVW     r0,#0x118
        0x0001d03a:    f2c00002    ....    MOVT     r0,#2
        0x0001d03e:    f000f85b    ..[.    BL       am_util_stdio_printf ; 0x1d0f8
        0x0001d042:    e00e        ..      B        0x1d062 ; am_util_faultisr_collect_data + 658
        0x0001d044:    f24000a6    @...    MOVW     r0,#0xa6
        0x0001d048:    f2c00002    ....    MOVT     r0,#2
        0x0001d04c:    f000f854    ..T.    BL       am_util_stdio_printf ; 0x1d0f8
        0x0001d050:    e007        ..      B        0x1d062 ; am_util_faultisr_collect_data + 658
        0x0001d052:    f2401038    @.8.    MOVW     r0,#0x138
        0x0001d056:    f2c00002    ....    MOVT     r0,#2
        0x0001d05a:    f000f84d    ..M.    BL       am_util_stdio_printf ; 0x1d0f8
        0x0001d05e:    e000        ..      B        0x1d062 ; am_util_faultisr_collect_data + 658
        0x0001d060:    e7ff        ..      B        0x1d062 ; am_util_faultisr_collect_data + 658
        0x0001d062:    9802        ..      LDR      r0,[sp,#8]
        0x0001d064:    0840        @.      LSRS     r0,r0,#1
        0x0001d066:    9002        ..      STR      r0,[sp,#8]
        0x0001d068:    e799        ..      B        0x1cf9e ; am_util_faultisr_collect_data + 462
        0x0001d06a:    f89d000c    ....    LDRB     r0,[sp,#0xc]
        0x0001d06e:    07c0        ..      LSLS     r0,r0,#31
        0x0001d070:    b950        P.      CBNZ     r0,0x1d088 ; am_util_faultisr_collect_data + 696
        0x0001d072:    e7ff        ..      B        0x1d074 ; am_util_faultisr_collect_data + 676
        0x0001d074:    f89d0014    ....    LDRB     r0,[sp,#0x14]
        0x0001d078:    07c0        ..      LSLS     r0,r0,#31
        0x0001d07a:    b928        (.      CBNZ     r0,0x1d088 ; am_util_faultisr_collect_data + 696
        0x0001d07c:    e7ff        ..      B        0x1d07e ; am_util_faultisr_collect_data + 686
        0x0001d07e:    f89d001c    ....    LDRB     r0,[sp,#0x1c]
        0x0001d082:    07c0        ..      LSLS     r0,r0,#31
        0x0001d084:    b138        8.      CBZ      r0,0x1d096 ; am_util_faultisr_collect_data + 710
        0x0001d086:    e7ff        ..      B        0x1d088 ; am_util_faultisr_collect_data + 696
        0x0001d088:    f2400041    @.A.    MOVW     r0,#0x41
        0x0001d08c:    f2c00002    ....    MOVT     r0,#2
        0x0001d090:    f000f832    ..2.    BL       am_util_stdio_printf ; 0x1d0f8
        0x0001d094:    e7ff        ..      B        0x1d096 ; am_util_faultisr_collect_data + 710
        0x0001d096:    f89d000c    ....    LDRB     r0,[sp,#0xc]
        0x0001d09a:    07c0        ..      LSLS     r0,r0,#31
        0x0001d09c:    b140        @.      CBZ      r0,0x1d0b0 ; am_util_faultisr_collect_data + 736
        0x0001d09e:    e7ff        ..      B        0x1d0a0 ; am_util_faultisr_collect_data + 720
        0x0001d0a0:    9904        ..      LDR      r1,[sp,#0x10]
        0x0001d0a2:    f24010fa    @...    MOVW     r0,#0x1fa
        0x0001d0a6:    f2c00002    ....    MOVT     r0,#2
        0x0001d0aa:    f000f825    ..%.    BL       am_util_stdio_printf ; 0x1d0f8
        0x0001d0ae:    e7ff        ..      B        0x1d0b0 ; am_util_faultisr_collect_data + 736
        0x0001d0b0:    f89d0014    ....    LDRB     r0,[sp,#0x14]
        0x0001d0b4:    07c0        ..      LSLS     r0,r0,#31
        0x0001d0b6:    b140        @.      CBZ      r0,0x1d0ca ; am_util_faultisr_collect_data + 762
        0x0001d0b8:    e7ff        ..      B        0x1d0ba ; am_util_faultisr_collect_data + 746
        0x0001d0ba:    9906        ..      LDR      r1,[sp,#0x18]
        0x0001d0bc:    f24010d9    @...    MOV      r0,#0x1d9
        0x0001d0c0:    f2c00002    ....    MOVT     r0,#2
        0x0001d0c4:    f000f818    ....    BL       am_util_stdio_printf ; 0x1d0f8
        0x0001d0c8:    e7ff        ..      B        0x1d0ca ; am_util_faultisr_collect_data + 762
        0x0001d0ca:    f89d001c    ....    LDRB     r0,[sp,#0x1c]
        0x0001d0ce:    07c0        ..      LSLS     r0,r0,#31
        0x0001d0d0:    b140        @.      CBZ      r0,0x1d0e4 ; am_util_faultisr_collect_data + 788
        0x0001d0d2:    e7ff        ..      B        0x1d0d4 ; am_util_faultisr_collect_data + 772
        0x0001d0d4:    9908        ..      LDR      r1,[sp,#0x20]
        0x0001d0d6:    f240201b    @..     MOV      r0,#0x21b
        0x0001d0da:    f2c00002    ....    MOVT     r0,#2
        0x0001d0de:    f000f80b    ....    BL       am_util_stdio_printf ; 0x1d0f8
        0x0001d0e2:    e7ff        ..      B        0x1d0e4 ; am_util_faultisr_collect_data + 788
        0x0001d0e4:    f64f70cc    O..p    MOV      r0,#0xffcc
        0x0001d0e8:    f2c00001    ....    MOVT     r0,#1
        0x0001d0ec:    f000f804    ....    BL       am_util_stdio_printf ; 0x1d0f8
        0x0001d0f0:    2000        .       MOVS     r0,#0
        0x0001d0f2:    9002        ..      STR      r0,[sp,#8]
        0x0001d0f4:    e7ff        ..      B        0x1d0f6 ; am_util_faultisr_collect_data + 806
        0x0001d0f6:    e7fe        ..      B        0x1d0f6 ; am_util_faultisr_collect_data + 806
    am_util_stdio_printf
        0x0001d0f8:    b083        ..      SUB      sp,sp,#0xc
        0x0001d0fa:    b580        ..      PUSH     {r7,lr}
        0x0001d0fc:    b085        ..      SUB      sp,sp,#0x14
        0x0001d0fe:    9309        ..      STR      r3,[sp,#0x24]
        0x0001d100:    9208        ..      STR      r2,[sp,#0x20]
        0x0001d102:    9107        ..      STR      r1,[sp,#0x1c]
        0x0001d104:    9003        ..      STR      r0,[sp,#0xc]
        0x0001d106:    f6441084    D...    MOV      r0,#0x4984
        0x0001d10a:    f2c10000    ....    MOVT     r0,#0x1000
        0x0001d10e:    6800        .h      LDR      r0,[r0,#0]
        0x0001d110:    b918        ..      CBNZ     r0,0x1d11a ; am_util_stdio_printf + 34
        0x0001d112:    e7ff        ..      B        0x1d114 ; am_util_stdio_printf + 28
        0x0001d114:    2000        .       MOVS     r0,#0
        0x0001d116:    9004        ..      STR      r0,[sp,#0x10]
        0x0001d118:    e016        ..      B        0x1d148 ; am_util_stdio_printf + 80
        0x0001d11a:    a807        ..      ADD      r0,sp,#0x1c
        0x0001d11c:    9001        ..      STR      r0,[sp,#4]
        0x0001d11e:    9903        ..      LDR      r1,[sp,#0xc]
        0x0001d120:    9a01        ..      LDR      r2,[sp,#4]
        0x0001d122:    f6441088    D...    MOV      r0,#0x4988
        0x0001d126:    f2c10000    ....    MOVT     r0,#0x1000
        0x0001d12a:    9000        ..      STR      r0,[sp,#0]
        0x0001d12c:    f000f824    ..$.    BL       am_util_stdio_vsprintf ; 0x1d178
        0x0001d130:    4601        .F      MOV      r1,r0
        0x0001d132:    9800        ..      LDR      r0,[sp,#0]
        0x0001d134:    9102        ..      STR      r1,[sp,#8]
        0x0001d136:    f6441184    D...    MOV      r1,#0x4984
        0x0001d13a:    f2c10100    ....    MOVT     r1,#0x1000
        0x0001d13e:    6809        .h      LDR      r1,[r1,#0]
        0x0001d140:    4788        .G      BLX      r1
        0x0001d142:    9802        ..      LDR      r0,[sp,#8]
        0x0001d144:    9004        ..      STR      r0,[sp,#0x10]
        0x0001d146:    e7ff        ..      B        0x1d148 ; am_util_stdio_printf + 80
        0x0001d148:    9804        ..      LDR      r0,[sp,#0x10]
        0x0001d14a:    b005        ..      ADD      sp,sp,#0x14
        0x0001d14c:    e8bd4080    ...@    POP      {r7,lr}
        0x0001d150:    b003        ..      ADD      sp,sp,#0xc
        0x0001d152:    4770        pG      BX       lr
    am_util_stdio_printf_init
        0x0001d154:    b081        ..      SUB      sp,sp,#4
        0x0001d156:    9000        ..      STR      r0,[sp,#0]
        0x0001d158:    9800        ..      LDR      r0,[sp,#0]
        0x0001d15a:    f6441184    D...    MOV      r1,#0x4984
        0x0001d15e:    f2c10100    ....    MOVT     r1,#0x1000
        0x0001d162:    6008        .`      STR      r0,[r1,#0]
        0x0001d164:    b001        ..      ADD      sp,sp,#4
        0x0001d166:    4770        pG      BX       lr
    am_util_stdio_terminal_clear
        0x0001d168:    b580        ..      PUSH     {r7,lr}
        0x0001d16a:    f24020fc    @..     MOVW     r0,#0x2fc
        0x0001d16e:    f2c00002    ....    MOVT     r0,#2
        0x0001d172:    f7ffffc1    ....    BL       am_util_stdio_printf ; 0x1d0f8
        0x0001d176:    bd80        ..      POP      {r7,pc}
    am_util_stdio_vsprintf
        0x0001d178:    b580        ..      PUSH     {r7,lr}
        0x0001d17a:    b09e        ..      SUB      sp,sp,#0x78
        0x0001d17c:    921d        ..      STR      r2,[sp,#0x74]
        0x0001d17e:    901c        ..      STR      r0,[sp,#0x70]
        0x0001d180:    911b        ..      STR      r1,[sp,#0x6c]
        0x0001d182:    2000        .       MOVS     r0,#0
        0x0001d184:    9014        ..      STR      r0,[sp,#0x50]
        0x0001d186:    900e        ..      STR      r0,[sp,#0x38]
        0x0001d188:    e7ff        ..      B        0x1d18a ; am_util_stdio_vsprintf + 18
        0x0001d18a:    981b        ..      LDR      r0,[sp,#0x6c]
        0x0001d18c:    7800        .x      LDRB     r0,[r0,#0]
        0x0001d18e:    2800        .(      CMP      r0,#0
        0x0001d190:    f0008312    ....    BEQ.W    0x1d7b8 ; am_util_stdio_vsprintf + 1600
        0x0001d194:    e7ff        ..      B        0x1d196 ; am_util_stdio_vsprintf + 30
        0x0001d196:    2006        .       MOVS     r0,#6
        0x0001d198:    9011        ..      STR      r0,[sp,#0x44]
        0x0001d19a:    981b        ..      LDR      r0,[sp,#0x6c]
        0x0001d19c:    7800        .x      LDRB     r0,[r0,#0]
        0x0001d19e:    2825        %(      CMP      r0,#0x25
        0x0001d1a0:    d027        '.      BEQ      0x1d1f2 ; am_util_stdio_vsprintf + 122
        0x0001d1a2:    e7ff        ..      B        0x1d1a4 ; am_util_stdio_vsprintf + 44
        0x0001d1a4:    981c        ..      LDR      r0,[sp,#0x70]
        0x0001d1a6:    b1e8        ..      CBZ      r0,0x1d1e4 ; am_util_stdio_vsprintf + 108
        0x0001d1a8:    e7ff        ..      B        0x1d1aa ; am_util_stdio_vsprintf + 50
        0x0001d1aa:    981b        ..      LDR      r0,[sp,#0x6c]
        0x0001d1ac:    7800        .x      LDRB     r0,[r0,#0]
        0x0001d1ae:    280a        .(      CMP      r0,#0xa
        0x0001d1b0:    d111        ..      BNE      0x1d1d6 ; am_util_stdio_vsprintf + 94
        0x0001d1b2:    e7ff        ..      B        0x1d1b4 ; am_util_stdio_vsprintf + 60
        0x0001d1b4:    f6441080    D...    MOVW     r0,#0x4980
        0x0001d1b8:    f2c10000    ....    MOVT     r0,#0x1000
        0x0001d1bc:    7800        .x      LDRB     r0,[r0,#0]
        0x0001d1be:    07c0        ..      LSLS     r0,r0,#31
        0x0001d1c0:    b148        H.      CBZ      r0,0x1d1d6 ; am_util_stdio_vsprintf + 94
        0x0001d1c2:    e7ff        ..      B        0x1d1c4 ; am_util_stdio_vsprintf + 76
        0x0001d1c4:    991c        ..      LDR      r1,[sp,#0x70]
        0x0001d1c6:    1c48        H.      ADDS     r0,r1,#1
        0x0001d1c8:    901c        ..      STR      r0,[sp,#0x70]
        0x0001d1ca:    200d        .       MOVS     r0,#0xd
        0x0001d1cc:    7008        .p      STRB     r0,[r1,#0]
        0x0001d1ce:    9814        ..      LDR      r0,[sp,#0x50]
        0x0001d1d0:    3001        .0      ADDS     r0,#1
        0x0001d1d2:    9014        ..      STR      r0,[sp,#0x50]
        0x0001d1d4:    e7ff        ..      B        0x1d1d6 ; am_util_stdio_vsprintf + 94
        0x0001d1d6:    981b        ..      LDR      r0,[sp,#0x6c]
        0x0001d1d8:    7800        .x      LDRB     r0,[r0,#0]
        0x0001d1da:    991c        ..      LDR      r1,[sp,#0x70]
        0x0001d1dc:    1c4a        J.      ADDS     r2,r1,#1
        0x0001d1de:    921c        ..      STR      r2,[sp,#0x70]
        0x0001d1e0:    7008        .p      STRB     r0,[r1,#0]
        0x0001d1e2:    e7ff        ..      B        0x1d1e4 ; am_util_stdio_vsprintf + 108
        0x0001d1e4:    981b        ..      LDR      r0,[sp,#0x6c]
        0x0001d1e6:    3001        .0      ADDS     r0,#1
        0x0001d1e8:    901b        ..      STR      r0,[sp,#0x6c]
        0x0001d1ea:    9814        ..      LDR      r0,[sp,#0x50]
        0x0001d1ec:    3001        .0      ADDS     r0,#1
        0x0001d1ee:    9014        ..      STR      r0,[sp,#0x50]
        0x0001d1f0:    e7cb        ..      B        0x1d18a ; am_util_stdio_vsprintf + 18
        0x0001d1f2:    981b        ..      LDR      r0,[sp,#0x6c]
        0x0001d1f4:    3001        .0      ADDS     r0,#1
        0x0001d1f6:    901b        ..      STR      r0,[sp,#0x6c]
        0x0001d1f8:    2000        .       MOVS     r0,#0
        0x0001d1fa:    f88d0040    ..@.    STRB     r0,[sp,#0x40]
        0x0001d1fe:    f88d0041    ..A.    STRB     r0,[sp,#0x41]
        0x0001d202:    2020                MOVS     r0,#0x20
        0x0001d204:    f88d0042    ..B.    STRB     r0,[sp,#0x42]
        0x0001d208:    981b        ..      LDR      r0,[sp,#0x6c]
        0x0001d20a:    7800        .x      LDRB     r0,[r0,#0]
        0x0001d20c:    2830        0(      CMP      r0,#0x30
        0x0001d20e:    d107        ..      BNE      0x1d220 ; am_util_stdio_vsprintf + 168
        0x0001d210:    e7ff        ..      B        0x1d212 ; am_util_stdio_vsprintf + 154
        0x0001d212:    2030        0       MOVS     r0,#0x30
        0x0001d214:    f88d0042    ..B.    STRB     r0,[sp,#0x42]
        0x0001d218:    981b        ..      LDR      r0,[sp,#0x6c]
        0x0001d21a:    3001        .0      ADDS     r0,#1
        0x0001d21c:    901b        ..      STR      r0,[sp,#0x6c]
        0x0001d21e:    e7ff        ..      B        0x1d220 ; am_util_stdio_vsprintf + 168
        0x0001d220:    981b        ..      LDR      r0,[sp,#0x6c]
        0x0001d222:    a915        ..      ADD      r1,sp,#0x54
        0x0001d224:    f000fc10    ....    BL       decstr_to_int ; 0x1da48
        0x0001d228:    9013        ..      STR      r0,[sp,#0x4c]
        0x0001d22a:    9915        ..      LDR      r1,[sp,#0x54]
        0x0001d22c:    981b        ..      LDR      r0,[sp,#0x6c]
        0x0001d22e:    4408        .D      ADD      r0,r0,r1
        0x0001d230:    901b        ..      STR      r0,[sp,#0x6c]
        0x0001d232:    981b        ..      LDR      r0,[sp,#0x6c]
        0x0001d234:    7800        .x      LDRB     r0,[r0,#0]
        0x0001d236:    2873        s(      CMP      r0,#0x73
        0x0001d238:    d009        ..      BEQ      0x1d24e ; am_util_stdio_vsprintf + 214
        0x0001d23a:    e7ff        ..      B        0x1d23c ; am_util_stdio_vsprintf + 196
        0x0001d23c:    9813        ..      LDR      r0,[sp,#0x4c]
        0x0001d23e:    f1b03fff    ...?    CMP      r0,#0xffffffff
        0x0001d242:    dc04        ..      BGT      0x1d24e ; am_util_stdio_vsprintf + 214
        0x0001d244:    e7ff        ..      B        0x1d246 ; am_util_stdio_vsprintf + 206
        0x0001d246:    9813        ..      LDR      r0,[sp,#0x4c]
        0x0001d248:    4240        @B      RSBS     r0,r0,#0
        0x0001d24a:    9013        ..      STR      r0,[sp,#0x4c]
        0x0001d24c:    e7ff        ..      B        0x1d24e ; am_util_stdio_vsprintf + 214
        0x0001d24e:    981b        ..      LDR      r0,[sp,#0x6c]
        0x0001d250:    7800        .x      LDRB     r0,[r0,#0]
        0x0001d252:    282e        .(      CMP      r0,#0x2e
        0x0001d254:    d10d        ..      BNE      0x1d272 ; am_util_stdio_vsprintf + 250
        0x0001d256:    e7ff        ..      B        0x1d258 ; am_util_stdio_vsprintf + 224
        0x0001d258:    981b        ..      LDR      r0,[sp,#0x6c]
        0x0001d25a:    3001        .0      ADDS     r0,#1
        0x0001d25c:    901b        ..      STR      r0,[sp,#0x6c]
        0x0001d25e:    981b        ..      LDR      r0,[sp,#0x6c]
        0x0001d260:    a915        ..      ADD      r1,sp,#0x54
        0x0001d262:    f000fbf1    ....    BL       decstr_to_int ; 0x1da48
        0x0001d266:    9011        ..      STR      r0,[sp,#0x44]
        0x0001d268:    9915        ..      LDR      r1,[sp,#0x54]
        0x0001d26a:    981b        ..      LDR      r0,[sp,#0x6c]
        0x0001d26c:    4408        .D      ADD      r0,r0,r1
        0x0001d26e:    901b        ..      STR      r0,[sp,#0x6c]
        0x0001d270:    e7ff        ..      B        0x1d272 ; am_util_stdio_vsprintf + 250
        0x0001d272:    981b        ..      LDR      r0,[sp,#0x6c]
        0x0001d274:    7800        .x      LDRB     r0,[r0,#0]
        0x0001d276:    286c        l(      CMP      r0,#0x6c
        0x0001d278:    d110        ..      BNE      0x1d29c ; am_util_stdio_vsprintf + 292
        0x0001d27a:    e7ff        ..      B        0x1d27c ; am_util_stdio_vsprintf + 260
        0x0001d27c:    981b        ..      LDR      r0,[sp,#0x6c]
        0x0001d27e:    3001        .0      ADDS     r0,#1
        0x0001d280:    901b        ..      STR      r0,[sp,#0x6c]
        0x0001d282:    981b        ..      LDR      r0,[sp,#0x6c]
        0x0001d284:    7800        .x      LDRB     r0,[r0,#0]
        0x0001d286:    286c        l(      CMP      r0,#0x6c
        0x0001d288:    d107        ..      BNE      0x1d29a ; am_util_stdio_vsprintf + 290
        0x0001d28a:    e7ff        ..      B        0x1d28c ; am_util_stdio_vsprintf + 276
        0x0001d28c:    981b        ..      LDR      r0,[sp,#0x6c]
        0x0001d28e:    3001        .0      ADDS     r0,#1
        0x0001d290:    901b        ..      STR      r0,[sp,#0x6c]
        0x0001d292:    2001        .       MOVS     r0,#1
        0x0001d294:    f88d0040    ..@.    STRB     r0,[sp,#0x40]
        0x0001d298:    e7ff        ..      B        0x1d29a ; am_util_stdio_vsprintf + 290
        0x0001d29a:    e7ff        ..      B        0x1d29c ; am_util_stdio_vsprintf + 292
        0x0001d29c:    981b        ..      LDR      r0,[sp,#0x6c]
        0x0001d29e:    7800        .x      LDRB     r0,[r0,#0]
        0x0001d2a0:    3846        F8      SUBS     r0,r0,#0x46
        0x0001d2a2:    4601        .F      MOV      r1,r0
        0x0001d2a4:    910b        ..      STR      r1,[sp,#0x2c]
        0x0001d2a6:    2832        2(      CMP      r0,#0x32
        0x0001d2a8:    f2008273    ..s.    BHI.W    0x1d792 ; am_util_stdio_vsprintf + 1562
        0x0001d2ac:    990b        ..      LDR      r1,[sp,#0x2c]
        0x0001d2ae:    e8dff011    ....    TBH      [pc,r1,LSL #1]
    $d.4
        0x0001d2b2:    0224        $.      DCW    548
        0x0001d2b4:    02700270    p.p.    DCD    40895088
        0x0001d2b8:    02700270    p.p.    DCD    40895088
        0x0001d2bc:    02700270    p.p.    DCD    40895088
        0x0001d2c0:    02700270    p.p.    DCD    40895088
        0x0001d2c4:    02700270    p.p.    DCD    40895088
        0x0001d2c8:    02700270    p.p.    DCD    40895088
        0x0001d2cc:    02700270    p.p.    DCD    40895088
        0x0001d2d0:    02700270    p.p.    DCD    40895088
        0x0001d2d4:    00bf0270    p...    DCD    12518000
        0x0001d2d8:    02700270    p.p.    DCD    40895088
        0x0001d2dc:    02700270    p.p.    DCD    40895088
        0x0001d2e0:    02700270    p.p.    DCD    40895088
        0x0001d2e4:    02700270    p.p.    DCD    40895088
        0x0001d2e8:    02700270    p.p.    DCD    40895088
        0x0001d2ec:    016f0033    3.o.    DCD    24051763
        0x0001d2f0:    02240270    p.$.    DCD    35914352
        0x0001d2f4:    02700270    p.p.    DCD    40895088
        0x0001d2f8:    0270016f    o.p.    DCD    40894831
        0x0001d2fc:    02700270    p.p.    DCD    40895088
        0x0001d300:    02700270    p.p.    DCD    40895088
        0x0001d304:    02700270    p.p.    DCD    40895088
        0x0001d308:    02700270    p.p.    DCD    40895088
        0x0001d30c:    02700047    G.p.    DCD    40894535
        0x0001d310:    02700119    ..p.    DCD    40894745
        0x0001d314:    00bb0270    p...    DCD    12255856
    $t.5
        0x0001d318:    981d        ..      LDR      r0,[sp,#0x74]
        0x0001d31a:    1d01        ..      ADDS     r1,r0,#4
        0x0001d31c:    911d        ..      STR      r1,[sp,#0x74]
        0x0001d31e:    6800        .h      LDR      r0,[r0,#0]
        0x0001d320:    f88d0043    ..C.    STRB     r0,[sp,#0x43]
        0x0001d324:    981c        ..      LDR      r0,[sp,#0x70]
        0x0001d326:    b138        8.      CBZ      r0,0x1d338 ; am_util_stdio_vsprintf + 448
        0x0001d328:    e7ff        ..      B        0x1d32a ; am_util_stdio_vsprintf + 434
        0x0001d32a:    f89d0043    ..C.    LDRB     r0,[sp,#0x43]
        0x0001d32e:    991c        ..      LDR      r1,[sp,#0x70]
        0x0001d330:    1c4a        J.      ADDS     r2,r1,#1
        0x0001d332:    921c        ..      STR      r2,[sp,#0x70]
        0x0001d334:    7008        .p      STRB     r0,[r1,#0]
        0x0001d336:    e7ff        ..      B        0x1d338 ; am_util_stdio_vsprintf + 448
        0x0001d338:    9814        ..      LDR      r0,[sp,#0x50]
        0x0001d33a:    3001        .0      ADDS     r0,#1
        0x0001d33c:    9014        ..      STR      r0,[sp,#0x50]
        0x0001d33e:    e236        6.      B        0x1d7ae ; am_util_stdio_vsprintf + 1590
        0x0001d340:    981d        ..      LDR      r0,[sp,#0x74]
        0x0001d342:    1d01        ..      ADDS     r1,r0,#4
        0x0001d344:    911d        ..      STR      r1,[sp,#0x74]
        0x0001d346:    6800        .h      LDR      r0,[r0,#0]
        0x0001d348:    901a        ..      STR      r0,[sp,#0x68]
        0x0001d34a:    981a        ..      LDR      r0,[sp,#0x68]
        0x0001d34c:    f002f91c    ....    BL       simple_strlen ; 0x1f588
        0x0001d350:    900e        ..      STR      r0,[sp,#0x38]
        0x0001d352:    9813        ..      LDR      r0,[sp,#0x4c]
        0x0001d354:    2801        .(      CMP      r0,#1
        0x0001d356:    db25        %.      BLT      0x1d3a4 ; am_util_stdio_vsprintf + 556
        0x0001d358:    e7ff        ..      B        0x1d35a ; am_util_stdio_vsprintf + 482
        0x0001d35a:    980e        ..      LDR      r0,[sp,#0x38]
        0x0001d35c:    9913        ..      LDR      r1,[sp,#0x4c]
        0x0001d35e:    4288        .B      CMP      r0,r1
        0x0001d360:    d21f        ..      BCS      0x1d3a2 ; am_util_stdio_vsprintf + 554
        0x0001d362:    e7ff        ..      B        0x1d364 ; am_util_stdio_vsprintf + 492
        0x0001d364:    990e        ..      LDR      r1,[sp,#0x38]
        0x0001d366:    9813        ..      LDR      r0,[sp,#0x4c]
        0x0001d368:    1a40        @.      SUBS     r0,r0,r1
        0x0001d36a:    9013        ..      STR      r0,[sp,#0x4c]
        0x0001d36c:    981c        ..      LDR      r0,[sp,#0x70]
        0x0001d36e:    f89d1042    ..B.    LDRB     r1,[sp,#0x42]
        0x0001d372:    9a13        ..      LDR      r2,[sp,#0x4c]
        0x0001d374:    f001fe6e    ..n.    BL       padbuffer ; 0x1f054
        0x0001d378:    9013        ..      STR      r0,[sp,#0x4c]
        0x0001d37a:    981c        ..      LDR      r0,[sp,#0x70]
        0x0001d37c:    b118        ..      CBZ      r0,0x1d386 ; am_util_stdio_vsprintf + 526
        0x0001d37e:    e7ff        ..      B        0x1d380 ; am_util_stdio_vsprintf + 520
        0x0001d380:    9813        ..      LDR      r0,[sp,#0x4c]
        0x0001d382:    900a        ..      STR      r0,[sp,#0x28]
        0x0001d384:    e002        ..      B        0x1d38c ; am_util_stdio_vsprintf + 532
        0x0001d386:    2000        .       MOVS     r0,#0
        0x0001d388:    900a        ..      STR      r0,[sp,#0x28]
        0x0001d38a:    e7ff        ..      B        0x1d38c ; am_util_stdio_vsprintf + 532
        0x0001d38c:    990a        ..      LDR      r1,[sp,#0x28]
        0x0001d38e:    981c        ..      LDR      r0,[sp,#0x70]
        0x0001d390:    4408        .D      ADD      r0,r0,r1
        0x0001d392:    901c        ..      STR      r0,[sp,#0x70]
        0x0001d394:    9913        ..      LDR      r1,[sp,#0x4c]
        0x0001d396:    9814        ..      LDR      r0,[sp,#0x50]
        0x0001d398:    4408        .D      ADD      r0,r0,r1
        0x0001d39a:    9014        ..      STR      r0,[sp,#0x50]
        0x0001d39c:    2000        .       MOVS     r0,#0
        0x0001d39e:    9013        ..      STR      r0,[sp,#0x4c]
        0x0001d3a0:    e7ff        ..      B        0x1d3a2 ; am_util_stdio_vsprintf + 554
        0x0001d3a2:    e7ff        ..      B        0x1d3a4 ; am_util_stdio_vsprintf + 556
        0x0001d3a4:    e7ff        ..      B        0x1d3a6 ; am_util_stdio_vsprintf + 558
        0x0001d3a6:    981a        ..      LDR      r0,[sp,#0x68]
        0x0001d3a8:    7800        .x      LDRB     r0,[r0,#0]
        0x0001d3aa:    b188        ..      CBZ      r0,0x1d3d0 ; am_util_stdio_vsprintf + 600
        0x0001d3ac:    e7ff        ..      B        0x1d3ae ; am_util_stdio_vsprintf + 566
        0x0001d3ae:    981c        ..      LDR      r0,[sp,#0x70]
        0x0001d3b0:    b138        8.      CBZ      r0,0x1d3c2 ; am_util_stdio_vsprintf + 586
        0x0001d3b2:    e7ff        ..      B        0x1d3b4 ; am_util_stdio_vsprintf + 572
        0x0001d3b4:    981a        ..      LDR      r0,[sp,#0x68]
        0x0001d3b6:    7800        .x      LDRB     r0,[r0,#0]
        0x0001d3b8:    991c        ..      LDR      r1,[sp,#0x70]
        0x0001d3ba:    1c4a        J.      ADDS     r2,r1,#1
        0x0001d3bc:    921c        ..      STR      r2,[sp,#0x70]
        0x0001d3be:    7008        .p      STRB     r0,[r1,#0]
        0x0001d3c0:    e7ff        ..      B        0x1d3c2 ; am_util_stdio_vsprintf + 586
        0x0001d3c2:    981a        ..      LDR      r0,[sp,#0x68]
        0x0001d3c4:    3001        .0      ADDS     r0,#1
        0x0001d3c6:    901a        ..      STR      r0,[sp,#0x68]
        0x0001d3c8:    9814        ..      LDR      r0,[sp,#0x50]
        0x0001d3ca:    3001        .0      ADDS     r0,#1
        0x0001d3cc:    9014        ..      STR      r0,[sp,#0x50]
        0x0001d3ce:    e7ea        ..      B        0x1d3a6 ; am_util_stdio_vsprintf + 558
        0x0001d3d0:    9813        ..      LDR      r0,[sp,#0x4c]
        0x0001d3d2:    b340        @.      CBZ      r0,0x1d426 ; am_util_stdio_vsprintf + 686
        0x0001d3d4:    e7ff        ..      B        0x1d3d6 ; am_util_stdio_vsprintf + 606
        0x0001d3d6:    9813        ..      LDR      r0,[sp,#0x4c]
        0x0001d3d8:    4240        @B      RSBS     r0,r0,#0
        0x0001d3da:    9013        ..      STR      r0,[sp,#0x4c]
        0x0001d3dc:    980e        ..      LDR      r0,[sp,#0x38]
        0x0001d3de:    9913        ..      LDR      r1,[sp,#0x4c]
        0x0001d3e0:    4288        .B      CMP      r0,r1
        0x0001d3e2:    d21f        ..      BCS      0x1d424 ; am_util_stdio_vsprintf + 684
        0x0001d3e4:    e7ff        ..      B        0x1d3e6 ; am_util_stdio_vsprintf + 622
        0x0001d3e6:    990e        ..      LDR      r1,[sp,#0x38]
        0x0001d3e8:    9813        ..      LDR      r0,[sp,#0x4c]
        0x0001d3ea:    1a40        @.      SUBS     r0,r0,r1
        0x0001d3ec:    9013        ..      STR      r0,[sp,#0x4c]
        0x0001d3ee:    981c        ..      LDR      r0,[sp,#0x70]
        0x0001d3f0:    f89d1042    ..B.    LDRB     r1,[sp,#0x42]
        0x0001d3f4:    9a13        ..      LDR      r2,[sp,#0x4c]
        0x0001d3f6:    f001fe2d    ..-.    BL       padbuffer ; 0x1f054
        0x0001d3fa:    9013        ..      STR      r0,[sp,#0x4c]
        0x0001d3fc:    981c        ..      LDR      r0,[sp,#0x70]
        0x0001d3fe:    b118        ..      CBZ      r0,0x1d408 ; am_util_stdio_vsprintf + 656
        0x0001d400:    e7ff        ..      B        0x1d402 ; am_util_stdio_vsprintf + 650
        0x0001d402:    9813        ..      LDR      r0,[sp,#0x4c]
        0x0001d404:    9009        ..      STR      r0,[sp,#0x24]
        0x0001d406:    e002        ..      B        0x1d40e ; am_util_stdio_vsprintf + 662
        0x0001d408:    2000        .       MOVS     r0,#0
        0x0001d40a:    9009        ..      STR      r0,[sp,#0x24]
        0x0001d40c:    e7ff        ..      B        0x1d40e ; am_util_stdio_vsprintf + 662
        0x0001d40e:    9909        ..      LDR      r1,[sp,#0x24]
        0x0001d410:    981c        ..      LDR      r0,[sp,#0x70]
        0x0001d412:    4408        .D      ADD      r0,r0,r1
        0x0001d414:    901c        ..      STR      r0,[sp,#0x70]
        0x0001d416:    9913        ..      LDR      r1,[sp,#0x4c]
        0x0001d418:    9814        ..      LDR      r0,[sp,#0x50]
        0x0001d41a:    4408        .D      ADD      r0,r0,r1
        0x0001d41c:    9014        ..      STR      r0,[sp,#0x50]
        0x0001d41e:    2000        .       MOVS     r0,#0
        0x0001d420:    9013        ..      STR      r0,[sp,#0x4c]
        0x0001d422:    e7ff        ..      B        0x1d424 ; am_util_stdio_vsprintf + 684
        0x0001d424:    e7ff        ..      B        0x1d426 ; am_util_stdio_vsprintf + 686
        0x0001d426:    e1c2        ..      B        0x1d7ae ; am_util_stdio_vsprintf + 1590
        0x0001d428:    2001        .       MOVS     r0,#1
        0x0001d42a:    f88d0041    ..A.    STRB     r0,[sp,#0x41]
        0x0001d42e:    e7ff        ..      B        0x1d430 ; am_util_stdio_vsprintf + 696
        0x0001d430:    f89d0040    ..@.    LDRB     r0,[sp,#0x40]
        0x0001d434:    07c0        ..      LSLS     r0,r0,#31
        0x0001d436:    b160        `.      CBZ      r0,0x1d452 ; am_util_stdio_vsprintf + 730
        0x0001d438:    e7ff        ..      B        0x1d43a ; am_util_stdio_vsprintf + 706
        0x0001d43a:    981d        ..      LDR      r0,[sp,#0x74]
        0x0001d43c:    3007        .0      ADDS     r0,#7
        0x0001d43e:    f0200007     ...    BIC      r0,r0,#7
        0x0001d442:    f1000108    ....    ADD      r1,r0,#8
        0x0001d446:    911d        ..      STR      r1,[sp,#0x74]
        0x0001d448:    6801        .h      LDR      r1,[r0,#0]
        0x0001d44a:    6840        @h      LDR      r0,[r0,#4]
        0x0001d44c:    9107        ..      STR      r1,[sp,#0x1c]
        0x0001d44e:    9008        ..      STR      r0,[sp,#0x20]
        0x0001d450:    e007        ..      B        0x1d462 ; am_util_stdio_vsprintf + 746
        0x0001d452:    981d        ..      LDR      r0,[sp,#0x74]
        0x0001d454:    1d01        ..      ADDS     r1,r0,#4
        0x0001d456:    911d        ..      STR      r1,[sp,#0x74]
        0x0001d458:    6801        .h      LDR      r1,[r0,#0]
        0x0001d45a:    2000        .       MOVS     r0,#0
        0x0001d45c:    9107        ..      STR      r1,[sp,#0x1c]
        0x0001d45e:    9008        ..      STR      r0,[sp,#0x20]
        0x0001d460:    e7ff        ..      B        0x1d462 ; am_util_stdio_vsprintf + 746
        0x0001d462:    9907        ..      LDR      r1,[sp,#0x1c]
        0x0001d464:    9808        ..      LDR      r0,[sp,#0x20]
        0x0001d466:    9118        ..      STR      r1,[sp,#0x60]
        0x0001d468:    9019        ..      STR      r0,[sp,#0x64]
        0x0001d46a:    9813        ..      LDR      r0,[sp,#0x4c]
        0x0001d46c:    b318        ..      CBZ      r0,0x1d4b6 ; am_util_stdio_vsprintf + 830
        0x0001d46e:    e7ff        ..      B        0x1d470 ; am_util_stdio_vsprintf + 760
        0x0001d470:    9818        ..      LDR      r0,[sp,#0x60]
        0x0001d472:    9919        ..      LDR      r1,[sp,#0x64]
        0x0001d474:    f001fd98    ....    BL       ndigits_in_hex ; 0x1efa8
        0x0001d478:    4601        .F      MOV      r1,r0
        0x0001d47a:    9813        ..      LDR      r0,[sp,#0x4c]
        0x0001d47c:    1a40        @.      SUBS     r0,r0,r1
        0x0001d47e:    9013        ..      STR      r0,[sp,#0x4c]
        0x0001d480:    981c        ..      LDR      r0,[sp,#0x70]
        0x0001d482:    f89d1042    ..B.    LDRB     r1,[sp,#0x42]
        0x0001d486:    9a13        ..      LDR      r2,[sp,#0x4c]
        0x0001d488:    f001fde4    ....    BL       padbuffer ; 0x1f054
        0x0001d48c:    9013        ..      STR      r0,[sp,#0x4c]
        0x0001d48e:    981c        ..      LDR      r0,[sp,#0x70]
        0x0001d490:    b118        ..      CBZ      r0,0x1d49a ; am_util_stdio_vsprintf + 802
        0x0001d492:    e7ff        ..      B        0x1d494 ; am_util_stdio_vsprintf + 796
        0x0001d494:    9813        ..      LDR      r0,[sp,#0x4c]
        0x0001d496:    9006        ..      STR      r0,[sp,#0x18]
        0x0001d498:    e002        ..      B        0x1d4a0 ; am_util_stdio_vsprintf + 808
        0x0001d49a:    2000        .       MOVS     r0,#0
        0x0001d49c:    9006        ..      STR      r0,[sp,#0x18]
        0x0001d49e:    e7ff        ..      B        0x1d4a0 ; am_util_stdio_vsprintf + 808
        0x0001d4a0:    9906        ..      LDR      r1,[sp,#0x18]
        0x0001d4a2:    981c        ..      LDR      r0,[sp,#0x70]
        0x0001d4a4:    4408        .D      ADD      r0,r0,r1
        0x0001d4a6:    901c        ..      STR      r0,[sp,#0x70]
        0x0001d4a8:    9913        ..      LDR      r1,[sp,#0x4c]
        0x0001d4aa:    9814        ..      LDR      r0,[sp,#0x50]
        0x0001d4ac:    4408        .D      ADD      r0,r0,r1
        0x0001d4ae:    9014        ..      STR      r0,[sp,#0x50]
        0x0001d4b0:    2000        .       MOVS     r0,#0
        0x0001d4b2:    9013        ..      STR      r0,[sp,#0x4c]
        0x0001d4b4:    e7ff        ..      B        0x1d4b6 ; am_util_stdio_vsprintf + 830
        0x0001d4b6:    9818        ..      LDR      r0,[sp,#0x60]
        0x0001d4b8:    9919        ..      LDR      r1,[sp,#0x64]
        0x0001d4ba:    9a1c        ..      LDR      r2,[sp,#0x70]
        0x0001d4bc:    f89d3041    ..A0    LDRB     r3,[sp,#0x41]
        0x0001d4c0:    f0030301    ....    AND      r3,r3,#1
        0x0001d4c4:    f002f87c    ..|.    BL       uint64_to_hexstr ; 0x1f5c0
        0x0001d4c8:    9012        ..      STR      r0,[sp,#0x48]
        0x0001d4ca:    981c        ..      LDR      r0,[sp,#0x70]
        0x0001d4cc:    b128        (.      CBZ      r0,0x1d4da ; am_util_stdio_vsprintf + 866
        0x0001d4ce:    e7ff        ..      B        0x1d4d0 ; am_util_stdio_vsprintf + 856
        0x0001d4d0:    9912        ..      LDR      r1,[sp,#0x48]
        0x0001d4d2:    981c        ..      LDR      r0,[sp,#0x70]
        0x0001d4d4:    4408        .D      ADD      r0,r0,r1
        0x0001d4d6:    901c        ..      STR      r0,[sp,#0x70]
        0x0001d4d8:    e7ff        ..      B        0x1d4da ; am_util_stdio_vsprintf + 866
        0x0001d4da:    9912        ..      LDR      r1,[sp,#0x48]
        0x0001d4dc:    9814        ..      LDR      r0,[sp,#0x50]
        0x0001d4de:    4408        .D      ADD      r0,r0,r1
        0x0001d4e0:    9014        ..      STR      r0,[sp,#0x50]
        0x0001d4e2:    e164        d.      B        0x1d7ae ; am_util_stdio_vsprintf + 1590
        0x0001d4e4:    f89d0040    ..@.    LDRB     r0,[sp,#0x40]
        0x0001d4e8:    07c0        ..      LSLS     r0,r0,#31
        0x0001d4ea:    b160        `.      CBZ      r0,0x1d506 ; am_util_stdio_vsprintf + 910
        0x0001d4ec:    e7ff        ..      B        0x1d4ee ; am_util_stdio_vsprintf + 886
        0x0001d4ee:    981d        ..      LDR      r0,[sp,#0x74]
        0x0001d4f0:    3007        .0      ADDS     r0,#7
        0x0001d4f2:    f0200007     ...    BIC      r0,r0,#7
        0x0001d4f6:    f1000108    ....    ADD      r1,r0,#8
        0x0001d4fa:    911d        ..      STR      r1,[sp,#0x74]
        0x0001d4fc:    6801        .h      LDR      r1,[r0,#0]
        0x0001d4fe:    6840        @h      LDR      r0,[r0,#4]
        0x0001d500:    9104        ..      STR      r1,[sp,#0x10]
        0x0001d502:    9005        ..      STR      r0,[sp,#0x14]
        0x0001d504:    e007        ..      B        0x1d516 ; am_util_stdio_vsprintf + 926
        0x0001d506:    981d        ..      LDR      r0,[sp,#0x74]
        0x0001d508:    1d01        ..      ADDS     r1,r0,#4
        0x0001d50a:    911d        ..      STR      r1,[sp,#0x74]
        0x0001d50c:    6801        .h      LDR      r1,[r0,#0]
        0x0001d50e:    2000        .       MOVS     r0,#0
        0x0001d510:    9104        ..      STR      r1,[sp,#0x10]
        0x0001d512:    9005        ..      STR      r0,[sp,#0x14]
        0x0001d514:    e7ff        ..      B        0x1d516 ; am_util_stdio_vsprintf + 926
        0x0001d516:    9904        ..      LDR      r1,[sp,#0x10]
        0x0001d518:    9805        ..      LDR      r0,[sp,#0x14]
        0x0001d51a:    9118        ..      STR      r1,[sp,#0x60]
        0x0001d51c:    9019        ..      STR      r0,[sp,#0x64]
        0x0001d51e:    9813        ..      LDR      r0,[sp,#0x4c]
        0x0001d520:    b318        ..      CBZ      r0,0x1d56a ; am_util_stdio_vsprintf + 1010
        0x0001d522:    e7ff        ..      B        0x1d524 ; am_util_stdio_vsprintf + 940
        0x0001d524:    9818        ..      LDR      r0,[sp,#0x60]
        0x0001d526:    9919        ..      LDR      r1,[sp,#0x64]
        0x0001d528:    f001fd76    ..v.    BL       ndigits_in_u64 ; 0x1f018
        0x0001d52c:    4601        .F      MOV      r1,r0
        0x0001d52e:    9813        ..      LDR      r0,[sp,#0x4c]
        0x0001d530:    1a40        @.      SUBS     r0,r0,r1
        0x0001d532:    9013        ..      STR      r0,[sp,#0x4c]
        0x0001d534:    981c        ..      LDR      r0,[sp,#0x70]
        0x0001d536:    f89d1042    ..B.    LDRB     r1,[sp,#0x42]
        0x0001d53a:    9a13        ..      LDR      r2,[sp,#0x4c]
        0x0001d53c:    f001fd8a    ....    BL       padbuffer ; 0x1f054
        0x0001d540:    9013        ..      STR      r0,[sp,#0x4c]
        0x0001d542:    981c        ..      LDR      r0,[sp,#0x70]
        0x0001d544:    b118        ..      CBZ      r0,0x1d54e ; am_util_stdio_vsprintf + 982
        0x0001d546:    e7ff        ..      B        0x1d548 ; am_util_stdio_vsprintf + 976
        0x0001d548:    9813        ..      LDR      r0,[sp,#0x4c]
        0x0001d54a:    9003        ..      STR      r0,[sp,#0xc]
        0x0001d54c:    e002        ..      B        0x1d554 ; am_util_stdio_vsprintf + 988
        0x0001d54e:    2000        .       MOVS     r0,#0
        0x0001d550:    9003        ..      STR      r0,[sp,#0xc]
        0x0001d552:    e7ff        ..      B        0x1d554 ; am_util_stdio_vsprintf + 988
        0x0001d554:    9903        ..      LDR      r1,[sp,#0xc]
        0x0001d556:    981c        ..      LDR      r0,[sp,#0x70]
        0x0001d558:    4408        .D      ADD      r0,r0,r1
        0x0001d55a:    901c        ..      STR      r0,[sp,#0x70]
        0x0001d55c:    9913        ..      LDR      r1,[sp,#0x4c]
        0x0001d55e:    9814        ..      LDR      r0,[sp,#0x50]
        0x0001d560:    4408        .D      ADD      r0,r0,r1
        0x0001d562:    9014        ..      STR      r0,[sp,#0x50]
        0x0001d564:    2000        .       MOVS     r0,#0
        0x0001d566:    9013        ..      STR      r0,[sp,#0x4c]
        0x0001d568:    e7ff        ..      B        0x1d56a ; am_util_stdio_vsprintf + 1010
        0x0001d56a:    9818        ..      LDR      r0,[sp,#0x60]
        0x0001d56c:    9919        ..      LDR      r1,[sp,#0x64]
        0x0001d56e:    9a1c        ..      LDR      r2,[sp,#0x70]
        0x0001d570:    f002f886    ....    BL       uint64_to_str ; 0x1f680
        0x0001d574:    9012        ..      STR      r0,[sp,#0x48]
        0x0001d576:    981c        ..      LDR      r0,[sp,#0x70]
        0x0001d578:    b128        (.      CBZ      r0,0x1d586 ; am_util_stdio_vsprintf + 1038
        0x0001d57a:    e7ff        ..      B        0x1d57c ; am_util_stdio_vsprintf + 1028
        0x0001d57c:    9912        ..      LDR      r1,[sp,#0x48]
        0x0001d57e:    981c        ..      LDR      r0,[sp,#0x70]
        0x0001d580:    4408        .D      ADD      r0,r0,r1
        0x0001d582:    901c        ..      STR      r0,[sp,#0x70]
        0x0001d584:    e7ff        ..      B        0x1d586 ; am_util_stdio_vsprintf + 1038
        0x0001d586:    9912        ..      LDR      r1,[sp,#0x48]
        0x0001d588:    9814        ..      LDR      r0,[sp,#0x50]
        0x0001d58a:    4408        .D      ADD      r0,r0,r1
        0x0001d58c:    9014        ..      STR      r0,[sp,#0x50]
        0x0001d58e:    e10e        ..      B        0x1d7ae ; am_util_stdio_vsprintf + 1590
        0x0001d590:    f89d0040    ..@.    LDRB     r0,[sp,#0x40]
        0x0001d594:    07c0        ..      LSLS     r0,r0,#31
        0x0001d596:    b160        `.      CBZ      r0,0x1d5b2 ; am_util_stdio_vsprintf + 1082
        0x0001d598:    e7ff        ..      B        0x1d59a ; am_util_stdio_vsprintf + 1058
        0x0001d59a:    981d        ..      LDR      r0,[sp,#0x74]
        0x0001d59c:    3007        .0      ADDS     r0,#7
        0x0001d59e:    f0200007     ...    BIC      r0,r0,#7
        0x0001d5a2:    f1000108    ....    ADD      r1,r0,#8
        0x0001d5a6:    911d        ..      STR      r1,[sp,#0x74]
        0x0001d5a8:    6801        .h      LDR      r1,[r0,#0]
        0x0001d5aa:    6840        @h      LDR      r0,[r0,#4]
        0x0001d5ac:    9101        ..      STR      r1,[sp,#4]
        0x0001d5ae:    9002        ..      STR      r0,[sp,#8]
        0x0001d5b0:    e007        ..      B        0x1d5c2 ; am_util_stdio_vsprintf + 1098
        0x0001d5b2:    981d        ..      LDR      r0,[sp,#0x74]
        0x0001d5b4:    1d01        ..      ADDS     r1,r0,#4
        0x0001d5b6:    911d        ..      STR      r1,[sp,#0x74]
        0x0001d5b8:    6801        .h      LDR      r1,[r0,#0]
        0x0001d5ba:    17c8        ..      ASRS     r0,r1,#31
        0x0001d5bc:    9101        ..      STR      r1,[sp,#4]
        0x0001d5be:    9002        ..      STR      r0,[sp,#8]
        0x0001d5c0:    e7ff        ..      B        0x1d5c2 ; am_util_stdio_vsprintf + 1098
        0x0001d5c2:    9901        ..      LDR      r1,[sp,#4]
        0x0001d5c4:    9802        ..      LDR      r0,[sp,#8]
        0x0001d5c6:    9116        ..      STR      r1,[sp,#0x58]
        0x0001d5c8:    9017        ..      STR      r0,[sp,#0x5c]
        0x0001d5ca:    9817        ..      LDR      r0,[sp,#0x5c]
        0x0001d5cc:    f1b03fff    ...?    CMP      r0,#0xffffffff
        0x0001d5d0:    dc0c        ..      BGT      0x1d5ec ; am_util_stdio_vsprintf + 1140
        0x0001d5d2:    e7ff        ..      B        0x1d5d4 ; am_util_stdio_vsprintf + 1116
        0x0001d5d4:    9816        ..      LDR      r0,[sp,#0x58]
        0x0001d5d6:    9a17        ..      LDR      r2,[sp,#0x5c]
        0x0001d5d8:    4241        AB      RSBS     r1,r0,#0
        0x0001d5da:    f04f0000    O...    MOV      r0,#0
        0x0001d5de:    4190        .A      SBCS     r0,r0,r2
        0x0001d5e0:    9118        ..      STR      r1,[sp,#0x60]
        0x0001d5e2:    9019        ..      STR      r0,[sp,#0x64]
        0x0001d5e4:    2001        .       MOVS     r0,#1
        0x0001d5e6:    f88d003f    ..?.    STRB     r0,[sp,#0x3f]
        0x0001d5ea:    e007        ..      B        0x1d5fc ; am_util_stdio_vsprintf + 1156
        0x0001d5ec:    9816        ..      LDR      r0,[sp,#0x58]
        0x0001d5ee:    9917        ..      LDR      r1,[sp,#0x5c]
        0x0001d5f0:    9119        ..      STR      r1,[sp,#0x64]
        0x0001d5f2:    9018        ..      STR      r0,[sp,#0x60]
        0x0001d5f4:    2000        .       MOVS     r0,#0
        0x0001d5f6:    f88d003f    ..?.    STRB     r0,[sp,#0x3f]
        0x0001d5fa:    e7ff        ..      B        0x1d5fc ; am_util_stdio_vsprintf + 1156
        0x0001d5fc:    9813        ..      LDR      r0,[sp,#0x4c]
        0x0001d5fe:    2800        .(      CMP      r0,#0
        0x0001d600:    d055        U.      BEQ      0x1d6ae ; am_util_stdio_vsprintf + 1334
        0x0001d602:    e7ff        ..      B        0x1d604 ; am_util_stdio_vsprintf + 1164
        0x0001d604:    9818        ..      LDR      r0,[sp,#0x60]
        0x0001d606:    9919        ..      LDR      r1,[sp,#0x64]
        0x0001d608:    f001fcee    ....    BL       ndigits_in_i64 ; 0x1efe8
        0x0001d60c:    4601        .F      MOV      r1,r0
        0x0001d60e:    9813        ..      LDR      r0,[sp,#0x4c]
        0x0001d610:    1a40        @.      SUBS     r0,r0,r1
        0x0001d612:    9013        ..      STR      r0,[sp,#0x4c]
        0x0001d614:    f89d003f    ..?.    LDRB     r0,[sp,#0x3f]
        0x0001d618:    07c0        ..      LSLS     r0,r0,#31
        0x0001d61a:    b1b0        ..      CBZ      r0,0x1d64a ; am_util_stdio_vsprintf + 1234
        0x0001d61c:    e7ff        ..      B        0x1d61e ; am_util_stdio_vsprintf + 1190
        0x0001d61e:    9813        ..      LDR      r0,[sp,#0x4c]
        0x0001d620:    3801        .8      SUBS     r0,#1
        0x0001d622:    9013        ..      STR      r0,[sp,#0x4c]
        0x0001d624:    f89d0042    ..B.    LDRB     r0,[sp,#0x42]
        0x0001d628:    2830        0(      CMP      r0,#0x30
        0x0001d62a:    d10d        ..      BNE      0x1d648 ; am_util_stdio_vsprintf + 1232
        0x0001d62c:    e7ff        ..      B        0x1d62e ; am_util_stdio_vsprintf + 1206
        0x0001d62e:    981c        ..      LDR      r0,[sp,#0x70]
        0x0001d630:    b130        0.      CBZ      r0,0x1d640 ; am_util_stdio_vsprintf + 1224
        0x0001d632:    e7ff        ..      B        0x1d634 ; am_util_stdio_vsprintf + 1212
        0x0001d634:    991c        ..      LDR      r1,[sp,#0x70]
        0x0001d636:    1c48        H.      ADDS     r0,r1,#1
        0x0001d638:    901c        ..      STR      r0,[sp,#0x70]
        0x0001d63a:    202d        -       MOVS     r0,#0x2d
        0x0001d63c:    7008        .p      STRB     r0,[r1,#0]
        0x0001d63e:    e7ff        ..      B        0x1d640 ; am_util_stdio_vsprintf + 1224
        0x0001d640:    9814        ..      LDR      r0,[sp,#0x50]
        0x0001d642:    3001        .0      ADDS     r0,#1
        0x0001d644:    9014        ..      STR      r0,[sp,#0x50]
        0x0001d646:    e7ff        ..      B        0x1d648 ; am_util_stdio_vsprintf + 1232
        0x0001d648:    e7ff        ..      B        0x1d64a ; am_util_stdio_vsprintf + 1234
        0x0001d64a:    981c        ..      LDR      r0,[sp,#0x70]
        0x0001d64c:    f89d1042    ..B.    LDRB     r1,[sp,#0x42]
        0x0001d650:    9a13        ..      LDR      r2,[sp,#0x4c]
        0x0001d652:    f001fcff    ....    BL       padbuffer ; 0x1f054
        0x0001d656:    9013        ..      STR      r0,[sp,#0x4c]
        0x0001d658:    981c        ..      LDR      r0,[sp,#0x70]
        0x0001d65a:    b118        ..      CBZ      r0,0x1d664 ; am_util_stdio_vsprintf + 1260
        0x0001d65c:    e7ff        ..      B        0x1d65e ; am_util_stdio_vsprintf + 1254
        0x0001d65e:    9813        ..      LDR      r0,[sp,#0x4c]
        0x0001d660:    9000        ..      STR      r0,[sp,#0]
        0x0001d662:    e002        ..      B        0x1d66a ; am_util_stdio_vsprintf + 1266
        0x0001d664:    2000        .       MOVS     r0,#0
        0x0001d666:    9000        ..      STR      r0,[sp,#0]
        0x0001d668:    e7ff        ..      B        0x1d66a ; am_util_stdio_vsprintf + 1266
        0x0001d66a:    9900        ..      LDR      r1,[sp,#0]
        0x0001d66c:    981c        ..      LDR      r0,[sp,#0x70]
        0x0001d66e:    4408        .D      ADD      r0,r0,r1
        0x0001d670:    901c        ..      STR      r0,[sp,#0x70]
        0x0001d672:    9913        ..      LDR      r1,[sp,#0x4c]
        0x0001d674:    9814        ..      LDR      r0,[sp,#0x50]
        0x0001d676:    4408        .D      ADD      r0,r0,r1
        0x0001d678:    9014        ..      STR      r0,[sp,#0x50]
        0x0001d67a:    2000        .       MOVS     r0,#0
        0x0001d67c:    9013        ..      STR      r0,[sp,#0x4c]
        0x0001d67e:    f89d003f    ..?.    LDRB     r0,[sp,#0x3f]
        0x0001d682:    07c0        ..      LSLS     r0,r0,#31
        0x0001d684:    b190        ..      CBZ      r0,0x1d6ac ; am_util_stdio_vsprintf + 1332
        0x0001d686:    e7ff        ..      B        0x1d688 ; am_util_stdio_vsprintf + 1296
        0x0001d688:    f89d0042    ..B.    LDRB     r0,[sp,#0x42]
        0x0001d68c:    2820         (      CMP      r0,#0x20
        0x0001d68e:    d10d        ..      BNE      0x1d6ac ; am_util_stdio_vsprintf + 1332
        0x0001d690:    e7ff        ..      B        0x1d692 ; am_util_stdio_vsprintf + 1306
        0x0001d692:    981c        ..      LDR      r0,[sp,#0x70]
        0x0001d694:    b130        0.      CBZ      r0,0x1d6a4 ; am_util_stdio_vsprintf + 1324
        0x0001d696:    e7ff        ..      B        0x1d698 ; am_util_stdio_vsprintf + 1312
        0x0001d698:    991c        ..      LDR      r1,[sp,#0x70]
        0x0001d69a:    1c48        H.      ADDS     r0,r1,#1
        0x0001d69c:    901c        ..      STR      r0,[sp,#0x70]
        0x0001d69e:    202d        -       MOVS     r0,#0x2d
        0x0001d6a0:    7008        .p      STRB     r0,[r1,#0]
        0x0001d6a2:    e7ff        ..      B        0x1d6a4 ; am_util_stdio_vsprintf + 1324
        0x0001d6a4:    9814        ..      LDR      r0,[sp,#0x50]
        0x0001d6a6:    3001        .0      ADDS     r0,#1
        0x0001d6a8:    9014        ..      STR      r0,[sp,#0x50]
        0x0001d6aa:    e7ff        ..      B        0x1d6ac ; am_util_stdio_vsprintf + 1332
        0x0001d6ac:    e012        ..      B        0x1d6d4 ; am_util_stdio_vsprintf + 1372
        0x0001d6ae:    f89d003f    ..?.    LDRB     r0,[sp,#0x3f]
        0x0001d6b2:    07c0        ..      LSLS     r0,r0,#31
        0x0001d6b4:    b168        h.      CBZ      r0,0x1d6d2 ; am_util_stdio_vsprintf + 1370
        0x0001d6b6:    e7ff        ..      B        0x1d6b8 ; am_util_stdio_vsprintf + 1344
        0x0001d6b8:    981c        ..      LDR      r0,[sp,#0x70]
        0x0001d6ba:    b130        0.      CBZ      r0,0x1d6ca ; am_util_stdio_vsprintf + 1362
        0x0001d6bc:    e7ff        ..      B        0x1d6be ; am_util_stdio_vsprintf + 1350
        0x0001d6be:    991c        ..      LDR      r1,[sp,#0x70]
        0x0001d6c0:    1c48        H.      ADDS     r0,r1,#1
        0x0001d6c2:    901c        ..      STR      r0,[sp,#0x70]
        0x0001d6c4:    202d        -       MOVS     r0,#0x2d
        0x0001d6c6:    7008        .p      STRB     r0,[r1,#0]
        0x0001d6c8:    e7ff        ..      B        0x1d6ca ; am_util_stdio_vsprintf + 1362
        0x0001d6ca:    9814        ..      LDR      r0,[sp,#0x50]
        0x0001d6cc:    3001        .0      ADDS     r0,#1
        0x0001d6ce:    9014        ..      STR      r0,[sp,#0x50]
        0x0001d6d0:    e7ff        ..      B        0x1d6d2 ; am_util_stdio_vsprintf + 1370
        0x0001d6d2:    e7ff        ..      B        0x1d6d4 ; am_util_stdio_vsprintf + 1372
        0x0001d6d4:    9818        ..      LDR      r0,[sp,#0x60]
        0x0001d6d6:    9919        ..      LDR      r1,[sp,#0x64]
        0x0001d6d8:    9a1c        ..      LDR      r2,[sp,#0x70]
        0x0001d6da:    f001ffd1    ....    BL       uint64_to_str ; 0x1f680
        0x0001d6de:    9012        ..      STR      r0,[sp,#0x48]
        0x0001d6e0:    981c        ..      LDR      r0,[sp,#0x70]
        0x0001d6e2:    b128        (.      CBZ      r0,0x1d6f0 ; am_util_stdio_vsprintf + 1400
        0x0001d6e4:    e7ff        ..      B        0x1d6e6 ; am_util_stdio_vsprintf + 1390
        0x0001d6e6:    9912        ..      LDR      r1,[sp,#0x48]
        0x0001d6e8:    981c        ..      LDR      r0,[sp,#0x70]
        0x0001d6ea:    4408        .D      ADD      r0,r0,r1
        0x0001d6ec:    901c        ..      STR      r0,[sp,#0x70]
        0x0001d6ee:    e7ff        ..      B        0x1d6f0 ; am_util_stdio_vsprintf + 1400
        0x0001d6f0:    9912        ..      LDR      r1,[sp,#0x48]
        0x0001d6f2:    9814        ..      LDR      r0,[sp,#0x50]
        0x0001d6f4:    4408        .D      ADD      r0,r0,r1
        0x0001d6f6:    9014        ..      STR      r0,[sp,#0x50]
        0x0001d6f8:    e059        Y.      B        0x1d7ae ; am_util_stdio_vsprintf + 1590
        0x0001d6fa:    981c        ..      LDR      r0,[sp,#0x70]
        0x0001d6fc:    2800        .(      CMP      r0,#0
        0x0001d6fe:    d047        G.      BEQ      0x1d790 ; am_util_stdio_vsprintf + 1560
        0x0001d700:    e7ff        ..      B        0x1d702 ; am_util_stdio_vsprintf + 1418
        0x0001d702:    981d        ..      LDR      r0,[sp,#0x74]
        0x0001d704:    3007        .0      ADDS     r0,#7
        0x0001d706:    f0200007     ...    BIC      r0,r0,#7
        0x0001d70a:    f1000108    ....    ADD      r1,r0,#8
        0x0001d70e:    911d        ..      STR      r1,[sp,#0x74]
        0x0001d710:    ed900b00    ....    VLDR     d0,[r0,#0]
        0x0001d714:    ec510b10    Q...    VMOV     r0,r1,d0
        0x0001d718:    f001fff6    ....    BL       __aeabi_d2f ; 0x1f708
        0x0001d71c:    900d        ..      STR      r0,[sp,#0x34]
        0x0001d71e:    991c        ..      LDR      r1,[sp,#0x70]
        0x0001d720:    2014        .       MOVS     r0,#0x14
        0x0001d722:    6008        .`      STR      r0,[r1,#0]
        0x0001d724:    ed9d0a0d    ....    VLDR     s0,[sp,#0x34]
        0x0001d728:    981c        ..      LDR      r0,[sp,#0x70]
        0x0001d72a:    9911        ..      LDR      r1,[sp,#0x44]
        0x0001d72c:    f000faee    ....    BL       ftoa ; 0x1dd0c
        0x0001d730:    9012        ..      STR      r0,[sp,#0x48]
        0x0001d732:    9812        ..      LDR      r0,[sp,#0x48]
        0x0001d734:    f1b03fff    ...?    CMP      r0,#0xffffffff
        0x0001d738:    dc21        !.      BGT      0x1d77e ; am_util_stdio_vsprintf + 1542
        0x0001d73a:    e7ff        ..      B        0x1d73c ; am_util_stdio_vsprintf + 1476
        0x0001d73c:    9812        ..      LDR      r0,[sp,#0x48]
        0x0001d73e:    3001        .0      ADDS     r0,#1
        0x0001d740:    b930        0.      CBNZ     r0,0x1d750 ; am_util_stdio_vsprintf + 1496
        0x0001d742:    e7ff        ..      B        0x1d744 ; am_util_stdio_vsprintf + 1484
        0x0001d744:    f6426030    B.0`    MOV      r0,#0x2e30
        0x0001d748:    f2c00030    ..0.    MOVT     r0,#0x30
        0x0001d74c:    900c        ..      STR      r0,[sp,#0x30]
        0x0001d74e:    e010        ..      B        0x1d772 ; am_util_stdio_vsprintf + 1530
        0x0001d750:    9812        ..      LDR      r0,[sp,#0x48]
        0x0001d752:    3002        .0      ADDS     r0,#2
        0x0001d754:    b930        0.      CBNZ     r0,0x1d764 ; am_util_stdio_vsprintf + 1516
        0x0001d756:    e7ff        ..      B        0x1d758 ; am_util_stdio_vsprintf + 1504
        0x0001d758:    f6426023    B.#`    MOV      r0,#0x2e23
        0x0001d75c:    f2c00023    ..#.    MOVT     r0,#0x23
        0x0001d760:    900c        ..      STR      r0,[sp,#0x30]
        0x0001d762:    e005        ..      B        0x1d770 ; am_util_stdio_vsprintf + 1528
        0x0001d764:    f642603f    B.?`    MOV      r0,#0x2e3f
        0x0001d768:    f2c0003f    ..?.    MOVT     r0,#0x3f
        0x0001d76c:    900c        ..      STR      r0,[sp,#0x30]
        0x0001d76e:    e7ff        ..      B        0x1d770 ; am_util_stdio_vsprintf + 1528
        0x0001d770:    e7ff        ..      B        0x1d772 ; am_util_stdio_vsprintf + 1530
        0x0001d772:    980c        ..      LDR      r0,[sp,#0x30]
        0x0001d774:    991c        ..      LDR      r1,[sp,#0x70]
        0x0001d776:    6008        .`      STR      r0,[r1,#0]
        0x0001d778:    2003        .       MOVS     r0,#3
        0x0001d77a:    9012        ..      STR      r0,[sp,#0x48]
        0x0001d77c:    e7ff        ..      B        0x1d77e ; am_util_stdio_vsprintf + 1542
        0x0001d77e:    9912        ..      LDR      r1,[sp,#0x48]
        0x0001d780:    9814        ..      LDR      r0,[sp,#0x50]
        0x0001d782:    4408        .D      ADD      r0,r0,r1
        0x0001d784:    9014        ..      STR      r0,[sp,#0x50]
        0x0001d786:    9912        ..      LDR      r1,[sp,#0x48]
        0x0001d788:    981c        ..      LDR      r0,[sp,#0x70]
        0x0001d78a:    4408        .D      ADD      r0,r0,r1
        0x0001d78c:    901c        ..      STR      r0,[sp,#0x70]
        0x0001d78e:    e7ff        ..      B        0x1d790 ; am_util_stdio_vsprintf + 1560
        0x0001d790:    e00d        ..      B        0x1d7ae ; am_util_stdio_vsprintf + 1590
        0x0001d792:    981c        ..      LDR      r0,[sp,#0x70]
        0x0001d794:    b138        8.      CBZ      r0,0x1d7a6 ; am_util_stdio_vsprintf + 1582
        0x0001d796:    e7ff        ..      B        0x1d798 ; am_util_stdio_vsprintf + 1568
        0x0001d798:    981b        ..      LDR      r0,[sp,#0x6c]
        0x0001d79a:    7800        .x      LDRB     r0,[r0,#0]
        0x0001d79c:    991c        ..      LDR      r1,[sp,#0x70]
        0x0001d79e:    1c4a        J.      ADDS     r2,r1,#1
        0x0001d7a0:    921c        ..      STR      r2,[sp,#0x70]
        0x0001d7a2:    7008        .p      STRB     r0,[r1,#0]
        0x0001d7a4:    e7ff        ..      B        0x1d7a6 ; am_util_stdio_vsprintf + 1582
        0x0001d7a6:    9814        ..      LDR      r0,[sp,#0x50]
        0x0001d7a8:    3001        .0      ADDS     r0,#1
        0x0001d7aa:    9014        ..      STR      r0,[sp,#0x50]
        0x0001d7ac:    e7ff        ..      B        0x1d7ae ; am_util_stdio_vsprintf + 1590
        0x0001d7ae:    981b        ..      LDR      r0,[sp,#0x6c]
        0x0001d7b0:    3001        .0      ADDS     r0,#1
        0x0001d7b2:    901b        ..      STR      r0,[sp,#0x6c]
        0x0001d7b4:    f7ffbce9    ....    B.W      0x1d18a ; am_util_stdio_vsprintf + 18
        0x0001d7b8:    981c        ..      LDR      r0,[sp,#0x70]
        0x0001d7ba:    b120         .      CBZ      r0,0x1d7c6 ; am_util_stdio_vsprintf + 1614
        0x0001d7bc:    e7ff        ..      B        0x1d7be ; am_util_stdio_vsprintf + 1606
        0x0001d7be:    991c        ..      LDR      r1,[sp,#0x70]
        0x0001d7c0:    2000        .       MOVS     r0,#0
        0x0001d7c2:    7008        .p      STRB     r0,[r1,#0]
        0x0001d7c4:    e7ff        ..      B        0x1d7c6 ; am_util_stdio_vsprintf + 1614
        0x0001d7c6:    9814        ..      LDR      r0,[sp,#0x50]
        0x0001d7c8:    b01e        ..      ADD      sp,sp,#0x78
        0x0001d7ca:    bd80        ..      POP      {r7,pc}
    am_valid_sp
        0x0001d7cc:    b082        ..      SUB      sp,sp,#8
        0x0001d7ce:    9000        ..      STR      r0,[sp,#0]
        0x0001d7d0:    9800        ..      LDR      r0,[sp,#0]
        0x0001d7d2:    f1b05f80    ..._    CMP      r0,#0x10000000
        0x0001d7d6:    d30c        ..      BCC      0x1d7f2 ; am_valid_sp + 38
        0x0001d7d8:    e7ff        ..      B        0x1d7da ; am_valid_sp + 14
        0x0001d7da:    9800        ..      LDR      r0,[sp,#0]
        0x0001d7dc:    f64f71ff    O..q    MOV      r1,#0xffff
        0x0001d7e0:    f2c1012b    ..+.    MOVT     r1,#0x102b
        0x0001d7e4:    4288        .B      CMP      r0,r1
        0x0001d7e6:    d804        ..      BHI      0x1d7f2 ; am_valid_sp + 38
        0x0001d7e8:    e7ff        ..      B        0x1d7ea ; am_valid_sp + 30
        0x0001d7ea:    2001        .       MOVS     r0,#1
        0x0001d7ec:    f88d0007    ....    STRB     r0,[sp,#7]
        0x0001d7f0:    e003        ..      B        0x1d7fa ; am_valid_sp + 46
        0x0001d7f2:    2000        .       MOVS     r0,#0
        0x0001d7f4:    f88d0007    ....    STRB     r0,[sp,#7]
        0x0001d7f8:    e7ff        ..      B        0x1d7fa ; am_valid_sp + 46
        0x0001d7fa:    f89d0007    ....    LDRB     r0,[sp,#7]
        0x0001d7fe:    b002        ..      ADD      sp,sp,#8
        0x0001d800:    4770        pG      BX       lr
        0x0001d802:    0000        ..      MOVS     r0,r0
    build_dma_cmdlist
        0x0001d804:    b5f0        ..      PUSH     {r4-r7,lr}
        0x0001d806:    6844        Dh      LDR      r4,[r0,#4]
        0x0001d808:    2901        .)      CMP      r1,#1
        0x0001d80a:    f04f0c00    O...    MOV      r12,#0
        0x0001d80e:    d045        E.      BEQ      0x1d89c ; build_dma_cmdlist + 152
        0x0001d810:    2900        .)      CMP      r1,#0
        0x0001d812:    f040809c    @...    BNE.W    0x1d94e ; build_dma_cmdlist + 330
        0x0001d816:    6819        .h      LDR      r1,[r3,#0]
        0x0001d818:    2500        .%      MOVS     r5,#0
        0x0001d81a:    ebb54f11    ...O    CMP      r5,r1,LSR #16
        0x0001d81e:    bf1c        ..      ITT      NE
        0x0001d820:    2005        .       MOVNE    r0,#5
        0x0001d822:    bdf0        ..      POPNE    {r4-r7,pc}
        0x0001d824:    7c9d        .|      LDRB     r5,[r3,#0x12]
        0x0001d826:    2d00        .-      CMP      r5,#0
        0x0001d828:    bf1c        ..      ITT      NE
        0x0001d82a:    2007        .       MOVNE    r0,#7
        0x0001d82c:    bdf0        ..      POPNE    {r4-r7,pc}
        0x0001d82e:    2500        .%      MOVS     r5,#0
        0x0001d830:    f2c40506    ....    MOVT     r5,#0x4006
        0x0001d834:    eb053504    ...5    ADD      r5,r5,r4,LSL #12
        0x0001d838:    689c        .h      LDR      r4,[r3,#8]
        0x0001d83a:    f1050c08    ....    ADD      r12,r5,#8
        0x0001d83e:    e9c2c400    ....    STRD     r12,r4,[r2,#0]
        0x0001d842:    89dc        ..      LDRH     r4,[r3,#0xe]
        0x0001d844:    f1050c0c    ....    ADD      r12,r5,#0xc
        0x0001d848:    e9c2c402    ....    STRD     r12,r4,[r2,#8]
        0x0001d84c:    795c        \y      LDRB     r4,[r3,#5]
        0x0001d84e:    ea4f4c01    O..L    LSL      r12,r1,#16
        0x0001d852:    f893e004    ....    LDRB     lr,[r3,#4]
        0x0001d856:    7999        .y      LDRB     r1,[r3,#6]
        0x0001d858:    7b1e        .{      LDRB     r6,[r3,#0xc]
        0x0001d85a:    ea4c24c4    L..$    ORR      r4,r12,r4,LSL #11
        0x0001d85e:    6115        .a      STR      r5,[r2,#0x10]
        0x0001d860:    79dd        .y      LDRB     r5,[r3,#7]
        0x0001d862:    f0010101    ....    AND      r1,r1,#1
        0x0001d866:    ea44244e    D.N$    ORR      r4,r4,lr,LSL #9
        0x0001d86a:    f0060603    ....    AND      r6,r6,#3
        0x0001d86e:    ea4411c1    D...    ORR      r1,r4,r1,LSL #7
        0x0001d872:    f0050507    ....    AND      r5,r5,#7
        0x0001d876:    7c1f        .|      LDRB     r7,[r3,#0x10]
        0x0001d878:    ea411186    A...    ORR      r1,r1,r6,LSL #6
        0x0001d87c:    7b40        @{      LDRB     r0,[r0,#0xd]
        0x0001d87e:    ea411145    A.E.    ORR      r1,r1,r5,LSL #5
        0x0001d882:    7c5b        [|      LDRB     r3,[r3,#0x11]
        0x0001d884:    ea412187    A..!    ORR      r1,r1,r7,LSL #10
        0x0001d888:    ea412000    A..     ORR      r0,r1,r0,LSL #8
        0x0001d88c:    ea403003    @..0    ORR      r0,r0,r3,LSL #12
        0x0001d890:    f0400001    @...    ORR      r0,r0,#1
        0x0001d894:    6150        Pa      STR      r0,[r2,#0x14]
        0x0001d896:    2000        .       MOVS     r0,#0
        0x0001d898:    bdf0        ..      POP      {r4-r7,pc}
        0x0001d89a:    bf00        ..      NOP      
        0x0001d89c:    685d        ]h      LDR      r5,[r3,#4]
        0x0001d89e:    ebbc6f15    ...o    CMP      r12,r5,LSR #24
        0x0001d8a2:    bf1c        ..      ITT      NE
        0x0001d8a4:    2005        .       MOVNE    r0,#5
        0x0001d8a6:    bdf0        ..      POPNE    {r4-r7,pc}
        0x0001d8a8:    f8d0e838    ..8.    LDR      lr,[r0,#0x838]
        0x0001d8ac:    f8d3c010    ....    LDR      r12,[r3,#0x10]
        0x0001d8b0:    f1be0f00    ....    CMP      lr,#0
        0x0001d8b4:    d006        ..      BEQ      0x1d8c4 ; build_dma_cmdlist + 192
        0x0001d8b6:    f1bc0f00    ....    CMP      r12,#0
        0x0001d8ba:    bf1c        ..      ITT      NE
        0x0001d8bc:    2007        .       MOVNE    r0,#7
        0x0001d8be:    bdf0        ..      POPNE    {r4-r7,pc}
        0x0001d8c0:    f04f0c00    O...    MOV      r12,#0
        0x0001d8c4:    2100        .!      MOVS     r1,#0
        0x0001d8c6:    f2c40106    ....    MOVT     r1,#0x4006
        0x0001d8ca:    eb013104    ...1    ADD      r1,r1,r4,LSL #12
        0x0001d8ce:    2400        .$      MOVS     r4,#0
        0x0001d8d0:    6354        Tc      STR      r4,[r2,#0x34]
        0x0001d8d2:    f5017484    ...t    ADD      r4,r1,#0x108
        0x0001d8d6:    6114        .a      STR      r4,[r2,#0x10]
        0x0001d8d8:    68dc        .h      LDR      r4,[r3,#0xc]
        0x0001d8da:    f1020720    .. .    ADD      r7,r2,#0x20
        0x0001d8de:    6154        Ta      STR      r4,[r2,#0x14]
        0x0001d8e0:    f5017486    ...t    ADD      r4,r1,#0x10c
        0x0001d8e4:    6194        .a      STR      r4,[r2,#0x18]
        0x0001d8e6:    689c        .h      LDR      r4,[r3,#8]
        0x0001d8e8:    f5017680    ...v    ADD      r6,r1,#0x100
        0x0001d8ec:    61d4        .a      STR      r4,[r2,#0x1c]
        0x0001d8ee:    f5017488    ...t    ADD      r4,r1,#0x110
        0x0001d8f2:    c770        p.      STM      r7!,{r4-r6}
        0x0001d8f4:    785d        ]x      LDRB     r5,[r3,#1]
        0x0001d8f6:    6316        .c      STR      r6,[r2,#0x30]
        0x0001d8f8:    781c        .x      LDRB     r4,[r3,#0]
        0x0001d8fa:    2604        .&      MOVS     r6,#4
        0x0001d8fc:    ea060585    ....    AND      r5,r6,r5,LSL #2
        0x0001d900:    f3641505    d...    BFI      r5,r4,#4,#2
        0x0001d904:    1cec        ..      ADDS     r4,r5,#3
        0x0001d906:    62d4        .b      STR      r4,[r2,#0x2c]
        0x0001d908:    f501742e    ...t    ADD      r4,r1,#0x2b8
        0x0001d90c:    6094        .`      STR      r4,[r2,#8]
        0x0001d90e:    6014        .`      STR      r4,[r2,#0]
        0x0001d910:    f1be0f02    ....    CMP      lr,#2
        0x0001d914:    f44f4480    O..D    MOV      r4,#0x4000
        0x0001d918:    d00a        ..      BEQ      0x1d930 ; build_dma_cmdlist + 300
        0x0001d91a:    f1be0f01    ....    CMP      lr,#1
        0x0001d91e:    d10b        ..      BNE      0x1d938 ; build_dma_cmdlist + 308
        0x0001d920:    f24407a0    D...    MOV      r7,#0x40a0
        0x0001d924:    ea4c0507    L...    ORR      r5,r12,r7
        0x0001d928:    2702        .'      MOVS     r7,#2
        0x0001d92a:    f8c07838    ..8x    STR      r7,[r0,#0x838]
        0x0001d92e:    e005        ..      B        0x1d93c ; build_dma_cmdlist + 312
        0x0001d930:    f44f4580    O..E    MOV      r5,#0x4000
        0x0001d934:    e002        ..      B        0x1d93c ; build_dma_cmdlist + 312
        0x0001d936:    bf00        ..      NOP      
        0x0001d938:    f44c4581    L..E    ORR      r5,r12,#0x4080
        0x0001d93c:    6958        Xi      LDR      r0,[r3,#0x14]
        0x0001d93e:    f501712d    ..-q    ADD      r1,r1,#0x2b4
        0x0001d942:    f04f0c00    O...    MOV      r12,#0
        0x0001d946:    6055        U`      STR      r5,[r2,#4]
        0x0001d948:    60d4        .`      STR      r4,[r2,#0xc]
        0x0001d94a:    e9c2100e    ....    STRD     r1,r0,[r2,#0x38]
        0x0001d94e:    4660        `F      MOV      r0,r12
        0x0001d950:    bdf0        ..      POP      {r4-r7,pc}
        0x0001d952:    0000        ..      MOVS     r0,r0
    count_consecutive_ones
        0x0001d954:    b083        ..      SUB      sp,sp,#0xc
        0x0001d956:    9002        ..      STR      r0,[sp,#8]
        0x0001d958:    2000        .       MOVS     r0,#0
        0x0001d95a:    9001        ..      STR      r0,[sp,#4]
        0x0001d95c:    9802        ..      LDR      r0,[sp,#8]
        0x0001d95e:    6800        .h      LDR      r0,[r0,#0]
        0x0001d960:    9000        ..      STR      r0,[sp,#0]
        0x0001d962:    e7ff        ..      B        0x1d964 ; count_consecutive_ones + 16
        0x0001d964:    9800        ..      LDR      r0,[sp,#0]
        0x0001d966:    b140        @.      CBZ      r0,0x1d97a ; count_consecutive_ones + 38
        0x0001d968:    e7ff        ..      B        0x1d96a ; count_consecutive_ones + 22
        0x0001d96a:    9800        ..      LDR      r0,[sp,#0]
        0x0001d96c:    ea000040    ..@.    AND      r0,r0,r0,LSL #1
        0x0001d970:    9000        ..      STR      r0,[sp,#0]
        0x0001d972:    9801        ..      LDR      r0,[sp,#4]
        0x0001d974:    3001        .0      ADDS     r0,#1
        0x0001d976:    9001        ..      STR      r0,[sp,#4]
        0x0001d978:    e7f4        ..      B        0x1d964 ; count_consecutive_ones + 16
        0x0001d97a:    9801        ..      LDR      r0,[sp,#4]
        0x0001d97c:    b003        ..      ADD      sp,sp,#0xc
        0x0001d97e:    4770        pG      BX       lr
    crypto_boost_trims
        0x0001d980:    e92d43f0    -..C    PUSH     {r4-r9,lr}
        0x0001d984:    b081        ..      SUB      sp,sp,#4
        0x0001d986:    f24019d8    @...    MOVW     r9,#0x1d8
        0x0001d98a:    f2c10900    ....    MOVT     r9,#0x1000
        0x0001d98e:    f8992000    ...     LDRB     r2,[r9,#0]
        0x0001d992:    4604        .F      MOV      r4,r0
        0x0001d994:    fab2f082    ....    CLZ      r0,r2
        0x0001d998:    0940        @.      LSRS     r0,r0,#5
        0x0001d99a:    4060        `@      EORS     r0,r0,r4
        0x0001d99c:    bf1c        ..      ITT      NE
        0x0001d99e:    b001        ..      ADDNE    sp,sp,#4
        0x0001d9a0:    e8bd83f0    ....    POPNE    {r4-r9,pc}
        0x0001d9a4:    f2400888    @...    MOVW     r8,#0x88
        0x0001d9a8:    460d        .F      MOV      r5,r1
        0x0001d9aa:    f2c40802    ....    MOVT     r8,#0x4002
        0x0001d9ae:    f7fcfe6f    ..o.    BL       am_hal_interrupt_master_disable ; 0x1a690
        0x0001d9b2:    9000        ..      STR      r0,[sp,#0]
        0x0001d9b4:    f8894000    ...@    STRB     r4,[r9,#0]
        0x0001d9b8:    2c00        .,      CMP      r4,#0
        0x0001d9ba:    bf08        ..      IT       EQ
        0x0001d9bc:    426d        mB      RSBEQ    r5,r5,#0
        0x0001d9be:    e9d90101    ....    LDRD     r0,r1,[r9,#4]
        0x0001d9c2:    223f        ?"      MOVS     r2,#0x3f
        0x0001d9c4:    4428        (D      ADD      r0,r0,r5
        0x0001d9c6:    283f        ?(      CMP      r0,#0x3f
        0x0001d9c8:    bf38        8.      IT       CC
        0x0001d9ca:    4602        .F      MOVCC    r2,r0
        0x0001d9cc:    0517        ..      LSLS     r7,r2,#20
        0x0001d9ce:    2800        .(      CMP      r0,#0
        0x0001d9d0:    4429        )D      ADD      r1,r1,r5
        0x0001d9d2:    f04f063f    O.?.    MOV      r6,#0x3f
        0x0001d9d6:    bf48        H.      IT       MI
        0x0001d9d8:    2700        .'      MOVMI    r7,#0
        0x0001d9da:    293f        ?)      CMP      r1,#0x3f
        0x0001d9dc:    f8c90004    ....    STR      r0,[r9,#4]
        0x0001d9e0:    bf38        8.      IT       CC
        0x0001d9e2:    460e        .F      MOVCC    r6,r1
        0x0001d9e4:    2900        .)      CMP      r1,#0
        0x0001d9e6:    bf48        H.      IT       MI
        0x0001d9e8:    2600        .&      MOVMI    r6,#0
        0x0001d9ea:    f8c91008    ....    STR      r1,[r9,#8]
        0x0001d9ee:    b18c        ..      CBZ      r4,0x1da14 ; crypto_boost_trims + 148
        0x0001d9f0:    f8d802e4    ....    LDR      r0,[r8,#0x2e4]
        0x0001d9f4:    f020707c     .|p    BIC      r0,r0,#0x3f00000
        0x0001d9f8:    4338        8C      ORRS     r0,r0,r7
        0x0001d9fa:    f8c802e4    ....    STR      r0,[r8,#0x2e4]
        0x0001d9fe:    2014        .       MOVS     r0,#0x14
        0x0001da00:    f7fcfcd8    ....    BL       am_hal_delay_us ; 0x1a3b4
        0x0001da04:    f8d80000    ....    LDR      r0,[r8,#0]
        0x0001da08:    f020003f     .?.    BIC      r0,r0,#0x3f
        0x0001da0c:    4330        0C      ORRS     r0,r0,r6
        0x0001da0e:    f8c80000    ....    STR      r0,[r8,#0]
        0x0001da12:    e010        ..      B        0x1da36 ; crypto_boost_trims + 182
        0x0001da14:    f8d80000    ....    LDR      r0,[r8,#0]
        0x0001da18:    f020003f     .?.    BIC      r0,r0,#0x3f
        0x0001da1c:    4330        0C      ORRS     r0,r0,r6
        0x0001da1e:    f8c80000    ....    STR      r0,[r8,#0]
        0x0001da22:    2014        .       MOVS     r0,#0x14
        0x0001da24:    f7fcfcc6    ....    BL       am_hal_delay_us ; 0x1a3b4
        0x0001da28:    f8d802e4    ....    LDR      r0,[r8,#0x2e4]
        0x0001da2c:    f020707c     .|p    BIC      r0,r0,#0x3f00000
        0x0001da30:    4338        8C      ORRS     r0,r0,r7
        0x0001da32:    f8c802e4    ....    STR      r0,[r8,#0x2e4]
        0x0001da36:    9800        ..      LDR      r0,[sp,#0]
        0x0001da38:    f7fcfe32    ..2.    BL       am_hal_interrupt_master_set ; 0x1a6a0
        0x0001da3c:    2014        .       MOVS     r0,#0x14
        0x0001da3e:    b001        ..      ADD      sp,sp,#4
        0x0001da40:    e8bd43f0    ...C    POP      {r4-r9,lr}
        0x0001da44:    f7fcbcb6    ....    B        am_hal_delay_us ; 0x1a3b4
    decstr_to_int
        0x0001da48:    b087        ..      SUB      sp,sp,#0x1c
        0x0001da4a:    9006        ..      STR      r0,[sp,#0x18]
        0x0001da4c:    9105        ..      STR      r1,[sp,#0x14]
        0x0001da4e:    2000        .       MOVS     r0,#0
        0x0001da50:    f88d0013    ....    STRB     r0,[sp,#0x13]
        0x0001da54:    9003        ..      STR      r0,[sp,#0xc]
        0x0001da56:    9002        ..      STR      r0,[sp,#8]
        0x0001da58:    9806        ..      LDR      r0,[sp,#0x18]
        0x0001da5a:    7800        .x      LDRB     r0,[r0,#0]
        0x0001da5c:    282d        -(      CMP      r0,#0x2d
        0x0001da5e:    d10a        ..      BNE      0x1da76 ; decstr_to_int + 46
        0x0001da60:    e7ff        ..      B        0x1da62 ; decstr_to_int + 26
        0x0001da62:    2001        .       MOVS     r0,#1
        0x0001da64:    f88d0013    ....    STRB     r0,[sp,#0x13]
        0x0001da68:    9806        ..      LDR      r0,[sp,#0x18]
        0x0001da6a:    3001        .0      ADDS     r0,#1
        0x0001da6c:    9006        ..      STR      r0,[sp,#0x18]
        0x0001da6e:    9802        ..      LDR      r0,[sp,#8]
        0x0001da70:    3001        .0      ADDS     r0,#1
        0x0001da72:    9002        ..      STR      r0,[sp,#8]
        0x0001da74:    e7ff        ..      B        0x1da76 ; decstr_to_int + 46
        0x0001da76:    e7ff        ..      B        0x1da78 ; decstr_to_int + 48
        0x0001da78:    9806        ..      LDR      r0,[sp,#0x18]
        0x0001da7a:    7801        .x      LDRB     r1,[r0,#0]
        0x0001da7c:    2000        .       MOVS     r0,#0
        0x0001da7e:    2930        0)      CMP      r1,#0x30
        0x0001da80:    9001        ..      STR      r0,[sp,#4]
        0x0001da82:    db08        ..      BLT      0x1da96 ; decstr_to_int + 78
        0x0001da84:    e7ff        ..      B        0x1da86 ; decstr_to_int + 62
        0x0001da86:    9806        ..      LDR      r0,[sp,#0x18]
        0x0001da88:    7801        .x      LDRB     r1,[r0,#0]
        0x0001da8a:    2000        .       MOVS     r0,#0
        0x0001da8c:    293a        :)      CMP      r1,#0x3a
        0x0001da8e:    bfb8        ..      IT       LT
        0x0001da90:    2001        .       MOVLT    r0,#1
        0x0001da92:    9001        ..      STR      r0,[sp,#4]
        0x0001da94:    e7ff        ..      B        0x1da96 ; decstr_to_int + 78
        0x0001da96:    9801        ..      LDR      r0,[sp,#4]
        0x0001da98:    07c0        ..      LSLS     r0,r0,#31
        0x0001da9a:    b190        ..      CBZ      r0,0x1dac2 ; decstr_to_int + 122
        0x0001da9c:    e7ff        ..      B        0x1da9e ; decstr_to_int + 86
        0x0001da9e:    9802        ..      LDR      r0,[sp,#8]
        0x0001daa0:    3001        .0      ADDS     r0,#1
        0x0001daa2:    9002        ..      STR      r0,[sp,#8]
        0x0001daa4:    9803        ..      LDR      r0,[sp,#0xc]
        0x0001daa6:    eb000080    ....    ADD      r0,r0,r0,LSL #2
        0x0001daaa:    0040        @.      LSLS     r0,r0,#1
        0x0001daac:    9003        ..      STR      r0,[sp,#0xc]
        0x0001daae:    9806        ..      LDR      r0,[sp,#0x18]
        0x0001dab0:    7800        .x      LDRB     r0,[r0,#0]
        0x0001dab2:    9903        ..      LDR      r1,[sp,#0xc]
        0x0001dab4:    4408        .D      ADD      r0,r0,r1
        0x0001dab6:    3830        08      SUBS     r0,r0,#0x30
        0x0001dab8:    9003        ..      STR      r0,[sp,#0xc]
        0x0001daba:    9806        ..      LDR      r0,[sp,#0x18]
        0x0001dabc:    3001        .0      ADDS     r0,#1
        0x0001dabe:    9006        ..      STR      r0,[sp,#0x18]
        0x0001dac0:    e7da        ..      B        0x1da78 ; decstr_to_int + 48
        0x0001dac2:    9805        ..      LDR      r0,[sp,#0x14]
        0x0001dac4:    b120         .      CBZ      r0,0x1dad0 ; decstr_to_int + 136
        0x0001dac6:    e7ff        ..      B        0x1dac8 ; decstr_to_int + 128
        0x0001dac8:    9802        ..      LDR      r0,[sp,#8]
        0x0001daca:    9905        ..      LDR      r1,[sp,#0x14]
        0x0001dacc:    6008        .`      STR      r0,[r1,#0]
        0x0001dace:    e7ff        ..      B        0x1dad0 ; decstr_to_int + 136
        0x0001dad0:    f89d0013    ....    LDRB     r0,[sp,#0x13]
        0x0001dad4:    07c0        ..      LSLS     r0,r0,#31
        0x0001dad6:    b120         .      CBZ      r0,0x1dae2 ; decstr_to_int + 154
        0x0001dad8:    e7ff        ..      B        0x1dada ; decstr_to_int + 146
        0x0001dada:    9803        ..      LDR      r0,[sp,#0xc]
        0x0001dadc:    4240        @B      RSBS     r0,r0,#0
        0x0001dade:    9000        ..      STR      r0,[sp,#0]
        0x0001dae0:    e002        ..      B        0x1dae8 ; decstr_to_int + 160
        0x0001dae2:    9803        ..      LDR      r0,[sp,#0xc]
        0x0001dae4:    9000        ..      STR      r0,[sp,#0]
        0x0001dae6:    e7ff        ..      B        0x1dae8 ; decstr_to_int + 160
        0x0001dae8:    9800        ..      LDR      r0,[sp,#0]
        0x0001daea:    b007        ..      ADD      sp,sp,#0x1c
        0x0001daec:    4770        pG      BX       lr
        0x0001daee:    0000        ..      MOVS     r0,r0
    divu64_10
        0x0001daf0:    b08c        ..      SUB      sp,sp,#0x30
        0x0001daf2:    9109        ..      STR      r1,[sp,#0x24]
        0x0001daf4:    9008        ..      STR      r0,[sp,#0x20]
        0x0001daf6:    9809        ..      LDR      r0,[sp,#0x24]
        0x0001daf8:    2800        .(      CMP      r0,#0
        0x0001dafa:    d05b        [.      BEQ      0x1dbb4 ; divu64_10 + 196
        0x0001dafc:    e7ff        ..      B        0x1dafe ; divu64_10 + 14
        0x0001dafe:    9b08        ..      LDR      r3,[sp,#0x20]
        0x0001db00:    9a09        ..      LDR      r2,[sp,#0x24]
        0x0001db02:    ea5f0052    _.R.    LSRS.W   r0,r2,#1
        0x0001db06:    ea4f0133    O.3.    RRX      r1,r3
        0x0001db0a:    089b        ..      LSRS     r3,r3,#2
        0x0001db0c:    ea437382    C..s    ORR      r3,r3,r2,LSL #30
        0x0001db10:    18c9        ..      ADDS     r1,r1,r3
        0x0001db12:    eb400092    @...    ADC      r0,r0,r2,LSR #2
        0x0001db16:    9106        ..      STR      r1,[sp,#0x18]
        0x0001db18:    9007        ..      STR      r0,[sp,#0x1c]
        0x0001db1a:    9906        ..      LDR      r1,[sp,#0x18]
        0x0001db1c:    9807        ..      LDR      r0,[sp,#0x1c]
        0x0001db1e:    090a        ..      LSRS     r2,r1,#4
        0x0001db20:    ea427200    B..r    ORR      r2,r2,r0,LSL #28
        0x0001db24:    1889        ..      ADDS     r1,r1,r2
        0x0001db26:    eb401010    @...    ADC      r0,r0,r0,LSR #4
        0x0001db2a:    9106        ..      STR      r1,[sp,#0x18]
        0x0001db2c:    9007        ..      STR      r0,[sp,#0x1c]
        0x0001db2e:    9906        ..      LDR      r1,[sp,#0x18]
        0x0001db30:    9807        ..      LDR      r0,[sp,#0x1c]
        0x0001db32:    0a0a        ..      LSRS     r2,r1,#8
        0x0001db34:    ea426200    B..b    ORR      r2,r2,r0,LSL #24
        0x0001db38:    1889        ..      ADDS     r1,r1,r2
        0x0001db3a:    eb402010    @..     ADC      r0,r0,r0,LSR #8
        0x0001db3e:    9106        ..      STR      r1,[sp,#0x18]
        0x0001db40:    9007        ..      STR      r0,[sp,#0x1c]
        0x0001db42:    9906        ..      LDR      r1,[sp,#0x18]
        0x0001db44:    9807        ..      LDR      r0,[sp,#0x1c]
        0x0001db46:    0c0a        ..      LSRS     r2,r1,#16
        0x0001db48:    ea424200    B..B    ORR      r2,r2,r0,LSL #16
        0x0001db4c:    1889        ..      ADDS     r1,r1,r2
        0x0001db4e:    eb404010    @..@    ADC      r0,r0,r0,LSR #16
        0x0001db52:    9106        ..      STR      r1,[sp,#0x18]
        0x0001db54:    9007        ..      STR      r0,[sp,#0x1c]
        0x0001db56:    9906        ..      LDR      r1,[sp,#0x18]
        0x0001db58:    9807        ..      LDR      r0,[sp,#0x1c]
        0x0001db5a:    1809        ..      ADDS     r1,r1,r0
        0x0001db5c:    f1400000    @...    ADC      r0,r0,#0
        0x0001db60:    9106        ..      STR      r1,[sp,#0x18]
        0x0001db62:    9007        ..      STR      r0,[sp,#0x1c]
        0x0001db64:    9806        ..      LDR      r0,[sp,#0x18]
        0x0001db66:    9907        ..      LDR      r1,[sp,#0x1c]
        0x0001db68:    08c0        ..      LSRS     r0,r0,#3
        0x0001db6a:    ea407041    @.Ap    ORR      r0,r0,r1,LSL #29
        0x0001db6e:    08c9        ..      LSRS     r1,r1,#3
        0x0001db70:    9107        ..      STR      r1,[sp,#0x1c]
        0x0001db72:    9006        ..      STR      r0,[sp,#0x18]
        0x0001db74:    9908        ..      LDR      r1,[sp,#0x20]
        0x0001db76:    9809        ..      LDR      r0,[sp,#0x24]
        0x0001db78:    9a06        ..      LDR      r2,[sp,#0x18]
        0x0001db7a:    f8ddc01c    ....    LDR      r12,[sp,#0x1c]
        0x0001db7e:    230a        .#      MOVS     r3,#0xa
        0x0001db80:    fba23203    ...2    UMULL    r3,r2,r2,r3
        0x0001db84:    eb0c0c8c    ....    ADD      r12,r12,r12,LSL #2
        0x0001db88:    eb02024c    ..L.    ADD      r2,r2,r12,LSL #1
        0x0001db8c:    1ac9        ..      SUBS     r1,r1,r3
        0x0001db8e:    4190        .A      SBCS     r0,r0,r2
        0x0001db90:    9104        ..      STR      r1,[sp,#0x10]
        0x0001db92:    9005        ..      STR      r0,[sp,#0x14]
        0x0001db94:    9906        ..      LDR      r1,[sp,#0x18]
        0x0001db96:    9807        ..      LDR      r0,[sp,#0x1c]
        0x0001db98:    9b04        ..      LDR      r3,[sp,#0x10]
        0x0001db9a:    9a05        ..      LDR      r2,[sp,#0x14]
        0x0001db9c:    3306        .3      ADDS     r3,#6
        0x0001db9e:    f1420200    B...    ADC      r2,r2,#0
        0x0001dba2:    091b        ..      LSRS     r3,r3,#4
        0x0001dba4:    ea437302    C..s    ORR      r3,r3,r2,LSL #28
        0x0001dba8:    18c9        ..      ADDS     r1,r1,r3
        0x0001dbaa:    eb401012    @...    ADC      r0,r0,r2,LSR #4
        0x0001dbae:    910a        ..      STR      r1,[sp,#0x28]
        0x0001dbb0:    900b        ..      STR      r0,[sp,#0x2c]
        0x0001dbb2:    e025        %.      B        0x1dc00 ; divu64_10 + 272
        0x0001dbb4:    9808        ..      LDR      r0,[sp,#0x20]
        0x0001dbb6:    9001        ..      STR      r0,[sp,#4]
        0x0001dbb8:    9901        ..      LDR      r1,[sp,#4]
        0x0001dbba:    0848        H.      LSRS     r0,r1,#1
        0x0001dbbc:    eb000091    ....    ADD      r0,r0,r1,LSR #2
        0x0001dbc0:    9003        ..      STR      r0,[sp,#0xc]
        0x0001dbc2:    9803        ..      LDR      r0,[sp,#0xc]
        0x0001dbc4:    eb001010    ....    ADD      r0,r0,r0,LSR #4
        0x0001dbc8:    9003        ..      STR      r0,[sp,#0xc]
        0x0001dbca:    9803        ..      LDR      r0,[sp,#0xc]
        0x0001dbcc:    eb002010    ...     ADD      r0,r0,r0,LSR #8
        0x0001dbd0:    9003        ..      STR      r0,[sp,#0xc]
        0x0001dbd2:    9803        ..      LDR      r0,[sp,#0xc]
        0x0001dbd4:    eb004010    ...@    ADD      r0,r0,r0,LSR #16
        0x0001dbd8:    9003        ..      STR      r0,[sp,#0xc]
        0x0001dbda:    9803        ..      LDR      r0,[sp,#0xc]
        0x0001dbdc:    08c0        ..      LSRS     r0,r0,#3
        0x0001dbde:    9003        ..      STR      r0,[sp,#0xc]
        0x0001dbe0:    9801        ..      LDR      r0,[sp,#4]
        0x0001dbe2:    9903        ..      LDR      r1,[sp,#0xc]
        0x0001dbe4:    eb010181    ....    ADD      r1,r1,r1,LSL #2
        0x0001dbe8:    eba00041    ..A.    SUB      r0,r0,r1,LSL #1
        0x0001dbec:    9002        ..      STR      r0,[sp,#8]
        0x0001dbee:    9803        ..      LDR      r0,[sp,#0xc]
        0x0001dbf0:    9902        ..      LDR      r1,[sp,#8]
        0x0001dbf2:    3106        .1      ADDS     r1,#6
        0x0001dbf4:    eb001011    ....    ADD      r0,r0,r1,LSR #4
        0x0001dbf8:    2100        .!      MOVS     r1,#0
        0x0001dbfa:    910b        ..      STR      r1,[sp,#0x2c]
        0x0001dbfc:    900a        ..      STR      r0,[sp,#0x28]
        0x0001dbfe:    e7ff        ..      B        0x1dc00 ; divu64_10 + 272
        0x0001dc00:    980a        ..      LDR      r0,[sp,#0x28]
        0x0001dc02:    990b        ..      LDR      r1,[sp,#0x2c]
        0x0001dc04:    b00c        ..      ADD      sp,sp,#0x30
        0x0001dc06:    4770        pG      BX       lr
    find_mid_point
        0x0001dc08:    b088        ..      SUB      sp,sp,#0x20
        0x0001dc0a:    9007        ..      STR      r0,[sp,#0x1c]
        0x0001dc0c:    2000        .       MOVS     r0,#0
        0x0001dc0e:    9006        ..      STR      r0,[sp,#0x18]
        0x0001dc10:    9005        ..      STR      r0,[sp,#0x14]
        0x0001dc12:    9004        ..      STR      r0,[sp,#0x10]
        0x0001dc14:    f88d000f    ....    STRB     r0,[sp,#0xf]
        0x0001dc18:    9907        ..      LDR      r1,[sp,#0x1c]
        0x0001dc1a:    6809        .h      LDR      r1,[r1,#0]
        0x0001dc1c:    9102        ..      STR      r1,[sp,#8]
        0x0001dc1e:    f88d0007    ....    STRB     r0,[sp,#7]
        0x0001dc22:    f88d0006    ....    STRB     r0,[sp,#6]
        0x0001dc26:    9000        ..      STR      r0,[sp,#0]
        0x0001dc28:    e7ff        ..      B        0x1dc2a ; find_mid_point + 34
        0x0001dc2a:    9800        ..      LDR      r0,[sp,#0]
        0x0001dc2c:    281f        .(      CMP      r0,#0x1f
        0x0001dc2e:    d849        I.      BHI      0x1dcc4 ; find_mid_point + 188
        0x0001dc30:    e7ff        ..      B        0x1dc32 ; find_mid_point + 42
        0x0001dc32:    9802        ..      LDR      r0,[sp,#8]
        0x0001dc34:    9900        ..      LDR      r1,[sp,#0]
        0x0001dc36:    40c8        .@      LSRS     r0,r0,r1
        0x0001dc38:    07c0        ..      LSLS     r0,r0,#31
        0x0001dc3a:    b138        8.      CBZ      r0,0x1dc4c ; find_mid_point + 68
        0x0001dc3c:    e7ff        ..      B        0x1dc3e ; find_mid_point + 54
        0x0001dc3e:    2001        .       MOVS     r0,#1
        0x0001dc40:    f88d000f    ....    STRB     r0,[sp,#0xf]
        0x0001dc44:    9806        ..      LDR      r0,[sp,#0x18]
        0x0001dc46:    3001        .0      ADDS     r0,#1
        0x0001dc48:    9006        ..      STR      r0,[sp,#0x18]
        0x0001dc4a:    e00c        ..      B        0x1dc66 ; find_mid_point + 94
        0x0001dc4c:    f89d000f    ....    LDRB     r0,[sp,#0xf]
        0x0001dc50:    07c0        ..      LSLS     r0,r0,#31
        0x0001dc52:    b138        8.      CBZ      r0,0x1dc64 ; find_mid_point + 92
        0x0001dc54:    e7ff        ..      B        0x1dc56 ; find_mid_point + 78
        0x0001dc56:    2000        .       MOVS     r0,#0
        0x0001dc58:    f88d000f    ....    STRB     r0,[sp,#0xf]
        0x0001dc5c:    2001        .       MOVS     r0,#1
        0x0001dc5e:    f88d0006    ....    STRB     r0,[sp,#6]
        0x0001dc62:    e7ff        ..      B        0x1dc64 ; find_mid_point + 92
        0x0001dc64:    e7ff        ..      B        0x1dc66 ; find_mid_point + 94
        0x0001dc66:    9800        ..      LDR      r0,[sp,#0]
        0x0001dc68:    281f        .(      CMP      r0,#0x1f
        0x0001dc6a:    d109        ..      BNE      0x1dc80 ; find_mid_point + 120
        0x0001dc6c:    e7ff        ..      B        0x1dc6e ; find_mid_point + 102
        0x0001dc6e:    f89d000f    ....    LDRB     r0,[sp,#0xf]
        0x0001dc72:    07c0        ..      LSLS     r0,r0,#31
        0x0001dc74:    b120         .      CBZ      r0,0x1dc80 ; find_mid_point + 120
        0x0001dc76:    e7ff        ..      B        0x1dc78 ; find_mid_point + 112
        0x0001dc78:    2001        .       MOVS     r0,#1
        0x0001dc7a:    f88d0006    ....    STRB     r0,[sp,#6]
        0x0001dc7e:    e7ff        ..      B        0x1dc80 ; find_mid_point + 120
        0x0001dc80:    f89d0006    ....    LDRB     r0,[sp,#6]
        0x0001dc84:    07c0        ..      LSLS     r0,r0,#31
        0x0001dc86:    b1c0        ..      CBZ      r0,0x1dcba ; find_mid_point + 178
        0x0001dc88:    e7ff        ..      B        0x1dc8a ; find_mid_point + 130
        0x0001dc8a:    9806        ..      LDR      r0,[sp,#0x18]
        0x0001dc8c:    9905        ..      LDR      r1,[sp,#0x14]
        0x0001dc8e:    4288        .B      CMP      r0,r1
        0x0001dc90:    d90e        ..      BLS      0x1dcb0 ; find_mid_point + 168
        0x0001dc92:    e7ff        ..      B        0x1dc94 ; find_mid_point + 140
        0x0001dc94:    9806        ..      LDR      r0,[sp,#0x18]
        0x0001dc96:    9005        ..      STR      r0,[sp,#0x14]
        0x0001dc98:    9900        ..      LDR      r1,[sp,#0]
        0x0001dc9a:    9806        ..      LDR      r0,[sp,#0x18]
        0x0001dc9c:    ea6f0050    o.P.    MVN      r0,r0,LSR #1
        0x0001dca0:    4408        .D      ADD      r0,r0,r1
        0x0001dca2:    9004        ..      STR      r0,[sp,#0x10]
        0x0001dca4:    9806        ..      LDR      r0,[sp,#0x18]
        0x0001dca6:    f0000001    ....    AND      r0,r0,#1
        0x0001dcaa:    f88d0007    ....    STRB     r0,[sp,#7]
        0x0001dcae:    e7ff        ..      B        0x1dcb0 ; find_mid_point + 168
        0x0001dcb0:    2000        .       MOVS     r0,#0
        0x0001dcb2:    9006        ..      STR      r0,[sp,#0x18]
        0x0001dcb4:    f88d0006    ....    STRB     r0,[sp,#6]
        0x0001dcb8:    e7ff        ..      B        0x1dcba ; find_mid_point + 178
        0x0001dcba:    e7ff        ..      B        0x1dcbc ; find_mid_point + 180
        0x0001dcbc:    9800        ..      LDR      r0,[sp,#0]
        0x0001dcbe:    3001        .0      ADDS     r0,#1
        0x0001dcc0:    9000        ..      STR      r0,[sp,#0]
        0x0001dcc2:    e7b2        ..      B        0x1dc2a ; find_mid_point + 34
        0x0001dcc4:    9804        ..      LDR      r0,[sp,#0x10]
        0x0001dcc6:    280f        .(      CMP      r0,#0xf
        0x0001dcc8:    d80c        ..      BHI      0x1dce4 ; find_mid_point + 220
        0x0001dcca:    e7ff        ..      B        0x1dccc ; find_mid_point + 196
        0x0001dccc:    f89d0008    ....    LDRB     r0,[sp,#8]
        0x0001dcd0:    0780        ..      LSLS     r0,r0,#30
        0x0001dcd2:    2800        .(      CMP      r0,#0
        0x0001dcd4:    d506        ..      BPL      0x1dce4 ; find_mid_point + 220
        0x0001dcd6:    e7ff        ..      B        0x1dcd8 ; find_mid_point + 208
        0x0001dcd8:    9804        ..      LDR      r0,[sp,#0x10]
        0x0001dcda:    f89d1007    ....    LDRB     r1,[sp,#7]
        0x0001dcde:    1a40        @.      SUBS     r0,r0,r1
        0x0001dce0:    9004        ..      STR      r0,[sp,#0x10]
        0x0001dce2:    e00f        ..      B        0x1dd04 ; find_mid_point + 252
        0x0001dce4:    9804        ..      LDR      r0,[sp,#0x10]
        0x0001dce6:    2810        .(      CMP      r0,#0x10
        0x0001dce8:    d30a        ..      BCC      0x1dd00 ; find_mid_point + 248
        0x0001dcea:    e7ff        ..      B        0x1dcec ; find_mid_point + 228
        0x0001dcec:    f89d000b    ....    LDRB     r0,[sp,#0xb]
        0x0001dcf0:    0640        @.      LSLS     r0,r0,#25
        0x0001dcf2:    2800        .(      CMP      r0,#0
        0x0001dcf4:    d504        ..      BPL      0x1dd00 ; find_mid_point + 248
        0x0001dcf6:    e7ff        ..      B        0x1dcf8 ; find_mid_point + 240
        0x0001dcf8:    9804        ..      LDR      r0,[sp,#0x10]
        0x0001dcfa:    3001        .0      ADDS     r0,#1
        0x0001dcfc:    9004        ..      STR      r0,[sp,#0x10]
        0x0001dcfe:    e000        ..      B        0x1dd02 ; find_mid_point + 250
        0x0001dd00:    e7ff        ..      B        0x1dd02 ; find_mid_point + 250
        0x0001dd02:    e7ff        ..      B        0x1dd04 ; find_mid_point + 252
        0x0001dd04:    9804        ..      LDR      r0,[sp,#0x10]
        0x0001dd06:    b008        ..      ADD      sp,sp,#0x20
        0x0001dd08:    4770        pG      BX       lr
        0x0001dd0a:    0000        ..      MOVS     r0,r0
    ftoa
        0x0001dd0c:    b580        ..      PUSH     {r7,lr}
        0x0001dd0e:    b090        ..      SUB      sp,sp,#0x40
        0x0001dd10:    ed8d0a0e    ....    VSTR     s0,[sp,#0x38]
        0x0001dd14:    900d        ..      STR      r0,[sp,#0x34]
        0x0001dd16:    910c        ..      STR      r1,[sp,#0x30]
        0x0001dd18:    980d        ..      LDR      r0,[sp,#0x34]
        0x0001dd1a:    6800        .h      LDR      r0,[r0,#0]
        0x0001dd1c:    9009        ..      STR      r0,[sp,#0x24]
        0x0001dd1e:    9809        ..      LDR      r0,[sp,#0x24]
        0x0001dd20:    2803        .(      CMP      r0,#3
        0x0001dd22:    dc04        ..      BGT      0x1dd2e ; ftoa + 34
        0x0001dd24:    e7ff        ..      B        0x1dd26 ; ftoa + 26
        0x0001dd26:    f06f0002    o...    MVN      r0,#2
        0x0001dd2a:    900f        ..      STR      r0,[sp,#0x3c]
        0x0001dd2c:    e103        ..      B        0x1df36 ; ftoa + 554
        0x0001dd2e:    ed9d0a0e    ....    VLDR     s0,[sp,#0x38]
        0x0001dd32:    eeb50a40    ..@.    VCMP.F32 s0,#0.0
        0x0001dd36:    eef1fa10    ....    VMRS     APSR_nzcv,FPSCR
        0x0001dd3a:    d109        ..      BNE      0x1dd50 ; ftoa + 68
        0x0001dd3c:    e7ff        ..      B        0x1dd3e ; ftoa + 50
        0x0001dd3e:    990d        ..      LDR      r1,[sp,#0x34]
        0x0001dd40:    f6426030    B.0`    MOV      r0,#0x2e30
        0x0001dd44:    f2c00030    ..0.    MOVT     r0,#0x30
        0x0001dd48:    6008        .`      STR      r0,[r1,#0]
        0x0001dd4a:    2003        .       MOVS     r0,#3
        0x0001dd4c:    900f        ..      STR      r0,[sp,#0x3c]
        0x0001dd4e:    e0f2        ..      B        0x1df36 ; ftoa + 554
        0x0001dd50:    980d        ..      LDR      r0,[sp,#0x34]
        0x0001dd52:    9005        ..      STR      r0,[sp,#0x14]
        0x0001dd54:    980e        ..      LDR      r0,[sp,#0x38]
        0x0001dd56:    900b        ..      STR      r0,[sp,#0x2c]
        0x0001dd58:    980b        ..      LDR      r0,[sp,#0x2c]
        0x0001dd5a:    0dc1        ..      LSRS     r1,r0,#23
        0x0001dd5c:    f06f007e    o.~.    MVN      r0,#0x7e
        0x0001dd60:    fa50f081    P...    UXTAB    r0,r0,r1
        0x0001dd64:    900a        ..      STR      r0,[sp,#0x28]
        0x0001dd66:    980b        ..      LDR      r0,[sp,#0x2c]
        0x0001dd68:    f4400000    @...    ORR      r0,r0,#0x800000
        0x0001dd6c:    f020407f     ..@    BIC      r0,r0,#0xff000000
        0x0001dd70:    9008        ..      STR      r0,[sp,#0x20]
        0x0001dd72:    2000        .       MOVS     r0,#0
        0x0001dd74:    9006        ..      STR      r0,[sp,#0x18]
        0x0001dd76:    9007        ..      STR      r0,[sp,#0x1c]
        0x0001dd78:    980a        ..      LDR      r0,[sp,#0x28]
        0x0001dd7a:    281f        .(      CMP      r0,#0x1f
        0x0001dd7c:    db04        ..      BLT      0x1dd88 ; ftoa + 124
        0x0001dd7e:    e7ff        ..      B        0x1dd80 ; ftoa + 116
        0x0001dd80:    f06f0001    o...    MVN      r0,#1
        0x0001dd84:    900f        ..      STR      r0,[sp,#0x3c]
        0x0001dd86:    e0d6        ..      B        0x1df36 ; ftoa + 554
        0x0001dd88:    980a        ..      LDR      r0,[sp,#0x28]
        0x0001dd8a:    f1100f18    ....    CMN      r0,#0x18
        0x0001dd8e:    dc04        ..      BGT      0x1dd9a ; ftoa + 142
        0x0001dd90:    e7ff        ..      B        0x1dd92 ; ftoa + 134
        0x0001dd92:    f04f30ff    O..0    MOV      r0,#0xffffffff
        0x0001dd96:    900f        ..      STR      r0,[sp,#0x3c]
        0x0001dd98:    e0cd        ..      B        0x1df36 ; ftoa + 554
        0x0001dd9a:    980a        ..      LDR      r0,[sp,#0x28]
        0x0001dd9c:    2817        .(      CMP      r0,#0x17
        0x0001dd9e:    db06        ..      BLT      0x1ddae ; ftoa + 162
        0x0001dda0:    e7ff        ..      B        0x1dda2 ; ftoa + 150
        0x0001dda2:    9808        ..      LDR      r0,[sp,#0x20]
        0x0001dda4:    990a        ..      LDR      r1,[sp,#0x28]
        0x0001dda6:    3917        .9      SUBS     r1,r1,#0x17
        0x0001dda8:    4088        .@      LSLS     r0,r0,r1
        0x0001ddaa:    9007        ..      STR      r0,[sp,#0x1c]
        0x0001ddac:    e01a        ..      B        0x1dde4 ; ftoa + 216
        0x0001ddae:    980a        ..      LDR      r0,[sp,#0x28]
        0x0001ddb0:    2800        .(      CMP      r0,#0
        0x0001ddb2:    d40e        ..      BMI      0x1ddd2 ; ftoa + 198
        0x0001ddb4:    e7ff        ..      B        0x1ddb6 ; ftoa + 170
        0x0001ddb6:    9808        ..      LDR      r0,[sp,#0x20]
        0x0001ddb8:    990a        ..      LDR      r1,[sp,#0x28]
        0x0001ddba:    f1c10117    ....    RSB      r1,r1,#0x17
        0x0001ddbe:    4108        .A      ASRS     r0,r0,r1
        0x0001ddc0:    9007        ..      STR      r0,[sp,#0x1c]
        0x0001ddc2:    9808        ..      LDR      r0,[sp,#0x20]
        0x0001ddc4:    990a        ..      LDR      r1,[sp,#0x28]
        0x0001ddc6:    3101        .1      ADDS     r1,#1
        0x0001ddc8:    4088        .@      LSLS     r0,r0,r1
        0x0001ddca:    f020407f     ..@    BIC      r0,r0,#0xff000000
        0x0001ddce:    9006        ..      STR      r0,[sp,#0x18]
        0x0001ddd0:    e007        ..      B        0x1dde2 ; ftoa + 214
        0x0001ddd2:    9808        ..      LDR      r0,[sp,#0x20]
        0x0001ddd4:    f020407f     ..@    BIC      r0,r0,#0xff000000
        0x0001ddd8:    990a        ..      LDR      r1,[sp,#0x28]
        0x0001ddda:    43c9        .C      MVNS     r1,r1
        0x0001dddc:    40c8        .@      LSRS     r0,r0,r1
        0x0001ddde:    9006        ..      STR      r0,[sp,#0x18]
        0x0001dde0:    e7ff        ..      B        0x1dde2 ; ftoa + 214
        0x0001dde2:    e7ff        ..      B        0x1dde4 ; ftoa + 216
        0x0001dde4:    e7ff        ..      B        0x1dde6 ; ftoa + 218
        0x0001dde6:    e7ff        ..      B        0x1dde8 ; ftoa + 220
        0x0001dde8:    980b        ..      LDR      r0,[sp,#0x2c]
        0x0001ddea:    f1b03fff    ...?    CMP      r0,#0xffffffff
        0x0001ddee:    dc06        ..      BGT      0x1ddfe ; ftoa + 242
        0x0001ddf0:    e7ff        ..      B        0x1ddf2 ; ftoa + 230
        0x0001ddf2:    990d        ..      LDR      r1,[sp,#0x34]
        0x0001ddf4:    1c48        H.      ADDS     r0,r1,#1
        0x0001ddf6:    900d        ..      STR      r0,[sp,#0x34]
        0x0001ddf8:    202d        -       MOVS     r0,#0x2d
        0x0001ddfa:    7008        .p      STRB     r0,[r1,#0]
        0x0001ddfc:    e7ff        ..      B        0x1ddfe ; ftoa + 242
        0x0001ddfe:    9807        ..      LDR      r0,[sp,#0x1c]
        0x0001de00:    b930        0.      CBNZ     r0,0x1de10 ; ftoa + 260
        0x0001de02:    e7ff        ..      B        0x1de04 ; ftoa + 248
        0x0001de04:    990d        ..      LDR      r1,[sp,#0x34]
        0x0001de06:    1c48        H.      ADDS     r0,r1,#1
        0x0001de08:    900d        ..      STR      r0,[sp,#0x34]
        0x0001de0a:    2030        0       MOVS     r0,#0x30
        0x0001de0c:    7008        .p      STRB     r0,[r1,#0]
        0x0001de0e:    e01f        ..      B        0x1de50 ; ftoa + 324
        0x0001de10:    9807        ..      LDR      r0,[sp,#0x1c]
        0x0001de12:    2801        .(      CMP      r0,#1
        0x0001de14:    db06        ..      BLT      0x1de24 ; ftoa + 280
        0x0001de16:    e7ff        ..      B        0x1de18 ; ftoa + 268
        0x0001de18:    9807        ..      LDR      r0,[sp,#0x1c]
        0x0001de1a:    17c1        ..      ASRS     r1,r0,#31
        0x0001de1c:    9a0d        ..      LDR      r2,[sp,#0x34]
        0x0001de1e:    f001fc2f    ../.    BL       uint64_to_str ; 0x1f680
        0x0001de22:    e00b        ..      B        0x1de3c ; ftoa + 304
        0x0001de24:    990d        ..      LDR      r1,[sp,#0x34]
        0x0001de26:    1c48        H.      ADDS     r0,r1,#1
        0x0001de28:    900d        ..      STR      r0,[sp,#0x34]
        0x0001de2a:    202d        -       MOVS     r0,#0x2d
        0x0001de2c:    7008        .p      STRB     r0,[r1,#0]
        0x0001de2e:    9807        ..      LDR      r0,[sp,#0x1c]
        0x0001de30:    4240        @B      RSBS     r0,r0,#0
        0x0001de32:    17c1        ..      ASRS     r1,r0,#31
        0x0001de34:    9a0d        ..      LDR      r2,[sp,#0x34]
        0x0001de36:    f001fc23    ..#.    BL       uint64_to_str ; 0x1f680
        0x0001de3a:    e7ff        ..      B        0x1de3c ; ftoa + 304
        0x0001de3c:    e7ff        ..      B        0x1de3e ; ftoa + 306
        0x0001de3e:    980d        ..      LDR      r0,[sp,#0x34]
        0x0001de40:    7800        .x      LDRB     r0,[r0,#0]
        0x0001de42:    b120         .      CBZ      r0,0x1de4e ; ftoa + 322
        0x0001de44:    e7ff        ..      B        0x1de46 ; ftoa + 314
        0x0001de46:    980d        ..      LDR      r0,[sp,#0x34]
        0x0001de48:    3001        .0      ADDS     r0,#1
        0x0001de4a:    900d        ..      STR      r0,[sp,#0x34]
        0x0001de4c:    e7f7        ..      B        0x1de3e ; ftoa + 306
        0x0001de4e:    e7ff        ..      B        0x1de50 ; ftoa + 324
        0x0001de50:    990d        ..      LDR      r1,[sp,#0x34]
        0x0001de52:    1c48        H.      ADDS     r0,r1,#1
        0x0001de54:    900d        ..      STR      r0,[sp,#0x34]
        0x0001de56:    202e        .       MOVS     r0,#0x2e
        0x0001de58:    7008        .p      STRB     r0,[r1,#0]
        0x0001de5a:    9806        ..      LDR      r0,[sp,#0x18]
        0x0001de5c:    b930        0.      CBNZ     r0,0x1de6c ; ftoa + 352
        0x0001de5e:    e7ff        ..      B        0x1de60 ; ftoa + 340
        0x0001de60:    990d        ..      LDR      r1,[sp,#0x34]
        0x0001de62:    1c48        H.      ADDS     r0,r1,#1
        0x0001de64:    900d        ..      STR      r0,[sp,#0x34]
        0x0001de66:    2030        0       MOVS     r0,#0x30
        0x0001de68:    7008        .p      STRB     r0,[r1,#0]
        0x0001de6a:    e05c        \.      B        0x1df26 ; ftoa + 538
        0x0001de6c:    9909        ..      LDR      r1,[sp,#0x24]
        0x0001de6e:    980d        ..      LDR      r0,[sp,#0x34]
        0x0001de70:    9a05        ..      LDR      r2,[sp,#0x14]
        0x0001de72:    1a80        ..      SUBS     r0,r0,r2
        0x0001de74:    43c0        .C      MVNS     r0,r0
        0x0001de76:    4408        .D      ADD      r0,r0,r1
        0x0001de78:    9002        ..      STR      r0,[sp,#8]
        0x0001de7a:    9802        ..      LDR      r0,[sp,#8]
        0x0001de7c:    990c        ..      LDR      r1,[sp,#0x30]
        0x0001de7e:    4288        .B      CMP      r0,r1
        0x0001de80:    dd03        ..      BLE      0x1de8a ; ftoa + 382
        0x0001de82:    e7ff        ..      B        0x1de84 ; ftoa + 376
        0x0001de84:    980c        ..      LDR      r0,[sp,#0x30]
        0x0001de86:    9001        ..      STR      r0,[sp,#4]
        0x0001de88:    e002        ..      B        0x1de90 ; ftoa + 388
        0x0001de8a:    9802        ..      LDR      r0,[sp,#8]
        0x0001de8c:    9001        ..      STR      r0,[sp,#4]
        0x0001de8e:    e7ff        ..      B        0x1de90 ; ftoa + 388
        0x0001de90:    9801        ..      LDR      r0,[sp,#4]
        0x0001de92:    9002        ..      STR      r0,[sp,#8]
        0x0001de94:    2000        .       MOVS     r0,#0
        0x0001de96:    9003        ..      STR      r0,[sp,#0xc]
        0x0001de98:    e7ff        ..      B        0x1de9a ; ftoa + 398
        0x0001de9a:    9803        ..      LDR      r0,[sp,#0xc]
        0x0001de9c:    9902        ..      LDR      r1,[sp,#8]
        0x0001de9e:    4288        .B      CMP      r0,r1
        0x0001dea0:    da15        ..      BGE      0x1dece ; ftoa + 450
        0x0001dea2:    e7ff        ..      B        0x1dea4 ; ftoa + 408
        0x0001dea4:    9806        ..      LDR      r0,[sp,#0x18]
        0x0001dea6:    eb000080    ....    ADD      r0,r0,r0,LSL #2
        0x0001deaa:    0040        @.      LSLS     r0,r0,#1
        0x0001deac:    9006        ..      STR      r0,[sp,#0x18]
        0x0001deae:    f89d001b    ....    LDRB     r0,[sp,#0x1b]
        0x0001deb2:    3030        00      ADDS     r0,r0,#0x30
        0x0001deb4:    990d        ..      LDR      r1,[sp,#0x34]
        0x0001deb6:    1c4a        J.      ADDS     r2,r1,#1
        0x0001deb8:    920d        ..      STR      r2,[sp,#0x34]
        0x0001deba:    7008        .p      STRB     r0,[r1,#0]
        0x0001debc:    9806        ..      LDR      r0,[sp,#0x18]
        0x0001debe:    f020407f     ..@    BIC      r0,r0,#0xff000000
        0x0001dec2:    9006        ..      STR      r0,[sp,#0x18]
        0x0001dec4:    e7ff        ..      B        0x1dec6 ; ftoa + 442
        0x0001dec6:    9803        ..      LDR      r0,[sp,#0xc]
        0x0001dec8:    3001        .0      ADDS     r0,#1
        0x0001deca:    9003        ..      STR      r0,[sp,#0xc]
        0x0001decc:    e7e5        ..      B        0x1de9a ; ftoa + 398
        0x0001dece:    9806        ..      LDR      r0,[sp,#0x18]
        0x0001ded0:    eb000080    ....    ADD      r0,r0,r0,LSL #2
        0x0001ded4:    f34050c7    @..P    SBFX     r0,r0,#23,#8
        0x0001ded8:    2805        .(      CMP      r0,#5
        0x0001deda:    db23        #.      BLT      0x1df24 ; ftoa + 536
        0x0001dedc:    e7ff        ..      B        0x1dede ; ftoa + 466
        0x0001dede:    980d        ..      LDR      r0,[sp,#0x34]
        0x0001dee0:    3801        .8      SUBS     r0,#1
        0x0001dee2:    9004        ..      STR      r0,[sp,#0x10]
        0x0001dee4:    e7ff        ..      B        0x1dee6 ; ftoa + 474
        0x0001dee6:    9804        ..      LDR      r0,[sp,#0x10]
        0x0001dee8:    9905        ..      LDR      r1,[sp,#0x14]
        0x0001deea:    4288        .B      CMP      r0,r1
        0x0001deec:    d319        ..      BCC      0x1df22 ; ftoa + 534
        0x0001deee:    e7ff        ..      B        0x1def0 ; ftoa + 484
        0x0001def0:    9804        ..      LDR      r0,[sp,#0x10]
        0x0001def2:    7800        .x      LDRB     r0,[r0,#0]
        0x0001def4:    282e        .(      CMP      r0,#0x2e
        0x0001def6:    d101        ..      BNE      0x1defc ; ftoa + 496
        0x0001def8:    e7ff        ..      B        0x1defa ; ftoa + 494
        0x0001defa:    e00e        ..      B        0x1df1a ; ftoa + 526
        0x0001defc:    9804        ..      LDR      r0,[sp,#0x10]
        0x0001defe:    7800        .x      LDRB     r0,[r0,#0]
        0x0001df00:    2839        9(      CMP      r0,#0x39
        0x0001df02:    d104        ..      BNE      0x1df0e ; ftoa + 514
        0x0001df04:    e7ff        ..      B        0x1df06 ; ftoa + 506
        0x0001df06:    9904        ..      LDR      r1,[sp,#0x10]
        0x0001df08:    2030        0       MOVS     r0,#0x30
        0x0001df0a:    7008        .p      STRB     r0,[r1,#0]
        0x0001df0c:    e004        ..      B        0x1df18 ; ftoa + 524
        0x0001df0e:    9904        ..      LDR      r1,[sp,#0x10]
        0x0001df10:    7808        .x      LDRB     r0,[r1,#0]
        0x0001df12:    3001        .0      ADDS     r0,#1
        0x0001df14:    7008        .p      STRB     r0,[r1,#0]
        0x0001df16:    e004        ..      B        0x1df22 ; ftoa + 534
        0x0001df18:    e7ff        ..      B        0x1df1a ; ftoa + 526
        0x0001df1a:    9804        ..      LDR      r0,[sp,#0x10]
        0x0001df1c:    3801        .8      SUBS     r0,#1
        0x0001df1e:    9004        ..      STR      r0,[sp,#0x10]
        0x0001df20:    e7e1        ..      B        0x1dee6 ; ftoa + 474
        0x0001df22:    e7ff        ..      B        0x1df24 ; ftoa + 536
        0x0001df24:    e7ff        ..      B        0x1df26 ; ftoa + 538
        0x0001df26:    990d        ..      LDR      r1,[sp,#0x34]
        0x0001df28:    2000        .       MOVS     r0,#0
        0x0001df2a:    7008        .p      STRB     r0,[r1,#0]
        0x0001df2c:    980d        ..      LDR      r0,[sp,#0x34]
        0x0001df2e:    9905        ..      LDR      r1,[sp,#0x14]
        0x0001df30:    1a40        @.      SUBS     r0,r0,r1
        0x0001df32:    900f        ..      STR      r0,[sp,#0x3c]
        0x0001df34:    e7ff        ..      B        0x1df36 ; ftoa + 554
        0x0001df36:    980f        ..      LDR      r0,[sp,#0x3c]
        0x0001df38:    b010        ..      ADD      sp,sp,#0x40
        0x0001df3a:    bd80        ..      POP      {r7,pc}
    get_raw_dcu_mask
        0x0001df3c:    b5b0        ..      PUSH     {r4,r5,r7,lr}
        0x0001df3e:    4684        .F      MOV      r12,r0
        0x0001df40:    f6426028    B.(`    MOV      r0,#0x2e28
        0x0001df44:    f2c10000    ....    MOVT     r0,#0x1000
        0x0001df48:    f8d0e000    ....    LDR      lr,[r0,#0]
        0x0001df4c:    2207        ."      MOVS     r2,#7
        0x0001df4e:    f1ce0320    .. .    RSB      r3,lr,#0x20
        0x0001df52:    fa22f303    "...    LSR      r3,r2,r3
        0x0001df56:    ea4f708c    O..p    LSL      r0,r12,#30
        0x0001df5a:    f1be0120    .. .    SUBS     r1,lr,#0x20
        0x0001df5e:    bf58        X.      IT       PL
        0x0001df60:    fa02f301    ....    LSLPL    r3,r2,r1
        0x0001df64:    fa02f40e    ....    LSL      r4,r2,lr
        0x0001df68:    bf58        X.      IT       PL
        0x0001df6a:    2400        .$      MOVPL    r4,#0
        0x0001df6c:    ea0371e0    ...q    AND      r1,r3,r0,ASR #31
        0x0001df70:    ea5f734c    _.Ls    LSLS     r3,r12,#29
        0x0001df74:    ea0470e0    ...p    AND      r0,r4,r0,ASR #31
        0x0001df78:    d470        p.      BMI      0x1e05c ; get_raw_dcu_mask + 288
        0x0001df7a:    ea5f720c    _..r    LSLS     r2,r12,#28
        0x0001df7e:    f1008082    ....    BMI.W    0x1e086 ; get_raw_dcu_mask + 330
        0x0001df82:    ea5f62cc    _..b    LSLS     r2,r12,#27
        0x0001df86:    f1008094    ....    BMI.W    0x1e0b2 ; get_raw_dcu_mask + 374
        0x0001df8a:    ea5f628c    _..b    LSLS     r2,r12,#26
        0x0001df8e:    f10080a6    ....    BMI.W    0x1e0de ; get_raw_dcu_mask + 418
        0x0001df92:    ea5f624c    _.Lb    LSLS     r2,r12,#25
        0x0001df96:    f10080b8    ....    BMI.W    0x1e10a ; get_raw_dcu_mask + 462
        0x0001df9a:    ea5f620c    _..b    LSLS     r2,r12,#24
        0x0001df9e:    f10080ca    ....    BMI.W    0x1e136 ; get_raw_dcu_mask + 506
        0x0001dfa2:    ea5f52cc    _..R    LSLS     r2,r12,#23
        0x0001dfa6:    f10080dc    ....    BMI.W    0x1e162 ; get_raw_dcu_mask + 550
        0x0001dfaa:    ea5f528c    _..R    LSLS     r2,r12,#22
        0x0001dfae:    f10080ee    ....    BMI.W    0x1e18e ; get_raw_dcu_mask + 594
        0x0001dfb2:    ea5f524c    _.LR    LSLS     r2,r12,#21
        0x0001dfb6:    f1008100    ....    BMI.W    0x1e1ba ; get_raw_dcu_mask + 638
        0x0001dfba:    ea5f520c    _..R    LSLS     r2,r12,#20
        0x0001dfbe:    f1008112    ....    BMI.W    0x1e1e6 ; get_raw_dcu_mask + 682
        0x0001dfc2:    ea5f42cc    _..B    LSLS     r2,r12,#19
        0x0001dfc6:    f1008124    ..$.    BMI.W    0x1e212 ; get_raw_dcu_mask + 726
        0x0001dfca:    ea5f428c    _..B    LSLS     r2,r12,#18
        0x0001dfce:    f1008136    ..6.    BMI.W    0x1e23e ; get_raw_dcu_mask + 770
        0x0001dfd2:    ea5f424c    _.LB    LSLS     r2,r12,#17
        0x0001dfd6:    f100814a    ..J.    BMI.W    0x1e26e ; get_raw_dcu_mask + 818
        0x0001dfda:    ea5f420c    _..B    LSLS     r2,r12,#16
        0x0001dfde:    f100815e    ..^.    BMI.W    0x1e29e ; get_raw_dcu_mask + 866
        0x0001dfe2:    ea5f32cc    _..2    LSLS     r2,r12,#15
        0x0001dfe6:    f1008172    ..r.    BMI.W    0x1e2ce ; get_raw_dcu_mask + 914
        0x0001dfea:    ea5f328c    _..2    LSLS     r2,r12,#14
        0x0001dfee:    f1008186    ....    BMI.W    0x1e2fe ; get_raw_dcu_mask + 962
        0x0001dff2:    ea5f324c    _.L2    LSLS     r2,r12,#13
        0x0001dff6:    f100819a    ....    BMI.W    0x1e32e ; get_raw_dcu_mask + 1010
        0x0001dffa:    ea5f320c    _..2    LSLS     r2,r12,#12
        0x0001dffe:    d513        ..      BPL      0x1e028 ; get_raw_dcu_mask + 236
        0x0001e000:    f06f0515    o...    MVN      r5,#0x15
        0x0001e004:    f10e0236    ..6.    ADD      r2,lr,#0x36
        0x0001e008:    2407        .$      MOVS     r4,#7
        0x0001e00a:    eba5050e    ....    SUB      r5,r5,lr
        0x0001e00e:    fa24f505    $...    LSR      r5,r4,r5
        0x0001e012:    fa04f202    ....    LSL      r2,r4,r2
        0x0001e016:    f11e0316    ....    ADDS     r3,lr,#0x16
        0x0001e01a:    bf58        X.      IT       PL
        0x0001e01c:    fa04f503    ....    LSLPL    r5,r4,r3
        0x0001e020:    bf58        X.      IT       PL
        0x0001e022:    2200        ."      MOVPL    r2,#0
        0x0001e024:    4329        )C      ORRS     r1,r1,r5
        0x0001e026:    4310        .C      ORRS     r0,r0,r2
        0x0001e028:    ea5f22cc    _.."    LSLS     r2,r12,#11
        0x0001e02c:    bf58        X.      IT       PL
        0x0001e02e:    bdb0        ..      POPPL    {r4,r5,r7,pc}
        0x0001e030:    f06f0418    o...    MVN      r4,#0x18
        0x0001e034:    f10e0239    ..9.    ADD      r2,lr,#0x39
        0x0001e038:    2507        .%      MOVS     r5,#7
        0x0001e03a:    eba4040e    ....    SUB      r4,r4,lr
        0x0001e03e:    fa25f404    %...    LSR      r4,r5,r4
        0x0001e042:    fa05f202    ....    LSL      r2,r5,r2
        0x0001e046:    f11e0319    ....    ADDS     r3,lr,#0x19
        0x0001e04a:    bf58        X.      IT       PL
        0x0001e04c:    fa05f403    ....    LSLPL    r4,r5,r3
        0x0001e050:    bf58        X.      IT       PL
        0x0001e052:    2200        ."      MOVPL    r2,#0
        0x0001e054:    4321        !C      ORRS     r1,r1,r4
        0x0001e056:    4310        .C      ORRS     r0,r0,r2
        0x0001e058:    bdb0        ..      POP      {r4,r5,r7,pc}
        0x0001e05a:    bf00        ..      NOP      
        0x0001e05c:    f1ce051d    ....    RSB      r5,lr,#0x1d
        0x0001e060:    f10e0303    ....    ADD      r3,lr,#3
        0x0001e064:    fa22f505    "...    LSR      r5,r2,r5
        0x0001e068:    f1be041d    ....    SUBS     r4,lr,#0x1d
        0x0001e06c:    bf58        X.      IT       PL
        0x0001e06e:    fa02f504    ....    LSLPL    r5,r2,r4
        0x0001e072:    fa02f203    ....    LSL      r2,r2,r3
        0x0001e076:    bf58        X.      IT       PL
        0x0001e078:    2200        ."      MOVPL    r2,#0
        0x0001e07a:    4329        )C      ORRS     r1,r1,r5
        0x0001e07c:    4310        .C      ORRS     r0,r0,r2
        0x0001e07e:    ea5f720c    _..r    LSLS     r2,r12,#28
        0x0001e082:    f57faf7e    ..~.    BPL      0x1df82 ; get_raw_dcu_mask + 70
        0x0001e086:    f10e0206    ....    ADD      r2,lr,#6
        0x0001e08a:    2407        .$      MOVS     r4,#7
        0x0001e08c:    f1ce051a    ....    RSB      r5,lr,#0x1a
        0x0001e090:    fa24f505    $...    LSR      r5,r4,r5
        0x0001e094:    fa04f202    ....    LSL      r2,r4,r2
        0x0001e098:    f1be031a    ....    SUBS     r3,lr,#0x1a
        0x0001e09c:    bf58        X.      IT       PL
        0x0001e09e:    fa04f503    ....    LSLPL    r5,r4,r3
        0x0001e0a2:    bf58        X.      IT       PL
        0x0001e0a4:    2200        ."      MOVPL    r2,#0
        0x0001e0a6:    4329        )C      ORRS     r1,r1,r5
        0x0001e0a8:    4310        .C      ORRS     r0,r0,r2
        0x0001e0aa:    ea5f62cc    _..b    LSLS     r2,r12,#27
        0x0001e0ae:    f57faf6c    ..l.    BPL      0x1df8a ; get_raw_dcu_mask + 78
        0x0001e0b2:    f10e0209    ....    ADD      r2,lr,#9
        0x0001e0b6:    2407        .$      MOVS     r4,#7
        0x0001e0b8:    f1ce0517    ....    RSB      r5,lr,#0x17
        0x0001e0bc:    fa24f505    $...    LSR      r5,r4,r5
        0x0001e0c0:    fa04f202    ....    LSL      r2,r4,r2
        0x0001e0c4:    f1be0317    ....    SUBS     r3,lr,#0x17
        0x0001e0c8:    bf58        X.      IT       PL
        0x0001e0ca:    fa04f503    ....    LSLPL    r5,r4,r3
        0x0001e0ce:    bf58        X.      IT       PL
        0x0001e0d0:    2200        ."      MOVPL    r2,#0
        0x0001e0d2:    4329        )C      ORRS     r1,r1,r5
        0x0001e0d4:    4310        .C      ORRS     r0,r0,r2
        0x0001e0d6:    ea5f628c    _..b    LSLS     r2,r12,#26
        0x0001e0da:    f57faf5a    ..Z.    BPL      0x1df92 ; get_raw_dcu_mask + 86
        0x0001e0de:    f10e020c    ....    ADD      r2,lr,#0xc
        0x0001e0e2:    2407        .$      MOVS     r4,#7
        0x0001e0e4:    f1ce0514    ....    RSB      r5,lr,#0x14
        0x0001e0e8:    fa24f505    $...    LSR      r5,r4,r5
        0x0001e0ec:    fa04f202    ....    LSL      r2,r4,r2
        0x0001e0f0:    f1be0314    ....    SUBS     r3,lr,#0x14
        0x0001e0f4:    bf58        X.      IT       PL
        0x0001e0f6:    fa04f503    ....    LSLPL    r5,r4,r3
        0x0001e0fa:    bf58        X.      IT       PL
        0x0001e0fc:    2200        ."      MOVPL    r2,#0
        0x0001e0fe:    4329        )C      ORRS     r1,r1,r5
        0x0001e100:    4310        .C      ORRS     r0,r0,r2
        0x0001e102:    ea5f624c    _.Lb    LSLS     r2,r12,#25
        0x0001e106:    f57faf48    ..H.    BPL      0x1df9a ; get_raw_dcu_mask + 94
        0x0001e10a:    f10e020f    ....    ADD      r2,lr,#0xf
        0x0001e10e:    2407        .$      MOVS     r4,#7
        0x0001e110:    f1ce0511    ....    RSB      r5,lr,#0x11
        0x0001e114:    fa24f505    $...    LSR      r5,r4,r5
        0x0001e118:    fa04f202    ....    LSL      r2,r4,r2
        0x0001e11c:    f1be0311    ....    SUBS     r3,lr,#0x11
        0x0001e120:    bf58        X.      IT       PL
        0x0001e122:    fa04f503    ....    LSLPL    r5,r4,r3
        0x0001e126:    bf58        X.      IT       PL
        0x0001e128:    2200        ."      MOVPL    r2,#0
        0x0001e12a:    4329        )C      ORRS     r1,r1,r5
        0x0001e12c:    4310        .C      ORRS     r0,r0,r2
        0x0001e12e:    ea5f620c    _..b    LSLS     r2,r12,#24
        0x0001e132:    f57faf36    ..6.    BPL      0x1dfa2 ; get_raw_dcu_mask + 102
        0x0001e136:    f10e0212    ....    ADD      r2,lr,#0x12
        0x0001e13a:    2407        .$      MOVS     r4,#7
        0x0001e13c:    f1ce050e    ....    RSB      r5,lr,#0xe
        0x0001e140:    fa24f505    $...    LSR      r5,r4,r5
        0x0001e144:    fa04f202    ....    LSL      r2,r4,r2
        0x0001e148:    f1be030e    ....    SUBS     r3,lr,#0xe
        0x0001e14c:    bf58        X.      IT       PL
        0x0001e14e:    fa04f503    ....    LSLPL    r5,r4,r3
        0x0001e152:    bf58        X.      IT       PL
        0x0001e154:    2200        ."      MOVPL    r2,#0
        0x0001e156:    4329        )C      ORRS     r1,r1,r5
        0x0001e158:    4310        .C      ORRS     r0,r0,r2
        0x0001e15a:    ea5f52cc    _..R    LSLS     r2,r12,#23
        0x0001e15e:    f57faf24    ..$.    BPL      0x1dfaa ; get_raw_dcu_mask + 110
        0x0001e162:    f10e0215    ....    ADD      r2,lr,#0x15
        0x0001e166:    2407        .$      MOVS     r4,#7
        0x0001e168:    f1ce050b    ....    RSB      r5,lr,#0xb
        0x0001e16c:    fa24f505    $...    LSR      r5,r4,r5
        0x0001e170:    fa04f202    ....    LSL      r2,r4,r2
        0x0001e174:    f1be030b    ....    SUBS     r3,lr,#0xb
        0x0001e178:    bf58        X.      IT       PL
        0x0001e17a:    fa04f503    ....    LSLPL    r5,r4,r3
        0x0001e17e:    bf58        X.      IT       PL
        0x0001e180:    2200        ."      MOVPL    r2,#0
        0x0001e182:    4329        )C      ORRS     r1,r1,r5
        0x0001e184:    4310        .C      ORRS     r0,r0,r2
        0x0001e186:    ea5f528c    _..R    LSLS     r2,r12,#22
        0x0001e18a:    f57faf12    ....    BPL      0x1dfb2 ; get_raw_dcu_mask + 118
        0x0001e18e:    f10e0218    ....    ADD      r2,lr,#0x18
        0x0001e192:    2407        .$      MOVS     r4,#7
        0x0001e194:    f1ce0508    ....    RSB      r5,lr,#8
        0x0001e198:    fa24f505    $...    LSR      r5,r4,r5
        0x0001e19c:    fa04f202    ....    LSL      r2,r4,r2
        0x0001e1a0:    f1be0308    ....    SUBS     r3,lr,#8
        0x0001e1a4:    bf58        X.      IT       PL
        0x0001e1a6:    fa04f503    ....    LSLPL    r5,r4,r3
        0x0001e1aa:    bf58        X.      IT       PL
        0x0001e1ac:    2200        ."      MOVPL    r2,#0
        0x0001e1ae:    4329        )C      ORRS     r1,r1,r5
        0x0001e1b0:    4310        .C      ORRS     r0,r0,r2
        0x0001e1b2:    ea5f524c    _.LR    LSLS     r2,r12,#21
        0x0001e1b6:    f57faf00    ....    BPL      0x1dfba ; get_raw_dcu_mask + 126
        0x0001e1ba:    f10e021b    ....    ADD      r2,lr,#0x1b
        0x0001e1be:    2407        .$      MOVS     r4,#7
        0x0001e1c0:    f1ce0505    ....    RSB      r5,lr,#5
        0x0001e1c4:    fa24f505    $...    LSR      r5,r4,r5
        0x0001e1c8:    fa04f202    ....    LSL      r2,r4,r2
        0x0001e1cc:    f1be0305    ....    SUBS     r3,lr,#5
        0x0001e1d0:    bf58        X.      IT       PL
        0x0001e1d2:    fa04f503    ....    LSLPL    r5,r4,r3
        0x0001e1d6:    bf58        X.      IT       PL
        0x0001e1d8:    2200        ."      MOVPL    r2,#0
        0x0001e1da:    4329        )C      ORRS     r1,r1,r5
        0x0001e1dc:    4310        .C      ORRS     r0,r0,r2
        0x0001e1de:    ea5f520c    _..R    LSLS     r2,r12,#20
        0x0001e1e2:    f57faeee    ....    BPL      0x1dfc2 ; get_raw_dcu_mask + 134
        0x0001e1e6:    f10e021e    ....    ADD      r2,lr,#0x1e
        0x0001e1ea:    2407        .$      MOVS     r4,#7
        0x0001e1ec:    f1ce0502    ....    RSB      r5,lr,#2
        0x0001e1f0:    fa24f505    $...    LSR      r5,r4,r5
        0x0001e1f4:    fa04f202    ....    LSL      r2,r4,r2
        0x0001e1f8:    f1be0302    ....    SUBS     r3,lr,#2
        0x0001e1fc:    bf58        X.      IT       PL
        0x0001e1fe:    fa04f503    ....    LSLPL    r5,r4,r3
        0x0001e202:    bf58        X.      IT       PL
        0x0001e204:    2200        ."      MOVPL    r2,#0
        0x0001e206:    4329        )C      ORRS     r1,r1,r5
        0x0001e208:    4310        .C      ORRS     r0,r0,r2
        0x0001e20a:    ea5f42cc    _..B    LSLS     r2,r12,#19
        0x0001e20e:    f57faedc    ....    BPL      0x1dfca ; get_raw_dcu_mask + 142
        0x0001e212:    f10e0221    ..!.    ADD      r2,lr,#0x21
        0x0001e216:    2407        .$      MOVS     r4,#7
        0x0001e218:    ea6f050e    o...    MVN      r5,lr
        0x0001e21c:    fa24f505    $...    LSR      r5,r4,r5
        0x0001e220:    fa04f202    ....    LSL      r2,r4,r2
        0x0001e224:    f11e0301    ....    ADDS     r3,lr,#1
        0x0001e228:    bf58        X.      IT       PL
        0x0001e22a:    fa04f503    ....    LSLPL    r5,r4,r3
        0x0001e22e:    bf58        X.      IT       PL
        0x0001e230:    2200        ."      MOVPL    r2,#0
        0x0001e232:    4329        )C      ORRS     r1,r1,r5
        0x0001e234:    4310        .C      ORRS     r0,r0,r2
        0x0001e236:    ea5f428c    _..B    LSLS     r2,r12,#18
        0x0001e23a:    f57faeca    ....    BPL      0x1dfd2 ; get_raw_dcu_mask + 150
        0x0001e23e:    f06f0503    o...    MVN      r5,#3
        0x0001e242:    f10e0224    ..$.    ADD      r2,lr,#0x24
        0x0001e246:    2407        .$      MOVS     r4,#7
        0x0001e248:    eba5050e    ....    SUB      r5,r5,lr
        0x0001e24c:    fa24f505    $...    LSR      r5,r4,r5
        0x0001e250:    fa04f202    ....    LSL      r2,r4,r2
        0x0001e254:    f11e0304    ....    ADDS     r3,lr,#4
        0x0001e258:    bf58        X.      IT       PL
        0x0001e25a:    fa04f503    ....    LSLPL    r5,r4,r3
        0x0001e25e:    bf58        X.      IT       PL
        0x0001e260:    2200        ."      MOVPL    r2,#0
        0x0001e262:    4329        )C      ORRS     r1,r1,r5
        0x0001e264:    4310        .C      ORRS     r0,r0,r2
        0x0001e266:    ea5f424c    _.LB    LSLS     r2,r12,#17
        0x0001e26a:    f57faeb6    ....    BPL      0x1dfda ; get_raw_dcu_mask + 158
        0x0001e26e:    f06f0506    o...    MVN      r5,#6
        0x0001e272:    f10e0227    ..'.    ADD      r2,lr,#0x27
        0x0001e276:    2407        .$      MOVS     r4,#7
        0x0001e278:    eba5050e    ....    SUB      r5,r5,lr
        0x0001e27c:    fa24f505    $...    LSR      r5,r4,r5
        0x0001e280:    fa04f202    ....    LSL      r2,r4,r2
        0x0001e284:    f11e0307    ....    ADDS     r3,lr,#7
        0x0001e288:    bf58        X.      IT       PL
        0x0001e28a:    fa04f503    ....    LSLPL    r5,r4,r3
        0x0001e28e:    bf58        X.      IT       PL
        0x0001e290:    2200        ."      MOVPL    r2,#0
        0x0001e292:    4329        )C      ORRS     r1,r1,r5
        0x0001e294:    4310        .C      ORRS     r0,r0,r2
        0x0001e296:    ea5f420c    _..B    LSLS     r2,r12,#16
        0x0001e29a:    f57faea2    ....    BPL      0x1dfe2 ; get_raw_dcu_mask + 166
        0x0001e29e:    f06f0509    o...    MVN      r5,#9
        0x0001e2a2:    f10e022a    ..*.    ADD      r2,lr,#0x2a
        0x0001e2a6:    2407        .$      MOVS     r4,#7
        0x0001e2a8:    eba5050e    ....    SUB      r5,r5,lr
        0x0001e2ac:    fa24f505    $...    LSR      r5,r4,r5
        0x0001e2b0:    fa04f202    ....    LSL      r2,r4,r2
        0x0001e2b4:    f11e030a    ....    ADDS     r3,lr,#0xa
        0x0001e2b8:    bf58        X.      IT       PL
        0x0001e2ba:    fa04f503    ....    LSLPL    r5,r4,r3
        0x0001e2be:    bf58        X.      IT       PL
        0x0001e2c0:    2200        ."      MOVPL    r2,#0
        0x0001e2c2:    4329        )C      ORRS     r1,r1,r5
        0x0001e2c4:    4310        .C      ORRS     r0,r0,r2
        0x0001e2c6:    ea5f32cc    _..2    LSLS     r2,r12,#15
        0x0001e2ca:    f57fae8e    ....    BPL      0x1dfea ; get_raw_dcu_mask + 174
        0x0001e2ce:    f06f050c    o...    MVN      r5,#0xc
        0x0001e2d2:    f10e022d    ..-.    ADD      r2,lr,#0x2d
        0x0001e2d6:    2407        .$      MOVS     r4,#7
        0x0001e2d8:    eba5050e    ....    SUB      r5,r5,lr
        0x0001e2dc:    fa24f505    $...    LSR      r5,r4,r5
        0x0001e2e0:    fa04f202    ....    LSL      r2,r4,r2
        0x0001e2e4:    f11e030d    ....    ADDS     r3,lr,#0xd
        0x0001e2e8:    bf58        X.      IT       PL
        0x0001e2ea:    fa04f503    ....    LSLPL    r5,r4,r3
        0x0001e2ee:    bf58        X.      IT       PL
        0x0001e2f0:    2200        ."      MOVPL    r2,#0
        0x0001e2f2:    4329        )C      ORRS     r1,r1,r5
        0x0001e2f4:    4310        .C      ORRS     r0,r0,r2
        0x0001e2f6:    ea5f328c    _..2    LSLS     r2,r12,#14
        0x0001e2fa:    f57fae7a    ..z.    BPL      0x1dff2 ; get_raw_dcu_mask + 182
        0x0001e2fe:    f06f050f    o...    MVN      r5,#0xf
        0x0001e302:    f10e0230    ..0.    ADD      r2,lr,#0x30
        0x0001e306:    2407        .$      MOVS     r4,#7
        0x0001e308:    eba5050e    ....    SUB      r5,r5,lr
        0x0001e30c:    fa24f505    $...    LSR      r5,r4,r5
        0x0001e310:    fa04f202    ....    LSL      r2,r4,r2
        0x0001e314:    f11e0310    ....    ADDS     r3,lr,#0x10
        0x0001e318:    bf58        X.      IT       PL
        0x0001e31a:    fa04f503    ....    LSLPL    r5,r4,r3
        0x0001e31e:    bf58        X.      IT       PL
        0x0001e320:    2200        ."      MOVPL    r2,#0
        0x0001e322:    4329        )C      ORRS     r1,r1,r5
        0x0001e324:    4310        .C      ORRS     r0,r0,r2
        0x0001e326:    ea5f324c    _.L2    LSLS     r2,r12,#13
        0x0001e32a:    f57fae66    ..f.    BPL      0x1dffa ; get_raw_dcu_mask + 190
        0x0001e32e:    f06f0512    o...    MVN      r5,#0x12
        0x0001e332:    f10e0233    ..3.    ADD      r2,lr,#0x33
        0x0001e336:    2407        .$      MOVS     r4,#7
        0x0001e338:    eba5050e    ....    SUB      r5,r5,lr
        0x0001e33c:    fa24f505    $...    LSR      r5,r4,r5
        0x0001e340:    fa04f202    ....    LSL      r2,r4,r2
        0x0001e344:    f11e0313    ....    ADDS     r3,lr,#0x13
        0x0001e348:    bf58        X.      IT       PL
        0x0001e34a:    fa04f503    ....    LSLPL    r5,r4,r3
        0x0001e34e:    bf58        X.      IT       PL
        0x0001e350:    2200        ."      MOVPL    r2,#0
        0x0001e352:    4329        )C      ORRS     r1,r1,r5
        0x0001e354:    4310        .C      ORRS     r0,r0,r2
        0x0001e356:    ea5f320c    _..2    LSLS     r2,r12,#12
        0x0001e35a:    f57fae65    ..e.    BPL      0x1e028 ; get_raw_dcu_mask + 236
        0x0001e35e:    e64f        O.      B        0x1e000 ; get_raw_dcu_mask + 196
    get_ui32_dcu_mask
        0x0001e360:    f6426328    B.(c    MOV      r3,#0x2e28
        0x0001e364:    f2c10300    ....    MOVT     r3,#0x1000
        0x0001e368:    f8d3c000    ....    LDR      r12,[r3,#0]
        0x0001e36c:    f1cc0320    .. .    RSB      r3,r12,#0x20
        0x0001e370:    fa20f00c     ...    LSR      r0,r0,r12
        0x0001e374:    fa01f303    ....    LSL      r3,r1,r3
        0x0001e378:    4303        .C      ORRS     r3,r3,r0
        0x0001e37a:    f1bc0020    .. .    SUBS     r0,r12,#0x20
        0x0001e37e:    bf58        X.      IT       PL
        0x0001e380:    fa21f300    !...    LSRPL    r3,r1,r0
        0x0001e384:    f0030007    ....    AND      r0,r3,#7
        0x0001e388:    ea800002    ....    EOR      r0,r0,r2
        0x0001e38c:    fa21fc0c    !...    LSR      r12,r1,r12
        0x0001e390:    fab0f080    ....    CLZ      r0,r0
        0x0001e394:    f3c301c2    ....    UBFX     r1,r3,#3,#3
        0x0001e398:    bf58        X.      IT       PL
        0x0001e39a:    f04f0c00    O...    MOVPL    r12,#0
        0x0001e39e:    0940        @.      LSRS     r0,r0,#5
        0x0001e3a0:    4051        Q@      EORS     r1,r1,r2
        0x0001e3a2:    f3c31182    ....    UBFX     r1,r3,#6,#3
        0x0001e3a6:    bf08        ..      IT       EQ
        0x0001e3a8:    3002        .0      ADDEQ    r0,#2
        0x0001e3aa:    4051        Q@      EORS     r1,r1,r2
        0x0001e3ac:    f3c32142    ..B!    UBFX     r1,r3,#9,#3
        0x0001e3b0:    bf08        ..      IT       EQ
        0x0001e3b2:    3004        .0      ADDEQ    r0,#4
        0x0001e3b4:    4051        Q@      EORS     r1,r1,r2
        0x0001e3b6:    f3c33102    ...1    UBFX     r1,r3,#12,#3
        0x0001e3ba:    bf08        ..      IT       EQ
        0x0001e3bc:    3008        .0      ADDEQ    r0,r0,#8
        0x0001e3be:    4051        Q@      EORS     r1,r1,r2
        0x0001e3c0:    f3c331c2    ...1    UBFX     r1,r3,#15,#3
        0x0001e3c4:    bf08        ..      IT       EQ
        0x0001e3c6:    f0400010    @...    ORREQ    r0,r0,#0x10
        0x0001e3ca:    4051        Q@      EORS     r1,r1,r2
        0x0001e3cc:    f3c34182    ...A    UBFX     r1,r3,#18,#3
        0x0001e3d0:    bf08        ..      IT       EQ
        0x0001e3d2:    f0400020    @. .    ORREQ    r0,r0,#0x20
        0x0001e3d6:    4051        Q@      EORS     r1,r1,r2
        0x0001e3d8:    f3c35142    ..BQ    UBFX     r1,r3,#21,#3
        0x0001e3dc:    bf08        ..      IT       EQ
        0x0001e3de:    f0400040    @.@.    ORREQ    r0,r0,#0x40
        0x0001e3e2:    4051        Q@      EORS     r1,r1,r2
        0x0001e3e4:    f3c36102    ...a    UBFX     r1,r3,#24,#3
        0x0001e3e8:    bf08        ..      IT       EQ
        0x0001e3ea:    f0400080    @...    ORREQ    r0,r0,#0x80
        0x0001e3ee:    4051        Q@      EORS     r1,r1,r2
        0x0001e3f0:    f3c361c2    ...a    UBFX     r1,r3,#27,#3
        0x0001e3f4:    bf08        ..      IT       EQ
        0x0001e3f6:    f4407080    @..p    ORREQ    r0,r0,#0x100
        0x0001e3fa:    4051        Q@      EORS     r1,r1,r2
        0x0001e3fc:    ea4f7193    O..q    LSR      r1,r3,#30
        0x0001e400:    ea41018c    A...    ORR      r1,r1,r12,LSL #2
        0x0001e404:    bf08        ..      IT       EQ
        0x0001e406:    f4407000    @..p    ORREQ    r0,r0,#0x200
        0x0001e40a:    f0010107    ....    AND      r1,r1,#7
        0x0001e40e:    4051        Q@      EORS     r1,r1,r2
        0x0001e410:    bf08        ..      IT       EQ
        0x0001e412:    f4406080    @..`    ORREQ    r0,r0,#0x400
        0x0001e416:    f3cc0142    ..B.    UBFX     r1,r12,#1,#3
        0x0001e41a:    4051        Q@      EORS     r1,r1,r2
        0x0001e41c:    bf08        ..      IT       EQ
        0x0001e41e:    f4406000    @..`    ORREQ    r0,r0,#0x800
        0x0001e422:    f3cc1102    ....    UBFX     r1,r12,#4,#3
        0x0001e426:    4051        Q@      EORS     r1,r1,r2
        0x0001e428:    bf08        ..      IT       EQ
        0x0001e42a:    f4405080    @..P    ORREQ    r0,r0,#0x1000
        0x0001e42e:    f3cc11c2    ....    UBFX     r1,r12,#7,#3
        0x0001e432:    4051        Q@      EORS     r1,r1,r2
        0x0001e434:    bf08        ..      IT       EQ
        0x0001e436:    f4405000    @..P    ORREQ    r0,r0,#0x2000
        0x0001e43a:    f3cc2182    ...!    UBFX     r1,r12,#10,#3
        0x0001e43e:    4051        Q@      EORS     r1,r1,r2
        0x0001e440:    bf08        ..      IT       EQ
        0x0001e442:    f4404080    @..@    ORREQ    r0,r0,#0x4000
        0x0001e446:    f3cc3142    ..B1    UBFX     r1,r12,#13,#3
        0x0001e44a:    4051        Q@      EORS     r1,r1,r2
        0x0001e44c:    bf08        ..      IT       EQ
        0x0001e44e:    f4404000    @..@    ORREQ    r0,r0,#0x8000
        0x0001e452:    f3cc4102    ...A    UBFX     r1,r12,#16,#3
        0x0001e456:    4051        Q@      EORS     r1,r1,r2
        0x0001e458:    bf08        ..      IT       EQ
        0x0001e45a:    f4403080    @..0    ORREQ    r0,r0,#0x10000
        0x0001e45e:    f3cc41c2    ...A    UBFX     r1,r12,#19,#3
        0x0001e462:    4051        Q@      EORS     r1,r1,r2
        0x0001e464:    bf08        ..      IT       EQ
        0x0001e466:    f4403000    @..0    ORREQ    r0,r0,#0x20000
        0x0001e46a:    f3cc5182    ...Q    UBFX     r1,r12,#22,#3
        0x0001e46e:    4051        Q@      EORS     r1,r1,r2
        0x0001e470:    bf08        ..      IT       EQ
        0x0001e472:    f4402080    @..     ORREQ    r0,r0,#0x40000
        0x0001e476:    f3cc6142    ..Ba    UBFX     r1,r12,#25,#3
        0x0001e47a:    4051        Q@      EORS     r1,r1,r2
        0x0001e47c:    bf08        ..      IT       EQ
        0x0001e47e:    f4402000    @..     ORREQ    r0,r0,#0x80000
        0x0001e482:    4770        pG      BX       lr
    main
        0x0001e484:    b580        ..      PUSH     {r7,lr}
        0x0001e486:    b098        ..      SUB      sp,sp,#0x60
        0x0001e488:    2000        .       MOVS     r0,#0
        0x0001e48a:    9005        ..      STR      r0,[sp,#0x14]
        0x0001e48c:    9017        ..      STR      r0,[sp,#0x5c]
        0x0001e48e:    f2400e4c    @.L.    MOVW     lr,#0x4c
        0x0001e492:    f2c10e00    ....    MOVT     lr,#0x1000
        0x0001e496:    f8de1000    ....    LDR      r1,[lr,#0]
        0x0001e49a:    f8de2004    ...     LDR      r2,[lr,#4]
        0x0001e49e:    f8de3008    ...0    LDR      r3,[lr,#8]
        0x0001e4a2:    f8dec00c    ....    LDR      r12,[lr,#0xc]
        0x0001e4a6:    f8dee010    ....    LDR      lr,[lr,#0x10]
        0x0001e4aa:    f8cde050    ..P.    STR      lr,[sp,#0x50]
        0x0001e4ae:    f8cdc04c    ..L.    STR      r12,[sp,#0x4c]
        0x0001e4b2:    9312        ..      STR      r3,[sp,#0x48]
        0x0001e4b4:    9211        ..      STR      r2,[sp,#0x44]
        0x0001e4b6:    9110        ..      STR      r1,[sp,#0x40]
        0x0001e4b8:    f88d003f    ..?.    STRB     r0,[sp,#0x3f]
        0x0001e4bc:    f88d003e    ..>.    STRB     r0,[sp,#0x3e]
        0x0001e4c0:    900e        ..      STR      r0,[sp,#0x38]
        0x0001e4c2:    900d        ..      STR      r0,[sp,#0x34]
        0x0001e4c4:    900c        ..      STR      r0,[sp,#0x30]
        0x0001e4c6:    f64f002a    O.*.    MOV      r0,#0xf82a
        0x0001e4ca:    f2c00001    ....    MOVT     r0,#1
        0x0001e4ce:    f7fbfb51    ..Q.    BL       am_hal_cachectrl_config ; 0x19b74
        0x0001e4d2:    f7fbfb71    ..q.    BL       am_hal_cachectrl_enable ; 0x19bb8
        0x0001e4d6:    f7faf89f    ....    BL       am_bsp_low_power_init ; 0x18618
        0x0001e4da:    9905        ..      LDR      r1,[sp,#0x14]
        0x0001e4dc:    2002        .       MOVS     r0,#2
        0x0001e4de:    f7fbfe6b    ..k.    BL       am_hal_daxi_control ; 0x1a1b8
        0x0001e4e2:    9016        ..      STR      r0,[sp,#0x58]
        0x0001e4e4:    9816        ..      LDR      r0,[sp,#0x58]
        0x0001e4e6:    b138        8.      CBZ      r0,0x1e4f8 ; main + 116
        0x0001e4e8:    e7ff        ..      B        0x1e4ea ; main + 102
        0x0001e4ea:    f64f705e    O.^p    MOV      r0,#0xff5e
        0x0001e4ee:    f2c00001    ....    MOVT     r0,#1
        0x0001e4f2:    f7fefe01    ....    BL       am_util_stdio_printf ; 0x1d0f8
        0x0001e4f6:    e7ff        ..      B        0x1e4f8 ; main + 116
        0x0001e4f8:    f7faf84e    ..N.    BL       am_bsp_itm_printf_enable ; 0x18598
        0x0001e4fc:    f7fefe34    ..4.    BL       am_util_stdio_terminal_clear ; 0x1d168
        0x0001e500:    f64f4060    O.`@    MOV      r0,#0xfc60
        0x0001e504:    f2c00001    ....    MOVT     r0,#1
        0x0001e508:    f7fefdf6    ....    BL       am_util_stdio_printf ; 0x1d0f8
        0x0001e50c:    f2481090    H...    MOV      r0,#0x8190
        0x0001e510:    f2c00001    ....    MOVT     r0,#1
        0x0001e514:    6800        .h      LDR      r0,[r0,#0]
        0x0001e516:    b388        ..      CBZ      r0,0x1e57c ; main + 248
        0x0001e518:    e7ff        ..      B        0x1e51a ; main + 150
        0x0001e51a:    f64f606c    O.l`    MOV      r0,#0xfe6c
        0x0001e51e:    f2c00001    ....    MOVT     r0,#1
        0x0001e522:    f7fefde9    ....    BL       am_util_stdio_printf ; 0x1d0f8
        0x0001e526:    f2481090    H...    MOV      r0,#0x8190
        0x0001e52a:    f2c00001    ....    MOVT     r0,#1
        0x0001e52e:    6801        .h      LDR      r1,[r0,#0]
        0x0001e530:    910b        ..      STR      r1,[sp,#0x2c]
        0x0001e532:    6841        Ah      LDR      r1,[r0,#4]
        0x0001e534:    910a        ..      STR      r1,[sp,#0x28]
        0x0001e536:    6881        .h      LDR      r1,[r0,#8]
        0x0001e538:    9109        ..      STR      r1,[sp,#0x24]
        0x0001e53a:    990a        ..      LDR      r1,[sp,#0x28]
        0x0001e53c:    f101416c    ..lA    ADD      r1,r1,#0xec000000
        0x0001e540:    9115        ..      STR      r1,[sp,#0x54]
        0x0001e542:    7b00        .{      LDRB     r0,[r0,#0xc]
        0x0001e544:    07c0        ..      LSLS     r0,r0,#31
        0x0001e546:    b158        X.      CBZ      r0,0x1e560 ; main + 220
        0x0001e548:    e7ff        ..      B        0x1e54a ; main + 198
        0x0001e54a:    9815        ..      LDR      r0,[sp,#0x54]
        0x0001e54c:    9013        ..      STR      r0,[sp,#0x4c]
        0x0001e54e:    9815        ..      LDR      r0,[sp,#0x54]
        0x0001e550:    9909        ..      LDR      r1,[sp,#0x24]
        0x0001e552:    4408        .D      ADD      r0,r0,r1
        0x0001e554:    3801        .8      SUBS     r0,#1
        0x0001e556:    9014        ..      STR      r0,[sp,#0x50]
        0x0001e558:    2001        .       MOVS     r0,#1
        0x0001e55a:    f88d003f    ..?.    STRB     r0,[sp,#0x3f]
        0x0001e55e:    e7ff        ..      B        0x1e560 ; main + 220
        0x0001e560:    f2481090    H...    MOV      r0,#0x8190
        0x0001e564:    f2c00001    ....    MOVT     r0,#1
        0x0001e568:    7b00        .{      LDRB     r0,[r0,#0xc]
        0x0001e56a:    0780        ..      LSLS     r0,r0,#30
        0x0001e56c:    2800        .(      CMP      r0,#0
        0x0001e56e:    d504        ..      BPL      0x1e57a ; main + 246
        0x0001e570:    e7ff        ..      B        0x1e572 ; main + 238
        0x0001e572:    2001        .       MOVS     r0,#1
        0x0001e574:    f88d003e    ..>.    STRB     r0,[sp,#0x3e]
        0x0001e578:    e7ff        ..      B        0x1e57a ; main + 246
        0x0001e57a:    e00b        ..      B        0x1e594 ; main + 272
        0x0001e57c:    f44f3000    O..0    MOV      r0,#0x20000
        0x0001e580:    900b        ..      STR      r0,[sp,#0x2c]
        0x0001e582:    f04f50a0    O..P    MOV      r0,#0x14000000
        0x0001e586:    900a        ..      STR      r0,[sp,#0x28]
        0x0001e588:    2000        .       MOVS     r0,#0
        0x0001e58a:    9015        ..      STR      r0,[sp,#0x54]
        0x0001e58c:    f44f10f0    O...    MOV      r0,#0x1e0000
        0x0001e590:    9009        ..      STR      r0,[sp,#0x24]
        0x0001e592:    e7ff        ..      B        0x1e594 ; main + 272
        0x0001e594:    990b        ..      LDR      r1,[sp,#0x2c]
        0x0001e596:    f64f7038    O.8p    MOV      r0,#0xff38
        0x0001e59a:    f2c00001    ....    MOVT     r0,#1
        0x0001e59e:    f7fefdab    ....    BL       am_util_stdio_printf ; 0x1d0f8
        0x0001e5a2:    990a        ..      LDR      r1,[sp,#0x28]
        0x0001e5a4:    f64f60f9    O..`    MOV      r0,#0xfef9
        0x0001e5a8:    f2c00001    ....    MOVT     r0,#1
        0x0001e5ac:    f7fefda4    ....    BL       am_util_stdio_printf ; 0x1d0f8
        0x0001e5b0:    9909        ..      LDR      r1,[sp,#0x24]
        0x0001e5b2:    f64f7027    O.'p    MOV      r0,#0xff27
        0x0001e5b6:    f2c00001    ....    MOVT     r0,#1
        0x0001e5ba:    f7fefd9d    ....    BL       am_util_stdio_printf ; 0x1d0f8
        0x0001e5be:    f89d003f    ..?.    LDRB     r0,[sp,#0x3f]
        0x0001e5c2:    07c2        ..      LSLS     r2,r0,#31
        0x0001e5c4:    f64f7078    O.xp    MOV      r0,#0xff78
        0x0001e5c8:    f2c00001    ....    MOVT     r0,#1
        0x0001e5cc:    f64f7180    O..q    MOV      r1,#0xff80
        0x0001e5d0:    f2c00101    ....    MOVT     r1,#1
        0x0001e5d4:    2a00        .*      CMP      r2,#0
        0x0001e5d6:    bf18        ..      IT       NE
        0x0001e5d8:    4601        .F      MOVNE    r1,r0
        0x0001e5da:    f64f60e7    O..`    MOV      r0,#0xfee7
        0x0001e5de:    f2c00001    ....    MOVT     r0,#1
        0x0001e5e2:    f7fefd89    ....    BL       am_util_stdio_printf ; 0x1d0f8
        0x0001e5e6:    f6422210    B.."    MOV      r2,#0x2a10
        0x0001e5ea:    f2c10200    ....    MOVT     r2,#0x1000
        0x0001e5ee:    2000        .       MOVS     r0,#0
        0x0001e5f0:    a910        ..      ADD      r1,sp,#0x40
        0x0001e5f2:    f7fafeef    ....    BL       am_devices_mspi_psram_aps12808l_ddr_init_timing_check ; 0x193d4
        0x0001e5f6:    b908        ..      CBNZ     r0,0x1e5fc ; main + 376
        0x0001e5f8:    e7ff        ..      B        0x1e5fa ; main + 374
        0x0001e5fa:    e000        ..      B        0x1e5fe ; main + 378
        0x0001e5fc:    e7ff        ..      B        0x1e5fe ; main + 378
        0x0001e5fe:    f6445288    D..R    MOV      r2,#0x4d88
        0x0001e602:    f2c10200    ....    MOVT     r2,#0x1000
        0x0001e606:    f644538c    D..S    MOV      r3,#0x4d8c
        0x0001e60a:    f2c10300    ....    MOVT     r3,#0x1000
        0x0001e60e:    2000        .       MOVS     r0,#0
        0x0001e610:    a910        ..      ADD      r1,sp,#0x40
        0x0001e612:    f7fafd93    ....    BL       am_devices_mspi_psram_aps12808l_ddr_init ; 0x1913c
        0x0001e616:    9016        ..      STR      r0,[sp,#0x58]
        0x0001e618:    9816        ..      LDR      r0,[sp,#0x58]
        0x0001e61a:    b150        P.      CBZ      r0,0x1e632 ; main + 430
        0x0001e61c:    e7ff        ..      B        0x1e61e ; main + 410
        0x0001e61e:    f64f50f1    O..P    MOV      r0,#0xfdf1
        0x0001e622:    f2c00001    ....    MOVT     r0,#1
        0x0001e626:    f7fefd67    ..g.    BL       am_util_stdio_printf ; 0x1d0f8
        0x0001e62a:    f04f30ff    O..0    MOV      r0,#0xffffffff
        0x0001e62e:    9017        ..      STR      r0,[sp,#0x5c]
        0x0001e630:    e16d        m.      B        0x1e90e ; main + 1162
        0x0001e632:    f64f4040    O.@@    MOV      r0,#0xfc40
        0x0001e636:    f2c00001    ....    MOVT     r0,#1
        0x0001e63a:    9003        ..      STR      r0,[sp,#0xc]
        0x0001e63c:    f9900000    ....    LDRSB    r0,[r0,#0]
        0x0001e640:    2104        .!      MOVS     r1,#4
        0x0001e642:    f7f9ff87    ....    BL       __NVIC_SetPriority ; 0x18554
        0x0001e646:    9803        ..      LDR      r0,[sp,#0xc]
        0x0001e648:    f9900000    ....    LDRSB    r0,[r0,#0]
        0x0001e64c:    f7f9ff6a    ..j.    BL       __NVIC_EnableIRQ ; 0x18524
        0x0001e650:    f7fcf822    ..".    BL       am_hal_interrupt_master_enable ; 0x1a698
        0x0001e654:    f6445088    D..P    MOV      r0,#0x4d88
        0x0001e658:    f2c10000    ....    MOVT     r0,#0x1000
        0x0001e65c:    9004        ..      STR      r0,[sp,#0x10]
        0x0001e65e:    6800        .h      LDR      r0,[r0,#0]
        0x0001e660:    f6422110    B..!    MOV      r1,#0x2a10
        0x0001e664:    f2c10100    ....    MOVT     r1,#0x1000
        0x0001e668:    f7fafc84    ....    BL       am_devices_mspi_psram_aps12808l_apply_ddr_timing ; 0x18f74
        0x0001e66c:    9804        ..      LDR      r0,[sp,#0x10]
        0x0001e66e:    6800        .h      LDR      r0,[r0,#0]
        0x0001e670:    f7fafcf6    ....    BL       am_devices_mspi_psram_aps12808l_ddr_disable_xip ; 0x19060
        0x0001e674:    9016        ..      STR      r0,[sp,#0x58]
        0x0001e676:    9816        ..      LDR      r0,[sp,#0x58]
        0x0001e678:    b150        P.      CBZ      r0,0x1e690 ; main + 524
        0x0001e67a:    e7ff        ..      B        0x1e67c ; main + 504
        0x0001e67c:    f64f4088    O..@    MOV      r0,#0xfc88
        0x0001e680:    f2c00001    ....    MOVT     r0,#1
        0x0001e684:    f7fefd38    ..8.    BL       am_util_stdio_printf ; 0x1d0f8
        0x0001e688:    f04f30ff    O..0    MOV      r0,#0xffffffff
        0x0001e68c:    9017        ..      STR      r0,[sp,#0x5c]
        0x0001e68e:    e13e        >.      B        0x1e90e ; main + 1162
        0x0001e690:    f89d003f    ..?.    LDRB     r0,[sp,#0x3f]
        0x0001e694:    07c0        ..      LSLS     r0,r0,#31
        0x0001e696:    b1c8        ..      CBZ      r0,0x1e6cc ; main + 584
        0x0001e698:    e7ff        ..      B        0x1e69a ; main + 534
        0x0001e69a:    f64f60c0    O..`    MOV      r0,#0xfec0
        0x0001e69e:    f2c00001    ....    MOVT     r0,#1
        0x0001e6a2:    f7fefd29    ..).    BL       am_util_stdio_printf ; 0x1d0f8
        0x0001e6a6:    f6445088    D..P    MOV      r0,#0x4d88
        0x0001e6aa:    f2c10000    ....    MOVT     r0,#0x1000
        0x0001e6ae:    6800        .h      LDR      r0,[r0,#0]
        0x0001e6b0:    f7fafcf4    ....    BL       am_devices_mspi_psram_aps12808l_ddr_enable_scrambling ; 0x1909c
        0x0001e6b4:    9016        ..      STR      r0,[sp,#0x58]
        0x0001e6b6:    9816        ..      LDR      r0,[sp,#0x58]
        0x0001e6b8:    b138        8.      CBZ      r0,0x1e6ca ; main + 582
        0x0001e6ba:    e7ff        ..      B        0x1e6bc ; main + 568
        0x0001e6bc:    f64f507d    O.}P    MOV      r0,#0xfd7d
        0x0001e6c0:    f2c00001    ....    MOVT     r0,#1
        0x0001e6c4:    f7fefd18    ....    BL       am_util_stdio_printf ; 0x1d0f8
        0x0001e6c8:    e7ff        ..      B        0x1e6ca ; main + 582
        0x0001e6ca:    e7ff        ..      B        0x1e6cc ; main + 584
        0x0001e6cc:    f64f40dc    O..@    MOV      r0,#0xfcdc
        0x0001e6d0:    f2c00001    ....    MOVT     r0,#1
        0x0001e6d4:    f7fefd10    ....    BL       am_util_stdio_printf ; 0x1d0f8
        0x0001e6d8:    f6445088    D..P    MOV      r0,#0x4d88
        0x0001e6dc:    f2c10000    ....    MOVT     r0,#0x1000
        0x0001e6e0:    6800        .h      LDR      r0,[r0,#0]
        0x0001e6e2:    990b        ..      LDR      r1,[sp,#0x2c]
        0x0001e6e4:    9a15        ..      LDR      r2,[sp,#0x54]
        0x0001e6e6:    9b09        ..      LDR      r3,[sp,#0x24]
        0x0001e6e8:    46ee        .F      MOV      lr,sp
        0x0001e6ea:    f04f0c01    O...    MOV      r12,#1
        0x0001e6ee:    f8cec000    ....    STR      r12,[lr,#0]
        0x0001e6f2:    f7fbf84d    ..M.    BL       am_devices_mspi_psram_aps12808l_ddr_write ; 0x19790
        0x0001e6f6:    9016        ..      STR      r0,[sp,#0x58]
        0x0001e6f8:    9816        ..      LDR      r0,[sp,#0x58]
        0x0001e6fa:    b150        P.      CBZ      r0,0x1e712 ; main + 654
        0x0001e6fc:    e7ff        ..      B        0x1e6fe ; main + 634
        0x0001e6fe:    f64f502d    O.-P    MOV      r0,#0xfd2d
        0x0001e702:    f2c00001    ....    MOVT     r0,#1
        0x0001e706:    f7fefcf7    ....    BL       am_util_stdio_printf ; 0x1d0f8
        0x0001e70a:    f04f30ff    O..0    MOV      r0,#0xffffffff
        0x0001e70e:    9017        ..      STR      r0,[sp,#0x5c]
        0x0001e710:    e0fd        ..      B        0x1e90e ; main + 1162
        0x0001e712:    f64f40b1    O..@    MOV      r0,#0xfcb1
        0x0001e716:    f2c00001    ....    MOVT     r0,#1
        0x0001e71a:    f7fefced    ....    BL       am_util_stdio_printf ; 0x1d0f8
        0x0001e71e:    9815        ..      LDR      r0,[sp,#0x54]
        0x0001e720:    9008        ..      STR      r0,[sp,#0x20]
        0x0001e722:    e7ff        ..      B        0x1e724 ; main + 672
        0x0001e724:    9808        ..      LDR      r0,[sp,#0x20]
        0x0001e726:    9915        ..      LDR      r1,[sp,#0x54]
        0x0001e728:    9a09        ..      LDR      r2,[sp,#0x24]
        0x0001e72a:    4411        .D      ADD      r1,r1,r2
        0x0001e72c:    4288        .B      CMP      r0,r1
        0x0001e72e:    f08080b7    ....    BCS.W    0x1e8a0 ; main + 1052
        0x0001e732:    e7ff        ..      B        0x1e734 ; main + 688
        0x0001e734:    f6445088    D..P    MOV      r0,#0x4d88
        0x0001e738:    f2c10000    ....    MOVT     r0,#0x1000
        0x0001e73c:    6800        .h      LDR      r0,[r0,#0]
        0x0001e73e:    9a08        ..      LDR      r2,[sp,#0x20]
        0x0001e740:    466b        kF      MOV      r3,sp
        0x0001e742:    2101        .!      MOVS     r1,#1
        0x0001e744:    6019        .`      STR      r1,[r3,#0]
        0x0001e746:    f6440180    D...    MOVW     r1,#0x4880
        0x0001e74a:    f2c10100    ....    MOVT     r1,#0x1000
        0x0001e74e:    f44f7380    O..s    MOV      r3,#0x100
        0x0001e752:    f7faff9f    ....    BL       am_devices_mspi_psram_aps12808l_ddr_read ; 0x19694
        0x0001e756:    9016        ..      STR      r0,[sp,#0x58]
        0x0001e758:    9816        ..      LDR      r0,[sp,#0x58]
        0x0001e75a:    b150        P.      CBZ      r0,0x1e772 ; main + 750
        0x0001e75c:    e7ff        ..      B        0x1e75e ; main + 730
        0x0001e75e:    f64f5005    O..P    MOV      r0,#0xfd05
        0x0001e762:    f2c00001    ....    MOVT     r0,#1
        0x0001e766:    f7fefcc7    ....    BL       am_util_stdio_printf ; 0x1d0f8
        0x0001e76a:    f04f30ff    O..0    MOV      r0,#0xffffffff
        0x0001e76e:    9017        ..      STR      r0,[sp,#0x5c]
        0x0001e770:    e0cd        ..      B        0x1e90e ; main + 1162
        0x0001e772:    2000        .       MOVS     r0,#0
        0x0001e774:    9007        ..      STR      r0,[sp,#0x1c]
        0x0001e776:    e7ff        ..      B        0x1e778 ; main + 756
        0x0001e778:    9907        ..      LDR      r1,[sp,#0x1c]
        0x0001e77a:    2000        .       MOVS     r0,#0
        0x0001e77c:    293f        ?)      CMP      r1,#0x3f
        0x0001e77e:    9002        ..      STR      r0,[sp,#8]
        0x0001e780:    d80b        ..      BHI      0x1e79a ; main + 790
        0x0001e782:    e7ff        ..      B        0x1e784 ; main + 768
        0x0001e784:    9808        ..      LDR      r0,[sp,#0x20]
        0x0001e786:    9907        ..      LDR      r1,[sp,#0x1c]
        0x0001e788:    eb000181    ....    ADD      r1,r0,r1,LSL #2
        0x0001e78c:    9a09        ..      LDR      r2,[sp,#0x24]
        0x0001e78e:    2000        .       MOVS     r0,#0
        0x0001e790:    4291        .B      CMP      r1,r2
        0x0001e792:    bf38        8.      IT       CC
        0x0001e794:    2001        .       MOVCC    r0,#1
        0x0001e796:    9002        ..      STR      r0,[sp,#8]
        0x0001e798:    e7ff        ..      B        0x1e79a ; main + 790
        0x0001e79a:    9802        ..      LDR      r0,[sp,#8]
        0x0001e79c:    07c0        ..      LSLS     r0,r0,#31
        0x0001e79e:    2800        .(      CMP      r0,#0
        0x0001e7a0:    d078        x.      BEQ      0x1e894 ; main + 1040
        0x0001e7a2:    e7ff        ..      B        0x1e7a4 ; main + 800
        0x0001e7a4:    9808        ..      LDR      r0,[sp,#0x20]
        0x0001e7a6:    9907        ..      LDR      r1,[sp,#0x1c]
        0x0001e7a8:    eb000081    ....    ADD      r0,r0,r1,LSL #2
        0x0001e7ac:    3004        .0      ADDS     r0,#4
        0x0001e7ae:    9909        ..      LDR      r1,[sp,#0x24]
        0x0001e7b0:    4288        .B      CMP      r0,r1
        0x0001e7b2:    d93e        >.      BLS      0x1e832 ; main + 942
        0x0001e7b4:    e7ff        ..      B        0x1e7b6 ; main + 818
        0x0001e7b6:    9809        ..      LDR      r0,[sp,#0x24]
        0x0001e7b8:    9908        ..      LDR      r1,[sp,#0x20]
        0x0001e7ba:    9a07        ..      LDR      r2,[sp,#0x1c]
        0x0001e7bc:    eb010182    ....    ADD      r1,r1,r2,LSL #2
        0x0001e7c0:    1a40        @.      SUBS     r0,r0,r1
        0x0001e7c2:    900c        ..      STR      r0,[sp,#0x30]
        0x0001e7c4:    9907        ..      LDR      r1,[sp,#0x1c]
        0x0001e7c6:    f6440080    D...    MOVW     r0,#0x4880
        0x0001e7ca:    f2c10000    ....    MOVT     r0,#0x1000
        0x0001e7ce:    f8500021    P.!.    LDR      r0,[r0,r1,LSL #2]
        0x0001e7d2:    990c        ..      LDR      r1,[sp,#0x30]
        0x0001e7d4:    f1c10104    ....    RSB      r1,r1,#4
        0x0001e7d8:    00ca        ..      LSLS     r2,r1,#3
        0x0001e7da:    f04f31ff    O..1    MOV      r1,#0xffffffff
        0x0001e7de:    fa21f202    !...    LSR      r2,r1,r2
        0x0001e7e2:    4010        .@      ANDS     r0,r0,r2
        0x0001e7e4:    900e        ..      STR      r0,[sp,#0x38]
        0x0001e7e6:    980b        ..      LDR      r0,[sp,#0x2c]
        0x0001e7e8:    9a08        ..      LDR      r2,[sp,#0x20]
        0x0001e7ea:    4410        .D      ADD      r0,r0,r2
        0x0001e7ec:    9a07        ..      LDR      r2,[sp,#0x1c]
        0x0001e7ee:    eb000082    ....    ADD      r0,r0,r2,LSL #2
        0x0001e7f2:    9a15        ..      LDR      r2,[sp,#0x54]
        0x0001e7f4:    1a80        ..      SUBS     r0,r0,r2
        0x0001e7f6:    6800        .h      LDR      r0,[r0,#0]
        0x0001e7f8:    9a0c        ..      LDR      r2,[sp,#0x30]
        0x0001e7fa:    f1c20204    ....    RSB      r2,r2,#4
        0x0001e7fe:    00d2        ..      LSLS     r2,r2,#3
        0x0001e800:    40d1        .@      LSRS     r1,r1,r2
        0x0001e802:    4008        .@      ANDS     r0,r0,r1
        0x0001e804:    900d        ..      STR      r0,[sp,#0x34]
        0x0001e806:    980e        ..      LDR      r0,[sp,#0x38]
        0x0001e808:    990d        ..      LDR      r1,[sp,#0x34]
        0x0001e80a:    4288        .B      CMP      r0,r1
        0x0001e80c:    d010        ..      BEQ      0x1e830 ; main + 940
        0x0001e80e:    e7ff        ..      B        0x1e810 ; main + 908
        0x0001e810:    9808        ..      LDR      r0,[sp,#0x20]
        0x0001e812:    9907        ..      LDR      r1,[sp,#0x1c]
        0x0001e814:    eb000181    ....    ADD      r1,r0,r1,LSL #2
        0x0001e818:    9a0d        ..      LDR      r2,[sp,#0x34]
        0x0001e81a:    9b0e        ..      LDR      r3,[sp,#0x38]
        0x0001e81c:    f64f50a0    O..P    MOV      r0,#0xfda0
        0x0001e820:    f2c00001    ....    MOVT     r0,#1
        0x0001e824:    f7fefc68    ..h.    BL       am_util_stdio_printf ; 0x1d0f8
        0x0001e828:    f04f30ff    O..0    MOV      r0,#0xffffffff
        0x0001e82c:    9017        ..      STR      r0,[sp,#0x5c]
        0x0001e82e:    e06e        n.      B        0x1e90e ; main + 1162
        0x0001e830:    e02b        +.      B        0x1e88a ; main + 1030
        0x0001e832:    9a07        ..      LDR      r2,[sp,#0x1c]
        0x0001e834:    f6440080    D...    MOVW     r0,#0x4880
        0x0001e838:    f2c10000    ....    MOVT     r0,#0x1000
        0x0001e83c:    f8500022    P.".    LDR      r0,[r0,r2,LSL #2]
        0x0001e840:    990b        ..      LDR      r1,[sp,#0x2c]
        0x0001e842:    9b08        ..      LDR      r3,[sp,#0x20]
        0x0001e844:    4419        .D      ADD      r1,r1,r3
        0x0001e846:    eb010182    ....    ADD      r1,r1,r2,LSL #2
        0x0001e84a:    9a15        ..      LDR      r2,[sp,#0x54]
        0x0001e84c:    1a89        ..      SUBS     r1,r1,r2
        0x0001e84e:    6809        .h      LDR      r1,[r1,#0]
        0x0001e850:    4288        .B      CMP      r0,r1
        0x0001e852:    d019        ..      BEQ      0x1e888 ; main + 1028
        0x0001e854:    e7ff        ..      B        0x1e856 ; main + 978
        0x0001e856:    9808        ..      LDR      r0,[sp,#0x20]
        0x0001e858:    9b07        ..      LDR      r3,[sp,#0x1c]
        0x0001e85a:    eb000183    ....    ADD      r1,r0,r3,LSL #2
        0x0001e85e:    980b        ..      LDR      r0,[sp,#0x2c]
        0x0001e860:    4408        .D      ADD      r0,r0,r1
        0x0001e862:    9a15        ..      LDR      r2,[sp,#0x54]
        0x0001e864:    1a80        ..      SUBS     r0,r0,r2
        0x0001e866:    6802        .h      LDR      r2,[r0,#0]
        0x0001e868:    f6440080    D...    MOVW     r0,#0x4880
        0x0001e86c:    f2c10000    ....    MOVT     r0,#0x1000
        0x0001e870:    f8503023    P.#0    LDR      r3,[r0,r3,LSL #2]
        0x0001e874:    f64f50a0    O..P    MOV      r0,#0xfda0
        0x0001e878:    f2c00001    ....    MOVT     r0,#1
        0x0001e87c:    f7fefc3c    ..<.    BL       am_util_stdio_printf ; 0x1d0f8
        0x0001e880:    f04f30ff    O..0    MOV      r0,#0xffffffff
        0x0001e884:    9017        ..      STR      r0,[sp,#0x5c]
        0x0001e886:    e042        B.      B        0x1e90e ; main + 1162
        0x0001e888:    e7ff        ..      B        0x1e88a ; main + 1030
        0x0001e88a:    e7ff        ..      B        0x1e88c ; main + 1032
        0x0001e88c:    9807        ..      LDR      r0,[sp,#0x1c]
        0x0001e88e:    3001        .0      ADDS     r0,#1
        0x0001e890:    9007        ..      STR      r0,[sp,#0x1c]
        0x0001e892:    e771        q.      B        0x1e778 ; main + 756
        0x0001e894:    e7ff        ..      B        0x1e896 ; main + 1042
        0x0001e896:    9808        ..      LDR      r0,[sp,#0x20]
        0x0001e898:    f5007080    ...p    ADD      r0,r0,#0x100
        0x0001e89c:    9008        ..      STR      r0,[sp,#0x20]
        0x0001e89e:    e741        A.      B        0x1e724 ; main + 672
        0x0001e8a0:    f89d003e    ..>.    LDRB     r0,[sp,#0x3e]
        0x0001e8a4:    07c0        ..      LSLS     r0,r0,#31
        0x0001e8a6:    b350        P.      CBZ      r0,0x1e8fe ; main + 1146
        0x0001e8a8:    e7ff        ..      B        0x1e8aa ; main + 1062
        0x0001e8aa:    f64f608d    O..`    MOV      r0,#0xfe8d
        0x0001e8ae:    f2c00001    ....    MOVT     r0,#1
        0x0001e8b2:    f7fefc21    ..!.    BL       am_util_stdio_printf ; 0x1d0f8
        0x0001e8b6:    f6445088    D..P    MOV      r0,#0x4d88
        0x0001e8ba:    f2c10000    ....    MOVT     r0,#0x1000
        0x0001e8be:    6800        .h      LDR      r0,[r0,#0]
        0x0001e8c0:    f7fafc0a    ....    BL       am_devices_mspi_psram_aps12808l_ddr_enable_xip ; 0x190d8
        0x0001e8c4:    9016        ..      STR      r0,[sp,#0x58]
        0x0001e8c6:    9816        ..      LDR      r0,[sp,#0x58]
        0x0001e8c8:    b150        P.      CBZ      r0,0x1e8e0 ; main + 1116
        0x0001e8ca:    e7ff        ..      B        0x1e8cc ; main + 1096
        0x0001e8cc:    f64f5056    O.VP    MOV      r0,#0xfd56
        0x0001e8d0:    f2c00001    ....    MOVT     r0,#1
        0x0001e8d4:    f7fefc10    ....    BL       am_util_stdio_printf ; 0x1d0f8
        0x0001e8d8:    f04f30ff    O..0    MOV      r0,#0xffffffff
        0x0001e8dc:    9017        ..      STR      r0,[sp,#0x5c]
        0x0001e8de:    e016        ..      B        0x1e90e ; main + 1162
        0x0001e8e0:    980a        ..      LDR      r0,[sp,#0x28]
        0x0001e8e2:    9006        ..      STR      r0,[sp,#0x18]
        0x0001e8e4:    f64f602b    O.+`    MOV      r0,#0xfe2b
        0x0001e8e8:    f2c00001    ....    MOVT     r0,#1
        0x0001e8ec:    f7fefc04    ....    BL       am_util_stdio_printf ; 0x1d0f8
        0x0001e8f0:    2064        d       MOVS     r0,#0x64
        0x0001e8f2:    f7fefa59    ..Y.    BL       am_util_delay_ms ; 0x1cda8
        0x0001e8f6:    9806        ..      LDR      r0,[sp,#0x18]
        0x0001e8f8:    f000fdb2    ....    BL       run_new_image ; 0x1f460
        0x0001e8fc:    e007        ..      B        0x1e90e ; main + 1162
        0x0001e8fe:    f64f6055    O.U`    MOV      r0,#0xfe55
        0x0001e902:    f2c00001    ....    MOVT     r0,#1
        0x0001e906:    f7fefbf7    ....    BL       am_util_stdio_printf ; 0x1d0f8
        0x0001e90a:    e7ff        ..      B        0x1e90c ; main + 1160
        0x0001e90c:    e7fe        ..      B        0x1e90c ; main + 1160
        0x0001e90e:    9817        ..      LDR      r0,[sp,#0x5c]
        0x0001e910:    b018        ..      ADD      sp,sp,#0x60
        0x0001e912:    bd80        ..      POP      {r7,pc}
    mspi_add_hp_transaction
        0x0001e914:    b570        p.      PUSH     {r4-r6,lr}
        0x0001e916:    f8d0e840    ..@.    LDR      lr,[r0,#0x840]
        0x0001e91a:    f8d0c848    ..H.    LDR      r12,[r0,#0x848]
        0x0001e91e:    45e6        .E      CMP      lr,r12
        0x0001e920:    bf04        ..      ITT      EQ
        0x0001e922:    2005        .       MOVEQ    r0,#5
        0x0001e924:    bd70        p.      POPEQ    {r4-r6,pc}
        0x0001e926:    f8d0e84c    ..L.    LDR      lr,[r0,#0x84c]
        0x0001e92a:    f8d05854    ..TX    LDR      r5,[r0,#0x854]
        0x0001e92e:    fbbef4fc    ....    UDIV     r4,lr,r12
        0x0001e932:    fb04ec1c    ....    MLS      r12,r4,r12,lr
        0x0001e936:    eb0c044c    ..L.    ADD      r4,r12,r12,LSL #1
        0x0001e93a:    f8d1c00c    ....    LDR      r12,[r1,#0xc]
        0x0001e93e:    eb0506c4    ....    ADD      r6,r5,r4,LSL #3
        0x0001e942:    f845c034    E.4.    STR      r12,[r5,r4,LSL #3]
        0x0001e946:    e9d14501    ...E    LDRD     r4,r5,[r1,#4]
        0x0001e94a:    f1060c0c    ....    ADD      r12,r6,#0xc
        0x0001e94e:    e9c65401    ...T    STRD     r5,r4,[r6,#4]
        0x0001e952:    780d        .x      LDRB     r5,[r1,#0]
        0x0001e954:    7849        Ix      LDRB     r1,[r1,#1]
        0x0001e956:    2404        .$      MOVS     r4,#4
        0x0001e958:    ea040181    ....    AND      r1,r4,r1,LSL #2
        0x0001e95c:    f3651105    e...    BFI      r1,r5,#4,#2
        0x0001e960:    3103        .1      ADDS     r1,#3
        0x0001e962:    e88c000e    ....    STM      r12,{r1-r3}
        0x0001e966:    f10e0101    ....    ADD      r1,lr,#1
        0x0001e96a:    f8c0184c    ..L.    STR      r1,[r0,#0x84c]
        0x0001e96e:    2000        .       MOVS     r0,#0
        0x0001e970:    bd70        p.      POP      {r4-r6,pc}
        0x0001e972:    0000        ..      MOVS     r0,r0
    mspi_cq_pause
        0x0001e974:    b570        p.      PUSH     {r4-r6,lr}
        0x0001e976:    b082        ..      SUB      sp,sp,#8
        0x0001e978:    4604        .F      MOV      r4,r0
        0x0001e97a:    6840        @h      LDR      r0,[r0,#4]
        0x0001e97c:    2500        .%      MOVS     r5,#0
        0x0001e97e:    f2c40506    ....    MOVT     r5,#0x4006
        0x0001e982:    eb053000    ...0    ADD      r0,r5,r0,LSL #12
        0x0001e986:    f44f0100    O...    MOV      r1,#0x800000
        0x0001e98a:    f8c012b4    ....    STR      r1,[r0,#0x2b4]
        0x0001e98e:    6860        `h      LDR      r0,[r4,#4]
        0x0001e990:    eb053000    ...0    ADD      r0,r5,r0,LSL #12
        0x0001e994:    f8d012a0    ....    LDR      r1,[r0,#0x2a0]
        0x0001e998:    07c9        ..      LSLS     r1,r1,#31
        0x0001e99a:    d018        ..      BEQ      0x1e9ce ; mspi_cq_pause + 90
        0x0001e99c:    f647165f    G._.    MOV      r6,#0x795f
        0x0001e9a0:    f6cf76fe    ...v    MOVT     r6,#0xfffe
        0x0001e9a4:    f8d012ac    ....    LDR      r1,[r0,#0x2ac]
        0x0001e9a8:    0709        ..      LSLS     r1,r1,#28
        0x0001e9aa:    bf44        D.      ITT      MI
        0x0001e9ac:    f8d012b8    ....    LDRMI    r1,[r0,#0x2b8]
        0x0001e9b0:    ea5f6101    _..a    LSLSMI   r1,r1,#24
        0x0001e9b4:    d40b        ..      BMI      0x1e9ce ; mspi_cq_pause + 90
        0x0001e9b6:    3601        .6      ADDS     r6,#1
        0x0001e9b8:    d218        ..      BCS      0x1e9ec ; mspi_cq_pause + 120
        0x0001e9ba:    2001        .       MOVS     r0,#1
        0x0001e9bc:    f7fbfcfa    ....    BL       am_hal_delay_us ; 0x1a3b4
        0x0001e9c0:    6860        `h      LDR      r0,[r4,#4]
        0x0001e9c2:    eb053000    ...0    ADD      r0,r5,r0,LSL #12
        0x0001e9c6:    f8d012a0    ....    LDR      r1,[r0,#0x2a0]
        0x0001e9ca:    07c9        ..      LSLS     r1,r1,#31
        0x0001e9cc:    d1ea        ..      BNE      0x1e9a4 ; mspi_cq_pause + 48
        0x0001e9ce:    f5007182    ...q    ADD      r1,r0,#0x104
        0x0001e9d2:    f24860a0    H..`    MOV      r0,#0x86a0
        0x0001e9d6:    2601        .&      MOVS     r6,#1
        0x0001e9d8:    f2c00001    ....    MOVT     r0,#1
        0x0001e9dc:    2201        ."      MOVS     r2,#1
        0x0001e9de:    2300        .#      MOVS     r3,#0
        0x0001e9e0:    9600        ..      STR      r6,[sp,#0]
        0x0001e9e2:    f7fbfd2f    ../.    BL       am_hal_delay_us_status_check ; 0x1a444
        0x0001e9e6:    b002        ..      ADD      sp,sp,#8
        0x0001e9e8:    bd70        p.      POP      {r4-r6,pc}
        0x0001e9ea:    bf00        ..      NOP      
        0x0001e9ec:    2004        .       MOVS     r0,#4
        0x0001e9ee:    b002        ..      ADD      sp,sp,#8
        0x0001e9f0:    bd70        p.      POP      {r4-r6,pc}
        0x0001e9f2:    0000        ..      MOVS     r0,r0
    mspi_device_configure
        0x0001e9f4:    7a82        .z      LDRB     r2,[r0,#0xa]
        0x0001e9f6:    2a19        .*      CMP      r2,#0x19
        0x0001e9f8:    bf88        ..      IT       HI
        0x0001e9fa:    4770        pG      BXHI     lr
        0x0001e9fc:    6841        Ah      LDR      r1,[r0,#4]
        0x0001e9fe:    e8dff012    ....    TBH      [pc,r2,LSL #1]
    $d.6
        0x0001ea02:    0041        A.      DCW    65
        0x0001ea04:    005d004b    K.].    DCD    6094923
        0x0001ea08:    00710067    g.q.    DCD    7405671
        0x0001ea0c:    001b007b    {...    DCD    1769595
        0x0001ea10:    001b0025    %...    DCD    1769509
        0x0001ea14:    00930025    %...    DCD    9633829
        0x0001ea18:    00bb009d    ....    DCD    12255389
        0x0001ea1c:    00eb00d3    ....    DCD    15401171
        0x0001ea20:    010d00f5    ....    DCD    17629429
        0x0001ea24:    01270117    ..'.    DCD    19333399
        0x0001ea28:    01550131    1.U.    DCD    22348081
        0x0001ea2c:    0181015f    _...    DCD    25231711
        0x0001ea30:    019b018b    ....    DCD    26935691
        0x0001ea34:    bf0001a5    ....    DCD    3204448677
    $t.7
        0x0001ea38:    2000        .       MOVS     r0,#0
        0x0001ea3a:    f2c40006    ....    MOVT     r0,#0x4006
        0x0001ea3e:    eb003101    ...1    ADD      r1,r0,r1,LSL #12
        0x0001ea42:    f8d10084    ....    LDR      r0,[r1,#0x84]
        0x0001ea46:    220d        ."      MOVS     r2,#0xd
        0x0001ea48:    e008        ..      B        0x1ea5c ; mspi_device_configure + 104
        0x0001ea4a:    bf00        ..      NOP      
        0x0001ea4c:    2000        .       MOVS     r0,#0
        0x0001ea4e:    f2c40006    ....    MOVT     r0,#0x4006
        0x0001ea52:    eb003101    ...1    ADD      r1,r0,r1,LSL #12
        0x0001ea56:    f8d10084    ....    LDR      r0,[r1,#0x84]
        0x0001ea5a:    220e        ."      MOVS     r2,#0xe
        0x0001ea5c:    f3620004    b...    BFI      r0,r2,#0,#5
        0x0001ea60:    f8c10084    ....    STR      r0,[r1,#0x84]
        0x0001ea64:    f8d10084    ....    LDR      r0,[r1,#0x84]
        0x0001ea68:    f0207000     ..p    BIC      r0,r0,#0x2000000
        0x0001ea6c:    f8c10084    ....    STR      r0,[r1,#0x84]
        0x0001ea70:    f8d10090    ....    LDR      r0,[r1,#0x90]
        0x0001ea74:    f4206070     .p`    BIC      r0,r0,#0xf00
        0x0001ea78:    f8c10090    ....    STR      r0,[r1,#0x90]
        0x0001ea7c:    f24030ff    @..0    MOV      r0,#0x3ff
        0x0001ea80:    6448        Hd      STR      r0,[r1,#0x44]
        0x0001ea82:    4770        pG      BX       lr
        0x0001ea84:    2200        ."      MOVS     r2,#0
        0x0001ea86:    f2c40206    ....    MOVT     r2,#0x4006
        0x0001ea8a:    eb023101    ...1    ADD      r1,r2,r1,LSL #12
        0x0001ea8e:    f8d12084    ...     LDR      r2,[r1,#0x84]
        0x0001ea92:    2301        .#      MOVS     r3,#1
        0x0001ea94:    e008        ..      B        0x1eaa8 ; mspi_device_configure + 180
        0x0001ea96:    bf00        ..      NOP      
        0x0001ea98:    2200        ."      MOVS     r2,#0
        0x0001ea9a:    f2c40206    ....    MOVT     r2,#0x4006
        0x0001ea9e:    eb023101    ...1    ADD      r1,r2,r1,LSL #12
        0x0001eaa2:    f8d12084    ...     LDR      r2,[r1,#0x84]
        0x0001eaa6:    2302        .#      MOVS     r3,#2
        0x0001eaa8:    f3630204    c...    BFI      r2,r3,#0,#5
        0x0001eaac:    f8c12084    ...     STR      r2,[r1,#0x84]
        0x0001eab0:    f8d12084    ...     LDR      r2,[r1,#0x84]
        0x0001eab4:    f0427200    B..r    ORR      r2,r2,#0x2000000
        0x0001eab8:    e112        ..      B        0x1ece0 ; mspi_device_configure + 748
        0x0001eaba:    bf00        ..      NOP      
        0x0001eabc:    2200        ."      MOVS     r2,#0
        0x0001eabe:    f2c40206    ....    MOVT     r2,#0x4006
        0x0001eac2:    eb023101    ...1    ADD      r1,r2,r1,LSL #12
        0x0001eac6:    f8d12084    ...     LDR      r2,[r1,#0x84]
        0x0001eaca:    2305        .#      MOVS     r3,#5
        0x0001eacc:    e100        ..      B        0x1ecd0 ; mspi_device_configure + 732
        0x0001eace:    bf00        ..      NOP      
        0x0001ead0:    2200        ."      MOVS     r2,#0
        0x0001ead2:    f2c40206    ....    MOVT     r2,#0x4006
        0x0001ead6:    eb023101    ...1    ADD      r1,r2,r1,LSL #12
        0x0001eada:    f8d12084    ...     LDR      r2,[r1,#0x84]
        0x0001eade:    2306        .#      MOVS     r3,#6
        0x0001eae0:    e0f6        ..      B        0x1ecd0 ; mspi_device_configure + 732
        0x0001eae2:    bf00        ..      NOP      
        0x0001eae4:    2200        ."      MOVS     r2,#0
        0x0001eae6:    f2c40206    ....    MOVT     r2,#0x4006
        0x0001eaea:    eb023101    ...1    ADD      r1,r2,r1,LSL #12
        0x0001eaee:    f8d12084    ...     LDR      r2,[r1,#0x84]
        0x0001eaf2:    2309        .#      MOVS     r3,#9
        0x0001eaf4:    e008        ..      B        0x1eb08 ; mspi_device_configure + 276
        0x0001eaf6:    bf00        ..      NOP      
        0x0001eaf8:    2200        ."      MOVS     r2,#0
        0x0001eafa:    f2c40206    ....    MOVT     r2,#0x4006
        0x0001eafe:    eb023101    ...1    ADD      r1,r2,r1,LSL #12
        0x0001eb02:    f8d12084    ...     LDR      r2,[r1,#0x84]
        0x0001eb06:    230a        .#      MOVS     r3,#0xa
        0x0001eb08:    f3630204    c...    BFI      r2,r3,#0,#5
        0x0001eb0c:    f8c12084    ...     STR      r2,[r1,#0x84]
        0x0001eb10:    f8d12084    ...     LDR      r2,[r1,#0x84]
        0x0001eb14:    f0227200    "..r    BIC      r2,r2,#0x2000000
        0x0001eb18:    f8c12084    ...     STR      r2,[r1,#0x84]
        0x0001eb1c:    f8d12090    ...     LDR      r2,[r1,#0x90]
        0x0001eb20:    f4226270    ".pb    BIC      r2,r2,#0xf00
        0x0001eb24:    e0b5        ..      B        0x1ec92 ; mspi_device_configure + 670
        0x0001eb26:    bf00        ..      NOP      
        0x0001eb28:    2000        .       MOVS     r0,#0
        0x0001eb2a:    f2c40006    ....    MOVT     r0,#0x4006
        0x0001eb2e:    eb003101    ...1    ADD      r1,r0,r1,LSL #12
        0x0001eb32:    f8d10084    ....    LDR      r0,[r1,#0x84]
        0x0001eb36:    2211        ."      MOVS     r2,#0x11
        0x0001eb38:    e008        ..      B        0x1eb4c ; mspi_device_configure + 344
        0x0001eb3a:    bf00        ..      NOP      
        0x0001eb3c:    2000        .       MOVS     r0,#0
        0x0001eb3e:    f2c40006    ....    MOVT     r0,#0x4006
        0x0001eb42:    eb003101    ...1    ADD      r1,r0,r1,LSL #12
        0x0001eb46:    f8d10084    ....    LDR      r0,[r1,#0x84]
        0x0001eb4a:    2212        ."      MOVS     r2,#0x12
        0x0001eb4c:    f3620004    b...    BFI      r0,r2,#0,#5
        0x0001eb50:    f8c10084    ....    STR      r0,[r1,#0x84]
        0x0001eb54:    f8d10084    ....    LDR      r0,[r1,#0x84]
        0x0001eb58:    f0207000     ..p    BIC      r0,r0,#0x2000000
        0x0001eb5c:    f8c10084    ....    STR      r0,[r1,#0x84]
        0x0001eb60:    f8d12090    ...     LDR      r2,[r1,#0x90]
        0x0001eb64:    f64f70ff    O..p    MOV      r0,#0xffff
        0x0001eb68:    f4226270    ".pb    BIC      r2,r2,#0xf00
        0x0001eb6c:    f2c00007    ....    MOVT     r0,#7
        0x0001eb70:    f8c12090    ...     STR      r2,[r1,#0x90]
        0x0001eb74:    6448        Hd      STR      r0,[r1,#0x44]
        0x0001eb76:    4770        pG      BX       lr
        0x0001eb78:    2200        ."      MOVS     r2,#0
        0x0001eb7a:    f2c40206    ....    MOVT     r2,#0x4006
        0x0001eb7e:    eb023101    ...1    ADD      r1,r2,r1,LSL #12
        0x0001eb82:    f8d12084    ...     LDR      r2,[r1,#0x84]
        0x0001eb86:    2301        .#      MOVS     r3,#1
        0x0001eb88:    f3630204    c...    BFI      r2,r3,#0,#5
        0x0001eb8c:    f8c12084    ...     STR      r2,[r1,#0x84]
        0x0001eb90:    f8d12084    ...     LDR      r2,[r1,#0x84]
        0x0001eb94:    f0227200    "..r    BIC      r2,r2,#0x2000000
        0x0001eb98:    f8c12084    ...     STR      r2,[r1,#0x84]
        0x0001eb9c:    f8d12090    ...     LDR      r2,[r1,#0x90]
        0x0001eba0:    f363220b    c.."    BFI      r2,r3,#8,#4
        0x0001eba4:    e0a2        ..      B        0x1ecec ; mspi_device_configure + 760
        0x0001eba6:    bf00        ..      NOP      
        0x0001eba8:    2200        ."      MOVS     r2,#0
        0x0001ebaa:    f2c40206    ....    MOVT     r2,#0x4006
        0x0001ebae:    eb023101    ...1    ADD      r1,r2,r1,LSL #12
        0x0001ebb2:    f8d12084    ...     LDR      r2,[r1,#0x84]
        0x0001ebb6:    2302        .#      MOVS     r3,#2
        0x0001ebb8:    f3630204    c...    BFI      r2,r3,#0,#5
        0x0001ebbc:    f8c12084    ...     STR      r2,[r1,#0x84]
        0x0001ebc0:    f8d12084    ...     LDR      r2,[r1,#0x84]
        0x0001ebc4:    2301        .#      MOVS     r3,#1
        0x0001ebc6:    f0227200    "..r    BIC      r2,r2,#0x2000000
        0x0001ebca:    f8c12084    ...     STR      r2,[r1,#0x84]
        0x0001ebce:    f8d12090    ...     LDR      r2,[r1,#0x90]
        0x0001ebd2:    f363220b    c.."    BFI      r2,r3,#8,#4
        0x0001ebd6:    e089        ..      B        0x1ecec ; mspi_device_configure + 760
        0x0001ebd8:    2200        ."      MOVS     r2,#0
        0x0001ebda:    f2c40206    ....    MOVT     r2,#0x4006
        0x0001ebde:    eb023101    ...1    ADD      r1,r2,r1,LSL #12
        0x0001ebe2:    f8d12084    ...     LDR      r2,[r1,#0x84]
        0x0001ebe6:    2301        .#      MOVS     r3,#1
        0x0001ebe8:    e008        ..      B        0x1ebfc ; mspi_device_configure + 520
        0x0001ebea:    bf00        ..      NOP      
        0x0001ebec:    2200        ."      MOVS     r2,#0
        0x0001ebee:    f2c40206    ....    MOVT     r2,#0x4006
        0x0001ebf2:    eb023101    ...1    ADD      r1,r2,r1,LSL #12
        0x0001ebf6:    f8d12084    ...     LDR      r2,[r1,#0x84]
        0x0001ebfa:    2302        .#      MOVS     r3,#2
        0x0001ebfc:    f3630204    c...    BFI      r2,r3,#0,#5
        0x0001ec00:    f8c12084    ...     STR      r2,[r1,#0x84]
        0x0001ec04:    f8d12084    ...     LDR      r2,[r1,#0x84]
        0x0001ec08:    2303        .#      MOVS     r3,#3
        0x0001ec0a:    f0227200    "..r    BIC      r2,r2,#0x2000000
        0x0001ec0e:    f8c12084    ...     STR      r2,[r1,#0x84]
        0x0001ec12:    f8d12090    ...     LDR      r2,[r1,#0x90]
        0x0001ec16:    f363220b    c.."    BFI      r2,r3,#8,#4
        0x0001ec1a:    e067        g.      B        0x1ecec ; mspi_device_configure + 760
        0x0001ec1c:    2200        ."      MOVS     r2,#0
        0x0001ec1e:    f2c40206    ....    MOVT     r2,#0x4006
        0x0001ec22:    eb023101    ...1    ADD      r1,r2,r1,LSL #12
        0x0001ec26:    f8d12084    ...     LDR      r2,[r1,#0x84]
        0x0001ec2a:    2301        .#      MOVS     r3,#1
        0x0001ec2c:    e008        ..      B        0x1ec40 ; mspi_device_configure + 588
        0x0001ec2e:    bf00        ..      NOP      
        0x0001ec30:    2200        ."      MOVS     r2,#0
        0x0001ec32:    f2c40206    ....    MOVT     r2,#0x4006
        0x0001ec36:    eb023101    ...1    ADD      r1,r2,r1,LSL #12
        0x0001ec3a:    f8d12084    ...     LDR      r2,[r1,#0x84]
        0x0001ec3e:    2302        .#      MOVS     r3,#2
        0x0001ec40:    f3630204    c...    BFI      r2,r3,#0,#5
        0x0001ec44:    f8c12084    ...     STR      r2,[r1,#0x84]
        0x0001ec48:    f8d12084    ...     LDR      r2,[r1,#0x84]
        0x0001ec4c:    2305        .#      MOVS     r3,#5
        0x0001ec4e:    e018        ..      B        0x1ec82 ; mspi_device_configure + 654
        0x0001ec50:    2200        ."      MOVS     r2,#0
        0x0001ec52:    f2c40206    ....    MOVT     r2,#0x4006
        0x0001ec56:    eb023101    ...1    ADD      r1,r2,r1,LSL #12
        0x0001ec5a:    f8d12084    ...     LDR      r2,[r1,#0x84]
        0x0001ec5e:    2301        .#      MOVS     r3,#1
        0x0001ec60:    e008        ..      B        0x1ec74 ; mspi_device_configure + 640
        0x0001ec62:    bf00        ..      NOP      
        0x0001ec64:    2200        ."      MOVS     r2,#0
        0x0001ec66:    f2c40206    ....    MOVT     r2,#0x4006
        0x0001ec6a:    eb023101    ...1    ADD      r1,r2,r1,LSL #12
        0x0001ec6e:    f8d12084    ...     LDR      r2,[r1,#0x84]
        0x0001ec72:    2302        .#      MOVS     r3,#2
        0x0001ec74:    f3630204    c...    BFI      r2,r3,#0,#5
        0x0001ec78:    f8c12084    ...     STR      r2,[r1,#0x84]
        0x0001ec7c:    f8d12084    ...     LDR      r2,[r1,#0x84]
        0x0001ec80:    2307        .#      MOVS     r3,#7
        0x0001ec82:    f0227200    "..r    BIC      r2,r2,#0x2000000
        0x0001ec86:    f8c12084    ...     STR      r2,[r1,#0x84]
        0x0001ec8a:    f8d12090    ...     LDR      r2,[r1,#0x90]
        0x0001ec8e:    f363220b    c.."    BFI      r2,r3,#8,#4
        0x0001ec92:    f8c12090    ...     STR      r2,[r1,#0x90]
        0x0001ec96:    7a42        Bz      LDRB     r2,[r0,#9]
        0x0001ec98:    2013        .       MOVS     r0,#0x13
        0x0001ec9a:    f2c80000    ....    MOVT     r0,#0x8000
        0x0001ec9e:    300c        .0      ADDS     r0,r0,#0xc
        0x0001eca0:    2a00        .*      CMP      r2,#0
        0x0001eca2:    bf08        ..      IT       EQ
        0x0001eca4:    f240100f    @...    MOVEQ    r0,#0x10f
        0x0001eca8:    6448        Hd      STR      r0,[r1,#0x44]
        0x0001ecaa:    4770        pG      BX       lr
        0x0001ecac:    2200        ."      MOVS     r2,#0
        0x0001ecae:    f2c40206    ....    MOVT     r2,#0x4006
        0x0001ecb2:    eb023101    ...1    ADD      r1,r2,r1,LSL #12
        0x0001ecb6:    f8d12084    ...     LDR      r2,[r1,#0x84]
        0x0001ecba:    2301        .#      MOVS     r3,#1
        0x0001ecbc:    e008        ..      B        0x1ecd0 ; mspi_device_configure + 732
        0x0001ecbe:    bf00        ..      NOP      
        0x0001ecc0:    2200        ."      MOVS     r2,#0
        0x0001ecc2:    f2c40206    ....    MOVT     r2,#0x4006
        0x0001ecc6:    eb023101    ...1    ADD      r1,r2,r1,LSL #12
        0x0001ecca:    f8d12084    ...     LDR      r2,[r1,#0x84]
        0x0001ecce:    2302        .#      MOVS     r3,#2
        0x0001ecd0:    f3630204    c...    BFI      r2,r3,#0,#5
        0x0001ecd4:    f8c12084    ...     STR      r2,[r1,#0x84]
        0x0001ecd8:    f8d12084    ...     LDR      r2,[r1,#0x84]
        0x0001ecdc:    f0227200    "..r    BIC      r2,r2,#0x2000000
        0x0001ece0:    f8c12084    ...     STR      r2,[r1,#0x84]
        0x0001ece4:    f8d12090    ...     LDR      r2,[r1,#0x90]
        0x0001ece8:    f4226270    ".pb    BIC      r2,r2,#0xf00
        0x0001ecec:    f8c12090    ...     STR      r2,[r1,#0x90]
        0x0001ecf0:    7a42        Bz      LDRB     r2,[r0,#9]
        0x0001ecf2:    2013        .       MOVS     r0,#0x13
        0x0001ecf4:    f2c80000    ....    MOVT     r0,#0x8000
        0x0001ecf8:    2a00        .*      CMP      r2,#0
        0x0001ecfa:    bf08        ..      IT       EQ
        0x0001ecfc:    f2401003    @...    MOVEQ    r0,#0x103
        0x0001ed00:    6448        Hd      STR      r0,[r1,#0x44]
        0x0001ed02:    4770        pG      BX       lr
        0x0001ed04:    2000        .       MOVS     r0,#0
        0x0001ed06:    f2c40006    ....    MOVT     r0,#0x4006
        0x0001ed0a:    eb003101    ...1    ADD      r1,r0,r1,LSL #12
        0x0001ed0e:    f8d10084    ....    LDR      r0,[r1,#0x84]
        0x0001ed12:    2201        ."      MOVS     r2,#1
        0x0001ed14:    e008        ..      B        0x1ed28 ; mspi_device_configure + 820
        0x0001ed16:    bf00        ..      NOP      
        0x0001ed18:    2000        .       MOVS     r0,#0
        0x0001ed1a:    f2c40006    ....    MOVT     r0,#0x4006
        0x0001ed1e:    eb003101    ...1    ADD      r1,r0,r1,LSL #12
        0x0001ed22:    f8d10084    ....    LDR      r0,[r1,#0x84]
        0x0001ed26:    2202        ."      MOVS     r2,#2
        0x0001ed28:    f3620004    b...    BFI      r0,r2,#0,#5
        0x0001ed2c:    f8c10084    ....    STR      r0,[r1,#0x84]
        0x0001ed30:    f8d10084    ....    LDR      r0,[r1,#0x84]
        0x0001ed34:    2209        ."      MOVS     r2,#9
        0x0001ed36:    e018        ..      B        0x1ed6a ; mspi_device_configure + 886
        0x0001ed38:    2000        .       MOVS     r0,#0
        0x0001ed3a:    f2c40006    ....    MOVT     r0,#0x4006
        0x0001ed3e:    eb003101    ...1    ADD      r1,r0,r1,LSL #12
        0x0001ed42:    f8d10084    ....    LDR      r0,[r1,#0x84]
        0x0001ed46:    2201        ."      MOVS     r2,#1
        0x0001ed48:    e008        ..      B        0x1ed5c ; mspi_device_configure + 872
        0x0001ed4a:    bf00        ..      NOP      
        0x0001ed4c:    2000        .       MOVS     r0,#0
        0x0001ed4e:    f2c40006    ....    MOVT     r0,#0x4006
        0x0001ed52:    eb003101    ...1    ADD      r1,r0,r1,LSL #12
        0x0001ed56:    f8d10084    ....    LDR      r0,[r1,#0x84]
        0x0001ed5a:    2202        ."      MOVS     r2,#2
        0x0001ed5c:    f3620004    b...    BFI      r0,r2,#0,#5
        0x0001ed60:    f8c10084    ....    STR      r0,[r1,#0x84]
        0x0001ed64:    f8d10084    ....    LDR      r0,[r1,#0x84]
        0x0001ed68:    220b        ."      MOVS     r2,#0xb
        0x0001ed6a:    f0207000     ..p    BIC      r0,r0,#0x2000000
        0x0001ed6e:    f8c10084    ....    STR      r0,[r1,#0x84]
        0x0001ed72:    f8d10090    ....    LDR      r0,[r1,#0x90]
        0x0001ed76:    f362200b    b..     BFI      r0,r2,#8,#4
        0x0001ed7a:    f8c10090    ....    STR      r0,[r1,#0x90]
        0x0001ed7e:    f24030ff    @..0    MOV      r0,#0x3ff
        0x0001ed82:    6448        Hd      STR      r0,[r1,#0x44]
        0x0001ed84:    4770        pG      BX       lr
        0x0001ed86:    0000        ..      MOVS     r0,r0
    mspi_dummy_callback
        0x0001ed88:    4770        pG      BX       lr
        0x0001ed8a:    0000        ..      MOVS     r0,r0
    mspi_fifo_read
        0x0001ed8c:    e92d4ff0    -..O    PUSH     {r4-r11,lr}
        0x0001ed90:    b085        ..      SUB      sp,sp,#0x14
        0x0001ed92:    2802        .(      CMP      r0,#2
        0x0001ed94:    d904        ..      BLS      0x1eda0 ; mspi_fifo_read + 20
        0x0001ed96:    2405        .$      MOVS     r4,#5
        0x0001ed98:    4620         F      MOV      r0,r4
        0x0001ed9a:    b005        ..      ADD      sp,sp,#0x14
        0x0001ed9c:    e8bd8ff0    ....    POP      {r4-r11,pc}
        0x0001eda0:    4606        .F      MOV      r6,r0
        0x0001eda2:    2000        .       MOVS     r0,#0
        0x0001eda4:    461d        .F      MOV      r5,r3
        0x0001eda6:    4688        .F      MOV      r8,r1
        0x0001eda8:    ea5f0992    _...    LSRS     r9,r2,#2
        0x0001edac:    f04f0b00    O...    MOV      r11,#0
        0x0001edb0:    f2c40006    ....    MOVT     r0,#0x4006
        0x0001edb4:    d024        $.      BEQ      0x1ee00 ; mspi_fifo_read + 116
        0x0001edb6:    eb003a06    ...:    ADD      r10,r0,r6,LSL #12
        0x0001edba:    f10a071c    ....    ADD      r7,r10,#0x1c
        0x0001edbe:    9201        ..      STR      r2,[sp,#4]
        0x0001edc0:    e9cd9802    ....    STRD     r9,r8,[sp,#8]
        0x0001edc4:    4628        (F      MOV      r0,r5
        0x0001edc6:    4639        9F      MOV      r1,r7
        0x0001edc8:    223f        ?"      MOVS     r2,#0x3f
        0x0001edca:    2300        .#      MOVS     r3,#0
        0x0001edcc:    f8cdb000    ....    STR      r11,[sp,#0]
        0x0001edd0:    f7fbfb38    ..8.    BL       am_hal_delay_us_status_check ; 0x1a444
        0x0001edd4:    bbb0        ..      CBNZ     r0,0x1ee44 ; mspi_fifo_read + 184
        0x0001edd6:    f8da0014    ....    LDR      r0,[r10,#0x14]
        0x0001edda:    f1b90901    ....    SUBS     r9,r9,#1
        0x0001edde:    f8480b04    H...    STR      r0,[r8],#4
        0x0001ede2:    d1ef        ..      BNE      0x1edc4 ; mspi_fifo_read + 56
        0x0001ede4:    f8dd800c    ....    LDR      r8,[sp,#0xc]
        0x0001ede8:    e9dd2901    ...)    LDRD     r2,r9,[sp,#4]
        0x0001edec:    2000        .       MOVS     r0,#0
        0x0001edee:    f2c40006    ....    MOVT     r0,#0x4006
        0x0001edf2:    f0120703    ....    ANDS     r7,r2,#3
        0x0001edf6:    f04f0400    O...    MOV      r4,#0
        0x0001edfa:    d108        ..      BNE      0x1ee0e ; mspi_fifo_read + 130
        0x0001edfc:    e7cc        ..      B        0x1ed98 ; mspi_fifo_read + 12
        0x0001edfe:    bf00        ..      NOP      
        0x0001ee00:    f04f0900    O...    MOV      r9,#0
        0x0001ee04:    f0120703    ....    ANDS     r7,r2,#3
        0x0001ee08:    f04f0400    O...    MOV      r4,#0
        0x0001ee0c:    d0c4        ..      BEQ      0x1ed98 ; mspi_fifo_read + 12
        0x0001ee0e:    eb003606    ...6    ADD      r6,r0,r6,LSL #12
        0x0001ee12:    f106011c    ....    ADD      r1,r6,#0x1c
        0x0001ee16:    4628        (F      MOV      r0,r5
        0x0001ee18:    223f        ?"      MOVS     r2,#0x3f
        0x0001ee1a:    2300        .#      MOVS     r3,#0
        0x0001ee1c:    9400        ..      STR      r4,[sp,#0]
        0x0001ee1e:    f7fbfb11    ....    BL       am_hal_delay_us_status_check ; 0x1a444
        0x0001ee22:    4604        .F      MOV      r4,r0
        0x0001ee24:    2800        .(      CMP      r0,#0
        0x0001ee26:    d1b7        ..      BNE      0x1ed98 ; mspi_fifo_read + 12
        0x0001ee28:    6970        pi      LDR      r0,[r6,#0x14]
        0x0001ee2a:    a904        ..      ADD      r1,sp,#0x10
        0x0001ee2c:    9004        ..      STR      r0,[sp,#0x10]
        0x0001ee2e:    eb080089    ....    ADD      r0,r8,r9,LSL #2
        0x0001ee32:    463a        :F      MOV      r2,r7
        0x0001ee34:    f7f9fa88    ....    BL       __aeabi_memcpy ; 0x18348
        0x0001ee38:    2400        .$      MOVS     r4,#0
        0x0001ee3a:    4620         F      MOV      r0,r4
        0x0001ee3c:    b005        ..      ADD      sp,sp,#0x14
        0x0001ee3e:    e8bd8ff0    ....    POP      {r4-r11,pc}
        0x0001ee42:    bf00        ..      NOP      
        0x0001ee44:    4604        .F      MOV      r4,r0
        0x0001ee46:    4620         F      MOV      r0,r4
        0x0001ee48:    b005        ..      ADD      sp,sp,#0x14
        0x0001ee4a:    e8bd8ff0    ....    POP      {r4-r11,pc}
        0x0001ee4e:    0000        ..      MOVS     r0,r0
    mspi_fifo_write
        0x0001ee50:    e92d47f0    -..G    PUSH     {r4-r10,lr}
        0x0001ee54:    b082        ..      SUB      sp,sp,#8
        0x0001ee56:    2802        .(      CMP      r0,#2
        0x0001ee58:    d904        ..      BLS      0x1ee64 ; mspi_fifo_write + 20
        0x0001ee5a:    2405        .$      MOVS     r4,#5
        0x0001ee5c:    4620         F      MOV      r0,r4
        0x0001ee5e:    b002        ..      ADD      sp,sp,#8
        0x0001ee60:    e8bd87f0    ....    POP      {r4-r10,pc}
        0x0001ee64:    4691        .F      MOV      r9,r2
        0x0001ee66:    2a00        .*      CMP      r2,#0
        0x0001ee68:    f04f0400    O...    MOV      r4,#0
        0x0001ee6c:    d0f6        ..      BEQ      0x1ee5c ; mspi_fifo_write + 12
        0x0001ee6e:    468a        .F      MOV      r10,r1
        0x0001ee70:    2100        .!      MOVS     r1,#0
        0x0001ee72:    f2c40106    ....    MOVT     r1,#0x4006
        0x0001ee76:    eb013600    ...6    ADD      r6,r1,r0,LSL #12
        0x0001ee7a:    2118        .!      MOVS     r1,#0x18
        0x0001ee7c:    f2c40106    ....    MOVT     r1,#0x4006
        0x0001ee80:    4698        .F      MOV      r8,r3
        0x0001ee82:    eb013500    ...5    ADD      r5,r1,r0,LSL #12
        0x0001ee86:    f06f0703    o...    MVN      r7,#3
        0x0001ee8a:    bf00        ..      NOP      
        0x0001ee8c:    eb0a0007    ....    ADD      r0,r10,r7
        0x0001ee90:    6840        @h      LDR      r0,[r0,#4]
        0x0001ee92:    4629        )F      MOV      r1,r5
        0x0001ee94:    6130        0a      STR      r0,[r6,#0x10]
        0x0001ee96:    4640        @F      MOV      r0,r8
        0x0001ee98:    223f        ?"      MOVS     r2,#0x3f
        0x0001ee9a:    2310        .#      MOVS     r3,#0x10
        0x0001ee9c:    9400        ..      STR      r4,[sp,#0]
        0x0001ee9e:    f7fbfad1    ....    BL       am_hal_delay_us_status_check ; 0x1a444
        0x0001eea2:    f1070108    ....    ADD      r1,r7,#8
        0x0001eea6:    3704        .7      ADDS     r7,#4
        0x0001eea8:    4549        IE      CMP      r1,r9
        0x0001eeaa:    d3ef        ..      BCC      0x1ee8c ; mspi_fifo_write + 60
        0x0001eeac:    4604        .F      MOV      r4,r0
        0x0001eeae:    4620         F      MOV      r0,r4
        0x0001eeb0:    b002        ..      ADD      sp,sp,#8
        0x0001eeb2:    e8bd87f0    ....    POP      {r4-r10,pc}
        0x0001eeb6:    0000        ..      MOVS     r0,r0
    mspi_piomixed_configure
        0x0001eeb8:    b2c9        ..      UXTB     r1,r1
        0x0001eeba:    2919        .)      CMP      r1,#0x19
        0x0001eebc:    bf88        ..      IT       HI
        0x0001eebe:    4770        pG      BXHI     lr
        0x0001eec0:    e8dff001    ....    TBB      [pc,r1]
    $d.15
        0x0001eec4:    0e0e0e0e    ....    DCD    235802126
        0x0001eec8:    0e0e0e0e    ....    DCD    235802126
        0x0001eecc:    0e0e0e0e    ....    DCD    235802126
        0x0001eed0:    24241818    ..$$    DCD    606345240
        0x0001eed4:    3c3c3030    00<<    DCD    1010577456
        0x0001eed8:    48480e0e    ..HH    DCD    1212681742
        0x0001eedc:    bf005454    TT..    DCD    3204469844
    $t.16
        0x0001eee0:    2100        .!      MOVS     r1,#0
        0x0001eee2:    f2c40106    ....    MOVT     r1,#0x4006
        0x0001eee6:    eb013000    ...0    ADD      r0,r1,r0,LSL #12
        0x0001eeea:    6841        Ah      LDR      r1,[r0,#4]
        0x0001eeec:    f021010f    !...    BIC      r1,r1,#0xf
        0x0001eef0:    6041        A`      STR      r1,[r0,#4]
        0x0001eef2:    4770        pG      BX       lr
        0x0001eef4:    2100        .!      MOVS     r1,#0
        0x0001eef6:    f2c40106    ....    MOVT     r1,#0x4006
        0x0001eefa:    eb013000    ...0    ADD      r0,r1,r0,LSL #12
        0x0001eefe:    6841        Ah      LDR      r1,[r0,#4]
        0x0001ef00:    2201        ."      MOVS     r2,#1
        0x0001ef02:    f3620103    b...    BFI      r1,r2,#0,#4
        0x0001ef06:    6041        A`      STR      r1,[r0,#4]
        0x0001ef08:    4770        pG      BX       lr
        0x0001ef0a:    bf00        ..      NOP      
        0x0001ef0c:    2100        .!      MOVS     r1,#0
        0x0001ef0e:    f2c40106    ....    MOVT     r1,#0x4006
        0x0001ef12:    eb013000    ...0    ADD      r0,r1,r0,LSL #12
        0x0001ef16:    6841        Ah      LDR      r1,[r0,#4]
        0x0001ef18:    2203        ."      MOVS     r2,#3
        0x0001ef1a:    f3620103    b...    BFI      r1,r2,#0,#4
        0x0001ef1e:    6041        A`      STR      r1,[r0,#4]
        0x0001ef20:    4770        pG      BX       lr
        0x0001ef22:    bf00        ..      NOP      
        0x0001ef24:    2100        .!      MOVS     r1,#0
        0x0001ef26:    f2c40106    ....    MOVT     r1,#0x4006
        0x0001ef2a:    eb013000    ...0    ADD      r0,r1,r0,LSL #12
        0x0001ef2e:    6841        Ah      LDR      r1,[r0,#4]
        0x0001ef30:    2205        ."      MOVS     r2,#5
        0x0001ef32:    f3620103    b...    BFI      r1,r2,#0,#4
        0x0001ef36:    6041        A`      STR      r1,[r0,#4]
        0x0001ef38:    4770        pG      BX       lr
        0x0001ef3a:    bf00        ..      NOP      
        0x0001ef3c:    2100        .!      MOVS     r1,#0
        0x0001ef3e:    f2c40106    ....    MOVT     r1,#0x4006
        0x0001ef42:    eb013000    ...0    ADD      r0,r1,r0,LSL #12
        0x0001ef46:    6841        Ah      LDR      r1,[r0,#4]
        0x0001ef48:    2207        ."      MOVS     r2,#7
        0x0001ef4a:    f3620103    b...    BFI      r1,r2,#0,#4
        0x0001ef4e:    6041        A`      STR      r1,[r0,#4]
        0x0001ef50:    4770        pG      BX       lr
        0x0001ef52:    bf00        ..      NOP      
        0x0001ef54:    2100        .!      MOVS     r1,#0
        0x0001ef56:    f2c40106    ....    MOVT     r1,#0x4006
        0x0001ef5a:    eb013000    ...0    ADD      r0,r1,r0,LSL #12
        0x0001ef5e:    6841        Ah      LDR      r1,[r0,#4]
        0x0001ef60:    2209        ."      MOVS     r2,#9
        0x0001ef62:    f3620103    b...    BFI      r1,r2,#0,#4
        0x0001ef66:    6041        A`      STR      r1,[r0,#4]
        0x0001ef68:    4770        pG      BX       lr
        0x0001ef6a:    bf00        ..      NOP      
        0x0001ef6c:    2100        .!      MOVS     r1,#0
        0x0001ef6e:    f2c40106    ....    MOVT     r1,#0x4006
        0x0001ef72:    eb013000    ...0    ADD      r0,r1,r0,LSL #12
        0x0001ef76:    6841        Ah      LDR      r1,[r0,#4]
        0x0001ef78:    220b        ."      MOVS     r2,#0xb
        0x0001ef7a:    f3620103    b...    BFI      r1,r2,#0,#4
        0x0001ef7e:    6041        A`      STR      r1,[r0,#4]
        0x0001ef80:    4770        pG      BX       lr
        0x0001ef82:    0000        ..      MOVS     r0,r0
    mspi_seq_loopback
        0x0001ef84:    f8d01830    ..0.    LDR      r1,[r0,#0x830]
        0x0001ef88:    2200        ."      MOVS     r2,#0
        0x0001ef8a:    3101        .1      ADDS     r1,#1
        0x0001ef8c:    e9c02107    ...!    STRD     r2,r1,[r0,#0x1c]
        0x0001ef90:    2101        .!      MOVS     r1,#1
        0x0001ef92:    f8801834    ..4.    STRB     r1,[r0,#0x834]
        0x0001ef96:    6840        @h      LDR      r0,[r0,#4]
        0x0001ef98:    f24021b4    @..!    MOVW     r1,#0x2b4
        0x0001ef9c:    0300        ..      LSLS     r0,r0,#12
        0x0001ef9e:    f2c40106    ....    MOVT     r1,#0x4006
        0x0001efa2:    2240        @"      MOVS     r2,#0x40
        0x0001efa4:    500a        .P      STR      r2,[r1,r0]
        0x0001efa6:    4770        pG      BX       lr
    ndigits_in_hex
        0x0001efa8:    b084        ..      SUB      sp,sp,#0x10
        0x0001efaa:    9103        ..      STR      r1,[sp,#0xc]
        0x0001efac:    9002        ..      STR      r0,[sp,#8]
        0x0001efae:    9802        ..      LDR      r0,[sp,#8]
        0x0001efb0:    9903        ..      LDR      r1,[sp,#0xc]
        0x0001efb2:    4308        .C      ORRS     r0,r0,r1
        0x0001efb4:    fab0f080    ....    CLZ      r0,r0
        0x0001efb8:    0940        @.      LSRS     r0,r0,#5
        0x0001efba:    9001        ..      STR      r0,[sp,#4]
        0x0001efbc:    e7ff        ..      B        0x1efbe ; ndigits_in_hex + 22
        0x0001efbe:    9802        ..      LDR      r0,[sp,#8]
        0x0001efc0:    9903        ..      LDR      r1,[sp,#0xc]
        0x0001efc2:    4308        .C      ORRS     r0,r0,r1
        0x0001efc4:    b160        `.      CBZ      r0,0x1efe0 ; ndigits_in_hex + 56
        0x0001efc6:    e7ff        ..      B        0x1efc8 ; ndigits_in_hex + 32
        0x0001efc8:    9802        ..      LDR      r0,[sp,#8]
        0x0001efca:    9903        ..      LDR      r1,[sp,#0xc]
        0x0001efcc:    0900        ..      LSRS     r0,r0,#4
        0x0001efce:    ea407001    @..p    ORR      r0,r0,r1,LSL #28
        0x0001efd2:    0909        ..      LSRS     r1,r1,#4
        0x0001efd4:    9103        ..      STR      r1,[sp,#0xc]
        0x0001efd6:    9002        ..      STR      r0,[sp,#8]
        0x0001efd8:    9801        ..      LDR      r0,[sp,#4]
        0x0001efda:    3001        .0      ADDS     r0,#1
        0x0001efdc:    9001        ..      STR      r0,[sp,#4]
        0x0001efde:    e7ee        ..      B        0x1efbe ; ndigits_in_hex + 22
        0x0001efe0:    9801        ..      LDR      r0,[sp,#4]
        0x0001efe2:    b004        ..      ADD      sp,sp,#0x10
        0x0001efe4:    4770        pG      BX       lr
        0x0001efe6:    0000        ..      MOVS     r0,r0
    ndigits_in_i64
        0x0001efe8:    b580        ..      PUSH     {r7,lr}
        0x0001efea:    b082        ..      SUB      sp,sp,#8
        0x0001efec:    9101        ..      STR      r1,[sp,#4]
        0x0001efee:    9000        ..      STR      r0,[sp,#0]
        0x0001eff0:    9801        ..      LDR      r0,[sp,#4]
        0x0001eff2:    f1b03fff    ...?    CMP      r0,#0xffffffff
        0x0001eff6:    dc09        ..      BGT      0x1f00c ; ndigits_in_i64 + 36
        0x0001eff8:    e7ff        ..      B        0x1effa ; ndigits_in_i64 + 18
        0x0001effa:    9800        ..      LDR      r0,[sp,#0]
        0x0001effc:    9a01        ..      LDR      r2,[sp,#4]
        0x0001effe:    4241        AB      RSBS     r1,r0,#0
        0x0001f000:    f04f0000    O...    MOV      r0,#0
        0x0001f004:    4190        .A      SBCS     r0,r0,r2
        0x0001f006:    9100        ..      STR      r1,[sp,#0]
        0x0001f008:    9001        ..      STR      r0,[sp,#4]
        0x0001f00a:    e7ff        ..      B        0x1f00c ; ndigits_in_i64 + 36
        0x0001f00c:    9800        ..      LDR      r0,[sp,#0]
        0x0001f00e:    9901        ..      LDR      r1,[sp,#4]
        0x0001f010:    f000f802    ....    BL       ndigits_in_u64 ; 0x1f018
        0x0001f014:    b002        ..      ADD      sp,sp,#8
        0x0001f016:    bd80        ..      POP      {r7,pc}
    ndigits_in_u64
        0x0001f018:    b580        ..      PUSH     {r7,lr}
        0x0001f01a:    b084        ..      SUB      sp,sp,#0x10
        0x0001f01c:    9103        ..      STR      r1,[sp,#0xc]
        0x0001f01e:    9002        ..      STR      r0,[sp,#8]
        0x0001f020:    9802        ..      LDR      r0,[sp,#8]
        0x0001f022:    9903        ..      LDR      r1,[sp,#0xc]
        0x0001f024:    4308        .C      ORRS     r0,r0,r1
        0x0001f026:    fab0f080    ....    CLZ      r0,r0
        0x0001f02a:    0940        @.      LSRS     r0,r0,#5
        0x0001f02c:    9001        ..      STR      r0,[sp,#4]
        0x0001f02e:    e7ff        ..      B        0x1f030 ; ndigits_in_u64 + 24
        0x0001f030:    9802        ..      LDR      r0,[sp,#8]
        0x0001f032:    9903        ..      LDR      r1,[sp,#0xc]
        0x0001f034:    4308        .C      ORRS     r0,r0,r1
        0x0001f036:    b150        P.      CBZ      r0,0x1f04e ; ndigits_in_u64 + 54
        0x0001f038:    e7ff        ..      B        0x1f03a ; ndigits_in_u64 + 34
        0x0001f03a:    9802        ..      LDR      r0,[sp,#8]
        0x0001f03c:    9903        ..      LDR      r1,[sp,#0xc]
        0x0001f03e:    f7fefd57    ..W.    BL       divu64_10 ; 0x1daf0
        0x0001f042:    9103        ..      STR      r1,[sp,#0xc]
        0x0001f044:    9002        ..      STR      r0,[sp,#8]
        0x0001f046:    9801        ..      LDR      r0,[sp,#4]
        0x0001f048:    3001        .0      ADDS     r0,#1
        0x0001f04a:    9001        ..      STR      r0,[sp,#4]
        0x0001f04c:    e7f0        ..      B        0x1f030 ; ndigits_in_u64 + 24
        0x0001f04e:    9801        ..      LDR      r0,[sp,#4]
        0x0001f050:    b004        ..      ADD      sp,sp,#0x10
        0x0001f052:    bd80        ..      POP      {r7,pc}
    padbuffer
        0x0001f054:    b085        ..      SUB      sp,sp,#0x14
        0x0001f056:    9003        ..      STR      r0,[sp,#0xc]
        0x0001f058:    f88d100b    ....    STRB     r1,[sp,#0xb]
        0x0001f05c:    9201        ..      STR      r2,[sp,#4]
        0x0001f05e:    2000        .       MOVS     r0,#0
        0x0001f060:    9000        ..      STR      r0,[sp,#0]
        0x0001f062:    9801        ..      LDR      r0,[sp,#4]
        0x0001f064:    2800        .(      CMP      r0,#0
        0x0001f066:    dc03        ..      BGT      0x1f070 ; padbuffer + 28
        0x0001f068:    e7ff        ..      B        0x1f06a ; padbuffer + 22
        0x0001f06a:    9800        ..      LDR      r0,[sp,#0]
        0x0001f06c:    9004        ..      STR      r0,[sp,#0x10]
        0x0001f06e:    e016        ..      B        0x1f09e ; padbuffer + 74
        0x0001f070:    e7ff        ..      B        0x1f072 ; padbuffer + 30
        0x0001f072:    9801        ..      LDR      r0,[sp,#4]
        0x0001f074:    1e41        A.      SUBS     r1,r0,#1
        0x0001f076:    9101        ..      STR      r1,[sp,#4]
        0x0001f078:    b170        p.      CBZ      r0,0x1f098 ; padbuffer + 68
        0x0001f07a:    e7ff        ..      B        0x1f07c ; padbuffer + 40
        0x0001f07c:    9803        ..      LDR      r0,[sp,#0xc]
        0x0001f07e:    b138        8.      CBZ      r0,0x1f090 ; padbuffer + 60
        0x0001f080:    e7ff        ..      B        0x1f082 ; padbuffer + 46
        0x0001f082:    f89d000b    ....    LDRB     r0,[sp,#0xb]
        0x0001f086:    9903        ..      LDR      r1,[sp,#0xc]
        0x0001f088:    1c4a        J.      ADDS     r2,r1,#1
        0x0001f08a:    9203        ..      STR      r2,[sp,#0xc]
        0x0001f08c:    7008        .p      STRB     r0,[r1,#0]
        0x0001f08e:    e7ff        ..      B        0x1f090 ; padbuffer + 60
        0x0001f090:    9800        ..      LDR      r0,[sp,#0]
        0x0001f092:    3001        .0      ADDS     r0,#1
        0x0001f094:    9000        ..      STR      r0,[sp,#0]
        0x0001f096:    e7ec        ..      B        0x1f072 ; padbuffer + 30
        0x0001f098:    9800        ..      LDR      r0,[sp,#0]
        0x0001f09a:    9004        ..      STR      r0,[sp,#0x10]
        0x0001f09c:    e7ff        ..      B        0x1f09e ; padbuffer + 74
        0x0001f09e:    9804        ..      LDR      r0,[sp,#0x10]
        0x0001f0a0:    b005        ..      ADD      sp,sp,#0x14
        0x0001f0a2:    4770        pG      BX       lr
    pfnMSPI_PSRAM_DDR_Callback
        0x0001f0a4:    b082        ..      SUB      sp,sp,#8
        0x0001f0a6:    9001        ..      STR      r0,[sp,#4]
        0x0001f0a8:    9100        ..      STR      r1,[sp,#0]
        0x0001f0aa:    9901        ..      LDR      r1,[sp,#4]
        0x0001f0ac:    2001        .       MOVS     r0,#1
        0x0001f0ae:    7008        .p      STRB     r0,[r1,#0]
        0x0001f0b0:    b002        ..      ADD      sp,sp,#8
        0x0001f0b2:    4770        pG      BX       lr
    prepare_test_pattern
        0x0001f0b4:    b08d        ..      SUB      sp,sp,#0x34
        0x0001f0b6:    900b        ..      STR      r0,[sp,#0x2c]
        0x0001f0b8:    910a        ..      STR      r1,[sp,#0x28]
        0x0001f0ba:    9209        ..      STR      r2,[sp,#0x24]
        0x0001f0bc:    980a        ..      LDR      r0,[sp,#0x28]
        0x0001f0be:    9008        ..      STR      r0,[sp,#0x20]
        0x0001f0c0:    980a        ..      LDR      r0,[sp,#0x28]
        0x0001f0c2:    9007        ..      STR      r0,[sp,#0x1c]
        0x0001f0c4:    f89d0024    ..$.    LDRB     r0,[sp,#0x24]
        0x0001f0c8:    0780        ..      LSLS     r0,r0,#30
        0x0001f0ca:    b120         .      CBZ      r0,0x1f0d6 ; prepare_test_pattern + 34
        0x0001f0cc:    e7ff        ..      B        0x1f0ce ; prepare_test_pattern + 26
        0x0001f0ce:    f04f30ff    O..0    MOV      r0,#0xffffffff
        0x0001f0d2:    900c        ..      STR      r0,[sp,#0x30]
        0x0001f0d4:    e085        ..      B        0x1f1e2 ; prepare_test_pattern + 302
        0x0001f0d6:    980b        ..      LDR      r0,[sp,#0x2c]
        0x0001f0d8:    9000        ..      STR      r0,[sp,#0]
        0x0001f0da:    2804        .(      CMP      r0,#4
        0x0001f0dc:    d86c        l.      BHI      0x1f1b8 ; prepare_test_pattern + 260
        0x0001f0de:    9900        ..      LDR      r1,[sp,#0]
        0x0001f0e0:    e8dff001    ....    TBB      [pc,r1]
    $d.28
        0x0001f0e4:    45301a03    ..0E    DCD    1160780291
        0x0001f0e8:    0057        W.      DCW    87
    $t.29
        0x0001f0ea:    2000        .       MOVS     r0,#0
        0x0001f0ec:    9006        ..      STR      r0,[sp,#0x18]
        0x0001f0ee:    e7ff        ..      B        0x1f0f0 ; prepare_test_pattern + 60
        0x0001f0f0:    9806        ..      LDR      r0,[sp,#0x18]
        0x0001f0f2:    9909        ..      LDR      r1,[sp,#0x24]
        0x0001f0f4:    ebb00f91    ....    CMP      r0,r1,LSR #2
        0x0001f0f8:    d20d        ..      BCS      0x1f116 ; prepare_test_pattern + 98
        0x0001f0fa:    e7ff        ..      B        0x1f0fc ; prepare_test_pattern + 72
        0x0001f0fc:    9908        ..      LDR      r1,[sp,#0x20]
        0x0001f0fe:    9a06        ..      LDR      r2,[sp,#0x18]
        0x0001f100:    f64a20aa    J..     MOV      r0,#0xaaaa
        0x0001f104:    f2c55055    ..UP    MOVT     r0,#0x5555
        0x0001f108:    f8410022    A.".    STR      r0,[r1,r2,LSL #2]
        0x0001f10c:    e7ff        ..      B        0x1f10e ; prepare_test_pattern + 90
        0x0001f10e:    9806        ..      LDR      r0,[sp,#0x18]
        0x0001f110:    3001        .0      ADDS     r0,#1
        0x0001f112:    9006        ..      STR      r0,[sp,#0x18]
        0x0001f114:    e7ec        ..      B        0x1f0f0 ; prepare_test_pattern + 60
        0x0001f116:    e061        a.      B        0x1f1dc ; prepare_test_pattern + 296
        0x0001f118:    2000        .       MOVS     r0,#0
        0x0001f11a:    9005        ..      STR      r0,[sp,#0x14]
        0x0001f11c:    e7ff        ..      B        0x1f11e ; prepare_test_pattern + 106
        0x0001f11e:    9805        ..      LDR      r0,[sp,#0x14]
        0x0001f120:    9909        ..      LDR      r1,[sp,#0x24]
        0x0001f122:    ebb00f91    ....    CMP      r0,r1,LSR #2
        0x0001f126:    d20c        ..      BCS      0x1f142 ; prepare_test_pattern + 142
        0x0001f128:    e7ff        ..      B        0x1f12a ; prepare_test_pattern + 118
        0x0001f12a:    9908        ..      LDR      r1,[sp,#0x20]
        0x0001f12c:    9a05        ..      LDR      r2,[sp,#0x14]
        0x0001f12e:    2000        .       MOVS     r0,#0
        0x0001f130:    f6cf70ff    ...p    MOVT     r0,#0xffff
        0x0001f134:    f8410022    A.".    STR      r0,[r1,r2,LSL #2]
        0x0001f138:    e7ff        ..      B        0x1f13a ; prepare_test_pattern + 134
        0x0001f13a:    9805        ..      LDR      r0,[sp,#0x14]
        0x0001f13c:    3001        .0      ADDS     r0,#1
        0x0001f13e:    9005        ..      STR      r0,[sp,#0x14]
        0x0001f140:    e7ed        ..      B        0x1f11e ; prepare_test_pattern + 106
        0x0001f142:    e04b        K.      B        0x1f1dc ; prepare_test_pattern + 296
        0x0001f144:    2000        .       MOVS     r0,#0
        0x0001f146:    9004        ..      STR      r0,[sp,#0x10]
        0x0001f148:    e7ff        ..      B        0x1f14a ; prepare_test_pattern + 150
        0x0001f14a:    9804        ..      LDR      r0,[sp,#0x10]
        0x0001f14c:    9909        ..      LDR      r1,[sp,#0x24]
        0x0001f14e:    4288        .B      CMP      r0,r1
        0x0001f150:    d20c        ..      BCS      0x1f16c ; prepare_test_pattern + 184
        0x0001f152:    e7ff        ..      B        0x1f154 ; prepare_test_pattern + 160
        0x0001f154:    9a04        ..      LDR      r2,[sp,#0x10]
        0x0001f156:    f0020107    ....    AND      r1,r2,#7
        0x0001f15a:    2001        .       MOVS     r0,#1
        0x0001f15c:    4088        .@      LSLS     r0,r0,r1
        0x0001f15e:    9907        ..      LDR      r1,[sp,#0x1c]
        0x0001f160:    5488        .T      STRB     r0,[r1,r2]
        0x0001f162:    e7ff        ..      B        0x1f164 ; prepare_test_pattern + 176
        0x0001f164:    9804        ..      LDR      r0,[sp,#0x10]
        0x0001f166:    3001        .0      ADDS     r0,#1
        0x0001f168:    9004        ..      STR      r0,[sp,#0x10]
        0x0001f16a:    e7ee        ..      B        0x1f14a ; prepare_test_pattern + 150
        0x0001f16c:    e036        6.      B        0x1f1dc ; prepare_test_pattern + 296
        0x0001f16e:    2000        .       MOVS     r0,#0
        0x0001f170:    9003        ..      STR      r0,[sp,#0xc]
        0x0001f172:    e7ff        ..      B        0x1f174 ; prepare_test_pattern + 192
        0x0001f174:    9803        ..      LDR      r0,[sp,#0xc]
        0x0001f176:    9909        ..      LDR      r1,[sp,#0x24]
        0x0001f178:    4288        .B      CMP      r0,r1
        0x0001f17a:    d209        ..      BCS      0x1f190 ; prepare_test_pattern + 220
        0x0001f17c:    e7ff        ..      B        0x1f17e ; prepare_test_pattern + 202
        0x0001f17e:    9a03        ..      LDR      r2,[sp,#0xc]
        0x0001f180:    1c50        P.      ADDS     r0,r2,#1
        0x0001f182:    9907        ..      LDR      r1,[sp,#0x1c]
        0x0001f184:    5488        .T      STRB     r0,[r1,r2]
        0x0001f186:    e7ff        ..      B        0x1f188 ; prepare_test_pattern + 212
        0x0001f188:    9803        ..      LDR      r0,[sp,#0xc]
        0x0001f18a:    3001        .0      ADDS     r0,#1
        0x0001f18c:    9003        ..      STR      r0,[sp,#0xc]
        0x0001f18e:    e7f1        ..      B        0x1f174 ; prepare_test_pattern + 192
        0x0001f190:    e024        $.      B        0x1f1dc ; prepare_test_pattern + 296
        0x0001f192:    2000        .       MOVS     r0,#0
        0x0001f194:    9002        ..      STR      r0,[sp,#8]
        0x0001f196:    e7ff        ..      B        0x1f198 ; prepare_test_pattern + 228
        0x0001f198:    9802        ..      LDR      r0,[sp,#8]
        0x0001f19a:    9909        ..      LDR      r1,[sp,#0x24]
        0x0001f19c:    4288        .B      CMP      r0,r1
        0x0001f19e:    d20a        ..      BCS      0x1f1b6 ; prepare_test_pattern + 258
        0x0001f1a0:    e7ff        ..      B        0x1f1a2 ; prepare_test_pattern + 238
        0x0001f1a2:    9a02        ..      LDR      r2,[sp,#8]
        0x0001f1a4:    f1c200ff    ....    RSB      r0,r2,#0xff
        0x0001f1a8:    9907        ..      LDR      r1,[sp,#0x1c]
        0x0001f1aa:    5488        .T      STRB     r0,[r1,r2]
        0x0001f1ac:    e7ff        ..      B        0x1f1ae ; prepare_test_pattern + 250
        0x0001f1ae:    9802        ..      LDR      r0,[sp,#8]
        0x0001f1b0:    3001        .0      ADDS     r0,#1
        0x0001f1b2:    9002        ..      STR      r0,[sp,#8]
        0x0001f1b4:    e7f0        ..      B        0x1f198 ; prepare_test_pattern + 228
        0x0001f1b6:    e011        ..      B        0x1f1dc ; prepare_test_pattern + 296
        0x0001f1b8:    2000        .       MOVS     r0,#0
        0x0001f1ba:    9001        ..      STR      r0,[sp,#4]
        0x0001f1bc:    e7ff        ..      B        0x1f1be ; prepare_test_pattern + 266
        0x0001f1be:    9801        ..      LDR      r0,[sp,#4]
        0x0001f1c0:    9909        ..      LDR      r1,[sp,#0x24]
        0x0001f1c2:    4288        .B      CMP      r0,r1
        0x0001f1c4:    d209        ..      BCS      0x1f1da ; prepare_test_pattern + 294
        0x0001f1c6:    e7ff        ..      B        0x1f1c8 ; prepare_test_pattern + 276
        0x0001f1c8:    9a01        ..      LDR      r2,[sp,#4]
        0x0001f1ca:    1c50        P.      ADDS     r0,r2,#1
        0x0001f1cc:    9907        ..      LDR      r1,[sp,#0x1c]
        0x0001f1ce:    5488        .T      STRB     r0,[r1,r2]
        0x0001f1d0:    e7ff        ..      B        0x1f1d2 ; prepare_test_pattern + 286
        0x0001f1d2:    9801        ..      LDR      r0,[sp,#4]
        0x0001f1d4:    3001        .0      ADDS     r0,#1
        0x0001f1d6:    9001        ..      STR      r0,[sp,#4]
        0x0001f1d8:    e7f1        ..      B        0x1f1be ; prepare_test_pattern + 266
        0x0001f1da:    e7ff        ..      B        0x1f1dc ; prepare_test_pattern + 296
        0x0001f1dc:    2000        .       MOVS     r0,#0
        0x0001f1de:    900c        ..      STR      r0,[sp,#0x30]
        0x0001f1e0:    e7ff        ..      B        0x1f1e2 ; prepare_test_pattern + 302
        0x0001f1e2:    980c        ..      LDR      r0,[sp,#0x30]
        0x0001f1e4:    b00d        ..      ADD      sp,sp,#0x34
        0x0001f1e6:    4770        pG      BX       lr
    psram_check_by_xip
        0x0001f1e8:    b580        ..      PUSH     {r7,lr}
        0x0001f1ea:    f5ad7d0e    ...}    SUB      sp,sp,#0x238
        0x0001f1ee:    908c        ..      STR      r0,[sp,#0x230]
        0x0001f1f0:    918b        ..      STR      r1,[sp,#0x22c]
        0x0001f1f2:    928a        ..      STR      r2,[sp,#0x228]
        0x0001f1f4:    988b        ..      LDR      r0,[sp,#0x22c]
        0x0001f1f6:    9089        ..      STR      r0,[sp,#0x224]
        0x0001f1f8:    2000        .       MOVS     r0,#0
        0x0001f1fa:    9088        ..      STR      r0,[sp,#0x220]
        0x0001f1fc:    9087        ..      STR      r0,[sp,#0x21c]
        0x0001f1fe:    f88d021b    ....    STRB     r0,[sp,#0x21b]
        0x0001f202:    e7ff        ..      B        0x1f204 ; psram_check_by_xip + 28
        0x0001f204:    9889        ..      LDR      r0,[sp,#0x224]
        0x0001f206:    2800        .(      CMP      r0,#0
        0x0001f208:    d063        c.      BEQ      0x1f2d2 ; psram_check_by_xip + 234
        0x0001f20a:    e7ff        ..      B        0x1f20c ; psram_check_by_xip + 36
        0x0001f20c:    9889        ..      LDR      r0,[sp,#0x224]
        0x0001f20e:    f5b07f80    ....    CMP      r0,#0x100
        0x0001f212:    d908        ..      BLS      0x1f226 ; psram_check_by_xip + 62
        0x0001f214:    e7ff        ..      B        0x1f216 ; psram_check_by_xip + 46
        0x0001f216:    f44f7080    O..p    MOV      r0,#0x100
        0x0001f21a:    9088        ..      STR      r0,[sp,#0x220]
        0x0001f21c:    9889        ..      LDR      r0,[sp,#0x224]
        0x0001f21e:    f5a07080    ...p    SUB      r0,r0,#0x100
        0x0001f222:    9089        ..      STR      r0,[sp,#0x224]
        0x0001f224:    e004        ..      B        0x1f230 ; psram_check_by_xip + 72
        0x0001f226:    9889        ..      LDR      r0,[sp,#0x224]
        0x0001f228:    9088        ..      STR      r0,[sp,#0x220]
        0x0001f22a:    2000        .       MOVS     r0,#0
        0x0001f22c:    9089        ..      STR      r0,[sp,#0x224]
        0x0001f22e:    e7ff        ..      B        0x1f230 ; psram_check_by_xip + 72
        0x0001f230:    f89d021b    ....    LDRB     r0,[sp,#0x21b]
        0x0001f234:    f64c41cd    L..A    MOV      r1,#0xcccd
        0x0001f238:    f6cc41cc    ...A    MOVT     r1,#0xcccc
        0x0001f23c:    fba01201    ....    UMULL    r1,r2,r0,r1
        0x0001f240:    f00201fc    ....    AND      r1,r2,#0xfc
        0x0001f244:    eb010192    ....    ADD      r1,r1,r2,LSR #2
        0x0001f248:    1a40        @.      SUBS     r0,r0,r1
        0x0001f24a:    9a88        ..      LDR      r2,[sp,#0x220]
        0x0001f24c:    a945        E.      ADD      r1,sp,#0x114
        0x0001f24e:    9101        ..      STR      r1,[sp,#4]
        0x0001f250:    f7ffff30    ..0.    BL       prepare_test_pattern ; 0x1f0b4
        0x0001f254:    f89d021b    ....    LDRB     r0,[sp,#0x21b]
        0x0001f258:    3001        .0      ADDS     r0,#1
        0x0001f25a:    f88d021b    ....    STRB     r0,[sp,#0x21b]
        0x0001f25e:    2001        .       MOVS     r0,#1
        0x0001f260:    9002        ..      STR      r0,[sp,#8]
        0x0001f262:    2100        .!      MOVS     r1,#0
        0x0001f264:    9103        ..      STR      r1,[sp,#0xc]
        0x0001f266:    f7faffa7    ....    BL       am_hal_daxi_control ; 0x1a1b8
        0x0001f26a:    9901        ..      LDR      r1,[sp,#4]
        0x0001f26c:    988a        ..      LDR      r0,[sp,#0x228]
        0x0001f26e:    9a87        ..      LDR      r2,[sp,#0x21c]
        0x0001f270:    4410        .D      ADD      r0,r0,r2
        0x0001f272:    9004        ..      STR      r0,[sp,#0x10]
        0x0001f274:    9804        ..      LDR      r0,[sp,#0x10]
        0x0001f276:    9a88        ..      LDR      r2,[sp,#0x220]
        0x0001f278:    f7f9f866    ..f.    BL       __aeabi_memcpy ; 0x18348
        0x0001f27c:    9903        ..      LDR      r1,[sp,#0xc]
        0x0001f27e:    9802        ..      LDR      r0,[sp,#8]
        0x0001f280:    f7faff9a    ....    BL       am_hal_daxi_control ; 0x1a1b8
        0x0001f284:    988a        ..      LDR      r0,[sp,#0x228]
        0x0001f286:    9987        ..      LDR      r1,[sp,#0x21c]
        0x0001f288:    4408        .D      ADD      r0,r0,r1
        0x0001f28a:    9004        ..      STR      r0,[sp,#0x10]
        0x0001f28c:    9904        ..      LDR      r1,[sp,#0x10]
        0x0001f28e:    9a88        ..      LDR      r2,[sp,#0x220]
        0x0001f290:    a805        ..      ADD      r0,sp,#0x14
        0x0001f292:    f7f9f859    ..Y.    BL       __aeabi_memcpy ; 0x18348
        0x0001f296:    9803        ..      LDR      r0,[sp,#0xc]
        0x0001f298:    9085        ..      STR      r0,[sp,#0x214]
        0x0001f29a:    e7ff        ..      B        0x1f29c ; psram_check_by_xip + 180
        0x0001f29c:    9885        ..      LDR      r0,[sp,#0x214]
        0x0001f29e:    9988        ..      LDR      r1,[sp,#0x220]
        0x0001f2a0:    4288        .B      CMP      r0,r1
        0x0001f2a2:    d211        ..      BCS      0x1f2c8 ; psram_check_by_xip + 224
        0x0001f2a4:    e7ff        ..      B        0x1f2a6 ; psram_check_by_xip + 190
        0x0001f2a6:    9a85        ..      LDR      r2,[sp,#0x214]
        0x0001f2a8:    a805        ..      ADD      r0,sp,#0x14
        0x0001f2aa:    5c80        .\      LDRB     r0,[r0,r2]
        0x0001f2ac:    a945        E.      ADD      r1,sp,#0x114
        0x0001f2ae:    5c89        .\      LDRB     r1,[r1,r2]
        0x0001f2b0:    4288        .B      CMP      r0,r1
        0x0001f2b2:    d004        ..      BEQ      0x1f2be ; psram_check_by_xip + 214
        0x0001f2b4:    e7ff        ..      B        0x1f2b6 ; psram_check_by_xip + 206
        0x0001f2b6:    2001        .       MOVS     r0,#1
        0x0001f2b8:    f88d0237    ..7.    STRB     r0,[sp,#0x237]
        0x0001f2bc:    e00d        ..      B        0x1f2da ; psram_check_by_xip + 242
        0x0001f2be:    e7ff        ..      B        0x1f2c0 ; psram_check_by_xip + 216
        0x0001f2c0:    9885        ..      LDR      r0,[sp,#0x214]
        0x0001f2c2:    3001        .0      ADDS     r0,#1
        0x0001f2c4:    9085        ..      STR      r0,[sp,#0x214]
        0x0001f2c6:    e7e9        ..      B        0x1f29c ; psram_check_by_xip + 180
        0x0001f2c8:    9988        ..      LDR      r1,[sp,#0x220]
        0x0001f2ca:    9887        ..      LDR      r0,[sp,#0x21c]
        0x0001f2cc:    4408        .D      ADD      r0,r0,r1
        0x0001f2ce:    9087        ..      STR      r0,[sp,#0x21c]
        0x0001f2d0:    e798        ..      B        0x1f204 ; psram_check_by_xip + 28
        0x0001f2d2:    2000        .       MOVS     r0,#0
        0x0001f2d4:    f88d0237    ..7.    STRB     r0,[sp,#0x237]
        0x0001f2d8:    e7ff        ..      B        0x1f2da ; psram_check_by_xip + 242
        0x0001f2da:    f89d0237    ..7.    LDRB     r0,[sp,#0x237]
        0x0001f2de:    f50d7d0e    ...}    ADD      sp,sp,#0x238
        0x0001f2e2:    bd80        ..      POP      {r7,pc}
    psram_nonblocking_transfer
        0x0001f2e4:    b580        ..      PUSH     {r7,lr}
        0x0001f2e6:    b096        ..      SUB      sp,sp,#0x58
        0x0001f2e8:    f8ddc074    ..t.    LDR      r12,[sp,#0x74]
        0x0001f2ec:    f8ddc070    ..p.    LDR      r12,[sp,#0x70]
        0x0001f2f0:    f8ddc06c    ..l.    LDR      r12,[sp,#0x6c]
        0x0001f2f4:    f8ddc068    ..h.    LDR      r12,[sp,#0x68]
        0x0001f2f8:    f8ddc064    ..d.    LDR      r12,[sp,#0x64]
        0x0001f2fc:    f8ddc060    ..`.    LDR      r12,[sp,#0x60]
        0x0001f300:    9015        ..      STR      r0,[sp,#0x54]
        0x0001f302:    f88d1053    ..S.    STRB     r1,[sp,#0x53]
        0x0001f306:    f88d2052    ..R     STRB     r2,[sp,#0x52]
        0x0001f30a:    9313        ..      STR      r3,[sp,#0x4c]
        0x0001f30c:    2000        .       MOVS     r0,#0
        0x0001f30e:    9012        ..      STR      r0,[sp,#0x48]
        0x0001f310:    2101        .!      MOVS     r1,#1
        0x0001f312:    f88d1030    ..0.    STRB     r1,[sp,#0x30]
        0x0001f316:    f89d1052    ..R.    LDRB     r1,[sp,#0x52]
        0x0001f31a:    f0010101    ....    AND      r1,r1,#1
        0x0001f31e:    f88d1031    ..1.    STRB     r1,[sp,#0x31]
        0x0001f322:    991a        ..      LDR      r1,[sp,#0x68]
        0x0001f324:    9110        ..      STR      r1,[sp,#0x40]
        0x0001f326:    9011        ..      STR      r0,[sp,#0x44]
        0x0001f328:    e7ff        ..      B        0x1f32a ; psram_nonblocking_transfer + 70
        0x0001f32a:    9819        ..      LDR      r0,[sp,#0x64]
        0x0001f32c:    2800        .(      CMP      r0,#0
        0x0001f32e:    f0008093    ....    BEQ.W    0x1f458 ; psram_nonblocking_transfer + 372
        0x0001f332:    e7ff        ..      B        0x1f334 ; psram_nonblocking_transfer + 80
        0x0001f334:    f89d0060    ..`.    LDRB     r0,[sp,#0x60]
        0x0001f338:    0780        ..      LSLS     r0,r0,#30
        0x0001f33a:    b180        ..      CBZ      r0,0x1f35e ; psram_nonblocking_transfer + 122
        0x0001f33c:    e7ff        ..      B        0x1f33e ; psram_nonblocking_transfer + 90
        0x0001f33e:    9818        ..      LDR      r0,[sp,#0x60]
        0x0001f340:    f36f209f    o..     BFC      r0,#10,#22
        0x0001f344:    f5c06080    ...`    RSB      r0,r0,#0x400
        0x0001f348:    9919        ..      LDR      r1,[sp,#0x64]
        0x0001f34a:    4288        .B      CMP      r0,r1
        0x0001f34c:    d207        ..      BCS      0x1f35e ; psram_nonblocking_transfer + 122
        0x0001f34e:    e7ff        ..      B        0x1f350 ; psram_nonblocking_transfer + 108
        0x0001f350:    9818        ..      LDR      r0,[sp,#0x60]
        0x0001f352:    f0000003    ....    AND      r0,r0,#3
        0x0001f356:    f1c00004    ....    RSB      r0,r0,#4
        0x0001f35a:    900b        ..      STR      r0,[sp,#0x2c]
        0x0001f35c:    e002        ..      B        0x1f364 ; psram_nonblocking_transfer + 128
        0x0001f35e:    9819        ..      LDR      r0,[sp,#0x64]
        0x0001f360:    900b        ..      STR      r0,[sp,#0x2c]
        0x0001f362:    e7ff        ..      B        0x1f364 ; psram_nonblocking_transfer + 128
        0x0001f364:    980b        ..      LDR      r0,[sp,#0x2c]
        0x0001f366:    9919        ..      LDR      r1,[sp,#0x64]
        0x0001f368:    1a40        @.      SUBS     r0,r0,r1
        0x0001f36a:    fab0f080    ....    CLZ      r0,r0
        0x0001f36e:    0940        @.      LSRS     r0,r0,#5
        0x0001f370:    f88d002b    ..+.    STRB     r0,[sp,#0x2b]
        0x0001f374:    980b        ..      LDR      r0,[sp,#0x2c]
        0x0001f376:    900d        ..      STR      r0,[sp,#0x34]
        0x0001f378:    9818        ..      LDR      r0,[sp,#0x60]
        0x0001f37a:    900e        ..      STR      r0,[sp,#0x38]
        0x0001f37c:    9813        ..      LDR      r0,[sp,#0x4c]
        0x0001f37e:    900f        ..      STR      r0,[sp,#0x3c]
        0x0001f380:    f89d002b    ..+.    LDRB     r0,[sp,#0x2b]
        0x0001f384:    07c0        ..      LSLS     r0,r0,#31
        0x0001f386:    b118        ..      CBZ      r0,0x1f390 ; psram_nonblocking_transfer + 172
        0x0001f388:    e7ff        ..      B        0x1f38a ; psram_nonblocking_transfer + 166
        0x0001f38a:    981b        ..      LDR      r0,[sp,#0x6c]
        0x0001f38c:    9011        ..      STR      r0,[sp,#0x44]
        0x0001f38e:    e7ff        ..      B        0x1f390 ; psram_nonblocking_transfer + 172
        0x0001f390:    f89d0053    ..S.    LDRB     r0,[sp,#0x53]
        0x0001f394:    07c0        ..      LSLS     r0,r0,#31
        0x0001f396:    b330        0.      CBZ      r0,0x1f3e6 ; psram_nonblocking_transfer + 258
        0x0001f398:    e7ff        ..      B        0x1f39a ; psram_nonblocking_transfer + 182
        0x0001f39a:    9815        ..      LDR      r0,[sp,#0x54]
        0x0001f39c:    6840        @h      LDR      r0,[r0,#4]
        0x0001f39e:    9009        ..      STR      r0,[sp,#0x24]
        0x0001f3a0:    f89d002b    ..+.    LDRB     r0,[sp,#0x2b]
        0x0001f3a4:    07c0        ..      LSLS     r0,r0,#31
        0x0001f3a6:    b118        ..      CBZ      r0,0x1f3b0 ; psram_nonblocking_transfer + 204
        0x0001f3a8:    e7ff        ..      B        0x1f3aa ; psram_nonblocking_transfer + 198
        0x0001f3aa:    981c        ..      LDR      r0,[sp,#0x70]
        0x0001f3ac:    9008        ..      STR      r0,[sp,#0x20]
        0x0001f3ae:    e002        ..      B        0x1f3b6 ; psram_nonblocking_transfer + 210
        0x0001f3b0:    2000        .       MOVS     r0,#0
        0x0001f3b2:    9008        ..      STR      r0,[sp,#0x20]
        0x0001f3b4:    e7ff        ..      B        0x1f3b6 ; psram_nonblocking_transfer + 210
        0x0001f3b6:    9808        ..      LDR      r0,[sp,#0x20]
        0x0001f3b8:    9007        ..      STR      r0,[sp,#0x1c]
        0x0001f3ba:    f89d002b    ..+.    LDRB     r0,[sp,#0x2b]
        0x0001f3be:    07c0        ..      LSLS     r0,r0,#31
        0x0001f3c0:    b118        ..      CBZ      r0,0x1f3ca ; psram_nonblocking_transfer + 230
        0x0001f3c2:    e7ff        ..      B        0x1f3c4 ; psram_nonblocking_transfer + 224
        0x0001f3c4:    981d        ..      LDR      r0,[sp,#0x74]
        0x0001f3c6:    9006        ..      STR      r0,[sp,#0x18]
        0x0001f3c8:    e002        ..      B        0x1f3d0 ; psram_nonblocking_transfer + 236
        0x0001f3ca:    2000        .       MOVS     r0,#0
        0x0001f3cc:    9006        ..      STR      r0,[sp,#0x18]
        0x0001f3ce:    e7ff        ..      B        0x1f3d0 ; psram_nonblocking_transfer + 236
        0x0001f3d0:    9b07        ..      LDR      r3,[sp,#0x1c]
        0x0001f3d2:    9809        ..      LDR      r0,[sp,#0x24]
        0x0001f3d4:    9906        ..      LDR      r1,[sp,#0x18]
        0x0001f3d6:    466a        jF      MOV      r2,sp
        0x0001f3d8:    6011        .`      STR      r1,[r2,#0]
        0x0001f3da:    a90c        ..      ADD      r1,sp,#0x30
        0x0001f3dc:    2201        ."      MOVS     r2,#1
        0x0001f3de:    f7fcfbfb    ....    BL       am_hal_mspi_highprio_transfer ; 0x1bbd8
        0x0001f3e2:    9012        ..      STR      r0,[sp,#0x48]
        0x0001f3e4:    e025        %.      B        0x1f432 ; psram_nonblocking_transfer + 334
        0x0001f3e6:    9815        ..      LDR      r0,[sp,#0x54]
        0x0001f3e8:    6840        @h      LDR      r0,[r0,#4]
        0x0001f3ea:    9005        ..      STR      r0,[sp,#0x14]
        0x0001f3ec:    f89d002b    ..+.    LDRB     r0,[sp,#0x2b]
        0x0001f3f0:    07c0        ..      LSLS     r0,r0,#31
        0x0001f3f2:    b118        ..      CBZ      r0,0x1f3fc ; psram_nonblocking_transfer + 280
        0x0001f3f4:    e7ff        ..      B        0x1f3f6 ; psram_nonblocking_transfer + 274
        0x0001f3f6:    981c        ..      LDR      r0,[sp,#0x70]
        0x0001f3f8:    9004        ..      STR      r0,[sp,#0x10]
        0x0001f3fa:    e002        ..      B        0x1f402 ; psram_nonblocking_transfer + 286
        0x0001f3fc:    2000        .       MOVS     r0,#0
        0x0001f3fe:    9004        ..      STR      r0,[sp,#0x10]
        0x0001f400:    e7ff        ..      B        0x1f402 ; psram_nonblocking_transfer + 286
        0x0001f402:    9804        ..      LDR      r0,[sp,#0x10]
        0x0001f404:    9003        ..      STR      r0,[sp,#0xc]
        0x0001f406:    f89d002b    ..+.    LDRB     r0,[sp,#0x2b]
        0x0001f40a:    07c0        ..      LSLS     r0,r0,#31
        0x0001f40c:    b118        ..      CBZ      r0,0x1f416 ; psram_nonblocking_transfer + 306
        0x0001f40e:    e7ff        ..      B        0x1f410 ; psram_nonblocking_transfer + 300
        0x0001f410:    981d        ..      LDR      r0,[sp,#0x74]
        0x0001f412:    9002        ..      STR      r0,[sp,#8]
        0x0001f414:    e002        ..      B        0x1f41c ; psram_nonblocking_transfer + 312
        0x0001f416:    2000        .       MOVS     r0,#0
        0x0001f418:    9002        ..      STR      r0,[sp,#8]
        0x0001f41a:    e7ff        ..      B        0x1f41c ; psram_nonblocking_transfer + 312
        0x0001f41c:    9b03        ..      LDR      r3,[sp,#0xc]
        0x0001f41e:    9805        ..      LDR      r0,[sp,#0x14]
        0x0001f420:    9902        ..      LDR      r1,[sp,#8]
        0x0001f422:    466a        jF      MOV      r2,sp
        0x0001f424:    6011        .`      STR      r1,[r2,#0]
        0x0001f426:    a90c        ..      ADD      r1,sp,#0x30
        0x0001f428:    2201        ."      MOVS     r2,#1
        0x0001f42a:    f7fcfe15    ....    BL       am_hal_mspi_nonblocking_transfer ; 0x1c058
        0x0001f42e:    9012        ..      STR      r0,[sp,#0x48]
        0x0001f430:    e7ff        ..      B        0x1f432 ; psram_nonblocking_transfer + 334
        0x0001f432:    9812        ..      LDR      r0,[sp,#0x48]
        0x0001f434:    b108        ..      CBZ      r0,0x1f43a ; psram_nonblocking_transfer + 342
        0x0001f436:    e7ff        ..      B        0x1f438 ; psram_nonblocking_transfer + 340
        0x0001f438:    e00e        ..      B        0x1f458 ; psram_nonblocking_transfer + 372
        0x0001f43a:    990b        ..      LDR      r1,[sp,#0x2c]
        0x0001f43c:    9818        ..      LDR      r0,[sp,#0x60]
        0x0001f43e:    4408        .D      ADD      r0,r0,r1
        0x0001f440:    9018        ..      STR      r0,[sp,#0x60]
        0x0001f442:    990b        ..      LDR      r1,[sp,#0x2c]
        0x0001f444:    9819        ..      LDR      r0,[sp,#0x64]
        0x0001f446:    1a40        @.      SUBS     r0,r0,r1
        0x0001f448:    9019        ..      STR      r0,[sp,#0x64]
        0x0001f44a:    990b        ..      LDR      r1,[sp,#0x2c]
        0x0001f44c:    9813        ..      LDR      r0,[sp,#0x4c]
        0x0001f44e:    4408        .D      ADD      r0,r0,r1
        0x0001f450:    9013        ..      STR      r0,[sp,#0x4c]
        0x0001f452:    2000        .       MOVS     r0,#0
        0x0001f454:    9010        ..      STR      r0,[sp,#0x40]
        0x0001f456:    e768        h.      B        0x1f32a ; psram_nonblocking_transfer + 70
        0x0001f458:    9812        ..      LDR      r0,[sp,#0x48]
        0x0001f45a:    b016        ..      ADD      sp,sp,#0x58
        0x0001f45c:    bd80        ..      POP      {r7,pc}
        0x0001f45e:    0000        ..      MOVS     r0,r0
    run_new_image
        0x0001f460:    f64e5308    N..S    MOV      r3,#0xed08
        0x0001f464:    f2ce0300    ....    MOVT     r3,#0xe000
        0x0001f468:    6018        .`      STR      r0,[r3,#0]
        0x0001f46a:    6803        .h      LDR      r3,[r0,#0]
        0x0001f46c:    6842        Bh      LDR      r2,[r0,#4]
        0x0001f46e:    469d        .F      MOV      sp,r3
        0x0001f470:    4710        .G      BX       r2
        0x0001f472:    0000        ..      MOVS     r0,r0
    sched_hiprio
        0x0001f474:    b5f0        ..      PUSH     {r4-r7,lr}
        0x0001f476:    b083        ..      SUB      sp,sp,#0xc
        0x0001f478:    460d        .F      MOV      r5,r1
        0x0001f47a:    4604        .F      MOV      r4,r0
        0x0001f47c:    f7fbf908    ....    BL       am_hal_interrupt_master_disable ; 0x1a690
        0x0001f480:    9002        ..      STR      r0,[sp,#8]
        0x0001f482:    f8d46840    ..@h    LDR      r6,[r4,#0x840]
        0x0001f486:    1970        p.      ADDS     r0,r6,r5
        0x0001f488:    f8c40840    ..@.    STR      r0,[r4,#0x840]
        0x0001f48c:    9802        ..      LDR      r0,[sp,#8]
        0x0001f48e:    f7fbf907    ....    BL       am_hal_interrupt_master_set ; 0x1a6a0
        0x0001f492:    b11e        ..      CBZ      r6,0x1f49c ; sched_hiprio + 40
        0x0001f494:    2000        .       MOVS     r0,#0
        0x0001f496:    b003        ..      ADD      sp,sp,#0xc
        0x0001f498:    bdf0        ..      POP      {r4-r7,pc}
        0x0001f49a:    bf00        ..      NOP      
        0x0001f49c:    6860        `h      LDR      r0,[r4,#4]
        0x0001f49e:    2500        .%      MOVS     r5,#0
        0x0001f4a0:    f2c40506    ....    MOVT     r5,#0x4006
        0x0001f4a4:    eb053000    ...0    ADD      r0,r5,r0,LSL #12
        0x0001f4a8:    f44f0100    O...    MOV      r1,#0x800000
        0x0001f4ac:    f8c012b4    ....    STR      r1,[r0,#0x2b4]
        0x0001f4b0:    6860        `h      LDR      r0,[r4,#4]
        0x0001f4b2:    eb053000    ...0    ADD      r0,r5,r0,LSL #12
        0x0001f4b6:    f8d012a0    ....    LDR      r1,[r0,#0x2a0]
        0x0001f4ba:    07c9        ..      LSLS     r1,r1,#31
        0x0001f4bc:    d019        ..      BEQ      0x1f4f2 ; sched_hiprio + 126
        0x0001f4be:    f647165f    G._.    MOV      r6,#0x795f
        0x0001f4c2:    f6cf76fe    ...v    MOVT     r6,#0xfffe
        0x0001f4c6:    bf00        ..      NOP      
        0x0001f4c8:    f8d012ac    ....    LDR      r1,[r0,#0x2ac]
        0x0001f4cc:    0709        ..      LSLS     r1,r1,#28
        0x0001f4ce:    bf44        D.      ITT      MI
        0x0001f4d0:    f8d012b8    ....    LDRMI    r1,[r0,#0x2b8]
        0x0001f4d4:    ea5f6101    _..a    LSLSMI   r1,r1,#24
        0x0001f4d8:    d40b        ..      BMI      0x1f4f2 ; sched_hiprio + 126
        0x0001f4da:    3601        .6      ADDS     r6,#1
        0x0001f4dc:    d250        P.      BCS      0x1f580 ; sched_hiprio + 268
        0x0001f4de:    2001        .       MOVS     r0,#1
        0x0001f4e0:    f7faff68    ..h.    BL       am_hal_delay_us ; 0x1a3b4
        0x0001f4e4:    6860        `h      LDR      r0,[r4,#4]
        0x0001f4e6:    eb053000    ...0    ADD      r0,r5,r0,LSL #12
        0x0001f4ea:    f8d012a0    ....    LDR      r1,[r0,#0x2a0]
        0x0001f4ee:    07c9        ..      LSLS     r1,r1,#31
        0x0001f4f0:    d1ea        ..      BNE      0x1f4c8 ; sched_hiprio + 84
        0x0001f4f2:    f5007182    ...q    ADD      r1,r0,#0x104
        0x0001f4f6:    f24860a0    H..`    MOV      r0,#0x86a0
        0x0001f4fa:    2701        .'      MOVS     r7,#1
        0x0001f4fc:    f2c00001    ....    MOVT     r0,#1
        0x0001f500:    2201        ."      MOVS     r2,#1
        0x0001f502:    2300        .#      MOVS     r3,#0
        0x0001f504:    9700        ..      STR      r7,[sp,#0]
        0x0001f506:    2600        .&      MOVS     r6,#0
        0x0001f508:    f7faff9c    ....    BL       am_hal_delay_us_status_check ; 0x1a444
        0x0001f50c:    b110        ..      CBZ      r0,0x1f514 ; sched_hiprio + 160
        0x0001f50e:    b003        ..      ADD      sp,sp,#0xc
        0x0001f510:    bdf0        ..      POP      {r4-r7,pc}
        0x0001f512:    bf00        ..      NOP      
        0x0001f514:    6860        `h      LDR      r0,[r4,#4]
        0x0001f516:    2140        @!      MOVS     r1,#0x40
        0x0001f518:    eb053000    ...0    ADD      r0,r5,r0,LSL #12
        0x0001f51c:    6266        fb      STR      r6,[r4,#0x24]
        0x0001f51e:    f8c01208    ....    STR      r1,[r0,#0x208]
        0x0001f522:    6860        `h      LDR      r0,[r4,#4]
        0x0001f524:    eb053000    ...0    ADD      r0,r5,r0,LSL #12
        0x0001f528:    f8d01200    ....    LDR      r1,[r0,#0x200]
        0x0001f52c:    f0410140    A.@.    ORR      r1,r1,#0x40
        0x0001f530:    f8c01200    ....    STR      r1,[r0,#0x200]
        0x0001f534:    f884783c    ..<x    STRB     r7,[r4,#0x83c]
        0x0001f538:    f8d40850    ..P.    LDR      r0,[r4,#0x850]
        0x0001f53c:    f8d41848    ..H.    LDR      r1,[r4,#0x848]
        0x0001f540:    3001        .0      ADDS     r0,#1
        0x0001f542:    fbb0f2f1    ....    UDIV     r2,r0,r1
        0x0001f546:    6863        ch      LDR      r3,[r4,#4]
        0x0001f548:    fb020011    ....    MLS      r0,r2,r1,r0
        0x0001f54c:    f8d41854    ..T.    LDR      r1,[r4,#0x854]
        0x0001f550:    eb053203    ...2    ADD      r2,r5,r3,LSL #12
        0x0001f554:    eb000040    ..@.    ADD      r0,r0,r0,LSL #1
        0x0001f558:    f8c26100    ...a    STR      r6,[r2,#0x100]
        0x0001f55c:    f8513030    Q.00    LDR      r3,[r1,r0,LSL #3]
        0x0001f560:    eb0100c0    ....    ADD      r0,r1,r0,LSL #3
        0x0001f564:    f8c23108    ...1    STR      r3,[r2,#0x108]
        0x0001f568:    6841        Ah      LDR      r1,[r0,#4]
        0x0001f56a:    f8c2110c    ....    STR      r1,[r2,#0x10c]
        0x0001f56e:    6881        .h      LDR      r1,[r0,#8]
        0x0001f570:    f8c21110    ....    STR      r1,[r2,#0x110]
        0x0001f574:    68c0        .h      LDR      r0,[r0,#0xc]
        0x0001f576:    f8c20100    ....    STR      r0,[r2,#0x100]
        0x0001f57a:    2000        .       MOVS     r0,#0
        0x0001f57c:    b003        ..      ADD      sp,sp,#0xc
        0x0001f57e:    bdf0        ..      POP      {r4-r7,pc}
        0x0001f580:    2004        .       MOVS     r0,#4
        0x0001f582:    b003        ..      ADD      sp,sp,#0xc
        0x0001f584:    bdf0        ..      POP      {r4-r7,pc}
        0x0001f586:    0000        ..      MOVS     r0,r0
    simple_strlen
        0x0001f588:    b083        ..      SUB      sp,sp,#0xc
        0x0001f58a:    9001        ..      STR      r0,[sp,#4]
        0x0001f58c:    2000        .       MOVS     r0,#0
        0x0001f58e:    9000        ..      STR      r0,[sp,#0]
        0x0001f590:    9801        ..      LDR      r0,[sp,#4]
        0x0001f592:    b918        ..      CBNZ     r0,0x1f59c ; simple_strlen + 20
        0x0001f594:    e7ff        ..      B        0x1f596 ; simple_strlen + 14
        0x0001f596:    9800        ..      LDR      r0,[sp,#0]
        0x0001f598:    9002        ..      STR      r0,[sp,#8]
        0x0001f59a:    e00d        ..      B        0x1f5b8 ; simple_strlen + 48
        0x0001f59c:    e7ff        ..      B        0x1f59e ; simple_strlen + 22
        0x0001f59e:    9801        ..      LDR      r0,[sp,#4]
        0x0001f5a0:    1c41        A.      ADDS     r1,r0,#1
        0x0001f5a2:    9101        ..      STR      r1,[sp,#4]
        0x0001f5a4:    7800        .x      LDRB     r0,[r0,#0]
        0x0001f5a6:    b120         .      CBZ      r0,0x1f5b2 ; simple_strlen + 42
        0x0001f5a8:    e7ff        ..      B        0x1f5aa ; simple_strlen + 34
        0x0001f5aa:    9800        ..      LDR      r0,[sp,#0]
        0x0001f5ac:    3001        .0      ADDS     r0,#1
        0x0001f5ae:    9000        ..      STR      r0,[sp,#0]
        0x0001f5b0:    e7f5        ..      B        0x1f59e ; simple_strlen + 22
        0x0001f5b2:    9800        ..      LDR      r0,[sp,#0]
        0x0001f5b4:    9002        ..      STR      r0,[sp,#8]
        0x0001f5b6:    e7ff        ..      B        0x1f5b8 ; simple_strlen + 48
        0x0001f5b8:    9802        ..      LDR      r0,[sp,#8]
        0x0001f5ba:    b003        ..      ADD      sp,sp,#0xc
        0x0001f5bc:    4770        pG      BX       lr
        0x0001f5be:    0000        ..      MOVS     r0,r0
    uint64_to_hexstr
        0x0001f5c0:    b08c        ..      SUB      sp,sp,#0x30
        0x0001f5c2:    910b        ..      STR      r1,[sp,#0x2c]
        0x0001f5c4:    900a        ..      STR      r0,[sp,#0x28]
        0x0001f5c6:    9209        ..      STR      r2,[sp,#0x24]
        0x0001f5c8:    f88d3023    ..#0    STRB     r3,[sp,#0x23]
        0x0001f5cc:    2000        .       MOVS     r0,#0
        0x0001f5ce:    9006        ..      STR      r0,[sp,#0x18]
        0x0001f5d0:    980a        ..      LDR      r0,[sp,#0x28]
        0x0001f5d2:    990b        ..      LDR      r1,[sp,#0x2c]
        0x0001f5d4:    4308        .C      ORRS     r0,r0,r1
        0x0001f5d6:    b940        @.      CBNZ     r0,0x1f5ea ; uint64_to_hexstr + 42
        0x0001f5d8:    e7ff        ..      B        0x1f5da ; uint64_to_hexstr + 26
        0x0001f5da:    9a06        ..      LDR      r2,[sp,#0x18]
        0x0001f5dc:    1c50        P.      ADDS     r0,r2,#1
        0x0001f5de:    9006        ..      STR      r0,[sp,#0x18]
        0x0001f5e0:    f10d0103    ....    ADD      r1,sp,#3
        0x0001f5e4:    2030        0       MOVS     r0,#0x30
        0x0001f5e6:    5488        .T      STRB     r0,[r1,r2]
        0x0001f5e8:    e7ff        ..      B        0x1f5ea ; uint64_to_hexstr + 42
        0x0001f5ea:    e7ff        ..      B        0x1f5ec ; uint64_to_hexstr + 44
        0x0001f5ec:    980a        ..      LDR      r0,[sp,#0x28]
        0x0001f5ee:    990b        ..      LDR      r1,[sp,#0x2c]
        0x0001f5f0:    4308        .C      ORRS     r0,r0,r1
        0x0001f5f2:    b350        P.      CBZ      r0,0x1f64a ; uint64_to_hexstr + 138
        0x0001f5f4:    e7ff        ..      B        0x1f5f6 ; uint64_to_hexstr + 54
        0x0001f5f6:    f89d0028    ..(.    LDRB     r0,[sp,#0x28]
        0x0001f5fa:    f000000f    ....    AND      r0,r0,#0xf
        0x0001f5fe:    f88d0017    ....    STRB     r0,[sp,#0x17]
        0x0001f602:    f89d0017    ....    LDRB     r0,[sp,#0x17]
        0x0001f606:    280a        .(      CMP      r0,#0xa
        0x0001f608:    db0d        ..      BLT      0x1f626 ; uint64_to_hexstr + 102
        0x0001f60a:    e7ff        ..      B        0x1f60c ; uint64_to_hexstr + 76
        0x0001f60c:    f89d0023    ..#.    LDRB     r0,[sp,#0x23]
        0x0001f610:    07c0        ..      LSLS     r0,r0,#31
        0x0001f612:    2107        .!      MOVS     r1,#7
        0x0001f614:    2800        .(      CMP      r0,#0
        0x0001f616:    bf18        ..      IT       NE
        0x0001f618:    2127        '!      MOVNE    r1,#0x27
        0x0001f61a:    f89d0017    ....    LDRB     r0,[sp,#0x17]
        0x0001f61e:    4408        .D      ADD      r0,r0,r1
        0x0001f620:    f88d0017    ....    STRB     r0,[sp,#0x17]
        0x0001f624:    e7ff        ..      B        0x1f626 ; uint64_to_hexstr + 102
        0x0001f626:    f89d0017    ....    LDRB     r0,[sp,#0x17]
        0x0001f62a:    3030        00      ADDS     r0,r0,#0x30
        0x0001f62c:    9a06        ..      LDR      r2,[sp,#0x18]
        0x0001f62e:    1c51        Q.      ADDS     r1,r2,#1
        0x0001f630:    9106        ..      STR      r1,[sp,#0x18]
        0x0001f632:    f10d0103    ....    ADD      r1,sp,#3
        0x0001f636:    5488        .T      STRB     r0,[r1,r2]
        0x0001f638:    980a        ..      LDR      r0,[sp,#0x28]
        0x0001f63a:    990b        ..      LDR      r1,[sp,#0x2c]
        0x0001f63c:    0900        ..      LSRS     r0,r0,#4
        0x0001f63e:    ea407001    @..p    ORR      r0,r0,r1,LSL #28
        0x0001f642:    0909        ..      LSRS     r1,r1,#4
        0x0001f644:    910b        ..      STR      r1,[sp,#0x2c]
        0x0001f646:    900a        ..      STR      r0,[sp,#0x28]
        0x0001f648:    e7d0        ..      B        0x1f5ec ; uint64_to_hexstr + 44
        0x0001f64a:    9806        ..      LDR      r0,[sp,#0x18]
        0x0001f64c:    9007        ..      STR      r0,[sp,#0x1c]
        0x0001f64e:    9809        ..      LDR      r0,[sp,#0x24]
        0x0001f650:    b198        ..      CBZ      r0,0x1f67a ; uint64_to_hexstr + 186
        0x0001f652:    e7ff        ..      B        0x1f654 ; uint64_to_hexstr + 148
        0x0001f654:    e7ff        ..      B        0x1f656 ; uint64_to_hexstr + 150
        0x0001f656:    9806        ..      LDR      r0,[sp,#0x18]
        0x0001f658:    1e41        A.      SUBS     r1,r0,#1
        0x0001f65a:    9106        ..      STR      r1,[sp,#0x18]
        0x0001f65c:    b148        H.      CBZ      r0,0x1f672 ; uint64_to_hexstr + 178
        0x0001f65e:    e7ff        ..      B        0x1f660 ; uint64_to_hexstr + 160
        0x0001f660:    9906        ..      LDR      r1,[sp,#0x18]
        0x0001f662:    f10d0003    ....    ADD      r0,sp,#3
        0x0001f666:    5c40        @\      LDRB     r0,[r0,r1]
        0x0001f668:    9909        ..      LDR      r1,[sp,#0x24]
        0x0001f66a:    1c4a        J.      ADDS     r2,r1,#1
        0x0001f66c:    9209        ..      STR      r2,[sp,#0x24]
        0x0001f66e:    7008        .p      STRB     r0,[r1,#0]
        0x0001f670:    e7f1        ..      B        0x1f656 ; uint64_to_hexstr + 150
        0x0001f672:    9909        ..      LDR      r1,[sp,#0x24]
        0x0001f674:    2000        .       MOVS     r0,#0
        0x0001f676:    7008        .p      STRB     r0,[r1,#0]
        0x0001f678:    e7ff        ..      B        0x1f67a ; uint64_to_hexstr + 186
        0x0001f67a:    9807        ..      LDR      r0,[sp,#0x1c]
        0x0001f67c:    b00c        ..      ADD      sp,sp,#0x30
        0x0001f67e:    4770        pG      BX       lr
    uint64_to_str
        0x0001f680:    b580        ..      PUSH     {r7,lr}
        0x0001f682:    b090        ..      SUB      sp,sp,#0x40
        0x0001f684:    910f        ..      STR      r1,[sp,#0x3c]
        0x0001f686:    900e        ..      STR      r0,[sp,#0x38]
        0x0001f688:    920d        ..      STR      r2,[sp,#0x34]
        0x0001f68a:    2000        .       MOVS     r0,#0
        0x0001f68c:    9005        ..      STR      r0,[sp,#0x14]
        0x0001f68e:    9004        ..      STR      r0,[sp,#0x10]
        0x0001f690:    e7ff        ..      B        0x1f692 ; uint64_to_str + 18
        0x0001f692:    980e        ..      LDR      r0,[sp,#0x38]
        0x0001f694:    990f        ..      LDR      r1,[sp,#0x3c]
        0x0001f696:    f7fefa2b    ..+.    BL       divu64_10 ; 0x1daf0
        0x0001f69a:    9101        ..      STR      r1,[sp,#4]
        0x0001f69c:    9000        ..      STR      r0,[sp,#0]
        0x0001f69e:    980e        ..      LDR      r0,[sp,#0x38]
        0x0001f6a0:    9900        ..      LDR      r1,[sp,#0]
        0x0001f6a2:    eb010181    ....    ADD      r1,r1,r1,LSL #2
        0x0001f6a6:    eba00041    ..A.    SUB      r0,r0,r1,LSL #1
        0x0001f6aa:    9003        ..      STR      r0,[sp,#0xc]
        0x0001f6ac:    9803        ..      LDR      r0,[sp,#0xc]
        0x0001f6ae:    3030        00      ADDS     r0,r0,#0x30
        0x0001f6b0:    9a05        ..      LDR      r2,[sp,#0x14]
        0x0001f6b2:    1c51        Q.      ADDS     r1,r2,#1
        0x0001f6b4:    9105        ..      STR      r1,[sp,#0x14]
        0x0001f6b6:    f10d011b    ....    ADD      r1,sp,#0x1b
        0x0001f6ba:    5488        .T      STRB     r0,[r1,r2]
        0x0001f6bc:    9800        ..      LDR      r0,[sp,#0]
        0x0001f6be:    9901        ..      LDR      r1,[sp,#4]
        0x0001f6c0:    910f        ..      STR      r1,[sp,#0x3c]
        0x0001f6c2:    900e        ..      STR      r0,[sp,#0x38]
        0x0001f6c4:    e7ff        ..      B        0x1f6c6 ; uint64_to_str + 70
        0x0001f6c6:    980e        ..      LDR      r0,[sp,#0x38]
        0x0001f6c8:    990f        ..      LDR      r1,[sp,#0x3c]
        0x0001f6ca:    4308        .C      ORRS     r0,r0,r1
        0x0001f6cc:    2800        .(      CMP      r0,#0
        0x0001f6ce:    d1e0        ..      BNE      0x1f692 ; uint64_to_str + 18
        0x0001f6d0:    e7ff        ..      B        0x1f6d2 ; uint64_to_str + 82
        0x0001f6d2:    9805        ..      LDR      r0,[sp,#0x14]
        0x0001f6d4:    9004        ..      STR      r0,[sp,#0x10]
        0x0001f6d6:    980d        ..      LDR      r0,[sp,#0x34]
        0x0001f6d8:    b198        ..      CBZ      r0,0x1f702 ; uint64_to_str + 130
        0x0001f6da:    e7ff        ..      B        0x1f6dc ; uint64_to_str + 92
        0x0001f6dc:    e7ff        ..      B        0x1f6de ; uint64_to_str + 94
        0x0001f6de:    9805        ..      LDR      r0,[sp,#0x14]
        0x0001f6e0:    1e41        A.      SUBS     r1,r0,#1
        0x0001f6e2:    9105        ..      STR      r1,[sp,#0x14]
        0x0001f6e4:    b148        H.      CBZ      r0,0x1f6fa ; uint64_to_str + 122
        0x0001f6e6:    e7ff        ..      B        0x1f6e8 ; uint64_to_str + 104
        0x0001f6e8:    9905        ..      LDR      r1,[sp,#0x14]
        0x0001f6ea:    f10d001b    ....    ADD      r0,sp,#0x1b
        0x0001f6ee:    5c40        @\      LDRB     r0,[r0,r1]
        0x0001f6f0:    990d        ..      LDR      r1,[sp,#0x34]
        0x0001f6f2:    1c4a        J.      ADDS     r2,r1,#1
        0x0001f6f4:    920d        ..      STR      r2,[sp,#0x34]
        0x0001f6f6:    7008        .p      STRB     r0,[r1,#0]
        0x0001f6f8:    e7f1        ..      B        0x1f6de ; uint64_to_str + 94
        0x0001f6fa:    990d        ..      LDR      r1,[sp,#0x34]
        0x0001f6fc:    2000        .       MOVS     r0,#0
        0x0001f6fe:    7008        .p      STRB     r0,[r1,#0]
        0x0001f700:    e7ff        ..      B        0x1f702 ; uint64_to_str + 130
        0x0001f702:    9804        ..      LDR      r0,[sp,#0x10]
        0x0001f704:    b010        ..      ADD      sp,sp,#0x40
        0x0001f706:    bd80        ..      POP      {r7,pc}
    $t
    x$fpl$d2f
    $v0
    __aeabi_d2f
    _d2f
        0x0001f708:    f0214200    !..B    BIC      r2,r1,#0x80000000
        0x0001f70c:    f0014300    ...C    AND      r3,r1,#0x80000000
        0x0001f710:    f1a25260    ..`R    SUB      r2,r2,#0x38000000
        0x0001f714:    f5b21f80    ....    CMP      r2,#0x100000
        0x0001f718:    bf28        (.      IT       CS
        0x0001f71a:    f1d26c7f    ...l    RSBSCS   r12,r2,#0xff00000
        0x0001f71e:    d90b        ..      BLS      0x1f738 ; __aeabi_d2f + 48
        0x0001f720:    ea5f1c00    _...    LSLS     r12,r0,#4
        0x0001f724:    ea4302c2    C...    ORR      r2,r3,r2,LSL #3
        0x0001f728:    eb427050    B.Pp    ADC      r0,r2,r0,LSR #29
        0x0001f72c:    bf18        ..      IT       NE
        0x0001f72e:    4770        pG      BXNE     lr
        0x0001f730:    bf28        (.      IT       CS
        0x0001f732:    f0200001     ...    BICCS    r0,r0,#1
        0x0001f736:    4770        pG      BX       lr
        0x0001f738:    f5b21f80    ....    CMP      r2,#0x100000
        0x0001f73c:    bfbc        ..      ITT      LT
        0x0001f73e:    4618        .F      MOVLT    r0,r3
        0x0001f740:    4770        pG      BXLT     lr
        0x0001f742:    ea4f0c41    O.A.    LSL      r12,r1,#1
        0x0001f746:    f51c1f00    ....    CMN      r12,#0x200000
        0x0001f74a:    d202        ..      BCS      0x1f752 ; __aeabi_d2f + 74
        0x0001f74c:    4608        .F      MOV      r0,r1
        0x0001f74e:    f000b867    ..g.    B.W      __fpl_fretinf ; 0x1f820
        0x0001f752:    b570        p.      PUSH     {r4-r6,lr}
        0x0001f754:    f000f809    ....    BL       __fpl_dnaninf ; 0x1f76a
    $d
        0x0001f758:    89000000    ....    DCD    2298478592
    $t
        0x0001f75c:    f7ffbff6    ....    B.W      0x1f74c ; __aeabi_d2f + 68
        0x0001f760:    f04f4000    O..@    MOV      r0,#0x80000000
        0x0001f764:    f5a00080    ....    SUB      r0,r0,#0x400000
        0x0001f768:    4770        pG      BX       lr
    x$fpl$dnaninf
    $v0
    __fpl_dnaninf
        0x0001f76a:    f10e0e02    ....    ADD      lr,lr,#2
        0x0001f76e:    f02e0e03    ....    BIC      lr,lr,#3
        0x0001f772:    f85e6b04    ^..k    LDR      r6,[lr],#4
        0x0001f776:    4236        6B      TST      r6,r6
        0x0001f778:    d405        ..      BMI      0x1f786 ; __fpl_dnaninf + 28
        0x0001f77a:    2a01        .*      CMP      r2,#1
        0x0001f77c:    eb430503    C...    ADC      r5,r3,r3
        0x0001f780:    f5151f00    ....    CMN      r5,#0x200000
        0x0001f784:    d812        ..      BHI      0x1f7ac ; __fpl_dnaninf + 66
        0x0001f786:    2801        .(      CMP      r0,#1
        0x0001f788:    eb410c01    A...    ADC      r12,r1,r1
        0x0001f78c:    f51c1f00    ....    CMN      r12,#0x200000
        0x0001f790:    d80c        ..      BHI      0x1f7ac ; __fpl_dnaninf + 66
        0x0001f792:    d10e        ..      BNE      0x1f7b2 ; __fpl_dnaninf + 72
        0x0001f794:    ea4f7cd1    O..|    LSR      r12,r1,#31
        0x0001f798:    eb0c0c4c    ..L.    ADD      r12,r12,r12,LSL #1
        0x0001f79c:    f10c0c02    ....    ADD      r12,r12,#2
        0x0001f7a0:    f5151f00    ....    CMN      r5,#0x200000
        0x0001f7a4:    bf08        ..      IT       EQ
        0x0001f7a6:    eb4c7cd3    L..|    ADCEQ    r12,r12,r3,LSR #31
        0x0001f7aa:    e004        ..      B        0x1f7b6 ; __fpl_dnaninf + 76
        0x0001f7ac:    f04f0c08    O...    MOV      r12,#8
        0x0001f7b0:    e001        ..      B        0x1f7b6 ; __fpl_dnaninf + 76
        0x0001f7b2:    ea4f7cd3    O..|    LSR      r12,r3,#31
        0x0001f7b6:    eb0c054c    ..L.    ADD      r5,r12,r12,LSL #1
        0x0001f7ba:    fa26f605    &...    LSR      r6,r6,r5
        0x0001f7be:    f0060607    ....    AND      r6,r6,#7
        0x0001f7c2:    f1b60c04    ....    SUBS     r12,r6,#4
        0x0001f7c6:    d206        ..      BCS      0x1f7d6 ; __fpl_dnaninf + 108
        0x0001f7c8:    eb0e0c86    ....    ADD      r12,lr,r6,LSL #2
        0x0001f7cc:    e8bd4070    ..p@    POP      {r4-r6,lr}
        0x0001f7d0:    f04c0c01    L...    ORR      r12,r12,#1
        0x0001f7d4:    4760        `G      BX       r12
        0x0001f7d6:    e8dff00c    ....    TBB      [pc,r12]
    $d
        0x0001f7da:    0b09        ..      DCW    2825
        0x0001f7dc:    0202        ..      DCW    514
    $t
        0x0001f7de:    f04f4100    O..A    MOV      r1,#0x80000000
        0x0001f7e2:    f5a12100    ...!    SUB      r1,r1,#0x80000
        0x0001f7e6:    f04f0000    O...    MOV      r0,#0
        0x0001f7ea:    bd70        p.      POP      {r4-r6,pc}
        0x0001f7ec:    4619        .F      MOV      r1,r3
        0x0001f7ee:    4610        .F      MOV      r0,r2
        0x0001f7f0:    2801        .(      CMP      r0,#1
        0x0001f7f2:    eb510401    Q...    ADCS     r4,r1,r1
        0x0001f7f6:    bf18        ..      IT       NE
        0x0001f7f8:    f5d41400    ....    RSBSNE   r4,r4,#0x200000
        0x0001f7fc:    bf84        ..      ITT      HI
        0x0001f7fe:    2000        .       MOVHI    r0,#0
        0x0001f800:    f0014100    ...A    ANDHI    r1,r1,#0x80000000
        0x0001f804:    bd70        p.      POP      {r4-r6,pc}
    x$fpl$fpinit
    $v0
    _fp_init
        0x0001f806:    eef10a10    ....    VMRS     r0,FPSCR
        0x0001f80a:    f64f71ff    O..q    MOV      r1,#0xffff
        0x0001f80e:    f2c031c0    ...1    MOVT     r1,#0x3c0
        0x0001f812:    ea200001     ...    BIC      r0,r0,r1
        0x0001f816:    f0407040    @.@p    ORR      r0,r0,#0x3000000
        0x0001f81a:    eee10a10    ....    VMSR     FPSCR,r0
    __fplib_config_fpu_vfp
    __fplib_config_pureend_doubles
        0x0001f81e:    4770        pG      BX       lr
    x$fpl$fretinf
    $v0
    __fpl_fretinf
        0x0001f820:    21ff        .!      MOVS     r1,#0xff
        0x0001f822:    ea4150d0    A..P    ORR      r0,r1,r0,LSR #23
        0x0001f826:    05c0        ..      LSLS     r0,r0,#23
        0x0001f828:    4770        pG      BX       lr
    $d.realdata
    x$fpl$usenofp
    __I$use$fp
    am_hal_cachectrl_defaults
        0x0001f82a:    030e        ..      DCW    782
        0x0001f82c:    00          .       DCB    0
    am_hal_daxi_defaults
        0x0001f82d:    000102      ...     DCB    0,1,2
        0x0001f830:    0000010f    ....    DCD    271
    am_hal_pwrctrl_peripheral_control
        0x0001f834:    40021004    ...@    DCD    1073876996
        0x0001f838:    00000001    ....    DCD    1
        0x0001f83c:    40021008    ...@    DCD    1073877000
        0x0001f840:    00000001    ....    DCD    1
        0x0001f844:    40021004    ...@    DCD    1073876996
        0x0001f848:    00000002    ....    DCD    2
        0x0001f84c:    40021008    ...@    DCD    1073877000
        0x0001f850:    0000001e    ....    DCD    30
        0x0001f854:    40021004    ...@    DCD    1073876996
        0x0001f858:    00000004    ....    DCD    4
        0x0001f85c:    40021008    ...@    DCD    1073877000
        0x0001f860:    0000001e    ....    DCD    30
        0x0001f864:    40021004    ...@    DCD    1073876996
        0x0001f868:    00000008    ....    DCD    8
        0x0001f86c:    40021008    ...@    DCD    1073877000
        0x0001f870:    0000001e    ....    DCD    30
        0x0001f874:    40021004    ...@    DCD    1073876996
        0x0001f878:    00000010    ....    DCD    16
        0x0001f87c:    40021008    ...@    DCD    1073877000
        0x0001f880:    0000001e    ....    DCD    30
        0x0001f884:    40021004    ...@    DCD    1073876996
        0x0001f888:    00000020     ...    DCD    32
        0x0001f88c:    40021008    ...@    DCD    1073877000
        0x0001f890:    000001e0    ....    DCD    480
        0x0001f894:    40021004    ...@    DCD    1073876996
        0x0001f898:    00000040    @...    DCD    64
        0x0001f89c:    40021008    ...@    DCD    1073877000
        0x0001f8a0:    000001e0    ....    DCD    480
        0x0001f8a4:    40021004    ...@    DCD    1073876996
        0x0001f8a8:    00000080    ....    DCD    128
        0x0001f8ac:    40021008    ...@    DCD    1073877000
        0x0001f8b0:    000001e0    ....    DCD    480
        0x0001f8b4:    40021004    ...@    DCD    1073876996
        0x0001f8b8:    00000100    ....    DCD    256
        0x0001f8bc:    40021008    ...@    DCD    1073877000
        0x0001f8c0:    000001e0    ....    DCD    480
        0x0001f8c4:    40021004    ...@    DCD    1073876996
        0x0001f8c8:    00000200    ....    DCD    512
        0x0001f8cc:    40021008    ...@    DCD    1073877000
        0x0001f8d0:    00001e00    ....    DCD    7680
        0x0001f8d4:    40021004    ...@    DCD    1073876996
        0x0001f8d8:    00000400    ....    DCD    1024
        0x0001f8dc:    40021008    ...@    DCD    1073877000
        0x0001f8e0:    00001e00    ....    DCD    7680
        0x0001f8e4:    40021004    ...@    DCD    1073876996
        0x0001f8e8:    00000800    ....    DCD    2048
        0x0001f8ec:    40021008    ...@    DCD    1073877000
        0x0001f8f0:    00001e00    ....    DCD    7680
        0x0001f8f4:    40021004    ...@    DCD    1073876996
        0x0001f8f8:    00001000    ....    DCD    4096
        0x0001f8fc:    40021008    ...@    DCD    1073877000
        0x0001f900:    00001e00    ....    DCD    7680
        0x0001f904:    40021004    ...@    DCD    1073876996
        0x0001f908:    00002000    . ..    DCD    8192
        0x0001f90c:    40021008    ...@    DCD    1073877000
        0x0001f910:    00002000    . ..    DCD    8192
        0x0001f914:    40021004    ...@    DCD    1073876996
        0x0001f918:    00004000    .@..    DCD    16384
        0x0001f91c:    40021008    ...@    DCD    1073877000
        0x0001f920:    0001c000    ....    DCD    114688
        0x0001f924:    40021004    ...@    DCD    1073876996
        0x0001f928:    00008000    ....    DCD    32768
        0x0001f92c:    40021008    ...@    DCD    1073877000
        0x0001f930:    0001c000    ....    DCD    114688
        0x0001f934:    40021004    ...@    DCD    1073876996
        0x0001f938:    00010000    ....    DCD    65536
        0x0001f93c:    40021008    ...@    DCD    1073877000
        0x0001f940:    0001c000    ....    DCD    114688
        0x0001f944:    40021004    ...@    DCD    1073876996
        0x0001f948:    00020000    ....    DCD    131072
        0x0001f94c:    40021008    ...@    DCD    1073877000
        0x0001f950:    00020000    ....    DCD    131072
        0x0001f954:    40021004    ...@    DCD    1073876996
        0x0001f958:    00040000    ....    DCD    262144
        0x0001f95c:    40021008    ...@    DCD    1073877000
        0x0001f960:    00040000    ....    DCD    262144
        0x0001f964:    40021004    ...@    DCD    1073876996
        0x0001f968:    00080000    ....    DCD    524288
        0x0001f96c:    40021008    ...@    DCD    1073877000
        0x0001f970:    00080000    ....    DCD    524288
        0x0001f974:    40021004    ...@    DCD    1073876996
        0x0001f978:    00100000    ....    DCD    1048576
        0x0001f97c:    40021008    ...@    DCD    1073877000
        0x0001f980:    00100000    ....    DCD    1048576
        0x0001f984:    40021004    ...@    DCD    1073876996
        0x0001f988:    00200000    .. .    DCD    2097152
        0x0001f98c:    40021008    ...@    DCD    1073877000
        0x0001f990:    00200000    .. .    DCD    2097152
        0x0001f994:    40021004    ...@    DCD    1073876996
        0x0001f998:    00400000    ..@.    DCD    4194304
        0x0001f99c:    40021008    ...@    DCD    1073877000
        0x0001f9a0:    00400000    ..@.    DCD    4194304
        0x0001f9a4:    40021004    ...@    DCD    1073876996
        0x0001f9a8:    00800000    ....    DCD    8388608
        0x0001f9ac:    40021008    ...@    DCD    1073877000
        0x0001f9b0:    00800000    ....    DCD    8388608
        0x0001f9b4:    40021004    ...@    DCD    1073876996
        0x0001f9b8:    01000000    ....    DCD    16777216
        0x0001f9bc:    40021008    ...@    DCD    1073877000
        0x0001f9c0:    01000000    ....    DCD    16777216
        0x0001f9c4:    4002100c    ...@    DCD    1073877004
        0x0001f9c8:    00000001    ....    DCD    1
        0x0001f9cc:    40021010    ...@    DCD    1073877008
        0x0001f9d0:    000000ff    ....    DCD    255
        0x0001f9d4:    4002100c    ...@    DCD    1073877004
        0x0001f9d8:    00000002    ....    DCD    2
        0x0001f9dc:    40021010    ...@    DCD    1073877008
        0x0001f9e0:    000000ff    ....    DCD    255
        0x0001f9e4:    4002100c    ...@    DCD    1073877004
        0x0001f9e8:    00000004    ....    DCD    4
        0x0001f9ec:    40021010    ...@    DCD    1073877008
        0x0001f9f0:    000000ff    ....    DCD    255
        0x0001f9f4:    4002100c    ...@    DCD    1073877004
        0x0001f9f8:    00000008    ....    DCD    8
        0x0001f9fc:    40021010    ...@    DCD    1073877008
        0x0001fa00:    000000ff    ....    DCD    255
        0x0001fa04:    4002100c    ...@    DCD    1073877004
        0x0001fa08:    00000010    ....    DCD    16
        0x0001fa0c:    40021010    ...@    DCD    1073877008
        0x0001fa10:    000000ff    ....    DCD    255
        0x0001fa14:    4002100c    ...@    DCD    1073877004
        0x0001fa18:    00000020     ...    DCD    32
        0x0001fa1c:    40021010    ...@    DCD    1073877008
        0x0001fa20:    000000ff    ....    DCD    255
        0x0001fa24:    4002100c    ...@    DCD    1073877004
        0x0001fa28:    00000040    @...    DCD    64
        0x0001fa2c:    40021010    ...@    DCD    1073877008
        0x0001fa30:    000000ff    ....    DCD    255
        0x0001fa34:    4002100c    ...@    DCD    1073877004
        0x0001fa38:    00000080    ....    DCD    128
        0x0001fa3c:    40021010    ...@    DCD    1073877008
        0x0001fa40:    000000ff    ....    DCD    255
        0x0001fa44:    4002100c    ...@    DCD    1073877004
        0x0001fa48:    00000400    ....    DCD    1024
        0x0001fa4c:    40021010    ...@    DCD    1073877008
        0x0001fa50:    00000400    ....    DCD    1024
    gAmHalCmdQReg
        0x0001fa54:    40050228    (..@    DCD    1074070056
        0x0001fa58:    4005022c    ,..@    DCD    1074070060
        0x0001fa5c:    40050240    @..@    DCD    1074070080
        0x0001fa60:    40050244    D..@    DCD    1074070084
        0x0001fa64:    4005023c    <..@    DCD    1074070076
        0x0001fa68:    00008000    ....    DCD    32768
        0x0001fa6c:    40050230    0..@    DCD    1074070064
        0x0001fa70:    00000001    ....    DCD    1
        0x0001fa74:    00000004    ....    DCD    4
        0x0001fa78:    00000002    ....    DCD    2
        0x0001fa7c:    40051228    (..@    DCD    1074074152
        0x0001fa80:    4005122c    ,..@    DCD    1074074156
        0x0001fa84:    40051240    @..@    DCD    1074074176
        0x0001fa88:    40051244    D..@    DCD    1074074180
        0x0001fa8c:    4005123c    <..@    DCD    1074074172
        0x0001fa90:    00008000    ....    DCD    32768
        0x0001fa94:    40051230    0..@    DCD    1074074160
        0x0001fa98:    00000001    ....    DCD    1
        0x0001fa9c:    00000004    ....    DCD    4
        0x0001faa0:    00000002    ....    DCD    2
        0x0001faa4:    40052228    (".@    DCD    1074078248
        0x0001faa8:    4005222c    ,".@    DCD    1074078252
        0x0001faac:    40052240    @".@    DCD    1074078272
        0x0001fab0:    40052244    D".@    DCD    1074078276
        0x0001fab4:    4005223c    <".@    DCD    1074078268
        0x0001fab8:    00008000    ....    DCD    32768
        0x0001fabc:    40052230    0".@    DCD    1074078256
        0x0001fac0:    00000001    ....    DCD    1
        0x0001fac4:    00000004    ....    DCD    4
        0x0001fac8:    00000002    ....    DCD    2
        0x0001facc:    40053228    (2.@    DCD    1074082344
        0x0001fad0:    4005322c    ,2.@    DCD    1074082348
        0x0001fad4:    40053240    @2.@    DCD    1074082368
        0x0001fad8:    40053244    D2.@    DCD    1074082372
        0x0001fadc:    4005323c    <2.@    DCD    1074082364
        0x0001fae0:    00008000    ....    DCD    32768
        0x0001fae4:    40053230    02.@    DCD    1074082352
        0x0001fae8:    00000001    ....    DCD    1
        0x0001faec:    00000004    ....    DCD    4
        0x0001faf0:    00000002    ....    DCD    2
        0x0001faf4:    40054228    (B.@    DCD    1074086440
        0x0001faf8:    4005422c    ,B.@    DCD    1074086444
        0x0001fafc:    40054240    @B.@    DCD    1074086464
        0x0001fb00:    40054244    DB.@    DCD    1074086468
        0x0001fb04:    4005423c    <B.@    DCD    1074086460
        0x0001fb08:    00008000    ....    DCD    32768
        0x0001fb0c:    40054230    0B.@    DCD    1074086448
        0x0001fb10:    00000001    ....    DCD    1
        0x0001fb14:    00000004    ....    DCD    4
        0x0001fb18:    00000002    ....    DCD    2
        0x0001fb1c:    40055228    (R.@    DCD    1074090536
        0x0001fb20:    4005522c    ,R.@    DCD    1074090540
        0x0001fb24:    40055240    @R.@    DCD    1074090560
        0x0001fb28:    40055244    DR.@    DCD    1074090564
        0x0001fb2c:    4005523c    <R.@    DCD    1074090556
        0x0001fb30:    00008000    ....    DCD    32768
        0x0001fb34:    40055230    0R.@    DCD    1074090544
        0x0001fb38:    00000001    ....    DCD    1
        0x0001fb3c:    00000004    ....    DCD    4
        0x0001fb40:    00000002    ....    DCD    2
        0x0001fb44:    40056228    (b.@    DCD    1074094632
        0x0001fb48:    4005622c    ,b.@    DCD    1074094636
        0x0001fb4c:    40056240    @b.@    DCD    1074094656
        0x0001fb50:    40056244    Db.@    DCD    1074094660
        0x0001fb54:    4005623c    <b.@    DCD    1074094652
        0x0001fb58:    00008000    ....    DCD    32768
        0x0001fb5c:    40056230    0b.@    DCD    1074094640
        0x0001fb60:    00000001    ....    DCD    1
        0x0001fb64:    00000004    ....    DCD    4
        0x0001fb68:    00000002    ....    DCD    2
        0x0001fb6c:    40057228    (r.@    DCD    1074098728
        0x0001fb70:    4005722c    ,r.@    DCD    1074098732
        0x0001fb74:    40057240    @r.@    DCD    1074098752
        0x0001fb78:    40057244    Dr.@    DCD    1074098756
        0x0001fb7c:    4005723c    <r.@    DCD    1074098748
        0x0001fb80:    00008000    ....    DCD    32768
        0x0001fb84:    40057230    0r.@    DCD    1074098736
        0x0001fb88:    00000001    ....    DCD    1
        0x0001fb8c:    00000004    ....    DCD    4
        0x0001fb90:    00000002    ....    DCD    2
        0x0001fb94:    400602a0    ...@    DCD    1074135712
        0x0001fb98:    400602a8    ...@    DCD    1074135720
        0x0001fb9c:    400602c0    ...@    DCD    1074135744
        0x0001fba0:    400602c4    ...@    DCD    1074135748
        0x0001fba4:    400602b8    ...@    DCD    1074135736
        0x0001fba8:    00004000    .@..    DCD    16384
        0x0001fbac:    400602ac    ...@    DCD    1074135724
        0x0001fbb0:    00000001    ....    DCD    1
        0x0001fbb4:    00000004    ....    DCD    4
        0x0001fbb8:    00000008    ....    DCD    8
        0x0001fbbc:    400612a0    ...@    DCD    1074139808
        0x0001fbc0:    400612a8    ...@    DCD    1074139816
        0x0001fbc4:    400612c0    ...@    DCD    1074139840
        0x0001fbc8:    400612c4    ...@    DCD    1074139844
        0x0001fbcc:    400612b8    ...@    DCD    1074139832
        0x0001fbd0:    00004000    .@..    DCD    16384
        0x0001fbd4:    400612ac    ...@    DCD    1074139820
        0x0001fbd8:    00000001    ....    DCD    1
        0x0001fbdc:    00000004    ....    DCD    4
        0x0001fbe0:    00000008    ....    DCD    8
        0x0001fbe4:    400622a0    .".@    DCD    1074143904
        0x0001fbe8:    400622a8    .".@    DCD    1074143912
        0x0001fbec:    400622c0    .".@    DCD    1074143936
        0x0001fbf0:    400622c4    .".@    DCD    1074143940
        0x0001fbf4:    400622b8    .".@    DCD    1074143928
        0x0001fbf8:    00004000    .@..    DCD    16384
        0x0001fbfc:    400622ac    .".@    DCD    1074143916
        0x0001fc00:    00000001    ....    DCD    1
        0x0001fc04:    00000004    ....    DCD    4
        0x0001fc08:    00000008    ....    DCD    8
    g_DefaultMcuMemCfg
        0x0001fc0c:    07070102    ....    DCD    117899522
        0x0001fc10:    0001        ..      DCW    1
    g_DefaultSRAMCfg
        0x0001fc12:    0003        ..      DCW    3
        0x0001fc14:    03000000    ....    DCD    50331648
    g_am_hal_bootrom_helper
        0x0001fc18:    0800004d    M...    DCD    134217805
        0x0001fc1c:    08000051    Q...    DCD    134217809
        0x0001fc20:    08000055    U...    DCD    134217813
        0x0001fc24:    08000059    Y...    DCD    134217817
        0x0001fc28:    0800006d    m...    DCD    134217837
        0x0001fc2c:    08000075    u...    DCD    134217845
        0x0001fc30:    08000079    y...    DCD    134217849
        0x0001fc34:    08000081    ....    DCD    134217857
        0x0001fc38:    08000099    ....    DCD    134217881
        0x0001fc3c:    0800009d    ....    DCD    134217885
    mspi_interrupts
        0x0001fc40:    00161514    ....    DCD    1447188
    __tagsym$$used.7
    sGlobalAccess
        0x0001fc44:    00020368    h...    DCD    131944
        0x0001fc48:    00020348    H...    DCD    131912
        0x0001fc4c:    00020320     ...    DCD    131872
        0x0001fc50:    00020334    4...    DCD    131892
        0x0001fc54:    10060004    ....    DCD    268828676
        0x0001fc58:    10060018    ....    DCD    268828696
        0x0001fc5c:    1006002c    ,...    DCD    268828716
    .L.str.1
        0x0001fc60:    6c6f7041    Apol    DCD    1819242561
        0x0001fc64:    20346f6c    lo4     DCD    540307308
        0x0001fc68:    4950534d    MSPI    DCD    1230000973
        0x0001fc6c:    52444420     DDR    DCD    1380205600
        0x0001fc70:    52535020     PSR    DCD    1381191712
        0x0001fc74:    4c204d41    AM L    DCD    1277185345
        0x0001fc78:    6564616f    oade    DCD    1701077359
        0x0001fc7c:    78452072    r Ex    DCD    2017796210
        0x0001fc80:    6c706d61    ampl    DCD    1819307361
        0x0001fc84:    000a0a65    e...    DCD    658021
    .L.str.10
        0x0001fc88:    6c696146    Fail    DCD    1818845510
        0x0001fc8c:    74206465    ed t    DCD    1948279909
        0x0001fc90:    6964206f    o di    DCD    1768169583
        0x0001fc94:    6c626173    sabl    DCD    1818386803
        0x0001fc98:    49582065    e XI    DCD    1230512229
        0x0001fc9c:    6f6d2050    P mo    DCD    1869422672
        0x0001fca0:    69206564    de i    DCD    1763730788
        0x0001fca4:    6874206e    n th    DCD    1752440942
        0x0001fca8:    534d2065    e MS    DCD    1397563493
        0x0001fcac:    0a214950    PI!.    DCD    169953616
        0x0001fcb0:    00          .       DCB    0
    .L.str.15
        0x0001fcb1:    566572      Ver     DCB    86,101,114
        0x0001fcb4:    69796669    ifyi    DCD    1769563753
        0x0001fcb8:    6920676e    ng i    DCD    1763731310
        0x0001fcbc:    6567616d    mage    DCD    1701273965
        0x0001fcc0:    206e6920     in     DCD    544106784
        0x0001fcc4:    65747845    Exte    DCD    1702131781
        0x0001fcc8:    6c616e72    rnal    DCD    1818324594
        0x0001fccc:    52535020     PSR    DCD    1381191712
        0x0001fcd0:    44204d41    AM D    DCD    1142967617
        0x0001fcd4:    63697665    evic    DCD    1667855973
        0x0001fcd8:    000a2165    e!..    DCD    663909
    .L.str.13
        0x0001fcdc:    74697257    Writ    DCD    1953067607
        0x0001fce0:    20676e69    ing     DCD    543649385
        0x0001fce4:    67616d69    imag    DCD    1734438249
        0x0001fce8:    6f742065    e to    DCD    1869881445
        0x0001fcec:    74784520     Ext    DCD    1954039072
        0x0001fcf0:    616e7265    erna    DCD    1634628197
        0x0001fcf4:    5350206c    l PS    DCD    1397760108
        0x0001fcf8:    204d4152    RAM     DCD    541933906
        0x0001fcfc:    69766544    Devi    DCD    1769366852
        0x0001fd00:    0a216563    ce!.    DCD    169960803
        0x0001fd04:    00          .       DCB    0
    .L.str.16
        0x0001fd05:    466169      Fai     DCB    70,97,105
        0x0001fd08:    2064656c    led     DCD    543450476
        0x0001fd0c:    72206f74    to r    DCD    1914728308
        0x0001fd10:    20646165    ead     DCD    543449445
        0x0001fd14:    66667562    buff    DCD    1717990754
        0x0001fd18:    74207265    er t    DCD    1948283493
        0x0001fd1c:    5350206f    o PS    DCD    1397760111
        0x0001fd20:    204d4152    RAM     DCD    541933906
        0x0001fd24:    69766544    Devi    DCD    1769366852
        0x0001fd28:    0a216563    ce!.    DCD    169960803
        0x0001fd2c:    00          .       DCB    0
    .L.str.14
        0x0001fd2d:    466169      Fai     DCB    70,97,105
        0x0001fd30:    2064656c    led     DCD    543450476
        0x0001fd34:    77206f74    to w    DCD    1998614388
        0x0001fd38:    65746972    rite    DCD    1702127986
        0x0001fd3c:    66756220     buf    DCD    1718968864
        0x0001fd40:    20726566    fer     DCD    544367974
        0x0001fd44:    50206f74    to P    DCD    1344302964
        0x0001fd48:    4d415253    SRAM    DCD    1296126547
        0x0001fd4c:    76654420     Dev    DCD    1986348064
        0x0001fd50:    21656369    ice!    DCD    560292713
        0x0001fd54:    000a        ..      DCW    10
    .L.str.19
        0x0001fd56:    6146        Fa      DCW    24902
        0x0001fd58:    64656c69    iled    DCD    1684368489
        0x0001fd5c:    206f7420     to     DCD    544175136
        0x0001fd60:    20747570    put     DCD    544503152
        0x0001fd64:    20656874    the     DCD    543516788
        0x0001fd68:    4950534d    MSPI    DCD    1230000973
        0x0001fd6c:    746e6920     int    DCD    1953392928
        0x0001fd70:    4958206f    o XI    DCD    1230512239
        0x0001fd74:    6f6d2050    P mo    DCD    1869422672
        0x0001fd78:    0a216564    de!.    DCD    169960804
        0x0001fd7c:    00          .       DCB    0
    .L.str.12
        0x0001fd7d:    466169      Fai     DCB    70,97,105
        0x0001fd80:    2064656c    led     DCD    543450476
        0x0001fd84:    65206f74    to e    DCD    1696624500
        0x0001fd88:    6c62616e    nabl    DCD    1818386798
        0x0001fd8c:    534d2065    e MS    DCD    1397563493
        0x0001fd90:    73204950    PI s    DCD    1931495760
        0x0001fd94:    6d617263    cram    DCD    1835102819
        0x0001fd98:    6e696c62    blin    DCD    1852402786
        0x0001fd9c:    000a2167    g!..    DCD    663911
    .L.str.17
        0x0001fda0:    61205854    TX a    DCD    1629509716
        0x0001fda4:    5220646e    nd R    DCD    1377854574
        0x0001fda8:    75622058    X bu    DCD    1969365080
        0x0001fdac:    72656666    ffer    DCD    1919247974
        0x0001fdb0:    61662073    s fa    DCD    1634082931
        0x0001fdb4:    64656c69    iled    DCD    1684368489
        0x0001fdb8:    206f7420     to     DCD    544175136
        0x0001fdbc:    706d6f63    comp    DCD    1886220131
        0x0001fdc0:    20657261    are     DCD    543519329
        0x0001fdc4:    6f207461    at o    DCD    1864397921
        0x0001fdc8:    65736666    ffse    DCD    1702061670
        0x0001fdcc:    78302074    t 0x    DCD    2016419956
        0x0001fdd0:    2d207825    %x -    DCD    757102629
        0x0001fdd4:    70784520     Exp    DCD    1886930208
        0x0001fdd8:    65746365    ecte    DCD    1702126437
        0x0001fddc:    78302064    d 0x    DCD    2016419940
        0x0001fde0:    41207825    %x A    DCD    1092646949
        0x0001fde4:    61757463    ctua    DCD    1635087459
        0x0001fde8:    7830206c    l 0x    DCD    2016419948
        0x0001fdec:    0a217825    %x!.    DCD    169965605
        0x0001fdf0:    00          .       DCB    0
    .L.str.9
        0x0001fdf1:    466169      Fai     DCB    70,97,105
        0x0001fdf4:    2064656c    led     DCD    543450476
        0x0001fdf8:    63206f74    to c    DCD    1663070068
        0x0001fdfc:    69666e6f    onfi    DCD    1768320623
        0x0001fe00:    65727567    gure    DCD    1701999975
        0x0001fe04:    65687420     the    DCD    1701344288
        0x0001fe08:    50534d20     MSP    DCD    1347636512
        0x0001fe0c:    6e612049    I an    DCD    1851859017
        0x0001fe10:    53502064    d PS    DCD    1397760100
        0x0001fe14:    204d4152    RAM     DCD    541933906
        0x0001fe18:    69766544    Devi    DCD    1769366852
        0x0001fe1c:    63206563    ce c    DCD    1663067491
        0x0001fe20:    6572726f    orre    DCD    1701999215
        0x0001fe24:    796c7463    ctly    DCD    2037150819
        0x0001fe28:    0a21        !.      DCW    2593
        0x0001fe2a:    00          .       DCB    0
    .L.str.20
        0x0001fe2b:    4a          J       DCB    74
        0x0001fe2c:    69706d75    umpi    DCD    1768975733
        0x0001fe30:    7420676e    ng t    DCD    1948280686
        0x0001fe34:    6572206f    o re    DCD    1701978223
        0x0001fe38:    61636f6c    loca    DCD    1633906540
        0x0001fe3c:    20646574    ted     DCD    543450484
        0x0001fe40:    67616d69    imag    DCD    1734438249
        0x0001fe44:    6e692065    e in    DCD    1852383333
        0x0001fe48:    50534d20     MSP    DCD    1347636512
        0x0001fe4c:    53502049    I PS    DCD    1397760073
        0x0001fe50:    0a4d4152    RAM.    DCD    172835154
        0x0001fe54:    00          .       DCB    0
    .L.str.21
        0x0001fe55:    4d5350      MSP     DCB    77,83,80
        0x0001fe58:    44442049    I DD    DCD    1145315401
        0x0001fe5c:    53502052    R PS    DCD    1397760082
        0x0001fe60:    204d4152    RAM     DCD    541933906
        0x0001fe64:    64616f4c    Load    DCD    1684107084
        0x0001fe68:    000a6465    ed..    DCD    681061
    .L.str.2
        0x0001fe6c:    696c6156    Vali    DCD    1768710486
        0x0001fe70:    61502064    d Pa    DCD    1632641124
        0x0001fe74:    65686374    tche    DCD    1701340020
        0x0001fe78:    6e692064    d in    DCD    1852383332
        0x0001fe7c:    6d726f66    form    DCD    1836216166
        0x0001fe80:    6f697461    atio    DCD    1869182049
        0x0001fe84:    6f66206e    n fo    DCD    1868963950
        0x0001fe88:    0a646e75    und.    DCD    174354037
        0x0001fe8c:    00          .       DCB    0
    .L.str.18
        0x0001fe8d:    507574      Put     DCB    80,117,116
        0x0001fe90:    676e6974    ting    DCD    1735289204
        0x0001fe94:    65687420     the    DCD    1701344288
        0x0001fe98:    50534d20     MSP    DCD    1347636512
        0x0001fe9c:    6e612049    I an    DCD    1851859017
        0x0001fea0:    78452064    d Ex    DCD    2017796196
        0x0001fea4:    6e726574    tern    DCD    1852990836
        0x0001fea8:    50206c61    al P    DCD    1344302177
        0x0001feac:    4d415253    SRAM    DCD    1296126547
        0x0001feb0:    746e6920     int    DCD    1953392928
        0x0001feb4:    4958206f    o XI    DCD    1230512239
        0x0001feb8:    6f6d2050    P mo    DCD    1869422672
        0x0001febc:    000a6564    de..    DCD    681316
    .L.str.11
        0x0001fec0:    74747550    Putt    DCD    1953789264
        0x0001fec4:    20676e69    ing     DCD    543649385
        0x0001fec8:    20656874    the     DCD    543516788
        0x0001fecc:    4950534d    MSPI    DCD    1230000973
        0x0001fed0:    746e6920     int    DCD    1953392928
        0x0001fed4:    6353206f    o Sc    DCD    1666392175
        0x0001fed8:    626d6172    ramb    DCD    1651335538
        0x0001fedc:    676e696c    ling    DCD    1735289196
        0x0001fee0:    646f6d20     mod    DCD    1685024032
        0x0001fee4:    0a65        e.      DCW    2661
        0x0001fee6:    00          .       DCB    0
    .L.str.6
        0x0001fee7:    53          S       DCB    83
        0x0001fee8:    6d617263    cram    DCD    1835102819
        0x0001feec:    6e696c62    blin    DCD    1852402786
        0x0001fef0:    73692067    g is    DCD    1936269415
        0x0001fef4:    0a732520     %s.    DCD    175318304
        0x0001fef8:    00          .       DCB    0
    .L.str.4
        0x0001fef9:    42696e      Bin     DCB    66,105,110
        0x0001fefc:    736e4920     Ins    DCD    1936607520
        0x0001ff00:    6c6c6174    tall    DCD    1819042164
        0x0001ff04:    64644120     Add    DCD    1684291872
        0x0001ff08:    73736572    ress    DCD    1936942450
        0x0001ff0c:    206e6920     in     DCD    544106784
        0x0001ff10:    65747865    exte    DCD    1702131813
        0x0001ff14:    6c616e72    rnal    DCD    1818324594
        0x0001ff18:    52535020     PSR    DCD    1381191712
        0x0001ff1c:    3d204d41    AM =    DCD    1025527105
        0x0001ff20:    25783020     0x%    DCD    628633632
        0x0001ff24:    0a78        x.      DCW    2680
        0x0001ff26:    00          .       DCB    0
    .L.str.5
        0x0001ff27:    42          B       DCB    66
        0x0001ff28:    53206e69    in S    DCD    1394634345
        0x0001ff2c:    20657a69    ize     DCD    543521385
        0x0001ff30:    7830203d    = 0x    DCD    2016419901
        0x0001ff34:    000a7825    %x..    DCD    686117
    .L.str.3
        0x0001ff38:    206e6942    Bin     DCD    544106818
        0x0001ff3c:    72646441    Addr    DCD    1919181889
        0x0001ff40:    20737365    ess     DCD    544437093
        0x0001ff44:    69206e69    in i    DCD    1763733097
        0x0001ff48:    7265746e    nter    DCD    1919251566
        0x0001ff4c:    206c616e    nal     DCD    543973742
        0x0001ff50:    73616c66    flas    DCD    1935764582
        0x0001ff54:    203d2068    h =     DCD    540876904
        0x0001ff58:    78257830    0x%x    DCD    2015721520
        0x0001ff5c:    000a        ..      DCW    10
    .L.str
        0x0001ff5e:    6146        Fa      DCW    24902
        0x0001ff60:    64656c69    iled    DCD    1684368489
        0x0001ff64:    206f7420     to     DCD    544175136
        0x0001ff68:    666e6f63    conf    DCD    1718513507
        0x0001ff6c:    72756769    igur    DCD    1920296809
        0x0001ff70:    41442065    e DA    DCD    1094983781
        0x0001ff74:    00214958    XI!.    DCD    2181464
    .L.str.7
        0x0001ff78:    62616e45    Enab    DCD    1650552389
        0x0001ff7c:    0064656c    led.    DCD    6579564
    .L.str.8
        0x0001ff80:    61736944    Disa    DCD    1634953540
        0x0001ff84:    64656c62    bled    DCD    1684368482
        0x0001ff88:    00          .       DCB    0
    .L.str.1
        0x0001ff89:    202020              DCB    32,32,32
        0x0001ff8c:    766e4920     Inv    DCD    1986939168
        0x0001ff90:    64696c61    alid    DCD    1684630625
        0x0001ff94:    20505320     SP     DCD    542135072
        0x0001ff98:    6e656877    when    DCD    1852139639
        0x0001ff9c:    72614820     Har    DCD    1918978080
        0x0001ffa0:    61462064    d Fa    DCD    1631985764
        0x0001ffa4:    20746c75    ult     DCD    544500853
        0x0001ffa8:    7563636f    occu    DCD    1969447791
        0x0001ffac:    3a646572    red:    DCD    979658098
        0x0001ffb0:    25783020     0x%    DCD    628633632
        0x0001ffb4:    20583830    08X     DCD    542652464
        0x0001ffb8:    206f6e28    (no     DCD    544173608
        0x0001ffbc:    63617453    Stac    DCD    1667331155
        0x0001ffc0:    2064656b    ked     DCD    543450475
        0x0001ffc4:    61746164    data    DCD    1635017060
        0x0001ffc8:    000a0a29    )...    DCD    657961
    .L.str.29
        0x0001ffcc:    6f440a0a    ..Do    DCD    1866729994
        0x0001ffd0:    7720656e    ne w    DCD    1998611822
        0x0001ffd4:    20687469    ith     DCD    543716457
        0x0001ffd8:    7074756f    outp    DCD    1886680431
        0x0001ffdc:    202e7475    ut.     DCD    539915381
        0x0001ffe0:    65746e45    Ente    DCD    1702129221
        0x0001ffe4:    676e6972    ring    DCD    1735289202
        0x0001ffe8:    666e6920     inf    DCD    1718511904
        0x0001ffec:    74696e69    init    DCD    1953066601
        0x0001fff0:    6f6c2065    e lo    DCD    1869357157
        0x0001fff4:    0a2e706f    op..    DCD    170815599
        0x0001fff8:    000a        ..      DCW    10
    .L.str
        0x0001fffa:    2a2a        **      DCW    10794
        0x0001fffc:    72614820     Har    DCD    1918978080
        0x00020000:    61462064    d Fa    DCD    1631985764
        0x00020004:    20746c75    ult     DCD    544500853
        0x00020008:    7563634f    Occu    DCD    1969447759
        0x0002000c:    64657272    rred    DCD    1684370034
        0x00020010:    000a0a3a    :...    DCD    657978
    .L.str.10
        0x00020014:    20202020            DCD    538976288
        0x00020018:    20525350    PSR     DCD    542266192
        0x0002001c:    7830203d    = 0x    DCD    2016419901
        0x00020020:    58383025    %08X    DCD    1480077349
        0x00020024:    0a0a        ..      DCW    2570
        0x00020026:    00          .       DCB    0
    .L.str.2
        0x00020027:    48          H       DCB    72
        0x00020028:    20647261    ard     DCD    543453793
        0x0002002c:    6c756146    Faul    DCD    1819631942
        0x00020030:    74732074    t st    DCD    1953702004
        0x00020034:    656b6361    acke    DCD    1701536609
        0x00020038:    61642064    d da    DCD    1633951844
        0x0002003c:    0a3a6174    ta:.    DCD    171598196
        0x00020040:    00          .       DCB    0
    .L.str.25
        0x00020041:    0a4d43      .MC     DCB    10,77,67
        0x00020044:    61462055    U Fa    DCD    1631985749
        0x00020048:    20746c75    ult     DCD    544500853
        0x0002004c:    61746164    data    DCD    1635017060
        0x00020050:    0a3a        :.      DCW    2618
        0x00020052:    00          .       DCB    0
    .L.str.11
        0x00020053:    4f          O       DCB    79
        0x00020054:    72656874    ther    DCD    1919248500
        0x00020058:    72614820     Har    DCD    1918978080
        0x0002005c:    61462064    d Fa    DCD    1631985764
        0x00020060:    20746c75    ult     DCD    544500853
        0x00020064:    61746164    data    DCD    1635017060
        0x00020068:    0a3a        :.      DCW    2618
        0x0002006a:    00          .       DCB    0
    .L.str.18
        0x0002006b:    20                  DCB    32
        0x0002006c:    20202020            DCD    538976288
        0x00020070:    42202020       B    DCD    1109401632
        0x00020074:    20525346    FSR     DCD    542266182
        0x00020078:    36746962    bit6    DCD    913598818
        0x0002007c:    4552203a    : RE    DCD    1163010106
        0x00020080:    56524553    SERV    DCD    1448232275
        0x00020084:    000a4445    ED..    DCD    672837
    .L.str.17
        0x00020088:    20202020            DCD    538976288
        0x0002008c:    20202020            DCD    538976288
        0x00020090:    52534642    BFSR    DCD    1381189186
        0x00020094:    74696220     bit    DCD    1953063456
        0x00020098:    42203a37    7: B    DCD    1109408311
        0x0002009c:    56524146    FARV    DCD    1448231238
        0x000200a0:    44494c41    ALID    DCD    1145654337
        0x000200a4:    000a        ..      DCW    10
    .L.str.23
        0x000200a6:    2020                DCW    8224
        0x000200a8:    20202020            DCD    538976288
        0x000200ac:    46422020      BF    DCD    1178738720
        0x000200b0:    62205253    SR b    DCD    1646285395
        0x000200b4:    3a317469    it1:    DCD    976319593
        0x000200b8:    45525020     PRE    DCD    1163022368
        0x000200bc:    45534943    CISE    DCD    1163086147
        0x000200c0:    0a525245    ERR.    DCD    173167173
        0x000200c4:    00          .       DCB    0
    .L.str.20
        0x000200c5:    202020              DCB    32,32,32
        0x000200c8:    20202020            DCD    538976288
        0x000200cc:    53464220     BFS    DCD    1397113376
        0x000200d0:    69622052    R bi    DCD    1768038482
        0x000200d4:    203a3474    t4:     DCD    540685428
        0x000200d8:    454b5453    STKE    DCD    1162564691
        0x000200dc:    000a5252    RR..    DCD    676434
    .L.str.21
        0x000200e0:    20202020            DCD    538976288
        0x000200e4:    20202020            DCD    538976288
        0x000200e8:    52534642    BFSR    DCD    1381189186
        0x000200ec:    74696220     bit    DCD    1953063456
        0x000200f0:    55203a33    3: U    DCD    1428175411
        0x000200f4:    4b54534e    NSTK    DCD    1263817550
        0x000200f8:    0a525245    ERR.    DCD    173167173
        0x000200fc:    00          .       DCB    0
    .L.str.19
        0x000200fd:    202020              DCB    32,32,32
        0x00020100:    20202020            DCD    538976288
        0x00020104:    53464220     BFS    DCD    1397113376
        0x00020108:    69622052    R bi    DCD    1768038482
        0x0002010c:    203a3574    t5:     DCD    540685684
        0x00020110:    4550534c    LSPE    DCD    1162892108
        0x00020114:    000a5252    RR..    DCD    676434
    .L.str.22
        0x00020118:    20202020            DCD    538976288
        0x0002011c:    20202020            DCD    538976288
        0x00020120:    52534642    BFSR    DCD    1381189186
        0x00020124:    74696220     bit    DCD    1953063456
        0x00020128:    49203a32    2: I    DCD    1226848818
        0x0002012c:    4552504d    MPRE    DCD    1163022413
        0x00020130:    45534943    CISE    DCD    1163086147
        0x00020134:    000a5252    RR..    DCD    676434
    .L.str.24
        0x00020138:    20202020            DCD    538976288
        0x0002013c:    20202020            DCD    538976288
        0x00020140:    52534642    BFSR    DCD    1381189186
        0x00020144:    74696220     bit    DCD    1953063456
        0x00020148:    49203a30    0: I    DCD    1226848816
        0x0002014c:    45535542    BUSE    DCD    1163089218
        0x00020150:    000a5252    RR..    DCD    676434
    .L.str.16
        0x00020154:    20202020            DCD    538976288
        0x00020158:    52534642    BFSR    DCD    1381189186
        0x0002015c:    75422820     (Bu    DCD    1967269920
        0x00020160:    61462073    s Fa    DCD    1631985779
        0x00020164:    20746c75    ult     DCD    544500853
        0x00020168:    74617453    Stat    DCD    1952543827
        0x0002016c:    52207375    us R    DCD    1377858421
        0x00020170:    20296765    eg)     DCD    539584357
        0x00020174:    7830203d    = 0x    DCD    2016419901
        0x00020178:    58323025    %02X    DCD    1479684133
        0x0002017c:    000a        ..      DCW    10
    .L.str.14
        0x0002017e:    2020                DCW    8224
        0x00020180:    4d4d2020      MM    DCD    1296900128
        0x00020184:    28205253    SR (    DCD    673206867
        0x00020188:    206d654d    Mem     DCD    544040269
        0x0002018c:    746d674d    Mgmt    DCD    1953326925
        0x00020190:    75614620     Fau    DCD    1969309216
        0x00020194:    5320746c    lt S    DCD    1394635884
        0x00020198:    75746174    tatu    DCD    1970561396
        0x0002019c:    65522073    s Re    DCD    1699881075
        0x000201a0:    3d202967    g) =    DCD    1025517927
        0x000201a4:    25783020     0x%    DCD    628633632
        0x000201a8:    0a583230    02X.    DCD    173552176
        0x000201ac:    00          .       DCB    0
    .L.str.15
        0x000201ad:    202020              DCB    32,32,32
        0x000201b0:    53465520     UFS    DCD    1397118240
        0x000201b4:    55282052    R (U    DCD    1428693074
        0x000201b8:    65676173    sage    DCD    1701273971
        0x000201bc:    75614620     Fau    DCD    1969309216
        0x000201c0:    5320746c    lt S    DCD    1394635884
        0x000201c4:    75746174    tatu    DCD    1970561396
        0x000201c8:    65522073    s Re    DCD    1699881075
        0x000201cc:    3d202967    g) =    DCD    1025517927
        0x000201d0:    25783020     0x%    DCD    628633632
        0x000201d4:    0a583430    04X.    DCD    173552688
        0x000201d8:    00          .       DCB    0
    .L.str.27
        0x000201d9:    202020              DCB    32,32,32
        0x000201dc:    4f434420     DCO    DCD    1329808416
        0x000201e0:    46204544    DE F    DCD    1176520004
        0x000201e4:    746c7561    ault    DCD    1953264993
        0x000201e8:    64644120     Add    DCD    1684291872
        0x000201ec:    73736572    ress    DCD    1936942450
        0x000201f0:    7830203a    : 0x    DCD    2016419898
        0x000201f4:    58383025    %08X    DCD    1480077349
        0x000201f8:    000a        ..      DCW    10
    .L.str.26
        0x000201fa:    2020                DCW    8224
        0x000201fc:    43492020      IC    DCD    1128865824
        0x00020200:    2045444f    ODE     DCD    541410383
        0x00020204:    6c756146    Faul    DCD    1819631942
        0x00020208:    64412074    t Ad    DCD    1681989748
        0x0002020c:    73657264    dres    DCD    1936028260
        0x00020210:    30203a73    s: 0    DCD    807418483
        0x00020214:    38302578    x%08    DCD    942679416
        0x00020218:    0a58        X.      DCW    2648
        0x0002021a:    00          .       DCB    0
    .L.str.28
        0x0002021b:    20                  DCB    32
        0x0002021c:    53202020       S    DCD    1394614304
        0x00020220:    46205359    YS F    DCD    1176523609
        0x00020224:    746c7561    ault    DCD    1953264993
        0x00020228:    64644120     Add    DCD    1684291872
        0x0002022c:    73736572    ress    DCD    1936942450
        0x00020230:    7830203a    : 0x    DCD    2016419898
        0x00020234:    58383025    %08X    DCD    1480077349
        0x00020238:    000a        ..      DCW    10
    .L.str.3
        0x0002023a:    2020                DCW    8224
        0x0002023c:    30522020      R0    DCD    810688544
        0x00020240:    203d2020      =     DCD    540876832
        0x00020244:    30257830    0x%0    DCD    807761968
        0x00020248:    000a5838    8X..    DCD    677944
    .L.str.4
        0x0002024c:    20202020            DCD    538976288
        0x00020250:    20203152    R1      DCD    538980690
        0x00020254:    7830203d    = 0x    DCD    2016419901
        0x00020258:    58383025    %08X    DCD    1480077349
        0x0002025c:    000a        ..      DCW    10
    .L.str.5
        0x0002025e:    2020                DCW    8224
        0x00020260:    32522020      R2    DCD    844242976
        0x00020264:    203d2020      =     DCD    540876832
        0x00020268:    30257830    0x%0    DCD    807761968
        0x0002026c:    000a5838    8X..    DCD    677944
    .L.str.6
        0x00020270:    20202020            DCD    538976288
        0x00020274:    20203352    R3      DCD    538981202
        0x00020278:    7830203d    = 0x    DCD    2016419901
        0x0002027c:    58383025    %08X    DCD    1480077349
        0x00020280:    000a        ..      DCW    10
    .L.str.9
        0x00020282:    2020                DCW    8224
        0x00020284:    43502020      PC    DCD    1129324576
        0x00020288:    203d2020      =     DCD    540876832
        0x0002028c:    30257830    0x%0    DCD    807761968
        0x00020290:    000a5838    8X..    DCD    677944
    .L.str.8
        0x00020294:    20202020            DCD    538976288
        0x00020298:    2020524c    LR      DCD    538989132
        0x0002029c:    7830203d    = 0x    DCD    2016419901
        0x000202a0:    58383025    %08X    DCD    1480077349
        0x000202a4:    000a        ..      DCW    10
    .L.str.13
        0x000202a6:    2020                DCW    8224
        0x000202a8:    46422020      BF    DCD    1178738720
        0x000202ac:    28205241    AR (    DCD    673206849
        0x000202b0:    20737542    Bus     DCD    544437570
        0x000202b4:    6c756146    Faul    DCD    1819631942
        0x000202b8:    64412074    t Ad    DCD    1681989748
        0x000202bc:    52207264    dr R    DCD    1377858148
        0x000202c0:    20296765    eg)     DCD    539584357
        0x000202c4:    7830203d    = 0x    DCD    2016419901
        0x000202c8:    58383025    %08X    DCD    1480077349
        0x000202cc:    000a        ..      DCW    10
    .L.str.7
        0x000202ce:    2020                DCW    8224
        0x000202d0:    31522020      R1    DCD    827465760
        0x000202d4:    203d2032    2 =     DCD    540876850
        0x000202d8:    30257830    0x%0    DCD    807761968
        0x000202dc:    000a5838    8X..    DCD    677944
    .L.str.12
        0x000202e0:    20202020            DCD    538976288
        0x000202e4:    6c756146    Faul    DCD    1819631942
        0x000202e8:    64612074    t ad    DCD    1684086900
        0x000202ec:    73657264    dres    DCD    1936028260
        0x000202f0:    203d2073    s =     DCD    540876915
        0x000202f4:    30257830    0x%0    DCD    807761968
        0x000202f8:    000a5838    8X..    DCD    677944
    .L.str
        0x000202fc:    0a0a0a0a    ....    DCD    168430090
        0x00020300:    0a0a0a0a    ....    DCD    168430090
        0x00020304:    0a0a0a0a    ....    DCD    168430090
        0x00020308:    0a0a0a0a    ....    DCD    168430090
        0x0002030c:    00000a0a    ....    DCD    2570
    g_ui32DSpintbl
        0x00020310:    8fc007e0    ....    DCD    2411726816
        0x00020314:    e3fbffff    ....    DCD    3824943103
        0x00020318:    01ffffff    ....    DCD    33554431
        0x0002031c:    00000000    ....    DCD    0
    __tagsym$$used.1
    ui32DSP0Allowed
        0x00020320:    00000000    ....    DCD    0
        0x00020324:    00000000    ....    DCD    0
        0x00020328:    00000000    ....    DCD    0
        0x0002032c:    00000000    ....    DCD    0
        0x00020330:    00000000    ....    DCD    0
    __tagsym$$used.2
    ui32DSP1Allowed
        0x00020334:    00000000    ....    DCD    0
        0x00020338:    00000000    ....    DCD    0
        0x0002033c:    00000000    ....    DCD    0
        0x00020340:    00000000    ....    DCD    0
        0x00020344:    00000000    ....    DCD    0
    __tagsym$$used.0
    ui32MCUAllowed
        0x00020348:    00000000    ....    DCD    0
        0x0002034c:    00000000    ....    DCD    0
        0x00020350:    00000000    ....    DCD    0
        0x00020354:    00000000    ....    DCD    0
        0x00020358:    00000000    ....    DCD    0
    ui32MspiXipBaseAddress
        0x0002035c:    14000000    ....    DCD    335544320
        0x00020360:    18000000    ....    DCD    402653184
        0x00020364:    1c000000    ....    DCD    469762048
    __tagsym$$used.3
    ui32SharedAccess
        0x00020368:    00000000    ....    DCD    0
        0x0002036c:    00000000    ....    DCD    0
        0x00020370:    00000000    ....    DCD    0
        0x00020374:    00000000    ....    DCD    0
        0x00020378:    00000000    ....    DCD    0
    Region$$Table$$Base
        0x0002037c:    000203b0    ....    DCD    132016
        0x00020380:    10000000    ....    DCD    268435456
        0x00020384:    00000170    p...    DCD    368
        0x00020388:    00018270    p...    DCD    98928
        0x0002038c:    00020430    0...    DCD    132144
        0x00020390:    10060000    ....    DCD    268828672
        0x00020394:    00000040    @...    DCD    64
        0x00020398:    000182cc    ....    DCD    99020
        0x0002039c:    00020430    0...    DCD    132144
        0x000203a0:    10000170    p...    DCD    268435824
        0x000203a4:    00005c20     \..    DCD    23584
        0x000203a8:    000182e8    ....    DCD    99048
    Region$$Table$$Limit

** Section #2 'MCU_TCM' (SHT_PROGBITS) [SHF_ALLOC + SHF_WRITE]
    Size   : 128 bytes (alignment 16)
    Address: 0x10000000

    Data section was compressed (Original size: 368 bytes)

    0x10000000:   08 1e 0c 40 18 1e 0c 40 6d db 02 40 d1 02 00 00    ...@...@m..@....
    0x10000010:   92 24 01 80 20 01 00 00 ff ff ff ff ff ff ff ff    .$.. ...........
    0x10000020:   04 03 01 00 20 20 a0 a0 08 04 00 01 01 01 01 01    ....  ..........
    0x10000030:   01 00 46 00 06 00 04 03 01 00 20 20 a0 a0 09 04    ..F.......  ....
    0x10000040:   00 01 01 01 01 01 01 00 46 00 06 00 08 01 00 00    ........F.......
    0x10000050:   10 02 00 10 00 0a 00 00 00 00 00 00 00 00 00 00    ................
    0x10000060:   01 00 00 04 1c 00 00 00 00 00 01 00 00 04 1c 00    ................
    0x10000070:   00 00 00 00 01 00 00 04 1c 00 00 00 00 00 00 00    ................
    0x10000080:   00 00 00 00 00 00 00 00 00 00 00 14 00 0a 00 00    ................
    0x10000090:   00 00 00 00 00 00 00 00 00 00 00 18 00 0a 00 00    ................
    0x100000a0:   00 00 00 00 00 00 00 00 00 00 00 1c 00 0a 00 00    ................
    0x100000b0:   00 01 02 0f 01 00 00 00 03 01 00 00 03 01 00 00    ................
    0x100000c0:   07 05 24 00 07 05 25 00 00 0c 00 00 00 0c 00 00    ..$...%.........
    0x100000d0:   00 0c 00 00 00 0c 00 00 00 0c 00 00 00 0c 00 00    ................
    0x100000e0:   00 0c 00 00 00 0c 00 00 00 0c 00 00 00 0c 00 00    ................
    0x100000f0:   07 05 22 00 00 0c 00 00 00 0c 00 00 00 0c 00 00    ..".............
    0x10000100:   00 0c 00 00 00 0c 00 00 00 0c 00 00 00 0c 00 00    ................
    0x10000110:   00 0c 00 00 00 0c 00 00 00 0c 00 00 07 05 20 00    .............. .
    0x10000120:   00 0c 00 00 00 0c 00 00 00 0c 00 00 00 0c 00 00    ................
    0x10000130:   00 0c 00 00 00 0c 00 00 00 0c 00 00 00 0c 00 00    ................
    0x10000140:   00 0c 00 00 00 0c 00 00 00 0c 00 00 00 0c 00 00    ................
    0x10000150:   00 0c 00 00 00 0c 00 00 00 0c 00 00 00 0c 00 00    ................
    0x10000160:   00 0c 00 00 80 0c 00 00 00 0c 00 00 00 00 00 00    ................


** Section #3 'MCU_TCM' (SHT_NOBITS) [SHF_ALLOC + SHF_WRITE]
    Size   : 23584 bytes (alignment 16)
    Address: 0x10000170


** Section #4 'SHARED_SRAM' (SHT_PROGBITS) [SHF_ALLOC + SHF_WRITE]
    Size   : 64 bytes (alignment 4)
    Address: 0x10060000

    0x10060000:   44 fc 01 00 00 00 00 00 00 00 00 00 00 00 00 00    D...............
    0x10060010:   00 00 00 00 00 00 00 00 00 00 00 00 00 00 00 00    ................
    0x10060020:   00 00 00 00 00 00 00 00 00 00 00 00 00 00 00 00    ................
    0x10060030:   00 00 00 00 00 00 00 00 00 00 00 00 00 00 00 00    ................


** Section #5 '.debug_abbrev' (SHT_PROGBITS)
    Size   : 1725 bytes


** Section #6 '.debug_frame' (SHT_PROGBITS)
    Size   : 6652 bytes


** Section #7 '.debug_info' (SHT_PROGBITS)
    Size   : 14345 bytes


** Section #8 '.debug_line' (SHT_PROGBITS)
    Size   : 11899 bytes


** Section #9 '.debug_ranges' (SHT_PROGBITS)
    Size   : 520 bytes


** Section #10 '.debug_str' (SHT_PROGBITS)
    Size   : 14219 bytes


** Section #11 '.symtab' (SHT_SYMTAB)
    Size   : 10736 bytes (alignment 4)
    String table #12 '.strtab'
    Last local symbol no. 336

    Symbol table .symtab (670 symbols, 336 local)

      #  Symbol Name                Value      Bind  Sec  Type  Vis  Size
    ========================================================================

      1  $d                         0x00018000   Lc    1   --   De 
      2  $t                         0x00018200   Lc    1   --   De 
      3  $d                         0x00018230   Lc    1   --   De 
      4  $t                         0x00018234   Lc    1   --   De 
      5  $d                         0x00018268   Lc    1   --   De 
      6  $t                         0x00018270   Lc    1   --   De 
      7  $d                         0x0001833a   Lc    1   --   De 
      8  $t                         0x00018348   Lc    1   --   De 
      9  $d                         0x000184ec   Lc    1   --   De 
     10  $t                         0x000184f0   Lc    1   --   De 
     11  $d                         0x000184f8   Lc    1   --   De 
     12  $t                         0x000184fc   Lc    1   --   De 
     13  $t.0                       0x00018500   Lc    1   --   De 
     14  $d.4                       0x00018520   Lc    1   --   De 
     15  $t.3                       0x00018524   Lc    1   --   De 
     16  $d.35                      0x00018682   Lc    1   --   De 
     17  $t.36                      0x00018698   Lc    1   --   De 
     18  $d.37                      0x0001870c   Lc    1   --   De 
     19  $t.38                      0x00018734   Lc    1   --   De 
     20  $d.39                      0x000187b0   Lc    1   --   De 
     21  $t.40                      0x000187cc   Lc    1   --   De 
     22  $d.9                       0x0001a1c4   Lc    1   --   De 
     23  $t.10                      0x0001a1c8   Lc    1   --   De 
     24  $d.5                       0x0001a592   Lc    1   --   De 
     25  $t.6                       0x0001a598   Lc    1   --   De 
     26  $d.12                      0x0001ab24   Lc    1   --   De 
     27  $t.13                      0x0001ab6c   Lc    1   --   De 
     28  $d.22                      0x0001c4c6   Lc    1   --   De 
     29  $t.23                      0x0001c4cc   Lc    1   --   De 
     30  $d.3                       0x0001c910   Lc    1   --   De 
     31  $t.4                       0x0001c918   Lc    1   --   De 
     32  $d.7                       0x0001ccb6   Lc    1   --   De 
     33  $t.8                       0x0001ccbc   Lc    1   --   De 
     34  $d.4                       0x0001d2b2   Lc    1   --   De 
     35  $t.5                       0x0001d318   Lc    1   --   De 
     36  $d.6                       0x0001ea02   Lc    1   --   De 
     37  $t.7                       0x0001ea38   Lc    1   --   De 
     38  $d.15                      0x0001eec4   Lc    1   --   De 
     39  $t.16                      0x0001eee0   Lc    1   --   De 
     40  $d.28                      0x0001f0e4   Lc    1   --   De 
     41  $t.29                      0x0001f0ea   Lc    1   --   De 
     42  $t                         0x0001f708   Lc    1   --   De 
     43  $d                         0x0001f758   Lc    1   --   De 
     44  $t                         0x0001f75c   Lc    1   --   De 
     45  $d                         0x0001f7da   Lc    1   --   De 
     46  $t                         0x0001f7de   Lc    1   --   De 
     47  $d.realdata                0x0001f82a   Lc    1   --   De 
     48  $d.realdata                0x10000000   Lc    2   --   De 
     49  $d.realdata                0x10060000   Lc    4   --   De 
     50  am_resources.c             0x00000000   Lc  Abs  File  De 
     51  __tagsym$$used.0           0x00020348   Lc    1   --   De 
     52  __tagsym$$used.1           0x00020320   Lc    1   --   De 
     53  __tagsym$$used.2           0x00020334   Lc    1   --   De 
     54  __tagsym$$used.3           0x00020368   Lc    1   --   De 
     55  __tagsym$$used.4           0x10060004   Lc    4   --   De 
     56  __tagsym$$used.5           0x10060018   Lc    4   --   De 
     57  __tagsym$$used.6           0x1006002c   Lc    4   --   De 
     58  __tagsym$$used.7           0x0001fc44   Lc    1   --   De 
     59  __tagsym$$used.8           0x10060000   Lc    4   --   De 
     60  mspi_ddr_psram_loader.c    0x00000000   Lc  Abs  File  De 
     61  __NVIC_SetPriority         0x00018555   Lc    1  Code  De   0x42
     62  __NVIC_EnableIRQ           0x00018525   Lc    1  Code  De   0x30
     63  run_new_image              0x0001f461   Lc    1  Code  De   0x12
     64  .L.str.1                   0x0001fc60   Lc    1  Data  De   0x28
     65  .L.str.10                  0x0001fc88   Lc    1  Data  De   0x29
     66  .L.str.15                  0x0001fcb1   Lc    1  Data  De   0x2b
     67  .L.str.13                  0x0001fcdc   Lc    1  Data  De   0x29
     68  .L.str.16                  0x0001fd05   Lc    1  Data  De   0x28
     69  .L.str.14                  0x0001fd2d   Lc    1  Data  De   0x29
     70  .L.str.19                  0x0001fd56   Lc    1  Data  De   0x27
     71  .L.str.12                  0x0001fd7d   Lc    1  Data  De   0x23
     72  .L.str.17                  0x0001fda0   Lc    1  Data  De   0x51
     73  .L.str.9                   0x0001fdf1   Lc    1  Data  De   0x3a
     74  .L.str.20                  0x0001fe2b   Lc    1  Data  De   0x2a
     75  .L.str.21                  0x0001fe55   Lc    1  Data  De   0x17
     76  .L.str.2                   0x0001fe6c   Lc    1  Data  De   0x21
     77  .L.str.18                  0x0001fe8d   Lc    1  Data  De   0x33
     78  .L.str.11                  0x0001fec0   Lc    1  Data  De   0x27
     79  .L.str.6                   0x0001fee7   Lc    1  Data  De   0x12
     80  .L.str.4                   0x0001fef9   Lc    1  Data  De   0x2e
     81  .L.str.5                   0x0001ff27   Lc    1  Data  De   0x11
     82  .L.str.3                   0x0001ff38   Lc    1  Data  De   0x26
     83  .L.str                     0x0001ff5e   Lc    1  Data  De   0x1a
     84  .L.str.7                   0x0001ff78   Lc    1  Data  De   0x8
     85  .L.str.8                   0x0001ff80   Lc    1  Data  De   0x9
     86  mspi_interrupts            0x0001fc40   Lc    1  Data  De   0x3
     87  am_devices_mspi_psram_aps12808l.c
                                    0x00000000   Lc  Abs  File  De 
     88  am_devices_mspi_psram_aps12808l_reset
                                    0x00019b29   Lc    1  Code  De   0x36
     89  am_devices_mspi_psram_aps12808l_id
                                    0x0001988d   Lc    1  Code  De   0x29a
     90  psram_nonblocking_transfer 0x0001f2e5   Lc    1  Code  De   0x17a
     91  psram_check_by_xip         0x0001f1e9   Lc    1  Code  De   0xfc
     92  count_consecutive_ones     0x0001d955   Lc    1  Code  De   0x2c
     93  find_mid_point             0x0001dc09   Lc    1  Code  De   0x102
     94  am_device_command_write    0x00018f09   Lc    1  Code  De   0x6c
     95  am_device_command_read     0x00018e9d   Lc    1  Code  De   0x6c
     96  prepare_test_pattern       0x0001f0b5   Lc    1  Code  De   0x134
     97  ui32MspiXipBaseAddress     0x0002035c   Lc    1  Data  De   0xc
     98  am_util_delay.c            0x00000000   Lc  Abs  File  De 
     99  am_util_faultisr.c         0x00000000   Lc  Abs  File  De 
    100  .L.str.1                   0x0001ff89   Lc    1  Data  De   0x43
    101  .L.str.29                  0x0001ffcc   Lc    1  Data  De   0x2e
    102  .L.str                     0x0001fffa   Lc    1  Data  De   0x1a
    103  .L.str.10                  0x00020014   Lc    1  Data  De   0x13
    104  .L.str.2                   0x00020027   Lc    1  Data  De   0x1a
    105  .L.str.25                  0x00020041   Lc    1  Data  De   0x12
    106  .L.str.11                  0x00020053   Lc    1  Data  De   0x18
    107  .L.str.18                  0x0002006b   Lc    1  Data  De   0x1d
    108  .L.str.17                  0x00020088   Lc    1  Data  De   0x1e
    109  .L.str.23                  0x000200a6   Lc    1  Data  De   0x1f
    110  .L.str.20                  0x000200c5   Lc    1  Data  De   0x1b
    111  .L.str.21                  0x000200e0   Lc    1  Data  De   0x1d
    112  .L.str.19                  0x000200fd   Lc    1  Data  De   0x1b
    113  .L.str.22                  0x00020118   Lc    1  Data  De   0x20
    114  .L.str.24                  0x00020138   Lc    1  Data  De   0x1c
    115  .L.str.16                  0x00020154   Lc    1  Data  De   0x2a
    116  .L.str.14                  0x0002017e   Lc    1  Data  De   0x2f
    117  .L.str.15                  0x000201ad   Lc    1  Data  De   0x2c
    118  .L.str.27                  0x000201d9   Lc    1  Data  De   0x21
    119  .L.str.26                  0x000201fa   Lc    1  Data  De   0x21
    120  .L.str.28                  0x0002021b   Lc    1  Data  De   0x1f
    121  .L.str.3                   0x0002023a   Lc    1  Data  De   0x12
    122  .L.str.4                   0x0002024c   Lc    1  Data  De   0x12
    123  .L.str.5                   0x0002025e   Lc    1  Data  De   0x12
    124  .L.str.6                   0x00020270   Lc    1  Data  De   0x12
    125  .L.str.9                   0x00020282   Lc    1  Data  De   0x12
    126  .L.str.8                   0x00020294   Lc    1  Data  De   0x12
    127  .L.str.13                  0x000202a6   Lc    1  Data  De   0x28
    128  .L.str.7                   0x000202ce   Lc    1  Data  De   0x12
    129  .L.str.12                  0x000202e0   Lc    1  Data  De   0x1c
    130  am_util_stdio.c            0x00000000   Lc  Abs  File  De 
    131  decstr_to_int              0x0001da49   Lc    1  Code  De   0xa6
    132  simple_strlen              0x0001f589   Lc    1  Code  De   0x36
    133  padbuffer                  0x0001f055   Lc    1  Code  De   0x50
    134  ndigits_in_hex             0x0001efa9   Lc    1  Code  De   0x3e
    135  uint64_to_hexstr           0x0001f5c1   Lc    1  Code  De   0xc0
    136  ndigits_in_u64             0x0001f019   Lc    1  Code  De   0x3c
    137  uint64_to_str              0x0001f681   Lc    1  Code  De   0x88
    138  ndigits_in_i64             0x0001efe9   Lc    1  Code  De   0x30
    139  ftoa                       0x0001dd0d   Lc    1  Code  De   0x230
    140  divu64_10                  0x0001daf1   Lc    1  Code  De   0x118
    141  g_bTxtXlate                0x10004980   Lc    3  Data  De   0x1
    142  g_prfbuf                   0x10004988   Lc    3  Data  De   0x400
    143  .L.str                     0x000202fc   Lc    1  Data  De   0x13
    144  ../keil6/startup_keil6.s   0x00000000   Lc  Abs  File  De 
    145  STACK                      0x10004d90   Lc    3  Sect  De   0x1000
    146  StackMem                   0x10004d90   Lc    3  Data  De 
    147  HEAP                       0x10004d90   Lc    3  Sect  De 
    148  HeapMem                    0x10004d90   Lc    3  Data  De 
    149  RESET                      0x00018000   Lc    1  Sect  De   0x234
    150  $v0                        0x00018200   Lc    1   --   De 
    151  am_cryptosec_isr           0x0001822f   Lc    1  Code  De 
    152  am_default_isr             0x0001822f   Lc    1  Code  De   0x2
    153  .text                      0x00018330   Lc    1  Sect  De   0x18
    154  $v0                        0x00018330   Lc    1   --   De 
    155  am_hal_cachectrl.c         0x00000000   Lc  Abs  File  De 
    156  am_hal_fault.c             0x00000000   Lc  Abs  File  De 
    157  am_hal_interrupt.c         0x00000000   Lc  Abs  File  De 
    158  am_hal_mspi.c              0x00000000   Lc  Abs  File  De 
    159  mspi_device_configure      0x0001e9f5   Lc    1  Code  De   0x392
    160  mspi_piomixed_configure    0x0001eeb9   Lc    1  Code  De   0xca
    161  mspi_cq_pause              0x0001e975   Lc    1  Code  De   0x7e
    162  mspi_seq_loopback          0x0001ef85   Lc    1  Code  De   0x24
    163  sched_hiprio               0x0001f475   Lc    1  Code  De   0x112
    164  mspi_dummy_callback        0x0001ed89   Lc    1  Code  De   0x2
    165  mspi_fifo_read             0x0001ed8d   Lc    1  Code  De   0xc2
    166  mspi_fifo_write            0x0001ee51   Lc    1  Code  De   0x66
    167  mspi_add_hp_transaction    0x0001e915   Lc    1  Code  De   0x5e
    168  g_MSPIState                0x10002e30   Lc    3  Data  De   0x1a4c
    169  am_hal_utils.c             0x00000000   Lc  Abs  File  De 
    170  am_bsp.c                   0x00000000   Lc  Abs  File  De 
    171  .L_MergedGlobals           0x100001d0   Lc    3  Data  De   0x8
    172  g_ePrintInterface          0x100001d0   Lc    3  Data  De   0x1
    173  g_sCOMUART                 0x100001d4   Lc    3  Data  De   0x4
    174  am_hal_dcu.c               0x00000000   Lc  Abs  File  De 
    175  get_ui32_dcu_mask          0x0001e361   Lc    1  Code  De   0x124
    176  get_raw_dcu_mask           0x0001df3d   Lc    1  Code  De   0x424
    177  .L_MergedGlobals           0x10000000   Lc    2  Data  De   0x18
    178  am_hal_gpio.c              0x00000000   Lc  Abs  File  De 
    179  g_ui32DSpintbl             0x00020310   Lc    1  Data  De   0x10
    180  am_hal_pwrctrl.c           0x00000000   Lc  Abs  File  De 
    181  .L_MergedGlobals           0x10000018   Lc    2  Data  De   0x8
    182  .L_MergedGlobals.1         0x100001d8   Lc    3  Data  De   0x30
    183  g_bBoostForCryptoApplied   0x100001d8   Lc    3  Data  De   0x1
    184  g_bOrigTrimsStored         0x100001d9   Lc    3  Data  De   0x1
    185  g_bTempcoValid             0x100001da   Lc    3  Data  De   0x1
    186  g_i32LatestVddfActTrim     0x100001dc   Lc    3  Data  De   0x4
    187  g_i32LatestLDOActTrim      0x100001e0   Lc    3  Data  De   0x4
    188  g_ui32VDDFAdjustCodes      0x100001e4   Lc    3  Data  De   0x4
    189  g_orig_ACTTRIMVDDF         0x100001e8   Lc    3  Data  De   0x4
    190  g_orig_MEMLDOACTIVETRIM    0x100001ec   Lc    3  Data  De   0x4
    191  g_orig_LPTRIMVDDF          0x100001f0   Lc    3  Data  De   0x4
    192  g_orig_MEMLPLDOTRIM        0x100001f4   Lc    3  Data  De   0x4
    193  g_orig_TVRGVREFTRIM        0x100001f8   Lc    3  Data  De   0x4
    194  g_orig_CORELDOACTIVETRIM   0x100001fc   Lc    3  Data  De   0x4
    195  g_pfTempMeasured           0x10000200   Lc    3  Data  De   0x4
    196  g_TempcoADCHandle          0x10000204   Lc    3  Data  De   0x4
    197  am_hal_bootrom_helper.c    0x00000000   Lc  Abs  File  De 
    198  am_hal_cmdq.c              0x00000000   Lc  Abs  File  De 
    199  gAmHalCmdq                 0x10002a20   Lc    3  Data  De   0x1e4
    200  gAmHalCmdQReg              0x0001fa54   Lc    1  Data  De   0x1b8
    201  am_hal_itm.c               0x00000000   Lc  Abs  File  De 
    202  am_hal_rtc.c               0x00000000   Lc  Abs  File  De 
    203  am_hal_tpiu.c              0x00000000   Lc  Abs  File  De 
    204  am_hal_uart.c              0x00000000   Lc  Abs  File  De 
    205  am_bsp_pins.c              0x00000000   Lc  Abs  File  De 
    206  am_hal_adc.c               0x00000000   Lc  Abs  File  De 
    207  am_hal_pin.c               0x00000000   Lc  Abs  File  De 
    208  am_hal_queue.c             0x00000000   Lc  Abs  File  De 
    209  am_hal_mram.c              0x00000000   Lc  Abs  File  De 
    210  dc.s                       0x00000000   Lc  Abs  File  De 
    211  ../clib/memcpset.s         0x00000000   Lc  Abs  File  De 
    212  .text                      0x00018348   Lc    1  Sect  De   0x8a
    213  ../clib/memcpset.s         0x00000000   Lc  Abs  File  De 
    214  .text                      0x000183d2   Lc    1  Sect  De   0x4e
    215  ../clib/heapaux.c          0x00000000   Lc  Abs  File  De 
    216  .text                      0x00018420   Lc    1  Sect  De 
    217  ../clib/angel/startup.s    0x00000000   Lc  Abs  File  De 
    218  !!!main                    0x00018234   Lc    1  Sect  De   0x8
    219  ../clib/angel/handlers.s   0x00000000   Lc  Abs  File  De 
    220  !!handler_copy             0x000182cc   Lc    1  Sect  De   0x1a
    221  ../fplib/d2f.s             0x00000000   Lc  Abs  File  De 
    222  x$fpl$d2f                  0x0001f708   Lc    1  Sect  De   0x62
    223  $v0                        0x0001f708   Lc    1   --   De 
    224  ../clib/angel/kernel.s     0x00000000   Lc  Abs  File  De 
    225  .ARM.Collect$$rtentry$$00000000
                                    0x00018310   Lc    1  Sect  De 
    226  ../clib/memcpset.s         0x00000000   Lc  Abs  File  De 
    227  .text                      0x00018426   Lc    1  Sect  De   0x64
    228  ../fplib/dnaninf.s         0x00000000   Lc  Abs  File  De 
    229  x$fpl$dnaninf              0x0001f76a   Lc    1  Sect  De   0x9c
    230  $v0                        0x0001f76a   Lc    1   --   De 
    231  ../fplib/fretinf.s         0x00000000   Lc  Abs  File  De 
    232  x$fpl$fretinf              0x0001f820   Lc    1  Sect  De   0xa
    233  $v0                        0x0001f820   Lc    1   --   De 
    234  ../fplib/usenofp.s         0x00000000   Lc  Abs  File  De 
    235  x$fpl$usenofp              0x0001f82a   Lc    1  Sect  De 
    236  ../clib/angel/kernel.s     0x00000000   Lc  Abs  File  De 
    237  .ARM.Collect$$rtentry$$00000002
                                    0x00018310   Lc    1  Sect  De 
    238  .ARM.Collect$$rtentry$$00000009
                                    0x00018316   Lc    1  Sect  De 
    239  .ARM.Collect$$rtentry$$0000000A
                                    0x00018316   Lc    1  Sect  De   0x4
    240  .ARM.Collect$$rtentry$$0000000C
                                    0x0001831a   Lc    1  Sect  De 
    241  .ARM.Collect$$rtentry$$0000000D
                                    0x0001831a   Lc    1  Sect  De   0x8
    242  ../clib/angel/kernel.s     0x00000000   Lc  Abs  File  De 
    243  .ARM.Collect$$rtentry$$00000004
                                    0x00018310   Lc    1  Sect  De   0x6
    244  ../clib/angel/sys.s        0x00000000   Lc  Abs  File  De 
    245  .text                      0x0001848a   Lc    1  Sect  De   0x4a
    246  ../clib/stdlib.c           0x00000000   Lc  Abs  File  De 
    247  .text                      0x000184d4   Lc    1  Sect  De 
    248  ../clib/angel/boardlib.s   0x00000000   Lc  Abs  File  De 
    249  ../clib/angel/boardlib.s   0x00000000   Lc  Abs  File  De 
    250  ../clib/angel/boardlib.s   0x00000000   Lc  Abs  File  De 
    251  ../clib/libinit.s          0x00000000   Lc  Abs  File  De 
    252  .ARM.Collect$$libinit$$00000000
                                    0x00018304   Lc    1  Sect  De   0x2
    253  ../clib/angel/sys.s        0x00000000   Lc  Abs  File  De 
    254  .text                      0x000184e8   Lc    1  Sect  De   0x8
    255  .bss                       0x10000170   Lc    3  Sect  De   0x60
    256  ../clib/angel/kernel.s     0x00000000   Lc  Abs  File  De 
    257  .ARM.Collect$$rtexit$$00000000
                                    0x00018322   Lc    1  Sect  De   0x2
    258  ../clib/libinit.s          0x00000000   Lc  Abs  File  De 
    259  .ARM.Collect$$libinit$$00000001
                                    0x00018306   Lc    1  Sect  De   0x4
    260  .ARM.Collect$$libinit$$00000004
                                    0x0001830a   Lc    1  Sect  De 
    261  .ARM.Collect$$libinit$$00000006
                                    0x0001830a   Lc    1  Sect  De 
    262  .ARM.Collect$$libinit$$0000000C
                                    0x0001830a   Lc    1  Sect  De 
    263  .ARM.Collect$$libinit$$0000000E
                                    0x0001830a   Lc    1  Sect  De 
    264  .ARM.Collect$$libinit$$00000010
                                    0x0001830a   Lc    1  Sect  De 
    265  .ARM.Collect$$libinit$$00000013
                                    0x0001830a   Lc    1  Sect  De 
    266  .ARM.Collect$$libinit$$00000015
                                    0x0001830a   Lc    1  Sect  De 
    267  .ARM.Collect$$libinit$$00000017
                                    0x0001830a   Lc    1  Sect  De 
    268  .ARM.Collect$$libinit$$00000019
                                    0x0001830a   Lc    1  Sect  De 
    269  .ARM.Collect$$libinit$$0000001B
                                    0x0001830a   Lc    1  Sect  De 
    270  .ARM.Collect$$libinit$$0000001D
                                    0x0001830a   Lc    1  Sect  De 
    271  .ARM.Collect$$libinit$$0000001F
                                    0x0001830a   Lc    1  Sect  De 
    272  .ARM.Collect$$libinit$$00000021
                                    0x0001830a   Lc    1  Sect  De 
    273  .ARM.Collect$$libinit$$00000023
                                    0x0001830a   Lc    1  Sect  De 
    274  .ARM.Collect$$libinit$$00000025
                                    0x0001830a   Lc    1  Sect  De 
    275  .ARM.Collect$$libinit$$00000027
                                    0x0001830a   Lc    1  Sect  De 
    276  .ARM.Collect$$libinit$$0000002E
                                    0x0001830a   Lc    1  Sect  De 
    277  .ARM.Collect$$libinit$$00000030
                                    0x0001830a   Lc    1  Sect  De 
    278  .ARM.Collect$$libinit$$00000032
                                    0x0001830a   Lc    1  Sect  De 
    279  .ARM.Collect$$libinit$$00000034
                                    0x0001830a   Lc    1  Sect  De 
    280  .ARM.Collect$$libinit$$00000035
                                    0x0001830a   Lc    1  Sect  De   0x2
    281  ../clib/angel/kernel.s     0x00000000   Lc  Abs  File  De 
    282  .ARM.Collect$$rtexit$$00000002
                                    0x00018324   Lc    1  Sect  De 
    283  .ARM.Collect$$rtexit$$00000003
                                    0x00018324   Lc    1  Sect  De   0x4
    284  .ARM.Collect$$rtexit$$00000004
                                    0x00018328   Lc    1  Sect  De   0x6
    285  ../clib/armsys.c           0x00000000   Lc  Abs  File  De 
    286  ../clib/armsys.c           0x00000000   Lc  Abs  File  De 
    287  ../fplib/fpinit.s          0x00000000   Lc  Abs  File  De 
    288  x$fpl$fpinit               0x0001f806   Lc    1  Sect  De   0x1a
    289  $v0                        0x0001f806   Lc    1   --   De 
    290  ../clib/angel/sysapp.c     0x00000000   Lc  Abs  File  De 
    291  .text                      0x000184f0   Lc    1  Sect  De 
    292  ../clib/angel/sysapp.c     0x00000000   Lc  Abs  File  De 
    293  ../clib/angel/boardlib.s   0x00000000   Lc  Abs  File  De 
    294  ../clib/armsys.c           0x00000000   Lc  Abs  File  De 
    295  ../clib/armsys.c           0x00000000   Lc  Abs  File  De 
    296  ../clib/libinit.s          0x00000000   Lc  Abs  File  De 
    297  .ARM.Collect$$libshutdown$$00000000
                                    0x0001830c   Lc    1  Sect  De   0x2
    298  ../clib/angel/sysapp.c     0x00000000   Lc  Abs  File  De 
    299  ../clib/angel/sysapp.c     0x00000000   Lc  Abs  File  De 
    300  ../clib/angel/sys.s        0x00000000   Lc  Abs  File  De 
    301  .text                      0x000184fc   Lc    1  Sect  De   0x2
    302  ../clib/angel/sys.s        0x00000000   Lc  Abs  File  De 
    303  .text                      0x000184fe   Lc    1  Sect  De 
    304  ../clib/heapalloc.c        0x00000000   Lc  Abs  File  De 
    305  ../clib/signal.c           0x00000000   Lc  Abs  File  De 
    306  ../clib/signal.c           0x00000000   Lc  Abs  File  De 
    307  ../clib/libinit.s          0x00000000   Lc  Abs  File  De 
    308  .ARM.Collect$$libshutdown$$00000002
                                    0x0001830e   Lc    1  Sect  De 
    309  .ARM.Collect$$libshutdown$$00000004
                                    0x0001830e   Lc    1  Sect  De 
    310  .ARM.Collect$$libshutdown$$00000007
                                    0x0001830e   Lc    1  Sect  De 
    311  .ARM.Collect$$libshutdown$$0000000A
                                    0x0001830e   Lc    1  Sect  De 
    312  .ARM.Collect$$libshutdown$$0000000C
                                    0x0001830e   Lc    1  Sect  De 
    313  .ARM.Collect$$libshutdown$$0000000F
                                    0x0001830e   Lc    1  Sect  De 
    314  .ARM.Collect$$libshutdown$$00000010
                                    0x0001830e   Lc    1  Sect  De   0x2
    315  ../clib/angel/rt.s         0x00000000   Lc  Abs  File  De 
    316  ../clib/signal.c           0x00000000   Lc  Abs  File  De 
    317  ../clib/signal.c           0x00000000   Lc  Abs  File  De 
    318  ../clib/signal.c           0x00000000   Lc  Abs  File  De 
    319  ../clib/signal.c           0x00000000   Lc  Abs  File  De 
    320  ../clib/angel/sysapp.c     0x00000000   Lc  Abs  File  De 
    321  ../clib/angel/sysapp.c     0x00000000   Lc  Abs  File  De 
    322  ../clib/signal.s           0x00000000   Lc  Abs  File  De 
    323  ../clib/signal.c           0x00000000   Lc  Abs  File  De 
    324  ../clib/signal.c           0x00000000   Lc  Abs  File  De 
    325  ../clib/signal.c           0x00000000   Lc  Abs  File  De 
    326  ../clib/signal.c           0x00000000   Lc  Abs  File  De 
    327  ../clib/signal.c           0x00000000   Lc  Abs  File  De 
    328  ../clib/signal.c           0x00000000   Lc  Abs  File  De 
    329  ../clib/signal.c           0x00000000   Lc  Abs  File  De 
    330  ../clib/signal.c           0x00000000   Lc  Abs  File  De 
    331  ../clib/angel/dczerorl2.s  0x00000000   Lc  Abs  File  De 
    332  !!dczerorl2                0x00018270   Lc    1  Sect  De   0x5a
    333  ../clib/angel/scatter.s    0x00000000   Lc  Abs  File  De 
    334  !!!scatter                 0x0001823c   Lc    1  Sect  De   0x34
    335  ../clib/angel/handlers.s   0x00000000   Lc  Abs  File  De 
    336  !!handler_zi               0x000182e8   Lc    1  Sect  De   0x1c
    337  BuildAttributes$$THM_ISAv4$E$P$D$K$B$S$7EM$VFPi3$EXTD16$VFPS$VFMA$PE$A:L22UL41UL21$X:L11$S22US41US21$IEEE1$IW$~IW$USESV6$~STKCKD$USESV7$~SHL$OTIME$ROPI$EBA8$UX$STANDARDLIB$REQ8$PRES8$EABIv2
                                    0x00000000   Gb  Abs   --   Hi 
    338  __Vectors                  0x00018000   Gb    1  Data  Hi 
    339  __Patchable                0x00018190   Gb    1  Data  Hi 
    340  Reset_Handler              0x00018201   Wk    1  Code  Hi   0x1c
    341  NMI_Handler                0x0001821f   Wk    1  Code  Hi   0x2
    342  MemManage_Handler          0x00018221   Wk    1  Code  Hi   0x2
    343  BusFault_Handler           0x00018223   Wk    1  Code  Hi   0x2
    344  UsageFault_Handler         0x00018225   Wk    1  Code  Hi   0x2
    345  SVC_Handler                0x00018227   Wk    1  Code  Hi   0x2
    346  DebugMon_Handler           0x00018229   Wk    1  Code  Hi   0x2
    347  PendSV_Handler             0x0001822b   Wk    1  Code  Hi   0x2
    348  SysTick_Handler            0x0001822d   Wk    1  Code  Hi   0x2
    349  am_adc_isr                 0x0001822f   Wk    1  Code  Hi 
    350  am_audadc0_isr             0x0001822f   Wk    1  Code  Hi 
    351  am_brownout_isr            0x0001822f   Wk    1  Code  Hi 
    352  am_cachecpu_isr            0x0001822f   Wk    1  Code  Hi 
    353  am_clkgen_isr              0x0001822f   Wk    1  Code  Hi 
    354  am_ctimer_isr              0x0001822f   Wk    1  Code  Hi 
    355  am_disp_isr                0x0001822f   Wk    1  Code  Hi 
    356  am_dsi_isr                 0x0001822f   Wk    1  Code  Hi 
    357  am_dspi2s0_isr             0x0001822f   Wk    1  Code  Hi 
    358  am_dspi2s1_isr             0x0001822f   Wk    1  Code  Hi 
    359  am_dspi2s2_isr             0x0001822f   Wk    1  Code  Hi 
    360  am_dspi2s3_isr             0x0001822f   Wk    1  Code  Hi 
    361  am_gpio0_001f_isr          0x0001822f   Wk    1  Code  Hi 
    362  am_gpio0_203f_isr          0x0001822f   Wk    1  Code  Hi 
    363  am_gpio0_405f_isr          0x0001822f   Wk    1  Code  Hi 
    364  am_gpio0_607f_isr          0x0001822f   Wk    1  Code  Hi 
    365  am_gpio1_001f_isr          0x0001822f   Wk    1  Code  Hi 
    366  am_gpio1_203f_isr          0x0001822f   Wk    1  Code  Hi 
    367  am_gpio1_405f_isr          0x0001822f   Wk    1  Code  Hi 
    368  am_gpio1_607f_isr          0x0001822f   Wk    1  Code  Hi 
    369  am_gpu_isr                 0x0001822f   Wk    1  Code  Hi 
    370  am_iomaster0_isr           0x0001822f   Wk    1  Code  Hi 
    371  am_iomaster1_isr           0x0001822f   Wk    1  Code  Hi 
    372  am_iomaster2_isr           0x0001822f   Wk    1  Code  Hi 
    373  am_iomaster3_isr           0x0001822f   Wk    1  Code  Hi 
    374  am_iomaster4_isr           0x0001822f   Wk    1  Code  Hi 
    375  am_iomaster5_isr           0x0001822f   Wk    1  Code  Hi 
    376  am_iomaster6_isr           0x0001822f   Wk    1  Code  Hi 
    377  am_iomaster7_isr           0x0001822f   Wk    1  Code  Hi 
    378  am_ioslave_acc_isr         0x0001822f   Wk    1  Code  Hi 
    379  am_ioslave_ios_isr         0x0001822f   Wk    1  Code  Hi 
    380  am_mspi1_isr               0x0001822f   Wk    1  Code  Hi 
    381  am_mspi2_isr               0x0001822f   Wk    1  Code  Hi 
    382  am_pdm0_isr                0x0001822f   Wk    1  Code  Hi 
    383  am_pdm1_isr                0x0001822f   Wk    1  Code  Hi 
    384  am_pdm2_isr                0x0001822f   Wk    1  Code  Hi 
    385  am_pdm3_isr                0x0001822f   Wk    1  Code  Hi 
    386  am_rtc_isr                 0x0001822f   Wk    1  Code  Hi 
    387  am_sdio_isr                0x0001822f   Wk    1  Code  Hi 
    388  am_stimer_cmpr0_isr        0x0001822f   Wk    1  Code  Hi 
    389  am_stimer_cmpr1_isr        0x0001822f   Wk    1  Code  Hi 
    390  am_stimer_cmpr2_isr        0x0001822f   Wk    1  Code  Hi 
    391  am_stimer_cmpr3_isr        0x0001822f   Wk    1  Code  Hi 
    392  am_stimer_cmpr4_isr        0x0001822f   Wk    1  Code  Hi 
    393  am_stimer_cmpr5_isr        0x0001822f   Wk    1  Code  Hi 
    394  am_stimer_cmpr6_isr        0x0001822f   Wk    1  Code  Hi 
    395  am_stimer_cmpr7_isr        0x0001822f   Wk    1  Code  Hi 
    396  am_stimerof_isr            0x0001822f   Wk    1  Code  Hi 
    397  am_timer00_isr             0x0001822f   Wk    1  Code  Hi 
    398  am_timer01_isr             0x0001822f   Wk    1  Code  Hi 
    399  am_timer02_isr             0x0001822f   Wk    1  Code  Hi 
    400  am_timer03_isr             0x0001822f   Wk    1  Code  Hi 
    401  am_timer04_isr             0x0001822f   Wk    1  Code  Hi 
    402  am_timer05_isr             0x0001822f   Wk    1  Code  Hi 
    403  am_timer06_isr             0x0001822f   Wk    1  Code  Hi 
    404  am_timer07_isr             0x0001822f   Wk    1  Code  Hi 
    405  am_timer08_isr             0x0001822f   Wk    1  Code  Hi 
    406  am_timer09_isr             0x0001822f   Wk    1  Code  Hi 
    407  am_timer10_isr             0x0001822f   Wk    1  Code  Hi 
    408  am_timer11_isr             0x0001822f   Wk    1  Code  Hi 
    409  am_timer12_isr             0x0001822f   Wk    1  Code  Hi 
    410  am_timer13_isr             0x0001822f   Wk    1  Code  Hi 
    411  am_timer14_isr             0x0001822f   Wk    1  Code  Hi 
    412  am_timer15_isr             0x0001822f   Wk    1  Code  Hi 
    413  am_uart1_isr               0x0001822f   Wk    1  Code  Hi 
    414  am_uart2_isr               0x0001822f   Wk    1  Code  Hi 
    415  am_uart3_isr               0x0001822f   Wk    1  Code  Hi 
    416  am_uart_isr                0x0001822f   Wk    1  Code  Hi 
    417  am_usb_isr                 0x0001822f   Wk    1  Code  Hi 
    418  am_vcomp_isr               0x0001822f   Wk    1  Code  Hi 
    419  am_watchdog_isr            0x0001822f   Wk    1  Code  Hi 
    420  __main                     0x00018235   Gb    1  Code  Hi   0x8
    421  __scatterload              0x0001823d   Gb    1  Code  Hi 
    422  __scatterload_rt2          0x0001823d   Gb    1  Code  Hi   0x2c
    423  __scatterload_rt2_thumb_only
                                    0x0001823d   Gb    1  Code  Hi 
    424  __scatterload_null         0x0001824b   Gb    1  Code  Hi 
    425  __decompress               0x00018271   Gb    1  Code  Hi   0x5a
    426  __decompress1              0x00018271   Gb    1  Code  Hi 
    427  __scatterload_copy         0x000182cd   Gb    1  Code  Hi   0x1a
    428  __scatterload_zeroinit     0x000182e9   Gb    1  Code  Hi   0x1c
    429  __rt_lib_init              0x00018305   Gb    1  Code  De 
    430  __rt_lib_init_fp_1         0x00018307   Gb    1  Code  Hi 
    431  __rt_lib_init_alloca_1     0x0001830b   Gb    1  Code  Hi 
    432  __rt_lib_init_argv_1       0x0001830b   Gb    1  Code  Hi 
    433  __rt_lib_init_atexit_1     0x0001830b   Gb    1  Code  Hi 
    434  __rt_lib_init_clock_1      0x0001830b   Gb    1  Code  Hi 
    435  __rt_lib_init_cpp_1        0x0001830b   Gb    1  Code  Hi 
    436  __rt_lib_init_exceptions_1 0x0001830b   Gb    1  Code  Hi 
    437  __rt_lib_init_fp_trap_1    0x0001830b   Gb    1  Code  Hi 
    438  __rt_lib_init_getenv_1     0x0001830b   Gb    1  Code  Hi 
    439  __rt_lib_init_heap_1       0x0001830b   Gb    1  Code  Hi 
    440  __rt_lib_init_lc_collate_1 0x0001830b   Gb    1  Code  Hi 
    441  __rt_lib_init_lc_ctype_1   0x0001830b   Gb    1  Code  Hi 
    442  __rt_lib_init_lc_monetary_1
                                    0x0001830b   Gb    1  Code  Hi 
    443  __rt_lib_init_lc_numeric_1 0x0001830b   Gb    1  Code  Hi 
    444  __rt_lib_init_lc_time_1    0x0001830b   Gb    1  Code  Hi 
    445  __rt_lib_init_preinit_1    0x0001830b   Gb    1  Code  Hi 
    446  __rt_lib_init_rand_1       0x0001830b   Gb    1  Code  Hi 
    447  __rt_lib_init_relocate_pie_1
                                    0x0001830b   Gb    1  Code  Hi 
    448  __rt_lib_init_return       0x0001830b   Gb    1  Code  Hi 
    449  __rt_lib_init_signal_1     0x0001830b   Gb    1  Code  Hi 
    450  __rt_lib_init_stdio_1      0x0001830b   Gb    1  Code  Hi 
    451  __rt_lib_init_user_alloc_1 0x0001830b   Gb    1  Code  Hi 
    452  __rt_lib_shutdown          0x0001830d   Gb    1  Code  De 
    453  __rt_lib_shutdown_cpp_1    0x0001830f   Gb    1  Code  Hi 
    454  __rt_lib_shutdown_fp_trap_1
                                    0x0001830f   Gb    1  Code  Hi 
    455  __rt_lib_shutdown_heap_1   0x0001830f   Gb    1  Code  Hi 
    456  __rt_lib_shutdown_return   0x0001830f   Gb    1  Code  Hi 
    457  __rt_lib_shutdown_signal_1 0x0001830f   Gb    1  Code  Hi 
    458  __rt_lib_shutdown_stdio_1  0x0001830f   Gb    1  Code  Hi 
    459  __rt_lib_shutdown_user_alloc_1
                                    0x0001830f   Gb    1  Code  Hi 
    460  __rt_entry                 0x00018311   Gb    1  Code  Hi 
    461  __rt_entry_presh_1         0x00018311   Gb    1  Code  Hi 
    462  __rt_entry_sh              0x00018311   Gb    1  Code  Hi 
    463  __rt_entry_li              0x00018317   Gb    1  Code  Hi 
    464  __rt_entry_postsh_1        0x00018317   Gb    1  Code  Hi 
    465  __rt_entry_main            0x0001831b   Gb    1  Code  Hi 
    466  __rt_entry_postli_1        0x0001831b   Gb    1  Code  Hi 
    467  __rt_exit                  0x00018323   Gb    1  Code  De 
    468  __rt_exit_ls               0x00018325   Gb    1  Code  Hi 
    469  __rt_exit_prels_1          0x00018325   Gb    1  Code  Hi 
    470  __rt_exit_exit             0x00018329   Gb    1  Code  Hi 
    471  __user_initial_stackheap   0x00018331   Gb    1  Code  Hi   0xa
    472  __aeabi_memcpy             0x00018349   Gb    1  Code  De 
    473  __rt_memcpy                0x00018349   Gb    1  Code  De   0x8a
    474  _memcpy_lastbytes          0x000183af   Gb    1  Code  De 
    475  __aeabi_memclr4            0x000183d3   Gb    1  Code  De 
    476  __aeabi_memclr8            0x000183d3   Gb    1  Code  De 
    477  __rt_memclr_w              0x000183d3   Gb    1  Code  De 
    478  _memset_w                  0x000183d7   Gb    1  Code  De   0x4a
    479  __use_two_region_memory    0x00018421   Gb    1  Code  Hi   0x2
    480  __rt_heap_escrow$2region   0x00018423   Gb    1  Code  De   0x2
    481  __rt_heap_expand$2region   0x00018425   Gb    1  Code  De   0x2
    482  __aeabi_memcpy4            0x00018427   Gb    1  Code  De 
    483  __aeabi_memcpy8            0x00018427   Gb    1  Code  De 
    484  __rt_memcpy_w              0x00018427   Gb    1  Code  De   0x64
    485  _memcpy_lastbytes_aligned  0x0001846f   Gb    1  Code  De 
    486  __user_setup_stackheap     0x0001848b   Gb    1  Code  De   0x4a
    487  exit                       0x000184d5   Gb    1  Code  De   0x12
    488  __user_libspace            0x000184e9   Wk    1  Code  De   0x8
    489  __user_perproc_libspace    0x000184e9   Wk    1  Code  De 
    490  __user_perthread_libspace  0x000184e9   Wk    1  Code  De 
    491  _sys_exit                  0x000184f1   Gb    1  Code  De   0x8
    492  __I$use$semihosting        0x000184fd   Gb    1  Code  Hi 
    493  __use_no_semihosting_swi   0x000184fd   Gb    1  Code  Hi   0x2
    494  __semihosting_library_function
                                    0x000184ff   Gb    1  Code  Hi 
    495  HardFault_Handler          0x00018501   Gb    1  Code  Hi   0x1e
    496  am_bsp_itm_printf_enable   0x00018599   Gb    1  Code  Hi   0x7e
    497  am_bsp_low_power_init      0x00018619   Gb    1  Code  Hi   0x16
    498  am_bsp_mspi_pins_enable    0x00018631   Gb    1  Code  Hi   0x86c
    499  am_devices_mspi_psram_aps12808l_apply_ddr_timing
                                    0x00018f75   Gb    1  Code  Hi   0x5c
    500  am_devices_mspi_psram_aps12808l_ddr_deinit
                                    0x00018fd1   Gb    1  Code  Hi   0x90
    501  am_devices_mspi_psram_aps12808l_ddr_disable_xip
                                    0x00019061   Gb    1  Code  Hi   0x3c
    502  am_devices_mspi_psram_aps12808l_ddr_enable_scrambling
                                    0x0001909d   Gb    1  Code  Hi   0x3c
    503  am_devices_mspi_psram_aps12808l_ddr_enable_xip
                                    0x000190d9   Gb    1  Code  Hi   0x62
    504  am_devices_mspi_psram_aps12808l_ddr_init
                                    0x0001913d   Gb    1  Code  Hi   0x296
    505  am_devices_mspi_psram_aps12808l_ddr_init_timing_check
                                    0x000193d5   Gb    1  Code  Hi   0x2c0
    506  am_devices_mspi_psram_aps12808l_ddr_read
                                    0x00019695   Gb    1  Code  Hi   0xfc
    507  am_devices_mspi_psram_aps12808l_ddr_write
                                    0x00019791   Gb    1  Code  Hi   0xfc
    508  am_getStackedReg           0x00019b61   Gb    1  Code  Hi   0x12
    509  am_hal_cachectrl_config    0x00019b75   Gb    1  Code  Hi   0x44
    510  am_hal_cachectrl_enable    0x00019bb9   Gb    1  Code  Hi   0x1e
    511  am_hal_cmdq_alloc_block    0x00019bd9   Gb    1  Code  Hi   0xce
    512  am_hal_cmdq_disable        0x00019ca9   Gb    1  Code  Hi   0x38
    513  am_hal_cmdq_enable         0x00019ce1   Gb    1  Code  Hi   0x50
    514  am_hal_cmdq_error_resume   0x00019d31   Gb    1  Code  Hi   0x9c
    515  am_hal_cmdq_get_status     0x00019dcd   Gb    1  Code  Hi   0x9a
    516  am_hal_cmdq_init           0x00019e69   Gb    1  Code  Hi   0xbe
    517  am_hal_cmdq_post_block     0x00019f29   Gb    1  Code  Hi   0x68
    518  am_hal_cmdq_post_loop_block
                                    0x00019f91   Gb    1  Code  Hi   0x68
    519  am_hal_cmdq_release_block  0x00019ff9   Gb    1  Code  Hi   0x30
    520  am_hal_cmdq_reset          0x0001a029   Gb    1  Code  Hi   0x5c
    521  am_hal_cmdq_term           0x0001a085   Gb    1  Code  Hi   0x86
    522  am_hal_daxi_config         0x0001a10d   Gb    1  Code  Hi   0xac
    523  am_hal_daxi_control        0x0001a1b9   Gb    1  Code  Hi   0x116
    524  am_hal_dcu_get             0x0001a2d1   Gb    1  Code  Hi   0x3e
    525  am_hal_dcu_update          0x0001a311   Gb    1  Code  Hi   0xa2
    526  am_hal_delay_us            0x0001a3b5   Gb    1  Code  Hi   0x36
    527  am_hal_delay_us_status_change
                                    0x0001a3ed   Gb    1  Code  Hi   0x58
    528  am_hal_delay_us_status_check
                                    0x0001a445   Gb    1  Code  Hi   0x98
    529  am_hal_fault_capture_enable
                                    0x0001a4dd   Gb    1  Code  Hi   0x12
    530  am_hal_fault_status_get    0x0001a4f1   Gb    1  Code  Hi   0x3a
    531  am_hal_gpio_pinconfig      0x0001a52d   Gb    1  Code  Hi   0x56
    532  am_hal_gpio_state_write    0x0001a585   Gb    1  Code  Hi   0x10a
    533  am_hal_interrupt_master_disable
                                    0x0001a691   Gb    1  Code  Hi   0x8
    534  am_hal_interrupt_master_enable
                                    0x0001a699   Gb    1  Code  Hi   0x8
    535  am_hal_interrupt_master_set
                                    0x0001a6a1   Gb    1  Code  Hi   0x6
    536  am_hal_itm_enable          0x0001a6a9   Gb    1  Code  Hi   0x56
    537  am_hal_itm_print           0x0001a701   Gb    1  Code  Hi   0x136
    538  am_hal_mram_info_read      0x0001a839   Gb    1  Code  Hi   0xb0
    539  am_hal_mspi_blocking_transfer
                                    0x0001a8e9   Gb    1  Code  Hi   0x11e
    540  am_hal_mspi_configure      0x0001aa09   Gb    1  Code  Hi   0xd0
    541  am_hal_mspi_control        0x0001aad9   Gb    1  Code  Hi   0xdd4
    542  am_hal_mspi_deinitialize   0x0001b8ad   Gb    1  Code  Hi   0x34
    543  am_hal_mspi_device_configure
                                    0x0001b8e1   Gb    1  Code  Hi   0x1b4
    544  am_hal_mspi_disable        0x0001ba95   Gb    1  Code  Hi   0x94
    545  am_hal_mspi_enable         0x0001bb29   Gb    1  Code  Hi   0xae
    546  am_hal_mspi_highprio_transfer
                                    0x0001bbd9   Gb    1  Code  Hi   0x80
    547  am_hal_mspi_initialize     0x0001bc59   Gb    1  Code  Hi   0x50
    548  am_hal_mspi_interrupt_clear
                                    0x0001bca9   Gb    1  Code  Hi   0x2c
    549  am_hal_mspi_interrupt_disable
                                    0x0001bcd5   Gb    1  Code  Hi   0x30
    550  am_hal_mspi_interrupt_enable
                                    0x0001bd05   Gb    1  Code  Hi   0x30
    551  am_hal_mspi_interrupt_service
                                    0x0001bd35   Gb    1  Code  Hi   0x2ea
    552  am_hal_mspi_interrupt_status_get
                                    0x0001c021   Gb    1  Code  Hi   0x38
    553  am_hal_mspi_nonblocking_transfer
                                    0x0001c059   Gb    1  Code  Hi   0x188
    554  am_hal_mspi_power_control  0x0001c1e1   Gb    1  Code  Hi   0x2da
    555  am_hal_pwrctrl_control     0x0001c4bd   Gb    1  Code  Hi   0x21c
    556  am_hal_pwrctrl_low_power_init
                                    0x0001c6d9   Gb    1  Code  Hi   0x16a
    557  am_hal_pwrctrl_mcu_memory_config
                                    0x0001c845   Gb    1  Code  Hi   0x10e
    558  am_hal_pwrctrl_periph_disable
                                    0x0001c955   Gb    1  Code  Hi   0x130
    559  am_hal_pwrctrl_periph_enable
                                    0x0001ca85   Gb    1  Code  Hi   0x1a8
    560  am_hal_pwrctrl_sram_config 0x0001cc2d   Gb    1  Code  Hi   0xc6
    561  am_hal_rtc_osc_disable     0x0001ccf5   Gb    1  Code  Hi   0x14
    562  am_hal_tpiu_enable         0x0001cd09   Gb    1  Code  Hi   0x6e
    563  am_mspi0_isr               0x0001cd79   Gb    1  Code  Hi   0x30
    564  am_util_delay_ms           0x0001cda9   Gb    1  Code  Hi   0x16
    565  am_util_delay_us           0x0001cdc1   Gb    1  Code  Hi   0x10
    566  am_util_faultisr_collect_data
                                    0x0001cdd1   Gb    1  Code  Hi   0x328
    567  am_util_stdio_printf       0x0001d0f9   Gb    1  Code  Hi   0x5c
    568  am_util_stdio_printf_init  0x0001d155   Gb    1  Code  Hi   0x14
    569  am_util_stdio_terminal_clear
                                    0x0001d169   Gb    1  Code  Hi   0x10
    570  am_util_stdio_vsprintf     0x0001d179   Gb    1  Code  Hi   0x654
    571  am_valid_sp                0x0001d7cd   Gb    1  Code  Hi   0x36
    572  build_dma_cmdlist          0x0001d805   Gb    1  Code  Hi   0x14e
    573  crypto_boost_trims         0x0001d981   Gb    1  Code  Hi   0xc8
    574  main                       0x0001e485   Gb    1  Code  Hi   0x490
    575  pfnMSPI_PSRAM_DDR_Callback 0x0001f0a5   Gb    1  Code  Hi   0x10
    576  __aeabi_d2f                0x0001f709   Gb    1  Code  De 
    577  _d2f                       0x0001f709   Gb    1  Code  De   0x62
    578  __fpl_dnaninf              0x0001f76b   Gb    1  Code  De   0x9c
    579  _fp_init                   0x0001f807   Gb    1  Code  De   0x1a
    580  __fplib_config_fpu_vfp     0x0001f81f   Gb    1  Code  De 
    581  __fplib_config_pureend_doubles
                                    0x0001f81f   Gb    1  Code  De 
    582  __fpl_fretinf              0x0001f821   Gb    1  Code  De   0xa
    583  __I$use$fp                 0x0001f82a   Gb    1   --   De 
    584  am_hal_cachectrl_defaults  0x0001f82a   Gb    1  Data  Hi   0x3
    585  am_hal_daxi_defaults       0x0001f82d   Gb    1  Data  Hi   0x5
    586  am_hal_pwrctrl_peripheral_control
                                    0x0001f834   Gb    1  Data  Hi   0x220
    587  g_DefaultMcuMemCfg         0x0001fc0c   Gb    1  Data  Hi   0x6
    588  g_DefaultSRAMCfg           0x0001fc12   Gb    1  Data  Hi   0x6
    589  g_am_hal_bootrom_helper    0x0001fc18   Gb    1  Data  Hi   0x28
    590  sGlobalAccess              0x0001fc44   Gb    1  Data  Hi   0x1c
    591  ui32DSP0Allowed            0x00020320   Gb    1  Data  Hi   0x14
    592  ui32DSP1Allowed            0x00020334   Gb    1  Data  Hi   0x14
    593  ui32MCUAllowed             0x00020348   Gb    1  Data  Hi   0x14
    594  ui32SharedAccess           0x00020368   Gb    1  Data  Hi   0x14
    595  Region$$Table$$Base        0x0002037c   Gb    1   --   Hi 
    596  Region$$Table$$Limit       0x000203ac   Gb    1   --   Hi 
    597  gpDcuEnable                0x10000000   Gb    2  Data  Hi   0x4
    598  gpDcuLock                  0x10000004   Gb    2  Data  Hi   0x4
    599  gDcuEnable                 0x10000008   Gb    2  Data  Hi   0x8
    600  gDcuDisable                0x10000010   Gb    2  Data  Hi   0x8
    601  g_ui32TrimVer              0x10000018   Gb    2  Data  Hi   0x4
    602  g_ui32origSimobuckVDDStrim 0x1000001c   Gb    2  Data  Hi   0x4
    603  DDROctalCE0MSPIConfig      0x10000020   Gb    2  Data  Hi   0x16
    604  DDROctalCE1MSPIConfig      0x10000036   Gb    2  Data  Hi   0x16
    605  MSPI_PSRAM_OctalCE0MSPIConfig
                                    0x1000004c   Gb    2  Data  Hi   0x14
    606  gDDRDqsCfg                 0x10000060   Gb    2  Data  Hi   0x1e
    607  gDDRXipConfig              0x10000080   Gb    2  Data  Hi   0x30
    608  gDaxiConfig                0x100000b0   Gb    2  Data  Hi   0x5
    609  g_AM_BSP_GPIO_MSPI1_MUX_OE 0x100000b8   Gb    2  Data  Hi   0x4
    610  g_AM_BSP_GPIO_MSPI1_MUX_SEL
                                    0x100000bc   Gb    2  Data  Hi   0x4
    611  g_AM_BSP_GPIO_MSPI2_CE0    0x100000c0   Gb    2  Data  Hi   0x4
    612  g_AM_BSP_GPIO_MSPI2_CE1    0x100000c4   Gb    2  Data  Hi   0x4
    613  g_AM_BSP_GPIO_MSPI2_D0     0x100000c8   Gb    2  Data  Hi   0x4
    614  g_AM_BSP_GPIO_MSPI2_D1     0x100000cc   Gb    2  Data  Hi   0x4
    615  g_AM_BSP_GPIO_MSPI2_D2     0x100000d0   Gb    2  Data  Hi   0x4
    616  g_AM_BSP_GPIO_MSPI2_D3     0x100000d4   Gb    2  Data  Hi   0x4
    617  g_AM_BSP_GPIO_MSPI2_D4     0x100000d8   Gb    2  Data  Hi   0x4
    618  g_AM_BSP_GPIO_MSPI2_D5     0x100000dc   Gb    2  Data  Hi   0x4
    619  g_AM_BSP_GPIO_MSPI2_D6     0x100000e0   Gb    2  Data  Hi   0x4
    620  g_AM_BSP_GPIO_MSPI2_D7     0x100000e4   Gb    2  Data  Hi   0x4
    621  g_AM_BSP_GPIO_MSPI2_DQSDM  0x100000e8   Gb    2  Data  Hi   0x4
    622  g_AM_BSP_GPIO_MSPI2_SCK    0x100000ec   Gb    2  Data  Hi   0x4
    623  g_AM_BSP_GPIO_NOR_CE0      0x100000f0   Gb    2  Data  Hi   0x4
    624  g_AM_BSP_GPIO_NOR_D0       0x100000f4   Gb    2  Data  Hi   0x4
    625  g_AM_BSP_GPIO_NOR_D1       0x100000f8   Gb    2  Data  Hi   0x4
    626  g_AM_BSP_GPIO_NOR_D2       0x100000fc   Gb    2  Data  Hi   0x4
    627  g_AM_BSP_GPIO_NOR_D3       0x10000100   Gb    2  Data  Hi   0x4
    628  g_AM_BSP_GPIO_NOR_D4       0x10000104   Gb    2  Data  Hi   0x4
    629  g_AM_BSP_GPIO_NOR_D5       0x10000108   Gb    2  Data  Hi   0x4
    630  g_AM_BSP_GPIO_NOR_D6       0x1000010c   Gb    2  Data  Hi   0x4
    631  g_AM_BSP_GPIO_NOR_D7       0x10000110   Gb    2  Data  Hi   0x4
    632  g_AM_BSP_GPIO_NOR_DQS      0x10000114   Gb    2  Data  Hi   0x4
    633  g_AM_BSP_GPIO_NOR_SCK      0x10000118   Gb    2  Data  Hi   0x4
    634  g_AM_BSP_GPIO_PSRAM_CE0    0x1000011c   Gb    2  Data  Hi   0x4
    635  g_AM_BSP_GPIO_PSRAM_D0     0x10000120   Gb    2  Data  Hi   0x4
    636  g_AM_BSP_GPIO_PSRAM_D1     0x10000124   Gb    2  Data  Hi   0x4
    637  g_AM_BSP_GPIO_PSRAM_D10    0x10000128   Gb    2  Data  Hi   0x4
    638  g_AM_BSP_GPIO_PSRAM_D11    0x1000012c   Gb    2  Data  Hi   0x4
    639  g_AM_BSP_GPIO_PSRAM_D12    0x10000130   Gb    2  Data  Hi   0x4
    640  g_AM_BSP_GPIO_PSRAM_D13    0x10000134   Gb    2  Data  Hi   0x4
    641  g_AM_BSP_GPIO_PSRAM_D14    0x10000138   Gb    2  Data  Hi   0x4
    642  g_AM_BSP_GPIO_PSRAM_D15    0x1000013c   Gb    2  Data  Hi   0x4
    643  g_AM_BSP_GPIO_PSRAM_D2     0x10000140   Gb    2  Data  Hi   0x4
    644  g_AM_BSP_GPIO_PSRAM_D3     0x10000144   Gb    2  Data  Hi   0x4
    645  g_AM_BSP_GPIO_PSRAM_D4     0x10000148   Gb    2  Data  Hi   0x4
    646  g_AM_BSP_GPIO_PSRAM_D5     0x1000014c   Gb    2  Data  Hi   0x4
    647  g_AM_BSP_GPIO_PSRAM_D6     0x10000150   Gb    2  Data  Hi   0x4
    648  g_AM_BSP_GPIO_PSRAM_D7     0x10000154   Gb    2  Data  Hi   0x4
    649  g_AM_BSP_GPIO_PSRAM_D8     0x10000158   Gb    2  Data  Hi   0x4
    650  g_AM_BSP_GPIO_PSRAM_D9     0x1000015c   Gb    2  Data  Hi   0x4
    651  g_AM_BSP_GPIO_PSRAM_DQS0DM0
                                    0x10000160   Gb    2  Data  Hi   0x4
    652  g_AM_BSP_GPIO_PSRAM_DQS1DM1
                                    0x10000164   Gb    2  Data  Hi   0x4
    653  g_AM_BSP_GPIO_PSRAM_SCK    0x10000168   Gb    2  Data  Hi   0x4
    654  __libspace_start           0x10000170   Gb    3  Data  De   0x60
    655  __temporary_stack_top$libspace
                                    0x100001d0   Gb    3  Data  De 
    656  DMATCBBuffer               0x10000210   Gb    3  Data  Hi   0x2800
    657  MSPIDdrTimingConfig        0x10002a10   Gb    3  Data  Hi   0x10
    658  gDDRAmPsram                0x10002c04   Gb    3  Data  Hi   0x18
    659  gDDRMspiCfg                0x10002c1c   Gb    3  Data  Hi   0xc
    660  gFaultStack                0x10002c28   Gb    3  Data  Hi   0x200
    661  gStartOff                  0x10002e28   Gb    3  Data  Hi   0x4
    662  g_AM_BSP_GPIO_ITM_SWO      0x10002e2c   Gb    3  Data  Hi   0x4
    663  g_TempBuf                  0x10004880   Gb    3  Data  Hi   0x100
    664  g_pfnCharPrint             0x10004984   Gb    3  Data  Hi   0x4
    665  pDevHandle                 0x10004d88   Gb    3  Data  Hi   0x4
    666  pHandle                    0x10004d8c   Gb    3  Data  Hi   0x4
    667  psGlobalAccessPtr          0x10060000   Gb    4  Data  Hi   0x4
    668  ui32MCUClaimed             0x10060004   Gb    4  Data  Hi   0x14
    669  ui32DSP0Claimed            0x10060018   Gb    4  Data  Hi   0x14
    670  ui32DSP1Claimed            0x1006002c   Gb    4  Data  Hi   0x14


** Section #12 '.strtab' (SHT_STRTAB)
    Size   : 11112 bytes

            #  Offset String
        ====================================

            1      1: $d
            2      4: $t
            3      7: $t.0
            4     12: $d.4
            5     17: $t.3
            6     22: $d.35
            7     28: $t.36
            8     34: $d.37
            9     40: $t.38
           10     46: $d.39
           11     52: $t.40
           12     58: $d.9
           13     63: $t.10
           14     69: $d.5
           15     74: $t.6
           16     79: $d.12
           17     85: $t.13
           18     91: $d.22
           19     97: $t.23
           20    103: $d.3
           21    108: $t.4
           22    113: $d.7
           23    118: $t.8
           24    123: $t.5
           25    128: $d.6
           26    133: $t.7
           27    138: $d.15
           28    144: $t.16
           29    150: $d.28
           30    156: $t.29
           31    162: $d.realdata
           32    174: am_resources.c
           33    189: __tagsym$$used.0
           34    206: __tagsym$$used.1
           35    223: __tagsym$$used.2
           36    240: __tagsym$$used.3
           37    257: __tagsym$$used.4
           38    274: __tagsym$$used.5
           39    291: __tagsym$$used.6
           40    308: __tagsym$$used.7
           41    325: __tagsym$$used.8
           42    342: mspi_ddr_psram_loader.c
           43    366: __NVIC_SetPriority
           44    385: __NVIC_EnableIRQ
           45    402: run_new_image
           46    416: .L.str.1
           47    425: .L.str.10
           48    435: .L.str.15
           49    445: .L.str.13
           50    455: .L.str.16
           51    465: .L.str.14
           52    475: .L.str.19
           53    485: .L.str.12
           54    495: .L.str.17
           55    505: .L.str.9
           56    514: .L.str.20
           57    524: .L.str.21
           58    534: .L.str.2
           59    543: .L.str.18
           60    553: .L.str.11
           61    563: .L.str.6
           62    572: .L.str.4
           63    581: .L.str.5
           64    590: .L.str.3
           65    599: .L.str
           66    606: .L.str.7
           67    615: .L.str.8
           68    624: mspi_interrupts
           69    640: am_devices_mspi_psram_aps12808l.c
           70    674: am_devices_mspi_psram_aps12808l_reset
           71    712: am_devices_mspi_psram_aps12808l_id
           72    747: psram_nonblocking_transfer
           73    774: psram_check_by_xip
           74    793: count_consecutive_ones
           75    816: find_mid_point
           76    831: am_device_command_write
           77    855: am_device_command_read
           78    878: prepare_test_pattern
           79    899: ui32MspiXipBaseAddress
           80    922: am_util_delay.c
           81    938: am_util_faultisr.c
           82    957: .L.str.29
           83    967: .L.str.25
           84    977: .L.str.23
           85    987: .L.str.22
           86    997: .L.str.24
           87   1007: .L.str.27
           88   1017: .L.str.26
           89   1027: .L.str.28
           90   1037: am_util_stdio.c
           91   1053: decstr_to_int
           92   1067: simple_strlen
           93   1081: padbuffer
           94   1091: ndigits_in_hex
           95   1106: uint64_to_hexstr
           96   1123: ndigits_in_u64
           97   1138: uint64_to_str
           98   1152: ndigits_in_i64
           99   1167: ftoa
          100   1172: divu64_10
          101   1182: g_bTxtXlate
          102   1194: g_prfbuf
          103   1203: ../keil6/startup_keil6.s
          104   1228: STACK
          105   1234: StackMem
          106   1243: HEAP
          107   1248: HeapMem
          108   1256: RESET
          109   1262: $v0
          110   1266: am_cryptosec_isr
          111   1283: am_default_isr
          112   1298: .text
          113   1304: am_hal_cachectrl.c
          114   1323: am_hal_fault.c
          115   1338: am_hal_interrupt.c
          116   1357: am_hal_mspi.c
          117   1371: mspi_device_configure
          118   1393: mspi_piomixed_configure
          119   1417: mspi_cq_pause
          120   1431: mspi_seq_loopback
          121   1449: sched_hiprio
          122   1462: mspi_dummy_callback
          123   1482: mspi_fifo_read
          124   1497: mspi_fifo_write
          125   1513: mspi_add_hp_transaction
          126   1537: g_MSPIState
          127   1549: am_hal_utils.c
          128   1564: am_bsp.c
          129   1573: .L_MergedGlobals
          130   1590: g_ePrintInterface
          131   1608: g_sCOMUART
          132   1619: am_hal_dcu.c
          133   1632: get_ui32_dcu_mask
          134   1650: get_raw_dcu_mask
          135   1667: am_hal_gpio.c
          136   1681: g_ui32DSpintbl
          137   1696: am_hal_pwrctrl.c
          138   1713: .L_MergedGlobals.1
          139   1732: g_bBoostForCryptoApplied
          140   1757: g_bOrigTrimsStored
          141   1776: g_bTempcoValid
          142   1791: g_i32LatestVddfActTrim
          143   1814: g_i32LatestLDOActTrim
          144   1836: g_ui32VDDFAdjustCodes
          145   1858: g_orig_ACTTRIMVDDF
          146   1877: g_orig_MEMLDOACTIVETRIM
          147   1901: g_orig_LPTRIMVDDF
          148   1919: g_orig_MEMLPLDOTRIM
          149   1939: g_orig_TVRGVREFTRIM
          150   1959: g_orig_CORELDOACTIVETRIM
          151   1984: g_pfTempMeasured
          152   2001: g_TempcoADCHandle
          153   2019: am_hal_bootrom_helper.c
          154   2043: am_hal_cmdq.c
          155   2057: gAmHalCmdq
          156   2068: gAmHalCmdQReg
          157   2082: am_hal_itm.c
          158   2095: am_hal_rtc.c
          159   2108: am_hal_tpiu.c
          160   2122: am_hal_uart.c
          161   2136: am_bsp_pins.c
          162   2150: am_hal_adc.c
          163   2163: am_hal_pin.c
          164   2176: am_hal_queue.c
          165   2191: am_hal_mram.c
          166   2205: dc.s
          167   2210: ../clib/memcpset.s
          168   2229: ../clib/heapaux.c
          169   2247: ../clib/angel/startup.s
          170   2271: !!!main
          171   2279: ../clib/angel/handlers.s
          172   2304: !!handler_copy
          173   2319: ../fplib/d2f.s
          174   2334: x$fpl$d2f
          175   2344: ../clib/angel/kernel.s
          176   2367: .ARM.Collect$$rtentry$$00000000
          177   2399: ../fplib/dnaninf.s
          178   2418: x$fpl$dnaninf
          179   2432: ../fplib/fretinf.s
          180   2451: x$fpl$fretinf
          181   2465: ../fplib/usenofp.s
          182   2484: x$fpl$usenofp
          183   2498: .ARM.Collect$$rtentry$$00000002
          184   2530: .ARM.Collect$$rtentry$$00000009
          185   2562: .ARM.Collect$$rtentry$$0000000A
          186   2594: .ARM.Collect$$rtentry$$0000000C
          187   2626: .ARM.Collect$$rtentry$$0000000D
          188   2658: .ARM.Collect$$rtentry$$00000004
          189   2690: ../clib/angel/sys.s
          190   2710: ../clib/stdlib.c
          191   2727: ../clib/angel/boardlib.s
          192   2752: ../clib/libinit.s
          193   2770: .ARM.Collect$$libinit$$00000000
          194   2802: .bss
          195   2807: .ARM.Collect$$rtexit$$00000000
          196   2838: .ARM.Collect$$libinit$$00000001
          197   2870: .ARM.Collect$$libinit$$00000004
          198   2902: .ARM.Collect$$libinit$$00000006
          199   2934: .ARM.Collect$$libinit$$0000000C
          200   2966: .ARM.Collect$$libinit$$0000000E
          201   2998: .ARM.Collect$$libinit$$00000010
          202   3030: .ARM.Collect$$libinit$$00000013
          203   3062: .ARM.Collect$$libinit$$00000015
          204   3094: .ARM.Collect$$libinit$$00000017
          205   3126: .ARM.Collect$$libinit$$00000019
          206   3158: .ARM.Collect$$libinit$$0000001B
          207   3190: .ARM.Collect$$libinit$$0000001D
          208   3222: .ARM.Collect$$libinit$$0000001F
          209   3254: .ARM.Collect$$libinit$$00000021
          210   3286: .ARM.Collect$$libinit$$00000023
          211   3318: .ARM.Collect$$libinit$$00000025
          212   3350: .ARM.Collect$$libinit$$00000027
          213   3382: .ARM.Collect$$libinit$$0000002E
          214   3414: .ARM.Collect$$libinit$$00000030
          215   3446: .ARM.Collect$$libinit$$00000032
          216   3478: .ARM.Collect$$libinit$$00000034
          217   3510: .ARM.Collect$$libinit$$00000035
          218   3542: .ARM.Collect$$rtexit$$00000002
          219   3573: .ARM.Collect$$rtexit$$00000003
          220   3604: .ARM.Collect$$rtexit$$00000004
          221   3635: ../clib/armsys.c
          222   3652: ../fplib/fpinit.s
          223   3670: x$fpl$fpinit
          224   3683: ../clib/angel/sysapp.c
          225   3706: .ARM.Collect$$libshutdown$$00000000
          226   3742: ../clib/heapalloc.c
          227   3762: ../clib/signal.c
          228   3779: .ARM.Collect$$libshutdown$$00000002
          229   3815: .ARM.Collect$$libshutdown$$00000004
          230   3851: .ARM.Collect$$libshutdown$$00000007
          231   3887: .ARM.Collect$$libshutdown$$0000000A
          232   3923: .ARM.Collect$$libshutdown$$0000000C
          233   3959: .ARM.Collect$$libshutdown$$0000000F
          234   3995: .ARM.Collect$$libshutdown$$00000010
          235   4031: ../clib/angel/rt.s
          236   4050: ../clib/signal.s
          237   4067: ../clib/angel/dczerorl2.s
          238   4093: !!dczerorl2
          239   4105: ../clib/angel/scatter.s
          240   4129: !!!scatter
          241   4140: !!handler_zi
          242   4153: BuildAttributes$$THM_ISAv4$E$P$D$K$B$S$7EM$VFPi3$EXTD16$VFPS$VFMA$PE$A:L22UL41UL21$X:L11$S22US41US21$IEEE1$IW$~IW$USESV6$~STKCKD$USESV7$~SHL$OTIME$ROPI$EBA8$UX$STANDARDLIB$REQ8$PRES8$EABIv2
          243   4343: __Vectors
          244   4353: __Patchable
          245   4365: Reset_Handler
          246   4379: NMI_Handler
          247   4391: MemManage_Handler
          248   4409: BusFault_Handler
          249   4426: UsageFault_Handler
          250   4445: SVC_Handler
          251   4457: DebugMon_Handler
          252   4474: PendSV_Handler
          253   4489: SysTick_Handler
          254   4505: am_adc_isr
          255   4516: am_audadc0_isr
          256   4531: am_brownout_isr
          257   4547: am_cachecpu_isr
          258   4563: am_clkgen_isr
          259   4577: am_ctimer_isr
          260   4591: am_disp_isr
          261   4603: am_dsi_isr
          262   4614: am_dspi2s0_isr
          263   4629: am_dspi2s1_isr
          264   4644: am_dspi2s2_isr
          265   4659: am_dspi2s3_isr
          266   4674: am_gpio0_001f_isr
          267   4692: am_gpio0_203f_isr
          268   4710: am_gpio0_405f_isr
          269   4728: am_gpio0_607f_isr
          270   4746: am_gpio1_001f_isr
          271   4764: am_gpio1_203f_isr
          272   4782: am_gpio1_405f_isr
          273   4800: am_gpio1_607f_isr
          274   4818: am_gpu_isr
          275   4829: am_iomaster0_isr
          276   4846: am_iomaster1_isr
          277   4863: am_iomaster2_isr
          278   4880: am_iomaster3_isr
          279   4897: am_iomaster4_isr
          280   4914: am_iomaster5_isr
          281   4931: am_iomaster6_isr
          282   4948: am_iomaster7_isr
          283   4965: am_ioslave_acc_isr
          284   4984: am_ioslave_ios_isr
          285   5003: am_mspi1_isr
          286   5016: am_mspi2_isr
          287   5029: am_pdm0_isr
          288   5041: am_pdm1_isr
          289   5053: am_pdm2_isr
          290   5065: am_pdm3_isr
          291   5077: am_rtc_isr
          292   5088: am_sdio_isr
          293   5100: am_stimer_cmpr0_isr
          294   5120: am_stimer_cmpr1_isr
          295   5140: am_stimer_cmpr2_isr
          296   5160: am_stimer_cmpr3_isr
          297   5180: am_stimer_cmpr4_isr
          298   5200: am_stimer_cmpr5_isr
          299   5220: am_stimer_cmpr6_isr
          300   5240: am_stimer_cmpr7_isr
          301   5260: am_stimerof_isr
          302   5276: am_timer00_isr
          303   5291: am_timer01_isr
          304   5306: am_timer02_isr
          305   5321: am_timer03_isr
          306   5336: am_timer04_isr
          307   5351: am_timer05_isr
          308   5366: am_timer06_isr
          309   5381: am_timer07_isr
          310   5396: am_timer08_isr
          311   5411: am_timer09_isr
          312   5426: am_timer10_isr
          313   5441: am_timer11_isr
          314   5456: am_timer12_isr
          315   5471: am_timer13_isr
          316   5486: am_timer14_isr
          317   5501: am_timer15_isr
          318   5516: am_uart1_isr
          319   5529: am_uart2_isr
          320   5542: am_uart3_isr
          321   5555: am_uart_isr
          322   5567: am_usb_isr
          323   5578: am_vcomp_isr
          324   5591: am_watchdog_isr
          325   5607: __main
          326   5614: __scatterload
          327   5628: __scatterload_rt2
          328   5646: __scatterload_rt2_thumb_only
          329   5675: __scatterload_null
          330   5694: __decompress
          331   5707: __decompress1
          332   5721: __scatterload_copy
          333   5740: __scatterload_zeroinit
          334   5763: __rt_lib_init
          335   5777: __rt_lib_init_fp_1
          336   5796: __rt_lib_init_alloca_1
          337   5819: __rt_lib_init_argv_1
          338   5840: __rt_lib_init_atexit_1
          339   5863: __rt_lib_init_clock_1
          340   5885: __rt_lib_init_cpp_1
          341   5905: __rt_lib_init_exceptions_1
          342   5932: __rt_lib_init_fp_trap_1
          343   5956: __rt_lib_init_getenv_1
          344   5979: __rt_lib_init_heap_1
          345   6000: __rt_lib_init_lc_collate_1
          346   6027: __rt_lib_init_lc_ctype_1
          347   6052: __rt_lib_init_lc_monetary_1
          348   6080: __rt_lib_init_lc_numeric_1
          349   6107: __rt_lib_init_lc_time_1
          350   6131: __rt_lib_init_preinit_1
          351   6155: __rt_lib_init_rand_1
          352   6176: __rt_lib_init_relocate_pie_1
          353   6205: __rt_lib_init_return
          354   6226: __rt_lib_init_signal_1
          355   6249: __rt_lib_init_stdio_1
          356   6271: __rt_lib_init_user_alloc_1
          357   6298: __rt_lib_shutdown
          358   6316: __rt_lib_shutdown_cpp_1
          359   6340: __rt_lib_shutdown_fp_trap_1
          360   6368: __rt_lib_shutdown_heap_1
          361   6393: __rt_lib_shutdown_return
          362   6418: __rt_lib_shutdown_signal_1
          363   6445: __rt_lib_shutdown_stdio_1
          364   6471: __rt_lib_shutdown_user_alloc_1
          365   6502: __rt_entry
          366   6513: __rt_entry_presh_1
          367   6532: __rt_entry_sh
          368   6546: __rt_entry_li
          369   6560: __rt_entry_postsh_1
          370   6580: __rt_entry_main
          371   6596: __rt_entry_postli_1
          372   6616: __rt_exit
          373   6626: __rt_exit_ls
          374   6639: __rt_exit_prels_1
          375   6657: __rt_exit_exit
          376   6672: __user_initial_stackheap
          377   6697: __aeabi_memcpy
          378   6712: __rt_memcpy
          379   6724: _memcpy_lastbytes
          380   6742: __aeabi_memclr4
          381   6758: __aeabi_memclr8
          382   6774: __rt_memclr_w
          383   6788: _memset_w
          384   6798: __use_two_region_memory
          385   6822: __rt_heap_escrow$2region
          386   6847: __rt_heap_expand$2region
          387   6872: __aeabi_memcpy4
          388   6888: __aeabi_memcpy8
          389   6904: __rt_memcpy_w
          390   6918: _memcpy_lastbytes_aligned
          391   6944: __user_setup_stackheap
          392   6967: exit
          393   6972: __user_libspace
          394   6988: __user_perproc_libspace
          395   7012: __user_perthread_libspace
          396   7038: _sys_exit
          397   7048: __I$use$semihosting
          398   7068: __use_no_semihosting_swi
          399   7093: __semihosting_library_function
          400   7124: HardFault_Handler
          401   7142: am_bsp_itm_printf_enable
          402   7167: am_bsp_low_power_init
          403   7189: am_bsp_mspi_pins_enable
          404   7213: am_devices_mspi_psram_aps12808l_apply_ddr_timing
          405   7262: am_devices_mspi_psram_aps12808l_ddr_deinit
          406   7305: am_devices_mspi_psram_aps12808l_ddr_disable_xip
          407   7353: am_devices_mspi_psram_aps12808l_ddr_enable_scrambling
          408   7407: am_devices_mspi_psram_aps12808l_ddr_enable_xip
          409   7454: am_devices_mspi_psram_aps12808l_ddr_init
          410   7495: am_devices_mspi_psram_aps12808l_ddr_init_timing_check
          411   7549: am_devices_mspi_psram_aps12808l_ddr_read
          412   7590: am_devices_mspi_psram_aps12808l_ddr_write
          413   7632: am_getStackedReg
          414   7649: am_hal_cachectrl_config
          415   7673: am_hal_cachectrl_enable
          416   7697: am_hal_cmdq_alloc_block
          417   7721: am_hal_cmdq_disable
          418   7741: am_hal_cmdq_enable
          419   7760: am_hal_cmdq_error_resume
          420   7785: am_hal_cmdq_get_status
          421   7808: am_hal_cmdq_init
          422   7825: am_hal_cmdq_post_block
          423   7848: am_hal_cmdq_post_loop_block
          424   7876: am_hal_cmdq_release_block
          425   7902: am_hal_cmdq_reset
          426   7920: am_hal_cmdq_term
          427   7937: am_hal_daxi_config
          428   7956: am_hal_daxi_control
          429   7976: am_hal_dcu_get
          430   7991: am_hal_dcu_update
          431   8009: am_hal_delay_us
          432   8025: am_hal_delay_us_status_change
          433   8055: am_hal_delay_us_status_check
          434   8084: am_hal_fault_capture_enable
          435   8112: am_hal_fault_status_get
          436   8136: am_hal_gpio_pinconfig
          437   8158: am_hal_gpio_state_write
          438   8182: am_hal_interrupt_master_disable
          439   8214: am_hal_interrupt_master_enable
          440   8245: am_hal_interrupt_master_set
          441   8273: am_hal_itm_enable
          442   8291: am_hal_itm_print
          443   8308: am_hal_mram_info_read
          444   8330: am_hal_mspi_blocking_transfer
          445   8360: am_hal_mspi_configure
          446   8382: am_hal_mspi_control
          447   8402: am_hal_mspi_deinitialize
          448   8427: am_hal_mspi_device_configure
          449   8456: am_hal_mspi_disable
          450   8476: am_hal_mspi_enable
          451   8495: am_hal_mspi_highprio_transfer
          452   8525: am_hal_mspi_initialize
          453   8548: am_hal_mspi_interrupt_clear
          454   8576: am_hal_mspi_interrupt_disable
          455   8606: am_hal_mspi_interrupt_enable
          456   8635: am_hal_mspi_interrupt_service
          457   8665: am_hal_mspi_interrupt_status_get
          458   8698: am_hal_mspi_nonblocking_transfer
          459   8731: am_hal_mspi_power_control
          460   8757: am_hal_pwrctrl_control
          461   8780: am_hal_pwrctrl_low_power_init
          462   8810: am_hal_pwrctrl_mcu_memory_config
          463   8843: am_hal_pwrctrl_periph_disable
          464   8873: am_hal_pwrctrl_periph_enable
          465   8902: am_hal_pwrctrl_sram_config
          466   8929: am_hal_rtc_osc_disable
          467   8952: am_hal_tpiu_enable
          468   8971: am_mspi0_isr
          469   8984: am_util_delay_ms
          470   9001: am_util_delay_us
          471   9018: am_util_faultisr_collect_data
          472   9048: am_util_stdio_printf
          473   9069: am_util_stdio_printf_init
          474   9095: am_util_stdio_terminal_clear
          475   9124: am_util_stdio_vsprintf
          476   9147: am_valid_sp
          477   9159: build_dma_cmdlist
          478   9177: crypto_boost_trims
          479   9196: main
          480   9201: pfnMSPI_PSRAM_DDR_Callback
          481   9228: __aeabi_d2f
          482   9240: _d2f
          483   9245: __fpl_dnaninf
          484   9259: _fp_init
          485   9268: __fplib_config_fpu_vfp
          486   9291: __fplib_config_pureend_doubles
          487   9322: __fpl_fretinf
          488   9336: __I$use$fp
          489   9347: am_hal_cachectrl_defaults
          490   9373: am_hal_daxi_defaults
          491   9394: am_hal_pwrctrl_peripheral_control
          492   9428: g_DefaultMcuMemCfg
          493   9447: g_DefaultSRAMCfg
          494   9464: g_am_hal_bootrom_helper
          495   9488: sGlobalAccess
          496   9502: ui32DSP0Allowed
          497   9518: ui32DSP1Allowed
          498   9534: ui32MCUAllowed
          499   9549: ui32SharedAccess
          500   9566: Region$$Table$$Base
          501   9586: Region$$Table$$Limit
          502   9607: gpDcuEnable
          503   9619: gpDcuLock
          504   9629: gDcuEnable
          505   9640: gDcuDisable
          506   9652: g_ui32TrimVer
          507   9666: g_ui32origSimobuckVDDStrim
          508   9693: DDROctalCE0MSPIConfig
          509   9715: DDROctalCE1MSPIConfig
          510   9737: MSPI_PSRAM_OctalCE0MSPIConfig
          511   9767: gDDRDqsCfg
          512   9778: gDDRXipConfig
          513   9792: gDaxiConfig
          514   9804: g_AM_BSP_GPIO_MSPI1_MUX_OE
          515   9831: g_AM_BSP_GPIO_MSPI1_MUX_SEL
          516   9859: g_AM_BSP_GPIO_MSPI2_CE0
          517   9883: g_AM_BSP_GPIO_MSPI2_CE1
          518   9907: g_AM_BSP_GPIO_MSPI2_D0
          519   9930: g_AM_BSP_GPIO_MSPI2_D1
          520   9953: g_AM_BSP_GPIO_MSPI2_D2
          521   9976: g_AM_BSP_GPIO_MSPI2_D3
          522   9999: g_AM_BSP_GPIO_MSPI2_D4
          523  10022: g_AM_BSP_GPIO_MSPI2_D5
          524  10045: g_AM_BSP_GPIO_MSPI2_D6
          525  10068: g_AM_BSP_GPIO_MSPI2_D7
          526  10091: g_AM_BSP_GPIO_MSPI2_DQSDM
          527  10117: g_AM_BSP_GPIO_MSPI2_SCK
          528  10141: g_AM_BSP_GPIO_NOR_CE0
          529  10163: g_AM_BSP_GPIO_NOR_D0
          530  10184: g_AM_BSP_GPIO_NOR_D1
          531  10205: g_AM_BSP_GPIO_NOR_D2
          532  10226: g_AM_BSP_GPIO_NOR_D3
          533  10247: g_AM_BSP_GPIO_NOR_D4
          534  10268: g_AM_BSP_GPIO_NOR_D5
          535  10289: g_AM_BSP_GPIO_NOR_D6
          536  10310: g_AM_BSP_GPIO_NOR_D7
          537  10331: g_AM_BSP_GPIO_NOR_DQS
          538  10353: g_AM_BSP_GPIO_NOR_SCK
          539  10375: g_AM_BSP_GPIO_PSRAM_CE0
          540  10399: g_AM_BSP_GPIO_PSRAM_D0
          541  10422: g_AM_BSP_GPIO_PSRAM_D1
          542  10445: g_AM_BSP_GPIO_PSRAM_D10
          543  10469: g_AM_BSP_GPIO_PSRAM_D11
          544  10493: g_AM_BSP_GPIO_PSRAM_D12
          545  10517: g_AM_BSP_GPIO_PSRAM_D13
          546  10541: g_AM_BSP_GPIO_PSRAM_D14
          547  10565: g_AM_BSP_GPIO_PSRAM_D15
          548  10589: g_AM_BSP_GPIO_PSRAM_D2
          549  10612: g_AM_BSP_GPIO_PSRAM_D3
          550  10635: g_AM_BSP_GPIO_PSRAM_D4
          551  10658: g_AM_BSP_GPIO_PSRAM_D5
          552  10681: g_AM_BSP_GPIO_PSRAM_D6
          553  10704: g_AM_BSP_GPIO_PSRAM_D7
          554  10727: g_AM_BSP_GPIO_PSRAM_D8
          555  10750: g_AM_BSP_GPIO_PSRAM_D9
          556  10773: g_AM_BSP_GPIO_PSRAM_DQS0DM0
          557  10801: g_AM_BSP_GPIO_PSRAM_DQS1DM1
          558  10829: g_AM_BSP_GPIO_PSRAM_SCK
          559  10853: __libspace_start
          560  10870: __temporary_stack_top$libspace
          561  10901: DMATCBBuffer
          562  10914: MSPIDdrTimingConfig
          563  10934: gDDRAmPsram
          564  10946: gDDRMspiCfg
          565  10958: gFaultStack
          566  10970: gStartOff
          567  10980: g_AM_BSP_GPIO_ITM_SWO
          568  11002: g_TempBuf
          569  11012: g_pfnCharPrint
          570  11027: pDevHandle
          571  11038: pHandle
          572  11046: psGlobalAccessPtr
          573  11064: ui32MCUClaimed
          574  11079: ui32DSP0Claimed
          575  11095: ui32DSP1Claimed
          576  11111: 


** Section #13 '.note' (SHT_NOTE)
    Size   : 32 bytes (alignment 4)


** Section #14 '.comment' (SHT_PROGBITS)
    Size   : 1636 bytes


** Section #15 '.shstrtab' (SHT_STRTAB)
    Size   : 148 bytes

            #  Offset String
        ====================================

            1      1: MCU_MRAM
            2     10: MCU_TCM
            3     18: SHARED_SRAM
            4     30: .debug_abbrev
            5     44: .debug_frame
            6     57: .debug_info
            7     69: .debug_line
            8     81: .debug_ranges
            9     95: .debug_str
           10    106: .symtab
           11    114: .strtab
           12    122: .note
           13    128: .comment
           14    137: .shstrtab
           15    147: 


