
========================================================================

** ELF Header Information

    File Name: bin\ios_fifo_host.axf

    Machine class: ELFCLASS32 (32-bit)
    Data encoding: ELFDATA2LSB (Little endian)
    Header version: EV_CURRENT (Current version)
    Operating System ABI: none
    ABI Version: 0
    File Type: ET_EXEC (Executable) (2)
    Machine: EM_ARM (ARM)

    Image Entry point: 0x00018235
    Flags: EF_ARM_HASENTRY + EF_ARM_ABI_FLOAT_HARD (0x05000402)

    ARM ELF revision: 5 (ABI version 2)

    Conforms to Hard float procedure-call standard

    Built with
    Component: Arm Compiler for Embedded 6.19 Tool: armasm [5e73cb00]
    Component: Arm Compiler for Embedded 6.19 Tool: armlink [5e73cb00]

    Header size: 52 bytes (0x34)
    Program header entry size: 32 bytes (0x20)
    Section header entry size: 40 bytes (0x28)

    Program header entries: 1
    Section header entries: 16

    Program header offset: 67456 (0x00010780)
    Section header offset: 67488 (0x000107a0)

    Section header string table index: 15

========================================================================

** Program header #0 (PT_LOAD) [PF_X + PF_W + PF_R + PF_ARM_ENTRY]
    Size : 46488 bytes (19888 bytes in file)
    Virtual address: 0x00018000 (Alignment 8)


========================================================================

** Section #1 'MCU_MRAM' (SHT_PROGBITS) [SHF_ALLOC + SHF_EXECINSTR]
    Size   : 19564 bytes (alignment 4)
    Address: 0x00018000

    $d
    RESET
    __Vectors
        0x00018000:    100068e8    .h..    DCD    268462312
        0x00018004:    00018201    ....    DCD    98817
        0x00018008:    0001821f    ....    DCD    98847
        0x0001800c:    0001821d    ....    DCD    98845
        0x00018010:    00018221    !...    DCD    98849
        0x00018014:    00018223    #...    DCD    98851
        0x00018018:    00018225    %...    DCD    98853
        0x0001801c:    00000000    ....    DCD    0
        0x00018020:    00000000    ....    DCD    0
        0x00018024:    00000000    ....    DCD    0
        0x00018028:    00000000    ....    DCD    0
        0x0001802c:    00018227    '...    DCD    98855
        0x00018030:    00018229    )...    DCD    98857
        0x00018034:    00000000    ....    DCD    0
        0x00018038:    0001822b    +...    DCD    98859
        0x0001803c:    0001822d    -...    DCD    98861
        0x00018040:    0001822f    /...    DCD    98863
        0x00018044:    0001822f    /...    DCD    98863
        0x00018048:    0001822f    /...    DCD    98863
        0x0001804c:    0001822f    /...    DCD    98863
        0x00018050:    0001822f    /...    DCD    98863
        0x00018054:    0001822f    /...    DCD    98863
        0x00018058:    0001822f    /...    DCD    98863
        0x0001805c:    0001822f    /...    DCD    98863
        0x00018060:    0001822f    /...    DCD    98863
        0x00018064:    0001822f    /...    DCD    98863
        0x00018068:    0001822f    /...    DCD    98863
        0x0001806c:    0001822f    /...    DCD    98863
        0x00018070:    0001822f    /...    DCD    98863
        0x00018074:    0001822f    /...    DCD    98863
        0x00018078:    0001822f    /...    DCD    98863
        0x0001807c:    0001822f    /...    DCD    98863
        0x00018080:    0001822f    /...    DCD    98863
        0x00018084:    0001822f    /...    DCD    98863
        0x00018088:    0001822f    /...    DCD    98863
        0x0001808c:    0001822f    /...    DCD    98863
        0x00018090:    0001822f    /...    DCD    98863
        0x00018094:    0001822f    /...    DCD    98863
        0x00018098:    0001822f    /...    DCD    98863
        0x0001809c:    0001822f    /...    DCD    98863
        0x000180a0:    0001822f    /...    DCD    98863
        0x000180a4:    0001822f    /...    DCD    98863
        0x000180a8:    0001822f    /...    DCD    98863
        0x000180ac:    0001822f    /...    DCD    98863
        0x000180b0:    0001822f    /...    DCD    98863
        0x000180b4:    0001822f    /...    DCD    98863
        0x000180b8:    0001822f    /...    DCD    98863
        0x000180bc:    0001822f    /...    DCD    98863
        0x000180c0:    0001822f    /...    DCD    98863
        0x000180c4:    0001822f    /...    DCD    98863
        0x000180c8:    0001822f    /...    DCD    98863
        0x000180cc:    0001822f    /...    DCD    98863
        0x000180d0:    0001822f    /...    DCD    98863
        0x000180d4:    0001822f    /...    DCD    98863
        0x000180d8:    0001822f    /...    DCD    98863
        0x000180dc:    0001822f    /...    DCD    98863
        0x000180e0:    0001822f    /...    DCD    98863
        0x000180e4:    0001822f    /...    DCD    98863
        0x000180e8:    0001822f    /...    DCD    98863
        0x000180ec:    0001822f    /...    DCD    98863
        0x000180f0:    0001822f    /...    DCD    98863
        0x000180f4:    0001822f    /...    DCD    98863
        0x000180f8:    0001822f    /...    DCD    98863
        0x000180fc:    0001822f    /...    DCD    98863
        0x00018100:    0001822f    /...    DCD    98863
        0x00018104:    0001822f    /...    DCD    98863
        0x00018108:    0001822f    /...    DCD    98863
        0x0001810c:    0001822f    /...    DCD    98863
        0x00018110:    0001822f    /...    DCD    98863
        0x00018114:    0001822f    /...    DCD    98863
        0x00018118:    0001822f    /...    DCD    98863
        0x0001811c:    0001822f    /...    DCD    98863
        0x00018120:    000187e9    ....    DCD    100329
        0x00018124:    0001822f    /...    DCD    98863
        0x00018128:    0001822f    /...    DCD    98863
        0x0001812c:    0001822f    /...    DCD    98863
        0x00018130:    0001822f    /...    DCD    98863
        0x00018134:    0001822f    /...    DCD    98863
        0x00018138:    0001822f    /...    DCD    98863
        0x0001813c:    0001822f    /...    DCD    98863
        0x00018140:    0001822f    /...    DCD    98863
        0x00018144:    0001822f    /...    DCD    98863
        0x00018148:    0001822f    /...    DCD    98863
        0x0001814c:    0001822f    /...    DCD    98863
        0x00018150:    0001822f    /...    DCD    98863
        0x00018154:    0001822f    /...    DCD    98863
        0x00018158:    0001822f    /...    DCD    98863
        0x0001815c:    0001822f    /...    DCD    98863
        0x00018160:    0001822f    /...    DCD    98863
        0x00018164:    0001822f    /...    DCD    98863
        0x00018168:    0001822f    /...    DCD    98863
        0x0001816c:    0001822f    /...    DCD    98863
        0x00018170:    0001822f    /...    DCD    98863
        0x00018174:    0001822f    /...    DCD    98863
        0x00018178:    0001822f    /...    DCD    98863
        0x0001817c:    0001822f    /...    DCD    98863
        0x00018180:    0001822f    /...    DCD    98863
        0x00018184:    0001822f    /...    DCD    98863
        0x00018188:    0001822f    /...    DCD    98863
        0x0001818c:    0001822f    /...    DCD    98863
    __Patchable
        0x00018190:    00000000    ....    DCD    0
        0x00018194:    00000000    ....    DCD    0
        0x00018198:    00000000    ....    DCD    0
        0x0001819c:    00000000    ....    DCD    0
        0x000181a0:    00000000    ....    DCD    0
        0x000181a4:    00000000    ....    DCD    0
        0x000181a8:    00000000    ....    DCD    0
        0x000181ac:    00000000    ....    DCD    0
        0x000181b0:    00000000    ....    DCD    0
        0x000181b4:    00000000    ....    DCD    0
        0x000181b8:    00000000    ....    DCD    0
        0x000181bc:    00000000    ....    DCD    0
        0x000181c0:    00000000    ....    DCD    0
        0x000181c4:    00000000    ....    DCD    0
        0x000181c8:    00000000    ....    DCD    0
        0x000181cc:    00000000    ....    DCD    0
        0x000181d0:    00000000    ....    DCD    0
        0x000181d4:    00000000    ....    DCD    0
        0x000181d8:    00000000    ....    DCD    0
        0x000181dc:    00000000    ....    DCD    0
        0x000181e0:    00000000    ....    DCD    0
        0x000181e4:    00000000    ....    DCD    0
        0x000181e8:    00000000    ....    DCD    0
        0x000181ec:    00000000    ....    DCD    0
        0x000181f0:    00000000    ....    DCD    0
        0x000181f4:    00000000    ....    DCD    0
        0x000181f8:    00000000    ....    DCD    0
        0x000181fc:    00000000    ....    DCD    0
    $t
    $v0
    Reset_Handler
        0x00018200:    f64e5088    N..P    MOV      r0,#0xed88
        0x00018204:    f2ce0000    ....    MOVT     r0,#0xe000
        0x00018208:    6801        .h      LDR      r1,[r0,#0]
        0x0001820a:    f4410170    A.p.    ORR      r1,r1,#0xf00000
        0x0001820e:    6001        .`      STR      r1,[r0,#0]
        0x00018210:    f3bf8f4f    ..O.    DSB      
        0x00018214:    f3bf8f6f    ..o.    ISB      
        0x00018218:    4805        .H      LDR      r0,[pc,#20] ; [0x18230] = 0x18235
        0x0001821a:    4700        .G      BX       r0
    HardFault_Handler
        0x0001821c:    e7fe        ..      B        HardFault_Handler ; 0x1821c
    NMI_Handler
        0x0001821e:    e7fe        ..      B        NMI_Handler ; 0x1821e
    MemManage_Handler
        0x00018220:    e7fe        ..      B        MemManage_Handler ; 0x18220
    BusFault_Handler
        0x00018222:    e7fe        ..      B        BusFault_Handler ; 0x18222
    UsageFault_Handler
        0x00018224:    e7fe        ..      B        UsageFault_Handler ; 0x18224
    SVC_Handler
        0x00018226:    e7fe        ..      B        SVC_Handler ; 0x18226
    DebugMon_Handler
        0x00018228:    e7fe        ..      B        DebugMon_Handler ; 0x18228
    PendSV_Handler
        0x0001822a:    e7fe        ..      B        PendSV_Handler ; 0x1822a
    SysTick_Handler
        0x0001822c:    e7fe        ..      B        SysTick_Handler ; 0x1822c
    am_cryptosec_isr
    am_default_isr
    am_adc_isr
    am_audadc0_isr
    am_brownout_isr
    am_cachecpu_isr
    am_clkgen_isr
    am_ctimer_isr
    am_disp_isr
    am_dsi_isr
    am_dspi2s0_isr
    am_dspi2s1_isr
    am_dspi2s2_isr
    am_dspi2s3_isr
    am_gpio0_203f_isr
    am_gpio0_405f_isr
    am_gpio0_607f_isr
    am_gpio1_001f_isr
    am_gpio1_203f_isr
    am_gpio1_405f_isr
    am_gpio1_607f_isr
    am_gpu_isr
    am_iomaster0_isr
    am_iomaster1_isr
    am_iomaster2_isr
    am_iomaster3_isr
    am_iomaster4_isr
    am_iomaster5_isr
    am_iomaster6_isr
    am_iomaster7_isr
    am_ioslave_acc_isr
    am_ioslave_ios_isr
    am_mspi0_isr
    am_mspi1_isr
    am_mspi2_isr
    am_pdm0_isr
    am_pdm1_isr
    am_pdm2_isr
    am_pdm3_isr
    am_rtc_isr
    am_sdio_isr
    am_stimer_cmpr0_isr
    am_stimer_cmpr1_isr
    am_stimer_cmpr2_isr
    am_stimer_cmpr3_isr
    am_stimer_cmpr4_isr
    am_stimer_cmpr5_isr
    am_stimer_cmpr6_isr
    am_stimer_cmpr7_isr
    am_stimerof_isr
    am_timer00_isr
    am_timer01_isr
    am_timer02_isr
    am_timer03_isr
    am_timer04_isr
    am_timer05_isr
    am_timer06_isr
    am_timer07_isr
    am_timer08_isr
    am_timer09_isr
    am_timer10_isr
    am_timer11_isr
    am_timer12_isr
    am_timer13_isr
    am_timer14_isr
    am_timer15_isr
    am_uart1_isr
    am_uart2_isr
    am_uart3_isr
    am_uart_isr
    am_usb_isr
    am_vcomp_isr
    am_watchdog_isr
        0x0001822e:    e7fe        ..      B        am_cryptosec_isr ; 0x1822e
    $d
        0x00018230:    00018235    5...    DCD    98869
    $t
    !!!main
    __main
        0x00018234:    f000f802    ....    BL       __scatterload ; 0x1823c
        0x00018238:    f000f86a    ..j.    BL       __rt_entry ; 0x18310
    !!!scatter
    __scatterload
    __scatterload_rt2
    __scatterload_rt2_thumb_only
        0x0001823c:    a00a        ..      ADR      r0,{pc}+0x2c ; 0x18268
        0x0001823e:    e8900c00    ....    LDM      r0,{r10,r11}
        0x00018242:    4482        .D      ADD      r10,r10,r0
        0x00018244:    4483        .D      ADD      r11,r11,r0
        0x00018246:    f1aa0701    ....    SUB      r7,r10,#1
    __scatterload_null
        0x0001824a:    45da        .E      CMP      r10,r11
        0x0001824c:    d101        ..      BNE      0x18252 ; __scatterload_null + 8
        0x0001824e:    f000f85f    .._.    BL       __rt_entry ; 0x18310
        0x00018252:    f2af0e09    ....    ADR      lr,{pc}-7 ; 0x1824b
        0x00018256:    e8ba000f    ....    LDM      r10!,{r0-r3}
        0x0001825a:    f0130f01    ....    TST      r3,#1
        0x0001825e:    bf18        ..      IT       NE
        0x00018260:    1afb        ..      SUBNE    r3,r7,r3
        0x00018262:    f0430301    C...    ORR      r3,r3,#1
        0x00018266:    4718        .G      BX       r3
    $d
        0x00018268:    000049d4    .I..    DCD    18900
        0x0001826c:    00004a04    .J..    DCD    18948
    $t
    !!dczerorl2
    __decompress
    __decompress1
        0x00018270:    440a        .D      ADD      r2,r2,r1
        0x00018272:    f04f0c00    O...    MOV      r12,#0
        0x00018276:    f8103b01    ...;    LDRB     r3,[r0],#1
        0x0001827a:    f0130407    ....    ANDS     r4,r3,#7
        0x0001827e:    bf08        ..      IT       EQ
        0x00018280:    f8104b01    ...K    LDRBEQ   r4,[r0],#1
        0x00018284:    111d        ..      ASRS     r5,r3,#4
        0x00018286:    bf08        ..      IT       EQ
        0x00018288:    f8105b01    ...[    LDRBEQ   r5,[r0],#1
        0x0001828c:    1e64        d.      SUBS     r4,r4,#1
        0x0001828e:    d005        ..      BEQ      0x1829c ; __decompress + 44
        0x00018290:    f8106b01    ...k    LDRB     r6,[r0],#1
        0x00018294:    1e64        d.      SUBS     r4,r4,#1
        0x00018296:    f8016b01    ...k    STRB     r6,[r1],#1
        0x0001829a:    d1f9        ..      BNE      0x18290 ; __decompress + 32
        0x0001829c:    f0130f08    ....    TST      r3,#8
        0x000182a0:    bf1e        ..      ITTT     NE
        0x000182a2:    f8104b01    ...K    LDRBNE   r4,[r0],#1
        0x000182a6:    1cad        ..      ADDNE    r5,r5,#2
        0x000182a8:    1b0c        ..      SUBNE    r4,r1,r4
        0x000182aa:    d109        ..      BNE      0x182c0 ; __decompress + 80
        0x000182ac:    1e6d        m.      SUBS     r5,r5,#1
        0x000182ae:    bf58        X.      IT       PL
        0x000182b0:    f801cb01    ....    STRBPL   r12,[r1],#1
        0x000182b4:    d5fa        ..      BPL      0x182ac ; __decompress + 60
        0x000182b6:    e005        ..      B        0x182c4 ; __decompress + 84
        0x000182b8:    f8146b01    ...k    LDRB     r6,[r4],#1
        0x000182bc:    f8016b01    ...k    STRB     r6,[r1],#1
        0x000182c0:    1e6d        m.      SUBS     r5,r5,#1
        0x000182c2:    d5f9        ..      BPL      0x182b8 ; __decompress + 72
        0x000182c4:    4291        .B      CMP      r1,r2
        0x000182c6:    d3d6        ..      BCC      0x18276 ; __decompress + 6
        0x000182c8:    4770        pG      BX       lr
        0x000182ca:    0000        ..      MOVS     r0,r0
    !!handler_copy
    __scatterload_copy
        0x000182cc:    3a10        .:      SUBS     r2,r2,#0x10
        0x000182ce:    bf24        $.      ITT      CS
        0x000182d0:    c878        x.      LDMCS    r0!,{r3-r6}
        0x000182d2:    c178        x.      STMCS    r1!,{r3-r6}
        0x000182d4:    d8fa        ..      BHI      __scatterload_copy ; 0x182cc
        0x000182d6:    0752        R.      LSLS     r2,r2,#29
        0x000182d8:    bf24        $.      ITT      CS
        0x000182da:    c830        0.      LDMCS    r0!,{r4,r5}
        0x000182dc:    c130        0.      STMCS    r1!,{r4,r5}
        0x000182de:    bf44        D.      ITT      MI
        0x000182e0:    6804        .h      LDRMI    r4,[r0,#0]
        0x000182e2:    600c        .`      STRMI    r4,[r1,#0]
        0x000182e4:    4770        pG      BX       lr
        0x000182e6:    0000        ..      MOVS     r0,r0
    !!handler_zi
    __scatterload_zeroinit
        0x000182e8:    2300        .#      MOVS     r3,#0
        0x000182ea:    2400        .$      MOVS     r4,#0
        0x000182ec:    2500        .%      MOVS     r5,#0
        0x000182ee:    2600        .&      MOVS     r6,#0
        0x000182f0:    3a10        .:      SUBS     r2,r2,#0x10
        0x000182f2:    bf28        (.      IT       CS
        0x000182f4:    c178        x.      STMCS    r1!,{r3-r6}
        0x000182f6:    d8fb        ..      BHI      0x182f0 ; __scatterload_zeroinit + 8
        0x000182f8:    0752        R.      LSLS     r2,r2,#29
        0x000182fa:    bf28        (.      IT       CS
        0x000182fc:    c130        0.      STMCS    r1!,{r4,r5}
        0x000182fe:    bf48        H.      IT       MI
        0x00018300:    600b        .`      STRMI    r3,[r1,#0]
        0x00018302:    4770        pG      BX       lr
    .ARM.Collect$$libinit$$00000000
    __rt_lib_init
        0x00018304:    b51f        ..      PUSH     {r0-r4,lr}
    .ARM.Collect$$libinit$$00000001
    __rt_lib_init_fp_1
        0x00018306:    f004f9f6    ....    BL       _fp_init ; 0x1c6f6
    .ARM.Collect$$libinit$$00000004
    .ARM.Collect$$libinit$$00000006
    .ARM.Collect$$libinit$$0000000C
    .ARM.Collect$$libinit$$0000000E
    .ARM.Collect$$libinit$$00000010
    .ARM.Collect$$libinit$$00000013
    .ARM.Collect$$libinit$$00000015
    .ARM.Collect$$libinit$$00000017
    .ARM.Collect$$libinit$$00000019
    .ARM.Collect$$libinit$$0000001B
    .ARM.Collect$$libinit$$0000001D
    .ARM.Collect$$libinit$$0000001F
    .ARM.Collect$$libinit$$00000021
    .ARM.Collect$$libinit$$00000023
    .ARM.Collect$$libinit$$00000025
    .ARM.Collect$$libinit$$00000027
    .ARM.Collect$$libinit$$0000002E
    .ARM.Collect$$libinit$$00000030
    .ARM.Collect$$libinit$$00000032
    .ARM.Collect$$libinit$$00000034
    .ARM.Collect$$libinit$$00000035
    __rt_lib_init_alloca_1
    __rt_lib_init_argv_1
    __rt_lib_init_atexit_1
    __rt_lib_init_clock_1
    __rt_lib_init_cpp_1
    __rt_lib_init_exceptions_1
    __rt_lib_init_fp_trap_1
    __rt_lib_init_getenv_1
    __rt_lib_init_heap_1
    __rt_lib_init_lc_collate_1
    __rt_lib_init_lc_ctype_1
    __rt_lib_init_lc_monetary_1
    __rt_lib_init_lc_numeric_1
    __rt_lib_init_lc_time_1
    __rt_lib_init_preinit_1
    __rt_lib_init_rand_1
    __rt_lib_init_relocate_pie_1
    __rt_lib_init_return
    __rt_lib_init_signal_1
    __rt_lib_init_stdio_1
    __rt_lib_init_user_alloc_1
        0x0001830a:    bd1f        ..      POP      {r0-r4,pc}
    .ARM.Collect$$libshutdown$$00000000
    __rt_lib_shutdown
        0x0001830c:    b510        ..      PUSH     {r4,lr}
    .ARM.Collect$$libshutdown$$00000002
    .ARM.Collect$$libshutdown$$00000004
    .ARM.Collect$$libshutdown$$00000007
    .ARM.Collect$$libshutdown$$0000000A
    .ARM.Collect$$libshutdown$$0000000C
    .ARM.Collect$$libshutdown$$0000000F
    .ARM.Collect$$libshutdown$$00000010
    __rt_lib_shutdown_cpp_1
    __rt_lib_shutdown_fp_trap_1
    __rt_lib_shutdown_heap_1
    __rt_lib_shutdown_return
    __rt_lib_shutdown_signal_1
    __rt_lib_shutdown_stdio_1
    __rt_lib_shutdown_user_alloc_1
        0x0001830e:    bd10        ..      POP      {r4,pc}
    .ARM.Collect$$rtentry$$00000000
    .ARM.Collect$$rtentry$$00000002
    .ARM.Collect$$rtentry$$00000004
    __rt_entry
    __rt_entry_presh_1
    __rt_entry_sh
        0x00018310:    f000f81d    ....    BL       __user_setup_stackheap ; 0x1834e
        0x00018314:    4611        .F      MOV      r1,r2
    .ARM.Collect$$rtentry$$00000009
    .ARM.Collect$$rtentry$$0000000A
    __rt_entry_li
    __rt_entry_postsh_1
        0x00018316:    f7fffff5    ....    BL       __rt_lib_init ; 0x18304
    .ARM.Collect$$rtentry$$0000000C
    .ARM.Collect$$rtentry$$0000000D
    __rt_entry_main
    __rt_entry_postli_1
        0x0001831a:    f003fee7    ....    BL       main ; 0x1c0ec
        0x0001831e:    f000f83b    ..;.    BL       exit ; 0x18398
    .ARM.Collect$$rtexit$$00000000
    __rt_exit
        0x00018322:    b403        ..      PUSH     {r0,r1}
    .ARM.Collect$$rtexit$$00000002
    .ARM.Collect$$rtexit$$00000003
    __rt_exit_ls
    __rt_exit_prels_1
        0x00018324:    f7fffff2    ....    BL       __rt_lib_shutdown ; 0x1830c
    .ARM.Collect$$rtexit$$00000004
    __rt_exit_exit
        0x00018328:    bc03        ..      POP      {r0,r1}
        0x0001832a:    f000f843    ..C.    BL       _sys_exit ; 0x183b4
        0x0001832e:    0000        ..      MOVS     r0,r0
    .text
    $v0
    __user_initial_stackheap
        0x00018330:    4802        .H      LDR      r0,[pc,#8] ; [0x1833c] = 0x100058e8
        0x00018332:    4903        .I      LDR      r1,[pc,#12] ; [0x18340] = 0x100068e8
        0x00018334:    4a01        .J      LDR      r2,[pc,#4] ; [0x1833c] = 0x100058e8
        0x00018336:    4b03        .K      LDR      r3,[pc,#12] ; [0x18344] = 0x100058e8
        0x00018338:    4770        pG      BX       lr
    $d
        0x0001833a:    0000        ..      DCW    0
        0x0001833c:    100058e8    .X..    DCD    268458216
        0x00018340:    100068e8    .h..    DCD    268462312
        0x00018344:    100058e8    .X..    DCD    268458216
    $t
    .text
    __use_two_region_memory
        0x00018348:    4770        pG      BX       lr
    __rt_heap_escrow$2region
        0x0001834a:    4770        pG      BX       lr
    __rt_heap_expand$2region
        0x0001834c:    4770        pG      BX       lr
    .text
    __user_setup_stackheap
        0x0001834e:    4675        uF      MOV      r5,lr
        0x00018350:    f000f82c    ..,.    BL       __user_libspace ; 0x183ac
        0x00018354:    46ae        .F      MOV      lr,r5
        0x00018356:    0005        ..      MOVS     r5,r0
        0x00018358:    4669        iF      MOV      r1,sp
        0x0001835a:    4653        SF      MOV      r3,r10
        0x0001835c:    f0200007     ...    BIC      r0,r0,#7
        0x00018360:    4685        .F      MOV      sp,r0
        0x00018362:    b018        ..      ADD      sp,sp,#0x60
        0x00018364:    b520         .      PUSH     {r5,lr}
        0x00018366:    f7ffffe3    ....    BL       __user_initial_stackheap ; 0x18330
        0x0001836a:    e8bd4020    .. @    POP      {r5,lr}
        0x0001836e:    f04f0600    O...    MOV      r6,#0
        0x00018372:    f04f0700    O...    MOV      r7,#0
        0x00018376:    f04f0800    O...    MOV      r8,#0
        0x0001837a:    f04f0b00    O...    MOV      r11,#0
        0x0001837e:    46ac        .F      MOV      r12,r5
        0x00018380:    e8ac09c0    ....    STM      r12!,{r6-r8,r11}
        0x00018384:    e8ac09c0    ....    STM      r12!,{r6-r8,r11}
        0x00018388:    e8ac09c0    ....    STM      r12!,{r6-r8,r11}
        0x0001838c:    e8ac09c0    ....    STM      r12!,{r6-r8,r11}
        0x00018390:    f0210107    !...    BIC      r1,r1,#7
        0x00018394:    468d        .F      MOV      sp,r1
        0x00018396:    4770        pG      BX       lr
    .text
    exit
        0x00018398:    b510        ..      PUSH     {r4,lr}
        0x0001839a:    4604        .F      MOV      r4,r0
        0x0001839c:    f3af8000    ....    NOP.W    
        0x000183a0:    4620         F      MOV      r0,r4
        0x000183a2:    e8bd4010    ...@    POP      {r4,lr}
        0x000183a6:    f7ffbfbc    ....    B.W      __rt_exit ; 0x18322
        0x000183aa:    0000        ..      MOVS     r0,r0
    .text
    __user_libspace
    __user_perproc_libspace
    __user_perthread_libspace
        0x000183ac:    4800        .H      LDR      r0,[pc,#0] ; [0x183b0] = 0x10000100
        0x000183ae:    4770        pG      BX       lr
    $d
        0x000183b0:    10000100    ....    DCD    268435712
    $t
    .text
    _sys_exit
        0x000183b4:    4901        .I      LDR      r1,[pc,#4] ; [0x183bc] = 0x20026
        0x000183b6:    2018        .       MOVS     r0,#0x18
        0x000183b8:    beab        ..      BKPT     #0xab
        0x000183ba:    e7fe        ..      B        0x183ba ; _sys_exit + 6
    $d
        0x000183bc:    00020026    &...    DCD    131110
    $t
    .text
    __I$use$semihosting
    __use_no_semihosting_swi
        0x000183c0:    4770        pG      BX       lr
    .text
    __semihosting_library_function
        0x000183c2:    0000        ..      MOVS     r0,r0
    $t.10
    __NVIC_EnableIRQ
        0x000183c4:    b081        ..      SUB      sp,sp,#4
        0x000183c6:    f88d0003    ....    STRB     r0,[sp,#3]
        0x000183ca:    f99d0003    ....    LDRSB    r0,[sp,#3]
        0x000183ce:    2800        .(      CMP      r0,#0
        0x000183d0:    d40e        ..      BMI      0x183f0 ; __NVIC_EnableIRQ + 44
        0x000183d2:    e7ff        ..      B        0x183d4 ; __NVIC_EnableIRQ + 16
        0x000183d4:    f99d1003    ....    LDRSB    r1,[sp,#3]
        0x000183d8:    f001021f    ....    AND      r2,r1,#0x1f
        0x000183dc:    2001        .       MOVS     r0,#1
        0x000183de:    4090        .@      LSLS     r0,r0,r2
        0x000183e0:    094a        J.      LSRS     r2,r1,#5
        0x000183e2:    f24e1100    N...    MOVW     r1,#0xe100
        0x000183e6:    f2ce0100    ....    MOVT     r1,#0xe000
        0x000183ea:    f8410022    A.".    STR      r0,[r1,r2,LSL #2]
        0x000183ee:    e7ff        ..      B        0x183f0 ; __NVIC_EnableIRQ + 44
        0x000183f0:    b001        ..      ADD      sp,sp,#4
        0x000183f2:    4770        pG      BX       lr
    __NVIC_SetPriority
        0x000183f4:    b082        ..      SUB      sp,sp,#8
        0x000183f6:    f88d0007    ....    STRB     r0,[sp,#7]
        0x000183fa:    9100        ..      STR      r1,[sp,#0]
        0x000183fc:    f99d0007    ....    LDRSB    r0,[sp,#7]
        0x00018400:    2800        .(      CMP      r0,#0
        0x00018402:    d40a        ..      BMI      0x1841a ; __NVIC_SetPriority + 38
        0x00018404:    e7ff        ..      B        0x18406 ; __NVIC_SetPriority + 18
        0x00018406:    9800        ..      LDR      r0,[sp,#0]
        0x00018408:    0140        @.      LSLS     r0,r0,#5
        0x0001840a:    f99d1007    ....    LDRSB    r1,[sp,#7]
        0x0001840e:    f24e4200    N..B    MOVW     r2,#0xe400
        0x00018412:    f2ce0200    ....    MOVT     r2,#0xe000
        0x00018416:    5488        .T      STRB     r0,[r1,r2]
        0x00018418:    e00b        ..      B        0x18432 ; __NVIC_SetPriority + 62
        0x0001841a:    9800        ..      LDR      r0,[sp,#0]
        0x0001841c:    0140        @.      LSLS     r0,r0,#5
        0x0001841e:    f89d1007    ....    LDRB     r1,[sp,#7]
        0x00018422:    f001010f    ....    AND      r1,r1,#0xf
        0x00018426:    f64e5214    N..R    MOV      r2,#0xed14
        0x0001842a:    f2ce0200    ....    MOVT     r2,#0xe000
        0x0001842e:    5488        .T      STRB     r0,[r1,r2]
        0x00018430:    e7ff        ..      B        0x18432 ; __NVIC_SetPriority + 62
        0x00018432:    b002        ..      ADD      sp,sp,#8
        0x00018434:    4770        pG      BX       lr
        0x00018436:    0000        ..      MOVS     r0,r0
    am_bsp_iom_pins_enable
        0x00018438:    b5b0        ..      PUSH     {r4,r5,r7,lr}
        0x0001843a:    2807        .(      CMP      r0,#7
        0x0001843c:    d900        ..      BLS      0x18440 ; am_bsp_iom_pins_enable + 8
        0x0001843e:    bdb0        ..      POP      {r4,r5,r7,pc}
        0x00018440:    ea410280    A...    ORR      r2,r1,r0,LSL #2
        0x00018444:    2a1d        .*      CMP      r2,#0x1d
        0x00018446:    bf88        ..      IT       HI
        0x00018448:    bdb0        ..      POPHI    {r4,r5,r7,pc}
        0x0001844a:    f2400538    @.8.    MOVW     r5,#0x38
        0x0001844e:    f2400134    @.4.    MOVW     r1,#0x34
        0x00018452:    2406        .$      MOVS     r4,#6
        0x00018454:    f2c10500    ....    MOVT     r5,#0x1000
        0x00018458:    2005        .       MOVS     r0,#5
        0x0001845a:    f2c10100    ....    MOVT     r1,#0x1000
        0x0001845e:    e8dff012    ....    TBH      [pc,r2,LSL #1]
    $d.16
        0x00018462:    0021        !.      DCW    33
        0x00018464:    001f0153    S...    DCD    2031955
        0x00018468:    003d001f    ..=.    DCD    3997727
        0x0001846c:    001f0059    Y...    DCD    2031705
        0x00018470:    0065001f    ..e.    DCD    6619167
        0x00018474:    001f0081    ....    DCD    2031745
        0x00018478:    008d001f    ....    DCD    9240607
        0x0001847c:    001f00a9    ....    DCD    2031785
        0x00018480:    00b5001f    ....    DCD    11862047
        0x00018484:    001f00d1    ....    DCD    2031825
        0x00018488:    00dd001f    ....    DCD    14483487
        0x0001848c:    001f00f9    ....    DCD    2031865
        0x00018490:    0105001f    ....    DCD    17104927
        0x00018494:    001f0121    !...    DCD    2031905
        0x00018498:    012d001f    ..-.    DCD    19726367
        0x0001849c:    bf000149    I...    DCD    3204448585
    $t.17
        0x000184a0:    e7cd        ..      B        0x1843e ; am_bsp_iom_pins_enable + 6
        0x000184a2:    bf00        ..      NOP      
        0x000184a4:    f2400030    @.0.    MOVW     r0,#0x30
        0x000184a8:    f2c10000    ....    MOVT     r0,#0x1000
        0x000184ac:    6801        .h      LDR      r1,[r0,#0]
        0x000184ae:    2005        .       MOVS     r0,#5
        0x000184b0:    f000fe34    ..4.    BL       am_hal_gpio_pinconfig ; 0x1911c
        0x000184b4:    f2403078    @.x0    MOVW     r0,#0x378
        0x000184b8:    f2c10000    ....    MOVT     r0,#0x1000
        0x000184bc:    6801        .h      LDR      r1,[r0,#0]
        0x000184be:    2007        .       MOVS     r0,#7
        0x000184c0:    f000fe2c    ..,.    BL       am_hal_gpio_pinconfig ; 0x1911c
        0x000184c4:    f2400528    @.(.    MOVW     r5,#0x28
        0x000184c8:    f240012c    @.,.    MOVW     r1,#0x2c
        0x000184cc:    2448        H$      MOVS     r4,#0x48
        0x000184ce:    f2c10500    ....    MOVT     r5,#0x1000
        0x000184d2:    2006        .       MOVS     r0,#6
        0x000184d4:    f2c10100    ....    MOVT     r1,#0x1000
        0x000184d8:    e116        ..      B        0x18708 ; am_bsp_iom_pins_enable + 720
        0x000184da:    bf00        ..      NOP      
        0x000184dc:    f2400048    @.H.    MOVW     r0,#0x48
        0x000184e0:    f2c10000    ....    MOVT     r0,#0x1000
        0x000184e4:    6801        .h      LDR      r1,[r0,#0]
        0x000184e6:    2008        .       MOVS     r0,#8
        0x000184e8:    f000fe18    ....    BL       am_hal_gpio_pinconfig ; 0x1911c
        0x000184ec:    f2400040    @.@.    MOVW     r0,#0x40
        0x000184f0:    f2c10000    ....    MOVT     r0,#0x1000
        0x000184f4:    6801        .h      LDR      r1,[r0,#0]
        0x000184f6:    200a        .       MOVS     r0,#0xa
        0x000184f8:    f000fe10    ....    BL       am_hal_gpio_pinconfig ; 0x1911c
        0x000184fc:    f240053c    @.<.    MOVW     r5,#0x3c
        0x00018500:    f2400144    @.D.    MOVW     r1,#0x44
        0x00018504:    240b        .$      MOVS     r4,#0xb
        0x00018506:    f2c10500    ....    MOVT     r5,#0x1000
        0x0001850a:    2009        .       MOVS     r0,#9
        0x0001850c:    f2c10100    ....    MOVT     r1,#0x1000
        0x00018510:    e0fa        ..      B        0x18708 ; am_bsp_iom_pins_enable + 720
        0x00018512:    bf00        ..      NOP      
        0x00018514:    f2400550    @.P.    MOVW     r5,#0x50
        0x00018518:    f240014c    @.L.    MOVW     r1,#0x4c
        0x0001851c:    2409        .$      MOVS     r4,#9
        0x0001851e:    f2c10500    ....    MOVT     r5,#0x1000
        0x00018522:    2008        .       MOVS     r0,#8
        0x00018524:    f2c10100    ....    MOVT     r1,#0x1000
        0x00018528:    e0ee        ..      B        0x18708 ; am_bsp_iom_pins_enable + 720
        0x0001852a:    bf00        ..      NOP      
        0x0001852c:    f240005c    @.\.    MOVW     r0,#0x5c
        0x00018530:    f2c10000    ....    MOVT     r0,#0x1000
        0x00018534:    6801        .h      LDR      r1,[r0,#0]
        0x00018536:    2019        .       MOVS     r0,#0x19
        0x00018538:    f000fdf0    ....    BL       am_hal_gpio_pinconfig ; 0x1911c
        0x0001853c:    f240307c    @.|0    MOVW     r0,#0x37c
        0x00018540:    f2c10000    ....    MOVT     r0,#0x1000
        0x00018544:    6801        .h      LDR      r1,[r0,#0]
        0x00018546:    201b        .       MOVS     r0,#0x1b
        0x00018548:    f000fde8    ....    BL       am_hal_gpio_pinconfig ; 0x1911c
        0x0001854c:    f2400554    @.T.    MOVW     r5,#0x54
        0x00018550:    f2400158    @.X.    MOVW     r1,#0x58
        0x00018554:    2425        %$      MOVS     r4,#0x25
        0x00018556:    f2c10500    ....    MOVT     r5,#0x1000
        0x0001855a:    201a        .       MOVS     r0,#0x1a
        0x0001855c:    f2c10100    ....    MOVT     r1,#0x1000
        0x00018560:    e0d2        ..      B        0x18708 ; am_bsp_iom_pins_enable + 720
        0x00018562:    bf00        ..      NOP      
        0x00018564:    f2400564    @.d.    MOVW     r5,#0x64
        0x00018568:    f2400160    @.`.    MOVW     r1,#0x60
        0x0001856c:    241a        .$      MOVS     r4,#0x1a
        0x0001856e:    f2c10500    ....    MOVT     r5,#0x1000
        0x00018572:    2019        .       MOVS     r0,#0x19
        0x00018574:    f2c10100    ....    MOVT     r1,#0x1000
        0x00018578:    e0c6        ..      B        0x18708 ; am_bsp_iom_pins_enable + 720
        0x0001857a:    bf00        ..      NOP      
        0x0001857c:    f2400070    @.p.    MOVW     r0,#0x70
        0x00018580:    f2c10000    ....    MOVT     r0,#0x1000
        0x00018584:    6801        .h      LDR      r1,[r0,#0]
        0x00018586:    201f        .       MOVS     r0,#0x1f
        0x00018588:    f000fdc8    ....    BL       am_hal_gpio_pinconfig ; 0x1911c
        0x0001858c:    f2403080    @..0    MOVW     r0,#0x380
        0x00018590:    f2c10000    ....    MOVT     r0,#0x1000
        0x00018594:    6801        .h      LDR      r1,[r0,#0]
        0x00018596:    2021        !       MOVS     r0,#0x21
        0x00018598:    f000fdc0    ....    BL       am_hal_gpio_pinconfig ; 0x1911c
        0x0001859c:    f2400568    @.h.    MOVW     r5,#0x68
        0x000185a0:    f240016c    @.l.    MOVW     r1,#0x6c
        0x000185a4:    2455        U$      MOVS     r4,#0x55
        0x000185a6:    f2c10500    ....    MOVT     r5,#0x1000
        0x000185aa:    2020                MOVS     r0,#0x20
        0x000185ac:    f2c10100    ....    MOVT     r1,#0x1000
        0x000185b0:    e0aa        ..      B        0x18708 ; am_bsp_iom_pins_enable + 720
        0x000185b2:    bf00        ..      NOP      
        0x000185b4:    f2400578    @.x.    MOVW     r5,#0x78
        0x000185b8:    f2400174    @.t.    MOVW     r1,#0x74
        0x000185bc:    2420         $      MOVS     r4,#0x20
        0x000185be:    f2c10500    ....    MOVT     r5,#0x1000
        0x000185c2:    201f        .       MOVS     r0,#0x1f
        0x000185c4:    f2c10100    ....    MOVT     r1,#0x1000
        0x000185c8:    e09e        ..      B        0x18708 ; am_bsp_iom_pins_enable + 720
        0x000185ca:    bf00        ..      NOP      
        0x000185cc:    f2400084    @...    MOVW     r0,#0x84
        0x000185d0:    f2c10000    ....    MOVT     r0,#0x1000
        0x000185d4:    6801        .h      LDR      r1,[r0,#0]
        0x000185d6:    2022        "       MOVS     r0,#0x22
        0x000185d8:    f000fda0    ....    BL       am_hal_gpio_pinconfig ; 0x1911c
        0x000185dc:    f2403084    @..0    MOVW     r0,#0x384
        0x000185e0:    f2c10000    ....    MOVT     r0,#0x1000
        0x000185e4:    6801        .h      LDR      r1,[r0,#0]
        0x000185e6:    2024        $       MOVS     r0,#0x24
        0x000185e8:    f000fd98    ....    BL       am_hal_gpio_pinconfig ; 0x1911c
        0x000185ec:    f240057c    @.|.    MOVW     r5,#0x7c
        0x000185f0:    f2400180    @...    MOVW     r1,#0x80
        0x000185f4:    244f        O$      MOVS     r4,#0x4f
        0x000185f6:    f2c10500    ....    MOVT     r5,#0x1000
        0x000185fa:    2023        #       MOVS     r0,#0x23
        0x000185fc:    f2c10100    ....    MOVT     r1,#0x1000
        0x00018600:    e082        ..      B        0x18708 ; am_bsp_iom_pins_enable + 720
        0x00018602:    bf00        ..      NOP      
        0x00018604:    f240058c    @...    MOVW     r5,#0x8c
        0x00018608:    f2400188    @...    MOVW     r1,#0x88
        0x0001860c:    2423        #$      MOVS     r4,#0x23
        0x0001860e:    f2c10500    ....    MOVT     r5,#0x1000
        0x00018612:    2022        "       MOVS     r0,#0x22
        0x00018614:    f2c10100    ....    MOVT     r1,#0x1000
        0x00018618:    e076        v.      B        0x18708 ; am_bsp_iom_pins_enable + 720
        0x0001861a:    bf00        ..      NOP      
        0x0001861c:    f2400098    @...    MOVW     r0,#0x98
        0x00018620:    f2c10000    ....    MOVT     r0,#0x1000
        0x00018624:    6801        .h      LDR      r1,[r0,#0]
        0x00018626:    202f        /       MOVS     r0,#0x2f
        0x00018628:    f000fd78    ..x.    BL       am_hal_gpio_pinconfig ; 0x1911c
        0x0001862c:    f2403088    @..0    MOVW     r0,#0x388
        0x00018630:    f2c10000    ....    MOVT     r0,#0x1000
        0x00018634:    6801        .h      LDR      r1,[r0,#0]
        0x00018636:    2031        1       MOVS     r0,#0x31
        0x00018638:    f000fd70    ..p.    BL       am_hal_gpio_pinconfig ; 0x1911c
        0x0001863c:    f2400590    @...    MOVW     r5,#0x90
        0x00018640:    f2400194    @...    MOVW     r1,#0x94
        0x00018644:    2449        I$      MOVS     r4,#0x49
        0x00018646:    f2c10500    ....    MOVT     r5,#0x1000
        0x0001864a:    2030        0       MOVS     r0,#0x30
        0x0001864c:    f2c10100    ....    MOVT     r1,#0x1000
        0x00018650:    e05a        Z.      B        0x18708 ; am_bsp_iom_pins_enable + 720
        0x00018652:    bf00        ..      NOP      
        0x00018654:    f24005a0    @...    MOVW     r5,#0xa0
        0x00018658:    f240019c    @...    MOVW     r1,#0x9c
        0x0001865c:    2430        0$      MOVS     r4,#0x30
        0x0001865e:    f2c10500    ....    MOVT     r5,#0x1000
        0x00018662:    202f        /       MOVS     r0,#0x2f
        0x00018664:    f2c10100    ....    MOVT     r1,#0x1000
        0x00018668:    e04e        N.      B        0x18708 ; am_bsp_iom_pins_enable + 720
        0x0001866a:    bf00        ..      NOP      
        0x0001866c:    f24000ac    @...    MOVW     r0,#0xac
        0x00018670:    f2c10000    ....    MOVT     r0,#0x1000
        0x00018674:    6801        .h      LDR      r1,[r0,#0]
        0x00018676:    203d        =       MOVS     r0,#0x3d
        0x00018678:    f000fd50    ..P.    BL       am_hal_gpio_pinconfig ; 0x1911c
        0x0001867c:    f240308c    @..0    MOVW     r0,#0x38c
        0x00018680:    f2c10000    ....    MOVT     r0,#0x1000
        0x00018684:    6801        .h      LDR      r1,[r0,#0]
        0x00018686:    203f        ?       MOVS     r0,#0x3f
        0x00018688:    f000fd48    ..H.    BL       am_hal_gpio_pinconfig ; 0x1911c
        0x0001868c:    f24005a4    @...    MOVW     r5,#0xa4
        0x00018690:    f24001a8    @...    MOVW     r1,#0xa8
        0x00018694:    2427        '$      MOVS     r4,#0x27
        0x00018696:    f2c10500    ....    MOVT     r5,#0x1000
        0x0001869a:    203e        >       MOVS     r0,#0x3e
        0x0001869c:    f2c10100    ....    MOVT     r1,#0x1000
        0x000186a0:    e032        2.      B        0x18708 ; am_bsp_iom_pins_enable + 720
        0x000186a2:    bf00        ..      NOP      
        0x000186a4:    f24005b4    @...    MOVW     r5,#0xb4
        0x000186a8:    f24001b0    @...    MOVW     r1,#0xb0
        0x000186ac:    243e        >$      MOVS     r4,#0x3e
        0x000186ae:    f2c10500    ....    MOVT     r5,#0x1000
        0x000186b2:    203d        =       MOVS     r0,#0x3d
        0x000186b4:    f2c10100    ....    MOVT     r1,#0x1000
        0x000186b8:    e026        &.      B        0x18708 ; am_bsp_iom_pins_enable + 720
        0x000186ba:    bf00        ..      NOP      
        0x000186bc:    f24000c0    @...    MOVW     r0,#0xc0
        0x000186c0:    f2c10000    ....    MOVT     r0,#0x1000
        0x000186c4:    6801        .h      LDR      r1,[r0,#0]
        0x000186c6:    2016        .       MOVS     r0,#0x16
        0x000186c8:    f000fd28    ..(.    BL       am_hal_gpio_pinconfig ; 0x1911c
        0x000186cc:    f2403090    @..0    MOVW     r0,#0x390
        0x000186d0:    f2c10000    ....    MOVT     r0,#0x1000
        0x000186d4:    6801        .h      LDR      r1,[r0,#0]
        0x000186d6:    2018        .       MOVS     r0,#0x18
        0x000186d8:    f000fd20    .. .    BL       am_hal_gpio_pinconfig ; 0x1911c
        0x000186dc:    f24005b8    @...    MOVW     r5,#0xb8
        0x000186e0:    f24001bc    @...    MOVW     r1,#0xbc
        0x000186e4:    2458        X$      MOVS     r4,#0x58
        0x000186e6:    f2c10500    ....    MOVT     r5,#0x1000
        0x000186ea:    2017        .       MOVS     r0,#0x17
        0x000186ec:    f2c10100    ....    MOVT     r1,#0x1000
        0x000186f0:    e00a        ..      B        0x18708 ; am_bsp_iom_pins_enable + 720
        0x000186f2:    bf00        ..      NOP      
        0x000186f4:    f24005c8    @...    MOVW     r5,#0xc8
        0x000186f8:    f24001c4    @...    MOVW     r1,#0xc4
        0x000186fc:    2417        .$      MOVS     r4,#0x17
        0x000186fe:    f2c10500    ....    MOVT     r5,#0x1000
        0x00018702:    2016        .       MOVS     r0,#0x16
        0x00018704:    f2c10100    ....    MOVT     r1,#0x1000
        0x00018708:    6809        .h      LDR      r1,[r1,#0]
        0x0001870a:    f000fd07    ....    BL       am_hal_gpio_pinconfig ; 0x1911c
        0x0001870e:    6829        )h      LDR      r1,[r5,#0]
        0x00018710:    4620         F      MOV      r0,r4
        0x00018712:    e8bd40b0    ...@    POP      {r4,r5,r7,lr}
        0x00018716:    f000bd01    ....    B.W      am_hal_gpio_pinconfig ; 0x1911c
        0x0001871a:    0000        ..      MOVS     r0,r0
    am_bsp_itm_printf_enable
        0x0001871c:    b570        p.      PUSH     {r4-r6,lr}
        0x0001871e:    b082        ..      SUB      sp,sp,#8
        0x00018720:    f2410408    A...    MOV      r4,#0x1008
        0x00018724:    f2c40402    ....    MOVT     r4,#0x4002
        0x00018728:    f000fde6    ....    BL       am_hal_interrupt_master_disable ; 0x192f8
        0x0001872c:    9000        ..      STR      r0,[sp,#0]
        0x0001872e:    6820         h      LDR      r0,[r4,#0]
        0x00018730:    f4101580    ....    ANDS     r5,r0,#0x100000
        0x00018734:    d102        ..      BNE      0x1873c ; am_bsp_itm_printf_enable + 32
        0x00018736:    2012        .       MOVS     r0,#0x12
        0x00018738:    f001fd82    ....    BL       am_hal_pwrctrl_periph_enable ; 0x1a240
        0x0001873c:    6820         h      LDR      r0,[r4,#0]
        0x0001873e:    02c0        ..      LSLS     r0,r0,#11
        0x00018740:    d506        ..      BPL      0x18750 ; am_bsp_itm_printf_enable + 52
        0x00018742:    f640207c    @.|     MOV      r0,#0xa7c
        0x00018746:    f2c4000c    ....    MOVT     r0,#0x400c
        0x0001874a:    6800        .h      LDR      r0,[r0,#0]
        0x0001874c:    07c0        ..      LSLS     r0,r0,#31
        0x0001874e:    d133        3.      BNE      0x187b8 ; am_bsp_itm_printf_enable + 156
        0x00018750:    f04f34ff    O..4    MOV      r4,#0xffffffff
        0x00018754:    2600        .&      MOVS     r6,#0
        0x00018756:    b13d        =.      CBZ      r5,0x18768 ; am_bsp_itm_printf_enable + 76
        0x00018758:    9800        ..      LDR      r0,[sp,#0]
        0x0001875a:    f000fdd5    ....    BL       am_hal_interrupt_master_set ; 0x19308
        0x0001875e:    b95e        ^.      CBNZ     r6,0x18778 ; am_bsp_itm_printf_enable + 92
        0x00018760:    4620         F      MOV      r0,r4
        0x00018762:    b002        ..      ADD      sp,sp,#8
        0x00018764:    bd70        p.      POP      {r4-r6,pc}
        0x00018766:    bf00        ..      NOP      
        0x00018768:    2012        .       MOVS     r0,#0x12
        0x0001876a:    f001fccf    ....    BL       am_hal_pwrctrl_periph_disable ; 0x1a10c
        0x0001876e:    9800        ..      LDR      r0,[sp,#0]
        0x00018770:    f000fdca    ....    BL       am_hal_interrupt_master_set ; 0x19308
        0x00018774:    2e00        ..      CMP      r6,#0
        0x00018776:    d0f3        ..      BEQ      0x18760 ; am_bsp_itm_printf_enable + 68
        0x00018778:    f2401060    @.`.    MOVW     r0,#0x160
        0x0001877c:    f2c10000    ....    MOVT     r0,#0x1000
        0x00018780:    2101        .!      MOVS     r1,#1
        0x00018782:    7001        .p      STRB     r1,[r0,#0]
        0x00018784:    f001fb9e    ....    BL       am_hal_itm_enable ; 0x19ec4
        0x00018788:    f2442040    D.@     MOV      r0,#0x4240
        0x0001878c:    f2c0000f    ....    MOVT     r0,#0xf
        0x00018790:    f001fed4    ....    BL       am_hal_tpiu_enable ; 0x1a53c
        0x00018794:    f24000cc    @...    MOVW     r0,#0xcc
        0x00018798:    f2c10000    ....    MOVT     r0,#0x1000
        0x0001879c:    6801        .h      LDR      r1,[r0,#0]
        0x0001879e:    2016        .       MOVS     r0,#0x16
        0x000187a0:    f000fcbc    ....    BL       am_hal_gpio_pinconfig ; 0x1911c
        0x000187a4:    f649701d    I..p    MOV      r0,#0x9f1d
        0x000187a8:    f2c00001    ....    MOVT     r0,#1
        0x000187ac:    f001ff38    ..8.    BL       am_util_stdio_printf_init ; 0x1a620
        0x000187b0:    4620         F      MOV      r0,r4
        0x000187b2:    b002        ..      ADD      sp,sp,#8
        0x000187b4:    bd70        p.      POP      {r4-r6,pc}
        0x000187b6:    bf00        ..      NOP      
        0x000187b8:    a801        ..      ADD      r0,sp,#4
        0x000187ba:    f000f9b7    ....    BL       am_hal_dcu_get ; 0x18b2c
        0x000187be:    f89d0004    ....    LDRB     r0,[sp,#4]
        0x000187c2:    06c0        ..      LSLS     r0,r0,#27
        0x000187c4:    d40c        ..      BMI      0x187e0 ; am_bsp_itm_printf_enable + 196
        0x000187c6:    2001        .       MOVS     r0,#1
        0x000187c8:    2110        .!      MOVS     r1,#0x10
        0x000187ca:    f000f9cf    ....    BL       am_hal_dcu_update ; 0x18b6c
        0x000187ce:    4604        .F      MOV      r4,r0
        0x000187d0:    fab0f080    ....    CLZ      r0,r0
        0x000187d4:    0946        F.      LSRS     r6,r0,#5
        0x000187d6:    2c00        .,      CMP      r4,#0
        0x000187d8:    bf18        ..      IT       NE
        0x000187da:    f04f34ff    O..4    MOVNE    r4,#0xffffffff
        0x000187de:    e7ba        ..      B        0x18756 ; am_bsp_itm_printf_enable + 58
        0x000187e0:    2400        .$      MOVS     r4,#0
        0x000187e2:    2601        .&      MOVS     r6,#1
        0x000187e4:    e7b7        ..      B        0x18756 ; am_bsp_itm_printf_enable + 58
        0x000187e6:    0000        ..      MOVS     r0,r0
    am_gpio0_001f_isr
        0x000187e8:    b580        ..      PUSH     {r7,lr}
        0x000187ea:    b084        ..      SUB      sp,sp,#0x10
        0x000187ec:    f000fd84    ....    BL       am_hal_interrupt_master_disable ; 0x192f8
        0x000187f0:    9002        ..      STR      r0,[sp,#8]
        0x000187f2:    2038        8       MOVS     r0,#0x38
        0x000187f4:    9001        ..      STR      r0,[sp,#4]
        0x000187f6:    2100        .!      MOVS     r1,#0
        0x000187f8:    aa03        ..      ADD      r2,sp,#0xc
        0x000187fa:    f000fbc3    ....    BL       am_hal_gpio_interrupt_irq_status_get ; 0x18f84
        0x000187fe:    9801        ..      LDR      r0,[sp,#4]
        0x00018800:    9903        ..      LDR      r1,[sp,#0xc]
        0x00018802:    f000fba3    ....    BL       am_hal_gpio_interrupt_irq_clear ; 0x18f4c
        0x00018806:    9802        ..      LDR      r0,[sp,#8]
        0x00018808:    f000fd7e    ..~.    BL       am_hal_interrupt_master_set ; 0x19308
        0x0001880c:    9801        ..      LDR      r0,[sp,#4]
        0x0001880e:    9903        ..      LDR      r1,[sp,#0xc]
        0x00018810:    f000fc4a    ..J.    BL       am_hal_gpio_interrupt_service ; 0x190a8
        0x00018814:    b004        ..      ADD      sp,sp,#0x10
        0x00018816:    bd80        ..      POP      {r7,pc}
    am_gpu_power_disable
        0x00018818:    4770        pG      BX       lr
        0x0001881a:    0000        ..      MOVS     r0,r0
    am_gpu_power_enable
        0x0001881c:    4770        pG      BX       lr
        0x0001881e:    0000        ..      MOVS     r0,r0
    am_hal_cmdq_disable
        0x00018820:    b1c0        ..      CBZ      r0,0x18854 ; am_hal_cmdq_disable + 52
        0x00018822:    6801        .h      LDR      r1,[r0,#0]
        0x00018824:    f64c53cd    L..S    MOV      r3,#0xcdcd
        0x00018828:    f021427e    !.~B    BIC      r2,r1,#0xfe000000
        0x0001882c:    f2c013cd    ....    MOVT     r3,#0x1cd
        0x00018830:    429a        .B      CMP      r2,r3
        0x00018832:    d10f        ..      BNE      0x18854 ; am_hal_cmdq_disable + 52
        0x00018834:    0189        ..      LSLS     r1,r1,#6
        0x00018836:    bf5c        \.      ITT      PL
        0x00018838:    2000        .       MOVPL    r0,#0
        0x0001883a:    4770        pG      BXPL     lr
        0x0001883c:    6a41        Aj      LDR      r1,[r0,#0x24]
        0x0001883e:    6809        .h      LDR      r1,[r1,#0]
        0x00018840:    680a        .h      LDR      r2,[r1,#0]
        0x00018842:    f0220201    "...    BIC      r2,r2,#1
        0x00018846:    600a        .`      STR      r2,[r1,#0]
        0x00018848:    6801        .h      LDR      r1,[r0,#0]
        0x0001884a:    f0217100    !..q    BIC      r1,r1,#0x2000000
        0x0001884e:    6001        .`      STR      r1,[r0,#0]
        0x00018850:    2000        .       MOVS     r0,#0
        0x00018852:    4770        pG      BX       lr
        0x00018854:    2002        .       MOVS     r0,#2
        0x00018856:    4770        pG      BX       lr
    am_hal_cmdq_enable
        0x00018858:    b510        ..      PUSH     {r4,lr}
        0x0001885a:    b318        ..      CBZ      r0,0x188a4 ; am_hal_cmdq_enable + 76
        0x0001885c:    4604        .F      MOV      r4,r0
        0x0001885e:    6800        .h      LDR      r0,[r0,#0]
        0x00018860:    f64c52cd    L..R    MOV      r2,#0xcdcd
        0x00018864:    f020417e     .~A    BIC      r1,r0,#0xfe000000
        0x00018868:    f2c012cd    ....    MOVT     r2,#0x1cd
        0x0001886c:    4291        .B      CMP      r1,r2
        0x0001886e:    d119        ..      BNE      0x188a4 ; am_hal_cmdq_enable + 76
        0x00018870:    0180        ..      LSLS     r0,r0,#6
        0x00018872:    bf44        D.      ITT      MI
        0x00018874:    2000        .       MOVMI    r0,#0
        0x00018876:    bd10        ..      POPMI    {r4,pc}
        0x00018878:    68a0        .h      LDR      r0,[r4,#8]
        0x0001887a:    2100        .!      MOVS     r1,#0
        0x0001887c:    f2c10106    ....    MOVT     r1,#0x1006
        0x00018880:    4288        .B      CMP      r0,r1
        0x00018882:    d303        ..      BCC      0x1888c ; am_hal_cmdq_enable + 52
        0x00018884:    2001        .       MOVS     r0,#1
        0x00018886:    2100        .!      MOVS     r1,#0
        0x00018888:    f000f8c4    ....    BL       am_hal_daxi_control ; 0x18a14
        0x0001888c:    6a60        `j      LDR      r0,[r4,#0x24]
        0x0001888e:    6800        .h      LDR      r0,[r0,#0]
        0x00018890:    6801        .h      LDR      r1,[r0,#0]
        0x00018892:    f0410101    A...    ORR      r1,r1,#1
        0x00018896:    6001        .`      STR      r1,[r0,#0]
        0x00018898:    6820         h      LDR      r0,[r4,#0]
        0x0001889a:    f0407000    @..p    ORR      r0,r0,#0x2000000
        0x0001889e:    6020         `      STR      r0,[r4,#0]
        0x000188a0:    2000        .       MOVS     r0,#0
        0x000188a2:    bd10        ..      POP      {r4,pc}
        0x000188a4:    2002        .       MOVS     r0,#2
        0x000188a6:    bd10        ..      POP      {r4,pc}
    am_hal_cmdq_init
        0x000188a8:    e92d41f0    -..A    PUSH     {r4-r8,lr}
        0x000188ac:    280a        .(      CMP      r0,#0xa
        0x000188ae:    bf84        ..      ITT      HI
        0x000188b0:    2005        .       MOVHI    r0,#5
        0x000188b2:    e8bd81f0    ....    POPHI    {r4-r8,pc}
        0x000188b6:    b171        q.      CBZ      r1,0x188d6 ; am_hal_cmdq_init + 46
        0x000188b8:    4603        .F      MOV      r3,r0
        0x000188ba:    2a00        .*      CMP      r2,#0
        0x000188bc:    f04f0006    O...    MOV      r0,#6
        0x000188c0:    d04f        O.      BEQ      0x18962 ; am_hal_cmdq_init + 186
        0x000188c2:    f8d1e004    ....    LDR      lr,[r1,#4]
        0x000188c6:    f1be0f00    ....    CMP      lr,#0
        0x000188ca:    bf08        ..      IT       EQ
        0x000188cc:    e8bd81f0    ....    POPEQ    {r4-r8,pc}
        0x000188d0:    6808        .h      LDR      r0,[r1,#0]
        0x000188d2:    2802        .(      CMP      r0,#2
        0x000188d4:    d202        ..      BCS      0x188dc ; am_hal_cmdq_init + 52
        0x000188d6:    2006        .       MOVS     r0,#6
        0x000188d8:    e8bd81f0    ....    POP      {r4-r8,pc}
        0x000188dc:    f2401c90    @...    MOVW     r12,#0x190
        0x000188e0:    252c        ,%      MOVS     r5,#0x2c
        0x000188e2:    f2c10c00    ....    MOVT     r12,#0x1000
        0x000188e6:    fb03f405    ....    MUL      r4,r3,r5
        0x000188ea:    f85c4004    \..@    LDR      r4,[r12,r4]
        0x000188ee:    01e6        ..      LSLS     r6,r4,#7
        0x000188f0:    bf44        D.      ITT      MI
        0x000188f2:    2007        .       MOVMI    r0,#7
        0x000188f4:    e8bd81f0    ....    POPMI    {r4-r8,pc}
        0x000188f8:    f64c08c0    L...    MOV      r8,#0xc8c0
        0x000188fc:    fb13cc05    ....    SMLABB   r12,r3,r5,r12
        0x00018900:    00c5        ..      LSLS     r5,r0,#3
        0x00018902:    eb0e06c0    ....    ADD      r6,lr,r0,LSL #3
        0x00018906:    f64c50cd    L..P    MOV      r0,#0xcdcd
        0x0001890a:    eb030383    ....    ADD      r3,r3,r3,LSL #2
        0x0001890e:    f2c00801    ....    MOVT     r8,#1
        0x00018912:    f2c010cd    ....    MOVT     r0,#0x1cd
        0x00018916:    eb0807c3    ....    ADD      r7,r8,r3,LSL #3
        0x0001891a:    f3600419    `...    BFI      r4,r0,#0,#26
        0x0001891e:    e9cce601    ....    STRD     lr,r6,[r12,#4]
        0x00018922:    e9cce505    ....    STRD     lr,r5,[r12,#0x14]
        0x00018926:    e9d76502    ...e    LDRD     r6,r5,[r7,#8]
        0x0001892a:    f8cc4000    ...@    STR      r4,[r12,#0]
        0x0001892e:    2000        .       MOVS     r0,#0
        0x00018930:    693c        <i      LDR      r4,[r7,#0x10]
        0x00018932:    f8cc7024    ..$p    STR      r7,[r12,#0x24]
        0x00018936:    e9ccee03    ....    STRD     lr,lr,[r12,#0xc]
        0x0001893a:    e9cc0007    ....    STRD     r0,r0,[r12,#0x1c]
        0x0001893e:    6030        0`      STR      r0,[r6,#0]
        0x00018940:    6028        (`      STR      r0,[r5,#0]
        0x00018942:    697e        ~i      LDR      r6,[r7,#0x14]
        0x00018944:    6825        %h      LDR      r5,[r4,#0]
        0x00018946:    687f        .h      LDR      r7,[r7,#4]
        0x00018948:    432e        .C      ORRS     r6,r6,r5
        0x0001894a:    6026        &`      STR      r6,[r4,#0]
        0x0001894c:    684e        Nh      LDR      r6,[r1,#4]
        0x0001894e:    f8583033    X.30    LDR      r3,[r8,r3,LSL #3]
        0x00018952:    603e        >`      STR      r6,[r7,#0]
        0x00018954:    7a09        .z      LDRB     r1,[r1,#8]
        0x00018956:    2702        .'      MOVS     r7,#2
        0x00018958:    ea070141    ..A.    AND      r1,r7,r1,LSL #1
        0x0001895c:    6019        .`      STR      r1,[r3,#0]
        0x0001895e:    f8c2c000    ....    STR      r12,[r2,#0]
        0x00018962:    e8bd81f0    ....    POP      {r4-r8,pc}
        0x00018966:    0000        ..      MOVS     r0,r0
    am_hal_daxi_config
        0x00018968:    b570        p.      PUSH     {r4-r6,lr}
        0x0001896a:    b082        ..      SUB      sp,sp,#8
        0x0001896c:    2654        T&      MOVS     r6,#0x54
        0x0001896e:    2500        .%      MOVS     r5,#0
        0x00018970:    4604        .F      MOV      r4,r0
        0x00018972:    f6c40600    ....    MOVT     r6,#0x4800
        0x00018976:    f2c475ff    ...u    MOVT     r5,#0x47ff
        0x0001897a:    f000fcbd    ....    BL       am_hal_interrupt_master_disable ; 0x192f8
        0x0001897e:    9000        ..      STR      r0,[sp,#0]
        0x00018980:    f000fcba    ....    BL       am_hal_interrupt_master_disable ; 0x192f8
        0x00018984:    9001        ..      STR      r0,[sp,#4]
        0x00018986:    f8560c04    V...    LDR      r0,[r6,#-4]
        0x0001898a:    0740        @.      LSLS     r0,r0,#29
        0x0001898c:    d418        ..      BMI      0x189c0 ; am_hal_daxi_config + 88
        0x0001898e:    f3bf8f4f    ..O.    DSB      
        0x00018992:    6830        0h      LDR      r0,[r6,#0]
        0x00018994:    f0400001    @...    ORR      r0,r0,#1
        0x00018998:    6030        0`      STR      r0,[r6,#0]
        0x0001899a:    6828        (h      LDR      r0,[r5,#0]
        0x0001899c:    6830        0h      LDR      r0,[r6,#0]
        0x0001899e:    0740        @.      LSLS     r0,r0,#29
        0x000189a0:    d409        ..      BMI      0x189b6 ; am_hal_daxi_config + 78
        0x000189a2:    6830        0h      LDR      r0,[r6,#0]
        0x000189a4:    0740        @.      LSLS     r0,r0,#29
        0x000189a6:    bf5c        \.      ITT      PL
        0x000189a8:    6830        0h      LDRPL    r0,[r6,#0]
        0x000189aa:    ea5f7040    _.@p    LSLSPL   r0,r0,#29
        0x000189ae:    d402        ..      BMI      0x189b6 ; am_hal_daxi_config + 78
        0x000189b0:    6830        0h      LDR      r0,[r6,#0]
        0x000189b2:    0740        @.      LSLS     r0,r0,#29
        0x000189b4:    d5f2        ..      BPL      0x1899c ; am_hal_daxi_config + 52
        0x000189b6:    6830        0h      LDR      r0,[r6,#0]
        0x000189b8:    f0400002    @...    ORR      r0,r0,#2
        0x000189bc:    6030        0`      STR      r0,[r6,#0]
        0x000189be:    6828        (h      LDR      r0,[r5,#0]
        0x000189c0:    9801        ..      LDR      r0,[sp,#4]
        0x000189c2:    f000fca1    ....    BL       am_hal_interrupt_master_set ; 0x19308
        0x000189c6:    b1dc        ..      CBZ      r4,0x18a00 ; am_hal_daxi_config + 152
        0x000189c8:    7860        `x      LDRB     r0,[r4,#1]
        0x000189ca:    7922        "y      LDRB     r2,[r4,#4]
        0x000189cc:    78a1        .x      LDRB     r1,[r4,#2]
        0x000189ce:    78e3        .x      LDRB     r3,[r4,#3]
        0x000189d0:    f0020201    ....    AND      r2,r2,#1
        0x000189d4:    f000007f    ....    AND      r0,r0,#0x7f
        0x000189d8:    ea420040    B.@.    ORR      r0,r2,r0,LSL #1
        0x000189dc:    f363200b    c..     BFI      r0,r3,#8,#4
        0x000189e0:    f001011f    ....    AND      r1,r1,#0x1f
        0x000189e4:    ea404001    @..@    ORR      r0,r0,r1,LSL #16
        0x000189e8:    f8460c04    F...    STR      r0,[r6,#-4]
        0x000189ec:    7920         y      LDRB     r0,[r4,#4]
        0x000189ee:    f2400120    @. .    MOVW     r1,#0x20
        0x000189f2:    f2c10100    ....    MOVT     r1,#0x1000
        0x000189f6:    7108        .q      STRB     r0,[r1,#4]
        0x000189f8:    6820         h      LDR      r0,[r4,#0]
        0x000189fa:    6008        .`      STR      r0,[r1,#0]
        0x000189fc:    e003        ..      B        0x18a06 ; am_hal_daxi_config + 158
        0x000189fe:    bf00        ..      NOP      
        0x00018a00:    2006        .       MOVS     r0,#6
        0x00018a02:    f8460c04    F...    STR      r0,[r6,#-4]
        0x00018a06:    6828        (h      LDR      r0,[r5,#0]
        0x00018a08:    9800        ..      LDR      r0,[sp,#0]
        0x00018a0a:    f000fc7d    ..}.    BL       am_hal_interrupt_master_set ; 0x19308
        0x00018a0e:    2000        .       MOVS     r0,#0
        0x00018a10:    b002        ..      ADD      sp,sp,#8
        0x00018a12:    bd70        p.      POP      {r4-r6,pc}
    am_hal_daxi_control
        0x00018a14:    b5b0        ..      PUSH     {r4,r5,r7,lr}
        0x00018a16:    b084        ..      SUB      sp,sp,#0x10
        0x00018a18:    2803        .(      CMP      r0,#3
        0x00018a1a:    d817        ..      BHI      0x18a4c ; am_hal_daxi_control + 56
        0x00018a1c:    e8dff000    ....    TBB      [pc,r0]
    $d.9
        0x00018a20:    7c461a02    ..F|    DCD    2084968962
    $t.10
        0x00018a24:    2054        T       MOVS     r0,#0x54
        0x00018a26:    f6c40000    ....    MOVT     r0,#0x4800
        0x00018a2a:    f8501c04    P...    LDR      r1,[r0,#-4]
        0x00018a2e:    0749        I.      LSLS     r1,r1,#29
        0x00018a30:    d409        ..      BMI      0x18a46 ; am_hal_daxi_control + 50
        0x00018a32:    f3bf8f4f    ..O.    DSB      
        0x00018a36:    6801        .h      LDR      r1,[r0,#0]
        0x00018a38:    f0410102    A...    ORR      r1,r1,#2
        0x00018a3c:    6001        .`      STR      r1,[r0,#0]
        0x00018a3e:    2000        .       MOVS     r0,#0
        0x00018a40:    f2c470ff    ...p    MOVT     r0,#0x47ff
        0x00018a44:    6800        .h      LDR      r0,[r0,#0]
        0x00018a46:    2000        .       MOVS     r0,#0
        0x00018a48:    b004        ..      ADD      sp,sp,#0x10
        0x00018a4a:    bdb0        ..      POP      {r4,r5,r7,pc}
        0x00018a4c:    2006        .       MOVS     r0,#6
        0x00018a4e:    b004        ..      ADD      sp,sp,#0x10
        0x00018a50:    bdb0        ..      POP      {r4,r5,r7,pc}
        0x00018a52:    bf00        ..      NOP      
        0x00018a54:    2454        T$      MOVS     r4,#0x54
        0x00018a56:    f6c40400    ....    MOVT     r4,#0x4800
        0x00018a5a:    f000fc4d    ..M.    BL       am_hal_interrupt_master_disable ; 0x192f8
        0x00018a5e:    9001        ..      STR      r0,[sp,#4]
        0x00018a60:    f8540c04    T...    LDR      r0,[r4,#-4]
        0x00018a64:    0740        @.      LSLS     r0,r0,#29
        0x00018a66:    d41b        ..      BMI      0x18aa0 ; am_hal_daxi_control + 140
        0x00018a68:    f3bf8f4f    ..O.    DSB      
        0x00018a6c:    6821        !h      LDR      r1,[r4,#0]
        0x00018a6e:    2000        .       MOVS     r0,#0
        0x00018a70:    f0410101    A...    ORR      r1,r1,#1
        0x00018a74:    f2c470ff    ...p    MOVT     r0,#0x47ff
        0x00018a78:    6021        !`      STR      r1,[r4,#0]
        0x00018a7a:    6801        .h      LDR      r1,[r0,#0]
        0x00018a7c:    6821        !h      LDR      r1,[r4,#0]
        0x00018a7e:    0749        I.      LSLS     r1,r1,#29
        0x00018a80:    d409        ..      BMI      0x18a96 ; am_hal_daxi_control + 130
        0x00018a82:    6821        !h      LDR      r1,[r4,#0]
        0x00018a84:    0749        I.      LSLS     r1,r1,#29
        0x00018a86:    bf5c        \.      ITT      PL
        0x00018a88:    6821        !h      LDRPL    r1,[r4,#0]
        0x00018a8a:    ea5f7141    _.Aq    LSLSPL   r1,r1,#29
        0x00018a8e:    d402        ..      BMI      0x18a96 ; am_hal_daxi_control + 130
        0x00018a90:    6821        !h      LDR      r1,[r4,#0]
        0x00018a92:    0749        I.      LSLS     r1,r1,#29
        0x00018a94:    d5f2        ..      BPL      0x18a7c ; am_hal_daxi_control + 104
        0x00018a96:    6821        !h      LDR      r1,[r4,#0]
        0x00018a98:    f0410102    A...    ORR      r1,r1,#2
        0x00018a9c:    6021        !`      STR      r1,[r4,#0]
        0x00018a9e:    6800        .h      LDR      r0,[r0,#0]
        0x00018aa0:    9801        ..      LDR      r0,[sp,#4]
        0x00018aa2:    f000fc31    ..1.    BL       am_hal_interrupt_master_set ; 0x19308
        0x00018aa6:    2000        .       MOVS     r0,#0
        0x00018aa8:    b004        ..      ADD      sp,sp,#0x10
        0x00018aaa:    bdb0        ..      POP      {r4,r5,r7,pc}
        0x00018aac:    2454        T$      MOVS     r4,#0x54
        0x00018aae:    2500        .%      MOVS     r5,#0
        0x00018ab0:    f6c40400    ....    MOVT     r4,#0x4800
        0x00018ab4:    f2c475ff    ...u    MOVT     r5,#0x47ff
        0x00018ab8:    f000fc1e    ....    BL       am_hal_interrupt_master_disable ; 0x192f8
        0x00018abc:    9002        ..      STR      r0,[sp,#8]
        0x00018abe:    f000fc1b    ....    BL       am_hal_interrupt_master_disable ; 0x192f8
        0x00018ac2:    9003        ..      STR      r0,[sp,#0xc]
        0x00018ac4:    f8540c04    T...    LDR      r0,[r4,#-4]
        0x00018ac8:    0740        @.      LSLS     r0,r0,#29
        0x00018aca:    d418        ..      BMI      0x18afe ; am_hal_daxi_control + 234
        0x00018acc:    f3bf8f4f    ..O.    DSB      
        0x00018ad0:    6820         h      LDR      r0,[r4,#0]
        0x00018ad2:    f0400001    @...    ORR      r0,r0,#1
        0x00018ad6:    6020         `      STR      r0,[r4,#0]
        0x00018ad8:    6828        (h      LDR      r0,[r5,#0]
        0x00018ada:    6820         h      LDR      r0,[r4,#0]
        0x00018adc:    0740        @.      LSLS     r0,r0,#29
        0x00018ade:    d409        ..      BMI      0x18af4 ; am_hal_daxi_control + 224
        0x00018ae0:    6820         h      LDR      r0,[r4,#0]
        0x00018ae2:    0740        @.      LSLS     r0,r0,#29
        0x00018ae4:    bf5c        \.      ITT      PL
        0x00018ae6:    6820         h      LDRPL    r0,[r4,#0]
        0x00018ae8:    ea5f7040    _.@p    LSLSPL   r0,r0,#29
        0x00018aec:    d402        ..      BMI      0x18af4 ; am_hal_daxi_control + 224
        0x00018aee:    6820         h      LDR      r0,[r4,#0]
        0x00018af0:    0740        @.      LSLS     r0,r0,#29
        0x00018af2:    d5f2        ..      BPL      0x18ada ; am_hal_daxi_control + 198
        0x00018af4:    6820         h      LDR      r0,[r4,#0]
        0x00018af6:    f0400002    @...    ORR      r0,r0,#2
        0x00018afa:    6020         `      STR      r0,[r4,#0]
        0x00018afc:    6828        (h      LDR      r0,[r5,#0]
        0x00018afe:    9803        ..      LDR      r0,[sp,#0xc]
        0x00018b00:    f000fc02    ....    BL       am_hal_interrupt_master_set ; 0x19308
        0x00018b04:    2006        .       MOVS     r0,#6
        0x00018b06:    f8440c04    D...    STR      r0,[r4,#-4]
        0x00018b0a:    6828        (h      LDR      r0,[r5,#0]
        0x00018b0c:    9802        ..      LDR      r0,[sp,#8]
        0x00018b0e:    f000fbfb    ....    BL       am_hal_interrupt_master_set ; 0x19308
        0x00018b12:    2000        .       MOVS     r0,#0
        0x00018b14:    b004        ..      ADD      sp,sp,#0x10
        0x00018b16:    bdb0        ..      POP      {r4,r5,r7,pc}
        0x00018b18:    f2400020    @. .    MOVW     r0,#0x20
        0x00018b1c:    f2c10000    ....    MOVT     r0,#0x1000
        0x00018b20:    f7ffff22    ..".    BL       am_hal_daxi_config ; 0x18968
        0x00018b24:    2000        .       MOVS     r0,#0
        0x00018b26:    b004        ..      ADD      sp,sp,#0x10
        0x00018b28:    bdb0        ..      POP      {r4,r5,r7,pc}
        0x00018b2a:    0000        ..      MOVS     r0,r0
    am_hal_dcu_get
        0x00018b2c:    b510        ..      PUSH     {r4,lr}
        0x00018b2e:    f2410108    A...    MOV      r1,#0x1008
        0x00018b32:    f2c40102    ....    MOVT     r1,#0x4002
        0x00018b36:    6809        .h      LDR      r1,[r1,#0]
        0x00018b38:    02c9        ..      LSLS     r1,r1,#11
        0x00018b3a:    d507        ..      BPL      0x18b4c ; am_hal_dcu_get + 32
        0x00018b3c:    4604        .F      MOV      r4,r0
        0x00018b3e:    f640207c    @.|     MOV      r0,#0xa7c
        0x00018b42:    f2c4000c    ....    MOVT     r0,#0x400c
        0x00018b46:    6800        .h      LDR      r0,[r0,#0]
        0x00018b48:    07c0        ..      LSLS     r0,r0,#31
        0x00018b4a:    d101        ..      BNE      0x18b50 ; am_hal_dcu_get + 36
        0x00018b4c:    2007        .       MOVS     r0,#7
        0x00018b4e:    bd10        ..      POP      {r4,pc}
        0x00018b50:    f2400000    @...    MOVW     r0,#0
        0x00018b54:    f2c10000    ....    MOVT     r0,#0x1000
        0x00018b58:    6801        .h      LDR      r1,[r0,#0]
        0x00018b5a:    2205        ."      MOVS     r2,#5
        0x00018b5c:    6808        .h      LDR      r0,[r1,#0]
        0x00018b5e:    6849        Ih      LDR      r1,[r1,#4]
        0x00018b60:    f002fd36    ..6.    BL       get_ui32_dcu_mask ; 0x1b5d0
        0x00018b64:    6020         `      STR      r0,[r4,#0]
        0x00018b66:    2000        .       MOVS     r0,#0
        0x00018b68:    bd10        ..      POP      {r4,pc}
        0x00018b6a:    0000        ..      MOVS     r0,r0
    am_hal_dcu_update
        0x00018b6c:    b5f0        ..      PUSH     {r4-r7,lr}
        0x00018b6e:    b081        ..      SUB      sp,sp,#4
        0x00018b70:    f2410208    A...    MOV      r2,#0x1008
        0x00018b74:    f2c40202    ....    MOVT     r2,#0x4002
        0x00018b78:    6812        .h      LDR      r2,[r2,#0]
        0x00018b7a:    02d2        ..      LSLS     r2,r2,#11
        0x00018b7c:    d516        ..      BPL      0x18bac ; am_hal_dcu_update + 64
        0x00018b7e:    f640257c    @.|%    MOV      r5,#0xa7c
        0x00018b82:    f2c4050c    ....    MOVT     r5,#0x400c
        0x00018b86:    4604        .F      MOV      r4,r0
        0x00018b88:    6828        (h      LDR      r0,[r5,#0]
        0x00018b8a:    07c0        ..      LSLS     r0,r0,#31
        0x00018b8c:    d00e        ..      BEQ      0x18bac ; am_hal_dcu_update + 64
        0x00018b8e:    4608        .F      MOV      r0,r1
        0x00018b90:    f002fb0c    ....    BL       get_raw_dcu_mask ; 0x1b1ac
        0x00018b94:    f2400c00    @...    MOVW     r12,#0
        0x00018b98:    f2c10c00    ....    MOVT     r12,#0x1000
        0x00018b9c:    f8dc3004    ...0    LDR      r3,[r12,#4]
        0x00018ba0:    681a        .h      LDR      r2,[r3,#0]
        0x00018ba2:    685b        [h      LDR      r3,[r3,#4]
        0x00018ba4:    4002        .@      ANDS     r2,r2,r0
        0x00018ba6:    400b        .@      ANDS     r3,r3,r1
        0x00018ba8:    431a        .C      ORRS     r2,r2,r3
        0x00018baa:    d003        ..      BEQ      0x18bb4 ; am_hal_dcu_update + 72
        0x00018bac:    2007        .       MOVS     r0,#7
        0x00018bae:    b001        ..      ADD      sp,sp,#4
        0x00018bb0:    bdf0        ..      POP      {r4-r7,pc}
        0x00018bb2:    bf00        ..      NOP      
        0x00018bb4:    f8dc2000    ...     LDR      r2,[r12,#0]
        0x00018bb8:    2610        .&      MOVS     r6,#0x10
        0x00018bba:    6813        .h      LDR      r3,[r2,#0]
        0x00018bbc:    f8d2e004    ....    LDR      lr,[r2,#4]
        0x00018bc0:    2c00        .,      CMP      r4,#0
        0x00018bc2:    bf18        ..      IT       NE
        0x00018bc4:    2608        .&      MOVNE    r6,#8
        0x00018bc6:    eb0c0406    ....    ADD      r4,r12,r6
        0x00018bca:    f85c6006    \..`    LDR      r6,[r12,r6]
        0x00018bce:    6864        dh      LDR      r4,[r4,#4]
        0x00018bd0:    ea230700    #...    BIC      r7,r3,r0
        0x00018bd4:    ea2e0301    ....    BIC      r3,lr,r1
        0x00018bd8:    4030        0@      ANDS     r0,r0,r6
        0x00018bda:    4021        !@      ANDS     r1,r1,r4
        0x00018bdc:    4419        .D      ADD      r1,r1,r3
        0x00018bde:    4438        8D      ADD      r0,r0,r7
        0x00018be0:    6010        .`      STR      r0,[r2,#0]
        0x00018be2:    6051        Q`      STR      r1,[r2,#4]
        0x00018be4:    6828        (h      LDR      r0,[r5,#0]
        0x00018be6:    07c0        ..      LSLS     r0,r0,#31
        0x00018be8:    d10e        ..      BNE      0x18c08 ; am_hal_dcu_update + 156
        0x00018bea:    6828        (h      LDR      r0,[r5,#0]
        0x00018bec:    07c0        ..      LSLS     r0,r0,#31
        0x00018bee:    bf04        ..      ITT      EQ
        0x00018bf0:    6828        (h      LDREQ    r0,[r5,#0]
        0x00018bf2:    ea5f70c0    _..p    LSLSEQ   r0,r0,#31
        0x00018bf6:    d107        ..      BNE      0x18c08 ; am_hal_dcu_update + 156
        0x00018bf8:    6828        (h      LDR      r0,[r5,#0]
        0x00018bfa:    07c0        ..      LSLS     r0,r0,#31
        0x00018bfc:    f04f0000    O...    MOV      r0,#0
        0x00018c00:    d0f0        ..      BEQ      0x18be4 ; am_hal_dcu_update + 120
        0x00018c02:    b001        ..      ADD      sp,sp,#4
        0x00018c04:    bdf0        ..      POP      {r4-r7,pc}
        0x00018c06:    bf00        ..      NOP      
        0x00018c08:    2000        .       MOVS     r0,#0
        0x00018c0a:    b001        ..      ADD      sp,sp,#4
        0x00018c0c:    bdf0        ..      POP      {r4-r7,pc}
        0x00018c0e:    0000        ..      MOVS     r0,r0
    am_hal_delay_us
        0x00018c10:    f2410100    A...    MOVW     r1,#0x1000
        0x00018c14:    f2c40102    ....    MOVT     r1,#0x4002
        0x00018c18:    6809        .h      LDR      r1,[r1,#0]
        0x00018c1a:    2205        ."      MOVS     r2,#5
        0x00018c1c:    f0010118    ....    AND      r1,r1,#0x18
        0x00018c20:    2910        .)      CMP      r1,#0x10
        0x00018c22:    bf08        ..      IT       EQ
        0x00018c24:    2206        ."      MOVEQ    r2,#6
        0x00018c26:    fa00f002    ....    LSL      r0,r0,r2
        0x00018c2a:    f04f010f    O...    MOV      r1,#0xf
        0x00018c2e:    bf08        ..      IT       EQ
        0x00018c30:    2115        .!      MOVEQ    r1,#0x15
        0x00018c32:    4281        .B      CMP      r1,r0
        0x00018c34:    bf28        (.      IT       CS
        0x00018c36:    4770        pG      BXCS     lr
        0x00018c38:    1a40        @.      SUBS     r0,r0,r1
        0x00018c3a:    f64c217c    L.|!    MOV      r1,#0xca7c
        0x00018c3e:    f2c00101    ....    MOVT     r1,#1
        0x00018c42:    6a49        Ij      LDR      r1,[r1,#0x24]
        0x00018c44:    4708        .G      BX       r1
        0x00018c46:    0000        ..      MOVS     r0,r0
    am_hal_delay_us_status_change
        0x00018c48:    e92d43f0    -..C    PUSH     {r4-r9,lr}
        0x00018c4c:    b081        ..      SUB      sp,sp,#4
        0x00018c4e:    460d        .F      MOV      r5,r1
        0x00018c50:    6809        .h      LDR      r1,[r1,#0]
        0x00018c52:    4011        .@      ANDS     r1,r1,r2
        0x00018c54:    4299        .B      CMP      r1,r3
        0x00018c56:    d01b        ..      BEQ      0x18c90 ; am_hal_delay_us_status_change + 72
        0x00018c58:    f64c217c    L.|!    MOV      r1,#0xca7c
        0x00018c5c:    f2c00101    ....    MOVT     r1,#1
        0x00018c60:    6a4f        Oj      LDR      r7,[r1,#0x24]
        0x00018c62:    f2410900    A...    MOVW     r9,#0x1000
        0x00018c66:    4698        .F      MOV      r8,r3
        0x00018c68:    4616        .F      MOV      r6,r2
        0x00018c6a:    1c44        D.      ADDS     r4,r0,#1
        0x00018c6c:    f2c40902    ....    MOVT     r9,#0x4002
        0x00018c70:    3c01        .<      SUBS     r4,#1
        0x00018c72:    d011        ..      BEQ      0x18c98 ; am_hal_delay_us_status_change + 80
        0x00018c74:    f8d90000    ....    LDR      r0,[r9,#0]
        0x00018c78:    f0000018    ....    AND      r0,r0,#0x18
        0x00018c7c:    2810        .(      CMP      r0,#0x10
        0x00018c7e:    f04f0011    O...    MOV      r0,#0x11
        0x00018c82:    bf08        ..      IT       EQ
        0x00018c84:    202b        +       MOVEQ    r0,#0x2b
        0x00018c86:    47b8        .G      BLX      r7
        0x00018c88:    6828        (h      LDR      r0,[r5,#0]
        0x00018c8a:    4030        0@      ANDS     r0,r0,r6
        0x00018c8c:    4540        @E      CMP      r0,r8
        0x00018c8e:    d1ef        ..      BNE      0x18c70 ; am_hal_delay_us_status_change + 40
        0x00018c90:    2000        .       MOVS     r0,#0
        0x00018c92:    b001        ..      ADD      sp,sp,#4
        0x00018c94:    e8bd83f0    ....    POP      {r4-r9,pc}
        0x00018c98:    2004        .       MOVS     r0,#4
        0x00018c9a:    b001        ..      ADD      sp,sp,#4
        0x00018c9c:    e8bd83f0    ....    POP      {r4-r9,pc}
    am_hal_delay_us_status_check
        0x00018ca0:    e92d43f0    -..C    PUSH     {r4-r9,lr}
        0x00018ca4:    b081        ..      SUB      sp,sp,#4
        0x00018ca6:    4615        .F      MOV      r5,r2
        0x00018ca8:    f64c227c    L.|"    MOV      r2,#0xca7c
        0x00018cac:    460e        .F      MOV      r6,r1
        0x00018cae:    f2c00201    ....    MOVT     r2,#1
        0x00018cb2:    9908        ..      LDR      r1,[sp,#0x20]
        0x00018cb4:    f8d29024    ..$.    LDR      r9,[r2,#0x24]
        0x00018cb8:    6832        2h      LDR      r2,[r6,#0]
        0x00018cba:    461c        .F      MOV      r4,r3
        0x00018cbc:    2900        .)      CMP      r1,#0
        0x00018cbe:    ea020105    ....    AND      r1,r2,r5
        0x00018cc2:    d019        ..      BEQ      0x18cf8 ; am_hal_delay_us_status_check + 88
        0x00018cc4:    42a1        .B      CMP      r1,r4
        0x00018cc6:    d02f        /.      BEQ      0x18d28 ; am_hal_delay_us_status_check + 136
        0x00018cc8:    f2410800    A...    MOVW     r8,#0x1000
        0x00018ccc:    f2c40802    ....    MOVT     r8,#0x4002
        0x00018cd0:    1c47        G.      ADDS     r7,r0,#1
        0x00018cd2:    bf00        ..      NOP      
        0x00018cd4:    3f01        .?      SUBS     r7,#1
        0x00018cd6:    d02b        +.      BEQ      0x18d30 ; am_hal_delay_us_status_check + 144
        0x00018cd8:    f8d80000    ....    LDR      r0,[r8,#0]
        0x00018cdc:    f0000018    ....    AND      r0,r0,#0x18
        0x00018ce0:    2810        .(      CMP      r0,#0x10
        0x00018ce2:    f04f0011    O...    MOV      r0,#0x11
        0x00018ce6:    bf08        ..      IT       EQ
        0x00018ce8:    202b        +       MOVEQ    r0,#0x2b
        0x00018cea:    47c8        .G      BLX      r9
        0x00018cec:    6830        0h      LDR      r0,[r6,#0]
        0x00018cee:    4028        (@      ANDS     r0,r0,r5
        0x00018cf0:    42a0        .B      CMP      r0,r4
        0x00018cf2:    d1ef        ..      BNE      0x18cd4 ; am_hal_delay_us_status_check + 52
        0x00018cf4:    e018        ..      B        0x18d28 ; am_hal_delay_us_status_check + 136
        0x00018cf6:    bf00        ..      NOP      
        0x00018cf8:    42a1        .B      CMP      r1,r4
        0x00018cfa:    d115        ..      BNE      0x18d28 ; am_hal_delay_us_status_check + 136
        0x00018cfc:    f2410800    A...    MOVW     r8,#0x1000
        0x00018d00:    f2c40802    ....    MOVT     r8,#0x4002
        0x00018d04:    1c47        G.      ADDS     r7,r0,#1
        0x00018d06:    bf00        ..      NOP      
        0x00018d08:    3f01        .?      SUBS     r7,#1
        0x00018d0a:    d011        ..      BEQ      0x18d30 ; am_hal_delay_us_status_check + 144
        0x00018d0c:    f8d80000    ....    LDR      r0,[r8,#0]
        0x00018d10:    f0000018    ....    AND      r0,r0,#0x18
        0x00018d14:    2810        .(      CMP      r0,#0x10
        0x00018d16:    f04f0011    O...    MOV      r0,#0x11
        0x00018d1a:    bf08        ..      IT       EQ
        0x00018d1c:    202b        +       MOVEQ    r0,#0x2b
        0x00018d1e:    47c8        .G      BLX      r9
        0x00018d20:    6830        0h      LDR      r0,[r6,#0]
        0x00018d22:    4028        (@      ANDS     r0,r0,r5
        0x00018d24:    42a0        .B      CMP      r0,r4
        0x00018d26:    d0ef        ..      BEQ      0x18d08 ; am_hal_delay_us_status_check + 104
        0x00018d28:    2000        .       MOVS     r0,#0
        0x00018d2a:    b001        ..      ADD      sp,sp,#4
        0x00018d2c:    e8bd83f0    ....    POP      {r4-r9,pc}
        0x00018d30:    2004        .       MOVS     r0,#4
        0x00018d32:    b001        ..      ADD      sp,sp,#4
        0x00018d34:    e8bd83f0    ....    POP      {r4-r9,pc}
    am_hal_gpio_interrupt_clear
        0x00018d38:    b510        ..      PUSH     {r4,lr}
        0x00018d3a:    b084        ..      SUB      sp,sp,#0x10
        0x00018d3c:    b311        ..      CBZ      r1,0x18d84 ; am_hal_gpio_interrupt_clear + 76
        0x00018d3e:    460c        .F      MOV      r4,r1
        0x00018d40:    68c9        .h      LDR      r1,[r1,#0xc]
        0x00018d42:    2900        .)      CMP      r1,#0
        0x00018d44:    d422        ".      BMI      0x18d8c ; am_hal_gpio_interrupt_clear + 84
        0x00018d46:    b328        (.      CBZ      r0,0x18d94 ; am_hal_gpio_interrupt_clear + 92
        0x00018d48:    2801        .(      CMP      r0,#1
        0x00018d4a:    d035        5.      BEQ      0x18db8 ; am_hal_gpio_interrupt_clear + 128
        0x00018d4c:    2802        .(      CMP      r0,#2
        0x00018d4e:    d145        E.      BNE      0x18ddc ; am_hal_gpio_interrupt_clear + 164
        0x00018d50:    f000fad2    ....    BL       am_hal_interrupt_master_disable ; 0x192f8
        0x00018d54:    9003        ..      STR      r0,[sp,#0xc]
        0x00018d56:    6820         h      LDR      r0,[r4,#0]
        0x00018d58:    f24021c8    @..!    MOVW     r1,#0x2c8
        0x00018d5c:    f2c40101    ....    MOVT     r1,#0x4001
        0x00018d60:    6008        .`      STR      r0,[r1,#0]
        0x00018d62:    6860        `h      LDR      r0,[r4,#4]
        0x00018d64:    6108        .a      STR      r0,[r1,#0x10]
        0x00018d66:    68a0        .h      LDR      r0,[r4,#8]
        0x00018d68:    6208        .b      STR      r0,[r1,#0x20]
        0x00018d6a:    68e0        .h      LDR      r0,[r4,#0xc]
        0x00018d6c:    6308        .c      STR      r0,[r1,#0x30]
        0x00018d6e:    6820         h      LDR      r0,[r4,#0]
        0x00018d70:    6408        .d      STR      r0,[r1,#0x40]
        0x00018d72:    6860        `h      LDR      r0,[r4,#4]
        0x00018d74:    6508        .e      STR      r0,[r1,#0x50]
        0x00018d76:    68a0        .h      LDR      r0,[r4,#8]
        0x00018d78:    6608        .f      STR      r0,[r1,#0x60]
        0x00018d7a:    68e0        .h      LDR      r0,[r4,#0xc]
        0x00018d7c:    6708        .g      STR      r0,[r1,#0x70]
        0x00018d7e:    9803        ..      LDR      r0,[sp,#0xc]
        0x00018d80:    e02a        *.      B        0x18dd8 ; am_hal_gpio_interrupt_clear + 160
        0x00018d82:    bf00        ..      NOP      
        0x00018d84:    2006        .       MOVS     r0,#6
        0x00018d86:    b004        ..      ADD      sp,sp,#0x10
        0x00018d88:    bd10        ..      POP      {r4,pc}
        0x00018d8a:    bf00        ..      NOP      
        0x00018d8c:    2005        .       MOVS     r0,#5
        0x00018d8e:    b004        ..      ADD      sp,sp,#0x10
        0x00018d90:    bd10        ..      POP      {r4,pc}
        0x00018d92:    bf00        ..      NOP      
        0x00018d94:    f000fab0    ....    BL       am_hal_interrupt_master_disable ; 0x192f8
        0x00018d98:    9002        ..      STR      r0,[sp,#8]
        0x00018d9a:    6820         h      LDR      r0,[r4,#0]
        0x00018d9c:    f24021c8    @..!    MOVW     r1,#0x2c8
        0x00018da0:    f2c40101    ....    MOVT     r1,#0x4001
        0x00018da4:    6008        .`      STR      r0,[r1,#0]
        0x00018da6:    6860        `h      LDR      r0,[r4,#4]
        0x00018da8:    6108        .a      STR      r0,[r1,#0x10]
        0x00018daa:    68a0        .h      LDR      r0,[r4,#8]
        0x00018dac:    6208        .b      STR      r0,[r1,#0x20]
        0x00018dae:    68e0        .h      LDR      r0,[r4,#0xc]
        0x00018db0:    6308        .c      STR      r0,[r1,#0x30]
        0x00018db2:    9802        ..      LDR      r0,[sp,#8]
        0x00018db4:    e010        ..      B        0x18dd8 ; am_hal_gpio_interrupt_clear + 160
        0x00018db6:    bf00        ..      NOP      
        0x00018db8:    f000fa9e    ....    BL       am_hal_interrupt_master_disable ; 0x192f8
        0x00018dbc:    9001        ..      STR      r0,[sp,#4]
        0x00018dbe:    6820         h      LDR      r0,[r4,#0]
        0x00018dc0:    f24021c8    @..!    MOVW     r1,#0x2c8
        0x00018dc4:    f2c40101    ....    MOVT     r1,#0x4001
        0x00018dc8:    6408        .d      STR      r0,[r1,#0x40]
        0x00018dca:    6860        `h      LDR      r0,[r4,#4]
        0x00018dcc:    6508        .e      STR      r0,[r1,#0x50]
        0x00018dce:    68a0        .h      LDR      r0,[r4,#8]
        0x00018dd0:    6608        .f      STR      r0,[r1,#0x60]
        0x00018dd2:    68e0        .h      LDR      r0,[r4,#0xc]
        0x00018dd4:    6708        .g      STR      r0,[r1,#0x70]
        0x00018dd6:    9801        ..      LDR      r0,[sp,#4]
        0x00018dd8:    f000fa96    ....    BL       am_hal_interrupt_master_set ; 0x19308
        0x00018ddc:    2000        .       MOVS     r0,#0
        0x00018dde:    b004        ..      ADD      sp,sp,#0x10
        0x00018de0:    bd10        ..      POP      {r4,pc}
        0x00018de2:    0000        ..      MOVS     r0,r0
    am_hal_gpio_interrupt_control
        0x00018de4:    e92d41f0    -..A    PUSH     {r4-r8,lr}
        0x00018de8:    b082        ..      SUB      sp,sp,#8
        0x00018dea:    4605        .F      MOV      r5,r0
        0x00018dec:    2903        .)      CMP      r1,#3
        0x00018dee:    f04f0006    O...    MOV      r0,#6
        0x00018df2:    f20080a8    ....    BHI.W    0x18f46 ; am_hal_gpio_interrupt_control + 354
        0x00018df6:    4614        .F      MOV      r4,r2
        0x00018df8:    2a00        .*      CMP      r2,#0
        0x00018dfa:    f00080a4    ....    BEQ.W    0x18f46 ; am_hal_gpio_interrupt_control + 354
        0x00018dfe:    460e        .F      MOV      r6,r1
        0x00018e00:    2901        .)      CMP      r1,#1
        0x00018e02:    d81e        ..      BHI      0x18e42 ; am_hal_gpio_interrupt_control + 94
        0x00018e04:    6821        !h      LDR      r1,[r4,#0]
        0x00018e06:    297f        .)      CMP      r1,#0x7f
        0x00018e08:    d80e        ..      BHI      0x18e28 ; am_hal_gpio_interrupt_control + 68
        0x00018e0a:    f64c02b0    L...    MOV      r2,#0xc8b0
        0x00018e0e:    0948        H.      LSRS     r0,r1,#5
        0x00018e10:    f2c00201    ....    MOVT     r2,#1
        0x00018e14:    f8522020    R.      LDR      r2,[r2,r0,LSL #2]
        0x00018e18:    f001011f    ....    AND      r1,r1,#0x1f
        0x00018e1c:    2301        .#      MOVS     r3,#1
        0x00018e1e:    fa03f801    ....    LSL      r8,r3,r1
        0x00018e22:    ea120f08    ....    TST      r2,r8
        0x00018e26:    d003        ..      BEQ      0x18e30 ; am_hal_gpio_interrupt_control + 76
        0x00018e28:    2005        .       MOVS     r0,#5
        0x00018e2a:    b002        ..      ADD      sp,sp,#8
        0x00018e2c:    e8bd81f0    ....    POP      {r4-r8,pc}
        0x00018e30:    f24021c0    @..!    MOVW     r1,#0x2c0
        0x00018e34:    f2c40101    ....    MOVT     r1,#0x4001
        0x00018e38:    2d01        .-      CMP      r5,#1
        0x00018e3a:    bf08        ..      IT       EQ
        0x00018e3c:    3140        @1      ADDEQ    r1,r1,#0x40
        0x00018e3e:    eb011700    ....    ADD      r7,r1,r0,LSL #4
        0x00018e42:    f000fa59    ..Y.    BL       am_hal_interrupt_master_disable ; 0x192f8
        0x00018e46:    2e03        ..      CMP      r6,#3
        0x00018e48:    9001        ..      STR      r0,[sp,#4]
        0x00018e4a:    f2008078    ..x.    BHI.W    0x18f3e ; am_hal_gpio_interrupt_control + 346
        0x00018e4e:    e8dff006    ....    TBB      [pc,r6]
    $d.8
        0x00018e52:    0f03        ..      DCW    3843
        0x00018e54:    bf004b1b    .K..    DCD    3204467483
    $t.9
        0x00018e58:    6838        8h      LDR      r0,[r7,#0]
        0x00018e5a:    2d02        .-      CMP      r5,#2
        0x00018e5c:    ea200008     ...    BIC      r0,r0,r8
        0x00018e60:    6038        8`      STR      r0,[r7,#0]
        0x00018e62:    d16c        l.      BNE      0x18f3e ; am_hal_gpio_interrupt_control + 346
        0x00018e64:    6c38        8l      LDR      r0,[r7,#0x40]
        0x00018e66:    ea6f0108    o...    MVN      r1,r8
        0x00018e6a:    4008        .@      ANDS     r0,r0,r1
        0x00018e6c:    6438        8d      STR      r0,[r7,#0x40]
        0x00018e6e:    e066        f.      B        0x18f3e ; am_hal_gpio_interrupt_control + 346
        0x00018e70:    6838        8h      LDR      r0,[r7,#0]
        0x00018e72:    2d02        .-      CMP      r5,#2
        0x00018e74:    ea400008    @...    ORR      r0,r0,r8
        0x00018e78:    6038        8`      STR      r0,[r7,#0]
        0x00018e7a:    d160        `.      BNE      0x18f3e ; am_hal_gpio_interrupt_control + 346
        0x00018e7c:    6c38        8l      LDR      r0,[r7,#0x40]
        0x00018e7e:    ea400008    @...    ORR      r0,r0,r8
        0x00018e82:    6438        8d      STR      r0,[r7,#0x40]
        0x00018e84:    e05b        [.      B        0x18f3e ; am_hal_gpio_interrupt_control + 346
        0x00018e86:    bf00        ..      NOP      
        0x00018e88:    f24020c0    @..     MOVW     r0,#0x2c0
        0x00018e8c:    2d01        .-      CMP      r5,#1
        0x00018e8e:    f2c40001    ....    MOVT     r0,#0x4001
        0x00018e92:    d015        ..      BEQ      0x18ec0 ; am_hal_gpio_interrupt_control + 220
        0x00018e94:    6821        !h      LDR      r1,[r4,#0]
        0x00018e96:    6802        .h      LDR      r2,[r0,#0]
        0x00018e98:    2d00        .-      CMP      r5,#0
        0x00018e9a:    ea220101    "...    BIC      r1,r2,r1
        0x00018e9e:    6001        .`      STR      r1,[r0,#0]
        0x00018ea0:    6861        ah      LDR      r1,[r4,#4]
        0x00018ea2:    6902        .i      LDR      r2,[r0,#0x10]
        0x00018ea4:    ea220101    "...    BIC      r1,r2,r1
        0x00018ea8:    6101        .a      STR      r1,[r0,#0x10]
        0x00018eaa:    68a1        .h      LDR      r1,[r4,#8]
        0x00018eac:    6a02        .j      LDR      r2,[r0,#0x20]
        0x00018eae:    ea220101    "...    BIC      r1,r2,r1
        0x00018eb2:    6201        .b      STR      r1,[r0,#0x20]
        0x00018eb4:    68e1        .h      LDR      r1,[r4,#0xc]
        0x00018eb6:    6b02        .k      LDR      r2,[r0,#0x30]
        0x00018eb8:    ea220101    "...    BIC      r1,r2,r1
        0x00018ebc:    6301        .c      STR      r1,[r0,#0x30]
        0x00018ebe:    d03e        >.      BEQ      0x18f3e ; am_hal_gpio_interrupt_control + 346
        0x00018ec0:    6821        !h      LDR      r1,[r4,#0]
        0x00018ec2:    6c02        .l      LDR      r2,[r0,#0x40]
        0x00018ec4:    ea220101    "...    BIC      r1,r2,r1
        0x00018ec8:    6401        .d      STR      r1,[r0,#0x40]
        0x00018eca:    6861        ah      LDR      r1,[r4,#4]
        0x00018ecc:    6d02        .m      LDR      r2,[r0,#0x50]
        0x00018ece:    ea220101    "...    BIC      r1,r2,r1
        0x00018ed2:    6501        .e      STR      r1,[r0,#0x50]
        0x00018ed4:    68a1        .h      LDR      r1,[r4,#8]
        0x00018ed6:    6e02        .n      LDR      r2,[r0,#0x60]
        0x00018ed8:    ea220101    "...    BIC      r1,r2,r1
        0x00018edc:    6601        .f      STR      r1,[r0,#0x60]
        0x00018ede:    68e1        .h      LDR      r1,[r4,#0xc]
        0x00018ee0:    6f02        .o      LDR      r2,[r0,#0x70]
        0x00018ee2:    ea220101    "...    BIC      r1,r2,r1
        0x00018ee6:    e029        ).      B        0x18f3c ; am_hal_gpio_interrupt_control + 344
        0x00018ee8:    f24020c0    @..     MOVW     r0,#0x2c0
        0x00018eec:    2d01        .-      CMP      r5,#1
        0x00018eee:    f2c40001    ....    MOVT     r0,#0x4001
        0x00018ef2:    d014        ..      BEQ      0x18f1e ; am_hal_gpio_interrupt_control + 314
        0x00018ef4:    6821        !h      LDR      r1,[r4,#0]
        0x00018ef6:    6802        .h      LDR      r2,[r0,#0]
        0x00018ef8:    ea410102    A...    ORR      r1,r1,r2
        0x00018efc:    6001        .`      STR      r1,[r0,#0]
        0x00018efe:    6861        ah      LDR      r1,[r4,#4]
        0x00018f00:    6902        .i      LDR      r2,[r0,#0x10]
        0x00018f02:    ea410102    A...    ORR      r1,r1,r2
        0x00018f06:    6101        .a      STR      r1,[r0,#0x10]
        0x00018f08:    68a1        .h      LDR      r1,[r4,#8]
        0x00018f0a:    6a02        .j      LDR      r2,[r0,#0x20]
        0x00018f0c:    ea410102    A...    ORR      r1,r1,r2
        0x00018f10:    6201        .b      STR      r1,[r0,#0x20]
        0x00018f12:    68e1        .h      LDR      r1,[r4,#0xc]
        0x00018f14:    6b02        .k      LDR      r2,[r0,#0x30]
        0x00018f16:    ea410102    A...    ORR      r1,r1,r2
        0x00018f1a:    6301        .c      STR      r1,[r0,#0x30]
        0x00018f1c:    b17d        }.      CBZ      r5,0x18f3e ; am_hal_gpio_interrupt_control + 346
        0x00018f1e:    6821        !h      LDR      r1,[r4,#0]
        0x00018f20:    6c02        .l      LDR      r2,[r0,#0x40]
        0x00018f22:    4311        .C      ORRS     r1,r1,r2
        0x00018f24:    6401        .d      STR      r1,[r0,#0x40]
        0x00018f26:    6861        ah      LDR      r1,[r4,#4]
        0x00018f28:    6d02        .m      LDR      r2,[r0,#0x50]
        0x00018f2a:    4311        .C      ORRS     r1,r1,r2
        0x00018f2c:    6501        .e      STR      r1,[r0,#0x50]
        0x00018f2e:    68a1        .h      LDR      r1,[r4,#8]
        0x00018f30:    6e02        .n      LDR      r2,[r0,#0x60]
        0x00018f32:    4311        .C      ORRS     r1,r1,r2
        0x00018f34:    6601        .f      STR      r1,[r0,#0x60]
        0x00018f36:    68e1        .h      LDR      r1,[r4,#0xc]
        0x00018f38:    6f02        .o      LDR      r2,[r0,#0x70]
        0x00018f3a:    4311        .C      ORRS     r1,r1,r2
        0x00018f3c:    6701        .g      STR      r1,[r0,#0x70]
        0x00018f3e:    9801        ..      LDR      r0,[sp,#4]
        0x00018f40:    f000f9e2    ....    BL       am_hal_interrupt_master_set ; 0x19308
        0x00018f44:    2000        .       MOVS     r0,#0
        0x00018f46:    b002        ..      ADD      sp,sp,#8
        0x00018f48:    e8bd81f0    ....    POP      {r4-r8,pc}
    am_hal_gpio_interrupt_irq_clear
        0x00018f4c:    f1a00240    ..@.    SUB      r2,r0,#0x40
        0x00018f50:    f1120f08    ....    CMN      r2,#8
        0x00018f54:    bf3c        <.      ITT      CC
        0x00018f56:    2006        .       MOVCC    r0,#6
        0x00018f58:    4770        pG      BXCC     lr
        0x00018f5a:    f64f72c8    O..r    MOV      r2,#0xffc8
        0x00018f5e:    f6c072ff    ...r    MOVT     r2,#0xfff
        0x00018f62:    1883        ..      ADDS     r3,r0,r2
        0x00018f64:    283b        ;(      CMP      r0,#0x3b
        0x00018f66:    bf88        ..      IT       HI
        0x00018f68:    f1030034    ..4.    ADDHI    r0,r3,#0x34
        0x00018f6c:    4410        .D      ADD      r0,r0,r2
        0x00018f6e:    f24022c8    @.."    MOVW     r2,#0x2c8
        0x00018f72:    f2c40201    ....    MOVT     r2,#0x4001
        0x00018f76:    ea4f1000    O...    LSL      r0,r0,#4
        0x00018f7a:    bf88        ..      IT       HI
        0x00018f7c:    3240        @2      ADDHI    r2,r2,#0x40
        0x00018f7e:    5011        .P      STR      r1,[r2,r0]
        0x00018f80:    2000        .       MOVS     r0,#0
        0x00018f82:    4770        pG      BX       lr
    am_hal_gpio_interrupt_irq_status_get
        0x00018f84:    e92d41f0    -..A    PUSH     {r4-r8,lr}
        0x00018f88:    b082        ..      SUB      sp,sp,#8
        0x00018f8a:    460d        .F      MOV      r5,r1
        0x00018f8c:    f1a00140    ..@.    SUB      r1,r0,#0x40
        0x00018f90:    f1110f08    ....    CMN      r1,#8
        0x00018f94:    f04f0106    O...    MOV      r1,#6
        0x00018f98:    d329        ).      BCC      0x18fee ; am_hal_gpio_interrupt_irq_status_get + 106
        0x00018f9a:    4614        .F      MOV      r4,r2
        0x00018f9c:    b33a        :.      CBZ      r2,0x18fee ; am_hal_gpio_interrupt_irq_status_get + 106
        0x00018f9e:    f64f71c8    O..q    MOV      r1,#0xffc8
        0x00018fa2:    f6c071ff    ...q    MOVT     r1,#0xfff
        0x00018fa6:    4603        .F      MOV      r3,r0
        0x00018fa8:    f24028c0    @..(    MOVW     r8,#0x2c0
        0x00018fac:    1842        B.      ADDS     r2,r0,r1
        0x00018fae:    283b        ;(      CMP      r0,#0x3b
        0x00018fb0:    bf88        ..      IT       HI
        0x00018fb2:    f1020334    ..4.    ADDHI    r3,r2,#0x34
        0x00018fb6:    4419        .D      ADD      r1,r1,r3
        0x00018fb8:    f2c40801    ....    MOVT     r8,#0x4001
        0x00018fbc:    010e        ..      LSLS     r6,r1,#4
        0x00018fbe:    2240        @"      MOVS     r2,#0x40
        0x00018fc0:    283b        ;(      CMP      r0,#0x3b
        0x00018fc2:    bf88        ..      IT       HI
        0x00018fc4:    eb021601    ....    ADDHI    r6,r2,r1,LSL #4
        0x00018fc8:    f1080704    ....    ADD      r7,r8,#4
        0x00018fcc:    f000f994    ....    BL       am_hal_interrupt_master_disable ; 0x192f8
        0x00018fd0:    9001        ..      STR      r0,[sp,#4]
        0x00018fd2:    2d00        .-      CMP      r5,#0
        0x00018fd4:    bf14        ..      ITE      NE
        0x00018fd6:    f8560008    V...    LDRNE    r0,[r6,r8]
        0x00018fda:    f04f30ff    O..0    MOVEQ    r0,#0xffffffff
        0x00018fde:    6020         `      STR      r0,[r4,#0]
        0x00018fe0:    59f1        .Y      LDR      r1,[r6,r7]
        0x00018fe2:    4008        .@      ANDS     r0,r0,r1
        0x00018fe4:    6020         `      STR      r0,[r4,#0]
        0x00018fe6:    9801        ..      LDR      r0,[sp,#4]
        0x00018fe8:    f000f98e    ....    BL       am_hal_interrupt_master_set ; 0x19308
        0x00018fec:    2100        .!      MOVS     r1,#0
        0x00018fee:    4608        .F      MOV      r0,r1
        0x00018ff0:    b002        ..      ADD      sp,sp,#8
        0x00018ff2:    e8bd81f0    ....    POP      {r4-r8,pc}
        0x00018ff6:    0000        ..      MOVS     r0,r0
    am_hal_gpio_interrupt_register
        0x00018ff8:    b5b0        ..      PUSH     {r4,r5,r7,lr}
        0x00018ffa:    f04f0e04    O...    MOV      lr,#4
        0x00018ffe:    ea4f1c51    O.Q.    LSR      r12,r1,#5
        0x00019002:    2802        .(      CMP      r0,#2
        0x00019004:    eb0e1e51    ..Q.    ADD      lr,lr,r1,LSR #5
        0x00019008:    d01a        ..      BEQ      0x19040 ; am_hal_gpio_interrupt_register + 72
        0x0001900a:    2801        .(      CMP      r0,#1
        0x0001900c:    d036        6.      BEQ      0x1907c ; am_hal_gpio_interrupt_register + 132
        0x0001900e:    2800        .(      CMP      r0,#0
        0x00019010:    bf1c        ..      ITT      NE
        0x00019012:    2006        .       MOVNE    r0,#6
        0x00019014:    bdb0        ..      POPNE    {r4,r5,r7,pc}
        0x00019016:    f24500e8    E...    MOV      r0,#0x50e8
        0x0001901a:    f2c10000    ....    MOVT     r0,#0x1000
        0x0001901e:    eb0010cc    ....    ADD      r0,r0,r12,LSL #7
        0x00019022:    f001011f    ....    AND      r1,r1,#0x1f
        0x00019026:    f8402021    @.!     STR      r2,[r0,r1,LSL #2]
        0x0001902a:    f24540e8    E..@    MOV      r0,#0x54e8
        0x0001902e:    f2c10000    ....    MOVT     r0,#0x1000
        0x00019032:    eb0010cc    ....    ADD      r0,r0,r12,LSL #7
        0x00019036:    eb000081    ....    ADD      r0,r0,r1,LSL #2
        0x0001903a:    6003        .`      STR      r3,[r0,#0]
        0x0001903c:    2000        .       MOVS     r0,#0
        0x0001903e:    bdb0        ..      POP      {r4,r5,r7,pc}
        0x00019040:    f24505e8    E...    MOV      r5,#0x50e8
        0x00019044:    f2c10500    ....    MOVT     r5,#0x1000
        0x00019048:    eb0514cc    ....    ADD      r4,r5,r12,LSL #7
        0x0001904c:    f001011f    ....    AND      r1,r1,#0x1f
        0x00019050:    f8442021    D.!     STR      r2,[r4,r1,LSL #2]
        0x00019054:    f24544e8    E..D    MOV      r4,#0x54e8
        0x00019058:    f2c10400    ....    MOVT     r4,#0x1000
        0x0001905c:    eb0410cc    ....    ADD      r0,r4,r12,LSL #7
        0x00019060:    f8403021    @.!0    STR      r3,[r0,r1,LSL #2]
        0x00019064:    eb0510ce    ....    ADD      r0,r5,lr,LSL #7
        0x00019068:    f8402021    @.!     STR      r2,[r0,r1,LSL #2]
        0x0001906c:    eb0410ce    ....    ADD      r0,r4,lr,LSL #7
        0x00019070:    eb000081    ....    ADD      r0,r0,r1,LSL #2
        0x00019074:    6003        .`      STR      r3,[r0,#0]
        0x00019076:    2000        .       MOVS     r0,#0
        0x00019078:    bdb0        ..      POP      {r4,r5,r7,pc}
        0x0001907a:    bf00        ..      NOP      
        0x0001907c:    f24500e8    E...    MOV      r0,#0x50e8
        0x00019080:    f2c10000    ....    MOVT     r0,#0x1000
        0x00019084:    eb0010ce    ....    ADD      r0,r0,lr,LSL #7
        0x00019088:    f001011f    ....    AND      r1,r1,#0x1f
        0x0001908c:    f8402021    @.!     STR      r2,[r0,r1,LSL #2]
        0x00019090:    f24540e8    E..@    MOV      r0,#0x54e8
        0x00019094:    f2c10000    ....    MOVT     r0,#0x1000
        0x00019098:    eb0010ce    ....    ADD      r0,r0,lr,LSL #7
        0x0001909c:    eb000081    ....    ADD      r0,r0,r1,LSL #2
        0x000190a0:    6003        .`      STR      r3,[r0,#0]
        0x000190a2:    2000        .       MOVS     r0,#0
        0x000190a4:    bdb0        ..      POP      {r4,r5,r7,pc}
        0x000190a6:    0000        ..      MOVS     r0,r0
    am_hal_gpio_interrupt_service
        0x000190a8:    e92d43f0    -..C    PUSH     {r4-r9,lr}
        0x000190ac:    b081        ..      SUB      sp,sp,#4
        0x000190ae:    3838        88      SUBS     r0,r0,#0x38
        0x000190b0:    2807        .(      CMP      r0,#7
        0x000190b2:    d903        ..      BLS      0x190bc ; am_hal_gpio_interrupt_service + 20
        0x000190b4:    f04f0805    O...    MOV      r8,#5
        0x000190b8:    e02c        ,.      B        0x19114 ; am_hal_gpio_interrupt_service + 108
        0x000190ba:    bf00        ..      NOP      
        0x000190bc:    460d        .F      MOV      r5,r1
        0x000190be:    f04f0800    O...    MOV      r8,#0
        0x000190c2:    b339        9.      CBZ      r1,0x19114 ; am_hal_gpio_interrupt_service + 108
        0x000190c4:    f24501e8    E...    MOV      r1,#0x50e8
        0x000190c8:    f2c10100    ....    MOVT     r1,#0x1000
        0x000190cc:    eb0117c0    ....    ADD      r7,r1,r0,LSL #7
        0x000190d0:    f24541e8    E..A    MOV      r1,#0x54e8
        0x000190d4:    f2c10100    ....    MOVT     r1,#0x1000
        0x000190d8:    f04f4900    O..I    MOV      r9,#0x80000000
        0x000190dc:    eb0114c0    ....    ADD      r4,r1,r0,LSL #7
        0x000190e0:    e007        ..      B        0x190f2 ; am_hal_gpio_interrupt_service + 74
        0x000190e2:    bf00        ..      NOP      
        0x000190e4:    f8540020    T. .    LDR      r0,[r4,r0,LSL #2]
        0x000190e8:    4788        .G      BLX      r1
        0x000190ea:    fa29f006    )...    LSR      r0,r9,r6
        0x000190ee:    4385        .C      BICS     r5,r5,r0
        0x000190f0:    b185        ..      CBZ      r5,0x19114 ; am_hal_gpio_interrupt_service + 108
        0x000190f2:    4268        hB      RSBS     r0,r5,#0
        0x000190f4:    4028        (@      ANDS     r0,r0,r5
        0x000190f6:    fab0f680    ....    CLZ      r6,r0
        0x000190fa:    f1c6001f    ....    RSB      r0,r6,#0x1f
        0x000190fe:    f8571020    W. .    LDR      r1,[r7,r0,LSL #2]
        0x00019102:    2900        .)      CMP      r1,#0
        0x00019104:    d1ee        ..      BNE      0x190e4 ; am_hal_gpio_interrupt_service + 60
        0x00019106:    f04f0807    O...    MOV      r8,#7
        0x0001910a:    fa29f006    )...    LSR      r0,r9,r6
        0x0001910e:    4385        .C      BICS     r5,r5,r0
        0x00019110:    2d00        .-      CMP      r5,#0
        0x00019112:    d1ee        ..      BNE      0x190f2 ; am_hal_gpio_interrupt_service + 74
        0x00019114:    4640        @F      MOV      r0,r8
        0x00019116:    b001        ..      ADD      sp,sp,#4
        0x00019118:    e8bd83f0    ....    POP      {r4-r9,pc}
    am_hal_gpio_pinconfig
        0x0001911c:    b5b0        ..      PUSH     {r4,r5,r7,lr}
        0x0001911e:    b084        ..      SUB      sp,sp,#0x10
        0x00019120:    287f        .(      CMP      r0,#0x7f
        0x00019122:    9103        ..      STR      r1,[sp,#0xc]
        0x00019124:    d904        ..      BLS      0x19130 ; am_hal_gpio_pinconfig + 20
        0x00019126:    2405        .$      MOVS     r4,#5
        0x00019128:    4620         F      MOV      r0,r4
        0x0001912a:    b004        ..      ADD      sp,sp,#0x10
        0x0001912c:    bdb0        ..      POP      {r4,r5,r7,pc}
        0x0001912e:    bf00        ..      NOP      
        0x00019130:    f64c02b0    L...    MOV      r2,#0xc8b0
        0x00019134:    ea4f1c50    O.P.    LSR      r12,r0,#5
        0x00019138:    f2c00201    ....    MOVT     r2,#1
        0x0001913c:    4604        .F      MOV      r4,r0
        0x0001913e:    f852302c    R.,0    LDR      r3,[r2,r12,LSL #2]
        0x00019142:    f000021f    ....    AND      r2,r0,#0x1f
        0x00019146:    2001        .       MOVS     r0,#1
        0x00019148:    fa00f202    ....    LSL      r2,r0,r2
        0x0001914c:    4213        .B      TST      r3,r2
        0x0001914e:    d003        ..      BEQ      0x19158 ; am_hal_gpio_pinconfig + 60
        0x00019150:    2405        .$      MOVS     r4,#5
        0x00019152:    4620         F      MOV      r0,r4
        0x00019154:    b004        ..      ADD      sp,sp,#0x10
        0x00019156:    bdb0        ..      POP      {r4,r5,r7,pc}
        0x00019158:    0508        ..      LSLS     r0,r1,#20
        0x0001915a:    d507        ..      BPL      0x1916c ; am_hal_gpio_pinconfig + 80
        0x0001915c:    f64c308c    L..0    MOV      r0,#0xcb8c
        0x00019160:    f2c00001    ....    MOVT     r0,#1
        0x00019164:    f850002c    P.,.    LDR      r0,[r0,r12,LSL #2]
        0x00019168:    4210        .B      TST      r0,r2
        0x0001916a:    d01f        ..      BEQ      0x191ac ; am_hal_gpio_pinconfig + 144
        0x0001916c:    f000f8c4    ....    BL       am_hal_interrupt_master_disable ; 0x192f8
        0x00019170:    f2402500    @..%    MOVW     r5,#0x200
        0x00019174:    9002        ..      STR      r0,[sp,#8]
        0x00019176:    f2c40501    ....    MOVT     r5,#0x4001
        0x0001917a:    2073        s       MOVS     r0,#0x73
        0x0001917c:    6028        (`      STR      r0,[r5,#0]
        0x0001917e:    9802        ..      LDR      r0,[sp,#8]
        0x00019180:    f000f8c2    ....    BL       am_hal_interrupt_master_set ; 0x19308
        0x00019184:    9803        ..      LDR      r0,[sp,#0xc]
        0x00019186:    f64f6200    O..b    MOVW     r2,#0xfe00
        0x0001918a:    eb050184    ....    ADD      r1,r5,r4,LSL #2
        0x0001918e:    f6cf72ff    ...r    MOVT     r2,#0xffff
        0x00019192:    5088        .P      STR      r0,[r1,r2]
        0x00019194:    f000f8b0    ....    BL       am_hal_interrupt_master_disable ; 0x192f8
        0x00019198:    2400        .$      MOVS     r4,#0
        0x0001919a:    9001        ..      STR      r0,[sp,#4]
        0x0001919c:    602c        ,`      STR      r4,[r5,#0]
        0x0001919e:    9801        ..      LDR      r0,[sp,#4]
        0x000191a0:    f000f8b2    ....    BL       am_hal_interrupt_master_set ; 0x19308
        0x000191a4:    4620         F      MOV      r0,r4
        0x000191a6:    b004        ..      ADD      sp,sp,#0x10
        0x000191a8:    bdb0        ..      POP      {r4,r5,r7,pc}
        0x000191aa:    bf00        ..      NOP      
        0x000191ac:    2407        .$      MOVS     r4,#7
        0x000191ae:    4620         F      MOV      r0,r4
        0x000191b0:    b004        ..      ADD      sp,sp,#0x10
        0x000191b2:    bdb0        ..      POP      {r4,r5,r7,pc}
    am_hal_gpio_pinconfig_get
        0x000191b4:    287f        .(      CMP      r0,#0x7f
        0x000191b6:    d80b        ..      BHI      0x191d0 ; am_hal_gpio_pinconfig_get + 28
        0x000191b8:    f64c03b0    L...    MOV      r3,#0xc8b0
        0x000191bc:    0942        B.      LSRS     r2,r0,#5
        0x000191be:    f2c00301    ....    MOVT     r3,#1
        0x000191c2:    f8532022    S."     LDR      r2,[r3,r2,LSL #2]
        0x000191c6:    f000031f    ....    AND      r3,r0,#0x1f
        0x000191ca:    40da        .@      LSRS     r2,r2,r3
        0x000191cc:    07d2        ..      LSLS     r2,r2,#31
        0x000191ce:    d001        ..      BEQ      0x191d4 ; am_hal_gpio_pinconfig_get + 32
        0x000191d0:    2005        .       MOVS     r0,#5
        0x000191d2:    4770        pG      BX       lr
        0x000191d4:    2900        .)      CMP      r1,#0
        0x000191d6:    bf04        ..      ITT      EQ
        0x000191d8:    2006        .       MOVEQ    r0,#6
        0x000191da:    4770        pG      BXEQ     lr
        0x000191dc:    2200        ."      MOVS     r2,#0
        0x000191de:    f2c40201    ....    MOVT     r2,#0x4001
        0x000191e2:    f8520020    R. .    LDR      r0,[r2,r0,LSL #2]
        0x000191e6:    6008        .`      STR      r0,[r1,#0]
        0x000191e8:    2000        .       MOVS     r0,#0
        0x000191ea:    4770        pG      BX       lr
    am_hal_gpio_state_write
        0x000191ec:    b510        ..      PUSH     {r4,lr}
        0x000191ee:    b082        ..      SUB      sp,sp,#8
        0x000191f0:    2905        .)      CMP      r1,#5
        0x000191f2:    d819        ..      BHI      0x19228 ; am_hal_gpio_state_write + 60
        0x000191f4:    4604        .F      MOV      r4,r0
        0x000191f6:    e8dff001    ....    TBB      [pc,r1]
    $d.5
        0x000191fa:    1b03        ..      DCW    6915
        0x000191fc:    6553412d    -ASe    DCD    1699954989
    $t.6
        0x00019200:    f000f87a    ..z.    BL       am_hal_interrupt_master_disable ; 0x192f8
        0x00019204:    9001        ..      STR      r0,[sp,#4]
        0x00019206:    f004001f    ....    AND      r0,r4,#0x1f
        0x0001920a:    2101        .!      MOVS     r1,#1
        0x0001920c:    f2402214    @.."    MOVW     r2,#0x214
        0x00019210:    fa01f000    ....    LSL      r0,r1,r0
        0x00019214:    f3c41141    ..A.    UBFX     r1,r4,#5,#2
        0x00019218:    f2c40201    ....    MOVT     r2,#0x4001
        0x0001921c:    eb020181    ....    ADD      r1,r2,r1,LSL #2
        0x00019220:    6208        .b      STR      r0,[r1,#0x20]
        0x00019222:    9801        ..      LDR      r0,[sp,#4]
        0x00019224:    f000f870    ..p.    BL       am_hal_interrupt_master_set ; 0x19308
        0x00019228:    2000        .       MOVS     r0,#0
        0x0001922a:    b002        ..      ADD      sp,sp,#8
        0x0001922c:    bd10        ..      POP      {r4,pc}
        0x0001922e:    bf00        ..      NOP      
        0x00019230:    f000f862    ..b.    BL       am_hal_interrupt_master_disable ; 0x192f8
        0x00019234:    9001        ..      STR      r0,[sp,#4]
        0x00019236:    f004001f    ....    AND      r0,r4,#0x1f
        0x0001923a:    2101        .!      MOVS     r1,#1
        0x0001923c:    f2402214    @.."    MOVW     r2,#0x214
        0x00019240:    fa01f000    ....    LSL      r0,r1,r0
        0x00019244:    f3c41141    ..A.    UBFX     r1,r4,#5,#2
        0x00019248:    f2c40201    ....    MOVT     r2,#0x4001
        0x0001924c:    eb020181    ....    ADD      r1,r2,r1,LSL #2
        0x00019250:    6108        .a      STR      r0,[r1,#0x10]
        0x00019252:    e04a        J.      B        0x192ea ; am_hal_gpio_state_write + 254
        0x00019254:    f000f850    ..P.    BL       am_hal_interrupt_master_disable ; 0x192f8
        0x00019258:    f2402314    @..#    MOVW     r3,#0x214
        0x0001925c:    9001        ..      STR      r0,[sp,#4]
        0x0001925e:    f3c41241    ..A.    UBFX     r2,r4,#5,#2
        0x00019262:    f2c40301    ....    MOVT     r3,#0x4001
        0x00019266:    f004001f    ....    AND      r0,r4,#0x1f
        0x0001926a:    2101        .!      MOVS     r1,#1
        0x0001926c:    f8534022    S."@    LDR      r4,[r3,r2,LSL #2]
        0x00019270:    fa01f000    ....    LSL      r0,r1,r0
        0x00019274:    4060        `@      EORS     r0,r0,r4
        0x00019276:    f8430022    C.".    STR      r0,[r3,r2,LSL #2]
        0x0001927a:    e036        6.      B        0x192ea ; am_hal_gpio_state_write + 254
        0x0001927c:    f000f83c    ..<.    BL       am_hal_interrupt_master_disable ; 0x192f8
        0x00019280:    9001        ..      STR      r0,[sp,#4]
        0x00019282:    f004001f    ....    AND      r0,r4,#0x1f
        0x00019286:    2101        .!      MOVS     r1,#1
        0x00019288:    f2402214    @.."    MOVW     r2,#0x214
        0x0001928c:    fa01f000    ....    LSL      r0,r1,r0
        0x00019290:    f3c41141    ..A.    UBFX     r1,r4,#5,#2
        0x00019294:    f2c40201    ....    MOVT     r2,#0x4001
        0x00019298:    eb020181    ....    ADD      r1,r2,r1,LSL #2
        0x0001929c:    6508        .e      STR      r0,[r1,#0x50]
        0x0001929e:    e024        $.      B        0x192ea ; am_hal_gpio_state_write + 254
        0x000192a0:    f000f82a    ..*.    BL       am_hal_interrupt_master_disable ; 0x192f8
        0x000192a4:    9001        ..      STR      r0,[sp,#4]
        0x000192a6:    f004001f    ....    AND      r0,r4,#0x1f
        0x000192aa:    2101        .!      MOVS     r1,#1
        0x000192ac:    f2402214    @.."    MOVW     r2,#0x214
        0x000192b0:    fa01f000    ....    LSL      r0,r1,r0
        0x000192b4:    f3c41141    ..A.    UBFX     r1,r4,#5,#2
        0x000192b8:    f2c40201    ....    MOVT     r2,#0x4001
        0x000192bc:    eb020181    ....    ADD      r1,r2,r1,LSL #2
        0x000192c0:    6408        .d      STR      r0,[r1,#0x40]
        0x000192c2:    e012        ..      B        0x192ea ; am_hal_gpio_state_write + 254
        0x000192c4:    f000f818    ....    BL       am_hal_interrupt_master_disable ; 0x192f8
        0x000192c8:    f2402314    @..#    MOVW     r3,#0x214
        0x000192cc:    f3c41241    ..A.    UBFX     r2,r4,#5,#2
        0x000192d0:    f2c40301    ....    MOVT     r3,#0x4001
        0x000192d4:    9001        ..      STR      r0,[sp,#4]
        0x000192d6:    eb030282    ....    ADD      r2,r3,r2,LSL #2
        0x000192da:    f004001f    ....    AND      r0,r4,#0x1f
        0x000192de:    2101        .!      MOVS     r1,#1
        0x000192e0:    6b13        .k      LDR      r3,[r2,#0x30]
        0x000192e2:    fa01f000    ....    LSL      r0,r1,r0
        0x000192e6:    4058        X@      EORS     r0,r0,r3
        0x000192e8:    6310        .c      STR      r0,[r2,#0x30]
        0x000192ea:    9801        ..      LDR      r0,[sp,#4]
        0x000192ec:    f000f80c    ....    BL       am_hal_interrupt_master_set ; 0x19308
        0x000192f0:    2000        .       MOVS     r0,#0
        0x000192f2:    b002        ..      ADD      sp,sp,#8
        0x000192f4:    bd10        ..      POP      {r4,pc}
        0x000192f6:    0000        ..      MOVS     r0,r0
    am_hal_interrupt_master_disable
        0x000192f8:    f3ef8010    ....    MRS      r0,PRIMASK
        0x000192fc:    b672        r.      CPSID    i
        0x000192fe:    4770        pG      BX       lr
    am_hal_interrupt_master_enable
        0x00019300:    f3ef8010    ....    MRS      r0,PRIMASK
        0x00019304:    b662        b.      CPSIE    i
        0x00019306:    4770        pG      BX       lr
    am_hal_interrupt_master_set
        0x00019308:    f3808810    ....    MSR      PRIMASK,r0
        0x0001930c:    4770        pG      BX       lr
        0x0001930e:    0000        ..      MOVS     r0,r0
    am_hal_iom_CQEnable
        0x00019310:    b510        ..      PUSH     {r4,lr}
        0x00019312:    4604        .F      MOV      r4,r0
        0x00019314:    6a40        @j      LDR      r0,[r0,#0x24]
        0x00019316:    b950        P.      CBNZ     r0,0x1932e ; am_hal_iom_CQEnable + 30
        0x00019318:    6860        `h      LDR      r0,[r4,#4]
        0x0001931a:    f240222c    @.,"    MOVW     r2,#0x22c
        0x0001931e:    0301        ..      LSLS     r1,r0,#12
        0x00019320:    f2c40205    ....    MOVT     r2,#0x4005
        0x00019324:    5851        QX      LDR      r1,[r2,r1]
        0x00019326:    eb023000    ...0    ADD      r0,r2,r0,LSL #12
        0x0001932a:    e9c10100    ....    STRD     r0,r1,[r1,#0]
        0x0001932e:    6860        `h      LDR      r0,[r4,#4]
        0x00019330:    3013        .0      ADDS     r0,r0,#0x13
        0x00019332:    f7fffa73    ..s.    BL       am_gpu_power_enable ; 0x1881c
        0x00019336:    f8d40828    ..(.    LDR      r0,[r4,#0x828]
        0x0001933a:    e8bd4010    ...@    POP      {r4,lr}
        0x0001933e:    f7ffba8b    ....    B        am_hal_cmdq_enable ; 0x18858
        0x00019342:    0000        ..      MOVS     r0,r0
    am_hal_iom_blocking_transfer
        0x00019344:    e92d4ff0    -..O    PUSH     {r4-r11,lr}
        0x00019348:    b08d        ..      SUB      sp,sp,#0x34
        0x0001934a:    b1a8        ..      CBZ      r0,0x19378 ; am_hal_iom_blocking_transfer + 52
        0x0001934c:    4604        .F      MOV      r4,r0
        0x0001934e:    6800        .h      LDR      r0,[r0,#0]
        0x00019350:    460e        .F      MOV      r6,r1
        0x00019352:    f2434156    C.VA    MOV      r1,#0x3456
        0x00019356:    f020407e     .~@    BIC      r0,r0,#0xfe000000
        0x0001935a:    f2c01112    ....    MOVT     r1,#0x112
        0x0001935e:    4288        .B      CMP      r0,r1
        0x00019360:    d10a        ..      BNE      0x19378 ; am_hal_iom_blocking_transfer + 52
        0x00019362:    b3a6        ..      CBZ      r6,0x193ce ; am_hal_iom_blocking_transfer + 138
        0x00019364:    f8969014    ....    LDRB     r9,[r6,#0x14]
        0x00019368:    f1b90f01    ....    CMP      r9,#1
        0x0001936c:    d90a        ..      BLS      0x19384 ; am_hal_iom_blocking_transfer + 64
        0x0001936e:    2707        .'      MOVS     r7,#7
        0x00019370:    4638        8F      MOV      r0,r7
        0x00019372:    b00d        ..      ADD      sp,sp,#0x34
        0x00019374:    e8bd8ff0    ....    POP      {r4-r11,pc}
        0x00019378:    2702        .'      MOVS     r7,#2
        0x0001937a:    4638        8F      MOV      r0,r7
        0x0001937c:    b00d        ..      ADD      sp,sp,#0x34
        0x0001937e:    e8bd8ff0    ....    POP      {r4-r11,pc}
        0x00019382:    bf00        ..      NOP      
        0x00019384:    f8d68010    ....    LDR      r8,[r6,#0x10]
        0x00019388:    f1b80f00    ....    CMP      r8,#0
        0x0001938c:    bf04        ..      ITT      EQ
        0x0001938e:    f04f0900    O...    MOVEQ    r9,#0
        0x00019392:    f8869014    ....    STRBEQ   r9,[r6,#0x14]
        0x00019396:    6875        uh      LDR      r5,[r6,#4]
        0x00019398:    2d05        .-      CMP      r5,#5
        0x0001939a:    d818        ..      BHI      0x193ce ; am_hal_iom_blocking_transfer + 138
        0x0001939c:    e9d6ab02    ....    LDRD     r10,r11,[r6,#8]
        0x000193a0:    2120         !      MOVS     r1,#0x20
        0x000193a2:    00e8        ..      LSLS     r0,r5,#3
        0x000193a4:    eba101c5    ....    SUB      r1,r1,r5,LSL #3
        0x000193a8:    fa0bf101    ....    LSL      r1,r11,r1
        0x000193ac:    fa2af200    *...    LSR      r2,r10,r0
        0x000193b0:    4311        .C      ORRS     r1,r1,r2
        0x000193b2:    f06f021f    o...    MVN      r2,#0x1f
        0x000193b6:    eb0202c5    ....    ADD      r2,r2,r5,LSL #3
        0x000193ba:    fa2bf000    +...    LSR      r0,r11,r0
        0x000193be:    2a00        .*      CMP      r2,#0
        0x000193c0:    bf58        X.      IT       PL
        0x000193c2:    fa2bf102    +...    LSRPL    r1,r11,r2
        0x000193c6:    bf58        X.      IT       PL
        0x000193c8:    2000        .       MOVPL    r0,#0
        0x000193ca:    4308        .C      ORRS     r0,r0,r1
        0x000193cc:    d004        ..      BEQ      0x193d8 ; am_hal_iom_blocking_transfer + 148
        0x000193ce:    2706        .'      MOVS     r7,#6
        0x000193d0:    4638        8F      MOV      r0,r7
        0x000193d2:    b00d        ..      ADD      sp,sp,#0x34
        0x000193d4:    e8bd8ff0    ....    POP      {r4-r11,pc}
        0x000193d8:    f1b80f00    ....    CMP      r8,#0
        0x000193dc:    bf18        ..      IT       NE
        0x000193de:    f1b90f00    ....    CMPNE    r9,#0
        0x000193e2:    d109        ..      BNE      0x193f8 ; am_hal_iom_blocking_transfer + 180
        0x000193e4:    f1b80f00    ....    CMP      r8,#0
        0x000193e8:    bf18        ..      IT       NE
        0x000193ea:    f1b90f01    ....    CMPNE    r9,#1
        0x000193ee:    d006        ..      BEQ      0x193fe ; am_hal_iom_blocking_transfer + 186
        0x000193f0:    69b0        .i      LDR      r0,[r6,#0x18]
        0x000193f2:    b920         .      CBNZ     r0,0x193fe ; am_hal_iom_blocking_transfer + 186
        0x000193f4:    e7eb        ..      B        0x193ce ; am_hal_iom_blocking_transfer + 138
        0x000193f6:    bf00        ..      NOP      
        0x000193f8:    69f0        .i      LDR      r0,[r6,#0x1c]
        0x000193fa:    2800        .(      CMP      r0,#0
        0x000193fc:    d0e7        ..      BEQ      0x193ce ; am_hal_iom_blocking_transfer + 138
        0x000193fe:    7a20         z      LDRB     r0,[r4,#8]
        0x00019400:    b130        0.      CBZ      r0,0x19410 ; am_hal_iom_blocking_transfer + 204
        0x00019402:    2801        .(      CMP      r0,#1
        0x00019404:    d10c        ..      BNE      0x19420 ; am_hal_iom_blocking_transfer + 220
        0x00019406:    2000        .       MOVS     r0,#0
        0x00019408:    ebb03f18    ...?    CMP      r0,r8,LSR #12
        0x0001940c:    d008        ..      BEQ      0x19420 ; am_hal_iom_blocking_transfer + 220
        0x0001940e:    e7de        ..      B        0x193ce ; am_hal_iom_blocking_transfer + 138
        0x00019410:    6830        0h      LDR      r0,[r6,#0]
        0x00019412:    2706        .'      MOVS     r7,#6
        0x00019414:    2804        .(      CMP      r0,#4
        0x00019416:    d8ab        ..      BHI      0x19370 ; am_hal_iom_blocking_transfer + 44
        0x00019418:    2000        .       MOVS     r0,#0
        0x0001941a:    ebb03f18    ...?    CMP      r0,r8,LSR #12
        0x0001941e:    d1a7        ..      BNE      0x19370 ; am_hal_iom_blocking_transfer + 44
        0x00019420:    f894082c    ..,.    LDRB     r0,[r4,#0x82c]
        0x00019424:    2802        .(      CMP      r0,#2
        0x00019426:    d105        ..      BNE      0x19434 ; am_hal_iom_blocking_transfer + 240
        0x00019428:    2707        .'      MOVS     r7,#7
        0x0001942a:    4638        8F      MOV      r0,r7
        0x0001942c:    b00d        ..      ADD      sp,sp,#0x34
        0x0001942e:    e8bd8ff0    ....    POP      {r4-r11,pc}
        0x00019432:    bf00        ..      NOP      
        0x00019434:    6860        `h      LDR      r0,[r4,#4]
        0x00019436:    f1b90f00    ....    CMP      r9,#0
        0x0001943a:    900c        ..      STR      r0,[sp,#0x30]
        0x0001943c:    f8960020    .. .    LDRB     r0,[r6,#0x20]
        0x00019440:    f1040124    ..$.    ADD      r1,r4,#0x24
        0x00019444:    900a        ..      STR      r0,[sp,#0x28]
        0x00019446:    f04f001c    O...    MOV      r0,#0x1c
        0x0001944a:    bf08        ..      IT       EQ
        0x0001944c:    2018        .       MOVEQ    r0,#0x18
        0x0001944e:    5830        0X      LDR      r0,[r6,r0]
        0x00019450:    2701        .'      MOVS     r7,#1
        0x00019452:    900b        ..      STR      r0,[sp,#0x2c]
        0x00019454:    f8d40860    ..`.    LDR      r0,[r4,#0x860]
        0x00019458:    f04f32ff    O..2    MOV      r2,#0xffffffff
        0x0001945c:    2300        .#      MOVS     r3,#0
        0x0001945e:    9700        ..      STR      r7,[sp,#0]
        0x00019460:    f7fffc1e    ....    BL       am_hal_delay_us_status_check ; 0x18ca0
        0x00019464:    4607        .F      MOV      r7,r0
        0x00019466:    2800        .(      CMP      r0,#0
        0x00019468:    f47faf82    ....    BNE.W    0x19370 ; am_hal_iom_blocking_transfer + 44
        0x0001946c:    f2402148    @.H!    MOVW     r1,#0x248
        0x00019470:    9a0c        ..      LDR      r2,[sp,#0x30]
        0x00019472:    f8d40860    ..`.    LDR      r0,[r4,#0x860]
        0x00019476:    f2c40105    ....    MOVT     r1,#0x4005
        0x0001947a:    eb013102    ...1    ADD      r1,r1,r2,LSL #12
        0x0001947e:    2206        ."      MOVS     r2,#6
        0x00019480:    2304        .#      MOVS     r3,#4
        0x00019482:    2701        .'      MOVS     r7,#1
        0x00019484:    9108        ..      STR      r1,[sp,#0x20]
        0x00019486:    9700        ..      STR      r7,[sp,#0]
        0x00019488:    f7fffc0a    ....    BL       am_hal_delay_us_status_check ; 0x18ca0
        0x0001948c:    4607        .F      MOV      r7,r0
        0x0001948e:    2800        .(      CMP      r0,#0
        0x00019490:    f47faf6e    ..n.    BNE      0x19370 ; am_hal_iom_blocking_transfer + 44
        0x00019494:    2000        .       MOVS     r0,#0
        0x00019496:    990c        ..      LDR      r1,[sp,#0x30]
        0x00019498:    f2c40005    ....    MOVT     r0,#0x4005
        0x0001949c:    eb003201    ...2    ADD      r2,r0,r1,LSL #12
        0x000194a0:    2000        .       MOVS     r0,#0
        0x000194a2:    f8d23200    ...2    LDR      r3,[r2,#0x200]
        0x000194a6:    f8c20200    ....    STR      r0,[r2,#0x200]
        0x000194aa:    f8d21218    ....    LDR      r1,[r2,#0x218]
        0x000194ae:    f0210101    !...    BIC      r1,r1,#1
        0x000194b2:    f8c21218    ....    STR      r1,[r2,#0x218]
        0x000194b6:    f04f31ff    O..1    MOV      r1,#0xffffffff
        0x000194ba:    f8c21208    ....    STR      r1,[r2,#0x208]
        0x000194be:    6831        1h      LDR      r1,[r6,#0]
        0x000194c0:    f8c212c4    ....    STR      r1,[r2,#0x2c4]
        0x000194c4:    7a21        !z      LDRB     r1,[r4,#8]
        0x000194c6:    b919        ..      CBNZ     r1,0x194d0 ; am_hal_iom_blocking_transfer + 396
        0x000194c8:    6830        0h      LDR      r0,[r6,#0]
        0x000194ca:    4420         D      ADD      r0,r0,r4
        0x000194cc:    f89008a0    ....    LDRB     r0,[r0,#0x8a0]
        0x000194d0:    f8c20124    ..$.    STR      r0,[r2,#0x124]
        0x000194d4:    7a20         z      LDRB     r0,[r4,#8]
        0x000194d6:    920c        ..      STR      r2,[sp,#0x30]
        0x000194d8:    2800        .(      CMP      r0,#0
        0x000194da:    980b        ..      LDR      r0,[sp,#0x2c]
        0x000194dc:    9307        ..      STR      r3,[sp,#0x1c]
        0x000194de:    d003        ..      BEQ      0x194e8 ; am_hal_iom_blocking_transfer + 420
        0x000194e0:    f04f0c00    O...    MOV      r12,#0
        0x000194e4:    e005        ..      B        0x194f2 ; am_hal_iom_blocking_transfer + 430
        0x000194e6:    bf00        ..      NOP      
        0x000194e8:    6832        2h      LDR      r2,[r6,#0]
        0x000194ea:    f44f1140    O.@.    MOV      r1,#0x300000
        0x000194ee:    ea015c02    ...\    AND      r12,r1,r2,LSL #20
        0x000194f2:    f64f7100    O..q    MOVW     r1,#0xff00
        0x000194f6:    f2c0010f    ....    MOVT     r1,#0xf
        0x000194fa:    ea012108    ...!    AND      r1,r1,r8,LSL #8
        0x000194fe:    2201        ."      MOVS     r2,#1
        0x00019500:    f1b90f01    ....    CMP      r9,#1
        0x00019504:    bf08        ..      IT       EQ
        0x00019506:    2202        ."      MOVEQ    r2,#2
        0x00019508:    f0050707    ....    AND      r7,r5,#7
        0x0001950c:    4411        .D      ADD      r1,r1,r2
        0x0001950e:    9b0a        ..      LDR      r3,[sp,#0x28]
        0x00019510:    ea411107    A...    ORR      r1,r1,r7,LSL #4
        0x00019514:    ea4f221a    O.."    LSR      r2,r10,#8
        0x00019518:    9f0c        ..      LDR      r7,[sp,#0x30]
        0x0001951a:    ea42620b    B..b    ORR      r2,r2,r11,LSL #24
        0x0001951e:    f0030301    ....    AND      r3,r3,#1
        0x00019522:    ea41610a    A..a    ORR      r1,r1,r10,LSL #24
        0x00019526:    f8c72128    ..(!    STR      r2,[r7,#0x128]
        0x0001952a:    ea4111c3    A...    ORR      r1,r1,r3,LSL #7
        0x0001952e:    f8d6a010    ....    LDR      r10,[r6,#0x10]
        0x00019532:    f1b90f01    ....    CMP      r9,#1
        0x00019536:    ea4c0c01    L...    ORR      r12,r12,r1
        0x0001953a:    f04080c7    @...    BNE.W    0x196cc ; am_hal_iom_blocking_transfer + 904
        0x0001953e:    f8c7c120    .. .    STR      r12,[r7,#0x120]
        0x00019542:    f8dd9020    .. .    LDR      r9,[sp,#0x20]
        0x00019546:    f1ba0f00    ....    CMP      r10,#0
        0x0001954a:    f000815c    ..\.    BEQ.W    0x19806 ; am_hal_iom_blocking_transfer + 1218
        0x0001954e:    f24a161f    J...    MOV      r6,#0xa11f
        0x00019552:    2200        ."      MOVS     r2,#0
        0x00019554:    f2c00607    ....    MOVT     r6,#7
        0x00019558:    f8d70100    ....    LDR      r0,[r7,#0x100]
        0x0001955c:    f3c04107    ...A    UBFX     r1,r0,#16,#8
        0x00019560:    2903        .)      CMP      r1,#3
        0x00019562:    d81b        ..      BHI      0x1959c ; am_hal_iom_blocking_transfer + 600
        0x00019564:    f04f0800    O...    MOV      r8,#0
        0x00019568:    2500        .%      MOVS     r5,#0
        0x0001956a:    458a        .E      CMP      r10,r1
        0x0001956c:    f04f0000    O...    MOV      r0,#0
        0x00019570:    bf88        ..      IT       HI
        0x00019572:    2001        .       MOVHI    r0,#1
        0x00019574:    42b5        .B      CMP      r5,r6
        0x00019576:    f20081f5    ....    BHI.W    0x19964 ; am_hal_iom_blocking_transfer + 1568
        0x0001957a:    4010        .@      ANDS     r0,r0,r2
        0x0001957c:    f04081f2    @...    BNE.W    0x19964 ; am_hal_iom_blocking_transfer + 1568
        0x00019580:    2001        .       MOVS     r0,#1
        0x00019582:    3501        .5      ADDS     r5,#1
        0x00019584:    f7fffb44    ..D.    BL       am_hal_delay_us ; 0x18c10
        0x00019588:    f8d70204    ....    LDR      r0,[r7,#0x204]
        0x0001958c:    f8d71100    ....    LDR      r1,[r7,#0x100]
        0x00019590:    f0000201    ....    AND      r2,r0,#1
        0x00019594:    f3c14107    ...A    UBFX     r1,r1,#16,#8
        0x00019598:    2904        .)      CMP      r1,#4
        0x0001959a:    d3e6        ..      BCC      0x1956a ; am_hal_iom_blocking_transfer + 550
        0x0001959c:    f1aa0010    ....    SUB      r0,r10,#0x10
        0x000195a0:    9003        ..      STR      r0,[sp,#0xc]
        0x000195a2:    f1aa000c    ....    SUB      r0,r10,#0xc
        0x000195a6:    9004        ..      STR      r0,[sp,#0x10]
        0x000195a8:    f1aa0008    ....    SUB      r0,r10,#8
        0x000195ac:    9005        ..      STR      r0,[sp,#0x14]
        0x000195ae:    f1aa0004    ....    SUB      r0,r10,#4
        0x000195b2:    9202        ..      STR      r2,[sp,#8]
        0x000195b4:    9006        ..      STR      r0,[sp,#0x18]
        0x000195b6:    f06f0b07    o...    MVN      r11,#7
        0x000195ba:    2200        ."      MOVS     r2,#0
        0x000195bc:    f06f050b    o...    MVN      r5,#0xb
        0x000195c0:    f06f0003    o...    MVN      r0,#3
        0x000195c4:    f04f0c00    O...    MOV      r12,#0
        0x000195c8:    4657        WF      MOV      r7,r10
        0x000195ca:    900a        ..      STR      r0,[sp,#0x28]
        0x000195cc:    9e0c        ..      LDR      r6,[sp,#0x30]
        0x000195ce:    9509        ..      STR      r5,[sp,#0x24]
        0x000195d0:    eb0a0302    ....    ADD      r3,r10,r2
        0x000195d4:    f8d6e108    ....    LDR      lr,[r6,#0x108]
        0x000195d8:    2b03        .+      CMP      r3,#3
        0x000195da:    f24080e1    @...    BLS.W    0x197a0 ; am_hal_iom_blocking_transfer + 1116
        0x000195de:    188b        ..      ADDS     r3,r1,r2
        0x000195e0:    980b        ..      LDR      r0,[sp,#0x2c]
        0x000195e2:    f0230903    #...    BIC      r9,r3,#3
        0x000195e6:    eb00080c    ....    ADD      r8,r0,r12
        0x000195ea:    f1b90f04    ....    CMP      r9,#4
        0x000195ee:    f1a70304    ....    SUB      r3,r7,#4
        0x000195f2:    f840e00c    @...    STR      lr,[r0,r12]
        0x000195f6:    d04f        O.      BEQ      0x19698 ; am_hal_iom_blocking_transfer + 852
        0x000195f8:    9806        ..      LDR      r0,[sp,#0x18]
        0x000195fa:    4560        `E      CMP      r0,r12
        0x000195fc:    d04c        L.      BEQ      0x19698 ; am_hal_iom_blocking_transfer + 852
        0x000195fe:    9e0a        ..      LDR      r6,[sp,#0x28]
        0x00019600:    4650        PF      MOV      r0,r10
        0x00019602:    44b2        .D      ADD      r10,r10,r6
        0x00019604:    9e0c        ..      LDR      r6,[sp,#0x30]
        0x00019606:    f1ba0f04    ....    CMP      r10,#4
        0x0001960a:    f8d6e108    ....    LDR      lr,[r6,#0x108]
        0x0001960e:    f0c080cb    ....    BCC.W    0x197a8 ; am_hal_iom_blocking_transfer + 1124
        0x00019612:    f1b90f08    ....    CMP      r9,#8
        0x00019616:    f1a70308    ....    SUB      r3,r7,#8
        0x0001961a:    f8c8e004    ....    STR      lr,[r8,#4]
        0x0001961e:    d03f        ?.      BEQ      0x196a0 ; am_hal_iom_blocking_transfer + 860
        0x00019620:    9e05        ..      LDR      r6,[sp,#0x14]
        0x00019622:    4566        fE      CMP      r6,r12
        0x00019624:    d03c        <.      BEQ      0x196a0 ; am_hal_iom_blocking_transfer + 860
        0x00019626:    4682        .F      MOV      r10,r0
        0x00019628:    eb00060b    ....    ADD      r6,r0,r11
        0x0001962c:    980c        ..      LDR      r0,[sp,#0x30]
        0x0001962e:    2e04        ..      CMP      r6,#4
        0x00019630:    f8d0e108    ....    LDR      lr,[r0,#0x108]
        0x00019634:    f0c080bc    ....    BCC.W    0x197b0 ; am_hal_iom_blocking_transfer + 1132
        0x00019638:    f1b90f0c    ....    CMP      r9,#0xc
        0x0001963c:    f1a7030c    ....    SUB      r3,r7,#0xc
        0x00019640:    f8c8e008    ....    STR      lr,[r8,#8]
        0x00019644:    d030        0.      BEQ      0x196a8 ; am_hal_iom_blocking_transfer + 868
        0x00019646:    9804        ..      LDR      r0,[sp,#0x10]
        0x00019648:    4560        `E      CMP      r0,r12
        0x0001964a:    d02d        -.      BEQ      0x196a8 ; am_hal_iom_blocking_transfer + 868
        0x0001964c:    9d09        ..      LDR      r5,[sp,#0x24]
        0x0001964e:    980c        ..      LDR      r0,[sp,#0x30]
        0x00019650:    eb0a0605    ....    ADD      r6,r10,r5
        0x00019654:    f8d0e108    ....    LDR      lr,[r0,#0x108]
        0x00019658:    2e04        ..      CMP      r6,#4
        0x0001965a:    f0c080ad    ....    BCC.W    0x197b8 ; am_hal_iom_blocking_transfer + 1140
        0x0001965e:    eb01030b    ....    ADD      r3,r1,r11
        0x00019662:    f1a30608    ....    SUB      r6,r3,#8
        0x00019666:    f10c0310    ....    ADD      r3,r12,#0x10
        0x0001966a:    2e04        ..      CMP      r6,#4
        0x0001966c:    f1a20210    ....    SUB      r2,r2,#0x10
        0x00019670:    f8c8e00c    ....    STR      lr,[r8,#0xc]
        0x00019674:    d30a        ..      BCC      0x1968c ; am_hal_iom_blocking_transfer + 840
        0x00019676:    980a        ..      LDR      r0,[sp,#0x28]
        0x00019678:    3f10        .?      SUBS     r7,r7,#0x10
        0x0001967a:    3810        .8      SUBS     r0,r0,#0x10
        0x0001967c:    900a        ..      STR      r0,[sp,#0x28]
        0x0001967e:    9803        ..      LDR      r0,[sp,#0xc]
        0x00019680:    f1ab0b10    ....    SUB      r11,r11,#0x10
        0x00019684:    3d10        .=      SUBS     r5,r5,#0x10
        0x00019686:    4560        `E      CMP      r0,r12
        0x00019688:    469c        .F      MOV      r12,r3
        0x0001968a:    d19f        ..      BNE      0x195cc ; am_hal_iom_blocking_transfer + 648
        0x0001968c:    980b        ..      LDR      r0,[sp,#0x2c]
        0x0001968e:    4418        .D      ADD      r0,r0,r3
        0x00019690:    eb0a0302    ....    ADD      r3,r10,r2
        0x00019694:    e00a        ..      B        0x196ac ; am_hal_iom_blocking_transfer + 872
        0x00019696:    bf00        ..      NOP      
        0x00019698:    f1080004    ....    ADD      r0,r8,#4
        0x0001969c:    e006        ..      B        0x196ac ; am_hal_iom_blocking_transfer + 872
        0x0001969e:    bf00        ..      NOP      
        0x000196a0:    f1080008    ....    ADD      r0,r8,#8
        0x000196a4:    e002        ..      B        0x196ac ; am_hal_iom_blocking_transfer + 872
        0x000196a6:    bf00        ..      NOP      
        0x000196a8:    f108000c    ....    ADD      r0,r8,#0xc
        0x000196ac:    900b        ..      STR      r0,[sp,#0x2c]
        0x000196ae:    9f0c        ..      LDR      r7,[sp,#0x30]
        0x000196b0:    f8dd9020    .. .    LDR      r9,[sp,#0x20]
        0x000196b4:    f24a161f    J...    MOV      r6,#0xa11f
        0x000196b8:    9a02        ..      LDR      r2,[sp,#8]
        0x000196ba:    f04f0801    O...    MOV      r8,#1
        0x000196be:    2b00        .+      CMP      r3,#0
        0x000196c0:    469a        .F      MOV      r10,r3
        0x000196c2:    f2c00607    ....    MOVT     r6,#7
        0x000196c6:    f47faf47    ..G.    BNE      0x19558 ; am_hal_iom_blocking_transfer + 532
        0x000196ca:    e14b        K.      B        0x19964 ; am_hal_iom_blocking_transfer + 1568
        0x000196cc:    f8d71100    ....    LDR      r1,[r7,#0x100]
        0x000196d0:    f8dd9020    .. .    LDR      r9,[sp,#0x20]
        0x000196d4:    f3c12107    ...!    UBFX     r1,r1,#8,#8
        0x000196d8:    2904        .)      CMP      r1,#4
        0x000196da:    d355        U.      BCC      0x19788 ; am_hal_iom_blocking_transfer + 1092
        0x000196dc:    f24a161f    J...    MOV      r6,#0xa11f
        0x000196e0:    f1ba0f00    ....    CMP      r10,#0
        0x000196e4:    f2c00607    ....    MOVT     r6,#7
        0x000196e8:    d052        R.      BEQ      0x19790 ; am_hal_iom_blocking_transfer + 1100
        0x000196ea:    4653        SF      MOV      r3,r10
        0x000196ec:    461a        .F      MOV      r2,r3
        0x000196ee:    6806        .h      LDR      r6,[r0,#0]
        0x000196f0:    2a03        .*      CMP      r2,#3
        0x000196f2:    f04f0b00    O...    MOV      r11,#0
        0x000196f6:    f0210203    !...    BIC      r2,r1,#3
        0x000196fa:    f1a30304    ....    SUB      r3,r3,#4
        0x000196fe:    bf88        ..      IT       HI
        0x00019700:    469b        .F      MOVHI    r11,r3
        0x00019702:    2a04        .*      CMP      r2,#4
        0x00019704:    f8c7610c    ...a    STR      r6,[r7,#0x10c]
        0x00019708:    bf18        ..      IT       NE
        0x0001970a:    f1bb0f00    ....    CMPNE    r11,#0
        0x0001970e:    d037        7.      BEQ      0x19780 ; am_hal_iom_blocking_transfer + 1084
        0x00019710:    6845        Eh      LDR      r5,[r0,#4]
        0x00019712:    2b03        .+      CMP      r3,#3
        0x00019714:    f04f0b00    O...    MOV      r11,#0
        0x00019718:    f1a30604    ....    SUB      r6,r3,#4
        0x0001971c:    bf88        ..      IT       HI
        0x0001971e:    46b3        .F      MOVHI    r11,r6
        0x00019720:    2a08        .*      CMP      r2,#8
        0x00019722:    f8c7510c    ...Q    STR      r5,[r7,#0x10c]
        0x00019726:    bf18        ..      IT       NE
        0x00019728:    f1bb0f00    ....    CMPNE    r11,#0
        0x0001972c:    d034        4.      BEQ      0x19798 ; am_hal_iom_blocking_transfer + 1108
        0x0001972e:    6885        .h      LDR      r5,[r0,#8]
        0x00019730:    2e03        ..      CMP      r6,#3
        0x00019732:    f04f0b00    O...    MOV      r11,#0
        0x00019736:    f1a60304    ....    SUB      r3,r6,#4
        0x0001973a:    bf88        ..      IT       HI
        0x0001973c:    469b        .F      MOVHI    r11,r3
        0x0001973e:    2a0c        .*      CMP      r2,#0xc
        0x00019740:    f8c7510c    ...Q    STR      r5,[r7,#0x10c]
        0x00019744:    bf18        ..      IT       NE
        0x00019746:    f1bb0f00    ....    CMPNE    r11,#0
        0x0001974a:    d063        c.      BEQ      0x19814 ; am_hal_iom_blocking_transfer + 1232
        0x0001974c:    68c2        .h      LDR      r2,[r0,#0xc]
        0x0001974e:    3910        .9      SUBS     r1,r1,#0x10
        0x00019750:    2b03        .+      CMP      r3,#3
        0x00019752:    f04f0b00    O...    MOV      r11,#0
        0x00019756:    f24a161f    J...    MOV      r6,#0xa11f
        0x0001975a:    f8c7210c    ...!    STR      r2,[r7,#0x10c]
        0x0001975e:    f1a30204    ....    SUB      r2,r3,#4
        0x00019762:    bf88        ..      IT       HI
        0x00019764:    4693        .F      MOVHI    r11,r2
        0x00019766:    2904        .)      CMP      r1,#4
        0x00019768:    f1000a10    ....    ADD      r10,r0,#0x10
        0x0001976c:    f2c00607    ....    MOVT     r6,#7
        0x00019770:    d356        V.      BCC      0x19820 ; am_hal_iom_blocking_transfer + 1244
        0x00019772:    4613        .F      MOV      r3,r2
        0x00019774:    f1bb0f00    ....    CMP      r11,#0
        0x00019778:    4650        PF      MOV      r0,r10
        0x0001977a:    d1b7        ..      BNE      0x196ec ; am_hal_iom_blocking_transfer + 936
        0x0001977c:    e050        P.      B        0x19820 ; am_hal_iom_blocking_transfer + 1244
        0x0001977e:    bf00        ..      NOP      
        0x00019780:    f1000a04    ....    ADD      r10,r0,#4
        0x00019784:    e048        H.      B        0x19818 ; am_hal_iom_blocking_transfer + 1236
        0x00019786:    bf00        ..      NOP      
        0x00019788:    46d3        .F      MOV      r11,r10
        0x0001978a:    4682        .F      MOV      r10,r0
        0x0001978c:    e044        D.      B        0x19818 ; am_hal_iom_blocking_transfer + 1236
        0x0001978e:    bf00        ..      NOP      
        0x00019790:    46d3        .F      MOV      r11,r10
        0x00019792:    4682        .F      MOV      r10,r0
        0x00019794:    e044        D.      B        0x19820 ; am_hal_iom_blocking_transfer + 1244
        0x00019796:    bf00        ..      NOP      
        0x00019798:    f1000a08    ....    ADD      r10,r0,#8
        0x0001979c:    e03c        <.      B        0x19818 ; am_hal_iom_blocking_transfer + 1236
        0x0001979e:    bf00        ..      NOP      
        0x000197a0:    980b        ..      LDR      r0,[sp,#0x2c]
        0x000197a2:    4460        `D      ADD      r0,r0,r12
        0x000197a4:    e00a        ..      B        0x197bc ; am_hal_iom_blocking_transfer + 1144
        0x000197a6:    bf00        ..      NOP      
        0x000197a8:    f1080004    ....    ADD      r0,r8,#4
        0x000197ac:    e006        ..      B        0x197bc ; am_hal_iom_blocking_transfer + 1144
        0x000197ae:    bf00        ..      NOP      
        0x000197b0:    f1080008    ....    ADD      r0,r8,#8
        0x000197b4:    e002        ..      B        0x197bc ; am_hal_iom_blocking_transfer + 1144
        0x000197b6:    bf00        ..      NOP      
        0x000197b8:    f108000c    ....    ADD      r0,r8,#0xc
        0x000197bc:    f1a30201    ....    SUB      r2,r3,#1
        0x000197c0:    b143        C.      CBZ      r3,0x197d4 ; am_hal_iom_blocking_transfer + 1168
        0x000197c2:    4607        .F      MOV      r7,r0
        0x000197c4:    f807eb01    ....    STRB     lr,[r7],#1
        0x000197c8:    2b01        .+      CMP      r3,#1
        0x000197ca:    ea4f211e    O..!    LSR      r1,lr,#8
        0x000197ce:    d103        ..      BNE      0x197d8 ; am_hal_iom_blocking_transfer + 1172
        0x000197d0:    4638        8F      MOV      r0,r7
        0x000197d2:    e00b        ..      B        0x197ec ; am_hal_iom_blocking_transfer + 1192
        0x000197d4:    4671        qF      MOV      r1,lr
        0x000197d6:    e009        ..      B        0x197ec ; am_hal_iom_blocking_transfer + 1192
        0x000197d8:    7041        Ap      STRB     r1,[r0,#1]
        0x000197da:    ea4f411e    O..A    LSR      r1,lr,#16
        0x000197de:    2b02        .+      CMP      r3,#2
        0x000197e0:    bf0f        ..      ITEEE    EQ
        0x000197e2:    3002        .0      ADDEQ    r0,#2
        0x000197e4:    7081        .p      STRBNE   r1,[r0,#2]
        0x000197e6:    3003        .0      ADDNE    r0,#3
        0x000197e8:    ea4f611e    O..a    LSRNE    r1,lr,#24
        0x000197ec:    2a03        .*      CMP      r2,#3
        0x000197ee:    d308        ..      BCC      0x19802 ; am_hal_iom_blocking_transfer + 1214
        0x000197f0:    f06f0203    o...    MVN      r2,#3
        0x000197f4:    1883        ..      ADDS     r3,r0,r2
        0x000197f6:    3204        .2      ADDS     r2,#4
        0x000197f8:    6059        Y`      STR      r1,[r3,#4]
        0x000197fa:    1d11        ..      ADDS     r1,r2,#4
        0x000197fc:    f04f0100    O...    MOV      r1,#0
        0x00019800:    d1f8        ..      BNE      0x197f4 ; am_hal_iom_blocking_transfer + 1200
        0x00019802:    f8dd9020    .. .    LDR      r9,[sp,#0x20]
        0x00019806:    f04f0801    O...    MOV      r8,#1
        0x0001980a:    f24a161f    J...    MOV      r6,#0xa11f
        0x0001980e:    f2c00607    ....    MOVT     r6,#7
        0x00019812:    e0a7        ..      B        0x19964 ; am_hal_iom_blocking_transfer + 1568
        0x00019814:    f1000a0c    ....    ADD      r10,r0,#0xc
        0x00019818:    f24a161f    J...    MOV      r6,#0xa11f
        0x0001981c:    f2c00607    ....    MOVT     r6,#7
        0x00019820:    f1bb0f00    ....    CMP      r11,#0
        0x00019824:    f8c7c120    .. .    STR      r12,[r7,#0x120]
        0x00019828:    f000809a    ....    BEQ.W    0x19960 ; am_hal_iom_blocking_transfer + 1564
        0x0001982c:    f8d70100    ....    LDR      r0,[r7,#0x100]
        0x00019830:    f3c02807    ...(    UBFX     r8,r0,#8,#8
        0x00019834:    f1b80f03    ....    CMP      r8,#3
        0x00019838:    d815        ..      BHI      0x19866 ; am_hal_iom_blocking_transfer + 1314
        0x0001983a:    2500        .%      MOVS     r5,#0
        0x0001983c:    f8d70204    ....    LDR      r0,[r7,#0x204]
        0x00019840:    f04f0800    O...    MOV      r8,#0
        0x00019844:    07c0        ..      LSLS     r0,r0,#31
        0x00019846:    f040808d    @...    BNE.W    0x19964 ; am_hal_iom_blocking_transfer + 1568
        0x0001984a:    42b5        .B      CMP      r5,r6
        0x0001984c:    f200808a    ....    BHI.W    0x19964 ; am_hal_iom_blocking_transfer + 1568
        0x00019850:    2001        .       MOVS     r0,#1
        0x00019852:    3501        .5      ADDS     r5,#1
        0x00019854:    f7fff9dc    ....    BL       am_hal_delay_us ; 0x18c10
        0x00019858:    f8d70100    ....    LDR      r0,[r7,#0x100]
        0x0001985c:    f3c02807    ...(    UBFX     r8,r0,#8,#8
        0x00019860:    f1b80f04    ....    CMP      r8,#4
        0x00019864:    d3ea        ..      BCC      0x1983c ; am_hal_iom_blocking_transfer + 1272
        0x00019866:    f1a80010    ....    SUB      r0,r8,#0x10
        0x0001986a:    900a        ..      STR      r0,[sp,#0x28]
        0x0001986c:    f1ab0010    ....    SUB      r0,r11,#0x10
        0x00019870:    f1ab0904    ....    SUB      r9,r11,#4
        0x00019874:    9009        ..      STR      r0,[sp,#0x24]
        0x00019876:    f1ab000c    ....    SUB      r0,r11,#0xc
        0x0001987a:    f1ab0e08    ....    SUB      lr,r11,#8
        0x0001987e:    2300        .#      MOVS     r3,#0
        0x00019880:    465e        ^F      MOV      r6,r11
        0x00019882:    900b        ..      STR      r0,[sp,#0x2c]
        0x00019884:    eb0b0103    ....    ADD      r1,r11,r3
        0x00019888:    eb080503    ....    ADD      r5,r8,r3
        0x0001988c:    2903        .)      CMP      r1,#3
        0x0001988e:    f04f0100    O...    MOV      r1,#0
        0x00019892:    f8da0000    ....    LDR      r0,[r10,#0]
        0x00019896:    eb090203    ....    ADD      r2,r9,r3
        0x0001989a:    bf88        ..      IT       HI
        0x0001989c:    4611        .F      MOVHI    r1,r2
        0x0001989e:    f0250503    %...    BIC      r5,r5,#3
        0x000198a2:    9f0c        ..      LDR      r7,[sp,#0x30]
        0x000198a4:    2d04        .-      CMP      r5,#4
        0x000198a6:    f8c7010c    ....    STR      r0,[r7,#0x10c]
        0x000198aa:    bf18        ..      IT       NE
        0x000198ac:    2900        .)      CMPNE    r1,#0
        0x000198ae:    d03d        =.      BEQ      0x1992c ; am_hal_iom_blocking_transfer + 1512
        0x000198b0:    2100        .!      MOVS     r1,#0
        0x000198b2:    f8da7004    ...p    LDR      r7,[r10,#4]
        0x000198b6:    eb0e0c03    ....    ADD      r12,lr,r3
        0x000198ba:    2a03        .*      CMP      r2,#3
        0x000198bc:    bf88        ..      IT       HI
        0x000198be:    4661        aF      MOVHI    r1,r12
        0x000198c0:    9a0c        ..      LDR      r2,[sp,#0x30]
        0x000198c2:    2d08        .-      CMP      r5,#8
        0x000198c4:    f8c2710c    ...q    STR      r7,[r2,#0x10c]
        0x000198c8:    9f0c        ..      LDR      r7,[sp,#0x30]
        0x000198ca:    bf18        ..      IT       NE
        0x000198cc:    2900        .)      CMPNE    r1,#0
        0x000198ce:    d033        3.      BEQ      0x19938 ; am_hal_iom_blocking_transfer + 1524
        0x000198d0:    980b        ..      LDR      r0,[sp,#0x2c]
        0x000198d2:    f1bc0f03    ....    CMP      r12,#3
        0x000198d6:    f04f0100    O...    MOV      r1,#0
        0x000198da:    f8da7008    ...p    LDR      r7,[r10,#8]
        0x000198de:    eb000203    ....    ADD      r2,r0,r3
        0x000198e2:    bf88        ..      IT       HI
        0x000198e4:    4611        .F      MOVHI    r1,r2
        0x000198e6:    2d0c        .-      CMP      r5,#0xc
        0x000198e8:    9d0c        ..      LDR      r5,[sp,#0x30]
        0x000198ea:    f8c5710c    ...q    STR      r7,[r5,#0x10c]
        0x000198ee:    9f0c        ..      LDR      r7,[sp,#0x30]
        0x000198f0:    bf18        ..      IT       NE
        0x000198f2:    2900        .)      CMPNE    r1,#0
        0x000198f4:    d026        &.      BEQ      0x19944 ; am_hal_iom_blocking_transfer + 1536
        0x000198f6:    f8da100c    ....    LDR      r1,[r10,#0xc]
        0x000198fa:    2a03        .*      CMP      r2,#3
        0x000198fc:    f8c7110c    ....    STR      r1,[r7,#0x10c]
        0x00019900:    980a        ..      LDR      r0,[sp,#0x28]
        0x00019902:    f04f0100    O...    MOV      r1,#0
        0x00019906:    eb000703    ....    ADD      r7,r0,r3
        0x0001990a:    f10a0510    ....    ADD      r5,r10,#0x10
        0x0001990e:    9809        ..      LDR      r0,[sp,#0x24]
        0x00019910:    bf88        ..      IT       HI
        0x00019912:    18c1        ..      ADDHI    r1,r0,r3
        0x00019914:    2f04        ./      CMP      r7,#4
        0x00019916:    f1a30310    ....    SUB      r3,r3,#0x10
        0x0001991a:    d303        ..      BCC      0x19924 ; am_hal_iom_blocking_transfer + 1504
        0x0001991c:    3e10        .>      SUBS     r6,r6,#0x10
        0x0001991e:    2900        .)      CMP      r1,#0
        0x00019920:    46aa        .F      MOV      r10,r5
        0x00019922:    d1af        ..      BNE      0x19884 ; am_hal_iom_blocking_transfer + 1344
        0x00019924:    9f0c        ..      LDR      r7,[sp,#0x30]
        0x00019926:    449b        .D      ADD      r11,r11,r3
        0x00019928:    e010        ..      B        0x1994c ; am_hal_iom_blocking_transfer + 1544
        0x0001992a:    bf00        ..      NOP      
        0x0001992c:    f1a60b04    ....    SUB      r11,r6,#4
        0x00019930:    f10a0504    ....    ADD      r5,r10,#4
        0x00019934:    e00a        ..      B        0x1994c ; am_hal_iom_blocking_transfer + 1544
        0x00019936:    bf00        ..      NOP      
        0x00019938:    f1a60b08    ....    SUB      r11,r6,#8
        0x0001993c:    f10a0508    ....    ADD      r5,r10,#8
        0x00019940:    e004        ..      B        0x1994c ; am_hal_iom_blocking_transfer + 1544
        0x00019942:    bf00        ..      NOP      
        0x00019944:    f1a60b0c    ....    SUB      r11,r6,#0xc
        0x00019948:    f10a050c    ....    ADD      r5,r10,#0xc
        0x0001994c:    f8dd9020    .. .    LDR      r9,[sp,#0x20]
        0x00019950:    f24a161f    J...    MOV      r6,#0xa11f
        0x00019954:    2900        .)      CMP      r1,#0
        0x00019956:    46aa        .F      MOV      r10,r5
        0x00019958:    f2c00607    ....    MOVT     r6,#7
        0x0001995c:    f47faf66    ..f.    BNE      0x1982c ; am_hal_iom_blocking_transfer + 1256
        0x00019960:    f04f0801    O...    MOV      r8,#1
        0x00019964:    1c70        p.      ADDS     r0,r6,#1
        0x00019966:    2701        .'      MOVS     r7,#1
        0x00019968:    4649        IF      MOV      r1,r9
        0x0001996a:    2206        ."      MOVS     r2,#6
        0x0001996c:    2304        .#      MOVS     r3,#4
        0x0001996e:    9700        ..      STR      r7,[sp,#0]
        0x00019970:    f7fff996    ....    BL       am_hal_delay_us_status_check ; 0x18ca0
        0x00019974:    4607        .F      MOV      r7,r0
        0x00019976:    b9f0        ..      CBNZ     r0,0x199b6 ; am_hal_iom_blocking_transfer + 1650
        0x00019978:    980c        ..      LDR      r0,[sp,#0x30]
        0x0001997a:    f8d00204    ....    LDR      r0,[r0,#0x204]
        0x0001997e:    f0100f6c    ..l.    TST      r0,#0x6c
        0x00019982:    d003        ..      BEQ      0x1998c ; am_hal_iom_blocking_transfer + 1608
        0x00019984:    f04f6700    O..g    MOV      r7,#0x8000000
        0x00019988:    e015        ..      B        0x199b6 ; am_hal_iom_blocking_transfer + 1650
        0x0001998a:    bf00        ..      NOP      
        0x0001998c:    2701        .'      MOVS     r7,#1
        0x0001998e:    0581        ..      LSLS     r1,r0,#22
        0x00019990:    f6c00700    ....    MOVT     r7,#0x800
        0x00019994:    d40f        ..      BMI      0x199b6 ; am_hal_iom_blocking_transfer + 1650
        0x00019996:    06c1        ..      LSLS     r1,r0,#27
        0x00019998:    d40a        ..      BMI      0x199b0 ; am_hal_iom_blocking_transfer + 1644
        0x0001999a:    f4004090    ...@    AND      r0,r0,#0x4800
        0x0001999e:    fab0f080    ....    CLZ      r0,r0
        0x000199a2:    0940        @.      LSRS     r0,r0,#5
        0x000199a4:    ea180f00    ....    TST      r8,r0
        0x000199a8:    d004        ..      BEQ      0x199b4 ; am_hal_iom_blocking_transfer + 1648
        0x000199aa:    9d0c        ..      LDR      r5,[sp,#0x30]
        0x000199ac:    2700        .'      MOVS     r7,#0
        0x000199ae:    e008        ..      B        0x199c2 ; am_hal_iom_blocking_transfer + 1662
        0x000199b0:    3701        .7      ADDS     r7,#1
        0x000199b2:    e000        ..      B        0x199b6 ; am_hal_iom_blocking_transfer + 1650
        0x000199b4:    2701        .'      MOVS     r7,#1
        0x000199b6:    9d0c        ..      LDR      r5,[sp,#0x30]
        0x000199b8:    4620         F      MOV      r0,r4
        0x000199ba:    f8d51204    ....    LDR      r1,[r5,#0x204]
        0x000199be:    f001ff9d    ....    BL       internal_iom_reset_on_error ; 0x1b8fc
        0x000199c2:    f04f30ff    O..0    MOV      r0,#0xffffffff
        0x000199c6:    f8c50208    ....    STR      r0,[r5,#0x208]
        0x000199ca:    9807        ..      LDR      r0,[sp,#0x1c]
        0x000199cc:    f8c50200    ....    STR      r0,[r5,#0x200]
        0x000199d0:    4638        8F      MOV      r0,r7
        0x000199d2:    b00d        ..      ADD      sp,sp,#0x34
        0x000199d4:    e8bd8ff0    ....    POP      {r4-r11,pc}
    am_hal_iom_configure
        0x000199d8:    b5f0        ..      PUSH     {r4-r7,lr}
        0x000199da:    b081        ..      SUB      sp,sp,#4
        0x000199dc:    b190        ..      CBZ      r0,0x19a04 ; am_hal_iom_configure + 44
        0x000199de:    4604        .F      MOV      r4,r0
        0x000199e0:    6800        .h      LDR      r0,[r0,#0]
        0x000199e2:    f2434256    C.VB    MOV      r2,#0x3456
        0x000199e6:    460d        .F      MOV      r5,r1
        0x000199e8:    f020417e     .~A    BIC      r1,r0,#0xfe000000
        0x000199ec:    f2c01212    ....    MOVT     r2,#0x112
        0x000199f0:    4291        .B      CMP      r1,r2
        0x000199f2:    d107        ..      BNE      0x19a04 ; am_hal_iom_configure + 44
        0x000199f4:    b115        ..      CBZ      r5,0x199fc ; am_hal_iom_configure + 36
        0x000199f6:    6861        ah      LDR      r1,[r4,#4]
        0x000199f8:    2907        .)      CMP      r1,#7
        0x000199fa:    d907        ..      BLS      0x19a0c ; am_hal_iom_configure + 52
        0x000199fc:    2006        .       MOVS     r0,#6
        0x000199fe:    b001        ..      ADD      sp,sp,#4
        0x00019a00:    bdf0        ..      POP      {r4-r7,pc}
        0x00019a02:    bf00        ..      NOP      
        0x00019a04:    2002        .       MOVS     r0,#2
        0x00019a06:    b001        ..      ADD      sp,sp,#4
        0x00019a08:    bdf0        ..      POP      {r4-r7,pc}
        0x00019a0a:    bf00        ..      NOP      
        0x00019a0c:    0180        ..      LSLS     r0,r0,#6
        0x00019a0e:    d421        !.      BMI      0x19a54 ; am_hal_iom_configure + 124
        0x00019a10:    7828        (x      LDRB     r0,[r5,#0]
        0x00019a12:    7220         r      STRB     r0,[r4,#8]
        0x00019a14:    2000        .       MOVS     r0,#0
        0x00019a16:    f2c40005    ....    MOVT     r0,#0x4005
        0x00019a1a:    eb003601    ...6    ADD      r6,r0,r1,LSL #12
        0x00019a1e:    f2410010    A...    MOV      r0,#0x1010
        0x00019a22:    f8c60104    ....    STR      r0,[r6,#0x104]
        0x00019a26:    7828        (x      LDRB     r0,[r5,#0]
        0x00019a28:    2801        .(      CMP      r0,#1
        0x00019a2a:    d017        ..      BEQ      0x19a5c ; am_hal_iom_configure + 132
        0x00019a2c:    bba0        ..      CBNZ     r0,0x19a98 ; am_hal_iom_configure + 192
        0x00019a2e:    7a2f        /z      LDRB     r7,[r5,#8]
        0x00019a30:    2f03        ./      CMP      r7,#3
        0x00019a32:    d8e3        ..      BHI      0x199fc ; am_hal_iom_configure + 36
        0x00019a34:    6868        hh      LDR      r0,[r5,#4]
        0x00019a36:    f6464100    F..A    MOVW     r1,#0x6c00
        0x00019a3a:    f2c021dc    ...!    MOVT     r1,#0x2dc
        0x00019a3e:    4288        .B      CMP      r0,r1
        0x00019a40:    d8dc        ..      BHI      0x199fc ; am_hal_iom_configure + 36
        0x00019a42:    0879        y.      LSRS     r1,r7,#1
        0x00019a44:    f002f9b4    ....    BL       iom_get_interface_clock_cfg ; 0x1bdb0
        0x00019a48:    f8c67280    ...r    STR      r7,[r6,#0x280]
        0x00019a4c:    f0400001    @...    ORR      r0,r0,#1
        0x00019a50:    e03e        >.      B        0x19ad0 ; am_hal_iom_configure + 248
        0x00019a52:    bf00        ..      NOP      
        0x00019a54:    2007        .       MOVS     r0,#7
        0x00019a56:    b001        ..      ADD      sp,sp,#4
        0x00019a58:    bdf0        ..      POP      {r4-r7,pc}
        0x00019a5a:    bf00        ..      NOP      
        0x00019a5c:    6868        hh      LDR      r0,[r5,#4]
        0x00019a5e:    f2442140    D.@!    MOV      r1,#0x4240
        0x00019a62:    f2c0010f    ....    MOVT     r1,#0xf
        0x00019a66:    4288        .B      CMP      r0,r1
        0x00019a68:    d01a        ..      BEQ      0x19aa0 ; am_hal_iom_configure + 200
        0x00019a6a:    f6412180    A..!    MOVW     r1,#0x1a80
        0x00019a6e:    f2c00106    ....    MOVT     r1,#6
        0x00019a72:    4288        .B      CMP      r0,r1
        0x00019a74:    d020         .      BEQ      0x19ab8 ; am_hal_iom_configure + 224
        0x00019a76:    f24861a0    H..a    MOV      r1,#0x86a0
        0x00019a7a:    f2c00101    ....    MOVT     r1,#1
        0x00019a7e:    4288        .B      CMP      r0,r1
        0x00019a80:    d1bc        ..      BNE      0x199fc ; am_hal_iom_configure + 36
        0x00019a82:    f24f0070    O.p.    MOV      r0,#0xf070
        0x00019a86:    f2c00003    ....    MOVT     r0,#3
        0x00019a8a:    f8c602c0    ....    STR      r0,[r6,#0x2c0]
        0x00019a8e:    f2413001    A..0    MOV      r0,#0x1301
        0x00019a92:    f2c7703b    ..;p    MOVT     r0,#0x773b
        0x00019a96:    e01b        ..      B        0x19ad0 ; am_hal_iom_configure + 248
        0x00019a98:    2005        .       MOVS     r0,#5
        0x00019a9a:    b001        ..      ADD      sp,sp,#4
        0x00019a9c:    bdf0        ..      POP      {r4-r7,pc}
        0x00019a9e:    bf00        ..      NOP      
        0x00019aa0:    f2430040    C.@.    MOVW     r0,#0x3040
        0x00019aa4:    f2c00002    ....    MOVT     r0,#2
        0x00019aa8:    f8c602c0    ....    STR      r0,[r6,#0x2c0]
        0x00019aac:    f2413001    A..0    MOV      r0,#0x1301
        0x00019ab0:    f6c03005    ...0    MOVT     r0,#0xb05
        0x00019ab4:    e00c        ..      B        0x19ad0 ; am_hal_iom_configure + 248
        0x00019ab6:    bf00        ..      NOP      
        0x00019ab8:    f24f0070    O.p.    MOV      r0,#0xf070
        0x00019abc:    f2c00003    ....    MOVT     r0,#3
        0x00019ac0:    f5007000    ...p    ADD      r0,r0,#0x200
        0x00019ac4:    f8c602c0    ....    STR      r0,[r6,#0x2c0]
        0x00019ac8:    f2413001    A..0    MOV      r0,#0x1301
        0x00019acc:    f6c1500e    ...P    MOVT     r0,#0x1d0e
        0x00019ad0:    f8c60118    ....    STR      r0,[r6,#0x118]
        0x00019ad4:    6869        ih      LDR      r1,[r5,#4]
        0x00019ad6:    f2442340    D.@#    MOV      r3,#0x4240
        0x00019ada:    e9d50203    ....    LDRD     r0,r2,[r5,#0xc]
        0x00019ade:    f2c0030f    ....    MOVT     r3,#0xf
        0x00019ae2:    fbb3f1f1    ....    UDIV     r1,r3,r1
        0x00019ae6:    f44f737a    O.zs    MOV      r3,#0x3e8
        0x00019aea:    f8c43860    ..`8    STR      r3,[r4,#0x860]
        0x00019aee:    f8c41864    ..d.    STR      r1,[r4,#0x864]
        0x00019af2:    60e0        .`      STR      r0,[r4,#0xc]
        0x00019af4:    6122        "a      STR      r2,[r4,#0x10]
        0x00019af6:    b358        X.      CBZ      r0,0x19b50 ; am_hal_iom_configure + 376
        0x00019af8:    2300        .#      MOVS     r3,#0
        0x00019afa:    0091        ..      LSLS     r1,r2,#2
        0x00019afc:    eb000282    ....    ADD      r2,r0,r2,LSL #2
        0x00019b00:    f2c10306    ....    MOVT     r3,#0x1006
        0x00019b04:    2700        .'      MOVS     r7,#0
        0x00019b06:    429a        .B      CMP      r2,r3
        0x00019b08:    bf38        8.      IT       CC
        0x00019b0a:    2701        .'      MOVCC    r7,#1
        0x00019b0c:    f88478a4    ...x    STRB     r7,[r4,#0x8a4]
        0x00019b10:    d30d        ..      BCC      0x19b2e ; am_hal_iom_configure + 342
        0x00019b12:    f100020f    ....    ADD      r2,r0,#0xf
        0x00019b16:    f000000f    ....    AND      r0,r0,#0xf
        0x00019b1a:    1a08        ..      SUBS     r0,r1,r0
        0x00019b1c:    f06f0103    o...    MVN      r1,#3
        0x00019b20:    ea010090    ....    AND      r0,r1,r0,LSR #2
        0x00019b24:    f022020f    "...    BIC      r2,r2,#0xf
        0x00019b28:    0081        ..      LSLS     r1,r0,#2
        0x00019b2a:    e9c42003    ...     STRD     r2,r0,[r4,#0xc]
        0x00019b2e:    f1a10020    .. .    SUB      r0,r1,#0x20
        0x00019b32:    f64a21ab    J..!    MOV      r1,#0xaaab
        0x00019b36:    f6ca21aa    ...!    MOVT     r1,#0xaaaa
        0x00019b3a:    fba01201    ....    UMULL    r1,r2,r0,r1
        0x00019b3e:    0991        ..      LSRS     r1,r2,#6
        0x00019b40:    f246025f    F._.    MOV      r2,#0x605f
        0x00019b44:    4290        .B      CMP      r0,r2
        0x00019b46:    bf88        ..      IT       HI
        0x00019b48:    f44f7180    O..q    MOVHI    r1,#0x100
        0x00019b4c:    f8c41858    ..X.    STR      r1,[r4,#0x858]
        0x00019b50:    2000        .       MOVS     r0,#0
        0x00019b52:    f8c408a0    ....    STR      r0,[r4,#0x8a0]
        0x00019b56:    b001        ..      ADD      sp,sp,#4
        0x00019b58:    bdf0        ..      POP      {r4-r7,pc}
        0x00019b5a:    0000        ..      MOVS     r0,r0
    am_hal_iom_enable
        0x00019b5c:    b5f0        ..      PUSH     {r4-r7,lr}
        0x00019b5e:    b083        ..      SUB      sp,sp,#0xc
        0x00019b60:    b310        ..      CBZ      r0,0x19ba8 ; am_hal_iom_enable + 76
        0x00019b62:    4604        .F      MOV      r4,r0
        0x00019b64:    6800        .h      LDR      r0,[r0,#0]
        0x00019b66:    f2434256    C.VB    MOV      r2,#0x3456
        0x00019b6a:    f020417e     .~A    BIC      r1,r0,#0xfe000000
        0x00019b6e:    f2c01212    ....    MOVT     r2,#0x112
        0x00019b72:    4291        .B      CMP      r1,r2
        0x00019b74:    d118        ..      BNE      0x19ba8 ; am_hal_iom_enable + 76
        0x00019b76:    0180        ..      LSLS     r0,r0,#6
        0x00019b78:    d46d        m.      BMI      0x19c56 ; am_hal_iom_enable + 250
        0x00019b7a:    2500        .%      MOVS     r5,#0
        0x00019b7c:    6860        `h      LDR      r0,[r4,#4]
        0x00019b7e:    f2c40505    ....    MOVT     r5,#0x4005
        0x00019b82:    eb053000    ...0    ADD      r0,r5,r0,LSL #12
        0x00019b86:    7a21        !z      LDRB     r1,[r4,#8]
        0x00019b88:    f8d0211c    ...!    LDR      r2,[r0,#0x11c]
        0x00019b8c:    2900        .)      CMP      r1,#0
        0x00019b8e:    f3c20242    ..B.    UBFX     r2,r2,#1,#3
        0x00019b92:    bf18        ..      IT       NE
        0x00019b94:    2101        .!      MOVNE    r1,#1
        0x00019b96:    428a        .B      CMP      r2,r1
        0x00019b98:    d10a        ..      BNE      0x19bb0 ; am_hal_iom_enable + 84
        0x00019b9a:    2101        .!      MOVS     r1,#1
        0x00019b9c:    f8c0111c    ....    STR      r1,[r0,#0x11c]
        0x00019ba0:    68e0        .h      LDR      r0,[r4,#0xc]
        0x00019ba2:    b988        ..      CBNZ     r0,0x19bc8 ; am_hal_iom_enable + 108
        0x00019ba4:    e053        S.      B        0x19c4e ; am_hal_iom_enable + 242
        0x00019ba6:    bf00        ..      NOP      
        0x00019ba8:    2002        .       MOVS     r0,#2
        0x00019baa:    b003        ..      ADD      sp,sp,#0xc
        0x00019bac:    bdf0        ..      POP      {r4-r7,pc}
        0x00019bae:    bf00        ..      NOP      
        0x00019bb0:    f8d0211c    ...!    LDR      r2,[r0,#0x11c]
        0x00019bb4:    f3c21242    ..B.    UBFX     r2,r2,#5,#3
        0x00019bb8:    428a        .B      CMP      r2,r1
        0x00019bba:    d13d        =.      BNE      0x19c38 ; am_hal_iom_enable + 220
        0x00019bbc:    2110        .!      MOVS     r1,#0x10
        0x00019bbe:    f8c0111c    ....    STR      r1,[r0,#0x11c]
        0x00019bc2:    68e0        .h      LDR      r0,[r4,#0xc]
        0x00019bc4:    2800        .(      CMP      r0,#0
        0x00019bc6:    d042        B.      BEQ      0x19c4e ; am_hal_iom_enable + 242
        0x00019bc8:    2100        .!      MOVS     r1,#0
        0x00019bca:    6261        ab      STR      r1,[r4,#0x24]
        0x00019bcc:    6860        `h      LDR      r0,[r4,#4]
        0x00019bce:    2240        @"      MOVS     r2,#0x40
        0x00019bd0:    eb053000    ...0    ADD      r0,r5,r0,LSL #12
        0x00019bd4:    f2c00280    ....    MOVT     r2,#0x80
        0x00019bd8:    61e1        .a      STR      r1,[r4,#0x1c]
        0x00019bda:    f8c02238    ..8"    STR      r2,[r0,#0x238]
        0x00019bde:    f8c41854    ..T.    STR      r1,[r4,#0x854]
        0x00019be2:    f884183c    ..<.    STRB     r1,[r4,#0x83c]
        0x00019be6:    e9d43603    ...6    LDRD     r3,r6,[r4,#0xc]
        0x00019bea:    f8c41838    ..8.    STR      r1,[r4,#0x838]
        0x00019bee:    f8c41840    ..@.    STR      r1,[r4,#0x840]
        0x00019bf2:    f8c41844    ..D.    STR      r1,[r4,#0x844]
        0x00019bf6:    f8c41830    ..0.    STR      r1,[r4,#0x830]
        0x00019bfa:    f8c41828    ..(.    STR      r1,[r4,#0x828]
        0x00019bfe:    6221        !b      STR      r1,[r4,#0x20]
        0x00019c00:    f8c4185c    ..\.    STR      r1,[r4,#0x85c]
        0x00019c04:    0871        q.      LSRS     r1,r6,#1
        0x00019c06:    7920         y      LDRB     r0,[r4,#4]
        0x00019c08:    9100        ..      STR      r1,[sp,#0]
        0x00019c0a:    2101        .!      MOVS     r1,#1
        0x00019c0c:    f44f7780    O..w    MOV      r7,#0x100
        0x00019c10:    f6040228    ..(.    ADD      r2,r4,#0x828
        0x00019c14:    f88d1008    ....    STRB     r1,[sp,#8]
        0x00019c18:    4669        iF      MOV      r1,sp
        0x00019c1a:    f8a4782c    ..,x    STRH     r7,[r4,#0x82c]
        0x00019c1e:    9301        ..      STR      r3,[sp,#4]
        0x00019c20:    f7fefe42    ..B.    BL       am_hal_cmdq_init ; 0x188a8
        0x00019c24:    b160        `.      CBZ      r0,0x19c40 ; am_hal_iom_enable + 228
        0x00019c26:    6861        ah      LDR      r1,[r4,#4]
        0x00019c28:    2202        ."      MOVS     r2,#2
        0x00019c2a:    eb053101    ...1    ADD      r1,r5,r1,LSL #12
        0x00019c2e:    f8c12210    ..."    STR      r2,[r1,#0x210]
        0x00019c32:    b003        ..      ADD      sp,sp,#0xc
        0x00019c34:    bdf0        ..      POP      {r4-r7,pc}
        0x00019c36:    bf00        ..      NOP      
        0x00019c38:    2009        .       MOVS     r0,#9
        0x00019c3a:    b003        ..      ADD      sp,sp,#0xc
        0x00019c3c:    bdf0        ..      POP      {r4-r7,pc}
        0x00019c3e:    bf00        ..      NOP      
        0x00019c40:    6860        `h      LDR      r0,[r4,#4]
        0x00019c42:    2102        .!      MOVS     r1,#2
        0x00019c44:    eb053000    ...0    ADD      r0,r5,r0,LSL #12
        0x00019c48:    6227        'b      STR      r7,[r4,#0x20]
        0x00019c4a:    f8c01210    ....    STR      r1,[r0,#0x210]
        0x00019c4e:    6820         h      LDR      r0,[r4,#0]
        0x00019c50:    f0407000    @..p    ORR      r0,r0,#0x2000000
        0x00019c54:    6020         `      STR      r0,[r4,#0]
        0x00019c56:    2000        .       MOVS     r0,#0
        0x00019c58:    b003        ..      ADD      sp,sp,#0xc
        0x00019c5a:    bdf0        ..      POP      {r4-r7,pc}
    am_hal_iom_initialize
        0x00019c5c:    b580        ..      PUSH     {r7,lr}
        0x00019c5e:    2807        .(      CMP      r0,#7
        0x00019c60:    bf84        ..      ITT      HI
        0x00019c62:    2005        .       MOVHI    r0,#5
        0x00019c64:    bd80        ..      POPHI    {r7,pc}
        0x00019c66:    b1d9        ..      CBZ      r1,0x19ca0 ; am_hal_iom_initialize + 68
        0x00019c68:    f2403c98    @..<    MOVW     r12,#0x398
        0x00019c6c:    f6400ea8    @...    MOV      lr,#0x8a8
        0x00019c70:    f2c10c00    ....    MOVT     r12,#0x1000
        0x00019c74:    fb00f20e    ....    MUL      r2,r0,lr
        0x00019c78:    f85c2002    \..     LDR      r2,[r12,r2]
        0x00019c7c:    01d3        ..      LSLS     r3,r2,#7
        0x00019c7e:    bf44        D.      ITT      MI
        0x00019c80:    2007        .       MOVMI    r0,#7
        0x00019c82:    bd80        ..      POPMI    {r7,pc}
        0x00019c84:    f2434356    C.VC    MOV      r3,#0x3456
        0x00019c88:    fb00cc0e    ....    MLA      r12,r0,lr,r12
        0x00019c8c:    f2c01312    ....    MOVT     r3,#0x112
        0x00019c90:    f3630219    c...    BFI      r2,r3,#0,#26
        0x00019c94:    e9cc2000    ...     STRD     r2,r0,[r12,#0]
        0x00019c98:    2000        .       MOVS     r0,#0
        0x00019c9a:    f8c1c000    ....    STR      r12,[r1,#0]
        0x00019c9e:    bd80        ..      POP      {r7,pc}
        0x00019ca0:    2006        .       MOVS     r0,#6
        0x00019ca2:    bd80        ..      POP      {r7,pc}
    am_hal_iom_power_ctrl
        0x00019ca4:    b5b0        ..      PUSH     {r4,r5,r7,lr}
        0x00019ca6:    2800        .(      CMP      r0,#0
        0x00019ca8:    d074        t.      BEQ      0x19d94 ; am_hal_iom_power_ctrl + 240
        0x00019caa:    4604        .F      MOV      r4,r0
        0x00019cac:    6800        .h      LDR      r0,[r0,#0]
        0x00019cae:    f2434556    C.VE    MOV      r5,#0x3456
        0x00019cb2:    f020437e     .~C    BIC      r3,r0,#0xfe000000
        0x00019cb6:    f2c01512    ....    MOVT     r5,#0x112
        0x00019cba:    42ab        .B      CMP      r3,r5
        0x00019cbc:    d16a        j.      BNE      0x19d94 ; am_hal_iom_power_ctrl + 240
        0x00019cbe:    1e4b        K.      SUBS     r3,r1,#1
        0x00019cc0:    2b02        .+      CMP      r3,#2
        0x00019cc2:    d269        i.      BCS      0x19d98 ; am_hal_iom_power_ctrl + 244
        0x00019cc4:    2500        .%      MOVS     r5,#0
        0x00019cc6:    0180        ..      LSLS     r0,r0,#6
        0x00019cc8:    f2c40505    ....    MOVT     r5,#0x4005
        0x00019ccc:    f10080e0    ....    BMI.W    0x19e90 ; am_hal_iom_power_ctrl + 492
        0x00019cd0:    2a00        .*      CMP      r2,#0
        0x00019cd2:    d045        E.      BEQ      0x19d60 ; am_hal_iom_power_ctrl + 188
        0x00019cd4:    6860        `h      LDR      r0,[r4,#4]
        0x00019cd6:    eb053000    ...0    ADD      r0,r5,r0,LSL #12
        0x00019cda:    f8d01104    ....    LDR      r1,[r0,#0x104]
        0x00019cde:    f8c4186c    ..l.    STR      r1,[r4,#0x86c]
        0x00019ce2:    f8d01118    ....    LDR      r1,[r0,#0x118]
        0x00019ce6:    f8c41874    ..t.    STR      r1,[r4,#0x874]
        0x00019cea:    f8d0111c    ....    LDR      r1,[r0,#0x11c]
        0x00019cee:    f8c41878    ..x.    STR      r1,[r4,#0x878]
        0x00019cf2:    f8d01228    ..(.    LDR      r1,[r0,#0x228]
        0x00019cf6:    f8c4187c    ..|.    STR      r1,[r4,#0x87c]
        0x00019cfa:    f8d0122c    ..,.    LDR      r1,[r0,#0x22c]
        0x00019cfe:    f8c41880    ....    STR      r1,[r4,#0x880]
        0x00019d02:    f8d01234    ..4.    LDR      r1,[r0,#0x234]
        0x00019d06:    f8c41884    ....    STR      r1,[r4,#0x884]
        0x00019d0a:    f8d0123c    ..<.    LDR      r1,[r0,#0x23c]
        0x00019d0e:    f8c41888    ....    STR      r1,[r4,#0x888]
        0x00019d12:    f8d01240    ..@.    LDR      r1,[r0,#0x240]
        0x00019d16:    f8c4188c    ....    STR      r1,[r4,#0x88c]
        0x00019d1a:    f8d01244    ..D.    LDR      r1,[r0,#0x244]
        0x00019d1e:    f8c41890    ....    STR      r1,[r4,#0x890]
        0x00019d22:    f8d01280    ....    LDR      r1,[r0,#0x280]
        0x00019d26:    f8c41894    ....    STR      r1,[r4,#0x894]
        0x00019d2a:    f8d012c0    ....    LDR      r1,[r0,#0x2c0]
        0x00019d2e:    f8c41898    ....    STR      r1,[r4,#0x898]
        0x00019d32:    f8d01200    ....    LDR      r1,[r0,#0x200]
        0x00019d36:    f8c4189c    ....    STR      r1,[r4,#0x89c]
        0x00019d3a:    f8d01210    ....    LDR      r1,[r0,#0x210]
        0x00019d3e:    f8c41870    ..p.    STR      r1,[r4,#0x870]
        0x00019d42:    f8d00228    ..(.    LDR      r0,[r0,#0x228]
        0x00019d46:    07c0        ..      LSLS     r0,r0,#31
        0x00019d48:    d007        ..      BEQ      0x19d5a ; am_hal_iom_power_ctrl + 182
        0x00019d4a:    f8d40828    ..(.    LDR      r0,[r4,#0x828]
        0x00019d4e:    f7fefd67    ..g.    BL       am_hal_cmdq_disable ; 0x18820
        0x00019d52:    6860        `h      LDR      r0,[r4,#4]
        0x00019d54:    3013        .0      ADDS     r0,r0,#0x13
        0x00019d56:    f7fefd5f    .._.    BL       am_gpu_power_disable ; 0x18818
        0x00019d5a:    2001        .       MOVS     r0,#1
        0x00019d5c:    f8840868    ..h.    STRB     r0,[r4,#0x868]
        0x00019d60:    6860        `h      LDR      r0,[r4,#4]
        0x00019d62:    eb053000    ...0    ADD      r0,r5,r0,LSL #12
        0x00019d66:    f8d0111c    ....    LDR      r1,[r0,#0x11c]
        0x00019d6a:    f0210101    !...    BIC      r1,r1,#1
        0x00019d6e:    f8c0111c    ....    STR      r1,[r0,#0x11c]
        0x00019d72:    6860        `h      LDR      r0,[r4,#4]
        0x00019d74:    eb053000    ...0    ADD      r0,r5,r0,LSL #12
        0x00019d78:    f8d0111c    ....    LDR      r1,[r0,#0x11c]
        0x00019d7c:    f0210110    !...    BIC      r1,r1,#0x10
        0x00019d80:    f8c0111c    ....    STR      r1,[r0,#0x11c]
        0x00019d84:    7920         y      LDRB     r0,[r4,#4]
        0x00019d86:    3001        .0      ADDS     r0,#1
        0x00019d88:    b2c0        ..      UXTB     r0,r0
        0x00019d8a:    f000f9bf    ....    BL       am_hal_pwrctrl_periph_disable ; 0x1a10c
        0x00019d8e:    2000        .       MOVS     r0,#0
        0x00019d90:    bdb0        ..      POP      {r4,r5,r7,pc}
        0x00019d92:    bf00        ..      NOP      
        0x00019d94:    2002        .       MOVS     r0,#2
        0x00019d96:    bdb0        ..      POP      {r4,r5,r7,pc}
        0x00019d98:    2900        .)      CMP      r1,#0
        0x00019d9a:    bf1c        ..      ITT      NE
        0x00019d9c:    2006        .       MOVNE    r0,#6
        0x00019d9e:    bdb0        ..      POPNE    {r4,r5,r7,pc}
        0x00019da0:    2a00        .*      CMP      r2,#0
        0x00019da2:    f0008085    ....    BEQ.W    0x19eb0 ; am_hal_iom_power_ctrl + 524
        0x00019da6:    f8940868    ..h.    LDRB     r0,[r4,#0x868]
        0x00019daa:    2800        .(      CMP      r0,#0
        0x00019dac:    f0008088    ....    BEQ.W    0x19ec0 ; am_hal_iom_power_ctrl + 540
        0x00019db0:    7920         y      LDRB     r0,[r4,#4]
        0x00019db2:    3001        .0      ADDS     r0,#1
        0x00019db4:    b2c0        ..      UXTB     r0,r0
        0x00019db6:    f000fa43    ..C.    BL       am_hal_pwrctrl_periph_enable ; 0x1a240
        0x00019dba:    6862        bh      LDR      r2,[r4,#4]
        0x00019dbc:    2000        .       MOVS     r0,#0
        0x00019dbe:    f8d4186c    ..l.    LDR      r1,[r4,#0x86c]
        0x00019dc2:    f2c40005    ....    MOVT     r0,#0x4005
        0x00019dc6:    eb003202    ...2    ADD      r2,r0,r2,LSL #12
        0x00019dca:    f8c21104    ....    STR      r1,[r2,#0x104]
        0x00019dce:    6861        ah      LDR      r1,[r4,#4]
        0x00019dd0:    f8d42874    ..t(    LDR      r2,[r4,#0x874]
        0x00019dd4:    eb003101    ...1    ADD      r1,r0,r1,LSL #12
        0x00019dd8:    f8c12118    ...!    STR      r2,[r1,#0x118]
        0x00019ddc:    6861        ah      LDR      r1,[r4,#4]
        0x00019dde:    f8d42880    ...(    LDR      r2,[r4,#0x880]
        0x00019de2:    eb003101    ...1    ADD      r1,r0,r1,LSL #12
        0x00019de6:    f8c1222c    ..,"    STR      r2,[r1,#0x22c]
        0x00019dea:    6861        ah      LDR      r1,[r4,#4]
        0x00019dec:    f8d42884    ...(    LDR      r2,[r4,#0x884]
        0x00019df0:    eb003101    ...1    ADD      r1,r0,r1,LSL #12
        0x00019df4:    f8c12234    ..4"    STR      r2,[r1,#0x234]
        0x00019df8:    6861        ah      LDR      r1,[r4,#4]
        0x00019dfa:    f8d42888    ...(    LDR      r2,[r4,#0x888]
        0x00019dfe:    eb003101    ...1    ADD      r1,r0,r1,LSL #12
        0x00019e02:    f8c1223c    ..<"    STR      r2,[r1,#0x23c]
        0x00019e06:    6861        ah      LDR      r1,[r4,#4]
        0x00019e08:    f8d4288c    ...(    LDR      r2,[r4,#0x88c]
        0x00019e0c:    eb003101    ...1    ADD      r1,r0,r1,LSL #12
        0x00019e10:    f8c12240    ..@"    STR      r2,[r1,#0x240]
        0x00019e14:    6861        ah      LDR      r1,[r4,#4]
        0x00019e16:    f8d42890    ...(    LDR      r2,[r4,#0x890]
        0x00019e1a:    eb003101    ...1    ADD      r1,r0,r1,LSL #12
        0x00019e1e:    f8c12244    ..D"    STR      r2,[r1,#0x244]
        0x00019e22:    6861        ah      LDR      r1,[r4,#4]
        0x00019e24:    f8d42894    ...(    LDR      r2,[r4,#0x894]
        0x00019e28:    eb003101    ...1    ADD      r1,r0,r1,LSL #12
        0x00019e2c:    f8c12280    ..."    STR      r2,[r1,#0x280]
        0x00019e30:    6861        ah      LDR      r1,[r4,#4]
        0x00019e32:    f8d42898    ...(    LDR      r2,[r4,#0x898]
        0x00019e36:    eb003101    ...1    ADD      r1,r0,r1,LSL #12
        0x00019e3a:    f8c122c0    ..."    STR      r2,[r1,#0x2c0]
        0x00019e3e:    6861        ah      LDR      r1,[r4,#4]
        0x00019e40:    f8d4289c    ...(    LDR      r2,[r4,#0x89c]
        0x00019e44:    eb003101    ...1    ADD      r1,r0,r1,LSL #12
        0x00019e48:    f8c12200    ..."    STR      r2,[r1,#0x200]
        0x00019e4c:    6861        ah      LDR      r1,[r4,#4]
        0x00019e4e:    f8d42870    ..p(    LDR      r2,[r4,#0x870]
        0x00019e52:    eb003101    ...1    ADD      r1,r0,r1,LSL #12
        0x00019e56:    f8c12210    ..."    STR      r2,[r1,#0x210]
        0x00019e5a:    f8d4187c    ..|.    LDR      r1,[r4,#0x87c]
        0x00019e5e:    6862        bh      LDR      r2,[r4,#4]
        0x00019e60:    f0210101    !...    BIC      r1,r1,#1
        0x00019e64:    eb003202    ...2    ADD      r2,r0,r2,LSL #12
        0x00019e68:    f8c21228    ..(.    STR      r1,[r2,#0x228]
        0x00019e6c:    6861        ah      LDR      r1,[r4,#4]
        0x00019e6e:    f8d42878    ..x(    LDR      r2,[r4,#0x878]
        0x00019e72:    eb003001    ...0    ADD      r0,r0,r1,LSL #12
        0x00019e76:    f8c0211c    ...!    STR      r2,[r0,#0x11c]
        0x00019e7a:    f894087c    ..|.    LDRB     r0,[r4,#0x87c]
        0x00019e7e:    07c0        ..      LSLS     r0,r0,#31
        0x00019e80:    d002        ..      BEQ      0x19e88 ; am_hal_iom_power_ctrl + 484
        0x00019e82:    4620         F      MOV      r0,r4
        0x00019e84:    f7fffa44    ..D.    BL       am_hal_iom_CQEnable ; 0x19310
        0x00019e88:    2000        .       MOVS     r0,#0
        0x00019e8a:    f8840868    ..h.    STRB     r0,[r4,#0x868]
        0x00019e8e:    bdb0        ..      POP      {r4,r5,r7,pc}
        0x00019e90:    6860        `h      LDR      r0,[r4,#4]
        0x00019e92:    eb053000    ...0    ADD      r0,r5,r0,LSL #12
        0x00019e96:    f8d00248    ..H.    LDR      r0,[r0,#0x248]
        0x00019e9a:    f0000006    ....    AND      r0,r0,#6
        0x00019e9e:    2804        .(      CMP      r0,#4
        0x00019ea0:    d103        ..      BNE      0x19eaa ; am_hal_iom_power_ctrl + 518
        0x00019ea2:    6a60        `j      LDR      r0,[r4,#0x24]
        0x00019ea4:    2800        .(      CMP      r0,#0
        0x00019ea6:    f43faf13    ?...    BEQ      0x19cd0 ; am_hal_iom_power_ctrl + 44
        0x00019eaa:    2003        .       MOVS     r0,#3
        0x00019eac:    bdb0        ..      POP      {r4,r5,r7,pc}
        0x00019eae:    bf00        ..      NOP      
        0x00019eb0:    7920         y      LDRB     r0,[r4,#4]
        0x00019eb2:    3001        .0      ADDS     r0,#1
        0x00019eb4:    b2c0        ..      UXTB     r0,r0
        0x00019eb6:    f000f9c3    ....    BL       am_hal_pwrctrl_periph_enable ; 0x1a240
        0x00019eba:    2000        .       MOVS     r0,#0
        0x00019ebc:    bdb0        ..      POP      {r4,r5,r7,pc}
        0x00019ebe:    bf00        ..      NOP      
        0x00019ec0:    2007        .       MOVS     r0,#7
        0x00019ec2:    bdb0        ..      POP      {r4,r5,r7,pc}
    am_hal_itm_enable
        0x00019ec4:    f64e50fc    N..P    MOV      r0,#0xedfc
        0x00019ec8:    f2ce0000    ....    MOVT     r0,#0xe000
        0x00019ecc:    6801        .h      LDR      r1,[r0,#0]
        0x00019ece:    f0417180    A..q    ORR      r1,r1,#0x1000000
        0x00019ed2:    6001        .`      STR      r1,[r0,#0]
        0x00019ed4:    6801        .h      LDR      r1,[r0,#0]
        0x00019ed6:    01c9        ..      LSLS     r1,r1,#7
        0x00019ed8:    d409        ..      BMI      0x19eee ; am_hal_itm_enable + 42
        0x00019eda:    6801        .h      LDR      r1,[r0,#0]
        0x00019edc:    01c9        ..      LSLS     r1,r1,#7
        0x00019ede:    bf5c        \.      ITT      PL
        0x00019ee0:    6801        .h      LDRPL    r1,[r0,#0]
        0x00019ee2:    ea5f11c1    _...    LSLSPL   r1,r1,#7
        0x00019ee6:    d402        ..      BMI      0x19eee ; am_hal_itm_enable + 42
        0x00019ee8:    6801        .h      LDR      r1,[r0,#0]
        0x00019eea:    01c9        ..      LSLS     r1,r1,#7
        0x00019eec:    d5f2        ..      BPL      0x19ed4 ; am_hal_itm_enable + 16
        0x00019eee:    f6406000    @..`    MOVW     r0,#0xe00
        0x00019ef2:    f64c6155    L.Ua    MOV      r1,#0xce55
        0x00019ef6:    f2ce0000    ....    MOVT     r0,#0xe000
        0x00019efa:    f2cc51ac    ...Q    MOVT     r1,#0xc5ac
        0x00019efe:    f8c011b0    ....    STR      r1,[r0,#0x1b0]
        0x00019f02:    210f        .!      MOVS     r1,#0xf
        0x00019f04:    6401        .d      STR      r1,[r0,#0x40]
        0x00019f06:    f04f31ff    O..1    MOV      r1,#0xffffffff
        0x00019f0a:    6001        .`      STR      r1,[r0,#0]
        0x00019f0c:    f2405111    @..Q    MOV      r1,#0x511
        0x00019f10:    f2c00115    ....    MOVT     r1,#0x15
        0x00019f14:    f8c01080    ....    STR      r1,[r0,#0x80]
        0x00019f18:    4770        pG      BX       lr
        0x00019f1a:    0000        ..      MOVS     r0,r0
    am_hal_itm_print
        0x00019f1c:    b510        ..      PUSH     {r4,lr}
        0x00019f1e:    f04f31ff    O..1    MOV      r1,#0xffffffff
        0x00019f22:    bf00        ..      NOP      
        0x00019f24:    1842        B.      ADDS     r2,r0,r1
        0x00019f26:    7853        Sx      LDRB     r3,[r2,#1]
        0x00019f28:    b143        C.      CBZ      r3,0x19f3c ; am_hal_itm_print + 32
        0x00019f2a:    7893        .x      LDRB     r3,[r2,#2]
        0x00019f2c:    b153        S.      CBZ      r3,0x19f44 ; am_hal_itm_print + 40
        0x00019f2e:    78d3        .x      LDRB     r3,[r2,#3]
        0x00019f30:    b333        3.      CBZ      r3,0x19f80 ; am_hal_itm_print + 100
        0x00019f32:    7912        .y      LDRB     r2,[r2,#4]
        0x00019f34:    3104        .1      ADDS     r1,#4
        0x00019f36:    2a00        .*      CMP      r2,#0
        0x00019f38:    d1f4        ..      BNE      0x19f24 ; am_hal_itm_print + 8
        0x00019f3a:    e004        ..      B        0x19f46 ; am_hal_itm_print + 42
        0x00019f3c:    3101        .1      ADDS     r1,#1
        0x00019f3e:    b919        ..      CBNZ     r1,0x19f48 ; am_hal_itm_print + 44
        0x00019f40:    e021        !.      B        0x19f86 ; am_hal_itm_print + 106
        0x00019f42:    bf00        ..      NOP      
        0x00019f44:    3102        .1      ADDS     r1,#2
        0x00019f46:    b1f1        ..      CBZ      r1,0x19f86 ; am_hal_itm_print + 106
        0x00019f48:    f0110e03    ....    ANDS     lr,r1,#3
        0x00019f4c:    f1a10c01    ....    SUB      r12,r1,#1
        0x00019f50:    d040        @.      BEQ      0x19fd4 ; am_hal_itm_print + 184
        0x00019f52:    7802        .x      LDRB     r2,[r0,#0]
        0x00019f54:    f04f4360    O.`C    MOV      r3,#0xe0000000
        0x00019f58:    681c        .h      LDR      r4,[r3,#0]
        0x00019f5a:    b934        4.      CBNZ     r4,0x19f6a ; am_hal_itm_print + 78
        0x00019f5c:    681c        .h      LDR      r4,[r3,#0]
        0x00019f5e:    b924        $.      CBNZ     r4,0x19f6a ; am_hal_itm_print + 78
        0x00019f60:    681c        .h      LDR      r4,[r3,#0]
        0x00019f62:    b914        ..      CBNZ     r4,0x19f6a ; am_hal_itm_print + 78
        0x00019f64:    681c        .h      LDR      r4,[r3,#0]
        0x00019f66:    2c00        .,      CMP      r4,#0
        0x00019f68:    d0f6        ..      BEQ      0x19f58 ; am_hal_itm_print + 60
        0x00019f6a:    1c44        D.      ADDS     r4,r0,#1
        0x00019f6c:    f04f4360    O.`C    MOV      r3,#0xe0000000
        0x00019f70:    f1be0f01    ....    CMP      lr,#1
        0x00019f74:    701a        .p      STRB     r2,[r3,#0]
        0x00019f76:    d107        ..      BNE      0x19f88 ; am_hal_itm_print + 108
        0x00019f78:    4661        aF      MOV      r1,r12
        0x00019f7a:    4620         F      MOV      r0,r4
        0x00019f7c:    e02a        *.      B        0x19fd4 ; am_hal_itm_print + 184
        0x00019f7e:    bf00        ..      NOP      
        0x00019f80:    3103        .1      ADDS     r1,#3
        0x00019f82:    2900        .)      CMP      r1,#0
        0x00019f84:    d1e0        ..      BNE      0x19f48 ; am_hal_itm_print + 44
        0x00019f86:    bd10        ..      POP      {r4,pc}
        0x00019f88:    7822        "x      LDRB     r2,[r4,#0]
        0x00019f8a:    bf00        ..      NOP      
        0x00019f8c:    681c        .h      LDR      r4,[r3,#0]
        0x00019f8e:    b934        4.      CBNZ     r4,0x19f9e ; am_hal_itm_print + 130
        0x00019f90:    681c        .h      LDR      r4,[r3,#0]
        0x00019f92:    b924        $.      CBNZ     r4,0x19f9e ; am_hal_itm_print + 130
        0x00019f94:    681c        .h      LDR      r4,[r3,#0]
        0x00019f96:    b914        ..      CBNZ     r4,0x19f9e ; am_hal_itm_print + 130
        0x00019f98:    681c        .h      LDR      r4,[r3,#0]
        0x00019f9a:    2c00        .,      CMP      r4,#0
        0x00019f9c:    d0f6        ..      BEQ      0x19f8c ; am_hal_itm_print + 112
        0x00019f9e:    1c84        ..      ADDS     r4,r0,#2
        0x00019fa0:    f04f4360    O.`C    MOV      r3,#0xe0000000
        0x00019fa4:    f1be0f02    ....    CMP      lr,#2
        0x00019fa8:    701a        .p      STRB     r2,[r3,#0]
        0x00019faa:    d103        ..      BNE      0x19fb4 ; am_hal_itm_print + 152
        0x00019fac:    3902        .9      SUBS     r1,#2
        0x00019fae:    4620         F      MOV      r0,r4
        0x00019fb0:    e010        ..      B        0x19fd4 ; am_hal_itm_print + 184
        0x00019fb2:    bf00        ..      NOP      
        0x00019fb4:    7822        "x      LDRB     r2,[r4,#0]
        0x00019fb6:    bf00        ..      NOP      
        0x00019fb8:    681c        .h      LDR      r4,[r3,#0]
        0x00019fba:    b934        4.      CBNZ     r4,0x19fca ; am_hal_itm_print + 174
        0x00019fbc:    681c        .h      LDR      r4,[r3,#0]
        0x00019fbe:    b924        $.      CBNZ     r4,0x19fca ; am_hal_itm_print + 174
        0x00019fc0:    681c        .h      LDR      r4,[r3,#0]
        0x00019fc2:    b914        ..      CBNZ     r4,0x19fca ; am_hal_itm_print + 174
        0x00019fc4:    681c        .h      LDR      r4,[r3,#0]
        0x00019fc6:    2c00        .,      CMP      r4,#0
        0x00019fc8:    d0f6        ..      BEQ      0x19fb8 ; am_hal_itm_print + 156
        0x00019fca:    3003        .0      ADDS     r0,#3
        0x00019fcc:    f04f4360    O.`C    MOV      r3,#0xe0000000
        0x00019fd0:    3903        .9      SUBS     r1,#3
        0x00019fd2:    701a        .p      STRB     r2,[r3,#0]
        0x00019fd4:    f1bc0f03    ....    CMP      r12,#3
        0x00019fd8:    bf38        8.      IT       CC
        0x00019fda:    bd10        ..      POPCC    {r4,pc}
        0x00019fdc:    f04f4260    O.`B    MOV      r2,#0xe0000000
        0x00019fe0:    e004        ..      B        0x19fec ; am_hal_itm_print + 208
        0x00019fe2:    bf00        ..      NOP      
        0x00019fe4:    3004        .0      ADDS     r0,#4
        0x00019fe6:    3904        .9      SUBS     r1,#4
        0x00019fe8:    7013        .p      STRB     r3,[r2,#0]
        0x00019fea:    d0cc        ..      BEQ      0x19f86 ; am_hal_itm_print + 106
        0x00019fec:    7803        .x      LDRB     r3,[r0,#0]
        0x00019fee:    bf00        ..      NOP      
        0x00019ff0:    6814        .h      LDR      r4,[r2,#0]
        0x00019ff2:    b934        4.      CBNZ     r4,0x1a002 ; am_hal_itm_print + 230
        0x00019ff4:    6814        .h      LDR      r4,[r2,#0]
        0x00019ff6:    b924        $.      CBNZ     r4,0x1a002 ; am_hal_itm_print + 230
        0x00019ff8:    6814        .h      LDR      r4,[r2,#0]
        0x00019ffa:    b914        ..      CBNZ     r4,0x1a002 ; am_hal_itm_print + 230
        0x00019ffc:    6814        .h      LDR      r4,[r2,#0]
        0x00019ffe:    2c00        .,      CMP      r4,#0
        0x0001a000:    d0f6        ..      BEQ      0x19ff0 ; am_hal_itm_print + 212
        0x0001a002:    7013        .p      STRB     r3,[r2,#0]
        0x0001a004:    7843        Cx      LDRB     r3,[r0,#1]
        0x0001a006:    bf00        ..      NOP      
        0x0001a008:    6814        .h      LDR      r4,[r2,#0]
        0x0001a00a:    b934        4.      CBNZ     r4,0x1a01a ; am_hal_itm_print + 254
        0x0001a00c:    6814        .h      LDR      r4,[r2,#0]
        0x0001a00e:    b924        $.      CBNZ     r4,0x1a01a ; am_hal_itm_print + 254
        0x0001a010:    6814        .h      LDR      r4,[r2,#0]
        0x0001a012:    b914        ..      CBNZ     r4,0x1a01a ; am_hal_itm_print + 254
        0x0001a014:    6814        .h      LDR      r4,[r2,#0]
        0x0001a016:    2c00        .,      CMP      r4,#0
        0x0001a018:    d0f6        ..      BEQ      0x1a008 ; am_hal_itm_print + 236
        0x0001a01a:    7013        .p      STRB     r3,[r2,#0]
        0x0001a01c:    7883        .x      LDRB     r3,[r0,#2]
        0x0001a01e:    bf00        ..      NOP      
        0x0001a020:    6814        .h      LDR      r4,[r2,#0]
        0x0001a022:    b934        4.      CBNZ     r4,0x1a032 ; am_hal_itm_print + 278
        0x0001a024:    6814        .h      LDR      r4,[r2,#0]
        0x0001a026:    b924        $.      CBNZ     r4,0x1a032 ; am_hal_itm_print + 278
        0x0001a028:    6814        .h      LDR      r4,[r2,#0]
        0x0001a02a:    b914        ..      CBNZ     r4,0x1a032 ; am_hal_itm_print + 278
        0x0001a02c:    6814        .h      LDR      r4,[r2,#0]
        0x0001a02e:    2c00        .,      CMP      r4,#0
        0x0001a030:    d0f6        ..      BEQ      0x1a020 ; am_hal_itm_print + 260
        0x0001a032:    7013        .p      STRB     r3,[r2,#0]
        0x0001a034:    78c3        .x      LDRB     r3,[r0,#3]
        0x0001a036:    bf00        ..      NOP      
        0x0001a038:    6814        .h      LDR      r4,[r2,#0]
        0x0001a03a:    2c00        .,      CMP      r4,#0
        0x0001a03c:    d1d2        ..      BNE      0x19fe4 ; am_hal_itm_print + 200
        0x0001a03e:    6814        .h      LDR      r4,[r2,#0]
        0x0001a040:    2c00        .,      CMP      r4,#0
        0x0001a042:    d1cf        ..      BNE      0x19fe4 ; am_hal_itm_print + 200
        0x0001a044:    6814        .h      LDR      r4,[r2,#0]
        0x0001a046:    2c00        .,      CMP      r4,#0
        0x0001a048:    d1cc        ..      BNE      0x19fe4 ; am_hal_itm_print + 200
        0x0001a04a:    6814        .h      LDR      r4,[r2,#0]
        0x0001a04c:    2c00        .,      CMP      r4,#0
        0x0001a04e:    d0f3        ..      BEQ      0x1a038 ; am_hal_itm_print + 284
        0x0001a050:    e7c8        ..      B        0x19fe4 ; am_hal_itm_print + 200
        0x0001a052:    0000        ..      MOVS     r0,r0
    am_hal_pwrctrl_mcu_mode_select
        0x0001a054:    b5b0        ..      PUSH     {r4,r5,r7,lr}
        0x0001a056:    4604        .F      MOV      r4,r0
        0x0001a058:    3803        .8      SUBS     r0,#3
        0x0001a05a:    f1100f02    ....    CMN      r0,#2
        0x0001a05e:    bf3c        <.      ITT      CC
        0x0001a060:    2006        .       MOVCC    r0,#6
        0x0001a062:    bdb0        ..      POPCC    {r4,r5,r7,pc}
        0x0001a064:    2c02        .,      CMP      r4,#2
        0x0001a066:    d10b        ..      BNE      0x1a080 ; am_hal_pwrctrl_mcu_mode_select + 44
        0x0001a068:    f2410000    A...    MOVW     r0,#0x1000
        0x0001a06c:    f2c40002    ....    MOVT     r0,#0x4002
        0x0001a070:    f8d00108    ....    LDR      r0,[r0,#0x108]
        0x0001a074:    f0000030    ..0.    AND      r0,r0,#0x30
        0x0001a078:    2830        0(      CMP      r0,#0x30
        0x0001a07a:    bf1c        ..      ITT      NE
        0x0001a07c:    2007        .       MOVNE    r0,#7
        0x0001a07e:    bdb0        ..      POPNE    {r4,r5,r7,pc}
        0x0001a080:    f24000d0    @...    MOVW     r0,#0xd0
        0x0001a084:    f2c10000    ....    MOVT     r0,#0x1000
        0x0001a088:    7801        .x      LDRB     r1,[r0,#0]
        0x0001a08a:    42a1        .B      CMP      r1,r4
        0x0001a08c:    bf04        ..      ITT      EQ
        0x0001a08e:    2000        .       MOVEQ    r0,#0
        0x0001a090:    bdb0        ..      POPEQ    {r4,r5,r7,pc}
        0x0001a092:    f2410500    A...    MOVW     r5,#0x1000
        0x0001a096:    f2c40502    ....    MOVT     r5,#0x4002
        0x0001a09a:    7004        .p      STRB     r4,[r0,#0]
        0x0001a09c:    6828        (h      LDR      r0,[r5,#0]
        0x0001a09e:    f3640001    d...    BFI      r0,r4,#0,#2
        0x0001a0a2:    6028        (`      STR      r0,[r5,#0]
        0x0001a0a4:    6828        (h      LDR      r0,[r5,#0]
        0x0001a0a6:    0740        @.      LSLS     r0,r0,#29
        0x0001a0a8:    d41c        ..      BMI      0x1a0e4 ; am_hal_pwrctrl_mcu_mode_select + 144
        0x0001a0aa:    2001        .       MOVS     r0,#1
        0x0001a0ac:    f7fefdb0    ....    BL       am_hal_delay_us ; 0x18c10
        0x0001a0b0:    6828        (h      LDR      r0,[r5,#0]
        0x0001a0b2:    0740        @.      LSLS     r0,r0,#29
        0x0001a0b4:    d416        ..      BMI      0x1a0e4 ; am_hal_pwrctrl_mcu_mode_select + 144
        0x0001a0b6:    2001        .       MOVS     r0,#1
        0x0001a0b8:    f7fefdaa    ....    BL       am_hal_delay_us ; 0x18c10
        0x0001a0bc:    6828        (h      LDR      r0,[r5,#0]
        0x0001a0be:    0740        @.      LSLS     r0,r0,#29
        0x0001a0c0:    d410        ..      BMI      0x1a0e4 ; am_hal_pwrctrl_mcu_mode_select + 144
        0x0001a0c2:    2001        .       MOVS     r0,#1
        0x0001a0c4:    f7fefda4    ....    BL       am_hal_delay_us ; 0x18c10
        0x0001a0c8:    6828        (h      LDR      r0,[r5,#0]
        0x0001a0ca:    0740        @.      LSLS     r0,r0,#29
        0x0001a0cc:    d40a        ..      BMI      0x1a0e4 ; am_hal_pwrctrl_mcu_mode_select + 144
        0x0001a0ce:    2001        .       MOVS     r0,#1
        0x0001a0d0:    f7fefd9e    ....    BL       am_hal_delay_us ; 0x18c10
        0x0001a0d4:    6828        (h      LDR      r0,[r5,#0]
        0x0001a0d6:    0740        @.      LSLS     r0,r0,#29
        0x0001a0d8:    d404        ..      BMI      0x1a0e4 ; am_hal_pwrctrl_mcu_mode_select + 144
        0x0001a0da:    2001        .       MOVS     r0,#1
        0x0001a0dc:    f7fefd98    ....    BL       am_hal_delay_us ; 0x18c10
        0x0001a0e0:    2004        .       MOVS     r0,#4
        0x0001a0e2:    bdb0        ..      POP      {r4,r5,r7,pc}
        0x0001a0e4:    6828        (h      LDR      r0,[r5,#0]
        0x0001a0e6:    f3c000c1    ....    UBFX     r0,r0,#3,#2
        0x0001a0ea:    1b00        ..      SUBS     r0,r0,r4
        0x0001a0ec:    bf18        ..      IT       NE
        0x0001a0ee:    2001        .       MOVNE    r0,#1
        0x0001a0f0:    bdb0        ..      POP      {r4,r5,r7,pc}
        0x0001a0f2:    0000        ..      MOVS     r0,r0
    am_hal_pwrctrl_mcu_mode_status
        0x0001a0f4:    2800        .(      CMP      r0,#0
        0x0001a0f6:    bf04        ..      ITT      EQ
        0x0001a0f8:    2006        .       MOVEQ    r0,#6
        0x0001a0fa:    4770        pG      BXEQ     lr
        0x0001a0fc:    f24001d0    @...    MOVW     r1,#0xd0
        0x0001a100:    f2c10100    ....    MOVT     r1,#0x1000
        0x0001a104:    7809        .x      LDRB     r1,[r1,#0]
        0x0001a106:    7001        .p      STRB     r1,[r0,#0]
        0x0001a108:    2000        .       MOVS     r0,#0
        0x0001a10a:    4770        pG      BX       lr
    am_hal_pwrctrl_periph_disable
        0x0001a10c:    e92d43f0    -..C    PUSH     {r4-r9,lr}
        0x0001a110:    b083        ..      SUB      sp,sp,#0xc
        0x0001a112:    2818        .(      CMP      r0,#0x18
        0x0001a114:    d904        ..      BLS      0x1a120 ; am_hal_pwrctrl_periph_disable + 20
        0x0001a116:    2406        .$      MOVS     r4,#6
        0x0001a118:    4620         F      MOV      r0,r4
        0x0001a11a:    b003        ..      ADD      sp,sp,#0xc
        0x0001a11c:    e8bd83f0    ....    POP      {r4-r9,pc}
        0x0001a120:    f24c7120    L. q    MOV      r1,#0xc720
        0x0001a124:    f2c00101    ....    MOVT     r1,#1
        0x0001a128:    0102        ..      LSLS     r2,r0,#4
        0x0001a12a:    f8518002    Q...    LDR      r8,[r1,r2]
        0x0001a12e:    eb011500    ....    ADD      r5,r1,r0,LSL #4
        0x0001a132:    686f        oh      LDR      r7,[r5,#4]
        0x0001a134:    f8d81000    ....    LDR      r1,[r8,#0]
        0x0001a138:    4239        9B      TST      r1,r7
        0x0001a13a:    d076        v.      BEQ      0x1a22a ; am_hal_pwrctrl_periph_disable + 286
        0x0001a13c:    2812        .(      CMP      r0,#0x12
        0x0001a13e:    d12d        -.      BNE      0x1a19c ; am_hal_pwrctrl_periph_disable + 144
        0x0001a140:    f64076e0    @..v    MOVW     r6,#0xfe0
        0x0001a144:    f2c4060c    ....    MOVT     r6,#0x400c
        0x0001a148:    6830        0h      LDR      r0,[r6,#0]
        0x0001a14a:    28c0        .(      CMP      r0,#0xc0
        0x0001a14c:    d126        &.      BNE      0x1a19c ; am_hal_pwrctrl_periph_disable + 144
        0x0001a14e:    f6402980    @..)    MOVW     r9,#0xa80
        0x0001a152:    f2c4090c    ....    MOVT     r9,#0x400c
        0x0001a156:    f1a90104    ....    SUB      r1,r9,#4
        0x0001a15a:    2064        d       MOVS     r0,#0x64
        0x0001a15c:    2201        ."      MOVS     r2,#1
        0x0001a15e:    2301        .#      MOVS     r3,#1
        0x0001a160:    f7fefd72    ..r.    BL       am_hal_delay_us_status_change ; 0x18c48
        0x0001a164:    4604        .F      MOV      r4,r0
        0x0001a166:    2800        .(      CMP      r0,#0
        0x0001a168:    d1d6        ..      BNE      0x1a118 ; am_hal_pwrctrl_periph_disable + 12
        0x0001a16a:    f5066173    ..sa    ADD      r1,r6,#0xf30
        0x0001a16e:    2064        d       MOVS     r0,#0x64
        0x0001a170:    2201        ."      MOVS     r2,#1
        0x0001a172:    2301        .#      MOVS     r3,#1
        0x0001a174:    f7fefd68    ..h.    BL       am_hal_delay_us_status_change ; 0x18c48
        0x0001a178:    4604        .F      MOV      r4,r0
        0x0001a17a:    2800        .(      CMP      r0,#0
        0x0001a17c:    d1cc        ..      BNE      0x1a118 ; am_hal_pwrctrl_periph_disable + 12
        0x0001a17e:    f8d90000    ....    LDR      r0,[r9,#0]
        0x0001a182:    f0400001    @...    ORR      r0,r0,#1
        0x0001a186:    f8c90000    ....    STR      r0,[r9,#0]
        0x0001a18a:    f2401068    @.h.    MOVW     r0,#0x168
        0x0001a18e:    f2c10000    ....    MOVT     r0,#0x1000
        0x0001a192:    68c1        .h      LDR      r1,[r0,#0xc]
        0x0001a194:    b111        ..      CBZ      r1,0x1a19c ; am_hal_pwrctrl_periph_disable + 144
        0x0001a196:    2000        .       MOVS     r0,#0
        0x0001a198:    f000fdac    ....    BL       crypto_boost_trims ; 0x1acf4
        0x0001a19c:    e9d56502    ...e    LDRD     r6,r5,[r5,#8]
        0x0001a1a0:    f7fff8aa    ....    BL       am_hal_interrupt_master_disable ; 0x192f8
        0x0001a1a4:    9002        ..      STR      r0,[sp,#8]
        0x0001a1a6:    f8d80000    ....    LDR      r0,[r8,#0]
        0x0001a1aa:    43b8        .C      BICS     r0,r0,r7
        0x0001a1ac:    f8c80000    ....    STR      r0,[r8,#0]
        0x0001a1b0:    9802        ..      LDR      r0,[sp,#8]
        0x0001a1b2:    f7fff8a9    ....    BL       am_hal_interrupt_master_set ; 0x19308
        0x0001a1b6:    2400        .$      MOVS     r4,#0
        0x0001a1b8:    2005        .       MOVS     r0,#5
        0x0001a1ba:    4631        1F      MOV      r1,r6
        0x0001a1bc:    462a        *F      MOV      r2,r5
        0x0001a1be:    462b        +F      MOV      r3,r5
        0x0001a1c0:    9400        ..      STR      r4,[sp,#0]
        0x0001a1c2:    f7fefd6d    ..m.    BL       am_hal_delay_us_status_check ; 0x18ca0
        0x0001a1c6:    2800        .(      CMP      r0,#0
        0x0001a1c8:    d0a6        ..      BEQ      0x1a118 ; am_hal_pwrctrl_periph_disable + 12
        0x0001a1ca:    f5b57ff0    ....    CMP      r5,#0x1e0
        0x0001a1ce:    f04f0400    O...    MOV      r4,#0
        0x0001a1d2:    db0d        ..      BLT      0x1a1f0 ; am_hal_pwrctrl_periph_disable + 228
        0x0001a1d4:    d01c        ..      BEQ      0x1a210 ; am_hal_pwrctrl_periph_disable + 260
        0x0001a1d6:    f5b53fe0    ...?    CMP      r5,#0x1c000
        0x0001a1da:    d01f        ..      BEQ      0x1a21c ; am_hal_pwrctrl_periph_disable + 272
        0x0001a1dc:    f5b55ff0    ..._    CMP      r5,#0x1e00
        0x0001a1e0:    d19a        ..      BNE      0x1a118 ; am_hal_pwrctrl_periph_disable + 12
        0x0001a1e2:    f8d80000    ....    LDR      r0,[r8,#0]
        0x0001a1e6:    f4105ff0    ..._    TST      r0,#0x1e00
        0x0001a1ea:    d11c        ..      BNE      0x1a226 ; am_hal_pwrctrl_periph_disable + 282
        0x0001a1ec:    e01d        ..      B        0x1a22a ; am_hal_pwrctrl_periph_disable + 286
        0x0001a1ee:    bf00        ..      NOP      
        0x0001a1f0:    2d1e        .-      CMP      r5,#0x1e
        0x0001a1f2:    d01f        ..      BEQ      0x1a234 ; am_hal_pwrctrl_periph_disable + 296
        0x0001a1f4:    2d47        G-      CMP      r5,#0x47
        0x0001a1f6:    f47faf8f    ....    BNE.W    0x1a118 ; am_hal_pwrctrl_periph_disable + 12
        0x0001a1fa:    f8d80000    ....    LDR      r0,[r8,#0]
        0x0001a1fe:    f0100f47    ..G.    TST      r0,#0x47
        0x0001a202:    d110        ..      BNE      0x1a226 ; am_hal_pwrctrl_periph_disable + 282
        0x0001a204:    2400        .$      MOVS     r4,#0
        0x0001a206:    4620         F      MOV      r0,r4
        0x0001a208:    b003        ..      ADD      sp,sp,#0xc
        0x0001a20a:    e8bd83f0    ....    POP      {r4-r9,pc}
        0x0001a20e:    bf00        ..      NOP      
        0x0001a210:    f8d80000    ....    LDR      r0,[r8,#0]
        0x0001a214:    f4107ff0    ....    TST      r0,#0x1e0
        0x0001a218:    d105        ..      BNE      0x1a226 ; am_hal_pwrctrl_periph_disable + 282
        0x0001a21a:    e006        ..      B        0x1a22a ; am_hal_pwrctrl_periph_disable + 286
        0x0001a21c:    f8d80000    ....    LDR      r0,[r8,#0]
        0x0001a220:    f4103fe0    ...?    TST      r0,#0x1c000
        0x0001a224:    d001        ..      BEQ      0x1a22a ; am_hal_pwrctrl_periph_disable + 286
        0x0001a226:    f8d80000    ....    LDR      r0,[r8,#0]
        0x0001a22a:    2400        .$      MOVS     r4,#0
        0x0001a22c:    4620         F      MOV      r0,r4
        0x0001a22e:    b003        ..      ADD      sp,sp,#0xc
        0x0001a230:    e8bd83f0    ....    POP      {r4-r9,pc}
        0x0001a234:    f8d80000    ....    LDR      r0,[r8,#0]
        0x0001a238:    f0100f1e    ....    TST      r0,#0x1e
        0x0001a23c:    d1f3        ..      BNE      0x1a226 ; am_hal_pwrctrl_periph_disable + 282
        0x0001a23e:    e7f4        ..      B        0x1a22a ; am_hal_pwrctrl_periph_disable + 286
    am_hal_pwrctrl_periph_enable
        0x0001a240:    e92d4ff0    -..O    PUSH     {r4-r11,lr}
        0x0001a244:    b085        ..      SUB      sp,sp,#0x14
        0x0001a246:    2818        .(      CMP      r0,#0x18
        0x0001a248:    d904        ..      BLS      0x1a254 ; am_hal_pwrctrl_periph_enable + 20
        0x0001a24a:    2706        .'      MOVS     r7,#6
        0x0001a24c:    4638        8F      MOV      r0,r7
        0x0001a24e:    b005        ..      ADD      sp,sp,#0x14
        0x0001a250:    e8bd8ff0    ....    POP      {r4-r11,pc}
        0x0001a254:    4606        .F      MOV      r6,r0
        0x0001a256:    f24c7120    L. q    MOV      r1,#0xc720
        0x0001a25a:    f2c00101    ....    MOVT     r1,#1
        0x0001a25e:    0132        2.      LSLS     r2,r6,#4
        0x0001a260:    588f        .X      LDR      r7,[r1,r2]
        0x0001a262:    eb011000    ....    ADD      r0,r1,r0,LSL #4
        0x0001a266:    6845        Eh      LDR      r5,[r0,#4]
        0x0001a268:    6839        9h      LDR      r1,[r7,#0]
        0x0001a26a:    4229        )B      TST      r1,r5
        0x0001a26c:    d004        ..      BEQ      0x1a278 ; am_hal_pwrctrl_periph_enable + 56
        0x0001a26e:    2700        .'      MOVS     r7,#0
        0x0001a270:    4638        8F      MOV      r0,r7
        0x0001a272:    b005        ..      ADD      sp,sp,#0x14
        0x0001a274:    e8bd8ff0    ....    POP      {r4-r11,pc}
        0x0001a278:    e9d08902    ....    LDRD     r8,r9,[r0,#8]
        0x0001a27c:    f2401a68    @.h.    MOVW     r10,#0x168
        0x0001a280:    2e12        ..      CMP      r6,#0x12
        0x0001a282:    f2c10a00    ....    MOVT     r10,#0x1000
        0x0001a286:    d140        @.      BNE      0x1a30a ; am_hal_pwrctrl_periph_enable + 202
        0x0001a288:    f8da400c    ...@    LDR      r4,[r10,#0xc]
        0x0001a28c:    b3ec        ..      CBZ      r4,0x1a30a ; am_hal_pwrctrl_periph_enable + 202
        0x0001a28e:    f89a0000    ....    LDRB     r0,[r10,#0]
        0x0001a292:    bbd0        ..      CBNZ     r0,0x1a30a ; am_hal_pwrctrl_periph_enable + 202
        0x0001a294:    f7fff830    ..0.    BL       am_hal_interrupt_master_disable ; 0x192f8
        0x0001a298:    9003        ..      STR      r0,[sp,#0xc]
        0x0001a29a:    2001        .       MOVS     r0,#1
        0x0001a29c:    f88a0000    ....    STRB     r0,[r10,#0]
        0x0001a2a0:    e9da0101    ....    LDRD     r0,r1,[r10,#4]
        0x0001a2a4:    223f        ?"      MOVS     r2,#0x3f
        0x0001a2a6:    4420         D      ADD      r0,r0,r4
        0x0001a2a8:    283f        ?(      CMP      r0,#0x3f
        0x0001a2aa:    bf38        8.      IT       CC
        0x0001a2ac:    4602        .F      MOVCC    r2,r0
        0x0001a2ae:    440c        .D      ADD      r4,r4,r1
        0x0001a2b0:    f8cd8004    ....    STR      r8,[sp,#4]
        0x0001a2b4:    f2400888    @...    MOVW     r8,#0x88
        0x0001a2b8:    e9ca0401    ....    STRD     r0,r4,[r10,#4]
        0x0001a2bc:    f2c40802    ....    MOVT     r8,#0x4002
        0x0001a2c0:    f8d812e4    ....    LDR      r1,[r8,#0x2e4]
        0x0001a2c4:    f04f0b3f    O.?.    MOV      r11,#0x3f
        0x0001a2c8:    2c3f        ?,      CMP      r4,#0x3f
        0x0001a2ca:    bf38        8.      IT       CC
        0x0001a2cc:    46a3        .F      MOVCC    r11,r4
        0x0001a2ce:    f021717c    !.|q    BIC      r1,r1,#0x3f00000
        0x0001a2d2:    2800        .(      CMP      r0,#0
        0x0001a2d4:    f04f0014    O...    MOV      r0,#0x14
        0x0001a2d8:    bf58        X.      IT       PL
        0x0001a2da:    ea415102    A..Q    ORRPL    r1,r1,r2,LSL #20
        0x0001a2de:    f8c812e4    ....    STR      r1,[r8,#0x2e4]
        0x0001a2e2:    f7fefc95    ....    BL       am_hal_delay_us ; 0x18c10
        0x0001a2e6:    f8d80000    ....    LDR      r0,[r8,#0]
        0x0001a2ea:    2c00        .,      CMP      r4,#0
        0x0001a2ec:    f020003f     .?.    BIC      r0,r0,#0x3f
        0x0001a2f0:    bf58        X.      IT       PL
        0x0001a2f2:    ea40000b    @...    ORRPL    r0,r0,r11
        0x0001a2f6:    f8c80000    ....    STR      r0,[r8,#0]
        0x0001a2fa:    f8dd8004    ....    LDR      r8,[sp,#4]
        0x0001a2fe:    9803        ..      LDR      r0,[sp,#0xc]
        0x0001a300:    f7fff802    ....    BL       am_hal_interrupt_master_set ; 0x19308
        0x0001a304:    2014        .       MOVS     r0,#0x14
        0x0001a306:    f7fefc83    ....    BL       am_hal_delay_us ; 0x18c10
        0x0001a30a:    f7fefff5    ....    BL       am_hal_interrupt_master_disable ; 0x192f8
        0x0001a30e:    9002        ..      STR      r0,[sp,#8]
        0x0001a310:    6838        8h      LDR      r0,[r7,#0]
        0x0001a312:    4328        (C      ORRS     r0,r0,r5
        0x0001a314:    6038        8`      STR      r0,[r7,#0]
        0x0001a316:    9802        ..      LDR      r0,[sp,#8]
        0x0001a318:    f7fefff6    ....    BL       am_hal_interrupt_master_set ; 0x19308
        0x0001a31c:    2701        .'      MOVS     r7,#1
        0x0001a31e:    2005        .       MOVS     r0,#5
        0x0001a320:    4641        AF      MOV      r1,r8
        0x0001a322:    464a        JF      MOV      r2,r9
        0x0001a324:    464b        KF      MOV      r3,r9
        0x0001a326:    9700        ..      STR      r7,[sp,#0]
        0x0001a328:    f7fefcba    ....    BL       am_hal_delay_us_status_check ; 0x18ca0
        0x0001a32c:    2800        .(      CMP      r0,#0
        0x0001a32e:    d041        A.      BEQ      0x1a3b4 ; am_hal_pwrctrl_periph_enable + 372
        0x0001a330:    4607        .F      MOV      r7,r0
        0x0001a332:    2e12        ..      CMP      r6,#0x12
        0x0001a334:    d18a        ..      BNE      0x1a24c ; am_hal_pwrctrl_periph_enable + 12
        0x0001a336:    f8da400c    ...@    LDR      r4,[r10,#0xc]
        0x0001a33a:    2c00        .,      CMP      r4,#0
        0x0001a33c:    f43faf86    ?...    BEQ.W    0x1a24c ; am_hal_pwrctrl_periph_enable + 12
        0x0001a340:    f89a0000    ....    LDRB     r0,[r10,#0]
        0x0001a344:    2800        .(      CMP      r0,#0
        0x0001a346:    f43faf81    ?...    BEQ.W    0x1a24c ; am_hal_pwrctrl_periph_enable + 12
        0x0001a34a:    f7feffd5    ....    BL       am_hal_interrupt_master_disable ; 0x192f8
        0x0001a34e:    9004        ..      STR      r0,[sp,#0x10]
        0x0001a350:    2000        .       MOVS     r0,#0
        0x0001a352:    f88a0000    ....    STRB     r0,[r10,#0]
        0x0001a356:    e9da0101    ....    LDRD     r0,r1,[r10,#4]
        0x0001a35a:    263f        ?&      MOVS     r6,#0x3f
        0x0001a35c:    1b05        ..      SUBS     r5,r0,r4
        0x0001a35e:    1b09        ..      SUBS     r1,r1,r4
        0x0001a360:    2488        .$      MOVS     r4,#0x88
        0x0001a362:    2d3f        ?-      CMP      r5,#0x3f
        0x0001a364:    bf38        8.      IT       CC
        0x0001a366:    462e        .F      MOVCC    r6,r5
        0x0001a368:    e9ca5101    ...Q    STRD     r5,r1,[r10,#4]
        0x0001a36c:    f2c40402    ....    MOVT     r4,#0x4002
        0x0001a370:    6822        "h      LDR      r2,[r4,#0]
        0x0001a372:    203f        ?       MOVS     r0,#0x3f
        0x0001a374:    293f        ?)      CMP      r1,#0x3f
        0x0001a376:    bf38        8.      IT       CC
        0x0001a378:    4608        .F      MOVCC    r0,r1
        0x0001a37a:    f022023f    ".?.    BIC      r2,r2,#0x3f
        0x0001a37e:    2900        .)      CMP      r1,#0
        0x0001a380:    bf58        X.      IT       PL
        0x0001a382:    4302        .C      ORRPL    r2,r2,r0
        0x0001a384:    2014        .       MOVS     r0,#0x14
        0x0001a386:    6022        "`      STR      r2,[r4,#0]
        0x0001a388:    f7fefc42    ..B.    BL       am_hal_delay_us ; 0x18c10
        0x0001a38c:    f8d402e4    ....    LDR      r0,[r4,#0x2e4]
        0x0001a390:    2d00        .-      CMP      r5,#0
        0x0001a392:    f020707c     .|p    BIC      r0,r0,#0x3f00000
        0x0001a396:    bf58        X.      IT       PL
        0x0001a398:    ea405006    @..P    ORRPL    r0,r0,r6,LSL #20
        0x0001a39c:    f8c402e4    ....    STR      r0,[r4,#0x2e4]
        0x0001a3a0:    9804        ..      LDR      r0,[sp,#0x10]
        0x0001a3a2:    f7feffb1    ....    BL       am_hal_interrupt_master_set ; 0x19308
        0x0001a3a6:    2014        .       MOVS     r0,#0x14
        0x0001a3a8:    f7fefc32    ..2.    BL       am_hal_delay_us ; 0x18c10
        0x0001a3ac:    4638        8F      MOV      r0,r7
        0x0001a3ae:    b005        ..      ADD      sp,sp,#0x14
        0x0001a3b0:    e8bd8ff0    ....    POP      {r4-r11,pc}
        0x0001a3b4:    2e12        ..      CMP      r6,#0x12
        0x0001a3b6:    d10c        ..      BNE      0x1a3d2 ; am_hal_pwrctrl_periph_enable + 402
        0x0001a3b8:    f6417110    A..q    MOV      r1,#0x1f10
        0x0001a3bc:    f2c4010c    ....    MOVT     r1,#0x400c
        0x0001a3c0:    2064        d       MOVS     r0,#0x64
        0x0001a3c2:    2201        ."      MOVS     r2,#1
        0x0001a3c4:    2301        .#      MOVS     r3,#1
        0x0001a3c6:    f7fefc3f    ..?.    BL       am_hal_delay_us_status_change ; 0x18c48
        0x0001a3ca:    4607        .F      MOV      r7,r0
        0x0001a3cc:    2800        .(      CMP      r0,#0
        0x0001a3ce:    f47faf3d    ..=.    BNE      0x1a24c ; am_hal_pwrctrl_periph_enable + 12
        0x0001a3d2:    f8d80000    ....    LDR      r0,[r8,#0]
        0x0001a3d6:    ea000009    ....    AND      r0,r0,r9
        0x0001a3da:    fab0f080    ....    CLZ      r0,r0
        0x0001a3de:    0947        G.      LSRS     r7,r0,#5
        0x0001a3e0:    4638        8F      MOV      r0,r7
        0x0001a3e2:    b005        ..      ADD      sp,sp,#0x14
        0x0001a3e4:    e8bd8ff0    ....    POP      {r4-r11,pc}
    am_hal_sysctrl_sleep
        0x0001a3e8:    e92d41f0    -..A    PUSH     {r4-r8,lr}
        0x0001a3ec:    b084        ..      SUB      sp,sp,#0x10
        0x0001a3ee:    a902        ..      ADD      r1,sp,#8
        0x0001a3f0:    f1b15f80    ..._    CMP      r1,#0x10000000
        0x0001a3f4:    d344        D.      BCC      0x1a480 ; am_hal_sysctrl_sleep + 152
        0x0001a3f6:    4604        .F      MOV      r4,r0
        0x0001a3f8:    2000        .       MOVS     r0,#0
        0x0001a3fa:    f2c10006    ....    MOVT     r0,#0x1006
        0x0001a3fe:    4281        .B      CMP      r1,r0
        0x0001a400:    d23e        >.      BCS      0x1a480 ; am_hal_sysctrl_sleep + 152
        0x0001a402:    f64e5510    N..U    MOV      r5,#0xed10
        0x0001a406:    f2410608    A...    MOV      r6,#0x1008
        0x0001a40a:    f2ce0500    ....    MOVT     r5,#0xe000
        0x0001a40e:    f2c40602    ....    MOVT     r6,#0x4002
        0x0001a412:    f7feff71    ..q.    BL       am_hal_interrupt_master_disable ; 0x192f8
        0x0001a416:    9001        ..      STR      r0,[sp,#4]
        0x0001a418:    f8d60100    ....    LDR      r0,[r6,#0x100]
        0x0001a41c:    b394        ..      CBZ      r4,0x1a484 ; am_hal_sysctrl_sleep + 156
        0x0001a41e:    f2403780    @..7    MOVW     r7,#0x380
        0x0001a422:    f64f61d0    O..a    MOV      r1,#0xfed0
        0x0001a426:    f2c40702    ....    MOVT     r7,#0x4002
        0x0001a42a:    f6cf71ff    ...q    MOVT     r1,#0xffff
        0x0001a42e:    5879        yX      LDR      r1,[r7,r1]
        0x0001a430:    07c9        ..      LSLS     r1,r1,#31
        0x0001a432:    d127        '.      BNE      0x1a484 ; am_hal_sysctrl_sleep + 156
        0x0001a434:    f0000030    ..0.    AND      r0,r0,#0x30
        0x0001a438:    f64f4880    O..H    MOV      r8,#0xfc80
        0x0001a43c:    2830        0(      CMP      r0,#0x30
        0x0001a43e:    f6cf78ff    ...x    MOVT     r8,#0xffff
        0x0001a442:    d106        ..      BNE      0x1a452 ; am_hal_sysctrl_sleep + 106
        0x0001a444:    6830        0h      LDR      r0,[r6,#0]
        0x0001a446:    f64f71ff    O..q    MOV      r1,#0xffff
        0x0001a44a:    f2c01133    ..3.    MOVT     r1,#0x133
        0x0001a44e:    4208        .B      TST      r0,r1
        0x0001a450:    d01e        ..      BEQ      0x1a490 ; am_hal_sysctrl_sleep + 168
        0x0001a452:    2400        .$      MOVS     r4,#0
        0x0001a454:    f8570008    W...    LDR      r0,[r7,r8]
        0x0001a458:    f4104f70    ..pO    TST      r0,#0xf000
        0x0001a45c:    d139        9.      BNE      0x1a4d2 ; am_hal_sysctrl_sleep + 234
        0x0001a45e:    6830        0h      LDR      r0,[r6,#0]
        0x0001a460:    01c0        ..      LSLS     r0,r0,#7
        0x0001a462:    d436        6.      BMI      0x1a4d2 ; am_hal_sysctrl_sleep + 234
        0x0001a464:    f10d000f    ....    ADD      r0,sp,#0xf
        0x0001a468:    f7fffe44    ..D.    BL       am_hal_pwrctrl_mcu_mode_status ; 0x1a0f4
        0x0001a46c:    f89d000f    ....    LDRB     r0,[sp,#0xf]
        0x0001a470:    2802        .(      CMP      r0,#2
        0x0001a472:    d02e        ..      BEQ      0x1a4d2 ; am_hal_sysctrl_sleep + 234
        0x0001a474:    2002        .       MOVS     r0,#2
        0x0001a476:    f7fffded    ....    BL       am_hal_pwrctrl_mcu_mode_select ; 0x1a054
        0x0001a47a:    2601        .&      MOVS     r6,#1
        0x0001a47c:    e02a        *.      B        0x1a4d4 ; am_hal_sysctrl_sleep + 236
        0x0001a47e:    bf00        ..      NOP      
        0x0001a480:    e7fe        ..      B        0x1a480 ; am_hal_sysctrl_sleep + 152
        0x0001a482:    bf00        ..      NOP      
        0x0001a484:    6828        (h      LDR      r0,[r5,#0]
        0x0001a486:    2400        .$      MOVS     r4,#0
        0x0001a488:    f0200004     ...    BIC      r0,r0,#4
        0x0001a48c:    2600        .&      MOVS     r6,#0
        0x0001a48e:    e024        $.      B        0x1a4da ; am_hal_sysctrl_sleep + 242
        0x0001a490:    f240001c    @...    MOVW     r0,#0x1c
        0x0001a494:    f2c10000    ....    MOVT     r0,#0x1000
        0x0001a498:    6800        .h      LDR      r0,[r0,#0]
        0x0001a49a:    f8571c10    W...    LDR      r1,[r7,#-0x10]
        0x0001a49e:    f3605119    `..Q    BFI      r1,r0,#20,#6
        0x0001a4a2:    f8471c10    G...    STR      r1,[r7,#-0x10]
        0x0001a4a6:    6838        8h      LDR      r0,[r7,#0]
        0x0001a4a8:    f0204000     ..@    BIC      r0,r0,#0x80000000
        0x0001a4ac:    6038        8`      STR      r0,[r7,#0]
        0x0001a4ae:    6838        8h      LDR      r0,[r7,#0]
        0x0001a4b0:    f0204080     ..@    BIC      r0,r0,#0x40000000
        0x0001a4b4:    6038        8`      STR      r0,[r7,#0]
        0x0001a4b6:    f8570008    W...    LDR      r0,[r7,r8]
        0x0001a4ba:    f4104f7f    ...O    TST      r0,#0xff00
        0x0001a4be:    d002        ..      BEQ      0x1a4c6 ; am_hal_sysctrl_sleep + 222
        0x0001a4c0:    2000        .       MOVS     r0,#0
        0x0001a4c2:    f000fbe9    ....    BL       buck_ldo_update_override ; 0x1ac98
        0x0001a4c6:    2401        .$      MOVS     r4,#1
        0x0001a4c8:    f8570008    W...    LDR      r0,[r7,r8]
        0x0001a4cc:    f4104f70    ..pO    TST      r0,#0xf000
        0x0001a4d0:    d0c5        ..      BEQ      0x1a45e ; am_hal_sysctrl_sleep + 118
        0x0001a4d2:    2600        .&      MOVS     r6,#0
        0x0001a4d4:    6828        (h      LDR      r0,[r5,#0]
        0x0001a4d6:    f0400004    @...    ORR      r0,r0,#4
        0x0001a4da:    6028        (`      STR      r0,[r5,#0]
        0x0001a4dc:    2001        .       MOVS     r0,#1
        0x0001a4de:    2100        .!      MOVS     r1,#0
        0x0001a4e0:    f7fefa98    ....    BL       am_hal_daxi_control ; 0x18a14
        0x0001a4e4:    bf30        0.      WFI      
        0x0001a4e6:    f3bf8f6f    ..o.    ISB      
        0x0001a4ea:    b14e        N.      CBZ      r6,0x1a500 ; am_hal_sysctrl_sleep + 280
        0x0001a4ec:    2001        .       MOVS     r0,#1
        0x0001a4ee:    f7fffdb1    ....    BL       am_hal_pwrctrl_mcu_mode_select ; 0x1a054
        0x0001a4f2:    b93c        <.      CBNZ     r4,0x1a504 ; am_hal_sysctrl_sleep + 284
        0x0001a4f4:    9801        ..      LDR      r0,[sp,#4]
        0x0001a4f6:    f7feff07    ....    BL       am_hal_interrupt_master_set ; 0x19308
        0x0001a4fa:    b004        ..      ADD      sp,sp,#0x10
        0x0001a4fc:    e8bd81f0    ....    POP      {r4-r8,pc}
        0x0001a500:    2c00        .,      CMP      r4,#0
        0x0001a502:    d0f7        ..      BEQ      0x1a4f4 ; am_hal_sysctrl_sleep + 268
        0x0001a504:    2001        .       MOVS     r0,#1
        0x0001a506:    f000fbc7    ....    BL       buck_ldo_update_override ; 0x1ac98
        0x0001a50a:    f2403080    @..0    MOVW     r0,#0x380
        0x0001a50e:    f2c40002    ....    MOVT     r0,#0x4002
        0x0001a512:    6801        .h      LDR      r1,[r0,#0]
        0x0001a514:    f0414100    A..A    ORR      r1,r1,#0x80000000
        0x0001a518:    6001        .`      STR      r1,[r0,#0]
        0x0001a51a:    6801        .h      LDR      r1,[r0,#0]
        0x0001a51c:    f0414180    A..A    ORR      r1,r1,#0x40000000
        0x0001a520:    6001        .`      STR      r1,[r0,#0]
        0x0001a522:    f8501c10    P...    LDR      r1,[r0,#-0x10]
        0x0001a526:    f021717c    !.|q    BIC      r1,r1,#0x3f00000
        0x0001a52a:    f8401c10    @...    STR      r1,[r0,#-0x10]
        0x0001a52e:    9801        ..      LDR      r0,[sp,#4]
        0x0001a530:    f7fefeea    ....    BL       am_hal_interrupt_master_set ; 0x19308
        0x0001a534:    b004        ..      ADD      sp,sp,#0x10
        0x0001a536:    e8bd81f0    ....    POP      {r4-r8,pc}
        0x0001a53a:    0000        ..      MOVS     r0,r0
    am_hal_tpiu_enable
        0x0001a53c:    f647337f    G..3    MOV      r3,#0x7b7f
        0x0001a540:    f6cf73e1    ...s    MOVT     r3,#0xffe1
        0x0001a544:    2104        .!      MOVS     r1,#4
        0x0001a546:    18c2        ..      ADDS     r2,r0,r3
        0x0001a548:    f5034361    ..aC    ADD      r3,r3,#0xe100
        0x0001a54c:    f2ce0104    ....    MOVT     r1,#0xe004
        0x0001a550:    f04f0c00    O...    MOV      r12,#0
        0x0001a554:    429a        .B      CMP      r2,r3
        0x0001a556:    f6464300    F..C    MOVW     r3,#0x6c00
        0x0001a55a:    f8c1c300    ....    STR      r12,[r1,#0x300]
        0x0001a55e:    bf3c        <.      ITT      CC
        0x0001a560:    f2442040    D.@     MOVCC    r0,#0x4240
        0x0001a564:    f2c0000f    ....    MOVTCC   r0,#0xf
        0x0001a568:    f2c023dc    ...#    MOVT     r3,#0x2dc
        0x0001a56c:    fbb3f0f0    ....    UDIV     r0,r3,r0
        0x0001a570:    2201        ."      MOVS     r2,#1
        0x0001a572:    3801        .8      SUBS     r0,#1
        0x0001a574:    b280        ..      UXTH     r0,r0
        0x0001a576:    600a        .`      STR      r2,[r1,#0]
        0x0001a578:    60c8        .`      STR      r0,[r1,#0xc]
        0x0001a57a:    2002        .       MOVS     r0,#2
        0x0001a57c:    f8c100ec    ....    STR      r0,[r1,#0xec]
        0x0001a580:    f6407100    @..q    MOVW     r1,#0xf00
        0x0001a584:    f2ce0104    ....    MOVT     r1,#0xe004
        0x0001a588:    f8c1c000    ....    STR      r12,[r1,#0]
        0x0001a58c:    f2402150    @.P!    MOVW     r1,#0x250
        0x0001a590:    f2c40102    ....    MOVT     r1,#0x4002
        0x0001a594:    680a        .h      LDR      r2,[r1,#0]
        0x0001a596:    f3600243    `.C.    BFI      r2,r0,#1,#3
        0x0001a59a:    600a        .`      STR      r2,[r1,#0]
        0x0001a59c:    6808        .h      LDR      r0,[r1,#0]
        0x0001a59e:    f0400201    @...    ORR      r2,r0,#1
        0x0001a5a2:    2064        d       MOVS     r0,#0x64
        0x0001a5a4:    600a        .`      STR      r2,[r1,#0]
        0x0001a5a6:    f7febb33    ..3.    B        am_hal_delay_us ; 0x18c10
        0x0001a5aa:    0000        ..      MOVS     r0,r0
    am_util_delay_ms
        0x0001a5ac:    b580        ..      PUSH     {r7,lr}
        0x0001a5ae:    b082        ..      SUB      sp,sp,#8
        0x0001a5b0:    9001        ..      STR      r0,[sp,#4]
        0x0001a5b2:    9801        ..      LDR      r0,[sp,#4]
        0x0001a5b4:    f44f717a    O.zq    MOV      r1,#0x3e8
        0x0001a5b8:    4348        HC      MULS     r0,r1,r0
        0x0001a5ba:    f7fefb29    ..).    BL       am_hal_delay_us ; 0x18c10
        0x0001a5be:    b002        ..      ADD      sp,sp,#8
        0x0001a5c0:    bd80        ..      POP      {r7,pc}
        0x0001a5c2:    0000        ..      MOVS     r0,r0
    am_util_stdio_printf
        0x0001a5c4:    b083        ..      SUB      sp,sp,#0xc
        0x0001a5c6:    b580        ..      PUSH     {r7,lr}
        0x0001a5c8:    b085        ..      SUB      sp,sp,#0x14
        0x0001a5ca:    9309        ..      STR      r3,[sp,#0x24]
        0x0001a5cc:    9208        ..      STR      r2,[sp,#0x20]
        0x0001a5ce:    9107        ..      STR      r1,[sp,#0x1c]
        0x0001a5d0:    9003        ..      STR      r0,[sp,#0xc]
        0x0001a5d2:    f64400dc    D...    MOV      r0,#0x48dc
        0x0001a5d6:    f2c10000    ....    MOVT     r0,#0x1000
        0x0001a5da:    6800        .h      LDR      r0,[r0,#0]
        0x0001a5dc:    b918        ..      CBNZ     r0,0x1a5e6 ; am_util_stdio_printf + 34
        0x0001a5de:    e7ff        ..      B        0x1a5e0 ; am_util_stdio_printf + 28
        0x0001a5e0:    2000        .       MOVS     r0,#0
        0x0001a5e2:    9004        ..      STR      r0,[sp,#0x10]
        0x0001a5e4:    e016        ..      B        0x1a614 ; am_util_stdio_printf + 80
        0x0001a5e6:    a807        ..      ADD      r0,sp,#0x1c
        0x0001a5e8:    9001        ..      STR      r0,[sp,#4]
        0x0001a5ea:    9903        ..      LDR      r1,[sp,#0xc]
        0x0001a5ec:    9a01        ..      LDR      r2,[sp,#4]
        0x0001a5ee:    f64400e0    D...    MOV      r0,#0x48e0
        0x0001a5f2:    f2c10000    ....    MOVT     r0,#0x1000
        0x0001a5f6:    9000        ..      STR      r0,[sp,#0]
        0x0001a5f8:    f000f824    ..$.    BL       am_util_stdio_vsprintf ; 0x1a644
        0x0001a5fc:    4601        .F      MOV      r1,r0
        0x0001a5fe:    9800        ..      LDR      r0,[sp,#0]
        0x0001a600:    9102        ..      STR      r1,[sp,#8]
        0x0001a602:    f64401dc    D...    MOV      r1,#0x48dc
        0x0001a606:    f2c10100    ....    MOVT     r1,#0x1000
        0x0001a60a:    6809        .h      LDR      r1,[r1,#0]
        0x0001a60c:    4788        .G      BLX      r1
        0x0001a60e:    9802        ..      LDR      r0,[sp,#8]
        0x0001a610:    9004        ..      STR      r0,[sp,#0x10]
        0x0001a612:    e7ff        ..      B        0x1a614 ; am_util_stdio_printf + 80
        0x0001a614:    9804        ..      LDR      r0,[sp,#0x10]
        0x0001a616:    b005        ..      ADD      sp,sp,#0x14
        0x0001a618:    e8bd4080    ...@    POP      {r7,lr}
        0x0001a61c:    b003        ..      ADD      sp,sp,#0xc
        0x0001a61e:    4770        pG      BX       lr
    am_util_stdio_printf_init
        0x0001a620:    b081        ..      SUB      sp,sp,#4
        0x0001a622:    9000        ..      STR      r0,[sp,#0]
        0x0001a624:    9800        ..      LDR      r0,[sp,#0]
        0x0001a626:    f64401dc    D...    MOV      r1,#0x48dc
        0x0001a62a:    f2c10100    ....    MOVT     r1,#0x1000
        0x0001a62e:    6008        .`      STR      r0,[r1,#0]
        0x0001a630:    b001        ..      ADD      sp,sp,#4
        0x0001a632:    4770        pG      BX       lr
    am_util_stdio_terminal_clear
        0x0001a634:    b580        ..      PUSH     {r7,lr}
        0x0001a636:    f64c3076    L.v0    MOV      r0,#0xcb76
        0x0001a63a:    f2c00001    ....    MOVT     r0,#1
        0x0001a63e:    f7ffffc1    ....    BL       am_util_stdio_printf ; 0x1a5c4
        0x0001a642:    bd80        ..      POP      {r7,pc}
    am_util_stdio_vsprintf
        0x0001a644:    b580        ..      PUSH     {r7,lr}
        0x0001a646:    b09e        ..      SUB      sp,sp,#0x78
        0x0001a648:    921d        ..      STR      r2,[sp,#0x74]
        0x0001a64a:    901c        ..      STR      r0,[sp,#0x70]
        0x0001a64c:    911b        ..      STR      r1,[sp,#0x6c]
        0x0001a64e:    2000        .       MOVS     r0,#0
        0x0001a650:    9014        ..      STR      r0,[sp,#0x50]
        0x0001a652:    900e        ..      STR      r0,[sp,#0x38]
        0x0001a654:    e7ff        ..      B        0x1a656 ; am_util_stdio_vsprintf + 18
        0x0001a656:    981b        ..      LDR      r0,[sp,#0x6c]
        0x0001a658:    7800        .x      LDRB     r0,[r0,#0]
        0x0001a65a:    2800        .(      CMP      r0,#0
        0x0001a65c:    f0008312    ....    BEQ.W    0x1ac84 ; am_util_stdio_vsprintf + 1600
        0x0001a660:    e7ff        ..      B        0x1a662 ; am_util_stdio_vsprintf + 30
        0x0001a662:    2006        .       MOVS     r0,#6
        0x0001a664:    9011        ..      STR      r0,[sp,#0x44]
        0x0001a666:    981b        ..      LDR      r0,[sp,#0x6c]
        0x0001a668:    7800        .x      LDRB     r0,[r0,#0]
        0x0001a66a:    2825        %(      CMP      r0,#0x25
        0x0001a66c:    d027        '.      BEQ      0x1a6be ; am_util_stdio_vsprintf + 122
        0x0001a66e:    e7ff        ..      B        0x1a670 ; am_util_stdio_vsprintf + 44
        0x0001a670:    981c        ..      LDR      r0,[sp,#0x70]
        0x0001a672:    b1e8        ..      CBZ      r0,0x1a6b0 ; am_util_stdio_vsprintf + 108
        0x0001a674:    e7ff        ..      B        0x1a676 ; am_util_stdio_vsprintf + 50
        0x0001a676:    981b        ..      LDR      r0,[sp,#0x6c]
        0x0001a678:    7800        .x      LDRB     r0,[r0,#0]
        0x0001a67a:    280a        .(      CMP      r0,#0xa
        0x0001a67c:    d111        ..      BNE      0x1a6a2 ; am_util_stdio_vsprintf + 94
        0x0001a67e:    e7ff        ..      B        0x1a680 ; am_util_stdio_vsprintf + 60
        0x0001a680:    f64400d8    D...    MOV      r0,#0x48d8
        0x0001a684:    f2c10000    ....    MOVT     r0,#0x1000
        0x0001a688:    7800        .x      LDRB     r0,[r0,#0]
        0x0001a68a:    07c0        ..      LSLS     r0,r0,#31
        0x0001a68c:    b148        H.      CBZ      r0,0x1a6a2 ; am_util_stdio_vsprintf + 94
        0x0001a68e:    e7ff        ..      B        0x1a690 ; am_util_stdio_vsprintf + 76
        0x0001a690:    991c        ..      LDR      r1,[sp,#0x70]
        0x0001a692:    1c48        H.      ADDS     r0,r1,#1
        0x0001a694:    901c        ..      STR      r0,[sp,#0x70]
        0x0001a696:    200d        .       MOVS     r0,#0xd
        0x0001a698:    7008        .p      STRB     r0,[r1,#0]
        0x0001a69a:    9814        ..      LDR      r0,[sp,#0x50]
        0x0001a69c:    3001        .0      ADDS     r0,#1
        0x0001a69e:    9014        ..      STR      r0,[sp,#0x50]
        0x0001a6a0:    e7ff        ..      B        0x1a6a2 ; am_util_stdio_vsprintf + 94
        0x0001a6a2:    981b        ..      LDR      r0,[sp,#0x6c]
        0x0001a6a4:    7800        .x      LDRB     r0,[r0,#0]
        0x0001a6a6:    991c        ..      LDR      r1,[sp,#0x70]
        0x0001a6a8:    1c4a        J.      ADDS     r2,r1,#1
        0x0001a6aa:    921c        ..      STR      r2,[sp,#0x70]
        0x0001a6ac:    7008        .p      STRB     r0,[r1,#0]
        0x0001a6ae:    e7ff        ..      B        0x1a6b0 ; am_util_stdio_vsprintf + 108
        0x0001a6b0:    981b        ..      LDR      r0,[sp,#0x6c]
        0x0001a6b2:    3001        .0      ADDS     r0,#1
        0x0001a6b4:    901b        ..      STR      r0,[sp,#0x6c]
        0x0001a6b6:    9814        ..      LDR      r0,[sp,#0x50]
        0x0001a6b8:    3001        .0      ADDS     r0,#1
        0x0001a6ba:    9014        ..      STR      r0,[sp,#0x50]
        0x0001a6bc:    e7cb        ..      B        0x1a656 ; am_util_stdio_vsprintf + 18
        0x0001a6be:    981b        ..      LDR      r0,[sp,#0x6c]
        0x0001a6c0:    3001        .0      ADDS     r0,#1
        0x0001a6c2:    901b        ..      STR      r0,[sp,#0x6c]
        0x0001a6c4:    2000        .       MOVS     r0,#0
        0x0001a6c6:    f88d0040    ..@.    STRB     r0,[sp,#0x40]
        0x0001a6ca:    f88d0041    ..A.    STRB     r0,[sp,#0x41]
        0x0001a6ce:    2020                MOVS     r0,#0x20
        0x0001a6d0:    f88d0042    ..B.    STRB     r0,[sp,#0x42]
        0x0001a6d4:    981b        ..      LDR      r0,[sp,#0x6c]
        0x0001a6d6:    7800        .x      LDRB     r0,[r0,#0]
        0x0001a6d8:    2830        0(      CMP      r0,#0x30
        0x0001a6da:    d107        ..      BNE      0x1a6ec ; am_util_stdio_vsprintf + 168
        0x0001a6dc:    e7ff        ..      B        0x1a6de ; am_util_stdio_vsprintf + 154
        0x0001a6de:    2030        0       MOVS     r0,#0x30
        0x0001a6e0:    f88d0042    ..B.    STRB     r0,[sp,#0x42]
        0x0001a6e4:    981b        ..      LDR      r0,[sp,#0x6c]
        0x0001a6e6:    3001        .0      ADDS     r0,#1
        0x0001a6e8:    901b        ..      STR      r0,[sp,#0x6c]
        0x0001a6ea:    e7ff        ..      B        0x1a6ec ; am_util_stdio_vsprintf + 168
        0x0001a6ec:    981b        ..      LDR      r0,[sp,#0x6c]
        0x0001a6ee:    a915        ..      ADD      r1,sp,#0x54
        0x0001a6f0:    f000fb64    ..d.    BL       decstr_to_int ; 0x1adbc
        0x0001a6f4:    9013        ..      STR      r0,[sp,#0x4c]
        0x0001a6f6:    9915        ..      LDR      r1,[sp,#0x54]
        0x0001a6f8:    981b        ..      LDR      r0,[sp,#0x6c]
        0x0001a6fa:    4408        .D      ADD      r0,r0,r1
        0x0001a6fc:    901b        ..      STR      r0,[sp,#0x6c]
        0x0001a6fe:    981b        ..      LDR      r0,[sp,#0x6c]
        0x0001a700:    7800        .x      LDRB     r0,[r0,#0]
        0x0001a702:    2873        s(      CMP      r0,#0x73
        0x0001a704:    d009        ..      BEQ      0x1a71a ; am_util_stdio_vsprintf + 214
        0x0001a706:    e7ff        ..      B        0x1a708 ; am_util_stdio_vsprintf + 196
        0x0001a708:    9813        ..      LDR      r0,[sp,#0x4c]
        0x0001a70a:    f1b03fff    ...?    CMP      r0,#0xffffffff
        0x0001a70e:    dc04        ..      BGT      0x1a71a ; am_util_stdio_vsprintf + 214
        0x0001a710:    e7ff        ..      B        0x1a712 ; am_util_stdio_vsprintf + 206
        0x0001a712:    9813        ..      LDR      r0,[sp,#0x4c]
        0x0001a714:    4240        @B      RSBS     r0,r0,#0
        0x0001a716:    9013        ..      STR      r0,[sp,#0x4c]
        0x0001a718:    e7ff        ..      B        0x1a71a ; am_util_stdio_vsprintf + 214
        0x0001a71a:    981b        ..      LDR      r0,[sp,#0x6c]
        0x0001a71c:    7800        .x      LDRB     r0,[r0,#0]
        0x0001a71e:    282e        .(      CMP      r0,#0x2e
        0x0001a720:    d10d        ..      BNE      0x1a73e ; am_util_stdio_vsprintf + 250
        0x0001a722:    e7ff        ..      B        0x1a724 ; am_util_stdio_vsprintf + 224
        0x0001a724:    981b        ..      LDR      r0,[sp,#0x6c]
        0x0001a726:    3001        .0      ADDS     r0,#1
        0x0001a728:    901b        ..      STR      r0,[sp,#0x6c]
        0x0001a72a:    981b        ..      LDR      r0,[sp,#0x6c]
        0x0001a72c:    a915        ..      ADD      r1,sp,#0x54
        0x0001a72e:    f000fb45    ..E.    BL       decstr_to_int ; 0x1adbc
        0x0001a732:    9011        ..      STR      r0,[sp,#0x44]
        0x0001a734:    9915        ..      LDR      r1,[sp,#0x54]
        0x0001a736:    981b        ..      LDR      r0,[sp,#0x6c]
        0x0001a738:    4408        .D      ADD      r0,r0,r1
        0x0001a73a:    901b        ..      STR      r0,[sp,#0x6c]
        0x0001a73c:    e7ff        ..      B        0x1a73e ; am_util_stdio_vsprintf + 250
        0x0001a73e:    981b        ..      LDR      r0,[sp,#0x6c]
        0x0001a740:    7800        .x      LDRB     r0,[r0,#0]
        0x0001a742:    286c        l(      CMP      r0,#0x6c
        0x0001a744:    d110        ..      BNE      0x1a768 ; am_util_stdio_vsprintf + 292
        0x0001a746:    e7ff        ..      B        0x1a748 ; am_util_stdio_vsprintf + 260
        0x0001a748:    981b        ..      LDR      r0,[sp,#0x6c]
        0x0001a74a:    3001        .0      ADDS     r0,#1
        0x0001a74c:    901b        ..      STR      r0,[sp,#0x6c]
        0x0001a74e:    981b        ..      LDR      r0,[sp,#0x6c]
        0x0001a750:    7800        .x      LDRB     r0,[r0,#0]
        0x0001a752:    286c        l(      CMP      r0,#0x6c
        0x0001a754:    d107        ..      BNE      0x1a766 ; am_util_stdio_vsprintf + 290
        0x0001a756:    e7ff        ..      B        0x1a758 ; am_util_stdio_vsprintf + 276
        0x0001a758:    981b        ..      LDR      r0,[sp,#0x6c]
        0x0001a75a:    3001        .0      ADDS     r0,#1
        0x0001a75c:    901b        ..      STR      r0,[sp,#0x6c]
        0x0001a75e:    2001        .       MOVS     r0,#1
        0x0001a760:    f88d0040    ..@.    STRB     r0,[sp,#0x40]
        0x0001a764:    e7ff        ..      B        0x1a766 ; am_util_stdio_vsprintf + 290
        0x0001a766:    e7ff        ..      B        0x1a768 ; am_util_stdio_vsprintf + 292
        0x0001a768:    981b        ..      LDR      r0,[sp,#0x6c]
        0x0001a76a:    7800        .x      LDRB     r0,[r0,#0]
        0x0001a76c:    3846        F8      SUBS     r0,r0,#0x46
        0x0001a76e:    4601        .F      MOV      r1,r0
        0x0001a770:    910b        ..      STR      r1,[sp,#0x2c]
        0x0001a772:    2832        2(      CMP      r0,#0x32
        0x0001a774:    f2008273    ..s.    BHI.W    0x1ac5e ; am_util_stdio_vsprintf + 1562
        0x0001a778:    990b        ..      LDR      r1,[sp,#0x2c]
        0x0001a77a:    e8dff011    ....    TBH      [pc,r1,LSL #1]
    $d.4
        0x0001a77e:    0224        $.      DCW    548
        0x0001a780:    02700270    p.p.    DCD    40895088
        0x0001a784:    02700270    p.p.    DCD    40895088
        0x0001a788:    02700270    p.p.    DCD    40895088
        0x0001a78c:    02700270    p.p.    DCD    40895088
        0x0001a790:    02700270    p.p.    DCD    40895088
        0x0001a794:    02700270    p.p.    DCD    40895088
        0x0001a798:    02700270    p.p.    DCD    40895088
        0x0001a79c:    02700270    p.p.    DCD    40895088
        0x0001a7a0:    00bf0270    p...    DCD    12518000
        0x0001a7a4:    02700270    p.p.    DCD    40895088
        0x0001a7a8:    02700270    p.p.    DCD    40895088
        0x0001a7ac:    02700270    p.p.    DCD    40895088
        0x0001a7b0:    02700270    p.p.    DCD    40895088
        0x0001a7b4:    02700270    p.p.    DCD    40895088
        0x0001a7b8:    016f0033    3.o.    DCD    24051763
        0x0001a7bc:    02240270    p.$.    DCD    35914352
        0x0001a7c0:    02700270    p.p.    DCD    40895088
        0x0001a7c4:    0270016f    o.p.    DCD    40894831
        0x0001a7c8:    02700270    p.p.    DCD    40895088
        0x0001a7cc:    02700270    p.p.    DCD    40895088
        0x0001a7d0:    02700270    p.p.    DCD    40895088
        0x0001a7d4:    02700270    p.p.    DCD    40895088
        0x0001a7d8:    02700047    G.p.    DCD    40894535
        0x0001a7dc:    02700119    ..p.    DCD    40894745
        0x0001a7e0:    00bb0270    p...    DCD    12255856
    $t.5
        0x0001a7e4:    981d        ..      LDR      r0,[sp,#0x74]
        0x0001a7e6:    1d01        ..      ADDS     r1,r0,#4
        0x0001a7e8:    911d        ..      STR      r1,[sp,#0x74]
        0x0001a7ea:    6800        .h      LDR      r0,[r0,#0]
        0x0001a7ec:    f88d0043    ..C.    STRB     r0,[sp,#0x43]
        0x0001a7f0:    981c        ..      LDR      r0,[sp,#0x70]
        0x0001a7f2:    b138        8.      CBZ      r0,0x1a804 ; am_util_stdio_vsprintf + 448
        0x0001a7f4:    e7ff        ..      B        0x1a7f6 ; am_util_stdio_vsprintf + 434
        0x0001a7f6:    f89d0043    ..C.    LDRB     r0,[sp,#0x43]
        0x0001a7fa:    991c        ..      LDR      r1,[sp,#0x70]
        0x0001a7fc:    1c4a        J.      ADDS     r2,r1,#1
        0x0001a7fe:    921c        ..      STR      r2,[sp,#0x70]
        0x0001a800:    7008        .p      STRB     r0,[r1,#0]
        0x0001a802:    e7ff        ..      B        0x1a804 ; am_util_stdio_vsprintf + 448
        0x0001a804:    9814        ..      LDR      r0,[sp,#0x50]
        0x0001a806:    3001        .0      ADDS     r0,#1
        0x0001a808:    9014        ..      STR      r0,[sp,#0x50]
        0x0001a80a:    e236        6.      B        0x1ac7a ; am_util_stdio_vsprintf + 1590
        0x0001a80c:    981d        ..      LDR      r0,[sp,#0x74]
        0x0001a80e:    1d01        ..      ADDS     r1,r0,#4
        0x0001a810:    911d        ..      STR      r1,[sp,#0x74]
        0x0001a812:    6800        .h      LDR      r0,[r0,#0]
        0x0001a814:    901a        ..      STR      r0,[sp,#0x68]
        0x0001a816:    981a        ..      LDR      r0,[sp,#0x68]
        0x0001a818:    f001fdd6    ....    BL       simple_strlen ; 0x1c3c8
        0x0001a81c:    900e        ..      STR      r0,[sp,#0x38]
        0x0001a81e:    9813        ..      LDR      r0,[sp,#0x4c]
        0x0001a820:    2801        .(      CMP      r0,#1
        0x0001a822:    db25        %.      BLT      0x1a870 ; am_util_stdio_vsprintf + 556
        0x0001a824:    e7ff        ..      B        0x1a826 ; am_util_stdio_vsprintf + 482
        0x0001a826:    980e        ..      LDR      r0,[sp,#0x38]
        0x0001a828:    9913        ..      LDR      r1,[sp,#0x4c]
        0x0001a82a:    4288        .B      CMP      r0,r1
        0x0001a82c:    d21f        ..      BCS      0x1a86e ; am_util_stdio_vsprintf + 554
        0x0001a82e:    e7ff        ..      B        0x1a830 ; am_util_stdio_vsprintf + 492
        0x0001a830:    990e        ..      LDR      r1,[sp,#0x38]
        0x0001a832:    9813        ..      LDR      r0,[sp,#0x4c]
        0x0001a834:    1a40        @.      SUBS     r0,r0,r1
        0x0001a836:    9013        ..      STR      r0,[sp,#0x4c]
        0x0001a838:    981c        ..      LDR      r0,[sp,#0x70]
        0x0001a83a:    f89d1042    ..B.    LDRB     r1,[sp,#0x42]
        0x0001a83e:    9a13        ..      LDR      r2,[sp,#0x4c]
        0x0001a840:    f001fd9a    ....    BL       padbuffer ; 0x1c378
        0x0001a844:    9013        ..      STR      r0,[sp,#0x4c]
        0x0001a846:    981c        ..      LDR      r0,[sp,#0x70]
        0x0001a848:    b118        ..      CBZ      r0,0x1a852 ; am_util_stdio_vsprintf + 526
        0x0001a84a:    e7ff        ..      B        0x1a84c ; am_util_stdio_vsprintf + 520
        0x0001a84c:    9813        ..      LDR      r0,[sp,#0x4c]
        0x0001a84e:    900a        ..      STR      r0,[sp,#0x28]
        0x0001a850:    e002        ..      B        0x1a858 ; am_util_stdio_vsprintf + 532
        0x0001a852:    2000        .       MOVS     r0,#0
        0x0001a854:    900a        ..      STR      r0,[sp,#0x28]
        0x0001a856:    e7ff        ..      B        0x1a858 ; am_util_stdio_vsprintf + 532
        0x0001a858:    990a        ..      LDR      r1,[sp,#0x28]
        0x0001a85a:    981c        ..      LDR      r0,[sp,#0x70]
        0x0001a85c:    4408        .D      ADD      r0,r0,r1
        0x0001a85e:    901c        ..      STR      r0,[sp,#0x70]
        0x0001a860:    9913        ..      LDR      r1,[sp,#0x4c]
        0x0001a862:    9814        ..      LDR      r0,[sp,#0x50]
        0x0001a864:    4408        .D      ADD      r0,r0,r1
        0x0001a866:    9014        ..      STR      r0,[sp,#0x50]
        0x0001a868:    2000        .       MOVS     r0,#0
        0x0001a86a:    9013        ..      STR      r0,[sp,#0x4c]
        0x0001a86c:    e7ff        ..      B        0x1a86e ; am_util_stdio_vsprintf + 554
        0x0001a86e:    e7ff        ..      B        0x1a870 ; am_util_stdio_vsprintf + 556
        0x0001a870:    e7ff        ..      B        0x1a872 ; am_util_stdio_vsprintf + 558
        0x0001a872:    981a        ..      LDR      r0,[sp,#0x68]
        0x0001a874:    7800        .x      LDRB     r0,[r0,#0]
        0x0001a876:    b188        ..      CBZ      r0,0x1a89c ; am_util_stdio_vsprintf + 600
        0x0001a878:    e7ff        ..      B        0x1a87a ; am_util_stdio_vsprintf + 566
        0x0001a87a:    981c        ..      LDR      r0,[sp,#0x70]
        0x0001a87c:    b138        8.      CBZ      r0,0x1a88e ; am_util_stdio_vsprintf + 586
        0x0001a87e:    e7ff        ..      B        0x1a880 ; am_util_stdio_vsprintf + 572
        0x0001a880:    981a        ..      LDR      r0,[sp,#0x68]
        0x0001a882:    7800        .x      LDRB     r0,[r0,#0]
        0x0001a884:    991c        ..      LDR      r1,[sp,#0x70]
        0x0001a886:    1c4a        J.      ADDS     r2,r1,#1
        0x0001a888:    921c        ..      STR      r2,[sp,#0x70]
        0x0001a88a:    7008        .p      STRB     r0,[r1,#0]
        0x0001a88c:    e7ff        ..      B        0x1a88e ; am_util_stdio_vsprintf + 586
        0x0001a88e:    981a        ..      LDR      r0,[sp,#0x68]
        0x0001a890:    3001        .0      ADDS     r0,#1
        0x0001a892:    901a        ..      STR      r0,[sp,#0x68]
        0x0001a894:    9814        ..      LDR      r0,[sp,#0x50]
        0x0001a896:    3001        .0      ADDS     r0,#1
        0x0001a898:    9014        ..      STR      r0,[sp,#0x50]
        0x0001a89a:    e7ea        ..      B        0x1a872 ; am_util_stdio_vsprintf + 558
        0x0001a89c:    9813        ..      LDR      r0,[sp,#0x4c]
        0x0001a89e:    b340        @.      CBZ      r0,0x1a8f2 ; am_util_stdio_vsprintf + 686
        0x0001a8a0:    e7ff        ..      B        0x1a8a2 ; am_util_stdio_vsprintf + 606
        0x0001a8a2:    9813        ..      LDR      r0,[sp,#0x4c]
        0x0001a8a4:    4240        @B      RSBS     r0,r0,#0
        0x0001a8a6:    9013        ..      STR      r0,[sp,#0x4c]
        0x0001a8a8:    980e        ..      LDR      r0,[sp,#0x38]
        0x0001a8aa:    9913        ..      LDR      r1,[sp,#0x4c]
        0x0001a8ac:    4288        .B      CMP      r0,r1
        0x0001a8ae:    d21f        ..      BCS      0x1a8f0 ; am_util_stdio_vsprintf + 684
        0x0001a8b0:    e7ff        ..      B        0x1a8b2 ; am_util_stdio_vsprintf + 622
        0x0001a8b2:    990e        ..      LDR      r1,[sp,#0x38]
        0x0001a8b4:    9813        ..      LDR      r0,[sp,#0x4c]
        0x0001a8b6:    1a40        @.      SUBS     r0,r0,r1
        0x0001a8b8:    9013        ..      STR      r0,[sp,#0x4c]
        0x0001a8ba:    981c        ..      LDR      r0,[sp,#0x70]
        0x0001a8bc:    f89d1042    ..B.    LDRB     r1,[sp,#0x42]
        0x0001a8c0:    9a13        ..      LDR      r2,[sp,#0x4c]
        0x0001a8c2:    f001fd59    ..Y.    BL       padbuffer ; 0x1c378
        0x0001a8c6:    9013        ..      STR      r0,[sp,#0x4c]
        0x0001a8c8:    981c        ..      LDR      r0,[sp,#0x70]
        0x0001a8ca:    b118        ..      CBZ      r0,0x1a8d4 ; am_util_stdio_vsprintf + 656
        0x0001a8cc:    e7ff        ..      B        0x1a8ce ; am_util_stdio_vsprintf + 650
        0x0001a8ce:    9813        ..      LDR      r0,[sp,#0x4c]
        0x0001a8d0:    9009        ..      STR      r0,[sp,#0x24]
        0x0001a8d2:    e002        ..      B        0x1a8da ; am_util_stdio_vsprintf + 662
        0x0001a8d4:    2000        .       MOVS     r0,#0
        0x0001a8d6:    9009        ..      STR      r0,[sp,#0x24]
        0x0001a8d8:    e7ff        ..      B        0x1a8da ; am_util_stdio_vsprintf + 662
        0x0001a8da:    9909        ..      LDR      r1,[sp,#0x24]
        0x0001a8dc:    981c        ..      LDR      r0,[sp,#0x70]
        0x0001a8de:    4408        .D      ADD      r0,r0,r1
        0x0001a8e0:    901c        ..      STR      r0,[sp,#0x70]
        0x0001a8e2:    9913        ..      LDR      r1,[sp,#0x4c]
        0x0001a8e4:    9814        ..      LDR      r0,[sp,#0x50]
        0x0001a8e6:    4408        .D      ADD      r0,r0,r1
        0x0001a8e8:    9014        ..      STR      r0,[sp,#0x50]
        0x0001a8ea:    2000        .       MOVS     r0,#0
        0x0001a8ec:    9013        ..      STR      r0,[sp,#0x4c]
        0x0001a8ee:    e7ff        ..      B        0x1a8f0 ; am_util_stdio_vsprintf + 684
        0x0001a8f0:    e7ff        ..      B        0x1a8f2 ; am_util_stdio_vsprintf + 686
        0x0001a8f2:    e1c2        ..      B        0x1ac7a ; am_util_stdio_vsprintf + 1590
        0x0001a8f4:    2001        .       MOVS     r0,#1
        0x0001a8f6:    f88d0041    ..A.    STRB     r0,[sp,#0x41]
        0x0001a8fa:    e7ff        ..      B        0x1a8fc ; am_util_stdio_vsprintf + 696
        0x0001a8fc:    f89d0040    ..@.    LDRB     r0,[sp,#0x40]
        0x0001a900:    07c0        ..      LSLS     r0,r0,#31
        0x0001a902:    b160        `.      CBZ      r0,0x1a91e ; am_util_stdio_vsprintf + 730
        0x0001a904:    e7ff        ..      B        0x1a906 ; am_util_stdio_vsprintf + 706
        0x0001a906:    981d        ..      LDR      r0,[sp,#0x74]
        0x0001a908:    3007        .0      ADDS     r0,#7
        0x0001a90a:    f0200007     ...    BIC      r0,r0,#7
        0x0001a90e:    f1000108    ....    ADD      r1,r0,#8
        0x0001a912:    911d        ..      STR      r1,[sp,#0x74]
        0x0001a914:    6801        .h      LDR      r1,[r0,#0]
        0x0001a916:    6840        @h      LDR      r0,[r0,#4]
        0x0001a918:    9107        ..      STR      r1,[sp,#0x1c]
        0x0001a91a:    9008        ..      STR      r0,[sp,#0x20]
        0x0001a91c:    e007        ..      B        0x1a92e ; am_util_stdio_vsprintf + 746
        0x0001a91e:    981d        ..      LDR      r0,[sp,#0x74]
        0x0001a920:    1d01        ..      ADDS     r1,r0,#4
        0x0001a922:    911d        ..      STR      r1,[sp,#0x74]
        0x0001a924:    6801        .h      LDR      r1,[r0,#0]
        0x0001a926:    2000        .       MOVS     r0,#0
        0x0001a928:    9107        ..      STR      r1,[sp,#0x1c]
        0x0001a92a:    9008        ..      STR      r0,[sp,#0x20]
        0x0001a92c:    e7ff        ..      B        0x1a92e ; am_util_stdio_vsprintf + 746
        0x0001a92e:    9907        ..      LDR      r1,[sp,#0x1c]
        0x0001a930:    9808        ..      LDR      r0,[sp,#0x20]
        0x0001a932:    9118        ..      STR      r1,[sp,#0x60]
        0x0001a934:    9019        ..      STR      r0,[sp,#0x64]
        0x0001a936:    9813        ..      LDR      r0,[sp,#0x4c]
        0x0001a938:    b318        ..      CBZ      r0,0x1a982 ; am_util_stdio_vsprintf + 830
        0x0001a93a:    e7ff        ..      B        0x1a93c ; am_util_stdio_vsprintf + 760
        0x0001a93c:    9818        ..      LDR      r0,[sp,#0x60]
        0x0001a93e:    9919        ..      LDR      r1,[sp,#0x64]
        0x0001a940:    f001fcc4    ....    BL       ndigits_in_hex ; 0x1c2cc
        0x0001a944:    4601        .F      MOV      r1,r0
        0x0001a946:    9813        ..      LDR      r0,[sp,#0x4c]
        0x0001a948:    1a40        @.      SUBS     r0,r0,r1
        0x0001a94a:    9013        ..      STR      r0,[sp,#0x4c]
        0x0001a94c:    981c        ..      LDR      r0,[sp,#0x70]
        0x0001a94e:    f89d1042    ..B.    LDRB     r1,[sp,#0x42]
        0x0001a952:    9a13        ..      LDR      r2,[sp,#0x4c]
        0x0001a954:    f001fd10    ....    BL       padbuffer ; 0x1c378
        0x0001a958:    9013        ..      STR      r0,[sp,#0x4c]
        0x0001a95a:    981c        ..      LDR      r0,[sp,#0x70]
        0x0001a95c:    b118        ..      CBZ      r0,0x1a966 ; am_util_stdio_vsprintf + 802
        0x0001a95e:    e7ff        ..      B        0x1a960 ; am_util_stdio_vsprintf + 796
        0x0001a960:    9813        ..      LDR      r0,[sp,#0x4c]
        0x0001a962:    9006        ..      STR      r0,[sp,#0x18]
        0x0001a964:    e002        ..      B        0x1a96c ; am_util_stdio_vsprintf + 808
        0x0001a966:    2000        .       MOVS     r0,#0
        0x0001a968:    9006        ..      STR      r0,[sp,#0x18]
        0x0001a96a:    e7ff        ..      B        0x1a96c ; am_util_stdio_vsprintf + 808
        0x0001a96c:    9906        ..      LDR      r1,[sp,#0x18]
        0x0001a96e:    981c        ..      LDR      r0,[sp,#0x70]
        0x0001a970:    4408        .D      ADD      r0,r0,r1
        0x0001a972:    901c        ..      STR      r0,[sp,#0x70]
        0x0001a974:    9913        ..      LDR      r1,[sp,#0x4c]
        0x0001a976:    9814        ..      LDR      r0,[sp,#0x50]
        0x0001a978:    4408        .D      ADD      r0,r0,r1
        0x0001a97a:    9014        ..      STR      r0,[sp,#0x50]
        0x0001a97c:    2000        .       MOVS     r0,#0
        0x0001a97e:    9013        ..      STR      r0,[sp,#0x4c]
        0x0001a980:    e7ff        ..      B        0x1a982 ; am_util_stdio_vsprintf + 830
        0x0001a982:    9818        ..      LDR      r0,[sp,#0x60]
        0x0001a984:    9919        ..      LDR      r1,[sp,#0x64]
        0x0001a986:    9a1c        ..      LDR      r2,[sp,#0x70]
        0x0001a988:    f89d3041    ..A0    LDRB     r3,[sp,#0x41]
        0x0001a98c:    f0030301    ....    AND      r3,r3,#1
        0x0001a990:    f001fd36    ..6.    BL       uint64_to_hexstr ; 0x1c400
        0x0001a994:    9012        ..      STR      r0,[sp,#0x48]
        0x0001a996:    981c        ..      LDR      r0,[sp,#0x70]
        0x0001a998:    b128        (.      CBZ      r0,0x1a9a6 ; am_util_stdio_vsprintf + 866
        0x0001a99a:    e7ff        ..      B        0x1a99c ; am_util_stdio_vsprintf + 856
        0x0001a99c:    9912        ..      LDR      r1,[sp,#0x48]
        0x0001a99e:    981c        ..      LDR      r0,[sp,#0x70]
        0x0001a9a0:    4408        .D      ADD      r0,r0,r1
        0x0001a9a2:    901c        ..      STR      r0,[sp,#0x70]
        0x0001a9a4:    e7ff        ..      B        0x1a9a6 ; am_util_stdio_vsprintf + 866
        0x0001a9a6:    9912        ..      LDR      r1,[sp,#0x48]
        0x0001a9a8:    9814        ..      LDR      r0,[sp,#0x50]
        0x0001a9aa:    4408        .D      ADD      r0,r0,r1
        0x0001a9ac:    9014        ..      STR      r0,[sp,#0x50]
        0x0001a9ae:    e164        d.      B        0x1ac7a ; am_util_stdio_vsprintf + 1590
        0x0001a9b0:    f89d0040    ..@.    LDRB     r0,[sp,#0x40]
        0x0001a9b4:    07c0        ..      LSLS     r0,r0,#31
        0x0001a9b6:    b160        `.      CBZ      r0,0x1a9d2 ; am_util_stdio_vsprintf + 910
        0x0001a9b8:    e7ff        ..      B        0x1a9ba ; am_util_stdio_vsprintf + 886
        0x0001a9ba:    981d        ..      LDR      r0,[sp,#0x74]
        0x0001a9bc:    3007        .0      ADDS     r0,#7
        0x0001a9be:    f0200007     ...    BIC      r0,r0,#7
        0x0001a9c2:    f1000108    ....    ADD      r1,r0,#8
        0x0001a9c6:    911d        ..      STR      r1,[sp,#0x74]
        0x0001a9c8:    6801        .h      LDR      r1,[r0,#0]
        0x0001a9ca:    6840        @h      LDR      r0,[r0,#4]
        0x0001a9cc:    9104        ..      STR      r1,[sp,#0x10]
        0x0001a9ce:    9005        ..      STR      r0,[sp,#0x14]
        0x0001a9d0:    e007        ..      B        0x1a9e2 ; am_util_stdio_vsprintf + 926
        0x0001a9d2:    981d        ..      LDR      r0,[sp,#0x74]
        0x0001a9d4:    1d01        ..      ADDS     r1,r0,#4
        0x0001a9d6:    911d        ..      STR      r1,[sp,#0x74]
        0x0001a9d8:    6801        .h      LDR      r1,[r0,#0]
        0x0001a9da:    2000        .       MOVS     r0,#0
        0x0001a9dc:    9104        ..      STR      r1,[sp,#0x10]
        0x0001a9de:    9005        ..      STR      r0,[sp,#0x14]
        0x0001a9e0:    e7ff        ..      B        0x1a9e2 ; am_util_stdio_vsprintf + 926
        0x0001a9e2:    9904        ..      LDR      r1,[sp,#0x10]
        0x0001a9e4:    9805        ..      LDR      r0,[sp,#0x14]
        0x0001a9e6:    9118        ..      STR      r1,[sp,#0x60]
        0x0001a9e8:    9019        ..      STR      r0,[sp,#0x64]
        0x0001a9ea:    9813        ..      LDR      r0,[sp,#0x4c]
        0x0001a9ec:    b318        ..      CBZ      r0,0x1aa36 ; am_util_stdio_vsprintf + 1010
        0x0001a9ee:    e7ff        ..      B        0x1a9f0 ; am_util_stdio_vsprintf + 940
        0x0001a9f0:    9818        ..      LDR      r0,[sp,#0x60]
        0x0001a9f2:    9919        ..      LDR      r1,[sp,#0x64]
        0x0001a9f4:    f001fca2    ....    BL       ndigits_in_u64 ; 0x1c33c
        0x0001a9f8:    4601        .F      MOV      r1,r0
        0x0001a9fa:    9813        ..      LDR      r0,[sp,#0x4c]
        0x0001a9fc:    1a40        @.      SUBS     r0,r0,r1
        0x0001a9fe:    9013        ..      STR      r0,[sp,#0x4c]
        0x0001aa00:    981c        ..      LDR      r0,[sp,#0x70]
        0x0001aa02:    f89d1042    ..B.    LDRB     r1,[sp,#0x42]
        0x0001aa06:    9a13        ..      LDR      r2,[sp,#0x4c]
        0x0001aa08:    f001fcb6    ....    BL       padbuffer ; 0x1c378
        0x0001aa0c:    9013        ..      STR      r0,[sp,#0x4c]
        0x0001aa0e:    981c        ..      LDR      r0,[sp,#0x70]
        0x0001aa10:    b118        ..      CBZ      r0,0x1aa1a ; am_util_stdio_vsprintf + 982
        0x0001aa12:    e7ff        ..      B        0x1aa14 ; am_util_stdio_vsprintf + 976
        0x0001aa14:    9813        ..      LDR      r0,[sp,#0x4c]
        0x0001aa16:    9003        ..      STR      r0,[sp,#0xc]
        0x0001aa18:    e002        ..      B        0x1aa20 ; am_util_stdio_vsprintf + 988
        0x0001aa1a:    2000        .       MOVS     r0,#0
        0x0001aa1c:    9003        ..      STR      r0,[sp,#0xc]
        0x0001aa1e:    e7ff        ..      B        0x1aa20 ; am_util_stdio_vsprintf + 988
        0x0001aa20:    9903        ..      LDR      r1,[sp,#0xc]
        0x0001aa22:    981c        ..      LDR      r0,[sp,#0x70]
        0x0001aa24:    4408        .D      ADD      r0,r0,r1
        0x0001aa26:    901c        ..      STR      r0,[sp,#0x70]
        0x0001aa28:    9913        ..      LDR      r1,[sp,#0x4c]
        0x0001aa2a:    9814        ..      LDR      r0,[sp,#0x50]
        0x0001aa2c:    4408        .D      ADD      r0,r0,r1
        0x0001aa2e:    9014        ..      STR      r0,[sp,#0x50]
        0x0001aa30:    2000        .       MOVS     r0,#0
        0x0001aa32:    9013        ..      STR      r0,[sp,#0x4c]
        0x0001aa34:    e7ff        ..      B        0x1aa36 ; am_util_stdio_vsprintf + 1010
        0x0001aa36:    9818        ..      LDR      r0,[sp,#0x60]
        0x0001aa38:    9919        ..      LDR      r1,[sp,#0x64]
        0x0001aa3a:    9a1c        ..      LDR      r2,[sp,#0x70]
        0x0001aa3c:    f001fd40    ..@.    BL       uint64_to_str ; 0x1c4c0
        0x0001aa40:    9012        ..      STR      r0,[sp,#0x48]
        0x0001aa42:    981c        ..      LDR      r0,[sp,#0x70]
        0x0001aa44:    b128        (.      CBZ      r0,0x1aa52 ; am_util_stdio_vsprintf + 1038
        0x0001aa46:    e7ff        ..      B        0x1aa48 ; am_util_stdio_vsprintf + 1028
        0x0001aa48:    9912        ..      LDR      r1,[sp,#0x48]
        0x0001aa4a:    981c        ..      LDR      r0,[sp,#0x70]
        0x0001aa4c:    4408        .D      ADD      r0,r0,r1
        0x0001aa4e:    901c        ..      STR      r0,[sp,#0x70]
        0x0001aa50:    e7ff        ..      B        0x1aa52 ; am_util_stdio_vsprintf + 1038
        0x0001aa52:    9912        ..      LDR      r1,[sp,#0x48]
        0x0001aa54:    9814        ..      LDR      r0,[sp,#0x50]
        0x0001aa56:    4408        .D      ADD      r0,r0,r1
        0x0001aa58:    9014        ..      STR      r0,[sp,#0x50]
        0x0001aa5a:    e10e        ..      B        0x1ac7a ; am_util_stdio_vsprintf + 1590
        0x0001aa5c:    f89d0040    ..@.    LDRB     r0,[sp,#0x40]
        0x0001aa60:    07c0        ..      LSLS     r0,r0,#31
        0x0001aa62:    b160        `.      CBZ      r0,0x1aa7e ; am_util_stdio_vsprintf + 1082
        0x0001aa64:    e7ff        ..      B        0x1aa66 ; am_util_stdio_vsprintf + 1058
        0x0001aa66:    981d        ..      LDR      r0,[sp,#0x74]
        0x0001aa68:    3007        .0      ADDS     r0,#7
        0x0001aa6a:    f0200007     ...    BIC      r0,r0,#7
        0x0001aa6e:    f1000108    ....    ADD      r1,r0,#8
        0x0001aa72:    911d        ..      STR      r1,[sp,#0x74]
        0x0001aa74:    6801        .h      LDR      r1,[r0,#0]
        0x0001aa76:    6840        @h      LDR      r0,[r0,#4]
        0x0001aa78:    9101        ..      STR      r1,[sp,#4]
        0x0001aa7a:    9002        ..      STR      r0,[sp,#8]
        0x0001aa7c:    e007        ..      B        0x1aa8e ; am_util_stdio_vsprintf + 1098
        0x0001aa7e:    981d        ..      LDR      r0,[sp,#0x74]
        0x0001aa80:    1d01        ..      ADDS     r1,r0,#4
        0x0001aa82:    911d        ..      STR      r1,[sp,#0x74]
        0x0001aa84:    6801        .h      LDR      r1,[r0,#0]
        0x0001aa86:    17c8        ..      ASRS     r0,r1,#31
        0x0001aa88:    9101        ..      STR      r1,[sp,#4]
        0x0001aa8a:    9002        ..      STR      r0,[sp,#8]
        0x0001aa8c:    e7ff        ..      B        0x1aa8e ; am_util_stdio_vsprintf + 1098
        0x0001aa8e:    9901        ..      LDR      r1,[sp,#4]
        0x0001aa90:    9802        ..      LDR      r0,[sp,#8]
        0x0001aa92:    9116        ..      STR      r1,[sp,#0x58]
        0x0001aa94:    9017        ..      STR      r0,[sp,#0x5c]
        0x0001aa96:    9817        ..      LDR      r0,[sp,#0x5c]
        0x0001aa98:    f1b03fff    ...?    CMP      r0,#0xffffffff
        0x0001aa9c:    dc0c        ..      BGT      0x1aab8 ; am_util_stdio_vsprintf + 1140
        0x0001aa9e:    e7ff        ..      B        0x1aaa0 ; am_util_stdio_vsprintf + 1116
        0x0001aaa0:    9816        ..      LDR      r0,[sp,#0x58]
        0x0001aaa2:    9a17        ..      LDR      r2,[sp,#0x5c]
        0x0001aaa4:    4241        AB      RSBS     r1,r0,#0
        0x0001aaa6:    f04f0000    O...    MOV      r0,#0
        0x0001aaaa:    4190        .A      SBCS     r0,r0,r2
        0x0001aaac:    9118        ..      STR      r1,[sp,#0x60]
        0x0001aaae:    9019        ..      STR      r0,[sp,#0x64]
        0x0001aab0:    2001        .       MOVS     r0,#1
        0x0001aab2:    f88d003f    ..?.    STRB     r0,[sp,#0x3f]
        0x0001aab6:    e007        ..      B        0x1aac8 ; am_util_stdio_vsprintf + 1156
        0x0001aab8:    9816        ..      LDR      r0,[sp,#0x58]
        0x0001aaba:    9917        ..      LDR      r1,[sp,#0x5c]
        0x0001aabc:    9119        ..      STR      r1,[sp,#0x64]
        0x0001aabe:    9018        ..      STR      r0,[sp,#0x60]
        0x0001aac0:    2000        .       MOVS     r0,#0
        0x0001aac2:    f88d003f    ..?.    STRB     r0,[sp,#0x3f]
        0x0001aac6:    e7ff        ..      B        0x1aac8 ; am_util_stdio_vsprintf + 1156
        0x0001aac8:    9813        ..      LDR      r0,[sp,#0x4c]
        0x0001aaca:    2800        .(      CMP      r0,#0
        0x0001aacc:    d055        U.      BEQ      0x1ab7a ; am_util_stdio_vsprintf + 1334
        0x0001aace:    e7ff        ..      B        0x1aad0 ; am_util_stdio_vsprintf + 1164
        0x0001aad0:    9818        ..      LDR      r0,[sp,#0x60]
        0x0001aad2:    9919        ..      LDR      r1,[sp,#0x64]
        0x0001aad4:    f001fc1a    ....    BL       ndigits_in_i64 ; 0x1c30c
        0x0001aad8:    4601        .F      MOV      r1,r0
        0x0001aada:    9813        ..      LDR      r0,[sp,#0x4c]
        0x0001aadc:    1a40        @.      SUBS     r0,r0,r1
        0x0001aade:    9013        ..      STR      r0,[sp,#0x4c]
        0x0001aae0:    f89d003f    ..?.    LDRB     r0,[sp,#0x3f]
        0x0001aae4:    07c0        ..      LSLS     r0,r0,#31
        0x0001aae6:    b1b0        ..      CBZ      r0,0x1ab16 ; am_util_stdio_vsprintf + 1234
        0x0001aae8:    e7ff        ..      B        0x1aaea ; am_util_stdio_vsprintf + 1190
        0x0001aaea:    9813        ..      LDR      r0,[sp,#0x4c]
        0x0001aaec:    3801        .8      SUBS     r0,#1
        0x0001aaee:    9013        ..      STR      r0,[sp,#0x4c]
        0x0001aaf0:    f89d0042    ..B.    LDRB     r0,[sp,#0x42]
        0x0001aaf4:    2830        0(      CMP      r0,#0x30
        0x0001aaf6:    d10d        ..      BNE      0x1ab14 ; am_util_stdio_vsprintf + 1232
        0x0001aaf8:    e7ff        ..      B        0x1aafa ; am_util_stdio_vsprintf + 1206
        0x0001aafa:    981c        ..      LDR      r0,[sp,#0x70]
        0x0001aafc:    b130        0.      CBZ      r0,0x1ab0c ; am_util_stdio_vsprintf + 1224
        0x0001aafe:    e7ff        ..      B        0x1ab00 ; am_util_stdio_vsprintf + 1212
        0x0001ab00:    991c        ..      LDR      r1,[sp,#0x70]
        0x0001ab02:    1c48        H.      ADDS     r0,r1,#1
        0x0001ab04:    901c        ..      STR      r0,[sp,#0x70]
        0x0001ab06:    202d        -       MOVS     r0,#0x2d
        0x0001ab08:    7008        .p      STRB     r0,[r1,#0]
        0x0001ab0a:    e7ff        ..      B        0x1ab0c ; am_util_stdio_vsprintf + 1224
        0x0001ab0c:    9814        ..      LDR      r0,[sp,#0x50]
        0x0001ab0e:    3001        .0      ADDS     r0,#1
        0x0001ab10:    9014        ..      STR      r0,[sp,#0x50]
        0x0001ab12:    e7ff        ..      B        0x1ab14 ; am_util_stdio_vsprintf + 1232
        0x0001ab14:    e7ff        ..      B        0x1ab16 ; am_util_stdio_vsprintf + 1234
        0x0001ab16:    981c        ..      LDR      r0,[sp,#0x70]
        0x0001ab18:    f89d1042    ..B.    LDRB     r1,[sp,#0x42]
        0x0001ab1c:    9a13        ..      LDR      r2,[sp,#0x4c]
        0x0001ab1e:    f001fc2b    ..+.    BL       padbuffer ; 0x1c378
        0x0001ab22:    9013        ..      STR      r0,[sp,#0x4c]
        0x0001ab24:    981c        ..      LDR      r0,[sp,#0x70]
        0x0001ab26:    b118        ..      CBZ      r0,0x1ab30 ; am_util_stdio_vsprintf + 1260
        0x0001ab28:    e7ff        ..      B        0x1ab2a ; am_util_stdio_vsprintf + 1254
        0x0001ab2a:    9813        ..      LDR      r0,[sp,#0x4c]
        0x0001ab2c:    9000        ..      STR      r0,[sp,#0]
        0x0001ab2e:    e002        ..      B        0x1ab36 ; am_util_stdio_vsprintf + 1266
        0x0001ab30:    2000        .       MOVS     r0,#0
        0x0001ab32:    9000        ..      STR      r0,[sp,#0]
        0x0001ab34:    e7ff        ..      B        0x1ab36 ; am_util_stdio_vsprintf + 1266
        0x0001ab36:    9900        ..      LDR      r1,[sp,#0]
        0x0001ab38:    981c        ..      LDR      r0,[sp,#0x70]
        0x0001ab3a:    4408        .D      ADD      r0,r0,r1
        0x0001ab3c:    901c        ..      STR      r0,[sp,#0x70]
        0x0001ab3e:    9913        ..      LDR      r1,[sp,#0x4c]
        0x0001ab40:    9814        ..      LDR      r0,[sp,#0x50]
        0x0001ab42:    4408        .D      ADD      r0,r0,r1
        0x0001ab44:    9014        ..      STR      r0,[sp,#0x50]
        0x0001ab46:    2000        .       MOVS     r0,#0
        0x0001ab48:    9013        ..      STR      r0,[sp,#0x4c]
        0x0001ab4a:    f89d003f    ..?.    LDRB     r0,[sp,#0x3f]
        0x0001ab4e:    07c0        ..      LSLS     r0,r0,#31
        0x0001ab50:    b190        ..      CBZ      r0,0x1ab78 ; am_util_stdio_vsprintf + 1332
        0x0001ab52:    e7ff        ..      B        0x1ab54 ; am_util_stdio_vsprintf + 1296
        0x0001ab54:    f89d0042    ..B.    LDRB     r0,[sp,#0x42]
        0x0001ab58:    2820         (      CMP      r0,#0x20
        0x0001ab5a:    d10d        ..      BNE      0x1ab78 ; am_util_stdio_vsprintf + 1332
        0x0001ab5c:    e7ff        ..      B        0x1ab5e ; am_util_stdio_vsprintf + 1306
        0x0001ab5e:    981c        ..      LDR      r0,[sp,#0x70]
        0x0001ab60:    b130        0.      CBZ      r0,0x1ab70 ; am_util_stdio_vsprintf + 1324
        0x0001ab62:    e7ff        ..      B        0x1ab64 ; am_util_stdio_vsprintf + 1312
        0x0001ab64:    991c        ..      LDR      r1,[sp,#0x70]
        0x0001ab66:    1c48        H.      ADDS     r0,r1,#1
        0x0001ab68:    901c        ..      STR      r0,[sp,#0x70]
        0x0001ab6a:    202d        -       MOVS     r0,#0x2d
        0x0001ab6c:    7008        .p      STRB     r0,[r1,#0]
        0x0001ab6e:    e7ff        ..      B        0x1ab70 ; am_util_stdio_vsprintf + 1324
        0x0001ab70:    9814        ..      LDR      r0,[sp,#0x50]
        0x0001ab72:    3001        .0      ADDS     r0,#1
        0x0001ab74:    9014        ..      STR      r0,[sp,#0x50]
        0x0001ab76:    e7ff        ..      B        0x1ab78 ; am_util_stdio_vsprintf + 1332
        0x0001ab78:    e012        ..      B        0x1aba0 ; am_util_stdio_vsprintf + 1372
        0x0001ab7a:    f89d003f    ..?.    LDRB     r0,[sp,#0x3f]
        0x0001ab7e:    07c0        ..      LSLS     r0,r0,#31
        0x0001ab80:    b168        h.      CBZ      r0,0x1ab9e ; am_util_stdio_vsprintf + 1370
        0x0001ab82:    e7ff        ..      B        0x1ab84 ; am_util_stdio_vsprintf + 1344
        0x0001ab84:    981c        ..      LDR      r0,[sp,#0x70]
        0x0001ab86:    b130        0.      CBZ      r0,0x1ab96 ; am_util_stdio_vsprintf + 1362
        0x0001ab88:    e7ff        ..      B        0x1ab8a ; am_util_stdio_vsprintf + 1350
        0x0001ab8a:    991c        ..      LDR      r1,[sp,#0x70]
        0x0001ab8c:    1c48        H.      ADDS     r0,r1,#1
        0x0001ab8e:    901c        ..      STR      r0,[sp,#0x70]
        0x0001ab90:    202d        -       MOVS     r0,#0x2d
        0x0001ab92:    7008        .p      STRB     r0,[r1,#0]
        0x0001ab94:    e7ff        ..      B        0x1ab96 ; am_util_stdio_vsprintf + 1362
        0x0001ab96:    9814        ..      LDR      r0,[sp,#0x50]
        0x0001ab98:    3001        .0      ADDS     r0,#1
        0x0001ab9a:    9014        ..      STR      r0,[sp,#0x50]
        0x0001ab9c:    e7ff        ..      B        0x1ab9e ; am_util_stdio_vsprintf + 1370
        0x0001ab9e:    e7ff        ..      B        0x1aba0 ; am_util_stdio_vsprintf + 1372
        0x0001aba0:    9818        ..      LDR      r0,[sp,#0x60]
        0x0001aba2:    9919        ..      LDR      r1,[sp,#0x64]
        0x0001aba4:    9a1c        ..      LDR      r2,[sp,#0x70]
        0x0001aba6:    f001fc8b    ....    BL       uint64_to_str ; 0x1c4c0
        0x0001abaa:    9012        ..      STR      r0,[sp,#0x48]
        0x0001abac:    981c        ..      LDR      r0,[sp,#0x70]
        0x0001abae:    b128        (.      CBZ      r0,0x1abbc ; am_util_stdio_vsprintf + 1400
        0x0001abb0:    e7ff        ..      B        0x1abb2 ; am_util_stdio_vsprintf + 1390
        0x0001abb2:    9912        ..      LDR      r1,[sp,#0x48]
        0x0001abb4:    981c        ..      LDR      r0,[sp,#0x70]
        0x0001abb6:    4408        .D      ADD      r0,r0,r1
        0x0001abb8:    901c        ..      STR      r0,[sp,#0x70]
        0x0001abba:    e7ff        ..      B        0x1abbc ; am_util_stdio_vsprintf + 1400
        0x0001abbc:    9912        ..      LDR      r1,[sp,#0x48]
        0x0001abbe:    9814        ..      LDR      r0,[sp,#0x50]
        0x0001abc0:    4408        .D      ADD      r0,r0,r1
        0x0001abc2:    9014        ..      STR      r0,[sp,#0x50]
        0x0001abc4:    e059        Y.      B        0x1ac7a ; am_util_stdio_vsprintf + 1590
        0x0001abc6:    981c        ..      LDR      r0,[sp,#0x70]
        0x0001abc8:    2800        .(      CMP      r0,#0
        0x0001abca:    d047        G.      BEQ      0x1ac5c ; am_util_stdio_vsprintf + 1560
        0x0001abcc:    e7ff        ..      B        0x1abce ; am_util_stdio_vsprintf + 1418
        0x0001abce:    981d        ..      LDR      r0,[sp,#0x74]
        0x0001abd0:    3007        .0      ADDS     r0,#7
        0x0001abd2:    f0200007     ...    BIC      r0,r0,#7
        0x0001abd6:    f1000108    ....    ADD      r1,r0,#8
        0x0001abda:    911d        ..      STR      r1,[sp,#0x74]
        0x0001abdc:    ed900b00    ....    VLDR     d0,[r0,#0]
        0x0001abe0:    ec510b10    Q...    VMOV     r0,r1,d0
        0x0001abe4:    f001fd08    ....    BL       __aeabi_d2f ; 0x1c5f8
        0x0001abe8:    900d        ..      STR      r0,[sp,#0x34]
        0x0001abea:    991c        ..      LDR      r1,[sp,#0x70]
        0x0001abec:    2014        .       MOVS     r0,#0x14
        0x0001abee:    6008        .`      STR      r0,[r1,#0]
        0x0001abf0:    ed9d0a0d    ....    VLDR     s0,[sp,#0x34]
        0x0001abf4:    981c        ..      LDR      r0,[sp,#0x70]
        0x0001abf6:    9911        ..      LDR      r1,[sp,#0x44]
        0x0001abf8:    f000f9c0    ....    BL       ftoa ; 0x1af7c
        0x0001abfc:    9012        ..      STR      r0,[sp,#0x48]
        0x0001abfe:    9812        ..      LDR      r0,[sp,#0x48]
        0x0001ac00:    f1b03fff    ...?    CMP      r0,#0xffffffff
        0x0001ac04:    dc21        !.      BGT      0x1ac4a ; am_util_stdio_vsprintf + 1542
        0x0001ac06:    e7ff        ..      B        0x1ac08 ; am_util_stdio_vsprintf + 1476
        0x0001ac08:    9812        ..      LDR      r0,[sp,#0x48]
        0x0001ac0a:    3001        .0      ADDS     r0,#1
        0x0001ac0c:    b930        0.      CBNZ     r0,0x1ac1c ; am_util_stdio_vsprintf + 1496
        0x0001ac0e:    e7ff        ..      B        0x1ac10 ; am_util_stdio_vsprintf + 1484
        0x0001ac10:    f6426030    B.0`    MOV      r0,#0x2e30
        0x0001ac14:    f2c00030    ..0.    MOVT     r0,#0x30
        0x0001ac18:    900c        ..      STR      r0,[sp,#0x30]
        0x0001ac1a:    e010        ..      B        0x1ac3e ; am_util_stdio_vsprintf + 1530
        0x0001ac1c:    9812        ..      LDR      r0,[sp,#0x48]
        0x0001ac1e:    3002        .0      ADDS     r0,#2
        0x0001ac20:    b930        0.      CBNZ     r0,0x1ac30 ; am_util_stdio_vsprintf + 1516
        0x0001ac22:    e7ff        ..      B        0x1ac24 ; am_util_stdio_vsprintf + 1504
        0x0001ac24:    f6426023    B.#`    MOV      r0,#0x2e23
        0x0001ac28:    f2c00023    ..#.    MOVT     r0,#0x23
        0x0001ac2c:    900c        ..      STR      r0,[sp,#0x30]
        0x0001ac2e:    e005        ..      B        0x1ac3c ; am_util_stdio_vsprintf + 1528
        0x0001ac30:    f642603f    B.?`    MOV      r0,#0x2e3f
        0x0001ac34:    f2c0003f    ..?.    MOVT     r0,#0x3f
        0x0001ac38:    900c        ..      STR      r0,[sp,#0x30]
        0x0001ac3a:    e7ff        ..      B        0x1ac3c ; am_util_stdio_vsprintf + 1528
        0x0001ac3c:    e7ff        ..      B        0x1ac3e ; am_util_stdio_vsprintf + 1530
        0x0001ac3e:    980c        ..      LDR      r0,[sp,#0x30]
        0x0001ac40:    991c        ..      LDR      r1,[sp,#0x70]
        0x0001ac42:    6008        .`      STR      r0,[r1,#0]
        0x0001ac44:    2003        .       MOVS     r0,#3
        0x0001ac46:    9012        ..      STR      r0,[sp,#0x48]
        0x0001ac48:    e7ff        ..      B        0x1ac4a ; am_util_stdio_vsprintf + 1542
        0x0001ac4a:    9912        ..      LDR      r1,[sp,#0x48]
        0x0001ac4c:    9814        ..      LDR      r0,[sp,#0x50]
        0x0001ac4e:    4408        .D      ADD      r0,r0,r1
        0x0001ac50:    9014        ..      STR      r0,[sp,#0x50]
        0x0001ac52:    9912        ..      LDR      r1,[sp,#0x48]
        0x0001ac54:    981c        ..      LDR      r0,[sp,#0x70]
        0x0001ac56:    4408        .D      ADD      r0,r0,r1
        0x0001ac58:    901c        ..      STR      r0,[sp,#0x70]
        0x0001ac5a:    e7ff        ..      B        0x1ac5c ; am_util_stdio_vsprintf + 1560
        0x0001ac5c:    e00d        ..      B        0x1ac7a ; am_util_stdio_vsprintf + 1590
        0x0001ac5e:    981c        ..      LDR      r0,[sp,#0x70]
        0x0001ac60:    b138        8.      CBZ      r0,0x1ac72 ; am_util_stdio_vsprintf + 1582
        0x0001ac62:    e7ff        ..      B        0x1ac64 ; am_util_stdio_vsprintf + 1568
        0x0001ac64:    981b        ..      LDR      r0,[sp,#0x6c]
        0x0001ac66:    7800        .x      LDRB     r0,[r0,#0]
        0x0001ac68:    991c        ..      LDR      r1,[sp,#0x70]
        0x0001ac6a:    1c4a        J.      ADDS     r2,r1,#1
        0x0001ac6c:    921c        ..      STR      r2,[sp,#0x70]
        0x0001ac6e:    7008        .p      STRB     r0,[r1,#0]
        0x0001ac70:    e7ff        ..      B        0x1ac72 ; am_util_stdio_vsprintf + 1582
        0x0001ac72:    9814        ..      LDR      r0,[sp,#0x50]
        0x0001ac74:    3001        .0      ADDS     r0,#1
        0x0001ac76:    9014        ..      STR      r0,[sp,#0x50]
        0x0001ac78:    e7ff        ..      B        0x1ac7a ; am_util_stdio_vsprintf + 1590
        0x0001ac7a:    981b        ..      LDR      r0,[sp,#0x6c]
        0x0001ac7c:    3001        .0      ADDS     r0,#1
        0x0001ac7e:    901b        ..      STR      r0,[sp,#0x6c]
        0x0001ac80:    f7ffbce9    ....    B.W      0x1a656 ; am_util_stdio_vsprintf + 18
        0x0001ac84:    981c        ..      LDR      r0,[sp,#0x70]
        0x0001ac86:    b120         .      CBZ      r0,0x1ac92 ; am_util_stdio_vsprintf + 1614
        0x0001ac88:    e7ff        ..      B        0x1ac8a ; am_util_stdio_vsprintf + 1606
        0x0001ac8a:    991c        ..      LDR      r1,[sp,#0x70]
        0x0001ac8c:    2000        .       MOVS     r0,#0
        0x0001ac8e:    7008        .p      STRB     r0,[r1,#0]
        0x0001ac90:    e7ff        ..      B        0x1ac92 ; am_util_stdio_vsprintf + 1614
        0x0001ac92:    9814        ..      LDR      r0,[sp,#0x50]
        0x0001ac94:    b01e        ..      ADD      sp,sp,#0x78
        0x0001ac96:    bd80        ..      POP      {r7,pc}
    buck_ldo_update_override
        0x0001ac98:    2160        `!      MOVS     r1,#0x60
        0x0001ac9a:    f2c40102    ....    MOVT     r1,#0x4002
        0x0001ac9e:    680a        .h      LDR      r2,[r1,#0]
        0x0001aca0:    f4223280    "..2    BIC      r2,r2,#0x10000
        0x0001aca4:    f3604210    `..B    BFI      r2,r0,#16,#1
        0x0001aca8:    600a        .`      STR      r2,[r1,#0]
        0x0001acaa:    680a        .h      LDR      r2,[r1,#0]
        0x0001acac:    f0220201    "...    BIC      r2,r2,#1
        0x0001acb0:    4402        .D      ADD      r2,r2,r0
        0x0001acb2:    600a        .`      STR      r2,[r1,#0]
        0x0001acb4:    680a        .h      LDR      r2,[r1,#0]
        0x0001acb6:    f0220220    ". .    BIC      r2,r2,#0x20
        0x0001acba:    f3601245    `.E.    BFI      r2,r0,#5,#1
        0x0001acbe:    600a        .`      STR      r2,[r1,#0]
        0x0001acc0:    4770        pG      BX       lr
        0x0001acc2:    0000        ..      MOVS     r0,r0
    clear_rx_buf
        0x0001acc4:    b081        ..      SUB      sp,sp,#4
        0x0001acc6:    2000        .       MOVS     r0,#0
        0x0001acc8:    9000        ..      STR      r0,[sp,#0]
        0x0001acca:    e7ff        ..      B        0x1accc ; clear_rx_buf + 8
        0x0001accc:    9900        ..      LDR      r1,[sp,#0]
        0x0001acce:    2000        .       MOVS     r0,#0
        0x0001acd0:    ebb02f91    .../    CMP      r0,r1,LSR #10
        0x0001acd4:    d10c        ..      BNE      0x1acf0 ; clear_rx_buf + 44
        0x0001acd6:    e7ff        ..      B        0x1acd8 ; clear_rx_buf + 20
        0x0001acd8:    9a00        ..      LDR      r2,[sp,#0]
        0x0001acda:    f64441e0    D..A    MOV      r1,#0x4ce0
        0x0001acde:    f2c10100    ....    MOVT     r1,#0x1000
        0x0001ace2:    20ee        .       MOVS     r0,#0xee
        0x0001ace4:    5488        .T      STRB     r0,[r1,r2]
        0x0001ace6:    e7ff        ..      B        0x1ace8 ; clear_rx_buf + 36
        0x0001ace8:    9800        ..      LDR      r0,[sp,#0]
        0x0001acea:    3001        .0      ADDS     r0,#1
        0x0001acec:    9000        ..      STR      r0,[sp,#0]
        0x0001acee:    e7ed        ..      B        0x1accc ; clear_rx_buf + 8
        0x0001acf0:    b001        ..      ADD      sp,sp,#4
        0x0001acf2:    4770        pG      BX       lr
    crypto_boost_trims
        0x0001acf4:    e92d43f0    -..C    PUSH     {r4-r9,lr}
        0x0001acf8:    b081        ..      SUB      sp,sp,#4
        0x0001acfa:    f2401968    @.h.    MOVW     r9,#0x168
        0x0001acfe:    f2c10900    ....    MOVT     r9,#0x1000
        0x0001ad02:    f8992000    ...     LDRB     r2,[r9,#0]
        0x0001ad06:    4604        .F      MOV      r4,r0
        0x0001ad08:    fab2f082    ....    CLZ      r0,r2
        0x0001ad0c:    0940        @.      LSRS     r0,r0,#5
        0x0001ad0e:    4060        `@      EORS     r0,r0,r4
        0x0001ad10:    bf1c        ..      ITT      NE
        0x0001ad12:    b001        ..      ADDNE    sp,sp,#4
        0x0001ad14:    e8bd83f0    ....    POPNE    {r4-r9,pc}
        0x0001ad18:    f2400888    @...    MOVW     r8,#0x88
        0x0001ad1c:    460d        .F      MOV      r5,r1
        0x0001ad1e:    f2c40802    ....    MOVT     r8,#0x4002
        0x0001ad22:    f7fefae9    ....    BL       am_hal_interrupt_master_disable ; 0x192f8
        0x0001ad26:    9000        ..      STR      r0,[sp,#0]
        0x0001ad28:    f8894000    ...@    STRB     r4,[r9,#0]
        0x0001ad2c:    2c00        .,      CMP      r4,#0
        0x0001ad2e:    bf08        ..      IT       EQ
        0x0001ad30:    426d        mB      RSBEQ    r5,r5,#0
        0x0001ad32:    e9d90101    ....    LDRD     r0,r1,[r9,#4]
        0x0001ad36:    223f        ?"      MOVS     r2,#0x3f
        0x0001ad38:    4428        (D      ADD      r0,r0,r5
        0x0001ad3a:    283f        ?(      CMP      r0,#0x3f
        0x0001ad3c:    bf38        8.      IT       CC
        0x0001ad3e:    4602        .F      MOVCC    r2,r0
        0x0001ad40:    0517        ..      LSLS     r7,r2,#20
        0x0001ad42:    2800        .(      CMP      r0,#0
        0x0001ad44:    4429        )D      ADD      r1,r1,r5
        0x0001ad46:    f04f063f    O.?.    MOV      r6,#0x3f
        0x0001ad4a:    bf48        H.      IT       MI
        0x0001ad4c:    2700        .'      MOVMI    r7,#0
        0x0001ad4e:    293f        ?)      CMP      r1,#0x3f
        0x0001ad50:    f8c90004    ....    STR      r0,[r9,#4]
        0x0001ad54:    bf38        8.      IT       CC
        0x0001ad56:    460e        .F      MOVCC    r6,r1
        0x0001ad58:    2900        .)      CMP      r1,#0
        0x0001ad5a:    bf48        H.      IT       MI
        0x0001ad5c:    2600        .&      MOVMI    r6,#0
        0x0001ad5e:    f8c91008    ....    STR      r1,[r9,#8]
        0x0001ad62:    b18c        ..      CBZ      r4,0x1ad88 ; crypto_boost_trims + 148
        0x0001ad64:    f8d802e4    ....    LDR      r0,[r8,#0x2e4]
        0x0001ad68:    f020707c     .|p    BIC      r0,r0,#0x3f00000
        0x0001ad6c:    4338        8C      ORRS     r0,r0,r7
        0x0001ad6e:    f8c802e4    ....    STR      r0,[r8,#0x2e4]
        0x0001ad72:    2014        .       MOVS     r0,#0x14
        0x0001ad74:    f7fdff4c    ..L.    BL       am_hal_delay_us ; 0x18c10
        0x0001ad78:    f8d80000    ....    LDR      r0,[r8,#0]
        0x0001ad7c:    f020003f     .?.    BIC      r0,r0,#0x3f
        0x0001ad80:    4330        0C      ORRS     r0,r0,r6
        0x0001ad82:    f8c80000    ....    STR      r0,[r8,#0]
        0x0001ad86:    e010        ..      B        0x1adaa ; crypto_boost_trims + 182
        0x0001ad88:    f8d80000    ....    LDR      r0,[r8,#0]
        0x0001ad8c:    f020003f     .?.    BIC      r0,r0,#0x3f
        0x0001ad90:    4330        0C      ORRS     r0,r0,r6
        0x0001ad92:    f8c80000    ....    STR      r0,[r8,#0]
        0x0001ad96:    2014        .       MOVS     r0,#0x14
        0x0001ad98:    f7fdff3a    ..:.    BL       am_hal_delay_us ; 0x18c10
        0x0001ad9c:    f8d802e4    ....    LDR      r0,[r8,#0x2e4]
        0x0001ada0:    f020707c     .|p    BIC      r0,r0,#0x3f00000
        0x0001ada4:    4338        8C      ORRS     r0,r0,r7
        0x0001ada6:    f8c802e4    ....    STR      r0,[r8,#0x2e4]
        0x0001adaa:    9800        ..      LDR      r0,[sp,#0]
        0x0001adac:    f7fefaac    ....    BL       am_hal_interrupt_master_set ; 0x19308
        0x0001adb0:    2014        .       MOVS     r0,#0x14
        0x0001adb2:    b001        ..      ADD      sp,sp,#4
        0x0001adb4:    e8bd43f0    ...C    POP      {r4-r9,lr}
        0x0001adb8:    f7fdbf2a    ..*.    B        am_hal_delay_us ; 0x18c10
    decstr_to_int
        0x0001adbc:    b087        ..      SUB      sp,sp,#0x1c
        0x0001adbe:    9006        ..      STR      r0,[sp,#0x18]
        0x0001adc0:    9105        ..      STR      r1,[sp,#0x14]
        0x0001adc2:    2000        .       MOVS     r0,#0
        0x0001adc4:    f88d0013    ....    STRB     r0,[sp,#0x13]
        0x0001adc8:    9003        ..      STR      r0,[sp,#0xc]
        0x0001adca:    9002        ..      STR      r0,[sp,#8]
        0x0001adcc:    9806        ..      LDR      r0,[sp,#0x18]
        0x0001adce:    7800        .x      LDRB     r0,[r0,#0]
        0x0001add0:    282d        -(      CMP      r0,#0x2d
        0x0001add2:    d10a        ..      BNE      0x1adea ; decstr_to_int + 46
        0x0001add4:    e7ff        ..      B        0x1add6 ; decstr_to_int + 26
        0x0001add6:    2001        .       MOVS     r0,#1
        0x0001add8:    f88d0013    ....    STRB     r0,[sp,#0x13]
        0x0001addc:    9806        ..      LDR      r0,[sp,#0x18]
        0x0001adde:    3001        .0      ADDS     r0,#1
        0x0001ade0:    9006        ..      STR      r0,[sp,#0x18]
        0x0001ade2:    9802        ..      LDR      r0,[sp,#8]
        0x0001ade4:    3001        .0      ADDS     r0,#1
        0x0001ade6:    9002        ..      STR      r0,[sp,#8]
        0x0001ade8:    e7ff        ..      B        0x1adea ; decstr_to_int + 46
        0x0001adea:    e7ff        ..      B        0x1adec ; decstr_to_int + 48
        0x0001adec:    9806        ..      LDR      r0,[sp,#0x18]
        0x0001adee:    7801        .x      LDRB     r1,[r0,#0]
        0x0001adf0:    2000        .       MOVS     r0,#0
        0x0001adf2:    2930        0)      CMP      r1,#0x30
        0x0001adf4:    9001        ..      STR      r0,[sp,#4]
        0x0001adf6:    db08        ..      BLT      0x1ae0a ; decstr_to_int + 78
        0x0001adf8:    e7ff        ..      B        0x1adfa ; decstr_to_int + 62
        0x0001adfa:    9806        ..      LDR      r0,[sp,#0x18]
        0x0001adfc:    7801        .x      LDRB     r1,[r0,#0]
        0x0001adfe:    2000        .       MOVS     r0,#0
        0x0001ae00:    293a        :)      CMP      r1,#0x3a
        0x0001ae02:    bfb8        ..      IT       LT
        0x0001ae04:    2001        .       MOVLT    r0,#1
        0x0001ae06:    9001        ..      STR      r0,[sp,#4]
        0x0001ae08:    e7ff        ..      B        0x1ae0a ; decstr_to_int + 78
        0x0001ae0a:    9801        ..      LDR      r0,[sp,#4]
        0x0001ae0c:    07c0        ..      LSLS     r0,r0,#31
        0x0001ae0e:    b190        ..      CBZ      r0,0x1ae36 ; decstr_to_int + 122
        0x0001ae10:    e7ff        ..      B        0x1ae12 ; decstr_to_int + 86
        0x0001ae12:    9802        ..      LDR      r0,[sp,#8]
        0x0001ae14:    3001        .0      ADDS     r0,#1
        0x0001ae16:    9002        ..      STR      r0,[sp,#8]
        0x0001ae18:    9803        ..      LDR      r0,[sp,#0xc]
        0x0001ae1a:    eb000080    ....    ADD      r0,r0,r0,LSL #2
        0x0001ae1e:    0040        @.      LSLS     r0,r0,#1
        0x0001ae20:    9003        ..      STR      r0,[sp,#0xc]
        0x0001ae22:    9806        ..      LDR      r0,[sp,#0x18]
        0x0001ae24:    7800        .x      LDRB     r0,[r0,#0]
        0x0001ae26:    9903        ..      LDR      r1,[sp,#0xc]
        0x0001ae28:    4408        .D      ADD      r0,r0,r1
        0x0001ae2a:    3830        08      SUBS     r0,r0,#0x30
        0x0001ae2c:    9003        ..      STR      r0,[sp,#0xc]
        0x0001ae2e:    9806        ..      LDR      r0,[sp,#0x18]
        0x0001ae30:    3001        .0      ADDS     r0,#1
        0x0001ae32:    9006        ..      STR      r0,[sp,#0x18]
        0x0001ae34:    e7da        ..      B        0x1adec ; decstr_to_int + 48
        0x0001ae36:    9805        ..      LDR      r0,[sp,#0x14]
        0x0001ae38:    b120         .      CBZ      r0,0x1ae44 ; decstr_to_int + 136
        0x0001ae3a:    e7ff        ..      B        0x1ae3c ; decstr_to_int + 128
        0x0001ae3c:    9802        ..      LDR      r0,[sp,#8]
        0x0001ae3e:    9905        ..      LDR      r1,[sp,#0x14]
        0x0001ae40:    6008        .`      STR      r0,[r1,#0]
        0x0001ae42:    e7ff        ..      B        0x1ae44 ; decstr_to_int + 136
        0x0001ae44:    f89d0013    ....    LDRB     r0,[sp,#0x13]
        0x0001ae48:    07c0        ..      LSLS     r0,r0,#31
        0x0001ae4a:    b120         .      CBZ      r0,0x1ae56 ; decstr_to_int + 154
        0x0001ae4c:    e7ff        ..      B        0x1ae4e ; decstr_to_int + 146
        0x0001ae4e:    9803        ..      LDR      r0,[sp,#0xc]
        0x0001ae50:    4240        @B      RSBS     r0,r0,#0
        0x0001ae52:    9000        ..      STR      r0,[sp,#0]
        0x0001ae54:    e002        ..      B        0x1ae5c ; decstr_to_int + 160
        0x0001ae56:    9803        ..      LDR      r0,[sp,#0xc]
        0x0001ae58:    9000        ..      STR      r0,[sp,#0]
        0x0001ae5a:    e7ff        ..      B        0x1ae5c ; decstr_to_int + 160
        0x0001ae5c:    9800        ..      LDR      r0,[sp,#0]
        0x0001ae5e:    b007        ..      ADD      sp,sp,#0x1c
        0x0001ae60:    4770        pG      BX       lr
        0x0001ae62:    0000        ..      MOVS     r0,r0
    divu64_10
        0x0001ae64:    b08c        ..      SUB      sp,sp,#0x30
        0x0001ae66:    9109        ..      STR      r1,[sp,#0x24]
        0x0001ae68:    9008        ..      STR      r0,[sp,#0x20]
        0x0001ae6a:    9809        ..      LDR      r0,[sp,#0x24]
        0x0001ae6c:    2800        .(      CMP      r0,#0
        0x0001ae6e:    d05b        [.      BEQ      0x1af28 ; divu64_10 + 196
        0x0001ae70:    e7ff        ..      B        0x1ae72 ; divu64_10 + 14
        0x0001ae72:    9b08        ..      LDR      r3,[sp,#0x20]
        0x0001ae74:    9a09        ..      LDR      r2,[sp,#0x24]
        0x0001ae76:    ea5f0052    _.R.    LSRS.W   r0,r2,#1
        0x0001ae7a:    ea4f0133    O.3.    RRX      r1,r3
        0x0001ae7e:    089b        ..      LSRS     r3,r3,#2
        0x0001ae80:    ea437382    C..s    ORR      r3,r3,r2,LSL #30
        0x0001ae84:    18c9        ..      ADDS     r1,r1,r3
        0x0001ae86:    eb400092    @...    ADC      r0,r0,r2,LSR #2
        0x0001ae8a:    9106        ..      STR      r1,[sp,#0x18]
        0x0001ae8c:    9007        ..      STR      r0,[sp,#0x1c]
        0x0001ae8e:    9906        ..      LDR      r1,[sp,#0x18]
        0x0001ae90:    9807        ..      LDR      r0,[sp,#0x1c]
        0x0001ae92:    090a        ..      LSRS     r2,r1,#4
        0x0001ae94:    ea427200    B..r    ORR      r2,r2,r0,LSL #28
        0x0001ae98:    1889        ..      ADDS     r1,r1,r2
        0x0001ae9a:    eb401010    @...    ADC      r0,r0,r0,LSR #4
        0x0001ae9e:    9106        ..      STR      r1,[sp,#0x18]
        0x0001aea0:    9007        ..      STR      r0,[sp,#0x1c]
        0x0001aea2:    9906        ..      LDR      r1,[sp,#0x18]
        0x0001aea4:    9807        ..      LDR      r0,[sp,#0x1c]
        0x0001aea6:    0a0a        ..      LSRS     r2,r1,#8
        0x0001aea8:    ea426200    B..b    ORR      r2,r2,r0,LSL #24
        0x0001aeac:    1889        ..      ADDS     r1,r1,r2
        0x0001aeae:    eb402010    @..     ADC      r0,r0,r0,LSR #8
        0x0001aeb2:    9106        ..      STR      r1,[sp,#0x18]
        0x0001aeb4:    9007        ..      STR      r0,[sp,#0x1c]
        0x0001aeb6:    9906        ..      LDR      r1,[sp,#0x18]
        0x0001aeb8:    9807        ..      LDR      r0,[sp,#0x1c]
        0x0001aeba:    0c0a        ..      LSRS     r2,r1,#16
        0x0001aebc:    ea424200    B..B    ORR      r2,r2,r0,LSL #16
        0x0001aec0:    1889        ..      ADDS     r1,r1,r2
        0x0001aec2:    eb404010    @..@    ADC      r0,r0,r0,LSR #16
        0x0001aec6:    9106        ..      STR      r1,[sp,#0x18]
        0x0001aec8:    9007        ..      STR      r0,[sp,#0x1c]
        0x0001aeca:    9906        ..      LDR      r1,[sp,#0x18]
        0x0001aecc:    9807        ..      LDR      r0,[sp,#0x1c]
        0x0001aece:    1809        ..      ADDS     r1,r1,r0
        0x0001aed0:    f1400000    @...    ADC      r0,r0,#0
        0x0001aed4:    9106        ..      STR      r1,[sp,#0x18]
        0x0001aed6:    9007        ..      STR      r0,[sp,#0x1c]
        0x0001aed8:    9806        ..      LDR      r0,[sp,#0x18]
        0x0001aeda:    9907        ..      LDR      r1,[sp,#0x1c]
        0x0001aedc:    08c0        ..      LSRS     r0,r0,#3
        0x0001aede:    ea407041    @.Ap    ORR      r0,r0,r1,LSL #29
        0x0001aee2:    08c9        ..      LSRS     r1,r1,#3
        0x0001aee4:    9107        ..      STR      r1,[sp,#0x1c]
        0x0001aee6:    9006        ..      STR      r0,[sp,#0x18]
        0x0001aee8:    9908        ..      LDR      r1,[sp,#0x20]
        0x0001aeea:    9809        ..      LDR      r0,[sp,#0x24]
        0x0001aeec:    9a06        ..      LDR      r2,[sp,#0x18]
        0x0001aeee:    f8ddc01c    ....    LDR      r12,[sp,#0x1c]
        0x0001aef2:    230a        .#      MOVS     r3,#0xa
        0x0001aef4:    fba23203    ...2    UMULL    r3,r2,r2,r3
        0x0001aef8:    eb0c0c8c    ....    ADD      r12,r12,r12,LSL #2
        0x0001aefc:    eb02024c    ..L.    ADD      r2,r2,r12,LSL #1
        0x0001af00:    1ac9        ..      SUBS     r1,r1,r3
        0x0001af02:    4190        .A      SBCS     r0,r0,r2
        0x0001af04:    9104        ..      STR      r1,[sp,#0x10]
        0x0001af06:    9005        ..      STR      r0,[sp,#0x14]
        0x0001af08:    9906        ..      LDR      r1,[sp,#0x18]
        0x0001af0a:    9807        ..      LDR      r0,[sp,#0x1c]
        0x0001af0c:    9b04        ..      LDR      r3,[sp,#0x10]
        0x0001af0e:    9a05        ..      LDR      r2,[sp,#0x14]
        0x0001af10:    3306        .3      ADDS     r3,#6
        0x0001af12:    f1420200    B...    ADC      r2,r2,#0
        0x0001af16:    091b        ..      LSRS     r3,r3,#4
        0x0001af18:    ea437302    C..s    ORR      r3,r3,r2,LSL #28
        0x0001af1c:    18c9        ..      ADDS     r1,r1,r3
        0x0001af1e:    eb401012    @...    ADC      r0,r0,r2,LSR #4
        0x0001af22:    910a        ..      STR      r1,[sp,#0x28]
        0x0001af24:    900b        ..      STR      r0,[sp,#0x2c]
        0x0001af26:    e025        %.      B        0x1af74 ; divu64_10 + 272
        0x0001af28:    9808        ..      LDR      r0,[sp,#0x20]
        0x0001af2a:    9001        ..      STR      r0,[sp,#4]
        0x0001af2c:    9901        ..      LDR      r1,[sp,#4]
        0x0001af2e:    0848        H.      LSRS     r0,r1,#1
        0x0001af30:    eb000091    ....    ADD      r0,r0,r1,LSR #2
        0x0001af34:    9003        ..      STR      r0,[sp,#0xc]
        0x0001af36:    9803        ..      LDR      r0,[sp,#0xc]
        0x0001af38:    eb001010    ....    ADD      r0,r0,r0,LSR #4
        0x0001af3c:    9003        ..      STR      r0,[sp,#0xc]
        0x0001af3e:    9803        ..      LDR      r0,[sp,#0xc]
        0x0001af40:    eb002010    ...     ADD      r0,r0,r0,LSR #8
        0x0001af44:    9003        ..      STR      r0,[sp,#0xc]
        0x0001af46:    9803        ..      LDR      r0,[sp,#0xc]
        0x0001af48:    eb004010    ...@    ADD      r0,r0,r0,LSR #16
        0x0001af4c:    9003        ..      STR      r0,[sp,#0xc]
        0x0001af4e:    9803        ..      LDR      r0,[sp,#0xc]
        0x0001af50:    08c0        ..      LSRS     r0,r0,#3
        0x0001af52:    9003        ..      STR      r0,[sp,#0xc]
        0x0001af54:    9801        ..      LDR      r0,[sp,#4]
        0x0001af56:    9903        ..      LDR      r1,[sp,#0xc]
        0x0001af58:    eb010181    ....    ADD      r1,r1,r1,LSL #2
        0x0001af5c:    eba00041    ..A.    SUB      r0,r0,r1,LSL #1
        0x0001af60:    9002        ..      STR      r0,[sp,#8]
        0x0001af62:    9803        ..      LDR      r0,[sp,#0xc]
        0x0001af64:    9902        ..      LDR      r1,[sp,#8]
        0x0001af66:    3106        .1      ADDS     r1,#6
        0x0001af68:    eb001011    ....    ADD      r0,r0,r1,LSR #4
        0x0001af6c:    2100        .!      MOVS     r1,#0
        0x0001af6e:    910b        ..      STR      r1,[sp,#0x2c]
        0x0001af70:    900a        ..      STR      r0,[sp,#0x28]
        0x0001af72:    e7ff        ..      B        0x1af74 ; divu64_10 + 272
        0x0001af74:    980a        ..      LDR      r0,[sp,#0x28]
        0x0001af76:    990b        ..      LDR      r1,[sp,#0x2c]
        0x0001af78:    b00c        ..      ADD      sp,sp,#0x30
        0x0001af7a:    4770        pG      BX       lr
    ftoa
        0x0001af7c:    b580        ..      PUSH     {r7,lr}
        0x0001af7e:    b090        ..      SUB      sp,sp,#0x40
        0x0001af80:    ed8d0a0e    ....    VSTR     s0,[sp,#0x38]
        0x0001af84:    900d        ..      STR      r0,[sp,#0x34]
        0x0001af86:    910c        ..      STR      r1,[sp,#0x30]
        0x0001af88:    980d        ..      LDR      r0,[sp,#0x34]
        0x0001af8a:    6800        .h      LDR      r0,[r0,#0]
        0x0001af8c:    9009        ..      STR      r0,[sp,#0x24]
        0x0001af8e:    9809        ..      LDR      r0,[sp,#0x24]
        0x0001af90:    2803        .(      CMP      r0,#3
        0x0001af92:    dc04        ..      BGT      0x1af9e ; ftoa + 34
        0x0001af94:    e7ff        ..      B        0x1af96 ; ftoa + 26
        0x0001af96:    f06f0002    o...    MVN      r0,#2
        0x0001af9a:    900f        ..      STR      r0,[sp,#0x3c]
        0x0001af9c:    e103        ..      B        0x1b1a6 ; ftoa + 554
        0x0001af9e:    ed9d0a0e    ....    VLDR     s0,[sp,#0x38]
        0x0001afa2:    eeb50a40    ..@.    VCMP.F32 s0,#0.0
        0x0001afa6:    eef1fa10    ....    VMRS     APSR_nzcv,FPSCR
        0x0001afaa:    d109        ..      BNE      0x1afc0 ; ftoa + 68
        0x0001afac:    e7ff        ..      B        0x1afae ; ftoa + 50
        0x0001afae:    990d        ..      LDR      r1,[sp,#0x34]
        0x0001afb0:    f6426030    B.0`    MOV      r0,#0x2e30
        0x0001afb4:    f2c00030    ..0.    MOVT     r0,#0x30
        0x0001afb8:    6008        .`      STR      r0,[r1,#0]
        0x0001afba:    2003        .       MOVS     r0,#3
        0x0001afbc:    900f        ..      STR      r0,[sp,#0x3c]
        0x0001afbe:    e0f2        ..      B        0x1b1a6 ; ftoa + 554
        0x0001afc0:    980d        ..      LDR      r0,[sp,#0x34]
        0x0001afc2:    9005        ..      STR      r0,[sp,#0x14]
        0x0001afc4:    980e        ..      LDR      r0,[sp,#0x38]
        0x0001afc6:    900b        ..      STR      r0,[sp,#0x2c]
        0x0001afc8:    980b        ..      LDR      r0,[sp,#0x2c]
        0x0001afca:    0dc1        ..      LSRS     r1,r0,#23
        0x0001afcc:    f06f007e    o.~.    MVN      r0,#0x7e
        0x0001afd0:    fa50f081    P...    UXTAB    r0,r0,r1
        0x0001afd4:    900a        ..      STR      r0,[sp,#0x28]
        0x0001afd6:    980b        ..      LDR      r0,[sp,#0x2c]
        0x0001afd8:    f4400000    @...    ORR      r0,r0,#0x800000
        0x0001afdc:    f020407f     ..@    BIC      r0,r0,#0xff000000
        0x0001afe0:    9008        ..      STR      r0,[sp,#0x20]
        0x0001afe2:    2000        .       MOVS     r0,#0
        0x0001afe4:    9006        ..      STR      r0,[sp,#0x18]
        0x0001afe6:    9007        ..      STR      r0,[sp,#0x1c]
        0x0001afe8:    980a        ..      LDR      r0,[sp,#0x28]
        0x0001afea:    281f        .(      CMP      r0,#0x1f
        0x0001afec:    db04        ..      BLT      0x1aff8 ; ftoa + 124
        0x0001afee:    e7ff        ..      B        0x1aff0 ; ftoa + 116
        0x0001aff0:    f06f0001    o...    MVN      r0,#1
        0x0001aff4:    900f        ..      STR      r0,[sp,#0x3c]
        0x0001aff6:    e0d6        ..      B        0x1b1a6 ; ftoa + 554
        0x0001aff8:    980a        ..      LDR      r0,[sp,#0x28]
        0x0001affa:    f1100f18    ....    CMN      r0,#0x18
        0x0001affe:    dc04        ..      BGT      0x1b00a ; ftoa + 142
        0x0001b000:    e7ff        ..      B        0x1b002 ; ftoa + 134
        0x0001b002:    f04f30ff    O..0    MOV      r0,#0xffffffff
        0x0001b006:    900f        ..      STR      r0,[sp,#0x3c]
        0x0001b008:    e0cd        ..      B        0x1b1a6 ; ftoa + 554
        0x0001b00a:    980a        ..      LDR      r0,[sp,#0x28]
        0x0001b00c:    2817        .(      CMP      r0,#0x17
        0x0001b00e:    db06        ..      BLT      0x1b01e ; ftoa + 162
        0x0001b010:    e7ff        ..      B        0x1b012 ; ftoa + 150
        0x0001b012:    9808        ..      LDR      r0,[sp,#0x20]
        0x0001b014:    990a        ..      LDR      r1,[sp,#0x28]
        0x0001b016:    3917        .9      SUBS     r1,r1,#0x17
        0x0001b018:    4088        .@      LSLS     r0,r0,r1
        0x0001b01a:    9007        ..      STR      r0,[sp,#0x1c]
        0x0001b01c:    e01a        ..      B        0x1b054 ; ftoa + 216
        0x0001b01e:    980a        ..      LDR      r0,[sp,#0x28]
        0x0001b020:    2800        .(      CMP      r0,#0
        0x0001b022:    d40e        ..      BMI      0x1b042 ; ftoa + 198
        0x0001b024:    e7ff        ..      B        0x1b026 ; ftoa + 170
        0x0001b026:    9808        ..      LDR      r0,[sp,#0x20]
        0x0001b028:    990a        ..      LDR      r1,[sp,#0x28]
        0x0001b02a:    f1c10117    ....    RSB      r1,r1,#0x17
        0x0001b02e:    4108        .A      ASRS     r0,r0,r1
        0x0001b030:    9007        ..      STR      r0,[sp,#0x1c]
        0x0001b032:    9808        ..      LDR      r0,[sp,#0x20]
        0x0001b034:    990a        ..      LDR      r1,[sp,#0x28]
        0x0001b036:    3101        .1      ADDS     r1,#1
        0x0001b038:    4088        .@      LSLS     r0,r0,r1
        0x0001b03a:    f020407f     ..@    BIC      r0,r0,#0xff000000
        0x0001b03e:    9006        ..      STR      r0,[sp,#0x18]
        0x0001b040:    e007        ..      B        0x1b052 ; ftoa + 214
        0x0001b042:    9808        ..      LDR      r0,[sp,#0x20]
        0x0001b044:    f020407f     ..@    BIC      r0,r0,#0xff000000
        0x0001b048:    990a        ..      LDR      r1,[sp,#0x28]
        0x0001b04a:    43c9        .C      MVNS     r1,r1
        0x0001b04c:    40c8        .@      LSRS     r0,r0,r1
        0x0001b04e:    9006        ..      STR      r0,[sp,#0x18]
        0x0001b050:    e7ff        ..      B        0x1b052 ; ftoa + 214
        0x0001b052:    e7ff        ..      B        0x1b054 ; ftoa + 216
        0x0001b054:    e7ff        ..      B        0x1b056 ; ftoa + 218
        0x0001b056:    e7ff        ..      B        0x1b058 ; ftoa + 220
        0x0001b058:    980b        ..      LDR      r0,[sp,#0x2c]
        0x0001b05a:    f1b03fff    ...?    CMP      r0,#0xffffffff
        0x0001b05e:    dc06        ..      BGT      0x1b06e ; ftoa + 242
        0x0001b060:    e7ff        ..      B        0x1b062 ; ftoa + 230
        0x0001b062:    990d        ..      LDR      r1,[sp,#0x34]
        0x0001b064:    1c48        H.      ADDS     r0,r1,#1
        0x0001b066:    900d        ..      STR      r0,[sp,#0x34]
        0x0001b068:    202d        -       MOVS     r0,#0x2d
        0x0001b06a:    7008        .p      STRB     r0,[r1,#0]
        0x0001b06c:    e7ff        ..      B        0x1b06e ; ftoa + 242
        0x0001b06e:    9807        ..      LDR      r0,[sp,#0x1c]
        0x0001b070:    b930        0.      CBNZ     r0,0x1b080 ; ftoa + 260
        0x0001b072:    e7ff        ..      B        0x1b074 ; ftoa + 248
        0x0001b074:    990d        ..      LDR      r1,[sp,#0x34]
        0x0001b076:    1c48        H.      ADDS     r0,r1,#1
        0x0001b078:    900d        ..      STR      r0,[sp,#0x34]
        0x0001b07a:    2030        0       MOVS     r0,#0x30
        0x0001b07c:    7008        .p      STRB     r0,[r1,#0]
        0x0001b07e:    e01f        ..      B        0x1b0c0 ; ftoa + 324
        0x0001b080:    9807        ..      LDR      r0,[sp,#0x1c]
        0x0001b082:    2801        .(      CMP      r0,#1
        0x0001b084:    db06        ..      BLT      0x1b094 ; ftoa + 280
        0x0001b086:    e7ff        ..      B        0x1b088 ; ftoa + 268
        0x0001b088:    9807        ..      LDR      r0,[sp,#0x1c]
        0x0001b08a:    17c1        ..      ASRS     r1,r0,#31
        0x0001b08c:    9a0d        ..      LDR      r2,[sp,#0x34]
        0x0001b08e:    f001fa17    ....    BL       uint64_to_str ; 0x1c4c0
        0x0001b092:    e00b        ..      B        0x1b0ac ; ftoa + 304
        0x0001b094:    990d        ..      LDR      r1,[sp,#0x34]
        0x0001b096:    1c48        H.      ADDS     r0,r1,#1
        0x0001b098:    900d        ..      STR      r0,[sp,#0x34]
        0x0001b09a:    202d        -       MOVS     r0,#0x2d
        0x0001b09c:    7008        .p      STRB     r0,[r1,#0]
        0x0001b09e:    9807        ..      LDR      r0,[sp,#0x1c]
        0x0001b0a0:    4240        @B      RSBS     r0,r0,#0
        0x0001b0a2:    17c1        ..      ASRS     r1,r0,#31
        0x0001b0a4:    9a0d        ..      LDR      r2,[sp,#0x34]
        0x0001b0a6:    f001fa0b    ....    BL       uint64_to_str ; 0x1c4c0
        0x0001b0aa:    e7ff        ..      B        0x1b0ac ; ftoa + 304
        0x0001b0ac:    e7ff        ..      B        0x1b0ae ; ftoa + 306
        0x0001b0ae:    980d        ..      LDR      r0,[sp,#0x34]
        0x0001b0b0:    7800        .x      LDRB     r0,[r0,#0]
        0x0001b0b2:    b120         .      CBZ      r0,0x1b0be ; ftoa + 322
        0x0001b0b4:    e7ff        ..      B        0x1b0b6 ; ftoa + 314
        0x0001b0b6:    980d        ..      LDR      r0,[sp,#0x34]
        0x0001b0b8:    3001        .0      ADDS     r0,#1
        0x0001b0ba:    900d        ..      STR      r0,[sp,#0x34]
        0x0001b0bc:    e7f7        ..      B        0x1b0ae ; ftoa + 306
        0x0001b0be:    e7ff        ..      B        0x1b0c0 ; ftoa + 324
        0x0001b0c0:    990d        ..      LDR      r1,[sp,#0x34]
        0x0001b0c2:    1c48        H.      ADDS     r0,r1,#1
        0x0001b0c4:    900d        ..      STR      r0,[sp,#0x34]
        0x0001b0c6:    202e        .       MOVS     r0,#0x2e
        0x0001b0c8:    7008        .p      STRB     r0,[r1,#0]
        0x0001b0ca:    9806        ..      LDR      r0,[sp,#0x18]
        0x0001b0cc:    b930        0.      CBNZ     r0,0x1b0dc ; ftoa + 352
        0x0001b0ce:    e7ff        ..      B        0x1b0d0 ; ftoa + 340
        0x0001b0d0:    990d        ..      LDR      r1,[sp,#0x34]
        0x0001b0d2:    1c48        H.      ADDS     r0,r1,#1
        0x0001b0d4:    900d        ..      STR      r0,[sp,#0x34]
        0x0001b0d6:    2030        0       MOVS     r0,#0x30
        0x0001b0d8:    7008        .p      STRB     r0,[r1,#0]
        0x0001b0da:    e05c        \.      B        0x1b196 ; ftoa + 538
        0x0001b0dc:    9909        ..      LDR      r1,[sp,#0x24]
        0x0001b0de:    980d        ..      LDR      r0,[sp,#0x34]
        0x0001b0e0:    9a05        ..      LDR      r2,[sp,#0x14]
        0x0001b0e2:    1a80        ..      SUBS     r0,r0,r2
        0x0001b0e4:    43c0        .C      MVNS     r0,r0
        0x0001b0e6:    4408        .D      ADD      r0,r0,r1
        0x0001b0e8:    9002        ..      STR      r0,[sp,#8]
        0x0001b0ea:    9802        ..      LDR      r0,[sp,#8]
        0x0001b0ec:    990c        ..      LDR      r1,[sp,#0x30]
        0x0001b0ee:    4288        .B      CMP      r0,r1
        0x0001b0f0:    dd03        ..      BLE      0x1b0fa ; ftoa + 382
        0x0001b0f2:    e7ff        ..      B        0x1b0f4 ; ftoa + 376
        0x0001b0f4:    980c        ..      LDR      r0,[sp,#0x30]
        0x0001b0f6:    9001        ..      STR      r0,[sp,#4]
        0x0001b0f8:    e002        ..      B        0x1b100 ; ftoa + 388
        0x0001b0fa:    9802        ..      LDR      r0,[sp,#8]
        0x0001b0fc:    9001        ..      STR      r0,[sp,#4]
        0x0001b0fe:    e7ff        ..      B        0x1b100 ; ftoa + 388
        0x0001b100:    9801        ..      LDR      r0,[sp,#4]
        0x0001b102:    9002        ..      STR      r0,[sp,#8]
        0x0001b104:    2000        .       MOVS     r0,#0
        0x0001b106:    9003        ..      STR      r0,[sp,#0xc]
        0x0001b108:    e7ff        ..      B        0x1b10a ; ftoa + 398
        0x0001b10a:    9803        ..      LDR      r0,[sp,#0xc]
        0x0001b10c:    9902        ..      LDR      r1,[sp,#8]
        0x0001b10e:    4288        .B      CMP      r0,r1
        0x0001b110:    da15        ..      BGE      0x1b13e ; ftoa + 450
        0x0001b112:    e7ff        ..      B        0x1b114 ; ftoa + 408
        0x0001b114:    9806        ..      LDR      r0,[sp,#0x18]
        0x0001b116:    eb000080    ....    ADD      r0,r0,r0,LSL #2
        0x0001b11a:    0040        @.      LSLS     r0,r0,#1
        0x0001b11c:    9006        ..      STR      r0,[sp,#0x18]
        0x0001b11e:    f89d001b    ....    LDRB     r0,[sp,#0x1b]
        0x0001b122:    3030        00      ADDS     r0,r0,#0x30
        0x0001b124:    990d        ..      LDR      r1,[sp,#0x34]
        0x0001b126:    1c4a        J.      ADDS     r2,r1,#1
        0x0001b128:    920d        ..      STR      r2,[sp,#0x34]
        0x0001b12a:    7008        .p      STRB     r0,[r1,#0]
        0x0001b12c:    9806        ..      LDR      r0,[sp,#0x18]
        0x0001b12e:    f020407f     ..@    BIC      r0,r0,#0xff000000
        0x0001b132:    9006        ..      STR      r0,[sp,#0x18]
        0x0001b134:    e7ff        ..      B        0x1b136 ; ftoa + 442
        0x0001b136:    9803        ..      LDR      r0,[sp,#0xc]
        0x0001b138:    3001        .0      ADDS     r0,#1
        0x0001b13a:    9003        ..      STR      r0,[sp,#0xc]
        0x0001b13c:    e7e5        ..      B        0x1b10a ; ftoa + 398
        0x0001b13e:    9806        ..      LDR      r0,[sp,#0x18]
        0x0001b140:    eb000080    ....    ADD      r0,r0,r0,LSL #2
        0x0001b144:    f34050c7    @..P    SBFX     r0,r0,#23,#8
        0x0001b148:    2805        .(      CMP      r0,#5
        0x0001b14a:    db23        #.      BLT      0x1b194 ; ftoa + 536
        0x0001b14c:    e7ff        ..      B        0x1b14e ; ftoa + 466
        0x0001b14e:    980d        ..      LDR      r0,[sp,#0x34]
        0x0001b150:    3801        .8      SUBS     r0,#1
        0x0001b152:    9004        ..      STR      r0,[sp,#0x10]
        0x0001b154:    e7ff        ..      B        0x1b156 ; ftoa + 474
        0x0001b156:    9804        ..      LDR      r0,[sp,#0x10]
        0x0001b158:    9905        ..      LDR      r1,[sp,#0x14]
        0x0001b15a:    4288        .B      CMP      r0,r1
        0x0001b15c:    d319        ..      BCC      0x1b192 ; ftoa + 534
        0x0001b15e:    e7ff        ..      B        0x1b160 ; ftoa + 484
        0x0001b160:    9804        ..      LDR      r0,[sp,#0x10]
        0x0001b162:    7800        .x      LDRB     r0,[r0,#0]
        0x0001b164:    282e        .(      CMP      r0,#0x2e
        0x0001b166:    d101        ..      BNE      0x1b16c ; ftoa + 496
        0x0001b168:    e7ff        ..      B        0x1b16a ; ftoa + 494
        0x0001b16a:    e00e        ..      B        0x1b18a ; ftoa + 526
        0x0001b16c:    9804        ..      LDR      r0,[sp,#0x10]
        0x0001b16e:    7800        .x      LDRB     r0,[r0,#0]
        0x0001b170:    2839        9(      CMP      r0,#0x39
        0x0001b172:    d104        ..      BNE      0x1b17e ; ftoa + 514
        0x0001b174:    e7ff        ..      B        0x1b176 ; ftoa + 506
        0x0001b176:    9904        ..      LDR      r1,[sp,#0x10]
        0x0001b178:    2030        0       MOVS     r0,#0x30
        0x0001b17a:    7008        .p      STRB     r0,[r1,#0]
        0x0001b17c:    e004        ..      B        0x1b188 ; ftoa + 524
        0x0001b17e:    9904        ..      LDR      r1,[sp,#0x10]
        0x0001b180:    7808        .x      LDRB     r0,[r1,#0]
        0x0001b182:    3001        .0      ADDS     r0,#1
        0x0001b184:    7008        .p      STRB     r0,[r1,#0]
        0x0001b186:    e004        ..      B        0x1b192 ; ftoa + 534
        0x0001b188:    e7ff        ..      B        0x1b18a ; ftoa + 526
        0x0001b18a:    9804        ..      LDR      r0,[sp,#0x10]
        0x0001b18c:    3801        .8      SUBS     r0,#1
        0x0001b18e:    9004        ..      STR      r0,[sp,#0x10]
        0x0001b190:    e7e1        ..      B        0x1b156 ; ftoa + 474
        0x0001b192:    e7ff        ..      B        0x1b194 ; ftoa + 536
        0x0001b194:    e7ff        ..      B        0x1b196 ; ftoa + 538
        0x0001b196:    990d        ..      LDR      r1,[sp,#0x34]
        0x0001b198:    2000        .       MOVS     r0,#0
        0x0001b19a:    7008        .p      STRB     r0,[r1,#0]
        0x0001b19c:    980d        ..      LDR      r0,[sp,#0x34]
        0x0001b19e:    9905        ..      LDR      r1,[sp,#0x14]
        0x0001b1a0:    1a40        @.      SUBS     r0,r0,r1
        0x0001b1a2:    900f        ..      STR      r0,[sp,#0x3c]
        0x0001b1a4:    e7ff        ..      B        0x1b1a6 ; ftoa + 554
        0x0001b1a6:    980f        ..      LDR      r0,[sp,#0x3c]
        0x0001b1a8:    b010        ..      ADD      sp,sp,#0x40
        0x0001b1aa:    bd80        ..      POP      {r7,pc}
    get_raw_dcu_mask
        0x0001b1ac:    b5b0        ..      PUSH     {r4,r5,r7,lr}
        0x0001b1ae:    4684        .F      MOV      r12,r0
        0x0001b1b0:    f2403074    @.t0    MOVW     r0,#0x374
        0x0001b1b4:    f2c10000    ....    MOVT     r0,#0x1000
        0x0001b1b8:    f8d0e000    ....    LDR      lr,[r0,#0]
        0x0001b1bc:    2207        ."      MOVS     r2,#7
        0x0001b1be:    f1ce0320    .. .    RSB      r3,lr,#0x20
        0x0001b1c2:    fa22f303    "...    LSR      r3,r2,r3
        0x0001b1c6:    ea4f708c    O..p    LSL      r0,r12,#30
        0x0001b1ca:    f1be0120    .. .    SUBS     r1,lr,#0x20
        0x0001b1ce:    bf58        X.      IT       PL
        0x0001b1d0:    fa02f301    ....    LSLPL    r3,r2,r1
        0x0001b1d4:    fa02f40e    ....    LSL      r4,r2,lr
        0x0001b1d8:    bf58        X.      IT       PL
        0x0001b1da:    2400        .$      MOVPL    r4,#0
        0x0001b1dc:    ea0371e0    ...q    AND      r1,r3,r0,ASR #31
        0x0001b1e0:    ea5f734c    _.Ls    LSLS     r3,r12,#29
        0x0001b1e4:    ea0470e0    ...p    AND      r0,r4,r0,ASR #31
        0x0001b1e8:    d470        p.      BMI      0x1b2cc ; get_raw_dcu_mask + 288
        0x0001b1ea:    ea5f720c    _..r    LSLS     r2,r12,#28
        0x0001b1ee:    f1008082    ....    BMI.W    0x1b2f6 ; get_raw_dcu_mask + 330
        0x0001b1f2:    ea5f62cc    _..b    LSLS     r2,r12,#27
        0x0001b1f6:    f1008094    ....    BMI.W    0x1b322 ; get_raw_dcu_mask + 374
        0x0001b1fa:    ea5f628c    _..b    LSLS     r2,r12,#26
        0x0001b1fe:    f10080a6    ....    BMI.W    0x1b34e ; get_raw_dcu_mask + 418
        0x0001b202:    ea5f624c    _.Lb    LSLS     r2,r12,#25
        0x0001b206:    f10080b8    ....    BMI.W    0x1b37a ; get_raw_dcu_mask + 462
        0x0001b20a:    ea5f620c    _..b    LSLS     r2,r12,#24
        0x0001b20e:    f10080ca    ....    BMI.W    0x1b3a6 ; get_raw_dcu_mask + 506
        0x0001b212:    ea5f52cc    _..R    LSLS     r2,r12,#23
        0x0001b216:    f10080dc    ....    BMI.W    0x1b3d2 ; get_raw_dcu_mask + 550
        0x0001b21a:    ea5f528c    _..R    LSLS     r2,r12,#22
        0x0001b21e:    f10080ee    ....    BMI.W    0x1b3fe ; get_raw_dcu_mask + 594
        0x0001b222:    ea5f524c    _.LR    LSLS     r2,r12,#21
        0x0001b226:    f1008100    ....    BMI.W    0x1b42a ; get_raw_dcu_mask + 638
        0x0001b22a:    ea5f520c    _..R    LSLS     r2,r12,#20
        0x0001b22e:    f1008112    ....    BMI.W    0x1b456 ; get_raw_dcu_mask + 682
        0x0001b232:    ea5f42cc    _..B    LSLS     r2,r12,#19
        0x0001b236:    f1008124    ..$.    BMI.W    0x1b482 ; get_raw_dcu_mask + 726
        0x0001b23a:    ea5f428c    _..B    LSLS     r2,r12,#18
        0x0001b23e:    f1008136    ..6.    BMI.W    0x1b4ae ; get_raw_dcu_mask + 770
        0x0001b242:    ea5f424c    _.LB    LSLS     r2,r12,#17
        0x0001b246:    f100814a    ..J.    BMI.W    0x1b4de ; get_raw_dcu_mask + 818
        0x0001b24a:    ea5f420c    _..B    LSLS     r2,r12,#16
        0x0001b24e:    f100815e    ..^.    BMI.W    0x1b50e ; get_raw_dcu_mask + 866
        0x0001b252:    ea5f32cc    _..2    LSLS     r2,r12,#15
        0x0001b256:    f1008172    ..r.    BMI.W    0x1b53e ; get_raw_dcu_mask + 914
        0x0001b25a:    ea5f328c    _..2    LSLS     r2,r12,#14
        0x0001b25e:    f1008186    ....    BMI.W    0x1b56e ; get_raw_dcu_mask + 962
        0x0001b262:    ea5f324c    _.L2    LSLS     r2,r12,#13
        0x0001b266:    f100819a    ....    BMI.W    0x1b59e ; get_raw_dcu_mask + 1010
        0x0001b26a:    ea5f320c    _..2    LSLS     r2,r12,#12
        0x0001b26e:    d513        ..      BPL      0x1b298 ; get_raw_dcu_mask + 236
        0x0001b270:    f06f0515    o...    MVN      r5,#0x15
        0x0001b274:    f10e0236    ..6.    ADD      r2,lr,#0x36
        0x0001b278:    2407        .$      MOVS     r4,#7
        0x0001b27a:    eba5050e    ....    SUB      r5,r5,lr
        0x0001b27e:    fa24f505    $...    LSR      r5,r4,r5
        0x0001b282:    fa04f202    ....    LSL      r2,r4,r2
        0x0001b286:    f11e0316    ....    ADDS     r3,lr,#0x16
        0x0001b28a:    bf58        X.      IT       PL
        0x0001b28c:    fa04f503    ....    LSLPL    r5,r4,r3
        0x0001b290:    bf58        X.      IT       PL
        0x0001b292:    2200        ."      MOVPL    r2,#0
        0x0001b294:    4329        )C      ORRS     r1,r1,r5
        0x0001b296:    4310        .C      ORRS     r0,r0,r2
        0x0001b298:    ea5f22cc    _.."    LSLS     r2,r12,#11
        0x0001b29c:    bf58        X.      IT       PL
        0x0001b29e:    bdb0        ..      POPPL    {r4,r5,r7,pc}
        0x0001b2a0:    f06f0418    o...    MVN      r4,#0x18
        0x0001b2a4:    f10e0239    ..9.    ADD      r2,lr,#0x39
        0x0001b2a8:    2507        .%      MOVS     r5,#7
        0x0001b2aa:    eba4040e    ....    SUB      r4,r4,lr
        0x0001b2ae:    fa25f404    %...    LSR      r4,r5,r4
        0x0001b2b2:    fa05f202    ....    LSL      r2,r5,r2
        0x0001b2b6:    f11e0319    ....    ADDS     r3,lr,#0x19
        0x0001b2ba:    bf58        X.      IT       PL
        0x0001b2bc:    fa05f403    ....    LSLPL    r4,r5,r3
        0x0001b2c0:    bf58        X.      IT       PL
        0x0001b2c2:    2200        ."      MOVPL    r2,#0
        0x0001b2c4:    4321        !C      ORRS     r1,r1,r4
        0x0001b2c6:    4310        .C      ORRS     r0,r0,r2
        0x0001b2c8:    bdb0        ..      POP      {r4,r5,r7,pc}
        0x0001b2ca:    bf00        ..      NOP      
        0x0001b2cc:    f1ce051d    ....    RSB      r5,lr,#0x1d
        0x0001b2d0:    f10e0303    ....    ADD      r3,lr,#3
        0x0001b2d4:    fa22f505    "...    LSR      r5,r2,r5
        0x0001b2d8:    f1be041d    ....    SUBS     r4,lr,#0x1d
        0x0001b2dc:    bf58        X.      IT       PL
        0x0001b2de:    fa02f504    ....    LSLPL    r5,r2,r4
        0x0001b2e2:    fa02f203    ....    LSL      r2,r2,r3
        0x0001b2e6:    bf58        X.      IT       PL
        0x0001b2e8:    2200        ."      MOVPL    r2,#0
        0x0001b2ea:    4329        )C      ORRS     r1,r1,r5
        0x0001b2ec:    4310        .C      ORRS     r0,r0,r2
        0x0001b2ee:    ea5f720c    _..r    LSLS     r2,r12,#28
        0x0001b2f2:    f57faf7e    ..~.    BPL      0x1b1f2 ; get_raw_dcu_mask + 70
        0x0001b2f6:    f10e0206    ....    ADD      r2,lr,#6
        0x0001b2fa:    2407        .$      MOVS     r4,#7
        0x0001b2fc:    f1ce051a    ....    RSB      r5,lr,#0x1a
        0x0001b300:    fa24f505    $...    LSR      r5,r4,r5
        0x0001b304:    fa04f202    ....    LSL      r2,r4,r2
        0x0001b308:    f1be031a    ....    SUBS     r3,lr,#0x1a
        0x0001b30c:    bf58        X.      IT       PL
        0x0001b30e:    fa04f503    ....    LSLPL    r5,r4,r3
        0x0001b312:    bf58        X.      IT       PL
        0x0001b314:    2200        ."      MOVPL    r2,#0
        0x0001b316:    4329        )C      ORRS     r1,r1,r5
        0x0001b318:    4310        .C      ORRS     r0,r0,r2
        0x0001b31a:    ea5f62cc    _..b    LSLS     r2,r12,#27
        0x0001b31e:    f57faf6c    ..l.    BPL      0x1b1fa ; get_raw_dcu_mask + 78
        0x0001b322:    f10e0209    ....    ADD      r2,lr,#9
        0x0001b326:    2407        .$      MOVS     r4,#7
        0x0001b328:    f1ce0517    ....    RSB      r5,lr,#0x17
        0x0001b32c:    fa24f505    $...    LSR      r5,r4,r5
        0x0001b330:    fa04f202    ....    LSL      r2,r4,r2
        0x0001b334:    f1be0317    ....    SUBS     r3,lr,#0x17
        0x0001b338:    bf58        X.      IT       PL
        0x0001b33a:    fa04f503    ....    LSLPL    r5,r4,r3
        0x0001b33e:    bf58        X.      IT       PL
        0x0001b340:    2200        ."      MOVPL    r2,#0
        0x0001b342:    4329        )C      ORRS     r1,r1,r5
        0x0001b344:    4310        .C      ORRS     r0,r0,r2
        0x0001b346:    ea5f628c    _..b    LSLS     r2,r12,#26
        0x0001b34a:    f57faf5a    ..Z.    BPL      0x1b202 ; get_raw_dcu_mask + 86
        0x0001b34e:    f10e020c    ....    ADD      r2,lr,#0xc
        0x0001b352:    2407        .$      MOVS     r4,#7
        0x0001b354:    f1ce0514    ....    RSB      r5,lr,#0x14
        0x0001b358:    fa24f505    $...    LSR      r5,r4,r5
        0x0001b35c:    fa04f202    ....    LSL      r2,r4,r2
        0x0001b360:    f1be0314    ....    SUBS     r3,lr,#0x14
        0x0001b364:    bf58        X.      IT       PL
        0x0001b366:    fa04f503    ....    LSLPL    r5,r4,r3
        0x0001b36a:    bf58        X.      IT       PL
        0x0001b36c:    2200        ."      MOVPL    r2,#0
        0x0001b36e:    4329        )C      ORRS     r1,r1,r5
        0x0001b370:    4310        .C      ORRS     r0,r0,r2
        0x0001b372:    ea5f624c    _.Lb    LSLS     r2,r12,#25
        0x0001b376:    f57faf48    ..H.    BPL      0x1b20a ; get_raw_dcu_mask + 94
        0x0001b37a:    f10e020f    ....    ADD      r2,lr,#0xf
        0x0001b37e:    2407        .$      MOVS     r4,#7
        0x0001b380:    f1ce0511    ....    RSB      r5,lr,#0x11
        0x0001b384:    fa24f505    $...    LSR      r5,r4,r5
        0x0001b388:    fa04f202    ....    LSL      r2,r4,r2
        0x0001b38c:    f1be0311    ....    SUBS     r3,lr,#0x11
        0x0001b390:    bf58        X.      IT       PL
        0x0001b392:    fa04f503    ....    LSLPL    r5,r4,r3
        0x0001b396:    bf58        X.      IT       PL
        0x0001b398:    2200        ."      MOVPL    r2,#0
        0x0001b39a:    4329        )C      ORRS     r1,r1,r5
        0x0001b39c:    4310        .C      ORRS     r0,r0,r2
        0x0001b39e:    ea5f620c    _..b    LSLS     r2,r12,#24
        0x0001b3a2:    f57faf36    ..6.    BPL      0x1b212 ; get_raw_dcu_mask + 102
        0x0001b3a6:    f10e0212    ....    ADD      r2,lr,#0x12
        0x0001b3aa:    2407        .$      MOVS     r4,#7
        0x0001b3ac:    f1ce050e    ....    RSB      r5,lr,#0xe
        0x0001b3b0:    fa24f505    $...    LSR      r5,r4,r5
        0x0001b3b4:    fa04f202    ....    LSL      r2,r4,r2
        0x0001b3b8:    f1be030e    ....    SUBS     r3,lr,#0xe
        0x0001b3bc:    bf58        X.      IT       PL
        0x0001b3be:    fa04f503    ....    LSLPL    r5,r4,r3
        0x0001b3c2:    bf58        X.      IT       PL
        0x0001b3c4:    2200        ."      MOVPL    r2,#0
        0x0001b3c6:    4329        )C      ORRS     r1,r1,r5
        0x0001b3c8:    4310        .C      ORRS     r0,r0,r2
        0x0001b3ca:    ea5f52cc    _..R    LSLS     r2,r12,#23
        0x0001b3ce:    f57faf24    ..$.    BPL      0x1b21a ; get_raw_dcu_mask + 110
        0x0001b3d2:    f10e0215    ....    ADD      r2,lr,#0x15
        0x0001b3d6:    2407        .$      MOVS     r4,#7
        0x0001b3d8:    f1ce050b    ....    RSB      r5,lr,#0xb
        0x0001b3dc:    fa24f505    $...    LSR      r5,r4,r5
        0x0001b3e0:    fa04f202    ....    LSL      r2,r4,r2
        0x0001b3e4:    f1be030b    ....    SUBS     r3,lr,#0xb
        0x0001b3e8:    bf58        X.      IT       PL
        0x0001b3ea:    fa04f503    ....    LSLPL    r5,r4,r3
        0x0001b3ee:    bf58        X.      IT       PL
        0x0001b3f0:    2200        ."      MOVPL    r2,#0
        0x0001b3f2:    4329        )C      ORRS     r1,r1,r5
        0x0001b3f4:    4310        .C      ORRS     r0,r0,r2
        0x0001b3f6:    ea5f528c    _..R    LSLS     r2,r12,#22
        0x0001b3fa:    f57faf12    ....    BPL      0x1b222 ; get_raw_dcu_mask + 118
        0x0001b3fe:    f10e0218    ....    ADD      r2,lr,#0x18
        0x0001b402:    2407        .$      MOVS     r4,#7
        0x0001b404:    f1ce0508    ....    RSB      r5,lr,#8
        0x0001b408:    fa24f505    $...    LSR      r5,r4,r5
        0x0001b40c:    fa04f202    ....    LSL      r2,r4,r2
        0x0001b410:    f1be0308    ....    SUBS     r3,lr,#8
        0x0001b414:    bf58        X.      IT       PL
        0x0001b416:    fa04f503    ....    LSLPL    r5,r4,r3
        0x0001b41a:    bf58        X.      IT       PL
        0x0001b41c:    2200        ."      MOVPL    r2,#0
        0x0001b41e:    4329        )C      ORRS     r1,r1,r5
        0x0001b420:    4310        .C      ORRS     r0,r0,r2
        0x0001b422:    ea5f524c    _.LR    LSLS     r2,r12,#21
        0x0001b426:    f57faf00    ....    BPL      0x1b22a ; get_raw_dcu_mask + 126
        0x0001b42a:    f10e021b    ....    ADD      r2,lr,#0x1b
        0x0001b42e:    2407        .$      MOVS     r4,#7
        0x0001b430:    f1ce0505    ....    RSB      r5,lr,#5
        0x0001b434:    fa24f505    $...    LSR      r5,r4,r5
        0x0001b438:    fa04f202    ....    LSL      r2,r4,r2
        0x0001b43c:    f1be0305    ....    SUBS     r3,lr,#5
        0x0001b440:    bf58        X.      IT       PL
        0x0001b442:    fa04f503    ....    LSLPL    r5,r4,r3
        0x0001b446:    bf58        X.      IT       PL
        0x0001b448:    2200        ."      MOVPL    r2,#0
        0x0001b44a:    4329        )C      ORRS     r1,r1,r5
        0x0001b44c:    4310        .C      ORRS     r0,r0,r2
        0x0001b44e:    ea5f520c    _..R    LSLS     r2,r12,#20
        0x0001b452:    f57faeee    ....    BPL      0x1b232 ; get_raw_dcu_mask + 134
        0x0001b456:    f10e021e    ....    ADD      r2,lr,#0x1e
        0x0001b45a:    2407        .$      MOVS     r4,#7
        0x0001b45c:    f1ce0502    ....    RSB      r5,lr,#2
        0x0001b460:    fa24f505    $...    LSR      r5,r4,r5
        0x0001b464:    fa04f202    ....    LSL      r2,r4,r2
        0x0001b468:    f1be0302    ....    SUBS     r3,lr,#2
        0x0001b46c:    bf58        X.      IT       PL
        0x0001b46e:    fa04f503    ....    LSLPL    r5,r4,r3
        0x0001b472:    bf58        X.      IT       PL
        0x0001b474:    2200        ."      MOVPL    r2,#0
        0x0001b476:    4329        )C      ORRS     r1,r1,r5
        0x0001b478:    4310        .C      ORRS     r0,r0,r2
        0x0001b47a:    ea5f42cc    _..B    LSLS     r2,r12,#19
        0x0001b47e:    f57faedc    ....    BPL      0x1b23a ; get_raw_dcu_mask + 142
        0x0001b482:    f10e0221    ..!.    ADD      r2,lr,#0x21
        0x0001b486:    2407        .$      MOVS     r4,#7
        0x0001b488:    ea6f050e    o...    MVN      r5,lr
        0x0001b48c:    fa24f505    $...    LSR      r5,r4,r5
        0x0001b490:    fa04f202    ....    LSL      r2,r4,r2
        0x0001b494:    f11e0301    ....    ADDS     r3,lr,#1
        0x0001b498:    bf58        X.      IT       PL
        0x0001b49a:    fa04f503    ....    LSLPL    r5,r4,r3
        0x0001b49e:    bf58        X.      IT       PL
        0x0001b4a0:    2200        ."      MOVPL    r2,#0
        0x0001b4a2:    4329        )C      ORRS     r1,r1,r5
        0x0001b4a4:    4310        .C      ORRS     r0,r0,r2
        0x0001b4a6:    ea5f428c    _..B    LSLS     r2,r12,#18
        0x0001b4aa:    f57faeca    ....    BPL      0x1b242 ; get_raw_dcu_mask + 150
        0x0001b4ae:    f06f0503    o...    MVN      r5,#3
        0x0001b4b2:    f10e0224    ..$.    ADD      r2,lr,#0x24
        0x0001b4b6:    2407        .$      MOVS     r4,#7
        0x0001b4b8:    eba5050e    ....    SUB      r5,r5,lr
        0x0001b4bc:    fa24f505    $...    LSR      r5,r4,r5
        0x0001b4c0:    fa04f202    ....    LSL      r2,r4,r2
        0x0001b4c4:    f11e0304    ....    ADDS     r3,lr,#4
        0x0001b4c8:    bf58        X.      IT       PL
        0x0001b4ca:    fa04f503    ....    LSLPL    r5,r4,r3
        0x0001b4ce:    bf58        X.      IT       PL
        0x0001b4d0:    2200        ."      MOVPL    r2,#0
        0x0001b4d2:    4329        )C      ORRS     r1,r1,r5
        0x0001b4d4:    4310        .C      ORRS     r0,r0,r2
        0x0001b4d6:    ea5f424c    _.LB    LSLS     r2,r12,#17
        0x0001b4da:    f57faeb6    ....    BPL      0x1b24a ; get_raw_dcu_mask + 158
        0x0001b4de:    f06f0506    o...    MVN      r5,#6
        0x0001b4e2:    f10e0227    ..'.    ADD      r2,lr,#0x27
        0x0001b4e6:    2407        .$      MOVS     r4,#7
        0x0001b4e8:    eba5050e    ....    SUB      r5,r5,lr
        0x0001b4ec:    fa24f505    $...    LSR      r5,r4,r5
        0x0001b4f0:    fa04f202    ....    LSL      r2,r4,r2
        0x0001b4f4:    f11e0307    ....    ADDS     r3,lr,#7
        0x0001b4f8:    bf58        X.      IT       PL
        0x0001b4fa:    fa04f503    ....    LSLPL    r5,r4,r3
        0x0001b4fe:    bf58        X.      IT       PL
        0x0001b500:    2200        ."      MOVPL    r2,#0
        0x0001b502:    4329        )C      ORRS     r1,r1,r5
        0x0001b504:    4310        .C      ORRS     r0,r0,r2
        0x0001b506:    ea5f420c    _..B    LSLS     r2,r12,#16
        0x0001b50a:    f57faea2    ....    BPL      0x1b252 ; get_raw_dcu_mask + 166
        0x0001b50e:    f06f0509    o...    MVN      r5,#9
        0x0001b512:    f10e022a    ..*.    ADD      r2,lr,#0x2a
        0x0001b516:    2407        .$      MOVS     r4,#7
        0x0001b518:    eba5050e    ....    SUB      r5,r5,lr
        0x0001b51c:    fa24f505    $...    LSR      r5,r4,r5
        0x0001b520:    fa04f202    ....    LSL      r2,r4,r2
        0x0001b524:    f11e030a    ....    ADDS     r3,lr,#0xa
        0x0001b528:    bf58        X.      IT       PL
        0x0001b52a:    fa04f503    ....    LSLPL    r5,r4,r3
        0x0001b52e:    bf58        X.      IT       PL
        0x0001b530:    2200        ."      MOVPL    r2,#0
        0x0001b532:    4329        )C      ORRS     r1,r1,r5
        0x0001b534:    4310        .C      ORRS     r0,r0,r2
        0x0001b536:    ea5f32cc    _..2    LSLS     r2,r12,#15
        0x0001b53a:    f57fae8e    ....    BPL      0x1b25a ; get_raw_dcu_mask + 174
        0x0001b53e:    f06f050c    o...    MVN      r5,#0xc
        0x0001b542:    f10e022d    ..-.    ADD      r2,lr,#0x2d
        0x0001b546:    2407        .$      MOVS     r4,#7
        0x0001b548:    eba5050e    ....    SUB      r5,r5,lr
        0x0001b54c:    fa24f505    $...    LSR      r5,r4,r5
        0x0001b550:    fa04f202    ....    LSL      r2,r4,r2
        0x0001b554:    f11e030d    ....    ADDS     r3,lr,#0xd
        0x0001b558:    bf58        X.      IT       PL
        0x0001b55a:    fa04f503    ....    LSLPL    r5,r4,r3
        0x0001b55e:    bf58        X.      IT       PL
        0x0001b560:    2200        ."      MOVPL    r2,#0
        0x0001b562:    4329        )C      ORRS     r1,r1,r5
        0x0001b564:    4310        .C      ORRS     r0,r0,r2
        0x0001b566:    ea5f328c    _..2    LSLS     r2,r12,#14
        0x0001b56a:    f57fae7a    ..z.    BPL      0x1b262 ; get_raw_dcu_mask + 182
        0x0001b56e:    f06f050f    o...    MVN      r5,#0xf
        0x0001b572:    f10e0230    ..0.    ADD      r2,lr,#0x30
        0x0001b576:    2407        .$      MOVS     r4,#7
        0x0001b578:    eba5050e    ....    SUB      r5,r5,lr
        0x0001b57c:    fa24f505    $...    LSR      r5,r4,r5
        0x0001b580:    fa04f202    ....    LSL      r2,r4,r2
        0x0001b584:    f11e0310    ....    ADDS     r3,lr,#0x10
        0x0001b588:    bf58        X.      IT       PL
        0x0001b58a:    fa04f503    ....    LSLPL    r5,r4,r3
        0x0001b58e:    bf58        X.      IT       PL
        0x0001b590:    2200        ."      MOVPL    r2,#0
        0x0001b592:    4329        )C      ORRS     r1,r1,r5
        0x0001b594:    4310        .C      ORRS     r0,r0,r2
        0x0001b596:    ea5f324c    _.L2    LSLS     r2,r12,#13
        0x0001b59a:    f57fae66    ..f.    BPL      0x1b26a ; get_raw_dcu_mask + 190
        0x0001b59e:    f06f0512    o...    MVN      r5,#0x12
        0x0001b5a2:    f10e0233    ..3.    ADD      r2,lr,#0x33
        0x0001b5a6:    2407        .$      MOVS     r4,#7
        0x0001b5a8:    eba5050e    ....    SUB      r5,r5,lr
        0x0001b5ac:    fa24f505    $...    LSR      r5,r4,r5
        0x0001b5b0:    fa04f202    ....    LSL      r2,r4,r2
        0x0001b5b4:    f11e0313    ....    ADDS     r3,lr,#0x13
        0x0001b5b8:    bf58        X.      IT       PL
        0x0001b5ba:    fa04f503    ....    LSLPL    r5,r4,r3
        0x0001b5be:    bf58        X.      IT       PL
        0x0001b5c0:    2200        ."      MOVPL    r2,#0
        0x0001b5c2:    4329        )C      ORRS     r1,r1,r5
        0x0001b5c4:    4310        .C      ORRS     r0,r0,r2
        0x0001b5c6:    ea5f320c    _..2    LSLS     r2,r12,#12
        0x0001b5ca:    f57fae65    ..e.    BPL      0x1b298 ; get_raw_dcu_mask + 236
        0x0001b5ce:    e64f        O.      B        0x1b270 ; get_raw_dcu_mask + 196
    get_ui32_dcu_mask
        0x0001b5d0:    f2403374    @.t3    MOVW     r3,#0x374
        0x0001b5d4:    f2c10300    ....    MOVT     r3,#0x1000
        0x0001b5d8:    f8d3c000    ....    LDR      r12,[r3,#0]
        0x0001b5dc:    f1cc0320    .. .    RSB      r3,r12,#0x20
        0x0001b5e0:    fa20f00c     ...    LSR      r0,r0,r12
        0x0001b5e4:    fa01f303    ....    LSL      r3,r1,r3
        0x0001b5e8:    4303        .C      ORRS     r3,r3,r0
        0x0001b5ea:    f1bc0020    .. .    SUBS     r0,r12,#0x20
        0x0001b5ee:    bf58        X.      IT       PL
        0x0001b5f0:    fa21f300    !...    LSRPL    r3,r1,r0
        0x0001b5f4:    f0030007    ....    AND      r0,r3,#7
        0x0001b5f8:    ea800002    ....    EOR      r0,r0,r2
        0x0001b5fc:    fa21fc0c    !...    LSR      r12,r1,r12
        0x0001b600:    fab0f080    ....    CLZ      r0,r0
        0x0001b604:    f3c301c2    ....    UBFX     r1,r3,#3,#3
        0x0001b608:    bf58        X.      IT       PL
        0x0001b60a:    f04f0c00    O...    MOVPL    r12,#0
        0x0001b60e:    0940        @.      LSRS     r0,r0,#5
        0x0001b610:    4051        Q@      EORS     r1,r1,r2
        0x0001b612:    f3c31182    ....    UBFX     r1,r3,#6,#3
        0x0001b616:    bf08        ..      IT       EQ
        0x0001b618:    3002        .0      ADDEQ    r0,#2
        0x0001b61a:    4051        Q@      EORS     r1,r1,r2
        0x0001b61c:    f3c32142    ..B!    UBFX     r1,r3,#9,#3
        0x0001b620:    bf08        ..      IT       EQ
        0x0001b622:    3004        .0      ADDEQ    r0,#4
        0x0001b624:    4051        Q@      EORS     r1,r1,r2
        0x0001b626:    f3c33102    ...1    UBFX     r1,r3,#12,#3
        0x0001b62a:    bf08        ..      IT       EQ
        0x0001b62c:    3008        .0      ADDEQ    r0,r0,#8
        0x0001b62e:    4051        Q@      EORS     r1,r1,r2
        0x0001b630:    f3c331c2    ...1    UBFX     r1,r3,#15,#3
        0x0001b634:    bf08        ..      IT       EQ
        0x0001b636:    f0400010    @...    ORREQ    r0,r0,#0x10
        0x0001b63a:    4051        Q@      EORS     r1,r1,r2
        0x0001b63c:    f3c34182    ...A    UBFX     r1,r3,#18,#3
        0x0001b640:    bf08        ..      IT       EQ
        0x0001b642:    f0400020    @. .    ORREQ    r0,r0,#0x20
        0x0001b646:    4051        Q@      EORS     r1,r1,r2
        0x0001b648:    f3c35142    ..BQ    UBFX     r1,r3,#21,#3
        0x0001b64c:    bf08        ..      IT       EQ
        0x0001b64e:    f0400040    @.@.    ORREQ    r0,r0,#0x40
        0x0001b652:    4051        Q@      EORS     r1,r1,r2
        0x0001b654:    f3c36102    ...a    UBFX     r1,r3,#24,#3
        0x0001b658:    bf08        ..      IT       EQ
        0x0001b65a:    f0400080    @...    ORREQ    r0,r0,#0x80
        0x0001b65e:    4051        Q@      EORS     r1,r1,r2
        0x0001b660:    f3c361c2    ...a    UBFX     r1,r3,#27,#3
        0x0001b664:    bf08        ..      IT       EQ
        0x0001b666:    f4407080    @..p    ORREQ    r0,r0,#0x100
        0x0001b66a:    4051        Q@      EORS     r1,r1,r2
        0x0001b66c:    ea4f7193    O..q    LSR      r1,r3,#30
        0x0001b670:    ea41018c    A...    ORR      r1,r1,r12,LSL #2
        0x0001b674:    bf08        ..      IT       EQ
        0x0001b676:    f4407000    @..p    ORREQ    r0,r0,#0x200
        0x0001b67a:    f0010107    ....    AND      r1,r1,#7
        0x0001b67e:    4051        Q@      EORS     r1,r1,r2
        0x0001b680:    bf08        ..      IT       EQ
        0x0001b682:    f4406080    @..`    ORREQ    r0,r0,#0x400
        0x0001b686:    f3cc0142    ..B.    UBFX     r1,r12,#1,#3
        0x0001b68a:    4051        Q@      EORS     r1,r1,r2
        0x0001b68c:    bf08        ..      IT       EQ
        0x0001b68e:    f4406000    @..`    ORREQ    r0,r0,#0x800
        0x0001b692:    f3cc1102    ....    UBFX     r1,r12,#4,#3
        0x0001b696:    4051        Q@      EORS     r1,r1,r2
        0x0001b698:    bf08        ..      IT       EQ
        0x0001b69a:    f4405080    @..P    ORREQ    r0,r0,#0x1000
        0x0001b69e:    f3cc11c2    ....    UBFX     r1,r12,#7,#3
        0x0001b6a2:    4051        Q@      EORS     r1,r1,r2
        0x0001b6a4:    bf08        ..      IT       EQ
        0x0001b6a6:    f4405000    @..P    ORREQ    r0,r0,#0x2000
        0x0001b6aa:    f3cc2182    ...!    UBFX     r1,r12,#10,#3
        0x0001b6ae:    4051        Q@      EORS     r1,r1,r2
        0x0001b6b0:    bf08        ..      IT       EQ
        0x0001b6b2:    f4404080    @..@    ORREQ    r0,r0,#0x4000
        0x0001b6b6:    f3cc3142    ..B1    UBFX     r1,r12,#13,#3
        0x0001b6ba:    4051        Q@      EORS     r1,r1,r2
        0x0001b6bc:    bf08        ..      IT       EQ
        0x0001b6be:    f4404000    @..@    ORREQ    r0,r0,#0x8000
        0x0001b6c2:    f3cc4102    ...A    UBFX     r1,r12,#16,#3
        0x0001b6c6:    4051        Q@      EORS     r1,r1,r2
        0x0001b6c8:    bf08        ..      IT       EQ
        0x0001b6ca:    f4403080    @..0    ORREQ    r0,r0,#0x10000
        0x0001b6ce:    f3cc41c2    ...A    UBFX     r1,r12,#19,#3
        0x0001b6d2:    4051        Q@      EORS     r1,r1,r2
        0x0001b6d4:    bf08        ..      IT       EQ
        0x0001b6d6:    f4403000    @..0    ORREQ    r0,r0,#0x20000
        0x0001b6da:    f3cc5182    ...Q    UBFX     r1,r12,#22,#3
        0x0001b6de:    4051        Q@      EORS     r1,r1,r2
        0x0001b6e0:    bf08        ..      IT       EQ
        0x0001b6e2:    f4402080    @..     ORREQ    r0,r0,#0x40000
        0x0001b6e6:    f3cc6142    ..Ba    UBFX     r1,r12,#25,#3
        0x0001b6ea:    4051        Q@      EORS     r1,r1,r2
        0x0001b6ec:    bf08        ..      IT       EQ
        0x0001b6ee:    f4402000    @..     ORREQ    r0,r0,#0x80000
        0x0001b6f2:    4770        pG      BX       lr
    hostint_handler
        0x0001b6f4:    f240118c    @...    MOVW     r1,#0x18c
        0x0001b6f8:    f2c10100    ....    MOVT     r1,#0x1000
        0x0001b6fc:    2001        .       MOVS     r0,#1
        0x0001b6fe:    7008        .p      STRB     r0,[r1,#0]
        0x0001b700:    4770        pG      BX       lr
        0x0001b702:    0000        ..      MOVS     r0,r0
    internal_iom_error_reset_disable_submodule
        0x0001b704:    e92d4ff0    -..O    PUSH     {r4-r11,lr}
        0x0001b708:    b087        ..      SUB      sp,sp,#0x1c
        0x0001b70a:    4681        .F      MOV      r9,r0
        0x0001b70c:    2500        .%      MOVS     r5,#0
        0x0001b70e:    f8d00864    ..d.    LDR      r0,[r0,#0x864]
        0x0001b712:    f8d96004    ...`    LDR      r6,[r9,#4]
        0x0001b716:    f2c40501    ....    MOVT     r5,#0x4001
        0x0001b71a:    eb000140    ..@.    ADD      r1,r0,r0,LSL #1
        0x0001b71e:    2800        .(      CMP      r0,#0
        0x0001b720:    eb053006    ...0    ADD      r0,r5,r6,LSL #12
        0x0001b724:    f5002480    ...$    ADD      r4,r0,#0x40000
        0x0001b728:    f5002080    ...     ADD      r0,r0,#0x40000
        0x0001b72c:    ea4f0841    O.A.    LSL      r8,r1,#1
        0x0001b730:    f5007112    ...q    ADD      r1,r0,#0x248
        0x0001b734:    f24a1020    J. .    MOV      r0,#0xa120
        0x0001b738:    bf08        ..      IT       EQ
        0x0001b73a:    f04f0806    O...    MOVEQ    r8,#6
        0x0001b73e:    f8d4a388    ....    LDR      r10,[r4,#0x388]
        0x0001b742:    2701        .'      MOVS     r7,#1
        0x0001b744:    f2c00007    ....    MOVT     r0,#7
        0x0001b748:    2206        ."      MOVS     r2,#6
        0x0001b74a:    2304        .#      MOVS     r3,#4
        0x0001b74c:    9700        ..      STR      r7,[sp,#0]
        0x0001b74e:    f7fdfaa7    ....    BL       am_hal_delay_us_status_check ; 0x18ca0
        0x0001b752:    f8990008    ....    LDRB     r0,[r9,#8]
        0x0001b756:    b308        ..      CBZ      r0,0x1b79c ; internal_iom_error_reset_disable_submodule + 152
        0x0001b758:    f64c319c    L..1    MOV      r1,#0xcb9c
        0x0001b75c:    eb060086    ....    ADD      r0,r6,r6,LSL #2
        0x0001b760:    f2c00101    ....    MOVT     r1,#1
        0x0001b764:    f8312010    1..     LDRH     r2,[r1,r0,LSL #1]
        0x0001b768:    eb010040    ..@.    ADD      r0,r1,r0,LSL #1
        0x0001b76c:    0913        ..      LSRS     r3,r2,#4
        0x0001b76e:    f8553023    U.#0    LDR      r3,[r5,r3,LSL #2]
        0x0001b772:    8880        ..      LDRH     r0,[r0,#4]
        0x0001b774:    ea830102    ....    EOR      r1,r3,r2
        0x0001b778:    0709        ..      LSLS     r1,r1,#28
        0x0001b77a:    9301        ..      STR      r3,[sp,#4]
        0x0001b77c:    ea4f1110    O...    LSR      r1,r0,#4
        0x0001b780:    f8551021    U.!.    LDR      r1,[r5,r1,LSL #2]
        0x0001b784:    f64f77ff    O..w    MOV      r7,#0xffff
        0x0001b788:    f64f76ff    O..v    MOV      r6,#0xffff
        0x0001b78c:    bf08        ..      IT       EQ
        0x0001b78e:    0917        ..      LSREQ    r7,r2,#4
        0x0001b790:    9101        ..      STR      r1,[sp,#4]
        0x0001b792:    4041        A@      EORS     r1,r1,r0
        0x0001b794:    0709        ..      LSLS     r1,r1,#28
        0x0001b796:    bf08        ..      IT       EQ
        0x0001b798:    0906        ..      LSREQ    r6,r0,#4
        0x0001b79a:    e024        $.      B        0x1b7e6 ; internal_iom_error_reset_disable_submodule + 226
        0x0001b79c:    f64c319c    L..1    MOV      r1,#0xcb9c
        0x0001b7a0:    eb060086    ....    ADD      r0,r6,r6,LSL #2
        0x0001b7a4:    f2c00101    ....    MOVT     r1,#1
        0x0001b7a8:    eb010040    ..@.    ADD      r0,r1,r0,LSL #1
        0x0001b7ac:    8841        A.      LDRH     r1,[r0,#2]
        0x0001b7ae:    f64f77ff    O..w    MOV      r7,#0xffff
        0x0001b7b2:    090a        ..      LSRS     r2,r1,#4
        0x0001b7b4:    f8552022    U."     LDR      r2,[r5,r2,LSL #2]
        0x0001b7b8:    f64f76ff    O..v    MOV      r6,#0xffff
        0x0001b7bc:    9201        ..      STR      r2,[sp,#4]
        0x0001b7be:    404a        J@      EORS     r2,r2,r1
        0x0001b7c0:    0712        ..      LSLS     r2,r2,#28
        0x0001b7c2:    88c2        ..      LDRH     r2,[r0,#6]
        0x0001b7c4:    bf08        ..      IT       EQ
        0x0001b7c6:    090f        ..      LSREQ    r7,r1,#4
        0x0001b7c8:    0911        ..      LSRS     r1,r2,#4
        0x0001b7ca:    f8551021    U.!.    LDR      r1,[r5,r1,LSL #2]
        0x0001b7ce:    8900        ..      LDRH     r0,[r0,#8]
        0x0001b7d0:    9101        ..      STR      r1,[sp,#4]
        0x0001b7d2:    4051        Q@      EORS     r1,r1,r2
        0x0001b7d4:    0709        ..      LSLS     r1,r1,#28
        0x0001b7d6:    f06f0103    o...    MVN      r1,#3
        0x0001b7da:    ea010090    ....    AND      r0,r1,r0,LSR #2
        0x0001b7de:    5828        (X      LDR      r0,[r5,r0]
        0x0001b7e0:    bf08        ..      IT       EQ
        0x0001b7e2:    0916        ..      LSREQ    r6,r2,#4
        0x0001b7e4:    9001        ..      STR      r0,[sp,#4]
        0x0001b7e6:    f24c701c    L..p    MOV      r0,#0xc71c
        0x0001b7ea:    f2c00001    ....    MOVT     r0,#1
        0x0001b7ee:    f8d0b000    ....    LDR      r11,[r0,#0]
        0x0001b7f2:    1e78        x.      SUBS     r0,r7,#1
        0x0001b7f4:    2500        .%      MOVS     r5,#0
        0x0001b7f6:    287f        .(      CMP      r0,#0x7f
        0x0001b7f8:    f04f0000    O...    MOV      r0,#0
        0x0001b7fc:    bf38        8.      IT       CC
        0x0001b7fe:    2001        .       MOVCC    r0,#1
        0x0001b800:    f88d0008    ....    STRB     r0,[sp,#8]
        0x0001b804:    d207        ..      BCS      0x1b816 ; internal_iom_error_reset_disable_submodule + 274
        0x0001b806:    a901        ..      ADD      r1,sp,#4
        0x0001b808:    4638        8F      MOV      r0,r7
        0x0001b80a:    f7fdfcd3    ....    BL       am_hal_gpio_pinconfig_get ; 0x191b4
        0x0001b80e:    4638        8F      MOV      r0,r7
        0x0001b810:    4659        YF      MOV      r1,r11
        0x0001b812:    f7fdfc83    ....    BL       am_hal_gpio_pinconfig ; 0x1911c
        0x0001b816:    1e70        p.      SUBS     r0,r6,#1
        0x0001b818:    287f        .(      CMP      r0,#0x7f
        0x0001b81a:    bf38        8.      IT       CC
        0x0001b81c:    2501        .%      MOVCC    r5,#1
        0x0001b81e:    287e        ~(      CMP      r0,#0x7e
        0x0001b820:    f88d5010    ...P    STRB     r5,[sp,#0x10]
        0x0001b824:    d809        ..      BHI      0x1b83a ; internal_iom_error_reset_disable_submodule + 310
        0x0001b826:    a801        ..      ADD      r0,sp,#4
        0x0001b828:    f1000108    ....    ADD      r1,r0,#8
        0x0001b82c:    4630        0F      MOV      r0,r6
        0x0001b82e:    f7fdfcc1    ....    BL       am_hal_gpio_pinconfig_get ; 0x191b4
        0x0001b832:    4630        0F      MOV      r0,r6
        0x0001b834:    4659        YF      MOV      r1,r11
        0x0001b836:    f7fdfc71    ..q.    BL       am_hal_gpio_pinconfig ; 0x1911c
        0x0001b83a:    2000        .       MOVS     r0,#0
        0x0001b83c:    f88d0018    ....    STRB     r0,[sp,#0x18]
        0x0001b840:    f8991008    ....    LDRB     r1,[r9,#8]
        0x0001b844:    f8d4211c    ...!    LDR      r2,[r4,#0x11c]
        0x0001b848:    2900        .)      CMP      r1,#0
        0x0001b84a:    f3c20242    ..B.    UBFX     r2,r2,#1,#3
        0x0001b84e:    bf18        ..      IT       NE
        0x0001b850:    2101        .!      MOVNE    r1,#1
        0x0001b852:    428a        .B      CMP      r2,r1
        0x0001b854:    d005        ..      BEQ      0x1b862 ; internal_iom_error_reset_disable_submodule + 350
        0x0001b856:    f8d4211c    ...!    LDR      r2,[r4,#0x11c]
        0x0001b85a:    f3c21242    ..B.    UBFX     r2,r2,#5,#3
        0x0001b85e:    428a        .B      CMP      r2,r1
        0x0001b860:    d149        I.      BNE      0x1b8f6 ; internal_iom_error_reset_disable_submodule + 498
        0x0001b862:    f8c4011c    ....    STR      r0,[r4,#0x11c]
        0x0001b866:    f8d40110    ....    LDR      r0,[r4,#0x110]
        0x0001b86a:    f0200002     ...    BIC      r0,r0,#2
        0x0001b86e:    f8c40110    ....    STR      r0,[r4,#0x110]
        0x0001b872:    f8d40388    ....    LDR      r0,[r4,#0x388]
        0x0001b876:    f0400002    @...    ORR      r0,r0,#2
        0x0001b87a:    f8c40388    ....    STR      r0,[r4,#0x388]
        0x0001b87e:    4640        @F      MOV      r0,r8
        0x0001b880:    f7fdf9c6    ....    BL       am_hal_delay_us ; 0x18c10
        0x0001b884:    f89d0008    ....    LDRB     r0,[sp,#8]
        0x0001b888:    b118        ..      CBZ      r0,0x1b892 ; internal_iom_error_reset_disable_submodule + 398
        0x0001b88a:    9901        ..      LDR      r1,[sp,#4]
        0x0001b88c:    4638        8F      MOV      r0,r7
        0x0001b88e:    f7fdfc45    ..E.    BL       am_hal_gpio_pinconfig ; 0x1911c
        0x0001b892:    f89d0010    ....    LDRB     r0,[sp,#0x10]
        0x0001b896:    b118        ..      CBZ      r0,0x1b8a0 ; internal_iom_error_reset_disable_submodule + 412
        0x0001b898:    9903        ..      LDR      r1,[sp,#0xc]
        0x0001b89a:    4630        0F      MOV      r0,r6
        0x0001b89c:    f7fdfc3e    ..>.    BL       am_hal_gpio_pinconfig ; 0x1911c
        0x0001b8a0:    f89d0018    ....    LDRB     r0,[sp,#0x18]
        0x0001b8a4:    b120         .      CBZ      r0,0x1b8b0 ; internal_iom_error_reset_disable_submodule + 428
        0x0001b8a6:    9905        ..      LDR      r1,[sp,#0x14]
        0x0001b8a8:    f64f70ff    O..p    MOV      r0,#0xffff
        0x0001b8ac:    f7fdfc36    ..6.    BL       am_hal_gpio_pinconfig ; 0x1911c
        0x0001b8b0:    f8c4a388    ....    STR      r10,[r4,#0x388]
        0x0001b8b4:    f8d40110    ....    LDR      r0,[r4,#0x110]
        0x0001b8b8:    f0400002    @...    ORR      r0,r0,#2
        0x0001b8bc:    f8c40110    ....    STR      r0,[r4,#0x110]
        0x0001b8c0:    f8990008    ....    LDRB     r0,[r9,#8]
        0x0001b8c4:    f8d4111c    ....    LDR      r1,[r4,#0x11c]
        0x0001b8c8:    2800        .(      CMP      r0,#0
        0x0001b8ca:    f3c10142    ..B.    UBFX     r1,r1,#1,#3
        0x0001b8ce:    bf18        ..      IT       NE
        0x0001b8d0:    2001        .       MOVNE    r0,#1
        0x0001b8d2:    4281        .B      CMP      r1,r0
        0x0001b8d4:    d106        ..      BNE      0x1b8e4 ; internal_iom_error_reset_disable_submodule + 480
        0x0001b8d6:    2001        .       MOVS     r0,#1
        0x0001b8d8:    f8c4011c    ....    STR      r0,[r4,#0x11c]
        0x0001b8dc:    b007        ..      ADD      sp,sp,#0x1c
        0x0001b8de:    e8bd8ff0    ....    POP      {r4-r11,pc}
        0x0001b8e2:    bf00        ..      NOP      
        0x0001b8e4:    f8d4111c    ....    LDR      r1,[r4,#0x11c]
        0x0001b8e8:    f3c11142    ..B.    UBFX     r1,r1,#5,#3
        0x0001b8ec:    4281        .B      CMP      r1,r0
        0x0001b8ee:    d102        ..      BNE      0x1b8f6 ; internal_iom_error_reset_disable_submodule + 498
        0x0001b8f0:    2010        .       MOVS     r0,#0x10
        0x0001b8f2:    f8c4011c    ....    STR      r0,[r4,#0x11c]
        0x0001b8f6:    b007        ..      ADD      sp,sp,#0x1c
        0x0001b8f8:    e8bd8ff0    ....    POP      {r4-r11,pc}
    internal_iom_reset_on_error
        0x0001b8fc:    e92d4ff0    -..O    PUSH     {r4-r11,lr}
        0x0001b900:    b089        ..      SUB      sp,sp,#0x24
        0x0001b902:    4680        .F      MOV      r8,r0
        0x0001b904:    6840        @h      LDR      r0,[r0,#4]
        0x0001b906:    2600        .&      MOVS     r6,#0
        0x0001b908:    f2c40601    ....    MOVT     r6,#0x4001
        0x0001b90c:    eb063000    ...0    ADD      r0,r6,r0,LSL #12
        0x0001b910:    f5002480    ...$    ADD      r4,r0,#0x40000
        0x0001b914:    f8d4b200    ....    LDR      r11,[r4,#0x200]
        0x0001b918:    460d        .F      MOV      r5,r1
        0x0001b91a:    2000        .       MOVS     r0,#0
        0x0001b91c:    0509        ..      LSLS     r1,r1,#20
        0x0001b91e:    f8c40200    ....    STR      r0,[r4,#0x200]
        0x0001b922:    f1408089    @...    BPL.W    0x1ba38 ; internal_iom_reset_on_error + 316
        0x0001b926:    f8d40218    ....    LDR      r0,[r4,#0x218]
        0x0001b92a:    0780        ..      LSLS     r0,r0,#30
        0x0001b92c:    d456        V.      BMI      0x1b9dc ; internal_iom_reset_on_error + 224
        0x0001b92e:    f8d40248    ..H.    LDR      r0,[r4,#0x248]
        0x0001b932:    f5047112    ...q    ADD      r1,r4,#0x248
        0x0001b936:    0780        ..      LSLS     r0,r0,#30
        0x0001b938:    d410        ..      BMI      0x1b95c ; internal_iom_reset_on_error + 96
        0x0001b93a:    f24a1020    J. .    MOV      r0,#0xa120
        0x0001b93e:    2701        .'      MOVS     r7,#1
        0x0001b940:    f2c00007    ....    MOVT     r0,#7
        0x0001b944:    2206        ."      MOVS     r2,#6
        0x0001b946:    2304        .#      MOVS     r3,#4
        0x0001b948:    9700        ..      STR      r7,[sp,#0]
        0x0001b94a:    f7fdf9a9    ....    BL       am_hal_delay_us_status_check ; 0x18ca0
        0x0001b94e:    2800        .(      CMP      r0,#0
        0x0001b950:    d172        r.      BNE      0x1ba38 ; internal_iom_reset_on_error + 316
        0x0001b952:    e027        '.      B        0x1b9a4 ; internal_iom_reset_on_error + 168
        0x0001b954:    6808        .h      LDR      r0,[r1,#0]
        0x0001b956:    0780        ..      LSLS     r0,r0,#30
        0x0001b958:    d5ef        ..      BPL      0x1b93a ; internal_iom_reset_on_error + 62
        0x0001b95a:    bf00        ..      NOP      
        0x0001b95c:    f8d40100    ....    LDR      r0,[r4,#0x100]
        0x0001b960:    f4100f7c    ..|.    TST      r0,#0xfc0000
        0x0001b964:    d0f6        ..      BEQ      0x1b954 ; internal_iom_reset_on_error + 88
        0x0001b966:    f8d40108    ....    LDR      r0,[r4,#0x108]
        0x0001b96a:    f8d40100    ....    LDR      r0,[r4,#0x100]
        0x0001b96e:    f4100f7c    ..|.    TST      r0,#0xfc0000
        0x0001b972:    d0ef        ..      BEQ      0x1b954 ; internal_iom_reset_on_error + 88
        0x0001b974:    f8d40108    ....    LDR      r0,[r4,#0x108]
        0x0001b978:    f8d40100    ....    LDR      r0,[r4,#0x100]
        0x0001b97c:    f4100f7c    ..|.    TST      r0,#0xfc0000
        0x0001b980:    d0e8        ..      BEQ      0x1b954 ; internal_iom_reset_on_error + 88
        0x0001b982:    f8d40108    ....    LDR      r0,[r4,#0x108]
        0x0001b986:    f8d40100    ....    LDR      r0,[r4,#0x100]
        0x0001b98a:    f4100f7c    ..|.    TST      r0,#0xfc0000
        0x0001b98e:    d0e1        ..      BEQ      0x1b954 ; internal_iom_reset_on_error + 88
        0x0001b990:    f8d40108    ....    LDR      r0,[r4,#0x108]
        0x0001b994:    f8d40100    ....    LDR      r0,[r4,#0x100]
        0x0001b998:    f4100f7c    ..|.    TST      r0,#0xfc0000
        0x0001b99c:    d1e3        ..      BNE      0x1b966 ; internal_iom_reset_on_error + 106
        0x0001b99e:    e7d9        ..      B        0x1b954 ; internal_iom_reset_on_error + 88
        0x0001b9a0:    f8d40108    ....    LDR      r0,[r4,#0x108]
        0x0001b9a4:    f8d40100    ....    LDR      r0,[r4,#0x100]
        0x0001b9a8:    f4100f7c    ..|.    TST      r0,#0xfc0000
        0x0001b9ac:    d044        D.      BEQ      0x1ba38 ; internal_iom_reset_on_error + 316
        0x0001b9ae:    f8d40108    ....    LDR      r0,[r4,#0x108]
        0x0001b9b2:    f8d40100    ....    LDR      r0,[r4,#0x100]
        0x0001b9b6:    f4100f7c    ..|.    TST      r0,#0xfc0000
        0x0001b9ba:    d03d        =.      BEQ      0x1ba38 ; internal_iom_reset_on_error + 316
        0x0001b9bc:    f8d40108    ....    LDR      r0,[r4,#0x108]
        0x0001b9c0:    f8d40100    ....    LDR      r0,[r4,#0x100]
        0x0001b9c4:    f4100f7c    ..|.    TST      r0,#0xfc0000
        0x0001b9c8:    d036        6.      BEQ      0x1ba38 ; internal_iom_reset_on_error + 316
        0x0001b9ca:    f8d40108    ....    LDR      r0,[r4,#0x108]
        0x0001b9ce:    f8d40100    ....    LDR      r0,[r4,#0x100]
        0x0001b9d2:    f4100f7c    ..|.    TST      r0,#0xfc0000
        0x0001b9d6:    d1e3        ..      BNE      0x1b9a0 ; internal_iom_reset_on_error + 164
        0x0001b9d8:    e02e        ..      B        0x1ba38 ; internal_iom_reset_on_error + 316
        0x0001b9da:    bf00        ..      NOP      
        0x0001b9dc:    f8d4021c    ....    LDR      r0,[r4,#0x21c]
        0x0001b9e0:    b1f0        ..      CBZ      r0,0x1ba20 ; internal_iom_reset_on_error + 292
        0x0001b9e2:    f64b61ef    K..a    MOV      r1,#0xbeef
        0x0001b9e6:    f6cd61ad    ...a    MOVT     r1,#0xdead
        0x0001b9ea:    bf00        ..      NOP      
        0x0001b9ec:    f8d42100    ...!    LDR      r2,[r4,#0x100]
        0x0001b9f0:    f4124f7c    ..|O    TST      r2,#0xfc00
        0x0001b9f4:    d10e        ..      BNE      0x1ba14 ; internal_iom_reset_on_error + 280
        0x0001b9f6:    f8d42100    ...!    LDR      r2,[r4,#0x100]
        0x0001b9fa:    f4124f7c    ..|O    TST      r2,#0xfc00
        0x0001b9fe:    d109        ..      BNE      0x1ba14 ; internal_iom_reset_on_error + 280
        0x0001ba00:    f8d42100    ...!    LDR      r2,[r4,#0x100]
        0x0001ba04:    f4124f7c    ..|O    TST      r2,#0xfc00
        0x0001ba08:    d104        ..      BNE      0x1ba14 ; internal_iom_reset_on_error + 280
        0x0001ba0a:    f8d42100    ...!    LDR      r2,[r4,#0x100]
        0x0001ba0e:    f4124f7c    ..|O    TST      r2,#0xfc00
        0x0001ba12:    d0eb        ..      BEQ      0x1b9ec ; internal_iom_reset_on_error + 240
        0x0001ba14:    2805        .(      CMP      r0,#5
        0x0001ba16:    f8c4110c    ....    STR      r1,[r4,#0x10c]
        0x0001ba1a:    d301        ..      BCC      0x1ba20 ; internal_iom_reset_on_error + 292
        0x0001ba1c:    3804        .8      SUBS     r0,#4
        0x0001ba1e:    e7e5        ..      B        0x1b9ec ; internal_iom_reset_on_error + 240
        0x0001ba20:    f24a1020    J. .    MOV      r0,#0xa120
        0x0001ba24:    f5047112    ...q    ADD      r1,r4,#0x248
        0x0001ba28:    2701        .'      MOVS     r7,#1
        0x0001ba2a:    f2c00007    ....    MOVT     r0,#7
        0x0001ba2e:    2206        ."      MOVS     r2,#6
        0x0001ba30:    2304        .#      MOVS     r3,#4
        0x0001ba32:    9700        ..      STR      r7,[sp,#0]
        0x0001ba34:    f7fdf934    ..4.    BL       am_hal_delay_us_status_check ; 0x18ca0
        0x0001ba38:    f4157f04    ....    TST      r5,#0x210
        0x0001ba3c:    d002        ..      BEQ      0x1ba44 ; internal_iom_reset_on_error + 328
        0x0001ba3e:    4640        @F      MOV      r0,r8
        0x0001ba40:    f7fffe60    ..`.    BL       internal_iom_error_reset_disable_submodule ; 0x1b704
        0x0001ba44:    f8d40248    ..H.    LDR      r0,[r4,#0x248]
        0x0001ba48:    0780        ..      LSLS     r0,r0,#30
        0x0001ba4a:    f14081a8    @...    BPL.W    0x1bd9e ; internal_iom_reset_on_error + 1186
        0x0001ba4e:    f8d80004    ....    LDR      r0,[r8,#4]
        0x0001ba52:    eb063100    ...1    ADD      r1,r6,r0,LSL #12
        0x0001ba56:    f5012a80    ...*    ADD      r10,r1,#0x40000
        0x0001ba5a:    f8da312c    ..,1    LDR      r3,[r10,#0x12c]
        0x0001ba5e:    f8d81864    ..d.    LDR      r1,[r8,#0x864]
        0x0001ba62:    eb000080    ....    ADD      r0,r0,r0,LSL #2
        0x0001ba66:    eb010241    ..A.    ADD      r2,r1,r1,LSL #1
        0x0001ba6a:    2900        .)      CMP      r1,#0
        0x0001ba6c:    f8981008    ....    LDRB     r1,[r8,#8]
        0x0001ba70:    ea4f0942    O.B.    LSL      r9,r2,#1
        0x0001ba74:    bf08        ..      IT       EQ
        0x0001ba76:    f04f0906    O...    MOVEQ    r9,#6
        0x0001ba7a:    2900        .)      CMP      r1,#0
        0x0001ba7c:    f64c319c    L..1    MOV      r1,#0xcb9c
        0x0001ba80:    f2c00101    ....    MOVT     r1,#1
        0x0001ba84:    e9cd3b01    ...;    STRD     r3,r11,[sp,#4]
        0x0001ba88:    d01c        ..      BEQ      0x1bac4 ; internal_iom_reset_on_error + 456
        0x0001ba8a:    f8312010    1..     LDRH     r2,[r1,r0,LSL #1]
        0x0001ba8e:    eb010040    ..@.    ADD      r0,r1,r0,LSL #1
        0x0001ba92:    0913        ..      LSRS     r3,r2,#4
        0x0001ba94:    f8563023    V.#0    LDR      r3,[r6,r3,LSL #2]
        0x0001ba98:    8880        ..      LDRH     r0,[r0,#4]
        0x0001ba9a:    ea830102    ....    EOR      r1,r3,r2
        0x0001ba9e:    0709        ..      LSLS     r1,r1,#28
        0x0001baa0:    f64f77ff    O..w    MOV      r7,#0xffff
        0x0001baa4:    ea4f1110    O...    LSR      r1,r0,#4
        0x0001baa8:    9303        ..      STR      r3,[sp,#0xc]
        0x0001baaa:    bf08        ..      IT       EQ
        0x0001baac:    0917        ..      LSREQ    r7,r2,#4
        0x0001baae:    f8561021    V.!.    LDR      r1,[r6,r1,LSL #2]
        0x0001bab2:    f64f76ff    O..v    MOV      r6,#0xffff
        0x0001bab6:    9103        ..      STR      r1,[sp,#0xc]
        0x0001bab8:    4041        A@      EORS     r1,r1,r0
        0x0001baba:    0709        ..      LSLS     r1,r1,#28
        0x0001babc:    bf08        ..      IT       EQ
        0x0001babe:    0906        ..      LSREQ    r6,r0,#4
        0x0001bac0:    e020         .      B        0x1bb04 ; internal_iom_reset_on_error + 520
        0x0001bac2:    bf00        ..      NOP      
        0x0001bac4:    eb010040    ..@.    ADD      r0,r1,r0,LSL #1
        0x0001bac8:    8841        A.      LDRH     r1,[r0,#2]
        0x0001baca:    f64f77ff    O..w    MOV      r7,#0xffff
        0x0001bace:    090a        ..      LSRS     r2,r1,#4
        0x0001bad0:    f8562022    V."     LDR      r2,[r6,r2,LSL #2]
        0x0001bad4:    4633        3F      MOV      r3,r6
        0x0001bad6:    9203        ..      STR      r2,[sp,#0xc]
        0x0001bad8:    404a        J@      EORS     r2,r2,r1
        0x0001bada:    0712        ..      LSLS     r2,r2,#28
        0x0001badc:    88c2        ..      LDRH     r2,[r0,#6]
        0x0001bade:    bf08        ..      IT       EQ
        0x0001bae0:    090f        ..      LSREQ    r7,r1,#4
        0x0001bae2:    0911        ..      LSRS     r1,r2,#4
        0x0001bae4:    f8561021    V.!.    LDR      r1,[r6,r1,LSL #2]
        0x0001bae8:    8900        ..      LDRH     r0,[r0,#8]
        0x0001baea:    9103        ..      STR      r1,[sp,#0xc]
        0x0001baec:    4051        Q@      EORS     r1,r1,r2
        0x0001baee:    0709        ..      LSLS     r1,r1,#28
        0x0001baf0:    f06f0103    o...    MVN      r1,#3
        0x0001baf4:    ea010090    ....    AND      r0,r1,r0,LSR #2
        0x0001baf8:    5818        .X      LDR      r0,[r3,r0]
        0x0001bafa:    f64f76ff    O..v    MOV      r6,#0xffff
        0x0001bafe:    bf08        ..      IT       EQ
        0x0001bb00:    0916        ..      LSREQ    r6,r2,#4
        0x0001bb02:    9003        ..      STR      r0,[sp,#0xc]
        0x0001bb04:    f24c701c    L..p    MOV      r0,#0xc71c
        0x0001bb08:    f2c00001    ....    MOVT     r0,#1
        0x0001bb0c:    6805        .h      LDR      r5,[r0,#0]
        0x0001bb0e:    1e78        x.      SUBS     r0,r7,#1
        0x0001bb10:    287f        .(      CMP      r0,#0x7f
        0x0001bb12:    f04f0100    O...    MOV      r1,#0
        0x0001bb16:    f04f0b00    O...    MOV      r11,#0
        0x0001bb1a:    bf38        8.      IT       CC
        0x0001bb1c:    2101        .!      MOVCC    r1,#1
        0x0001bb1e:    287e        ~(      CMP      r0,#0x7e
        0x0001bb20:    f88d1010    ....    STRB     r1,[sp,#0x10]
        0x0001bb24:    d807        ..      BHI      0x1bb36 ; internal_iom_reset_on_error + 570
        0x0001bb26:    a903        ..      ADD      r1,sp,#0xc
        0x0001bb28:    4638        8F      MOV      r0,r7
        0x0001bb2a:    f7fdfb43    ..C.    BL       am_hal_gpio_pinconfig_get ; 0x191b4
        0x0001bb2e:    4638        8F      MOV      r0,r7
        0x0001bb30:    4629        )F      MOV      r1,r5
        0x0001bb32:    f7fdfaf3    ....    BL       am_hal_gpio_pinconfig ; 0x1911c
        0x0001bb36:    1e70        p.      SUBS     r0,r6,#1
        0x0001bb38:    287f        .(      CMP      r0,#0x7f
        0x0001bb3a:    bf38        8.      IT       CC
        0x0001bb3c:    f04f0b01    O...    MOVCC    r11,#1
        0x0001bb40:    287e        ~(      CMP      r0,#0x7e
        0x0001bb42:    f88db018    ....    STRB     r11,[sp,#0x18]
        0x0001bb46:    d809        ..      BHI      0x1bb5c ; internal_iom_reset_on_error + 608
        0x0001bb48:    a803        ..      ADD      r0,sp,#0xc
        0x0001bb4a:    f1000108    ....    ADD      r1,r0,#8
        0x0001bb4e:    4630        0F      MOV      r0,r6
        0x0001bb50:    f7fdfb30    ..0.    BL       am_hal_gpio_pinconfig_get ; 0x191b4
        0x0001bb54:    4630        0F      MOV      r0,r6
        0x0001bb56:    4629        )F      MOV      r1,r5
        0x0001bb58:    f7fdfae0    ....    BL       am_hal_gpio_pinconfig ; 0x1911c
        0x0001bb5c:    2000        .       MOVS     r0,#0
        0x0001bb5e:    f88d0020    .. .    STRB     r0,[sp,#0x20]
        0x0001bb62:    4648        HF      MOV      r0,r9
        0x0001bb64:    f7fdf854    ..T.    BL       am_hal_delay_us ; 0x18c10
        0x0001bb68:    f89d0010    ....    LDRB     r0,[sp,#0x10]
        0x0001bb6c:    f8ddb008    ....    LDR      r11,[sp,#8]
        0x0001bb70:    b118        ..      CBZ      r0,0x1bb7a ; internal_iom_reset_on_error + 638
        0x0001bb72:    9903        ..      LDR      r1,[sp,#0xc]
        0x0001bb74:    4638        8F      MOV      r0,r7
        0x0001bb76:    f7fdfad1    ....    BL       am_hal_gpio_pinconfig ; 0x1911c
        0x0001bb7a:    f89d0018    ....    LDRB     r0,[sp,#0x18]
        0x0001bb7e:    b118        ..      CBZ      r0,0x1bb88 ; internal_iom_reset_on_error + 652
        0x0001bb80:    9905        ..      LDR      r1,[sp,#0x14]
        0x0001bb82:    4630        0F      MOV      r0,r6
        0x0001bb84:    f7fdfaca    ....    BL       am_hal_gpio_pinconfig ; 0x1911c
        0x0001bb88:    f89d0020    .. .    LDRB     r0,[sp,#0x20]
        0x0001bb8c:    9e01        ..      LDR      r6,[sp,#4]
        0x0001bb8e:    f006051f    ....    AND      r5,r6,#0x1f
        0x0001bb92:    b120         .      CBZ      r0,0x1bb9e ; internal_iom_reset_on_error + 674
        0x0001bb94:    9907        ..      LDR      r1,[sp,#0x1c]
        0x0001bb96:    f64f70ff    O..p    MOV      r0,#0xffff
        0x0001bb9a:    f7fdfabf    ....    BL       am_hal_gpio_pinconfig ; 0x1911c
        0x0001bb9e:    2000        .       MOVS     r0,#0
        0x0001bba0:    2d01        .-      CMP      r5,#1
        0x0001bba2:    f2c40001    ....    MOVT     r0,#0x4001
        0x0001bba6:    d15f        _.      BNE      0x1bc68 ; internal_iom_reset_on_error + 876
        0x0001bba8:    f3c6250b    ...%    UBFX     r5,r6,#8,#12
        0x0001bbac:    2d00        .-      CMP      r5,#0
        0x0001bbae:    f00080e6    ....    BEQ.W    0x1bd7e ; internal_iom_reset_on_error + 1154
        0x0001bbb2:    4602        .F      MOV      r2,r0
        0x0001bbb4:    f8d80864    ..d.    LDR      r0,[r8,#0x864]
        0x0001bbb8:    f8d81004    ....    LDR      r1,[r8,#4]
        0x0001bbbc:    4368        hC      MULS     r0,r5,r0
        0x0001bbbe:    eb000080    ....    ADD      r0,r0,r0,LSL #2
        0x0001bbc2:    f64b66ef    K..f    MOV      r6,#0xbeef
        0x0001bbc6:    ea5f0880    _...    LSLS     r8,r0,#2
        0x0001bbca:    eb023001    ...0    ADD      r0,r2,r1,LSL #12
        0x0001bbce:    f6cd66ad    ...f    MOVT     r6,#0xdead
        0x0001bbd2:    f5002780    ...'    ADD      r7,r0,#0x40000
        0x0001bbd6:    f04f0900    O...    MOV      r9,#0
        0x0001bbda:    bf08        ..      IT       EQ
        0x0001bbdc:    f04f0801    O...    MOVEQ    r8,#1
        0x0001bbe0:    f8d70100    ....    LDR      r0,[r7,#0x100]
        0x0001bbe4:    f4104f7c    ..|O    TST      r0,#0xfc00
        0x0001bbe8:    d02c        ,.      BEQ      0x1bc44 ; internal_iom_reset_on_error + 840
        0x0001bbea:    bf00        ..      NOP      
        0x0001bbec:    2d05        .-      CMP      r5,#5
        0x0001bbee:    f8c7610c    ...a    STR      r6,[r7,#0x10c]
        0x0001bbf2:    db27        '.      BLT      0x1bc44 ; internal_iom_reset_on_error + 840
        0x0001bbf4:    f8d70100    ....    LDR      r0,[r7,#0x100]
        0x0001bbf8:    f4104f7c    ..|O    TST      r0,#0xfc00
        0x0001bbfc:    d01c        ..      BEQ      0x1bc38 ; internal_iom_reset_on_error + 828
        0x0001bbfe:    2d09        .-      CMP      r5,#9
        0x0001bc00:    f8c7610c    ...a    STR      r6,[r7,#0x10c]
        0x0001bc04:    d318        ..      BCC      0x1bc38 ; internal_iom_reset_on_error + 828
        0x0001bc06:    f8d70100    ....    LDR      r0,[r7,#0x100]
        0x0001bc0a:    f4104f7c    ..|O    TST      r0,#0xfc00
        0x0001bc0e:    d017        ..      BEQ      0x1bc40 ; internal_iom_reset_on_error + 836
        0x0001bc10:    2d0d        .-      CMP      r5,#0xd
        0x0001bc12:    f8c7610c    ...a    STR      r6,[r7,#0x10c]
        0x0001bc16:    d313        ..      BCC      0x1bc40 ; internal_iom_reset_on_error + 836
        0x0001bc18:    f8d70100    ....    LDR      r0,[r7,#0x100]
        0x0001bc1c:    f4104f7c    ..|O    TST      r0,#0xfc00
        0x0001bc20:    d01e        ..      BEQ      0x1bc60 ; internal_iom_reset_on_error + 868
        0x0001bc22:    2d11        .-      CMP      r5,#0x11
        0x0001bc24:    f8c7610c    ...a    STR      r6,[r7,#0x10c]
        0x0001bc28:    d31a        ..      BCC      0x1bc60 ; internal_iom_reset_on_error + 868
        0x0001bc2a:    f8d70100    ....    LDR      r0,[r7,#0x100]
        0x0001bc2e:    3d10        .=      SUBS     r5,r5,#0x10
        0x0001bc30:    f4104f7c    ..|O    TST      r0,#0xfc00
        0x0001bc34:    d1da        ..      BNE      0x1bbec ; internal_iom_reset_on_error + 752
        0x0001bc36:    e005        ..      B        0x1bc44 ; internal_iom_reset_on_error + 840
        0x0001bc38:    3d04        .=      SUBS     r5,#4
        0x0001bc3a:    45c1        .E      CMP      r9,r8
        0x0001bc3c:    d105        ..      BNE      0x1bc4a ; internal_iom_reset_on_error + 846
        0x0001bc3e:    e0ae        ..      B        0x1bd9e ; internal_iom_reset_on_error + 1186
        0x0001bc40:    3d08        .=      SUBS     r5,r5,#8
        0x0001bc42:    bf00        ..      NOP      
        0x0001bc44:    45c1        .E      CMP      r9,r8
        0x0001bc46:    f00080aa    ....    BEQ.W    0x1bd9e ; internal_iom_reset_on_error + 1186
        0x0001bc4a:    2001        .       MOVS     r0,#1
        0x0001bc4c:    f1090901    ....    ADD      r9,r9,#1
        0x0001bc50:    f7fcffde    ....    BL       am_hal_delay_us ; 0x18c10
        0x0001bc54:    f8d70100    ....    LDR      r0,[r7,#0x100]
        0x0001bc58:    f4104f7c    ..|O    TST      r0,#0xfc00
        0x0001bc5c:    d1c6        ..      BNE      0x1bbec ; internal_iom_reset_on_error + 752
        0x0001bc5e:    e7f1        ..      B        0x1bc44 ; internal_iom_reset_on_error + 840
        0x0001bc60:    3d0c        .=      SUBS     r5,r5,#0xc
        0x0001bc62:    45c1        .E      CMP      r9,r8
        0x0001bc64:    d1f1        ..      BNE      0x1bc4a ; internal_iom_reset_on_error + 846
        0x0001bc66:    e09a        ..      B        0x1bd9e ; internal_iom_reset_on_error + 1186
        0x0001bc68:    2500        .%      MOVS     r5,#0
        0x0001bc6a:    f24c3650    L.P6    MOV      r6,#0xc350
        0x0001bc6e:    e005        ..      B        0x1bc7c ; internal_iom_reset_on_error + 896
        0x0001bc70:    2001        .       MOVS     r0,#1
        0x0001bc72:    f7fcffcd    ....    BL       am_hal_delay_us ; 0x18c10
        0x0001bc76:    3e01        .>      SUBS     r6,#1
        0x0001bc78:    f0008080    ....    BEQ.W    0x1bd7c ; internal_iom_reset_on_error + 1152
        0x0001bc7c:    f8da0248    ..H.    LDR      r0,[r10,#0x248]
        0x0001bc80:    0780        ..      LSLS     r0,r0,#30
        0x0001bc82:    d57b        {.      BPL      0x1bd7c ; internal_iom_reset_on_error + 1152
        0x0001bc84:    f8da0100    ....    LDR      r0,[r10,#0x100]
        0x0001bc88:    f4100f7c    ..|.    TST      r0,#0xfc0000
        0x0001bc8c:    d0f0        ..      BEQ      0x1bc70 ; internal_iom_reset_on_error + 884
        0x0001bc8e:    f8da0108    ....    LDR      r0,[r10,#0x108]
        0x0001bc92:    f8da0100    ....    LDR      r0,[r10,#0x100]
        0x0001bc96:    f4100f7c    ..|.    TST      r0,#0xfc0000
        0x0001bc9a:    d0e9        ..      BEQ      0x1bc70 ; internal_iom_reset_on_error + 884
        0x0001bc9c:    f8da0108    ....    LDR      r0,[r10,#0x108]
        0x0001bca0:    f8da0100    ....    LDR      r0,[r10,#0x100]
        0x0001bca4:    f4100f7c    ..|.    TST      r0,#0xfc0000
        0x0001bca8:    d0e2        ..      BEQ      0x1bc70 ; internal_iom_reset_on_error + 884
        0x0001bcaa:    f8da0108    ....    LDR      r0,[r10,#0x108]
        0x0001bcae:    f8da0100    ....    LDR      r0,[r10,#0x100]
        0x0001bcb2:    f4100f7c    ..|.    TST      r0,#0xfc0000
        0x0001bcb6:    d0db        ..      BEQ      0x1bc70 ; internal_iom_reset_on_error + 884
        0x0001bcb8:    f8da0108    ....    LDR      r0,[r10,#0x108]
        0x0001bcbc:    f8da0100    ....    LDR      r0,[r10,#0x100]
        0x0001bcc0:    f4100f7c    ..|.    TST      r0,#0xfc0000
        0x0001bcc4:    d0d4        ..      BEQ      0x1bc70 ; internal_iom_reset_on_error + 884
        0x0001bcc6:    f8da0108    ....    LDR      r0,[r10,#0x108]
        0x0001bcca:    f8da0100    ....    LDR      r0,[r10,#0x100]
        0x0001bcce:    f4100f7c    ..|.    TST      r0,#0xfc0000
        0x0001bcd2:    d0cd        ..      BEQ      0x1bc70 ; internal_iom_reset_on_error + 884
        0x0001bcd4:    f8da0108    ....    LDR      r0,[r10,#0x108]
        0x0001bcd8:    f8da0100    ....    LDR      r0,[r10,#0x100]
        0x0001bcdc:    f4100f7c    ..|.    TST      r0,#0xfc0000
        0x0001bce0:    d0c6        ..      BEQ      0x1bc70 ; internal_iom_reset_on_error + 884
        0x0001bce2:    f8da0108    ....    LDR      r0,[r10,#0x108]
        0x0001bce6:    f8da0100    ....    LDR      r0,[r10,#0x100]
        0x0001bcea:    f4100f7c    ..|.    TST      r0,#0xfc0000
        0x0001bcee:    d0bf        ..      BEQ      0x1bc70 ; internal_iom_reset_on_error + 884
        0x0001bcf0:    f8da0108    ....    LDR      r0,[r10,#0x108]
        0x0001bcf4:    f8da0100    ....    LDR      r0,[r10,#0x100]
        0x0001bcf8:    f4100f7c    ..|.    TST      r0,#0xfc0000
        0x0001bcfc:    d0b8        ..      BEQ      0x1bc70 ; internal_iom_reset_on_error + 884
        0x0001bcfe:    f8da0108    ....    LDR      r0,[r10,#0x108]
        0x0001bd02:    f8da0100    ....    LDR      r0,[r10,#0x100]
        0x0001bd06:    f4100f7c    ..|.    TST      r0,#0xfc0000
        0x0001bd0a:    d0b1        ..      BEQ      0x1bc70 ; internal_iom_reset_on_error + 884
        0x0001bd0c:    f8da0108    ....    LDR      r0,[r10,#0x108]
        0x0001bd10:    f8da0100    ....    LDR      r0,[r10,#0x100]
        0x0001bd14:    f4100f7c    ..|.    TST      r0,#0xfc0000
        0x0001bd18:    d0aa        ..      BEQ      0x1bc70 ; internal_iom_reset_on_error + 884
        0x0001bd1a:    f8da0108    ....    LDR      r0,[r10,#0x108]
        0x0001bd1e:    f8da0100    ....    LDR      r0,[r10,#0x100]
        0x0001bd22:    f4100f7c    ..|.    TST      r0,#0xfc0000
        0x0001bd26:    d0a3        ..      BEQ      0x1bc70 ; internal_iom_reset_on_error + 884
        0x0001bd28:    f8da0108    ....    LDR      r0,[r10,#0x108]
        0x0001bd2c:    f8da0100    ....    LDR      r0,[r10,#0x100]
        0x0001bd30:    f4100f7c    ..|.    TST      r0,#0xfc0000
        0x0001bd34:    d09c        ..      BEQ      0x1bc70 ; internal_iom_reset_on_error + 884
        0x0001bd36:    f8da0108    ....    LDR      r0,[r10,#0x108]
        0x0001bd3a:    f8da0100    ....    LDR      r0,[r10,#0x100]
        0x0001bd3e:    f4100f7c    ..|.    TST      r0,#0xfc0000
        0x0001bd42:    d095        ..      BEQ      0x1bc70 ; internal_iom_reset_on_error + 884
        0x0001bd44:    f8da0108    ....    LDR      r0,[r10,#0x108]
        0x0001bd48:    f8da0100    ....    LDR      r0,[r10,#0x100]
        0x0001bd4c:    f4100f7c    ..|.    TST      r0,#0xfc0000
        0x0001bd50:    f43faf8e    ?...    BEQ.W    0x1bc70 ; internal_iom_reset_on_error + 884
        0x0001bd54:    f8da0108    ....    LDR      r0,[r10,#0x108]
        0x0001bd58:    f8da0100    ....    LDR      r0,[r10,#0x100]
        0x0001bd5c:    f4100f7c    ..|.    TST      r0,#0xfc0000
        0x0001bd60:    f43faf86    ?...    BEQ.W    0x1bc70 ; internal_iom_reset_on_error + 884
        0x0001bd64:    f8da0108    ....    LDR      r0,[r10,#0x108]
        0x0001bd68:    f8da0100    ....    LDR      r0,[r10,#0x100]
        0x0001bd6c:    f4100f7c    ..|.    TST      r0,#0xfc0000
        0x0001bd70:    bf1c        ..      ITT      NE
        0x0001bd72:    f8da0108    ....    LDRNE    r0,[r10,#0x108]
        0x0001bd76:    2504        .%      MOVNE    r5,#4
        0x0001bd78:    e77a        z.      B        0x1bc70 ; internal_iom_reset_on_error + 884
        0x0001bd7a:    bf00        ..      NOP      
        0x0001bd7c:    b97d        }.      CBNZ     r5,0x1bd9e ; internal_iom_reset_on_error + 1186
        0x0001bd7e:    f24a1020    J. .    MOV      r0,#0xa120
        0x0001bd82:    f50a7112    ...q    ADD      r1,r10,#0x248
        0x0001bd86:    2701        .'      MOVS     r7,#1
        0x0001bd88:    f2c00007    ....    MOVT     r0,#7
        0x0001bd8c:    2206        ."      MOVS     r2,#6
        0x0001bd8e:    2304        .#      MOVS     r3,#4
        0x0001bd90:    9700        ..      STR      r7,[sp,#0]
        0x0001bd92:    f7fcff85    ....    BL       am_hal_delay_us_status_check ; 0x18ca0
        0x0001bd96:    b910        ..      CBNZ     r0,0x1bd9e ; internal_iom_reset_on_error + 1186
        0x0001bd98:    4640        @F      MOV      r0,r8
        0x0001bd9a:    f7fffcb3    ....    BL       internal_iom_error_reset_disable_submodule ; 0x1b704
        0x0001bd9e:    f04f30ff    O..0    MOV      r0,#0xffffffff
        0x0001bda2:    f8c40208    ....    STR      r0,[r4,#0x208]
        0x0001bda6:    f8c4b200    ....    STR      r11,[r4,#0x200]
        0x0001bdaa:    b009        ..      ADD      sp,sp,#0x24
        0x0001bdac:    e8bd8ff0    ....    POP      {r4-r11,pc}
    iom_get_interface_clock_cfg
        0x0001bdb0:    e92d43f0    -..C    PUSH     {r4-r9,lr}
        0x0001bdb4:    2800        .(      CMP      r0,#0
        0x0001bdb6:    d046        F.      BEQ      0x1be46 ; iom_get_interface_clock_cfg + 150
        0x0001bdb8:    f64d0c00    M...    MOVW     r12,#0xd800
        0x0001bdbc:    f2c05cb8    ...\    MOVT     r12,#0x5b8
        0x0001bdc0:    fbbcf2f0    ....    UDIV     r2,r12,r0
        0x0001bdc4:    f24167e3    A..g    MOV      r7,#0x16e3
        0x0001bdc8:    fb02f300    ....    MUL      r3,r2,r0
        0x0001bdcc:    4563        cE      CMP      r3,r12
        0x0001bdce:    bf18        ..      IT       NE
        0x0001bdd0:    3201        .2      ADDNE    r2,#1
        0x0001bdd2:    4253        SB      RSBS     r3,r2,#0
        0x0001bdd4:    4013        .@      ANDS     r3,r3,r2
        0x0001bdd6:    fab3f383    ....    CLZ      r3,r3
        0x0001bdda:    f1c3031f    ....    RSB      r3,r3,#0x1f
        0x0001bdde:    2b06        .+      CMP      r3,#6
        0x0001bde0:    bfa8        ..      IT       GE
        0x0001bde2:    2306        .#      MOVGE    r3,#6
        0x0001bde4:    42b8        .B      CMP      r0,r7
        0x0001bde6:    d203        ..      BCS      0x1bdf0 ; iom_get_interface_clock_cfg + 64
        0x0001bde8:    f04f0e01    O...    MOV      lr,#1
        0x0001bdec:    e010        ..      B        0x1be10 ; iom_get_interface_clock_cfg + 96
        0x0001bdee:    bf00        ..      NOP      
        0x0001bdf0:    f6440700    D...    MOVW     r7,#0x4800
        0x0001bdf4:    f2c017e8    ....    MOVT     r7,#0x1e8
        0x0001bdf8:    42b8        .B      CMP      r0,r7
        0x0001bdfa:    f04f0e00    O...    MOV      lr,#0
        0x0001bdfe:    d307        ..      BCC      0x1be10 ; iom_get_interface_clock_cfg + 96
        0x0001be00:    f6464400    F..D    MOVW     r4,#0x6c00
        0x0001be04:    f2c024dc    ...$    MOVT     r4,#0x2dc
        0x0001be08:    42a0        .B      CMP      r0,r4
        0x0001be0a:    bf38        8.      IT       CC
        0x0001be0c:    f04f0e01    O...    MOVCC    lr,#1
        0x0001be10:    ea4f044e    O.N.    LSL      r4,lr,#1
        0x0001be14:    f1040901    ....    ADD      r9,r4,#1
        0x0001be18:    fa09f403    ....    LSL      r4,r9,r3
        0x0001be1c:    fbb2f6f4    ....    UDIV     r6,r2,r4
        0x0001be20:    fb062414    ...$    MLS      r4,r6,r4,r2
        0x0001be24:    2c00        .,      CMP      r4,#0
        0x0001be26:    bf18        ..      IT       NE
        0x0001be28:    3601        .6      ADDNE    r6,#1
        0x0001be2a:    fab6f786    ....    CLZ      r7,r6
        0x0001be2e:    f0070438    ..8.    AND      r4,r7,#0x38
        0x0001be32:    1bdd        ..      SUBS     r5,r3,r7
        0x0001be34:    2c18        .,      CMP      r4,#0x18
        0x0001be36:    bf18        ..      IT       NE
        0x0001be38:    f1050318    ....    ADDNE    r3,r5,#0x18
        0x0001be3c:    f1030801    ....    ADD      r8,r3,#1
        0x0001be40:    f1b80f07    ....    CMP      r8,#7
        0x0001be44:    d904        ..      BLS      0x1be50 ; iom_get_interface_clock_cfg + 160
        0x0001be46:    2000        .       MOVS     r0,#0
        0x0001be48:    2100        .!      MOVS     r1,#0
        0x0001be4a:    e8bd83f0    ....    POP      {r4-r9,pc}
        0x0001be4e:    bf00        ..      NOP      
        0x0001be50:    2c18        .,      CMP      r4,#0x18
        0x0001be52:    d00a        ..      BEQ      0x1be6a ; iom_get_interface_clock_cfg + 186
        0x0001be54:    f1c70418    ....    RSB      r4,r7,#0x18
        0x0001be58:    f04f35ff    O..5    MOV      r5,#0xffffffff
        0x0001be5c:    40a5        .@      LSLS     r5,r5,r4
        0x0001be5e:    43ed        .C      MVNS     r5,r5
        0x0001be60:    422e        .B      TST      r6,r5
        0x0001be62:    fa26f604    &...    LSR      r6,r6,r4
        0x0001be66:    bf18        ..      IT       NE
        0x0001be68:    3601        .6      ADDNE    r6,#1
        0x0001be6a:    f2436400    C..d    MOVW     r4,#0x3600
        0x0001be6e:    f2c0146e    ..n.    MOVT     r4,#0x16e
        0x0001be72:    42a0        .B      CMP      r0,r4
        0x0001be74:    f04f0001    O...    MOV      r0,#1
        0x0001be78:    f04f0500    O...    MOV      r5,#0
        0x0001be7c:    fa00f403    ....    LSL      r4,r0,r3
        0x0001be80:    bf38        8.      IT       CC
        0x0001be82:    2501        .%      MOVCC    r5,#1
        0x0001be84:    1b12        ..      SUBS     r2,r2,r4
        0x0001be86:    bf18        ..      IT       NE
        0x0001be88:    2201        ."      MOVNE    r2,#1
        0x0001be8a:    402a        *@      ANDS     r2,r2,r5
        0x0001be8c:    1e75        u.      SUBS     r5,r6,#1
        0x0001be8e:    2901        .)      CMP      r1,#1
        0x0001be90:    462f        /F      MOV      r7,r5
        0x0001be92:    bf08        ..      IT       EQ
        0x0001be94:    f50677ff    ...w    ADDEQ    r7,r6,#0x1fe
        0x0001be98:    fa09f103    ....    LSL      r1,r9,r3
        0x0001be9c:    2a00        .*      CMP      r2,#0
        0x0001be9e:    bf18        ..      IT       NE
        0x0001bea0:    4630        0F      MOVNE    r0,r6
        0x0001bea2:    4348        HC      MULS     r0,r1,r0
        0x0001bea4:    fbbcf1f0    ....    UDIV     r1,r12,r0
        0x0001bea8:    f40777ff    ...w    AND      r7,r7,#0x1fe
        0x0001beac:    fb01c410    ....    MLS      r4,r1,r0,r12
        0x0001beb0:    ebb40f50    ..P.    CMP      r4,r0,LSR #1
        0x0001beb4:    f64d6083    M..`    MOV      r0,#0xde83
        0x0001beb8:    f2c4301b    ...0    MOVT     r0,#0x431b
        0x0001bebc:    bf88        ..      IT       HI
        0x0001bebe:    3101        .1      ADDHI    r1,#1
        0x0001bec0:    fba10600    ....    UMULL    r0,r6,r1,r0
        0x0001bec4:    f24d048f    M...    MOV      r4,#0xd08f
        0x0001bec8:    ea4f20ce    O..     LSL      r0,lr,#11
        0x0001becc:    f2c00403    ....    MOVT     r4,#3
        0x0001bed0:    f362300c    b..0    BFI      r0,r2,#12,#1
        0x0001bed4:    ea4030c7    @..0    ORR      r0,r0,r7,LSL #15
        0x0001bed8:    0c37        7.      LSRS     r7,r6,#16
        0x0001beda:    1c66        f.      ADDS     r6,r4,#1
        0x0001bedc:    f44f62e0    O..b    MOV      r2,#0x700
        0x0001bee0:    fb071616    ....    MLS      r6,r7,r6,r1
        0x0001bee4:    ea022208    ..."    AND      r2,r2,r8,LSL #8
        0x0001bee8:    ea406005    @..`    ORR      r0,r0,r5,LSL #24
        0x0001beec:    4410        .D      ADD      r0,r0,r2
        0x0001beee:    b10e        ..      CBZ      r6,0x1bef4 ; iom_get_interface_clock_cfg + 324
        0x0001bef0:    e8bd83f0    ....    POP      {r4-r9,pc}
        0x0001bef4:    42a1        .B      CMP      r1,r4
        0x0001bef6:    d9fb        ..      BLS      0x1bef0 ; iom_get_interface_clock_cfg + 320
        0x0001bef8:    f2415655    A.UV    MOV      r6,#0x1555
        0x0001befc:    ea060657    ..W.    AND      r6,r6,r7,LSR #1
        0x0001bf00:    1bbf        ..      SUBS     r7,r7,r6
        0x0001bf02:    f04f3633    O.36    MOV      r6,#0x33333333
        0x0001bf06:    ea060697    ....    AND      r6,r6,r7,LSR #2
        0x0001bf0a:    f02737cc    '..7    BIC      r7,r7,#0xcccccccc
        0x0001bf0e:    4437        7D      ADD      r7,r7,r6
        0x0001bf10:    eb071717    ....    ADD      r7,r7,r7,LSR #4
        0x0001bf14:    f02737f0    '..7    BIC      r7,r7,#0xf0f0f0f0
        0x0001bf18:    f04f3601    O..6    MOV      r6,#0x1010101
        0x0001bf1c:    4377        wC      MULS     r7,r6,r7
        0x0001bf1e:    0e3f        ?.      LSRS     r7,r7,#24
        0x0001bf20:    2f01        ./      CMP      r7,#1
        0x0001bf22:    bf88        ..      IT       HI
        0x0001bf24:    e8bd83f0    ....    POPHI    {r4-r9,pc}
        0x0001bf28:    2003        .       MOVS     r0,#3
        0x0001bf2a:    4098        .@      LSLS     r0,r0,r3
        0x0001bf2c:    fbbcf1f0    ....    UDIV     r1,r12,r0
        0x0001bf30:    fb01c310    ....    MLS      r3,r1,r0,r12
        0x0001bf34:    ebb30f50    ..P.    CMP      r3,r0,LSR #1
        0x0001bf38:    f5026000    ...`    ADD      r0,r2,#0x800
        0x0001bf3c:    bf88        ..      IT       HI
        0x0001bf3e:    3101        .1      ADDHI    r1,#1
        0x0001bf40:    e8bd83f0    ....    POP      {r4-r9,pc}
    iom_set_up
        0x0001bf44:    b580        ..      PUSH     {r7,lr}
        0x0001bf46:    b08a        ..      SUB      sp,sp,#0x28
        0x0001bf48:    9009        ..      STR      r0,[sp,#0x24]
        0x0001bf4a:    f88d1023    ..#.    STRB     r1,[sp,#0x23]
        0x0001bf4e:    2001        .       MOVS     r0,#1
        0x0001bf50:    9007        ..      STR      r0,[sp,#0x1c]
        0x0001bf52:    9809        ..      LDR      r0,[sp,#0x24]
        0x0001bf54:    f2403194    @..1    MOVW     r1,#0x394
        0x0001bf58:    f2c10100    ....    MOVT     r1,#0x1000
        0x0001bf5c:    9105        ..      STR      r1,[sp,#0x14]
        0x0001bf5e:    f7fdfe7d    ..}.    BL       am_hal_iom_initialize ; 0x19c5c
        0x0001bf62:    9805        ..      LDR      r0,[sp,#0x14]
        0x0001bf64:    6800        .h      LDR      r0,[r0,#0]
        0x0001bf66:    2200        ."      MOVS     r2,#0
        0x0001bf68:    4611        .F      MOV      r1,r2
        0x0001bf6a:    f7fdfe9b    ....    BL       am_hal_iom_power_ctrl ; 0x19ca4
        0x0001bf6e:    f89d0023    ..#.    LDRB     r0,[sp,#0x23]
        0x0001bf72:    07c0        ..      LSLS     r0,r0,#31
        0x0001bf74:    b180        ..      CBZ      r0,0x1bf98 ; iom_set_up + 84
        0x0001bf76:    e7ff        ..      B        0x1bf78 ; iom_set_up + 52
        0x0001bf78:    f2403094    @..0    MOVW     r0,#0x394
        0x0001bf7c:    f2c10000    ....    MOVT     r0,#0x1000
        0x0001bf80:    6800        .h      LDR      r0,[r0,#0]
        0x0001bf82:    f24001e8    @...    MOVW     r1,#0xe8
        0x0001bf86:    f2c10100    ....    MOVT     r1,#0x1000
        0x0001bf8a:    f7fdfd25    ..%.    BL       am_hal_iom_configure ; 0x199d8
        0x0001bf8e:    9809        ..      LDR      r0,[sp,#0x24]
        0x0001bf90:    2100        .!      MOVS     r1,#0
        0x0001bf92:    f7fcfa51    ..Q.    BL       am_bsp_iom_pins_enable ; 0x18438
        0x0001bf96:    e00f        ..      B        0x1bfb8 ; iom_set_up + 116
        0x0001bf98:    f2403094    @..0    MOVW     r0,#0x394
        0x0001bf9c:    f2c10000    ....    MOVT     r0,#0x1000
        0x0001bfa0:    6800        .h      LDR      r0,[r0,#0]
        0x0001bfa2:    f24001d4    @...    MOVW     r1,#0xd4
        0x0001bfa6:    f2c10100    ....    MOVT     r1,#0x1000
        0x0001bfaa:    f7fdfd15    ....    BL       am_hal_iom_configure ; 0x199d8
        0x0001bfae:    9809        ..      LDR      r0,[sp,#0x24]
        0x0001bfb0:    2101        .!      MOVS     r1,#1
        0x0001bfb2:    f7fcfa41    ..A.    BL       am_bsp_iom_pins_enable ; 0x18438
        0x0001bfb6:    e7ff        ..      B        0x1bfb8 ; iom_set_up + 116
        0x0001bfb8:    f2403094    @..0    MOVW     r0,#0x394
        0x0001bfbc:    f2c10000    ....    MOVT     r0,#0x1000
        0x0001bfc0:    6800        .h      LDR      r0,[r0,#0]
        0x0001bfc2:    f7fdfdcb    ....    BL       am_hal_iom_enable ; 0x19b5c
        0x0001bfc6:    f64c2078    L.x     MOV      r0,#0xca78
        0x0001bfca:    f2c00001    ....    MOVT     r0,#1
        0x0001bfce:    6801        .h      LDR      r1,[r0,#0]
        0x0001bfd0:    200c        .       MOVS     r0,#0xc
        0x0001bfd2:    9000        ..      STR      r0,[sp,#0]
        0x0001bfd4:    f7fdf8a2    ....    BL       am_hal_gpio_pinconfig ; 0x1911c
        0x0001bfd8:    9800        ..      LDR      r0,[sp,#0]
        0x0001bfda:    9006        ..      STR      r0,[sp,#0x18]
        0x0001bfdc:    2100        .!      MOVS     r1,#0
        0x0001bfde:    9102        ..      STR      r1,[sp,#8]
        0x0001bfe0:    f7fdf904    ....    BL       am_hal_gpio_state_write ; 0x191ec
        0x0001bfe4:    9802        ..      LDR      r0,[sp,#8]
        0x0001bfe6:    a906        ..      ADD      r1,sp,#0x18
        0x0001bfe8:    9101        ..      STR      r1,[sp,#4]
        0x0001bfea:    f7fcfea5    ....    BL       am_hal_gpio_interrupt_clear ; 0x18d38
        0x0001bfee:    9900        ..      LDR      r1,[sp,#0]
        0x0001bff0:    9b02        ..      LDR      r3,[sp,#8]
        0x0001bff2:    f24b62f5    K..b    MOV      r2,#0xb6f5
        0x0001bff6:    f2c00201    ....    MOVT     r2,#1
        0x0001bffa:    4618        .F      MOV      r0,r3
        0x0001bffc:    f7fcfffc    ....    BL       am_hal_gpio_interrupt_register ; 0x18ff8
        0x0001c000:    9a01        ..      LDR      r2,[sp,#4]
        0x0001c002:    9802        ..      LDR      r0,[sp,#8]
        0x0001c004:    2101        .!      MOVS     r1,#1
        0x0001c006:    9104        ..      STR      r1,[sp,#0x10]
        0x0001c008:    f7fcfeec    ....    BL       am_hal_gpio_interrupt_control ; 0x18de4
        0x0001c00c:    2038        8       MOVS     r0,#0x38
        0x0001c00e:    9003        ..      STR      r0,[sp,#0xc]
        0x0001c010:    2104        .!      MOVS     r1,#4
        0x0001c012:    f7fcf9ef    ....    BL       __NVIC_SetPriority ; 0x183f4
        0x0001c016:    9803        ..      LDR      r0,[sp,#0xc]
        0x0001c018:    f7fcf9d4    ....    BL       __NVIC_EnableIRQ ; 0x183c4
        0x0001c01c:    9b04        ..      LDR      r3,[sp,#0x10]
        0x0001c01e:    f89d0023    ..#.    LDRB     r0,[sp,#0x23]
        0x0001c022:    f0000001    ....    AND      r0,r0,#1
        0x0001c026:    21f8        .!      MOVS     r1,#0xf8
        0x0001c028:    aa07        ..      ADD      r2,sp,#0x1c
        0x0001c02a:    f000f831    ..1.    BL       iom_slave_write ; 0x1c090
        0x0001c02e:    b00a        ..      ADD      sp,sp,#0x28
        0x0001c030:    bd80        ..      POP      {r7,pc}
        0x0001c032:    0000        ..      MOVS     r0,r0
    iom_slave_read
        0x0001c034:    b580        ..      PUSH     {r7,lr}
        0x0001c036:    b090        ..      SUB      sp,sp,#0x40
        0x0001c038:    f88d003f    ..?.    STRB     r0,[sp,#0x3f]
        0x0001c03c:    910e        ..      STR      r1,[sp,#0x38]
        0x0001c03e:    920d        ..      STR      r2,[sp,#0x34]
        0x0001c040:    930c        ..      STR      r3,[sp,#0x30]
        0x0001c042:    2101        .!      MOVS     r1,#1
        0x0001c044:    9101        ..      STR      r1,[sp,#4]
        0x0001c046:    9a0e        ..      LDR      r2,[sp,#0x38]
        0x0001c048:    2000        .       MOVS     r0,#0
        0x0001c04a:    9003        ..      STR      r0,[sp,#0xc]
        0x0001c04c:    9202        ..      STR      r2,[sp,#8]
        0x0001c04e:    f88d1014    ....    STRB     r1,[sp,#0x14]
        0x0001c052:    990c        ..      LDR      r1,[sp,#0x30]
        0x0001c054:    9104        ..      STR      r1,[sp,#0x10]
        0x0001c056:    990d        ..      LDR      r1,[sp,#0x34]
        0x0001c058:    9107        ..      STR      r1,[sp,#0x1c]
        0x0001c05a:    f88d0020    .. .    STRB     r0,[sp,#0x20]
        0x0001c05e:    f88d0021    ..!.    STRB     r0,[sp,#0x21]
        0x0001c062:    9009        ..      STR      r0,[sp,#0x24]
        0x0001c064:    900a        ..      STR      r0,[sp,#0x28]
        0x0001c066:    f89d003f    ..?.    LDRB     r0,[sp,#0x3f]
        0x0001c06a:    07c0        ..      LSLS     r0,r0,#31
        0x0001c06c:    b118        ..      CBZ      r0,0x1c076 ; iom_slave_read + 66
        0x0001c06e:    e7ff        ..      B        0x1c070 ; iom_slave_read + 60
        0x0001c070:    2000        .       MOVS     r0,#0
        0x0001c072:    9000        ..      STR      r0,[sp,#0]
        0x0001c074:    e002        ..      B        0x1c07c ; iom_slave_read + 72
        0x0001c076:    2010        .       MOVS     r0,#0x10
        0x0001c078:    9000        ..      STR      r0,[sp,#0]
        0x0001c07a:    e7ff        ..      B        0x1c07c ; iom_slave_read + 72
        0x0001c07c:    f2403094    @..0    MOVW     r0,#0x394
        0x0001c080:    f2c10000    ....    MOVT     r0,#0x1000
        0x0001c084:    6800        .h      LDR      r0,[r0,#0]
        0x0001c086:    4669        iF      MOV      r1,sp
        0x0001c088:    f7fdf95c    ..\.    BL       am_hal_iom_blocking_transfer ; 0x19344
        0x0001c08c:    b010        ..      ADD      sp,sp,#0x40
        0x0001c08e:    bd80        ..      POP      {r7,pc}
    iom_slave_write
        0x0001c090:    b580        ..      PUSH     {r7,lr}
        0x0001c092:    b090        ..      SUB      sp,sp,#0x40
        0x0001c094:    f88d003f    ..?.    STRB     r0,[sp,#0x3f]
        0x0001c098:    910e        ..      STR      r1,[sp,#0x38]
        0x0001c09a:    920d        ..      STR      r2,[sp,#0x34]
        0x0001c09c:    930c        ..      STR      r3,[sp,#0x30]
        0x0001c09e:    2001        .       MOVS     r0,#1
        0x0001c0a0:    9001        ..      STR      r0,[sp,#4]
        0x0001c0a2:    990e        ..      LDR      r1,[sp,#0x38]
        0x0001c0a4:    2000        .       MOVS     r0,#0
        0x0001c0a6:    9003        ..      STR      r0,[sp,#0xc]
        0x0001c0a8:    9102        ..      STR      r1,[sp,#8]
        0x0001c0aa:    f88d0014    ....    STRB     r0,[sp,#0x14]
        0x0001c0ae:    990c        ..      LDR      r1,[sp,#0x30]
        0x0001c0b0:    9104        ..      STR      r1,[sp,#0x10]
        0x0001c0b2:    990d        ..      LDR      r1,[sp,#0x34]
        0x0001c0b4:    9106        ..      STR      r1,[sp,#0x18]
        0x0001c0b6:    f88d0020    .. .    STRB     r0,[sp,#0x20]
        0x0001c0ba:    f88d0021    ..!.    STRB     r0,[sp,#0x21]
        0x0001c0be:    9009        ..      STR      r0,[sp,#0x24]
        0x0001c0c0:    900a        ..      STR      r0,[sp,#0x28]
        0x0001c0c2:    f89d003f    ..?.    LDRB     r0,[sp,#0x3f]
        0x0001c0c6:    07c0        ..      LSLS     r0,r0,#31
        0x0001c0c8:    b118        ..      CBZ      r0,0x1c0d2 ; iom_slave_write + 66
        0x0001c0ca:    e7ff        ..      B        0x1c0cc ; iom_slave_write + 60
        0x0001c0cc:    2000        .       MOVS     r0,#0
        0x0001c0ce:    9000        ..      STR      r0,[sp,#0]
        0x0001c0d0:    e002        ..      B        0x1c0d8 ; iom_slave_write + 72
        0x0001c0d2:    2010        .       MOVS     r0,#0x10
        0x0001c0d4:    9000        ..      STR      r0,[sp,#0]
        0x0001c0d6:    e7ff        ..      B        0x1c0d8 ; iom_slave_write + 72
        0x0001c0d8:    f2403094    @..0    MOVW     r0,#0x394
        0x0001c0dc:    f2c10000    ....    MOVT     r0,#0x1000
        0x0001c0e0:    6800        .h      LDR      r0,[r0,#0]
        0x0001c0e2:    4669        iF      MOV      r1,sp
        0x0001c0e4:    f7fdf92e    ....    BL       am_hal_iom_blocking_transfer ; 0x19344
        0x0001c0e8:    b010        ..      ADD      sp,sp,#0x40
        0x0001c0ea:    bd80        ..      POP      {r7,pc}
    main
        0x0001c0ec:    b580        ..      PUSH     {r7,lr}
        0x0001c0ee:    b08c        ..      SUB      sp,sp,#0x30
        0x0001c0f0:    2000        .       MOVS     r0,#0
        0x0001c0f2:    9003        ..      STR      r0,[sp,#0xc]
        0x0001c0f4:    900b        ..      STR      r0,[sp,#0x2c]
        0x0001c0f6:    2105        .!      MOVS     r1,#5
        0x0001c0f8:    910a        ..      STR      r1,[sp,#0x28]
        0x0001c0fa:    2101        .!      MOVS     r1,#1
        0x0001c0fc:    9104        ..      STR      r1,[sp,#0x10]
        0x0001c0fe:    f88d1027    ..'.    STRB     r1,[sp,#0x27]
        0x0001c102:    f88d0026    ..&.    STRB     r0,[sp,#0x26]
        0x0001c106:    f88d0025    ..%.    STRB     r0,[sp,#0x25]
        0x0001c10a:    f89d0027    ..'.    LDRB     r0,[sp,#0x27]
        0x0001c10e:    07c1        ..      LSLS     r1,r0,#31
        0x0001c110:    20ff        .       MOVS     r0,#0xff
        0x0001c112:    2900        .)      CMP      r1,#0
        0x0001c114:    bf18        ..      IT       NE
        0x0001c116:    f24030ff    @..0    MOVNE    r0,#0x3ff
        0x0001c11a:    9007        ..      STR      r0,[sp,#0x1c]
        0x0001c11c:    f7fcfafe    ....    BL       am_bsp_itm_printf_enable ; 0x1871c
        0x0001c120:    f7fefa88    ....    BL       am_util_stdio_terminal_clear ; 0x1a634
        0x0001c124:    f64c20e8    L..     MOV      r0,#0xcae8
        0x0001c128:    f2c00001    ....    MOVT     r0,#1
        0x0001c12c:    f2427110    B..q    MOV      r1,#0x2710
        0x0001c130:    f7fefa48    ..H.    BL       am_util_stdio_printf ; 0x1a5c4
        0x0001c134:    200a        .       MOVS     r0,#0xa
        0x0001c136:    f7fefa39    ..9.    BL       am_util_delay_ms ; 0x1a5ac
        0x0001c13a:    f7fdf8e1    ....    BL       am_hal_interrupt_master_enable ; 0x19300
        0x0001c13e:    980a        ..      LDR      r0,[sp,#0x28]
        0x0001c140:    f89d1027    ..'.    LDRB     r1,[sp,#0x27]
        0x0001c144:    f0010101    ....    AND      r1,r1,#1
        0x0001c148:    f7fffefc    ....    BL       iom_set_up ; 0x1bf44
        0x0001c14c:    2064        d       MOVS     r0,#0x64
        0x0001c14e:    f7fefa2d    ..-.    BL       am_util_delay_ms ; 0x1a5ac
        0x0001c152:    9803        ..      LDR      r0,[sp,#0xc]
        0x0001c154:    9b04        ..      LDR      r3,[sp,#0x10]
        0x0001c156:    9008        ..      STR      r0,[sp,#0x20]
        0x0001c158:    f89d0027    ..'.    LDRB     r0,[sp,#0x27]
        0x0001c15c:    f0000001    ....    AND      r0,r0,#1
        0x0001c160:    2180        .!      MOVS     r1,#0x80
        0x0001c162:    aa08        ..      ADD      r2,sp,#0x20
        0x0001c164:    f7ffff94    ....    BL       iom_slave_write ; 0x1c090
        0x0001c168:    e7ff        ..      B        0x1c16a ; main + 126
        0x0001c16a:    f89d0025    ..%.    LDRB     r0,[sp,#0x25]
        0x0001c16e:    07c0        ..      LSLS     r0,r0,#31
        0x0001c170:    2800        .(      CMP      r0,#0
        0x0001c172:    f040809d    @...    BNE.W    0x1c2b0 ; main + 452
        0x0001c176:    e7ff        ..      B        0x1c178 ; main + 140
        0x0001c178:    f7fdf8be    ....    BL       am_hal_interrupt_master_disable ; 0x192f8
        0x0001c17c:    9006        ..      STR      r0,[sp,#0x18]
        0x0001c17e:    f240108c    @...    MOVW     r0,#0x18c
        0x0001c182:    f2c10000    ....    MOVT     r0,#0x1000
        0x0001c186:    7800        .x      LDRB     r0,[r0,#0]
        0x0001c188:    07c0        ..      LSLS     r0,r0,#31
        0x0001c18a:    2800        .(      CMP      r0,#0
        0x0001c18c:    f0008088    ....    BEQ.W    0x1c2a0 ; main + 436
        0x0001c190:    e7ff        ..      B        0x1c192 ; main + 166
        0x0001c192:    9806        ..      LDR      r0,[sp,#0x18]
        0x0001c194:    f7fdf8b8    ....    BL       am_hal_interrupt_master_set ; 0x19308
        0x0001c198:    f240118c    @...    MOVW     r1,#0x18c
        0x0001c19c:    f2c10100    ....    MOVT     r1,#0x1000
        0x0001c1a0:    2000        .       MOVS     r0,#0
        0x0001c1a2:    7008        .p      STRB     r0,[r1,#0]
        0x0001c1a4:    f89d0027    ..'.    LDRB     r0,[sp,#0x27]
        0x0001c1a8:    f0000001    ....    AND      r0,r0,#1
        0x0001c1ac:    2179        y!      MOVS     r1,#0x79
        0x0001c1ae:    aa08        ..      ADD      r2,sp,#0x20
        0x0001c1b0:    2301        .#      MOVS     r3,#1
        0x0001c1b2:    f7ffff3f    ..?.    BL       iom_slave_read ; 0x1c034
        0x0001c1b6:    f89d0020    .. .    LDRB     r0,[sp,#0x20]
        0x0001c1ba:    07c0        ..      LSLS     r0,r0,#31
        0x0001c1bc:    b178        x.      CBZ      r0,0x1c1de ; main + 242
        0x0001c1be:    e7ff        ..      B        0x1c1c0 ; main + 212
        0x0001c1c0:    2301        .#      MOVS     r3,#1
        0x0001c1c2:    9302        ..      STR      r3,[sp,#8]
        0x0001c1c4:    9308        ..      STR      r3,[sp,#0x20]
        0x0001c1c6:    f89d0027    ..'.    LDRB     r0,[sp,#0x27]
        0x0001c1ca:    f0000001    ....    AND      r0,r0,#1
        0x0001c1ce:    21fa        .!      MOVS     r1,#0xfa
        0x0001c1d0:    aa08        ..      ADD      r2,sp,#0x20
        0x0001c1d2:    f7ffff5d    ..].    BL       iom_slave_write ; 0x1c090
        0x0001c1d6:    9802        ..      LDR      r0,[sp,#8]
        0x0001c1d8:    f88d0026    ..&.    STRB     r0,[sp,#0x26]
        0x0001c1dc:    e7ff        ..      B        0x1c1de ; main + 242
        0x0001c1de:    f89d0026    ..&.    LDRB     r0,[sp,#0x26]
        0x0001c1e2:    07c0        ..      LSLS     r0,r0,#31
        0x0001c1e4:    2800        .(      CMP      r0,#0
        0x0001c1e6:    d05a        Z.      BEQ      0x1c29e ; main + 434
        0x0001c1e8:    e7ff        ..      B        0x1c1ea ; main + 254
        0x0001c1ea:    2000        .       MOVS     r0,#0
        0x0001c1ec:    9005        ..      STR      r0,[sp,#0x14]
        0x0001c1ee:    f88d0026    ..&.    STRB     r0,[sp,#0x26]
        0x0001c1f2:    f89d0027    ..'.    LDRB     r0,[sp,#0x27]
        0x0001c1f6:    f0000001    ....    AND      r0,r0,#1
        0x0001c1fa:    217c        |!      MOVS     r1,#0x7c
        0x0001c1fc:    aa05        ..      ADD      r2,sp,#0x14
        0x0001c1fe:    2302        .#      MOVS     r3,#2
        0x0001c200:    f7ffff18    ....    BL       iom_slave_read ; 0x1c034
        0x0001c204:    9805        ..      LDR      r0,[sp,#0x14]
        0x0001c206:    9907        ..      LDR      r1,[sp,#0x1c]
        0x0001c208:    4288        .B      CMP      r0,r1
        0x0001c20a:    d903        ..      BLS      0x1c214 ; main + 296
        0x0001c20c:    e7ff        ..      B        0x1c20e ; main + 290
        0x0001c20e:    9807        ..      LDR      r0,[sp,#0x1c]
        0x0001c210:    9001        ..      STR      r0,[sp,#4]
        0x0001c212:    e002        ..      B        0x1c21a ; main + 302
        0x0001c214:    9805        ..      LDR      r0,[sp,#0x14]
        0x0001c216:    9001        ..      STR      r0,[sp,#4]
        0x0001c218:    e7ff        ..      B        0x1c21a ; main + 302
        0x0001c21a:    9801        ..      LDR      r0,[sp,#4]
        0x0001c21c:    9005        ..      STR      r0,[sp,#0x14]
        0x0001c21e:    f7fefd51    ..Q.    BL       clear_rx_buf ; 0x1acc4
        0x0001c222:    9b05        ..      LDR      r3,[sp,#0x14]
        0x0001c224:    f89d0027    ..'.    LDRB     r0,[sp,#0x27]
        0x0001c228:    f0000001    ....    AND      r0,r0,#1
        0x0001c22c:    f64442e0    D..B    MOV      r2,#0x4ce0
        0x0001c230:    f2c10200    ....    MOVT     r2,#0x1000
        0x0001c234:    217f        .!      MOVS     r1,#0x7f
        0x0001c236:    f7fffefd    ....    BL       iom_slave_read ; 0x1c034
        0x0001c23a:    9805        ..      LDR      r0,[sp,#0x14]
        0x0001c23c:    f000f9a2    ....    BL       validate_rx_buf ; 0x1c584
        0x0001c240:    b968        h.      CBNZ     r0,0x1c25e ; main + 370
        0x0001c242:    e7ff        ..      B        0x1c244 ; main + 344
        0x0001c244:    f24500e0    E...    MOV      r0,#0x50e0
        0x0001c248:    f2c10000    ....    MOVT     r0,#0x1000
        0x0001c24c:    6801        .h      LDR      r1,[r0,#0]
        0x0001c24e:    9a05        ..      LDR      r2,[sp,#0x14]
        0x0001c250:    f64c3049    L.I0    MOV      r0,#0xcb49
        0x0001c254:    f2c00001    ....    MOVT     r0,#1
        0x0001c258:    f7fef9b4    ....    BL       am_util_stdio_printf ; 0x1a5c4
        0x0001c25c:    e7ff        ..      B        0x1c25e ; main + 370
        0x0001c25e:    2002        .       MOVS     r0,#2
        0x0001c260:    9008        ..      STR      r0,[sp,#0x20]
        0x0001c262:    f24500e0    E...    MOV      r0,#0x50e0
        0x0001c266:    f2c10000    ....    MOVT     r0,#0x1000
        0x0001c26a:    9000        ..      STR      r0,[sp,#0]
        0x0001c26c:    6800        .h      LDR      r0,[r0,#0]
        0x0001c26e:    f000f96b    ..k.    BL       update_progress ; 0x1c548
        0x0001c272:    9800        ..      LDR      r0,[sp,#0]
        0x0001c274:    6800        .h      LDR      r0,[r0,#0]
        0x0001c276:    f2427110    B..q    MOV      r1,#0x2710
        0x0001c27a:    4288        .B      CMP      r0,r1
        0x0001c27c:    d305        ..      BCC      0x1c28a ; main + 414
        0x0001c27e:    e7ff        ..      B        0x1c280 ; main + 404
        0x0001c280:    2001        .       MOVS     r0,#1
        0x0001c282:    f88d0025    ..%.    STRB     r0,[sp,#0x25]
        0x0001c286:    9008        ..      STR      r0,[sp,#0x20]
        0x0001c288:    e7ff        ..      B        0x1c28a ; main + 414
        0x0001c28a:    f89d0027    ..'.    LDRB     r0,[sp,#0x27]
        0x0001c28e:    f0000001    ....    AND      r0,r0,#1
        0x0001c292:    2180        .!      MOVS     r1,#0x80
        0x0001c294:    aa08        ..      ADD      r2,sp,#0x20
        0x0001c296:    2301        .#      MOVS     r3,#1
        0x0001c298:    f7fffefa    ....    BL       iom_slave_write ; 0x1c090
        0x0001c29c:    e7ff        ..      B        0x1c29e ; main + 434
        0x0001c29e:    e006        ..      B        0x1c2ae ; main + 450
        0x0001c2a0:    2001        .       MOVS     r0,#1
        0x0001c2a2:    f7fef8a1    ....    BL       am_hal_sysctrl_sleep ; 0x1a3e8
        0x0001c2a6:    9806        ..      LDR      r0,[sp,#0x18]
        0x0001c2a8:    f7fdf82e    ....    BL       am_hal_interrupt_master_set ; 0x19308
        0x0001c2ac:    e7ff        ..      B        0x1c2ae ; main + 450
        0x0001c2ae:    e75c        \.      B        0x1c16a ; main + 126
        0x0001c2b0:    f24500e0    E...    MOV      r0,#0x50e0
        0x0001c2b4:    f2c10000    ....    MOVT     r0,#0x1000
        0x0001c2b8:    6801        .h      LDR      r1,[r0,#0]
        0x0001c2ba:    f64c3026    L.&0    MOV      r0,#0xcb26
        0x0001c2be:    f2c00001    ....    MOVT     r0,#1
        0x0001c2c2:    f7fef97f    ....    BL       am_util_stdio_printf ; 0x1a5c4
        0x0001c2c6:    e7ff        ..      B        0x1c2c8 ; main + 476
        0x0001c2c8:    e7fe        ..      B        0x1c2c8 ; main + 476
        0x0001c2ca:    0000        ..      MOVS     r0,r0
    ndigits_in_hex
        0x0001c2cc:    b084        ..      SUB      sp,sp,#0x10
        0x0001c2ce:    9103        ..      STR      r1,[sp,#0xc]
        0x0001c2d0:    9002        ..      STR      r0,[sp,#8]
        0x0001c2d2:    9802        ..      LDR      r0,[sp,#8]
        0x0001c2d4:    9903        ..      LDR      r1,[sp,#0xc]
        0x0001c2d6:    4308        .C      ORRS     r0,r0,r1
        0x0001c2d8:    fab0f080    ....    CLZ      r0,r0
        0x0001c2dc:    0940        @.      LSRS     r0,r0,#5
        0x0001c2de:    9001        ..      STR      r0,[sp,#4]
        0x0001c2e0:    e7ff        ..      B        0x1c2e2 ; ndigits_in_hex + 22
        0x0001c2e2:    9802        ..      LDR      r0,[sp,#8]
        0x0001c2e4:    9903        ..      LDR      r1,[sp,#0xc]
        0x0001c2e6:    4308        .C      ORRS     r0,r0,r1
        0x0001c2e8:    b160        `.      CBZ      r0,0x1c304 ; ndigits_in_hex + 56
        0x0001c2ea:    e7ff        ..      B        0x1c2ec ; ndigits_in_hex + 32
        0x0001c2ec:    9802        ..      LDR      r0,[sp,#8]
        0x0001c2ee:    9903        ..      LDR      r1,[sp,#0xc]
        0x0001c2f0:    0900        ..      LSRS     r0,r0,#4
        0x0001c2f2:    ea407001    @..p    ORR      r0,r0,r1,LSL #28
        0x0001c2f6:    0909        ..      LSRS     r1,r1,#4
        0x0001c2f8:    9103        ..      STR      r1,[sp,#0xc]
        0x0001c2fa:    9002        ..      STR      r0,[sp,#8]
        0x0001c2fc:    9801        ..      LDR      r0,[sp,#4]
        0x0001c2fe:    3001        .0      ADDS     r0,#1
        0x0001c300:    9001        ..      STR      r0,[sp,#4]
        0x0001c302:    e7ee        ..      B        0x1c2e2 ; ndigits_in_hex + 22
        0x0001c304:    9801        ..      LDR      r0,[sp,#4]
        0x0001c306:    b004        ..      ADD      sp,sp,#0x10
        0x0001c308:    4770        pG      BX       lr
        0x0001c30a:    0000        ..      MOVS     r0,r0
    ndigits_in_i64
        0x0001c30c:    b580        ..      PUSH     {r7,lr}
        0x0001c30e:    b082        ..      SUB      sp,sp,#8
        0x0001c310:    9101        ..      STR      r1,[sp,#4]
        0x0001c312:    9000        ..      STR      r0,[sp,#0]
        0x0001c314:    9801        ..      LDR      r0,[sp,#4]
        0x0001c316:    f1b03fff    ...?    CMP      r0,#0xffffffff
        0x0001c31a:    dc09        ..      BGT      0x1c330 ; ndigits_in_i64 + 36
        0x0001c31c:    e7ff        ..      B        0x1c31e ; ndigits_in_i64 + 18
        0x0001c31e:    9800        ..      LDR      r0,[sp,#0]
        0x0001c320:    9a01        ..      LDR      r2,[sp,#4]
        0x0001c322:    4241        AB      RSBS     r1,r0,#0
        0x0001c324:    f04f0000    O...    MOV      r0,#0
        0x0001c328:    4190        .A      SBCS     r0,r0,r2
        0x0001c32a:    9100        ..      STR      r1,[sp,#0]
        0x0001c32c:    9001        ..      STR      r0,[sp,#4]
        0x0001c32e:    e7ff        ..      B        0x1c330 ; ndigits_in_i64 + 36
        0x0001c330:    9800        ..      LDR      r0,[sp,#0]
        0x0001c332:    9901        ..      LDR      r1,[sp,#4]
        0x0001c334:    f000f802    ....    BL       ndigits_in_u64 ; 0x1c33c
        0x0001c338:    b002        ..      ADD      sp,sp,#8
        0x0001c33a:    bd80        ..      POP      {r7,pc}
    ndigits_in_u64
        0x0001c33c:    b580        ..      PUSH     {r7,lr}
        0x0001c33e:    b084        ..      SUB      sp,sp,#0x10
        0x0001c340:    9103        ..      STR      r1,[sp,#0xc]
        0x0001c342:    9002        ..      STR      r0,[sp,#8]
        0x0001c344:    9802        ..      LDR      r0,[sp,#8]
        0x0001c346:    9903        ..      LDR      r1,[sp,#0xc]
        0x0001c348:    4308        .C      ORRS     r0,r0,r1
        0x0001c34a:    fab0f080    ....    CLZ      r0,r0
        0x0001c34e:    0940        @.      LSRS     r0,r0,#5
        0x0001c350:    9001        ..      STR      r0,[sp,#4]
        0x0001c352:    e7ff        ..      B        0x1c354 ; ndigits_in_u64 + 24
        0x0001c354:    9802        ..      LDR      r0,[sp,#8]
        0x0001c356:    9903        ..      LDR      r1,[sp,#0xc]
        0x0001c358:    4308        .C      ORRS     r0,r0,r1
        0x0001c35a:    b150        P.      CBZ      r0,0x1c372 ; ndigits_in_u64 + 54
        0x0001c35c:    e7ff        ..      B        0x1c35e ; ndigits_in_u64 + 34
        0x0001c35e:    9802        ..      LDR      r0,[sp,#8]
        0x0001c360:    9903        ..      LDR      r1,[sp,#0xc]
        0x0001c362:    f7fefd7f    ....    BL       divu64_10 ; 0x1ae64
        0x0001c366:    9103        ..      STR      r1,[sp,#0xc]
        0x0001c368:    9002        ..      STR      r0,[sp,#8]
        0x0001c36a:    9801        ..      LDR      r0,[sp,#4]
        0x0001c36c:    3001        .0      ADDS     r0,#1
        0x0001c36e:    9001        ..      STR      r0,[sp,#4]
        0x0001c370:    e7f0        ..      B        0x1c354 ; ndigits_in_u64 + 24
        0x0001c372:    9801        ..      LDR      r0,[sp,#4]
        0x0001c374:    b004        ..      ADD      sp,sp,#0x10
        0x0001c376:    bd80        ..      POP      {r7,pc}
    padbuffer
        0x0001c378:    b085        ..      SUB      sp,sp,#0x14
        0x0001c37a:    9003        ..      STR      r0,[sp,#0xc]
        0x0001c37c:    f88d100b    ....    STRB     r1,[sp,#0xb]
        0x0001c380:    9201        ..      STR      r2,[sp,#4]
        0x0001c382:    2000        .       MOVS     r0,#0
        0x0001c384:    9000        ..      STR      r0,[sp,#0]
        0x0001c386:    9801        ..      LDR      r0,[sp,#4]
        0x0001c388:    2800        .(      CMP      r0,#0
        0x0001c38a:    dc03        ..      BGT      0x1c394 ; padbuffer + 28
        0x0001c38c:    e7ff        ..      B        0x1c38e ; padbuffer + 22
        0x0001c38e:    9800        ..      LDR      r0,[sp,#0]
        0x0001c390:    9004        ..      STR      r0,[sp,#0x10]
        0x0001c392:    e016        ..      B        0x1c3c2 ; padbuffer + 74
        0x0001c394:    e7ff        ..      B        0x1c396 ; padbuffer + 30
        0x0001c396:    9801        ..      LDR      r0,[sp,#4]
        0x0001c398:    1e41        A.      SUBS     r1,r0,#1
        0x0001c39a:    9101        ..      STR      r1,[sp,#4]
        0x0001c39c:    b170        p.      CBZ      r0,0x1c3bc ; padbuffer + 68
        0x0001c39e:    e7ff        ..      B        0x1c3a0 ; padbuffer + 40
        0x0001c3a0:    9803        ..      LDR      r0,[sp,#0xc]
        0x0001c3a2:    b138        8.      CBZ      r0,0x1c3b4 ; padbuffer + 60
        0x0001c3a4:    e7ff        ..      B        0x1c3a6 ; padbuffer + 46
        0x0001c3a6:    f89d000b    ....    LDRB     r0,[sp,#0xb]
        0x0001c3aa:    9903        ..      LDR      r1,[sp,#0xc]
        0x0001c3ac:    1c4a        J.      ADDS     r2,r1,#1
        0x0001c3ae:    9203        ..      STR      r2,[sp,#0xc]
        0x0001c3b0:    7008        .p      STRB     r0,[r1,#0]
        0x0001c3b2:    e7ff        ..      B        0x1c3b4 ; padbuffer + 60
        0x0001c3b4:    9800        ..      LDR      r0,[sp,#0]
        0x0001c3b6:    3001        .0      ADDS     r0,#1
        0x0001c3b8:    9000        ..      STR      r0,[sp,#0]
        0x0001c3ba:    e7ec        ..      B        0x1c396 ; padbuffer + 30
        0x0001c3bc:    9800        ..      LDR      r0,[sp,#0]
        0x0001c3be:    9004        ..      STR      r0,[sp,#0x10]
        0x0001c3c0:    e7ff        ..      B        0x1c3c2 ; padbuffer + 74
        0x0001c3c2:    9804        ..      LDR      r0,[sp,#0x10]
        0x0001c3c4:    b005        ..      ADD      sp,sp,#0x14
        0x0001c3c6:    4770        pG      BX       lr
    simple_strlen
        0x0001c3c8:    b083        ..      SUB      sp,sp,#0xc
        0x0001c3ca:    9001        ..      STR      r0,[sp,#4]
        0x0001c3cc:    2000        .       MOVS     r0,#0
        0x0001c3ce:    9000        ..      STR      r0,[sp,#0]
        0x0001c3d0:    9801        ..      LDR      r0,[sp,#4]
        0x0001c3d2:    b918        ..      CBNZ     r0,0x1c3dc ; simple_strlen + 20
        0x0001c3d4:    e7ff        ..      B        0x1c3d6 ; simple_strlen + 14
        0x0001c3d6:    9800        ..      LDR      r0,[sp,#0]
        0x0001c3d8:    9002        ..      STR      r0,[sp,#8]
        0x0001c3da:    e00d        ..      B        0x1c3f8 ; simple_strlen + 48
        0x0001c3dc:    e7ff        ..      B        0x1c3de ; simple_strlen + 22
        0x0001c3de:    9801        ..      LDR      r0,[sp,#4]
        0x0001c3e0:    1c41        A.      ADDS     r1,r0,#1
        0x0001c3e2:    9101        ..      STR      r1,[sp,#4]
        0x0001c3e4:    7800        .x      LDRB     r0,[r0,#0]
        0x0001c3e6:    b120         .      CBZ      r0,0x1c3f2 ; simple_strlen + 42
        0x0001c3e8:    e7ff        ..      B        0x1c3ea ; simple_strlen + 34
        0x0001c3ea:    9800        ..      LDR      r0,[sp,#0]
        0x0001c3ec:    3001        .0      ADDS     r0,#1
        0x0001c3ee:    9000        ..      STR      r0,[sp,#0]
        0x0001c3f0:    e7f5        ..      B        0x1c3de ; simple_strlen + 22
        0x0001c3f2:    9800        ..      LDR      r0,[sp,#0]
        0x0001c3f4:    9002        ..      STR      r0,[sp,#8]
        0x0001c3f6:    e7ff        ..      B        0x1c3f8 ; simple_strlen + 48
        0x0001c3f8:    9802        ..      LDR      r0,[sp,#8]
        0x0001c3fa:    b003        ..      ADD      sp,sp,#0xc
        0x0001c3fc:    4770        pG      BX       lr
        0x0001c3fe:    0000        ..      MOVS     r0,r0
    uint64_to_hexstr
        0x0001c400:    b08c        ..      SUB      sp,sp,#0x30
        0x0001c402:    910b        ..      STR      r1,[sp,#0x2c]
        0x0001c404:    900a        ..      STR      r0,[sp,#0x28]
        0x0001c406:    9209        ..      STR      r2,[sp,#0x24]
        0x0001c408:    f88d3023    ..#0    STRB     r3,[sp,#0x23]
        0x0001c40c:    2000        .       MOVS     r0,#0
        0x0001c40e:    9006        ..      STR      r0,[sp,#0x18]
        0x0001c410:    980a        ..      LDR      r0,[sp,#0x28]
        0x0001c412:    990b        ..      LDR      r1,[sp,#0x2c]
        0x0001c414:    4308        .C      ORRS     r0,r0,r1
        0x0001c416:    b940        @.      CBNZ     r0,0x1c42a ; uint64_to_hexstr + 42
        0x0001c418:    e7ff        ..      B        0x1c41a ; uint64_to_hexstr + 26
        0x0001c41a:    9a06        ..      LDR      r2,[sp,#0x18]
        0x0001c41c:    1c50        P.      ADDS     r0,r2,#1
        0x0001c41e:    9006        ..      STR      r0,[sp,#0x18]
        0x0001c420:    f10d0103    ....    ADD      r1,sp,#3
        0x0001c424:    2030        0       MOVS     r0,#0x30
        0x0001c426:    5488        .T      STRB     r0,[r1,r2]
        0x0001c428:    e7ff        ..      B        0x1c42a ; uint64_to_hexstr + 42
        0x0001c42a:    e7ff        ..      B        0x1c42c ; uint64_to_hexstr + 44
        0x0001c42c:    980a        ..      LDR      r0,[sp,#0x28]
        0x0001c42e:    990b        ..      LDR      r1,[sp,#0x2c]
        0x0001c430:    4308        .C      ORRS     r0,r0,r1
        0x0001c432:    b350        P.      CBZ      r0,0x1c48a ; uint64_to_hexstr + 138
        0x0001c434:    e7ff        ..      B        0x1c436 ; uint64_to_hexstr + 54
        0x0001c436:    f89d0028    ..(.    LDRB     r0,[sp,#0x28]
        0x0001c43a:    f000000f    ....    AND      r0,r0,#0xf
        0x0001c43e:    f88d0017    ....    STRB     r0,[sp,#0x17]
        0x0001c442:    f89d0017    ....    LDRB     r0,[sp,#0x17]
        0x0001c446:    280a        .(      CMP      r0,#0xa
        0x0001c448:    db0d        ..      BLT      0x1c466 ; uint64_to_hexstr + 102
        0x0001c44a:    e7ff        ..      B        0x1c44c ; uint64_to_hexstr + 76
        0x0001c44c:    f89d0023    ..#.    LDRB     r0,[sp,#0x23]
        0x0001c450:    07c0        ..      LSLS     r0,r0,#31
        0x0001c452:    2107        .!      MOVS     r1,#7
        0x0001c454:    2800        .(      CMP      r0,#0
        0x0001c456:    bf18        ..      IT       NE
        0x0001c458:    2127        '!      MOVNE    r1,#0x27
        0x0001c45a:    f89d0017    ....    LDRB     r0,[sp,#0x17]
        0x0001c45e:    4408        .D      ADD      r0,r0,r1
        0x0001c460:    f88d0017    ....    STRB     r0,[sp,#0x17]
        0x0001c464:    e7ff        ..      B        0x1c466 ; uint64_to_hexstr + 102
        0x0001c466:    f89d0017    ....    LDRB     r0,[sp,#0x17]
        0x0001c46a:    3030        00      ADDS     r0,r0,#0x30
        0x0001c46c:    9a06        ..      LDR      r2,[sp,#0x18]
        0x0001c46e:    1c51        Q.      ADDS     r1,r2,#1
        0x0001c470:    9106        ..      STR      r1,[sp,#0x18]
        0x0001c472:    f10d0103    ....    ADD      r1,sp,#3
        0x0001c476:    5488        .T      STRB     r0,[r1,r2]
        0x0001c478:    980a        ..      LDR      r0,[sp,#0x28]
        0x0001c47a:    990b        ..      LDR      r1,[sp,#0x2c]
        0x0001c47c:    0900        ..      LSRS     r0,r0,#4
        0x0001c47e:    ea407001    @..p    ORR      r0,r0,r1,LSL #28
        0x0001c482:    0909        ..      LSRS     r1,r1,#4
        0x0001c484:    910b        ..      STR      r1,[sp,#0x2c]
        0x0001c486:    900a        ..      STR      r0,[sp,#0x28]
        0x0001c488:    e7d0        ..      B        0x1c42c ; uint64_to_hexstr + 44
        0x0001c48a:    9806        ..      LDR      r0,[sp,#0x18]
        0x0001c48c:    9007        ..      STR      r0,[sp,#0x1c]
        0x0001c48e:    9809        ..      LDR      r0,[sp,#0x24]
        0x0001c490:    b198        ..      CBZ      r0,0x1c4ba ; uint64_to_hexstr + 186
        0x0001c492:    e7ff        ..      B        0x1c494 ; uint64_to_hexstr + 148
        0x0001c494:    e7ff        ..      B        0x1c496 ; uint64_to_hexstr + 150
        0x0001c496:    9806        ..      LDR      r0,[sp,#0x18]
        0x0001c498:    1e41        A.      SUBS     r1,r0,#1
        0x0001c49a:    9106        ..      STR      r1,[sp,#0x18]
        0x0001c49c:    b148        H.      CBZ      r0,0x1c4b2 ; uint64_to_hexstr + 178
        0x0001c49e:    e7ff        ..      B        0x1c4a0 ; uint64_to_hexstr + 160
        0x0001c4a0:    9906        ..      LDR      r1,[sp,#0x18]
        0x0001c4a2:    f10d0003    ....    ADD      r0,sp,#3
        0x0001c4a6:    5c40        @\      LDRB     r0,[r0,r1]
        0x0001c4a8:    9909        ..      LDR      r1,[sp,#0x24]
        0x0001c4aa:    1c4a        J.      ADDS     r2,r1,#1
        0x0001c4ac:    9209        ..      STR      r2,[sp,#0x24]
        0x0001c4ae:    7008        .p      STRB     r0,[r1,#0]
        0x0001c4b0:    e7f1        ..      B        0x1c496 ; uint64_to_hexstr + 150
        0x0001c4b2:    9909        ..      LDR      r1,[sp,#0x24]
        0x0001c4b4:    2000        .       MOVS     r0,#0
        0x0001c4b6:    7008        .p      STRB     r0,[r1,#0]
        0x0001c4b8:    e7ff        ..      B        0x1c4ba ; uint64_to_hexstr + 186
        0x0001c4ba:    9807        ..      LDR      r0,[sp,#0x1c]
        0x0001c4bc:    b00c        ..      ADD      sp,sp,#0x30
        0x0001c4be:    4770        pG      BX       lr
    uint64_to_str
        0x0001c4c0:    b580        ..      PUSH     {r7,lr}
        0x0001c4c2:    b090        ..      SUB      sp,sp,#0x40
        0x0001c4c4:    910f        ..      STR      r1,[sp,#0x3c]
        0x0001c4c6:    900e        ..      STR      r0,[sp,#0x38]
        0x0001c4c8:    920d        ..      STR      r2,[sp,#0x34]
        0x0001c4ca:    2000        .       MOVS     r0,#0
        0x0001c4cc:    9005        ..      STR      r0,[sp,#0x14]
        0x0001c4ce:    9004        ..      STR      r0,[sp,#0x10]
        0x0001c4d0:    e7ff        ..      B        0x1c4d2 ; uint64_to_str + 18
        0x0001c4d2:    980e        ..      LDR      r0,[sp,#0x38]
        0x0001c4d4:    990f        ..      LDR      r1,[sp,#0x3c]
        0x0001c4d6:    f7fefcc5    ....    BL       divu64_10 ; 0x1ae64
        0x0001c4da:    9101        ..      STR      r1,[sp,#4]
        0x0001c4dc:    9000        ..      STR      r0,[sp,#0]
        0x0001c4de:    980e        ..      LDR      r0,[sp,#0x38]
        0x0001c4e0:    9900        ..      LDR      r1,[sp,#0]
        0x0001c4e2:    eb010181    ....    ADD      r1,r1,r1,LSL #2
        0x0001c4e6:    eba00041    ..A.    SUB      r0,r0,r1,LSL #1
        0x0001c4ea:    9003        ..      STR      r0,[sp,#0xc]
        0x0001c4ec:    9803        ..      LDR      r0,[sp,#0xc]
        0x0001c4ee:    3030        00      ADDS     r0,r0,#0x30
        0x0001c4f0:    9a05        ..      LDR      r2,[sp,#0x14]
        0x0001c4f2:    1c51        Q.      ADDS     r1,r2,#1
        0x0001c4f4:    9105        ..      STR      r1,[sp,#0x14]
        0x0001c4f6:    f10d011b    ....    ADD      r1,sp,#0x1b
        0x0001c4fa:    5488        .T      STRB     r0,[r1,r2]
        0x0001c4fc:    9800        ..      LDR      r0,[sp,#0]
        0x0001c4fe:    9901        ..      LDR      r1,[sp,#4]
        0x0001c500:    910f        ..      STR      r1,[sp,#0x3c]
        0x0001c502:    900e        ..      STR      r0,[sp,#0x38]
        0x0001c504:    e7ff        ..      B        0x1c506 ; uint64_to_str + 70
        0x0001c506:    980e        ..      LDR      r0,[sp,#0x38]
        0x0001c508:    990f        ..      LDR      r1,[sp,#0x3c]
        0x0001c50a:    4308        .C      ORRS     r0,r0,r1
        0x0001c50c:    2800        .(      CMP      r0,#0
        0x0001c50e:    d1e0        ..      BNE      0x1c4d2 ; uint64_to_str + 18
        0x0001c510:    e7ff        ..      B        0x1c512 ; uint64_to_str + 82
        0x0001c512:    9805        ..      LDR      r0,[sp,#0x14]
        0x0001c514:    9004        ..      STR      r0,[sp,#0x10]
        0x0001c516:    980d        ..      LDR      r0,[sp,#0x34]
        0x0001c518:    b198        ..      CBZ      r0,0x1c542 ; uint64_to_str + 130
        0x0001c51a:    e7ff        ..      B        0x1c51c ; uint64_to_str + 92
        0x0001c51c:    e7ff        ..      B        0x1c51e ; uint64_to_str + 94
        0x0001c51e:    9805        ..      LDR      r0,[sp,#0x14]
        0x0001c520:    1e41        A.      SUBS     r1,r0,#1
        0x0001c522:    9105        ..      STR      r1,[sp,#0x14]
        0x0001c524:    b148        H.      CBZ      r0,0x1c53a ; uint64_to_str + 122
        0x0001c526:    e7ff        ..      B        0x1c528 ; uint64_to_str + 104
        0x0001c528:    9905        ..      LDR      r1,[sp,#0x14]
        0x0001c52a:    f10d001b    ....    ADD      r0,sp,#0x1b
        0x0001c52e:    5c40        @\      LDRB     r0,[r0,r1]
        0x0001c530:    990d        ..      LDR      r1,[sp,#0x34]
        0x0001c532:    1c4a        J.      ADDS     r2,r1,#1
        0x0001c534:    920d        ..      STR      r2,[sp,#0x34]
        0x0001c536:    7008        .p      STRB     r0,[r1,#0]
        0x0001c538:    e7f1        ..      B        0x1c51e ; uint64_to_str + 94
        0x0001c53a:    990d        ..      LDR      r1,[sp,#0x34]
        0x0001c53c:    2000        .       MOVS     r0,#0
        0x0001c53e:    7008        .p      STRB     r0,[r1,#0]
        0x0001c540:    e7ff        ..      B        0x1c542 ; uint64_to_str + 130
        0x0001c542:    9804        ..      LDR      r0,[sp,#0x10]
        0x0001c544:    b010        ..      ADD      sp,sp,#0x40
        0x0001c546:    bd80        ..      POP      {r7,pc}
    update_progress
        0x0001c548:    b580        ..      PUSH     {r7,lr}
        0x0001c54a:    b082        ..      SUB      sp,sp,#8
        0x0001c54c:    9001        ..      STR      r0,[sp,#4]
        0x0001c54e:    9801        ..      LDR      r0,[sp,#4]
        0x0001c550:    f24501e4    E...    MOV      r1,#0x50e4
        0x0001c554:    f2c10100    ....    MOVT     r1,#0x1000
        0x0001c558:    6809        .h      LDR      r1,[r1,#0]
        0x0001c55a:    1a40        @.      SUBS     r0,r0,r1
        0x0001c55c:    f5b07f7a    ..z.    CMP      r0,#0x3e8
        0x0001c560:    d90d        ..      BLS      0x1c57e ; update_progress + 54
        0x0001c562:    e7ff        ..      B        0x1c564 ; update_progress + 28
        0x0001c564:    f64c3074    L.t0    MOV      r0,#0xcb74
        0x0001c568:    f2c00001    ....    MOVT     r0,#1
        0x0001c56c:    f7fef82a    ..*.    BL       am_util_stdio_printf ; 0x1a5c4
        0x0001c570:    9801        ..      LDR      r0,[sp,#4]
        0x0001c572:    f24501e4    E...    MOV      r1,#0x50e4
        0x0001c576:    f2c10100    ....    MOVT     r1,#0x1000
        0x0001c57a:    6008        .`      STR      r0,[r1,#0]
        0x0001c57c:    e7ff        ..      B        0x1c57e ; update_progress + 54
        0x0001c57e:    b002        ..      ADD      sp,sp,#8
        0x0001c580:    bd80        ..      POP      {r7,pc}
        0x0001c582:    0000        ..      MOVS     r0,r0
    validate_rx_buf
        0x0001c584:    b580        ..      PUSH     {r7,lr}
        0x0001c586:    b082        ..      SUB      sp,sp,#8
        0x0001c588:    9001        ..      STR      r0,[sp,#4]
        0x0001c58a:    2000        .       MOVS     r0,#0
        0x0001c58c:    9000        ..      STR      r0,[sp,#0]
        0x0001c58e:    e7ff        ..      B        0x1c590 ; validate_rx_buf + 12
        0x0001c590:    9800        ..      LDR      r0,[sp,#0]
        0x0001c592:    9901        ..      LDR      r1,[sp,#4]
        0x0001c594:    4288        .B      CMP      r0,r1
        0x0001c596:    d21e        ..      BCS      0x1c5d6 ; validate_rx_buf + 82
        0x0001c598:    e7ff        ..      B        0x1c59a ; validate_rx_buf + 22
        0x0001c59a:    9900        ..      LDR      r1,[sp,#0]
        0x0001c59c:    f64440e0    D..@    MOV      r0,#0x4ce0
        0x0001c5a0:    f2c10000    ....    MOVT     r0,#0x1000
        0x0001c5a4:    5c40        @\      LDRB     r0,[r0,r1]
        0x0001c5a6:    f24501e0    E...    MOV      r1,#0x50e0
        0x0001c5aa:    f2c10100    ....    MOVT     r1,#0x1000
        0x0001c5ae:    6809        .h      LDR      r1,[r1,#0]
        0x0001c5b0:    9a00        ..      LDR      r2,[sp,#0]
        0x0001c5b2:    4411        .D      ADD      r1,r1,r2
        0x0001c5b4:    b2c9        ..      UXTB     r1,r1
        0x0001c5b6:    4288        .B      CMP      r0,r1
        0x0001c5b8:    d008        ..      BEQ      0x1c5cc ; validate_rx_buf + 72
        0x0001c5ba:    e7ff        ..      B        0x1c5bc ; validate_rx_buf + 56
        0x0001c5bc:    9900        ..      LDR      r1,[sp,#0]
        0x0001c5be:    f64c20c0    L..     MOV      r0,#0xcac0
        0x0001c5c2:    f2c00001    ....    MOVT     r0,#1
        0x0001c5c6:    f7fdfffd    ....    BL       am_util_stdio_printf ; 0x1a5c4
        0x0001c5ca:    e004        ..      B        0x1c5d6 ; validate_rx_buf + 82
        0x0001c5cc:    e7ff        ..      B        0x1c5ce ; validate_rx_buf + 74
        0x0001c5ce:    9800        ..      LDR      r0,[sp,#0]
        0x0001c5d0:    3001        .0      ADDS     r0,#1
        0x0001c5d2:    9000        ..      STR      r0,[sp,#0]
        0x0001c5d4:    e7dc        ..      B        0x1c590 ; validate_rx_buf + 12
        0x0001c5d6:    9a01        ..      LDR      r2,[sp,#4]
        0x0001c5d8:    f24501e0    E...    MOV      r1,#0x50e0
        0x0001c5dc:    f2c10100    ....    MOVT     r1,#0x1000
        0x0001c5e0:    6808        .h      LDR      r0,[r1,#0]
        0x0001c5e2:    4410        .D      ADD      r0,r0,r2
        0x0001c5e4:    6008        .`      STR      r0,[r1,#0]
        0x0001c5e6:    9800        ..      LDR      r0,[sp,#0]
        0x0001c5e8:    9901        ..      LDR      r1,[sp,#4]
        0x0001c5ea:    1a40        @.      SUBS     r0,r0,r1
        0x0001c5ec:    fab0f080    ....    CLZ      r0,r0
        0x0001c5f0:    0940        @.      LSRS     r0,r0,#5
        0x0001c5f2:    b002        ..      ADD      sp,sp,#8
        0x0001c5f4:    bd80        ..      POP      {r7,pc}
        0x0001c5f6:    0000        ..      MOVS     r0,r0
    $t
    x$fpl$d2f
    $v0
    __aeabi_d2f
    _d2f
        0x0001c5f8:    f0214200    !..B    BIC      r2,r1,#0x80000000
        0x0001c5fc:    f0014300    ...C    AND      r3,r1,#0x80000000
        0x0001c600:    f1a25260    ..`R    SUB      r2,r2,#0x38000000
        0x0001c604:    f5b21f80    ....    CMP      r2,#0x100000
        0x0001c608:    bf28        (.      IT       CS
        0x0001c60a:    f1d26c7f    ...l    RSBSCS   r12,r2,#0xff00000
        0x0001c60e:    d90b        ..      BLS      0x1c628 ; __aeabi_d2f + 48
        0x0001c610:    ea5f1c00    _...    LSLS     r12,r0,#4
        0x0001c614:    ea4302c2    C...    ORR      r2,r3,r2,LSL #3
        0x0001c618:    eb427050    B.Pp    ADC      r0,r2,r0,LSR #29
        0x0001c61c:    bf18        ..      IT       NE
        0x0001c61e:    4770        pG      BXNE     lr
        0x0001c620:    bf28        (.      IT       CS
        0x0001c622:    f0200001     ...    BICCS    r0,r0,#1
        0x0001c626:    4770        pG      BX       lr
        0x0001c628:    f5b21f80    ....    CMP      r2,#0x100000
        0x0001c62c:    bfbc        ..      ITT      LT
        0x0001c62e:    4618        .F      MOVLT    r0,r3
        0x0001c630:    4770        pG      BXLT     lr
        0x0001c632:    ea4f0c41    O.A.    LSL      r12,r1,#1
        0x0001c636:    f51c1f00    ....    CMN      r12,#0x200000
        0x0001c63a:    d202        ..      BCS      0x1c642 ; __aeabi_d2f + 74
        0x0001c63c:    4608        .F      MOV      r0,r1
        0x0001c63e:    f000b867    ..g.    B.W      __fpl_fretinf ; 0x1c710
        0x0001c642:    b570        p.      PUSH     {r4-r6,lr}
        0x0001c644:    f000f809    ....    BL       __fpl_dnaninf ; 0x1c65a
    $d
        0x0001c648:    89000000    ....    DCD    2298478592
    $t
        0x0001c64c:    f7ffbff6    ....    B.W      0x1c63c ; __aeabi_d2f + 68
        0x0001c650:    f04f4000    O..@    MOV      r0,#0x80000000
        0x0001c654:    f5a00080    ....    SUB      r0,r0,#0x400000
        0x0001c658:    4770        pG      BX       lr
    x$fpl$dnaninf
    $v0
    __fpl_dnaninf
        0x0001c65a:    f10e0e02    ....    ADD      lr,lr,#2
        0x0001c65e:    f02e0e03    ....    BIC      lr,lr,#3
        0x0001c662:    f85e6b04    ^..k    LDR      r6,[lr],#4
        0x0001c666:    4236        6B      TST      r6,r6
        0x0001c668:    d405        ..      BMI      0x1c676 ; __fpl_dnaninf + 28
        0x0001c66a:    2a01        .*      CMP      r2,#1
        0x0001c66c:    eb430503    C...    ADC      r5,r3,r3
        0x0001c670:    f5151f00    ....    CMN      r5,#0x200000
        0x0001c674:    d812        ..      BHI      0x1c69c ; __fpl_dnaninf + 66
        0x0001c676:    2801        .(      CMP      r0,#1
        0x0001c678:    eb410c01    A...    ADC      r12,r1,r1
        0x0001c67c:    f51c1f00    ....    CMN      r12,#0x200000
        0x0001c680:    d80c        ..      BHI      0x1c69c ; __fpl_dnaninf + 66
        0x0001c682:    d10e        ..      BNE      0x1c6a2 ; __fpl_dnaninf + 72
        0x0001c684:    ea4f7cd1    O..|    LSR      r12,r1,#31
        0x0001c688:    eb0c0c4c    ..L.    ADD      r12,r12,r12,LSL #1
        0x0001c68c:    f10c0c02    ....    ADD      r12,r12,#2
        0x0001c690:    f5151f00    ....    CMN      r5,#0x200000
        0x0001c694:    bf08        ..      IT       EQ
        0x0001c696:    eb4c7cd3    L..|    ADCEQ    r12,r12,r3,LSR #31
        0x0001c69a:    e004        ..      B        0x1c6a6 ; __fpl_dnaninf + 76
        0x0001c69c:    f04f0c08    O...    MOV      r12,#8
        0x0001c6a0:    e001        ..      B        0x1c6a6 ; __fpl_dnaninf + 76
        0x0001c6a2:    ea4f7cd3    O..|    LSR      r12,r3,#31
        0x0001c6a6:    eb0c054c    ..L.    ADD      r5,r12,r12,LSL #1
        0x0001c6aa:    fa26f605    &...    LSR      r6,r6,r5
        0x0001c6ae:    f0060607    ....    AND      r6,r6,#7
        0x0001c6b2:    f1b60c04    ....    SUBS     r12,r6,#4
        0x0001c6b6:    d206        ..      BCS      0x1c6c6 ; __fpl_dnaninf + 108
        0x0001c6b8:    eb0e0c86    ....    ADD      r12,lr,r6,LSL #2
        0x0001c6bc:    e8bd4070    ..p@    POP      {r4-r6,lr}
        0x0001c6c0:    f04c0c01    L...    ORR      r12,r12,#1
        0x0001c6c4:    4760        `G      BX       r12
        0x0001c6c6:    e8dff00c    ....    TBB      [pc,r12]
    $d
        0x0001c6ca:    0b09        ..      DCW    2825
        0x0001c6cc:    0202        ..      DCW    514
    $t
        0x0001c6ce:    f04f4100    O..A    MOV      r1,#0x80000000
        0x0001c6d2:    f5a12100    ...!    SUB      r1,r1,#0x80000
        0x0001c6d6:    f04f0000    O...    MOV      r0,#0
        0x0001c6da:    bd70        p.      POP      {r4-r6,pc}
        0x0001c6dc:    4619        .F      MOV      r1,r3
        0x0001c6de:    4610        .F      MOV      r0,r2
        0x0001c6e0:    2801        .(      CMP      r0,#1
        0x0001c6e2:    eb510401    Q...    ADCS     r4,r1,r1
        0x0001c6e6:    bf18        ..      IT       NE
        0x0001c6e8:    f5d41400    ....    RSBSNE   r4,r4,#0x200000
        0x0001c6ec:    bf84        ..      ITT      HI
        0x0001c6ee:    2000        .       MOVHI    r0,#0
        0x0001c6f0:    f0014100    ...A    ANDHI    r1,r1,#0x80000000
        0x0001c6f4:    bd70        p.      POP      {r4-r6,pc}
    x$fpl$fpinit
    $v0
    _fp_init
        0x0001c6f6:    eef10a10    ....    VMRS     r0,FPSCR
        0x0001c6fa:    f64f71ff    O..q    MOV      r1,#0xffff
        0x0001c6fe:    f2c031c0    ...1    MOVT     r1,#0x3c0
        0x0001c702:    ea200001     ...    BIC      r0,r0,r1
        0x0001c706:    f0407040    @.@p    ORR      r0,r0,#0x3000000
        0x0001c70a:    eee10a10    ....    VMSR     FPSCR,r0
    __fplib_config_fpu_vfp
    __fplib_config_pureend_doubles
        0x0001c70e:    4770        pG      BX       lr
    x$fpl$fretinf
    $v0
    __fpl_fretinf
        0x0001c710:    21ff        .!      MOVS     r1,#0xff
        0x0001c712:    ea4150d0    A..P    ORR      r0,r1,r0,LSR #23
        0x0001c716:    05c0        ..      LSLS     r0,r0,#23
        0x0001c718:    4770        pG      BX       lr
    x$fpl$usenofp
    __I$use$fp
        0x0001c71a:    0000        ..      MOVS     r0,r0
    $d.realdata
    am_hal_gpio_pincfg_pulledup_disabled
        0x0001c71c:    0000e083    ....    DCD    57475
    am_hal_pwrctrl_peripheral_control
        0x0001c720:    40021004    ...@    DCD    1073876996
        0x0001c724:    00000001    ....    DCD    1
        0x0001c728:    40021008    ...@    DCD    1073877000
        0x0001c72c:    00000001    ....    DCD    1
        0x0001c730:    40021004    ...@    DCD    1073876996
        0x0001c734:    00000002    ....    DCD    2
        0x0001c738:    40021008    ...@    DCD    1073877000
        0x0001c73c:    0000001e    ....    DCD    30
        0x0001c740:    40021004    ...@    DCD    1073876996
        0x0001c744:    00000004    ....    DCD    4
        0x0001c748:    40021008    ...@    DCD    1073877000
        0x0001c74c:    0000001e    ....    DCD    30
        0x0001c750:    40021004    ...@    DCD    1073876996
        0x0001c754:    00000008    ....    DCD    8
        0x0001c758:    40021008    ...@    DCD    1073877000
        0x0001c75c:    0000001e    ....    DCD    30
        0x0001c760:    40021004    ...@    DCD    1073876996
        0x0001c764:    00000010    ....    DCD    16
        0x0001c768:    40021008    ...@    DCD    1073877000
        0x0001c76c:    0000001e    ....    DCD    30
        0x0001c770:    40021004    ...@    DCD    1073876996
        0x0001c774:    00000020     ...    DCD    32
        0x0001c778:    40021008    ...@    DCD    1073877000
        0x0001c77c:    000001e0    ....    DCD    480
        0x0001c780:    40021004    ...@    DCD    1073876996
        0x0001c784:    00000040    @...    DCD    64
        0x0001c788:    40021008    ...@    DCD    1073877000
        0x0001c78c:    000001e0    ....    DCD    480
        0x0001c790:    40021004    ...@    DCD    1073876996
        0x0001c794:    00000080    ....    DCD    128
        0x0001c798:    40021008    ...@    DCD    1073877000
        0x0001c79c:    000001e0    ....    DCD    480
        0x0001c7a0:    40021004    ...@    DCD    1073876996
        0x0001c7a4:    00000100    ....    DCD    256
        0x0001c7a8:    40021008    ...@    DCD    1073877000
        0x0001c7ac:    000001e0    ....    DCD    480
        0x0001c7b0:    40021004    ...@    DCD    1073876996
        0x0001c7b4:    00000200    ....    DCD    512
        0x0001c7b8:    40021008    ...@    DCD    1073877000
        0x0001c7bc:    00001e00    ....    DCD    7680
        0x0001c7c0:    40021004    ...@    DCD    1073876996
        0x0001c7c4:    00000400    ....    DCD    1024
        0x0001c7c8:    40021008    ...@    DCD    1073877000
        0x0001c7cc:    00001e00    ....    DCD    7680
        0x0001c7d0:    40021004    ...@    DCD    1073876996
        0x0001c7d4:    00000800    ....    DCD    2048
        0x0001c7d8:    40021008    ...@    DCD    1073877000
        0x0001c7dc:    00001e00    ....    DCD    7680
        0x0001c7e0:    40021004    ...@    DCD    1073876996
        0x0001c7e4:    00001000    ....    DCD    4096
        0x0001c7e8:    40021008    ...@    DCD    1073877000
        0x0001c7ec:    00001e00    ....    DCD    7680
        0x0001c7f0:    40021004    ...@    DCD    1073876996
        0x0001c7f4:    00002000    . ..    DCD    8192
        0x0001c7f8:    40021008    ...@    DCD    1073877000
        0x0001c7fc:    00002000    . ..    DCD    8192
        0x0001c800:    40021004    ...@    DCD    1073876996
        0x0001c804:    00004000    .@..    DCD    16384
        0x0001c808:    40021008    ...@    DCD    1073877000
        0x0001c80c:    0001c000    ....    DCD    114688
        0x0001c810:    40021004    ...@    DCD    1073876996
        0x0001c814:    00008000    ....    DCD    32768
        0x0001c818:    40021008    ...@    DCD    1073877000
        0x0001c81c:    0001c000    ....    DCD    114688
        0x0001c820:    40021004    ...@    DCD    1073876996
        0x0001c824:    00010000    ....    DCD    65536
        0x0001c828:    40021008    ...@    DCD    1073877000
        0x0001c82c:    0001c000    ....    DCD    114688
        0x0001c830:    40021004    ...@    DCD    1073876996
        0x0001c834:    00020000    ....    DCD    131072
        0x0001c838:    40021008    ...@    DCD    1073877000
        0x0001c83c:    00020000    ....    DCD    131072
        0x0001c840:    40021004    ...@    DCD    1073876996
        0x0001c844:    00100000    ....    DCD    1048576
        0x0001c848:    40021008    ...@    DCD    1073877000
        0x0001c84c:    00100000    ....    DCD    1048576
        0x0001c850:    40021004    ...@    DCD    1073876996
        0x0001c854:    00200000    .. .    DCD    2097152
        0x0001c858:    40021008    ...@    DCD    1073877000
        0x0001c85c:    00200000    .. .    DCD    2097152
        0x0001c860:    40021004    ...@    DCD    1073876996
        0x0001c864:    01000000    ....    DCD    16777216
        0x0001c868:    40021008    ...@    DCD    1073877000
        0x0001c86c:    01000000    ....    DCD    16777216
        0x0001c870:    4002100c    ...@    DCD    1073877004
        0x0001c874:    00000001    ....    DCD    1
        0x0001c878:    40021010    ...@    DCD    1073877008
        0x0001c87c:    00000047    G...    DCD    71
        0x0001c880:    4002100c    ...@    DCD    1073877004
        0x0001c884:    00000002    ....    DCD    2
        0x0001c888:    40021010    ...@    DCD    1073877008
        0x0001c88c:    00000047    G...    DCD    71
        0x0001c890:    4002100c    ...@    DCD    1073877004
        0x0001c894:    00000004    ....    DCD    4
        0x0001c898:    40021010    ...@    DCD    1073877008
        0x0001c89c:    00000047    G...    DCD    71
        0x0001c8a0:    4002100c    ...@    DCD    1073877004
        0x0001c8a4:    00000040    @...    DCD    64
        0x0001c8a8:    40021010    ...@    DCD    1073877008
        0x0001c8ac:    00000047    G...    DCD    71
    g_ui32RMpintbl
        0x0001c8b0:    00000000    ....    DCD    0
        0x0001c8b4:    00000000    ....    DCD    0
        0x0001c8b8:    00000000    ....    DCD    0
        0x0001c8bc:    00000000    ....    DCD    0
    gAmHalCmdQReg
        0x0001c8c0:    40050228    (..@    DCD    1074070056
        0x0001c8c4:    4005022c    ,..@    DCD    1074070060
        0x0001c8c8:    40050240    @..@    DCD    1074070080
        0x0001c8cc:    40050244    D..@    DCD    1074070084
        0x0001c8d0:    4005023c    <..@    DCD    1074070076
        0x0001c8d4:    00008000    ....    DCD    32768
        0x0001c8d8:    40050230    0..@    DCD    1074070064
        0x0001c8dc:    00000001    ....    DCD    1
        0x0001c8e0:    00000004    ....    DCD    4
        0x0001c8e4:    00000002    ....    DCD    2
        0x0001c8e8:    40051228    (..@    DCD    1074074152
        0x0001c8ec:    4005122c    ,..@    DCD    1074074156
        0x0001c8f0:    40051240    @..@    DCD    1074074176
        0x0001c8f4:    40051244    D..@    DCD    1074074180
        0x0001c8f8:    4005123c    <..@    DCD    1074074172
        0x0001c8fc:    00008000    ....    DCD    32768
        0x0001c900:    40051230    0..@    DCD    1074074160
        0x0001c904:    00000001    ....    DCD    1
        0x0001c908:    00000004    ....    DCD    4
        0x0001c90c:    00000002    ....    DCD    2
        0x0001c910:    40052228    (".@    DCD    1074078248
        0x0001c914:    4005222c    ,".@    DCD    1074078252
        0x0001c918:    40052240    @".@    DCD    1074078272
        0x0001c91c:    40052244    D".@    DCD    1074078276
        0x0001c920:    4005223c    <".@    DCD    1074078268
        0x0001c924:    00008000    ....    DCD    32768
        0x0001c928:    40052230    0".@    DCD    1074078256
        0x0001c92c:    00000001    ....    DCD    1
        0x0001c930:    00000004    ....    DCD    4
        0x0001c934:    00000002    ....    DCD    2
        0x0001c938:    40053228    (2.@    DCD    1074082344
        0x0001c93c:    4005322c    ,2.@    DCD    1074082348
        0x0001c940:    40053240    @2.@    DCD    1074082368
        0x0001c944:    40053244    D2.@    DCD    1074082372
        0x0001c948:    4005323c    <2.@    DCD    1074082364
        0x0001c94c:    00008000    ....    DCD    32768
        0x0001c950:    40053230    02.@    DCD    1074082352
        0x0001c954:    00000001    ....    DCD    1
        0x0001c958:    00000004    ....    DCD    4
        0x0001c95c:    00000002    ....    DCD    2
        0x0001c960:    40054228    (B.@    DCD    1074086440
        0x0001c964:    4005422c    ,B.@    DCD    1074086444
        0x0001c968:    40054240    @B.@    DCD    1074086464
        0x0001c96c:    40054244    DB.@    DCD    1074086468
        0x0001c970:    4005423c    <B.@    DCD    1074086460
        0x0001c974:    00008000    ....    DCD    32768
        0x0001c978:    40054230    0B.@    DCD    1074086448
        0x0001c97c:    00000001    ....    DCD    1
        0x0001c980:    00000004    ....    DCD    4
        0x0001c984:    00000002    ....    DCD    2
        0x0001c988:    40055228    (R.@    DCD    1074090536
        0x0001c98c:    4005522c    ,R.@    DCD    1074090540
        0x0001c990:    40055240    @R.@    DCD    1074090560
        0x0001c994:    40055244    DR.@    DCD    1074090564
        0x0001c998:    4005523c    <R.@    DCD    1074090556
        0x0001c99c:    00008000    ....    DCD    32768
        0x0001c9a0:    40055230    0R.@    DCD    1074090544
        0x0001c9a4:    00000001    ....    DCD    1
        0x0001c9a8:    00000004    ....    DCD    4
        0x0001c9ac:    00000002    ....    DCD    2
        0x0001c9b0:    40056228    (b.@    DCD    1074094632
        0x0001c9b4:    4005622c    ,b.@    DCD    1074094636
        0x0001c9b8:    40056240    @b.@    DCD    1074094656
        0x0001c9bc:    40056244    Db.@    DCD    1074094660
        0x0001c9c0:    4005623c    <b.@    DCD    1074094652
        0x0001c9c4:    00008000    ....    DCD    32768
        0x0001c9c8:    40056230    0b.@    DCD    1074094640
        0x0001c9cc:    00000001    ....    DCD    1
        0x0001c9d0:    00000004    ....    DCD    4
        0x0001c9d4:    00000002    ....    DCD    2
        0x0001c9d8:    40057228    (r.@    DCD    1074098728
        0x0001c9dc:    4005722c    ,r.@    DCD    1074098732
        0x0001c9e0:    40057240    @r.@    DCD    1074098752
        0x0001c9e4:    40057244    Dr.@    DCD    1074098756
        0x0001c9e8:    4005723c    <r.@    DCD    1074098748
        0x0001c9ec:    00008000    ....    DCD    32768
        0x0001c9f0:    40057230    0r.@    DCD    1074098736
        0x0001c9f4:    00000001    ....    DCD    1
        0x0001c9f8:    00000004    ....    DCD    4
        0x0001c9fc:    00000002    ....    DCD    2
        0x0001ca00:    400602a0    ...@    DCD    1074135712
        0x0001ca04:    400602a8    ...@    DCD    1074135720
        0x0001ca08:    400602c0    ...@    DCD    1074135744
        0x0001ca0c:    400602c4    ...@    DCD    1074135748
        0x0001ca10:    400602b8    ...@    DCD    1074135736
        0x0001ca14:    00004000    .@..    DCD    16384
        0x0001ca18:    400602ac    ...@    DCD    1074135724
        0x0001ca1c:    00000001    ....    DCD    1
        0x0001ca20:    00000004    ....    DCD    4
        0x0001ca24:    00000008    ....    DCD    8
        0x0001ca28:    400612a0    ...@    DCD    1074139808
        0x0001ca2c:    400612a8    ...@    DCD    1074139816
        0x0001ca30:    400612c0    ...@    DCD    1074139840
        0x0001ca34:    400612c4    ...@    DCD    1074139844
        0x0001ca38:    400612b8    ...@    DCD    1074139832
        0x0001ca3c:    00004000    .@..    DCD    16384
        0x0001ca40:    400612ac    ...@    DCD    1074139820
        0x0001ca44:    00000001    ....    DCD    1
        0x0001ca48:    00000004    ....    DCD    4
        0x0001ca4c:    00000008    ....    DCD    8
        0x0001ca50:    400622a0    .".@    DCD    1074143904
        0x0001ca54:    400622a8    .".@    DCD    1074143912
        0x0001ca58:    400622c0    .".@    DCD    1074143936
        0x0001ca5c:    400622c4    .".@    DCD    1074143940
        0x0001ca60:    400622b8    .".@    DCD    1074143928
        0x0001ca64:    00004000    .@..    DCD    16384
        0x0001ca68:    400622ac    .".@    DCD    1074143916
        0x0001ca6c:    00000001    ....    DCD    1
        0x0001ca70:    00000004    ....    DCD    4
        0x0001ca74:    00000008    ....    DCD    8
    g_AM_BSP_GPIO_HANDSHAKE
        0x0001ca78:    00000093    ....    DCD    147
    g_am_hal_bootrom_helper
        0x0001ca7c:    0800004d    M...    DCD    134217805
        0x0001ca80:    08000051    Q...    DCD    134217809
        0x0001ca84:    08000055    U...    DCD    134217813
        0x0001ca88:    08000059    Y...    DCD    134217817
        0x0001ca8c:    0800006d    m...    DCD    134217837
        0x0001ca90:    08000075    u...    DCD    134217845
        0x0001ca94:    08000079    y...    DCD    134217849
        0x0001ca98:    08000081    ....    DCD    134217857
        0x0001ca9c:    08000099    ....    DCD    134217881
        0x0001caa0:    0800009d    ....    DCD    134217885
    __tagsym$$used.7
    sGlobalAccess
        0x0001caa4:    0001cc28    (...    DCD    117800
        0x0001caa8:    0001cc14    ....    DCD    117780
        0x0001caac:    0001cbec    ....    DCD    117740
        0x0001cab0:    0001cc00    ....    DCD    117760
        0x0001cab4:    10060004    ....    DCD    268828676
        0x0001cab8:    10060018    ....    DCD    268828696
        0x0001cabc:    1006002c    ,...    DCD    268828716
    .L.str
        0x0001cac0:    6c696146    Fail    DCD    1818845510
        0x0001cac4:    74206465    ed t    DCD    1948279909
        0x0001cac8:    6f63206f    o co    DCD    1868767343
        0x0001cacc:    7261706d    mpar    DCD    1918988397
        0x0001cad0:    75622065    e bu    DCD    1969365093
        0x0001cad4:    72656666    ffer    DCD    1919247974
        0x0001cad8:    74612073    s at    DCD    1952522355
        0x0001cadc:    646e6920     ind    DCD    1684957472
        0x0001cae0:    25207865    ex %    DCD    622884965
        0x0001cae4:    000a2064    d ..    DCD    663652
    .L.str.2
        0x0001cae8:    20534f49    IOS     DCD    542330697
        0x0001caec:    74736554    Test    DCD    1953719636
        0x0001caf0:    736f4820     Hos    DCD    1936672800
        0x0001caf4:    57203a74    t: W    DCD    1461729908
        0x0001caf8:    69746961    aiti    DCD    1769236833
        0x0001cafc:    6620676e    ng f    DCD    1713399662
        0x0001cb00:    6120726f    or a    DCD    1629516399
        0x0001cb04:    656c2074    t le    DCD    1701585012
        0x0001cb08:    20747361    ast     DCD    544502625
        0x0001cb0c:    62206425    %d b    DCD    1646289957
        0x0001cb10:    73657479    ytes    DCD    1936028793
        0x0001cb14:    6f726620     fro    DCD    1869768224
        0x0001cb18:    6874206d    m th    DCD    1752440941
        0x0001cb1c:    6c732065    e sl    DCD    1819484261
        0x0001cb20:    2e657661    ave.    DCD    778401377
        0x0001cb24:    000a        ..      DCW    10
    .L.str.4
        0x0001cb26:    540a        .T      DCW    21514
        0x0001cb28:    20747365    est     DCD    544502629
        0x0001cb2c:    656e6f44    Done    DCD    1701736260
        0x0001cb30:    54202d20     - T    DCD    1411394848
        0x0001cb34:    6c61746f    otal    DCD    1818326127
        0x0001cb38:    63655220     Rec    DCD    1667584544
        0x0001cb3c:    65766965    eive    DCD    1702259045
        0x0001cb40:    203d2064    d =     DCD    540876900
        0x0001cb44:    0a64253d    =%d.    DCD    174335293
        0x0001cb48:    00          .       DCB    0
    .L.str.3
        0x0001cb49:    0a4461      .Da     DCB    10,68,97
        0x0001cb4c:    56206174    ta V    DCD    1444962676
        0x0001cb50:    66697265    erif    DCD    1718186597
        0x0001cb54:    74616369    icat    DCD    1952539497
        0x0001cb58:    206e6f69    ion     DCD    544108393
        0x0001cb5c:    6c696166    fail    DCD    1818845542
        0x0001cb60:    41206465    ed A    DCD    1092641893
        0x0001cb64:    6d756363    ccum    DCD    1836409699
        0x0001cb68:    756c253a    :%lu    DCD    1970021690
        0x0001cb6c:    3d787220     rx=    DCD    1031303712
        0x0001cb70:    000a6425    %d..    DCD    680997
    .L.str.1
        0x0001cb74:    002e        ..      DCW    46
    .L.str
        0x0001cb76:    0a0a        ..      DCW    2570
        0x0001cb78:    0a0a0a0a    ....    DCD    168430090
        0x0001cb7c:    0a0a0a0a    ....    DCD    168430090
        0x0001cb80:    0a0a0a0a    ....    DCD    168430090
        0x0001cb84:    0a0a0a0a    ....    DCD    168430090
        0x0001cb88:    00000000    ....    DCD    0
    g_ui32DSpintbl
        0x0001cb8c:    8fc007e0    ....    DCD    2411726816
        0x0001cb90:    e3fbffff    ....    DCD    3824943103
        0x0001cb94:    01ffffff    ....    DCD    33554431
        0x0001cb98:    00000000    ....    DCD    0
    tIomPinAlloc
        0x0001cb9c:    00510050    P.Q.    DCD    5308496
        0x0001cba0:    00610060    `.a.    DCD    6357088
        0x0001cba4:    00840070    p...    DCD    8650864
        0x0001cba8:    00940085    ....    DCD    9699461
        0x0001cbac:    00a40095    ....    DCD    10748053
        0x0001cbb0:    01910190    ....    DCD    26280336
        0x0001cbb4:    01a101a0    ....    DCD    27328928
        0x0001cbb8:    01f001b0    ....    DCD    32506288
        0x0001cbbc:    020001f1    ....    DCD    33554929
        0x0001cbc0:    02100201    ....    DCD    34603521
        0x0001cbc4:    02210220     .!.    DCD    35717664
        0x0001cbc8:    02310230    0.1.    DCD    36766256
        0x0001cbcc:    02f00240    @...    DCD    49283648
        0x0001cbd0:    030002f1    ....    DCD    50332401
        0x0001cbd4:    03100301    ....    DCD    51380993
        0x0001cbd8:    03d103d0    ....    DCD    64029648
        0x0001cbdc:    03e103e0    ....    DCD    65078240
        0x0001cbe0:    016003f0    ..`.    DCD    23069680
        0x0001cbe4:    01700161    a.p.    DCD    24117601
        0x0001cbe8:    01800171    q...    DCD    25166193
    __tagsym$$used.1
    ui32DSP0Allowed
        0x0001cbec:    00000000    ....    DCD    0
        0x0001cbf0:    00000000    ....    DCD    0
        0x0001cbf4:    00000000    ....    DCD    0
        0x0001cbf8:    00000000    ....    DCD    0
        0x0001cbfc:    00000000    ....    DCD    0
    __tagsym$$used.2
    ui32DSP1Allowed
        0x0001cc00:    00000000    ....    DCD    0
        0x0001cc04:    00000000    ....    DCD    0
        0x0001cc08:    00000000    ....    DCD    0
        0x0001cc0c:    00000000    ....    DCD    0
        0x0001cc10:    00000000    ....    DCD    0
    __tagsym$$used.0
    ui32MCUAllowed
        0x0001cc14:    00000000    ....    DCD    0
        0x0001cc18:    00000000    ....    DCD    0
        0x0001cc1c:    00000000    ....    DCD    0
        0x0001cc20:    00000000    ....    DCD    0
        0x0001cc24:    00000000    ....    DCD    0
    __tagsym$$used.3
    ui32SharedAccess
        0x0001cc28:    00000000    ....    DCD    0
        0x0001cc2c:    00000000    ....    DCD    0
        0x0001cc30:    00000000    ....    DCD    0
        0x0001cc34:    00000000    ....    DCD    0
        0x0001cc38:    00000000    ....    DCD    0
    Region$$Table$$Base
        0x0001cc3c:    0001cc70    p...    DCD    117872
        0x0001cc40:    10000000    ....    DCD    268435456
        0x0001cc44:    00000100    ....    DCD    256
        0x0001cc48:    000182cc    ....    DCD    99020
        0x0001cc4c:    0001cd70    p...    DCD    118128
        0x0001cc50:    10060000    ....    DCD    268828672
        0x0001cc54:    00000040    @...    DCD    64
        0x0001cc58:    000182cc    ....    DCD    99020
        0x0001cc5c:    0001cd70    p...    DCD    118128
        0x0001cc60:    10000100    ....    DCD    268435712
        0x0001cc64:    000067e8    .g..    DCD    26600
        0x0001cc68:    000182e8    ....    DCD    99048
    Region$$Table$$Limit

** Section #2 'MCU_TCM' (SHT_PROGBITS) [SHF_ALLOC + SHF_WRITE]
    Size   : 256 bytes (alignment 8)
    Address: 0x10000000

    0x10000000:   08 1e 0c 40 18 1e 0c 40 6d db 02 40 d1 02 00 00    ...@...@m..@....
    0x10000010:   92 24 01 80 20 01 00 00 ff ff ff ff ff ff ff ff    .$.. ...........
    0x10000020:   00 01 02 00 01 00 00 00 87 05 00 00 01 04 00 00    ................
    0x10000030:   01 04 00 00 00 46 00 00 00 46 00 00 87 05 04 00    .....F...F......
    0x10000040:   04 00 00 00 05 04 00 00 05 04 00 00 04 46 00 00    .............F..
    0x10000050:   04 46 00 00 87 05 08 00 01 04 00 00 01 04 00 00    .F..............
    0x10000060:   00 46 00 00 00 46 00 00 87 05 0c 00 01 04 00 00    .F...F..........
    0x10000070:   01 04 00 00 00 46 00 00 00 46 00 00 87 05 10 00    .....F...F......
    0x10000080:   01 04 00 00 01 04 00 00 00 46 00 00 00 46 00 00    .........F...F..
    0x10000090:   87 05 14 00 01 04 00 00 01 04 00 00 00 46 00 00    .............F..
    0x100000a0:   00 46 00 00 87 05 18 00 01 04 00 00 01 04 00 00    .F..............
    0x100000b0:   00 46 00 00 00 46 00 00 87 05 1c 00 01 04 00 00    .F...F..........
    0x100000c0:   01 04 00 00 00 46 00 00 00 46 00 00 02 04 00 00    .....F...F......
    0x100000d0:   01 00 00 00 01 00 00 00 40 42 0f 00 00 00 00 00    ........@B......
    0x100000e0:   00 00 00 00 00 00 00 00 00 00 00 00 20 a1 07 00    ............ ...
    0x100000f0:   00 00 00 00 00 00 00 00 00 00 00 00 00 00 00 00    ................


** Section #3 'MCU_TCM' (SHT_NOBITS) [SHF_ALLOC + SHF_WRITE]
    Size   : 26600 bytes (alignment 8)
    Address: 0x10000100


** Section #4 'SHARED_SRAM' (SHT_PROGBITS) [SHF_ALLOC + SHF_WRITE]
    Size   : 64 bytes (alignment 4)
    Address: 0x10060000

    0x10060000:   a4 ca 01 00 00 00 00 00 00 00 00 00 00 00 00 00    ................
    0x10060010:   00 00 00 00 00 00 00 00 00 00 00 00 00 00 00 00    ................
    0x10060020:   00 00 00 00 00 00 00 00 00 00 00 00 00 00 00 00    ................
    0x10060030:   00 00 00 00 00 00 00 00 00 00 00 00 00 00 00 00    ................


** Section #5 '.debug_abbrev' (SHT_PROGBITS)
    Size   : 1195 bytes


** Section #6 '.debug_frame' (SHT_PROGBITS)
    Size   : 5524 bytes


** Section #7 '.debug_info' (SHT_PROGBITS)
    Size   : 8930 bytes


** Section #8 '.debug_line' (SHT_PROGBITS)
    Size   : 5753 bytes


** Section #9 '.debug_ranges' (SHT_PROGBITS)
    Size   : 296 bytes


** Section #10 '.debug_str' (SHT_PROGBITS)
    Size   : 6133 bytes


** Section #11 '.symtab' (SHT_SYMTAB)
    Size   : 8656 bytes (alignment 4)
    String table #12 '.strtab'
    Last local symbol no. 247

    Symbol table .symtab (540 symbols, 247 local)

      #  Symbol Name                Value      Bind  Sec  Type  Vis  Size
    ========================================================================

      1  $d                         0x00018000   Lc    1   --   De 
      2  $t                         0x00018200   Lc    1   --   De 
      3  $d                         0x00018230   Lc    1   --   De 
      4  $t                         0x00018234   Lc    1   --   De 
      5  $d                         0x00018268   Lc    1   --   De 
      6  $t                         0x00018270   Lc    1   --   De 
      7  $d                         0x0001833a   Lc    1   --   De 
      8  $t                         0x00018348   Lc    1   --   De 
      9  $d                         0x000183b0   Lc    1   --   De 
     10  $t                         0x000183b4   Lc    1   --   De 
     11  $d                         0x000183bc   Lc    1   --   De 
     12  $t                         0x000183c0   Lc    1   --   De 
     13  $t.10                      0x000183c4   Lc    1   --   De 
     14  $d.16                      0x00018462   Lc    1   --   De 
     15  $t.17                      0x000184a0   Lc    1   --   De 
     16  $d.9                       0x00018a20   Lc    1   --   De 
     17  $t.10                      0x00018a24   Lc    1   --   De 
     18  $d.8                       0x00018e52   Lc    1   --   De 
     19  $t.9                       0x00018e58   Lc    1   --   De 
     20  $d.5                       0x000191fa   Lc    1   --   De 
     21  $t.6                       0x00019200   Lc    1   --   De 
     22  $d.4                       0x0001a77e   Lc    1   --   De 
     23  $t.5                       0x0001a7e4   Lc    1   --   De 
     24  $t                         0x0001c5f8   Lc    1   --   De 
     25  $d                         0x0001c648   Lc    1   --   De 
     26  $t                         0x0001c64c   Lc    1   --   De 
     27  $d                         0x0001c6ca   Lc    1   --   De 
     28  $t                         0x0001c6ce   Lc    1   --   De 
     29  $d.realdata                0x0001c71c   Lc    1   --   De 
     30  $d.realdata                0x10000000   Lc    2   --   De 
     31  $d.realdata                0x10060000   Lc    4   --   De 
     32  am_resources.c             0x00000000   Lc  Abs  File  De 
     33  __tagsym$$used.0           0x0001cc14   Lc    1   --   De 
     34  __tagsym$$used.1           0x0001cbec   Lc    1   --   De 
     35  __tagsym$$used.2           0x0001cc00   Lc    1   --   De 
     36  __tagsym$$used.3           0x0001cc28   Lc    1   --   De 
     37  __tagsym$$used.4           0x10060004   Lc    4   --   De 
     38  __tagsym$$used.5           0x10060018   Lc    4   --   De 
     39  __tagsym$$used.6           0x1006002c   Lc    4   --   De 
     40  __tagsym$$used.7           0x0001caa4   Lc    1   --   De 
     41  __tagsym$$used.8           0x10060000   Lc    4   --   De 
     42  ios_fifo_host.c            0x00000000   Lc  Abs  File  De 
     43  iom_set_up                 0x0001bf45   Lc    1  Code  De   0xee
     44  __NVIC_SetPriority         0x000183f5   Lc    1  Code  De   0x42
     45  __NVIC_EnableIRQ           0x000183c5   Lc    1  Code  De   0x30
     46  .L.str                     0x0001cac0   Lc    1  Data  De   0x28
     47  .L.str.2                   0x0001cae8   Lc    1  Data  De   0x3e
     48  .L.str.4                   0x0001cb26   Lc    1  Data  De   0x23
     49  .L.str.3                   0x0001cb49   Lc    1  Data  De   0x2b
     50  .L.str.1                   0x0001cb74   Lc    1  Data  De   0x2
     51  g_sIOMSpiConfig            0x100000e8   Lc    2  Data  De   0x14
     52  g_sIOMI2cConfig            0x100000d4   Lc    2  Data  De   0x14
     53  am_util_delay.c            0x00000000   Lc  Abs  File  De 
     54  am_util_stdio.c            0x00000000   Lc  Abs  File  De 
     55  decstr_to_int              0x0001adbd   Lc    1  Code  De   0xa6
     56  simple_strlen              0x0001c3c9   Lc    1  Code  De   0x36
     57  padbuffer                  0x0001c379   Lc    1  Code  De   0x50
     58  ndigits_in_hex             0x0001c2cd   Lc    1  Code  De   0x3e
     59  uint64_to_hexstr           0x0001c401   Lc    1  Code  De   0xc0
     60  ndigits_in_u64             0x0001c33d   Lc    1  Code  De   0x3c
     61  uint64_to_str              0x0001c4c1   Lc    1  Code  De   0x88
     62  ndigits_in_i64             0x0001c30d   Lc    1  Code  De   0x30
     63  ftoa                       0x0001af7d   Lc    1  Code  De   0x230
     64  divu64_10                  0x0001ae65   Lc    1  Code  De   0x118
     65  g_bTxtXlate                0x100048d8   Lc    3  Data  De   0x1
     66  g_prfbuf                   0x100048e0   Lc    3  Data  De   0x400
     67  .L.str                     0x0001cb76   Lc    1  Data  De   0x13
     68  ../keil6/startup_keil6.s   0x00000000   Lc  Abs  File  De 
     69  STACK                      0x100058e8   Lc    3  Sect  De   0x1000
     70  StackMem                   0x100058e8   Lc    3  Data  De 
     71  HEAP                       0x100058e8   Lc    3  Sect  De 
     72  HeapMem                    0x100058e8   Lc    3  Data  De 
     73  RESET                      0x00018000   Lc    1  Sect  De   0x234
     74  $v0                        0x00018200   Lc    1   --   De 
     75  am_cryptosec_isr           0x0001822f   Lc    1  Code  De 
     76  am_default_isr             0x0001822f   Lc    1  Code  De   0x2
     77  .text                      0x00018330   Lc    1  Sect  De   0x18
     78  $v0                        0x00018330   Lc    1   --   De 
     79  am_hal_interrupt.c         0x00000000   Lc  Abs  File  De 
     80  am_hal_iom.c               0x00000000   Lc  Abs  File  De 
     81  internal_iom_reset_on_error
                                    0x0001b8fd   Lc    1  Code  De   0x4b4
     82  iom_get_interface_clock_cfg
                                    0x0001bdb1   Lc    1  Code  De   0x194
     83  internal_iom_error_reset_disable_submodule
                                    0x0001b705   Lc    1  Code  De   0x1f8
     84  tIomPinAlloc               0x0001cb9c   Lc    1  Data  De   0x50
     85  am_hal_sysctrl.c           0x00000000   Lc  Abs  File  De 
     86  am_hal_utils.c             0x00000000   Lc  Abs  File  De 
     87  am_hal_gpio.c              0x00000000   Lc  Abs  File  De 
     88  g_ui32RMpintbl             0x0001c8b0   Lc    1  Data  De   0x10
     89  g_ui32DSpintbl             0x0001cb8c   Lc    1  Data  De   0x10
     90  gpio_ppfnHandlers          0x100050e8   Lc    3  Data  De   0x400
     91  gpio_pppvIrqArgs           0x100054e8   Lc    3  Data  De   0x400
     92  am_bsp.c                   0x00000000   Lc  Abs  File  De 
     93  .L_MergedGlobals           0x10000160   Lc    3  Data  De   0x8
     94  g_ePrintInterface          0x10000160   Lc    3  Data  De   0x1
     95  g_sCOMUART                 0x10000164   Lc    3  Data  De   0x4
     96  am_hal_bootrom_helper.c    0x00000000   Lc  Abs  File  De 
     97  am_hal_cachectrl.c         0x00000000   Lc  Abs  File  De 
     98  am_hal_cmdq.c              0x00000000   Lc  Abs  File  De 
     99  gAmHalCmdq                 0x10000190   Lc    3  Data  De   0x1e4
    100  gAmHalCmdQReg              0x0001c8c0   Lc    1  Data  De   0x1b8
    101  am_hal_itm.c               0x00000000   Lc  Abs  File  De 
    102  am_hal_rtc.c               0x00000000   Lc  Abs  File  De 
    103  am_hal_tpiu.c              0x00000000   Lc  Abs  File  De 
    104  am_hal_uart.c              0x00000000   Lc  Abs  File  De 
    105  am_hal_dcu.c               0x00000000   Lc  Abs  File  De 
    106  get_ui32_dcu_mask          0x0001b5d1   Lc    1  Code  De   0x124
    107  get_raw_dcu_mask           0x0001b1ad   Lc    1  Code  De   0x424
    108  .L_MergedGlobals           0x10000000   Lc    2  Data  De   0x18
    109  am_hal_global.c            0x00000000   Lc  Abs  File  De 
    110  am_hal_pin.c               0x00000000   Lc  Abs  File  De 
    111  am_hal_pwrctrl.c           0x00000000   Lc  Abs  File  De 
    112  .L_MergedGlobals           0x10000018   Lc    2  Data  De   0x8
    113  .L_MergedGlobals.1         0x10000168   Lc    3  Data  De   0x24
    114  g_bBoostForCryptoApplied   0x10000168   Lc    3  Data  De   0x1
    115  g_bOrigTrimsStored         0x10000169   Lc    3  Data  De   0x1
    116  g_i32LatestVddfActTrim     0x1000016c   Lc    3  Data  De   0x4
    117  g_i32LatestLDOActTrim      0x10000170   Lc    3  Data  De   0x4
    118  g_ui32VDDFAdjustCodes      0x10000174   Lc    3  Data  De   0x4
    119  g_orig_ACTTRIMVDDF         0x10000178   Lc    3  Data  De   0x4
    120  g_orig_MEMLDOACTIVETRIM    0x1000017c   Lc    3  Data  De   0x4
    121  g_orig_LPTRIMVDDF          0x10000180   Lc    3  Data  De   0x4
    122  g_orig_MEMLPLDOTRIM        0x10000184   Lc    3  Data  De   0x4
    123  g_orig_TVRGVREFTRIM        0x10000188   Lc    3  Data  De   0x4
    124  am_bsp_pins.c              0x00000000   Lc  Abs  File  De 
    125  am_hal_mram.c              0x00000000   Lc  Abs  File  De 
    126  am_hal_queue.c             0x00000000   Lc  Abs  File  De 
    127  dc.s                       0x00000000   Lc  Abs  File  De 
    128  ../clib/heapaux.c          0x00000000   Lc  Abs  File  De 
    129  .text                      0x00018348   Lc    1  Sect  De 
    130  ../clib/angel/startup.s    0x00000000   Lc  Abs  File  De 
    131  !!!main                    0x00018234   Lc    1  Sect  De   0x8
    132  ../clib/angel/handlers.s   0x00000000   Lc  Abs  File  De 
    133  !!handler_copy             0x000182cc   Lc    1  Sect  De   0x1a
    134  ../fplib/d2f.s             0x00000000   Lc  Abs  File  De 
    135  x$fpl$d2f                  0x0001c5f8   Lc    1  Sect  De   0x62
    136  $v0                        0x0001c5f8   Lc    1   --   De 
    137  ../clib/angel/kernel.s     0x00000000   Lc  Abs  File  De 
    138  .ARM.Collect$$rtentry$$00000000
                                    0x00018310   Lc    1  Sect  De 
    139  ../fplib/dnaninf.s         0x00000000   Lc  Abs  File  De 
    140  x$fpl$dnaninf              0x0001c65a   Lc    1  Sect  De   0x9c
    141  $v0                        0x0001c65a   Lc    1   --   De 
    142  ../fplib/fretinf.s         0x00000000   Lc  Abs  File  De 
    143  x$fpl$fretinf              0x0001c710   Lc    1  Sect  De   0xa
    144  $v0                        0x0001c710   Lc    1   --   De 
    145  ../fplib/usenofp.s         0x00000000   Lc  Abs  File  De 
    146  x$fpl$usenofp              0x0001c71a   Lc    1  Sect  De 
    147  ../clib/angel/kernel.s     0x00000000   Lc  Abs  File  De 
    148  .ARM.Collect$$rtentry$$00000002
                                    0x00018310   Lc    1  Sect  De 
    149  .ARM.Collect$$rtentry$$00000009
                                    0x00018316   Lc    1  Sect  De 
    150  .ARM.Collect$$rtentry$$0000000A
                                    0x00018316   Lc    1  Sect  De   0x4
    151  .ARM.Collect$$rtentry$$0000000C
                                    0x0001831a   Lc    1  Sect  De 
    152  .ARM.Collect$$rtentry$$0000000D
                                    0x0001831a   Lc    1  Sect  De   0x8
    153  ../clib/angel/kernel.s     0x00000000   Lc  Abs  File  De 
    154  .ARM.Collect$$rtentry$$00000004
                                    0x00018310   Lc    1  Sect  De   0x6
    155  ../clib/angel/sys.s        0x00000000   Lc  Abs  File  De 
    156  .text                      0x0001834e   Lc    1  Sect  De   0x4a
    157  ../clib/stdlib.c           0x00000000   Lc  Abs  File  De 
    158  .text                      0x00018398   Lc    1  Sect  De 
    159  ../clib/angel/boardlib.s   0x00000000   Lc  Abs  File  De 
    160  ../clib/angel/boardlib.s   0x00000000   Lc  Abs  File  De 
    161  ../clib/angel/boardlib.s   0x00000000   Lc  Abs  File  De 
    162  ../clib/libinit.s          0x00000000   Lc  Abs  File  De 
    163  .ARM.Collect$$libinit$$00000000
                                    0x00018304   Lc    1  Sect  De   0x2
    164  ../clib/angel/sys.s        0x00000000   Lc  Abs  File  De 
    165  .text                      0x000183ac   Lc    1  Sect  De   0x8
    166  .bss                       0x10000100   Lc    3  Sect  De   0x60
    167  ../clib/angel/kernel.s     0x00000000   Lc  Abs  File  De 
    168  .ARM.Collect$$rtexit$$00000000
                                    0x00018322   Lc    1  Sect  De   0x2
    169  ../clib/libinit.s          0x00000000   Lc  Abs  File  De 
    170  .ARM.Collect$$libinit$$00000001
                                    0x00018306   Lc    1  Sect  De   0x4
    171  .ARM.Collect$$libinit$$00000004
                                    0x0001830a   Lc    1  Sect  De 
    172  .ARM.Collect$$libinit$$00000006
                                    0x0001830a   Lc    1  Sect  De 
    173  .ARM.Collect$$libinit$$0000000C
                                    0x0001830a   Lc    1  Sect  De 
    174  .ARM.Collect$$libinit$$0000000E
                                    0x0001830a   Lc    1  Sect  De 
    175  .ARM.Collect$$libinit$$00000010
                                    0x0001830a   Lc    1  Sect  De 
    176  .ARM.Collect$$libinit$$00000013
                                    0x0001830a   Lc    1  Sect  De 
    177  .ARM.Collect$$libinit$$00000015
                                    0x0001830a   Lc    1  Sect  De 
    178  .ARM.Collect$$libinit$$00000017
                                    0x0001830a   Lc    1  Sect  De 
    179  .ARM.Collect$$libinit$$00000019
                                    0x0001830a   Lc    1  Sect  De 
    180  .ARM.Collect$$libinit$$0000001B
                                    0x0001830a   Lc    1  Sect  De 
    181  .ARM.Collect$$libinit$$0000001D
                                    0x0001830a   Lc    1  Sect  De 
    182  .ARM.Collect$$libinit$$0000001F
                                    0x0001830a   Lc    1  Sect  De 
    183  .ARM.Collect$$libinit$$00000021
                                    0x0001830a   Lc    1  Sect  De 
    184  .ARM.Collect$$libinit$$00000023
                                    0x0001830a   Lc    1  Sect  De 
    185  .ARM.Collect$$libinit$$00000025
                                    0x0001830a   Lc    1  Sect  De 
    186  .ARM.Collect$$libinit$$00000027
                                    0x0001830a   Lc    1  Sect  De 
    187  .ARM.Collect$$libinit$$0000002E
                                    0x0001830a   Lc    1  Sect  De 
    188  .ARM.Collect$$libinit$$00000030
                                    0x0001830a   Lc    1  Sect  De 
    189  .ARM.Collect$$libinit$$00000032
                                    0x0001830a   Lc    1  Sect  De 
    190  .ARM.Collect$$libinit$$00000034
                                    0x0001830a   Lc    1  Sect  De 
    191  .ARM.Collect$$libinit$$00000035
                                    0x0001830a   Lc    1  Sect  De   0x2
    192  ../clib/angel/kernel.s     0x00000000   Lc  Abs  File  De 
    193  .ARM.Collect$$rtexit$$00000002
                                    0x00018324   Lc    1  Sect  De 
    194  .ARM.Collect$$rtexit$$00000003
                                    0x00018324   Lc    1  Sect  De   0x4
    195  .ARM.Collect$$rtexit$$00000004
                                    0x00018328   Lc    1  Sect  De   0x6
    196  ../clib/armsys.c           0x00000000   Lc  Abs  File  De 
    197  ../clib/armsys.c           0x00000000   Lc  Abs  File  De 
    198  ../fplib/fpinit.s          0x00000000   Lc  Abs  File  De 
    199  x$fpl$fpinit               0x0001c6f6   Lc    1  Sect  De   0x1a
    200  $v0                        0x0001c6f6   Lc    1   --   De 
    201  ../clib/angel/sysapp.c     0x00000000   Lc  Abs  File  De 
    202  .text                      0x000183b4   Lc    1  Sect  De 
    203  ../clib/angel/sysapp.c     0x00000000   Lc  Abs  File  De 
    204  ../clib/angel/boardlib.s   0x00000000   Lc  Abs  File  De 
    205  ../clib/armsys.c           0x00000000   Lc  Abs  File  De 
    206  ../clib/armsys.c           0x00000000   Lc  Abs  File  De 
    207  ../clib/libinit.s          0x00000000   Lc  Abs  File  De 
    208  .ARM.Collect$$libshutdown$$00000000
                                    0x0001830c   Lc    1  Sect  De   0x2
    209  ../clib/angel/sysapp.c     0x00000000   Lc  Abs  File  De 
    210  ../clib/angel/sysapp.c     0x00000000   Lc  Abs  File  De 
    211  ../clib/angel/sys.s        0x00000000   Lc  Abs  File  De 
    212  .text                      0x000183c0   Lc    1  Sect  De   0x2
    213  ../clib/angel/sys.s        0x00000000   Lc  Abs  File  De 
    214  .text                      0x000183c2   Lc    1  Sect  De 
    215  ../clib/heapalloc.c        0x00000000   Lc  Abs  File  De 
    216  ../clib/signal.c           0x00000000   Lc  Abs  File  De 
    217  ../clib/signal.c           0x00000000   Lc  Abs  File  De 
    218  ../clib/libinit.s          0x00000000   Lc  Abs  File  De 
    219  .ARM.Collect$$libshutdown$$00000002
                                    0x0001830e   Lc    1  Sect  De 
    220  .ARM.Collect$$libshutdown$$00000004
                                    0x0001830e   Lc    1  Sect  De 
    221  .ARM.Collect$$libshutdown$$00000007
                                    0x0001830e   Lc    1  Sect  De 
    222  .ARM.Collect$$libshutdown$$0000000A
                                    0x0001830e   Lc    1  Sect  De 
    223  .ARM.Collect$$libshutdown$$0000000C
                                    0x0001830e   Lc    1  Sect  De 
    224  .ARM.Collect$$libshutdown$$0000000F
                                    0x0001830e   Lc    1  Sect  De 
    225  .ARM.Collect$$libshutdown$$00000010
                                    0x0001830e   Lc    1  Sect  De   0x2
    226  ../clib/angel/rt.s         0x00000000   Lc  Abs  File  De 
    227  ../clib/signal.c           0x00000000   Lc  Abs  File  De 
    228  ../clib/signal.c           0x00000000   Lc  Abs  File  De 
    229  ../clib/signal.c           0x00000000   Lc  Abs  File  De 
    230  ../clib/signal.c           0x00000000   Lc  Abs  File  De 
    231  ../clib/angel/sysapp.c     0x00000000   Lc  Abs  File  De 
    232  ../clib/angel/sysapp.c     0x00000000   Lc  Abs  File  De 
    233  ../clib/signal.s           0x00000000   Lc  Abs  File  De 
    234  ../clib/signal.c           0x00000000   Lc  Abs  File  De 
    235  ../clib/signal.c           0x00000000   Lc  Abs  File  De 
    236  ../clib/signal.c           0x00000000   Lc  Abs  File  De 
    237  ../clib/signal.c           0x00000000   Lc  Abs  File  De 
    238  ../clib/signal.c           0x00000000   Lc  Abs  File  De 
    239  ../clib/signal.c           0x00000000   Lc  Abs  File  De 
    240  ../clib/signal.c           0x00000000   Lc  Abs  File  De 
    241  ../clib/signal.c           0x00000000   Lc  Abs  File  De 
    242  ../clib/angel/dczerorl2.s  0x00000000   Lc  Abs  File  De 
    243  !!dczerorl2                0x00018270   Lc    1  Sect  De   0x5a
    244  ../clib/angel/scatter.s    0x00000000   Lc  Abs  File  De 
    245  !!!scatter                 0x0001823c   Lc    1  Sect  De   0x34
    246  ../clib/angel/handlers.s   0x00000000   Lc  Abs  File  De 
    247  !!handler_zi               0x000182e8   Lc    1  Sect  De   0x1c
    248  BuildAttributes$$THM_ISAv4$E$P$D$K$B$S$7EM$VFPi3$EXTD16$VFPS$VFMA$PE$A:L22UL41UL21$X:L11$S22US41US21$IEEE1$IW$~IW$USESV6$~STKCKD$USESV7$~SHL$OTIME$ROPI$EBA8$UX$STANDARDLIB$REQ8$PRES8$EABIv2
                                    0x00000000   Gb  Abs   --   Hi 
    249  __Vectors                  0x00018000   Gb    1  Data  Hi 
    250  __Patchable                0x00018190   Gb    1  Data  Hi 
    251  Reset_Handler              0x00018201   Wk    1  Code  Hi   0x1c
    252  HardFault_Handler          0x0001821d   Wk    1  Code  Hi   0x2
    253  NMI_Handler                0x0001821f   Wk    1  Code  Hi   0x2
    254  MemManage_Handler          0x00018221   Wk    1  Code  Hi   0x2
    255  BusFault_Handler           0x00018223   Wk    1  Code  Hi   0x2
    256  UsageFault_Handler         0x00018225   Wk    1  Code  Hi   0x2
    257  SVC_Handler                0x00018227   Wk    1  Code  Hi   0x2
    258  DebugMon_Handler           0x00018229   Wk    1  Code  Hi   0x2
    259  PendSV_Handler             0x0001822b   Wk    1  Code  Hi   0x2
    260  SysTick_Handler            0x0001822d   Wk    1  Code  Hi   0x2
    261  am_adc_isr                 0x0001822f   Wk    1  Code  Hi 
    262  am_audadc0_isr             0x0001822f   Wk    1  Code  Hi 
    263  am_brownout_isr            0x0001822f   Wk    1  Code  Hi 
    264  am_cachecpu_isr            0x0001822f   Wk    1  Code  Hi 
    265  am_clkgen_isr              0x0001822f   Wk    1  Code  Hi 
    266  am_ctimer_isr              0x0001822f   Wk    1  Code  Hi 
    267  am_disp_isr                0x0001822f   Wk    1  Code  Hi 
    268  am_dsi_isr                 0x0001822f   Wk    1  Code  Hi 
    269  am_dspi2s0_isr             0x0001822f   Wk    1  Code  Hi 
    270  am_dspi2s1_isr             0x0001822f   Wk    1  Code  Hi 
    271  am_dspi2s2_isr             0x0001822f   Wk    1  Code  Hi 
    272  am_dspi2s3_isr             0x0001822f   Wk    1  Code  Hi 
    273  am_gpio0_203f_isr          0x0001822f   Wk    1  Code  Hi 
    274  am_gpio0_405f_isr          0x0001822f   Wk    1  Code  Hi 
    275  am_gpio0_607f_isr          0x0001822f   Wk    1  Code  Hi 
    276  am_gpio1_001f_isr          0x0001822f   Wk    1  Code  Hi 
    277  am_gpio1_203f_isr          0x0001822f   Wk    1  Code  Hi 
    278  am_gpio1_405f_isr          0x0001822f   Wk    1  Code  Hi 
    279  am_gpio1_607f_isr          0x0001822f   Wk    1  Code  Hi 
    280  am_gpu_isr                 0x0001822f   Wk    1  Code  Hi 
    281  am_iomaster0_isr           0x0001822f   Wk    1  Code  Hi 
    282  am_iomaster1_isr           0x0001822f   Wk    1  Code  Hi 
    283  am_iomaster2_isr           0x0001822f   Wk    1  Code  Hi 
    284  am_iomaster3_isr           0x0001822f   Wk    1  Code  Hi 
    285  am_iomaster4_isr           0x0001822f   Wk    1  Code  Hi 
    286  am_iomaster5_isr           0x0001822f   Wk    1  Code  Hi 
    287  am_iomaster6_isr           0x0001822f   Wk    1  Code  Hi 
    288  am_iomaster7_isr           0x0001822f   Wk    1  Code  Hi 
    289  am_ioslave_acc_isr         0x0001822f   Wk    1  Code  Hi 
    290  am_ioslave_ios_isr         0x0001822f   Wk    1  Code  Hi 
    291  am_mspi0_isr               0x0001822f   Wk    1  Code  Hi 
    292  am_mspi1_isr               0x0001822f   Wk    1  Code  Hi 
    293  am_mspi2_isr               0x0001822f   Wk    1  Code  Hi 
    294  am_pdm0_isr                0x0001822f   Wk    1  Code  Hi 
    295  am_pdm1_isr                0x0001822f   Wk    1  Code  Hi 
    296  am_pdm2_isr                0x0001822f   Wk    1  Code  Hi 
    297  am_pdm3_isr                0x0001822f   Wk    1  Code  Hi 
    298  am_rtc_isr                 0x0001822f   Wk    1  Code  Hi 
    299  am_sdio_isr                0x0001822f   Wk    1  Code  Hi 
    300  am_stimer_cmpr0_isr        0x0001822f   Wk    1  Code  Hi 
    301  am_stimer_cmpr1_isr        0x0001822f   Wk    1  Code  Hi 
    302  am_stimer_cmpr2_isr        0x0001822f   Wk    1  Code  Hi 
    303  am_stimer_cmpr3_isr        0x0001822f   Wk    1  Code  Hi 
    304  am_stimer_cmpr4_isr        0x0001822f   Wk    1  Code  Hi 
    305  am_stimer_cmpr5_isr        0x0001822f   Wk    1  Code  Hi 
    306  am_stimer_cmpr6_isr        0x0001822f   Wk    1  Code  Hi 
    307  am_stimer_cmpr7_isr        0x0001822f   Wk    1  Code  Hi 
    308  am_stimerof_isr            0x0001822f   Wk    1  Code  Hi 
    309  am_timer00_isr             0x0001822f   Wk    1  Code  Hi 
    310  am_timer01_isr             0x0001822f   Wk    1  Code  Hi 
    311  am_timer02_isr             0x0001822f   Wk    1  Code  Hi 
    312  am_timer03_isr             0x0001822f   Wk    1  Code  Hi 
    313  am_timer04_isr             0x0001822f   Wk    1  Code  Hi 
    314  am_timer05_isr             0x0001822f   Wk    1  Code  Hi 
    315  am_timer06_isr             0x0001822f   Wk    1  Code  Hi 
    316  am_timer07_isr             0x0001822f   Wk    1  Code  Hi 
    317  am_timer08_isr             0x0001822f   Wk    1  Code  Hi 
    318  am_timer09_isr             0x0001822f   Wk    1  Code  Hi 
    319  am_timer10_isr             0x0001822f   Wk    1  Code  Hi 
    320  am_timer11_isr             0x0001822f   Wk    1  Code  Hi 
    321  am_timer12_isr             0x0001822f   Wk    1  Code  Hi 
    322  am_timer13_isr             0x0001822f   Wk    1  Code  Hi 
    323  am_timer14_isr             0x0001822f   Wk    1  Code  Hi 
    324  am_timer15_isr             0x0001822f   Wk    1  Code  Hi 
    325  am_uart1_isr               0x0001822f   Wk    1  Code  Hi 
    326  am_uart2_isr               0x0001822f   Wk    1  Code  Hi 
    327  am_uart3_isr               0x0001822f   Wk    1  Code  Hi 
    328  am_uart_isr                0x0001822f   Wk    1  Code  Hi 
    329  am_usb_isr                 0x0001822f   Wk    1  Code  Hi 
    330  am_vcomp_isr               0x0001822f   Wk    1  Code  Hi 
    331  am_watchdog_isr            0x0001822f   Wk    1  Code  Hi 
    332  __main                     0x00018235   Gb    1  Code  Hi   0x8
    333  __scatterload              0x0001823d   Gb    1  Code  Hi 
    334  __scatterload_rt2          0x0001823d   Gb    1  Code  Hi   0x2c
    335  __scatterload_rt2_thumb_only
                                    0x0001823d   Gb    1  Code  Hi 
    336  __scatterload_null         0x0001824b   Gb    1  Code  Hi 
    337  __decompress               0x00018271   Gb    1  Code  Hi   0x5a
    338  __decompress1              0x00018271   Gb    1  Code  Hi 
    339  __scatterload_copy         0x000182cd   Gb    1  Code  Hi   0x1a
    340  __scatterload_zeroinit     0x000182e9   Gb    1  Code  Hi   0x1c
    341  __rt_lib_init              0x00018305   Gb    1  Code  De 
    342  __rt_lib_init_fp_1         0x00018307   Gb    1  Code  Hi 
    343  __rt_lib_init_alloca_1     0x0001830b   Gb    1  Code  Hi 
    344  __rt_lib_init_argv_1       0x0001830b   Gb    1  Code  Hi 
    345  __rt_lib_init_atexit_1     0x0001830b   Gb    1  Code  Hi 
    346  __rt_lib_init_clock_1      0x0001830b   Gb    1  Code  Hi 
    347  __rt_lib_init_cpp_1        0x0001830b   Gb    1  Code  Hi 
    348  __rt_lib_init_exceptions_1 0x0001830b   Gb    1  Code  Hi 
    349  __rt_lib_init_fp_trap_1    0x0001830b   Gb    1  Code  Hi 
    350  __rt_lib_init_getenv_1     0x0001830b   Gb    1  Code  Hi 
    351  __rt_lib_init_heap_1       0x0001830b   Gb    1  Code  Hi 
    352  __rt_lib_init_lc_collate_1 0x0001830b   Gb    1  Code  Hi 
    353  __rt_lib_init_lc_ctype_1   0x0001830b   Gb    1  Code  Hi 
    354  __rt_lib_init_lc_monetary_1
                                    0x0001830b   Gb    1  Code  Hi 
    355  __rt_lib_init_lc_numeric_1 0x0001830b   Gb    1  Code  Hi 
    356  __rt_lib_init_lc_time_1    0x0001830b   Gb    1  Code  Hi 
    357  __rt_lib_init_preinit_1    0x0001830b   Gb    1  Code  Hi 
    358  __rt_lib_init_rand_1       0x0001830b   Gb    1  Code  Hi 
    359  __rt_lib_init_relocate_pie_1
                                    0x0001830b   Gb    1  Code  Hi 
    360  __rt_lib_init_return       0x0001830b   Gb    1  Code  Hi 
    361  __rt_lib_init_signal_1     0x0001830b   Gb    1  Code  Hi 
    362  __rt_lib_init_stdio_1      0x0001830b   Gb    1  Code  Hi 
    363  __rt_lib_init_user_alloc_1 0x0001830b   Gb    1  Code  Hi 
    364  __rt_lib_shutdown          0x0001830d   Gb    1  Code  De 
    365  __rt_lib_shutdown_cpp_1    0x0001830f   Gb    1  Code  Hi 
    366  __rt_lib_shutdown_fp_trap_1
                                    0x0001830f   Gb    1  Code  Hi 
    367  __rt_lib_shutdown_heap_1   0x0001830f   Gb    1  Code  Hi 
    368  __rt_lib_shutdown_return   0x0001830f   Gb    1  Code  Hi 
    369  __rt_lib_shutdown_signal_1 0x0001830f   Gb    1  Code  Hi 
    370  __rt_lib_shutdown_stdio_1  0x0001830f   Gb    1  Code  Hi 
    371  __rt_lib_shutdown_user_alloc_1
                                    0x0001830f   Gb    1  Code  Hi 
    372  __rt_entry                 0x00018311   Gb    1  Code  Hi 
    373  __rt_entry_presh_1         0x00018311   Gb    1  Code  Hi 
    374  __rt_entry_sh              0x00018311   Gb    1  Code  Hi 
    375  __rt_entry_li              0x00018317   Gb    1  Code  Hi 
    376  __rt_entry_postsh_1        0x00018317   Gb    1  Code  Hi 
    377  __rt_entry_main            0x0001831b   Gb    1  Code  Hi 
    378  __rt_entry_postli_1        0x0001831b   Gb    1  Code  Hi 
    379  __rt_exit                  0x00018323   Gb    1  Code  De 
    380  __rt_exit_ls               0x00018325   Gb    1  Code  Hi 
    381  __rt_exit_prels_1          0x00018325   Gb    1  Code  Hi 
    382  __rt_exit_exit             0x00018329   Gb    1  Code  Hi 
    383  __user_initial_stackheap   0x00018331   Gb    1  Code  Hi   0xa
    384  __use_two_region_memory    0x00018349   Gb    1  Code  Hi   0x2
    385  __rt_heap_escrow$2region   0x0001834b   Gb    1  Code  De   0x2
    386  __rt_heap_expand$2region   0x0001834d   Gb    1  Code  De   0x2
    387  __user_setup_stackheap     0x0001834f   Gb    1  Code  De   0x4a
    388  exit                       0x00018399   Gb    1  Code  De   0x12
    389  __user_libspace            0x000183ad   Wk    1  Code  De   0x8
    390  __user_perproc_libspace    0x000183ad   Wk    1  Code  De 
    391  __user_perthread_libspace  0x000183ad   Wk    1  Code  De 
    392  _sys_exit                  0x000183b5   Gb    1  Code  De   0x8
    393  __I$use$semihosting        0x000183c1   Gb    1  Code  Hi 
    394  __use_no_semihosting_swi   0x000183c1   Gb    1  Code  Hi   0x2
    395  __semihosting_library_function
                                    0x000183c3   Gb    1  Code  Hi 
    396  am_bsp_iom_pins_enable     0x00018439   Gb    1  Code  Hi   0x2e2
    397  am_bsp_itm_printf_enable   0x0001871d   Gb    1  Code  Hi   0xca
    398  am_gpio0_001f_isr          0x000187e9   Gb    1  Code  Hi   0x30
    399  am_gpu_power_disable       0x00018819   Wk    1  Code  Hi   0x2
    400  am_gpu_power_enable        0x0001881d   Wk    1  Code  Hi   0x2
    401  am_hal_cmdq_disable        0x00018821   Gb    1  Code  Hi   0x38
    402  am_hal_cmdq_enable         0x00018859   Gb    1  Code  Hi   0x50
    403  am_hal_cmdq_init           0x000188a9   Gb    1  Code  Hi   0xbe
    404  am_hal_daxi_config         0x00018969   Gb    1  Code  Hi   0xac
    405  am_hal_daxi_control        0x00018a15   Gb    1  Code  Hi   0x116
    406  am_hal_dcu_get             0x00018b2d   Gb    1  Code  Hi   0x3e
    407  am_hal_dcu_update          0x00018b6d   Gb    1  Code  Hi   0xa2
    408  am_hal_delay_us            0x00018c11   Gb    1  Code  Hi   0x36
    409  am_hal_delay_us_status_change
                                    0x00018c49   Gb    1  Code  Hi   0x58
    410  am_hal_delay_us_status_check
                                    0x00018ca1   Gb    1  Code  Hi   0x98
    411  am_hal_gpio_interrupt_clear
                                    0x00018d39   Gb    1  Code  Hi   0xaa
    412  am_hal_gpio_interrupt_control
                                    0x00018de5   Gb    1  Code  Hi   0x168
    413  am_hal_gpio_interrupt_irq_clear
                                    0x00018f4d   Gb    1  Code  Hi   0x38
    414  am_hal_gpio_interrupt_irq_status_get
                                    0x00018f85   Gb    1  Code  Hi   0x72
    415  am_hal_gpio_interrupt_register
                                    0x00018ff9   Gb    1  Code  Hi   0xae
    416  am_hal_gpio_interrupt_service
                                    0x000190a9   Gb    1  Code  Hi   0x74
    417  am_hal_gpio_pinconfig      0x0001911d   Gb    1  Code  Hi   0x98
    418  am_hal_gpio_pinconfig_get  0x000191b5   Gb    1  Code  Hi   0x38
    419  am_hal_gpio_state_write    0x000191ed   Gb    1  Code  Hi   0x10a
    420  am_hal_interrupt_master_disable
                                    0x000192f9   Gb    1  Code  Hi   0x8
    421  am_hal_interrupt_master_enable
                                    0x00019301   Gb    1  Code  Hi   0x8
    422  am_hal_interrupt_master_set
                                    0x00019309   Gb    1  Code  Hi   0x6
    423  am_hal_iom_CQEnable        0x00019311   Gb    1  Code  Hi   0x32
    424  am_hal_iom_blocking_transfer
                                    0x00019345   Gb    1  Code  Hi   0x694
    425  am_hal_iom_configure       0x000199d9   Gb    1  Code  Hi   0x182
    426  am_hal_iom_enable          0x00019b5d   Gb    1  Code  Hi   0x100
    427  am_hal_iom_initialize      0x00019c5d   Gb    1  Code  Hi   0x48
    428  am_hal_iom_power_ctrl      0x00019ca5   Gb    1  Code  Hi   0x220
    429  am_hal_itm_enable          0x00019ec5   Gb    1  Code  Hi   0x56
    430  am_hal_itm_print           0x00019f1d   Gb    1  Code  Hi   0x136
    431  am_hal_pwrctrl_mcu_mode_select
                                    0x0001a055   Gb    1  Code  Hi   0x9e
    432  am_hal_pwrctrl_mcu_mode_status
                                    0x0001a0f5   Gb    1  Code  Hi   0x18
    433  am_hal_pwrctrl_periph_disable
                                    0x0001a10d   Gb    1  Code  Hi   0x134
    434  am_hal_pwrctrl_periph_enable
                                    0x0001a241   Gb    1  Code  Hi   0x1a8
    435  am_hal_sysctrl_sleep       0x0001a3e9   Gb    1  Code  Hi   0x152
    436  am_hal_tpiu_enable         0x0001a53d   Gb    1  Code  Hi   0x6e
    437  am_util_delay_ms           0x0001a5ad   Gb    1  Code  Hi   0x16
    438  am_util_stdio_printf       0x0001a5c5   Gb    1  Code  Hi   0x5c
    439  am_util_stdio_printf_init  0x0001a621   Gb    1  Code  Hi   0x14
    440  am_util_stdio_terminal_clear
                                    0x0001a635   Gb    1  Code  Hi   0x10
    441  am_util_stdio_vsprintf     0x0001a645   Gb    1  Code  Hi   0x654
    442  buck_ldo_update_override   0x0001ac99   Gb    1  Code  Hi   0x2a
    443  clear_rx_buf               0x0001acc5   Gb    1  Code  Hi   0x30
    444  crypto_boost_trims         0x0001acf5   Gb    1  Code  Hi   0xc8
    445  hostint_handler            0x0001b6f5   Gb    1  Code  Hi   0xe
    446  iom_slave_read             0x0001c035   Gb    1  Code  Hi   0x5c
    447  iom_slave_write            0x0001c091   Gb    1  Code  Hi   0x5c
    448  main                       0x0001c0ed   Gb    1  Code  Hi   0x1de
    449  update_progress            0x0001c549   Gb    1  Code  Hi   0x3a
    450  validate_rx_buf            0x0001c585   Gb    1  Code  Hi   0x72
    451  __aeabi_d2f                0x0001c5f9   Gb    1  Code  De 
    452  _d2f                       0x0001c5f9   Gb    1  Code  De   0x62
    453  __fpl_dnaninf              0x0001c65b   Gb    1  Code  De   0x9c
    454  _fp_init                   0x0001c6f7   Gb    1  Code  De   0x1a
    455  __fplib_config_fpu_vfp     0x0001c70f   Gb    1  Code  De 
    456  __fplib_config_pureend_doubles
                                    0x0001c70f   Gb    1  Code  De 
    457  __fpl_fretinf              0x0001c711   Gb    1  Code  De   0xa
    458  __I$use$fp                 0x0001c71a   Gb    1   --   De 
    459  am_hal_gpio_pincfg_pulledup_disabled
                                    0x0001c71c   Gb    1  Data  Hi   0x4
    460  am_hal_pwrctrl_peripheral_control
                                    0x0001c720   Gb    1  Data  Hi   0x190
    461  g_AM_BSP_GPIO_HANDSHAKE    0x0001ca78   Gb    1  Data  Hi   0x4
    462  g_am_hal_bootrom_helper    0x0001ca7c   Gb    1  Data  Hi   0x28
    463  sGlobalAccess              0x0001caa4   Gb    1  Data  Hi   0x1c
    464  ui32DSP0Allowed            0x0001cbec   Gb    1  Data  Hi   0x14
    465  ui32DSP1Allowed            0x0001cc00   Gb    1  Data  Hi   0x14
    466  ui32MCUAllowed             0x0001cc14   Gb    1  Data  Hi   0x14
    467  ui32SharedAccess           0x0001cc28   Gb    1  Data  Hi   0x14
    468  Region$$Table$$Base        0x0001cc3c   Gb    1   --   Hi 
    469  Region$$Table$$Limit       0x0001cc6c   Gb    1   --   Hi 
    470  gpDcuEnable                0x10000000   Gb    2  Data  Hi   0x4
    471  gpDcuLock                  0x10000004   Gb    2  Data  Hi   0x4
    472  gDcuEnable                 0x10000008   Gb    2  Data  Hi   0x8
    473  gDcuDisable                0x10000010   Gb    2  Data  Hi   0x8
    474  g_ui32TrimVer              0x10000018   Gb    2  Data  Hi   0x4
    475  g_ui32origSimobuckVDDStrim 0x1000001c   Gb    2  Data  Hi   0x4
    476  gDaxiConfig                0x10000020   Gb    2  Data  Hi   0x5
    477  g_AM_BSP_GPIO_IOM0_CS      0x10000028   Gb    2  Data  Hi   0x4
    478  g_AM_BSP_GPIO_IOM0_MOSI    0x1000002c   Gb    2  Data  Hi   0x4
    479  g_AM_BSP_GPIO_IOM0_SCK     0x10000030   Gb    2  Data  Hi   0x4
    480  g_AM_BSP_GPIO_IOM0_SCL     0x10000034   Gb    2  Data  Hi   0x4
    481  g_AM_BSP_GPIO_IOM0_SDA     0x10000038   Gb    2  Data  Hi   0x4
    482  g_AM_BSP_GPIO_IOM1_CS      0x1000003c   Gb    2  Data  Hi   0x4
    483  g_AM_BSP_GPIO_IOM1_MISO    0x10000040   Gb    2  Data  Hi   0x4
    484  g_AM_BSP_GPIO_IOM1_MOSI    0x10000044   Gb    2  Data  Hi   0x4
    485  g_AM_BSP_GPIO_IOM1_SCK     0x10000048   Gb    2  Data  Hi   0x4
    486  g_AM_BSP_GPIO_IOM1_SCL     0x1000004c   Gb    2  Data  Hi   0x4
    487  g_AM_BSP_GPIO_IOM1_SDA     0x10000050   Gb    2  Data  Hi   0x4
    488  g_AM_BSP_GPIO_IOM2_CS      0x10000054   Gb    2  Data  Hi   0x4
    489  g_AM_BSP_GPIO_IOM2_MOSI    0x10000058   Gb    2  Data  Hi   0x4
    490  g_AM_BSP_GPIO_IOM2_SCK     0x1000005c   Gb    2  Data  Hi   0x4
    491  g_AM_BSP_GPIO_IOM2_SCL     0x10000060   Gb    2  Data  Hi   0x4
    492  g_AM_BSP_GPIO_IOM2_SDA     0x10000064   Gb    2  Data  Hi   0x4
    493  g_AM_BSP_GPIO_IOM3_CS      0x10000068   Gb    2  Data  Hi   0x4
    494  g_AM_BSP_GPIO_IOM3_MOSI    0x1000006c   Gb    2  Data  Hi   0x4
    495  g_AM_BSP_GPIO_IOM3_SCK     0x10000070   Gb    2  Data  Hi   0x4
    496  g_AM_BSP_GPIO_IOM3_SCL     0x10000074   Gb    2  Data  Hi   0x4
    497  g_AM_BSP_GPIO_IOM3_SDA     0x10000078   Gb    2  Data  Hi   0x4
    498  g_AM_BSP_GPIO_IOM4_CS      0x1000007c   Gb    2  Data  Hi   0x4
    499  g_AM_BSP_GPIO_IOM4_MOSI    0x10000080   Gb    2  Data  Hi   0x4
    500  g_AM_BSP_GPIO_IOM4_SCK     0x10000084   Gb    2  Data  Hi   0x4
    501  g_AM_BSP_GPIO_IOM4_SCL     0x10000088   Gb    2  Data  Hi   0x4
    502  g_AM_BSP_GPIO_IOM4_SDA     0x1000008c   Gb    2  Data  Hi   0x4
    503  g_AM_BSP_GPIO_IOM5_CS      0x10000090   Gb    2  Data  Hi   0x4
    504  g_AM_BSP_GPIO_IOM5_MOSI    0x10000094   Gb    2  Data  Hi   0x4
    505  g_AM_BSP_GPIO_IOM5_SCK     0x10000098   Gb    2  Data  Hi   0x4
    506  g_AM_BSP_GPIO_IOM5_SCL     0x1000009c   Gb    2  Data  Hi   0x4
    507  g_AM_BSP_GPIO_IOM5_SDA     0x100000a0   Gb    2  Data  Hi   0x4
    508  g_AM_BSP_GPIO_IOM6_CS      0x100000a4   Gb    2  Data  Hi   0x4
    509  g_AM_BSP_GPIO_IOM6_MOSI    0x100000a8   Gb    2  Data  Hi   0x4
    510  g_AM_BSP_GPIO_IOM6_SCK     0x100000ac   Gb    2  Data  Hi   0x4
    511  g_AM_BSP_GPIO_IOM6_SCL     0x100000b0   Gb    2  Data  Hi   0x4
    512  g_AM_BSP_GPIO_IOM6_SDA     0x100000b4   Gb    2  Data  Hi   0x4
    513  g_AM_BSP_GPIO_IOM7_CS      0x100000b8   Gb    2  Data  Hi   0x4
    514  g_AM_BSP_GPIO_IOM7_MOSI    0x100000bc   Gb    2  Data  Hi   0x4
    515  g_AM_BSP_GPIO_IOM7_SCK     0x100000c0   Gb    2  Data  Hi   0x4
    516  g_AM_BSP_GPIO_IOM7_SCL     0x100000c4   Gb    2  Data  Hi   0x4
    517  g_AM_BSP_GPIO_IOM7_SDA     0x100000c8   Gb    2  Data  Hi   0x4
    518  g_AM_BSP_GPIO_ITM_SWO      0x100000cc   Gb    2  Data  Hi   0x4
    519  g_eCurrPwrMode             0x100000d0   Gb    2  Data  Hi   0x1
    520  __libspace_start           0x10000100   Gb    3  Data  De   0x60
    521  __temporary_stack_top$libspace
                                    0x10000160   Gb    3  Data  De 
    522  bIosInt                    0x1000018c   Gb    3  Data  Hi   0x1
    523  gStartOff                  0x10000374   Gb    3  Data  Hi   0x4
    524  g_AM_BSP_GPIO_IOM0_MISO    0x10000378   Gb    3  Data  Hi   0x4
    525  g_AM_BSP_GPIO_IOM2_MISO    0x1000037c   Gb    3  Data  Hi   0x4
    526  g_AM_BSP_GPIO_IOM3_MISO    0x10000380   Gb    3  Data  Hi   0x4
    527  g_AM_BSP_GPIO_IOM4_MISO    0x10000384   Gb    3  Data  Hi   0x4
    528  g_AM_BSP_GPIO_IOM5_MISO    0x10000388   Gb    3  Data  Hi   0x4
    529  g_AM_BSP_GPIO_IOM6_MISO    0x1000038c   Gb    3  Data  Hi   0x4
    530  g_AM_BSP_GPIO_IOM7_MISO    0x10000390   Gb    3  Data  Hi   0x4
    531  g_IOMHandle                0x10000394   Gb    3  Data  Hi   0x4
    532  g_IOMhandles               0x10000398   Gb    3  Data  Hi   0x4540
    533  g_pfnCharPrint             0x100048dc   Gb    3  Data  Hi   0x4
    534  g_pui8RcvBuf               0x10004ce0   Gb    3  Data  Hi   0x400
    535  g_startIdx                 0x100050e0   Gb    3  Data  Hi   0x4
    536  g_ui32LastUpdate           0x100050e4   Gb    3  Data  Hi   0x4
    537  psGlobalAccessPtr          0x10060000   Gb    4  Data  Hi   0x4
    538  ui32MCUClaimed             0x10060004   Gb    4  Data  Hi   0x14
    539  ui32DSP0Claimed            0x10060018   Gb    4  Data  Hi   0x14
    540  ui32DSP1Claimed            0x1006002c   Gb    4  Data  Hi   0x14


** Section #12 '.strtab' (SHT_STRTAB)
    Size   : 9280 bytes

            #  Offset String
        ====================================

            1      1: $d
            2      4: $t
            3      7: $t.10
            4     13: $d.16
            5     19: $t.17
            6     25: $d.9
            7     30: $d.8
            8     35: $t.9
            9     40: $d.5
           10     45: $t.6
           11     50: $d.4
           12     55: $t.5
           13     60: $d.realdata
           14     72: am_resources.c
           15     87: __tagsym$$used.0
           16    104: __tagsym$$used.1
           17    121: __tagsym$$used.2
           18    138: __tagsym$$used.3
           19    155: __tagsym$$used.4
           20    172: __tagsym$$used.5
           21    189: __tagsym$$used.6
           22    206: __tagsym$$used.7
           23    223: __tagsym$$used.8
           24    240: ios_fifo_host.c
           25    256: iom_set_up
           26    267: __NVIC_SetPriority
           27    286: __NVIC_EnableIRQ
           28    303: .L.str
           29    310: .L.str.2
           30    319: .L.str.4
           31    328: .L.str.3
           32    337: .L.str.1
           33    346: g_sIOMSpiConfig
           34    362: g_sIOMI2cConfig
           35    378: am_util_delay.c
           36    394: am_util_stdio.c
           37    410: decstr_to_int
           38    424: simple_strlen
           39    438: padbuffer
           40    448: ndigits_in_hex
           41    463: uint64_to_hexstr
           42    480: ndigits_in_u64
           43    495: uint64_to_str
           44    509: ndigits_in_i64
           45    524: ftoa
           46    529: divu64_10
           47    539: g_bTxtXlate
           48    551: g_prfbuf
           49    560: ../keil6/startup_keil6.s
           50    585: STACK
           51    591: StackMem
           52    600: HEAP
           53    605: HeapMem
           54    613: RESET
           55    619: $v0
           56    623: am_cryptosec_isr
           57    640: am_default_isr
           58    655: .text
           59    661: am_hal_interrupt.c
           60    680: am_hal_iom.c
           61    693: internal_iom_reset_on_error
           62    721: iom_get_interface_clock_cfg
           63    749: internal_iom_error_reset_disable_submodule
           64    792: tIomPinAlloc
           65    805: am_hal_sysctrl.c
           66    822: am_hal_utils.c
           67    837: am_hal_gpio.c
           68    851: g_ui32RMpintbl
           69    866: g_ui32DSpintbl
           70    881: gpio_ppfnHandlers
           71    899: gpio_pppvIrqArgs
           72    916: am_bsp.c
           73    925: .L_MergedGlobals
           74    942: g_ePrintInterface
           75    960: g_sCOMUART
           76    971: am_hal_bootrom_helper.c
           77    995: am_hal_cachectrl.c
           78   1014: am_hal_cmdq.c
           79   1028: gAmHalCmdq
           80   1039: gAmHalCmdQReg
           81   1053: am_hal_itm.c
           82   1066: am_hal_rtc.c
           83   1079: am_hal_tpiu.c
           84   1093: am_hal_uart.c
           85   1107: am_hal_dcu.c
           86   1120: get_ui32_dcu_mask
           87   1138: get_raw_dcu_mask
           88   1155: am_hal_global.c
           89   1171: am_hal_pin.c
           90   1184: am_hal_pwrctrl.c
           91   1201: .L_MergedGlobals.1
           92   1220: g_bBoostForCryptoApplied
           93   1245: g_bOrigTrimsStored
           94   1264: g_i32LatestVddfActTrim
           95   1287: g_i32LatestLDOActTrim
           96   1309: g_ui32VDDFAdjustCodes
           97   1331: g_orig_ACTTRIMVDDF
           98   1350: g_orig_MEMLDOACTIVETRIM
           99   1374: g_orig_LPTRIMVDDF
          100   1392: g_orig_MEMLPLDOTRIM
          101   1412: g_orig_TVRGVREFTRIM
          102   1432: am_bsp_pins.c
          103   1446: am_hal_mram.c
          104   1460: am_hal_queue.c
          105   1475: dc.s
          106   1480: ../clib/heapaux.c
          107   1498: ../clib/angel/startup.s
          108   1522: !!!main
          109   1530: ../clib/angel/handlers.s
          110   1555: !!handler_copy
          111   1570: ../fplib/d2f.s
          112   1585: x$fpl$d2f
          113   1595: ../clib/angel/kernel.s
          114   1618: .ARM.Collect$$rtentry$$00000000
          115   1650: ../fplib/dnaninf.s
          116   1669: x$fpl$dnaninf
          117   1683: ../fplib/fretinf.s
          118   1702: x$fpl$fretinf
          119   1716: ../fplib/usenofp.s
          120   1735: x$fpl$usenofp
          121   1749: .ARM.Collect$$rtentry$$00000002
          122   1781: .ARM.Collect$$rtentry$$00000009
          123   1813: .ARM.Collect$$rtentry$$0000000A
          124   1845: .ARM.Collect$$rtentry$$0000000C
          125   1877: .ARM.Collect$$rtentry$$0000000D
          126   1909: .ARM.Collect$$rtentry$$00000004
          127   1941: ../clib/angel/sys.s
          128   1961: ../clib/stdlib.c
          129   1978: ../clib/angel/boardlib.s
          130   2003: ../clib/libinit.s
          131   2021: .ARM.Collect$$libinit$$00000000
          132   2053: .bss
          133   2058: .ARM.Collect$$rtexit$$00000000
          134   2089: .ARM.Collect$$libinit$$00000001
          135   2121: .ARM.Collect$$libinit$$00000004
          136   2153: .ARM.Collect$$libinit$$00000006
          137   2185: .ARM.Collect$$libinit$$0000000C
          138   2217: .ARM.Collect$$libinit$$0000000E
          139   2249: .ARM.Collect$$libinit$$00000010
          140   2281: .ARM.Collect$$libinit$$00000013
          141   2313: .ARM.Collect$$libinit$$00000015
          142   2345: .ARM.Collect$$libinit$$00000017
          143   2377: .ARM.Collect$$libinit$$00000019
          144   2409: .ARM.Collect$$libinit$$0000001B
          145   2441: .ARM.Collect$$libinit$$0000001D
          146   2473: .ARM.Collect$$libinit$$0000001F
          147   2505: .ARM.Collect$$libinit$$00000021
          148   2537: .ARM.Collect$$libinit$$00000023
          149   2569: .ARM.Collect$$libinit$$00000025
          150   2601: .ARM.Collect$$libinit$$00000027
          151   2633: .ARM.Collect$$libinit$$0000002E
          152   2665: .ARM.Collect$$libinit$$00000030
          153   2697: .ARM.Collect$$libinit$$00000032
          154   2729: .ARM.Collect$$libinit$$00000034
          155   2761: .ARM.Collect$$libinit$$00000035
          156   2793: .ARM.Collect$$rtexit$$00000002
          157   2824: .ARM.Collect$$rtexit$$00000003
          158   2855: .ARM.Collect$$rtexit$$00000004
          159   2886: ../clib/armsys.c
          160   2903: ../fplib/fpinit.s
          161   2921: x$fpl$fpinit
          162   2934: ../clib/angel/sysapp.c
          163   2957: .ARM.Collect$$libshutdown$$00000000
          164   2993: ../clib/heapalloc.c
          165   3013: ../clib/signal.c
          166   3030: .ARM.Collect$$libshutdown$$00000002
          167   3066: .ARM.Collect$$libshutdown$$00000004
          168   3102: .ARM.Collect$$libshutdown$$00000007
          169   3138: .ARM.Collect$$libshutdown$$0000000A
          170   3174: .ARM.Collect$$libshutdown$$0000000C
          171   3210: .ARM.Collect$$libshutdown$$0000000F
          172   3246: .ARM.Collect$$libshutdown$$00000010
          173   3282: ../clib/angel/rt.s
          174   3301: ../clib/signal.s
          175   3318: ../clib/angel/dczerorl2.s
          176   3344: !!dczerorl2
          177   3356: ../clib/angel/scatter.s
          178   3380: !!!scatter
          179   3391: !!handler_zi
          180   3404: BuildAttributes$$THM_ISAv4$E$P$D$K$B$S$7EM$VFPi3$EXTD16$VFPS$VFMA$PE$A:L22UL41UL21$X:L11$S22US41US21$IEEE1$IW$~IW$USESV6$~STKCKD$USESV7$~SHL$OTIME$ROPI$EBA8$UX$STANDARDLIB$REQ8$PRES8$EABIv2
          181   3594: __Vectors
          182   3604: __Patchable
          183   3616: Reset_Handler
          184   3630: HardFault_Handler
          185   3648: NMI_Handler
          186   3660: MemManage_Handler
          187   3678: BusFault_Handler
          188   3695: UsageFault_Handler
          189   3714: SVC_Handler
          190   3726: DebugMon_Handler
          191   3743: PendSV_Handler
          192   3758: SysTick_Handler
          193   3774: am_adc_isr
          194   3785: am_audadc0_isr
          195   3800: am_brownout_isr
          196   3816: am_cachecpu_isr
          197   3832: am_clkgen_isr
          198   3846: am_ctimer_isr
          199   3860: am_disp_isr
          200   3872: am_dsi_isr
          201   3883: am_dspi2s0_isr
          202   3898: am_dspi2s1_isr
          203   3913: am_dspi2s2_isr
          204   3928: am_dspi2s3_isr
          205   3943: am_gpio0_203f_isr
          206   3961: am_gpio0_405f_isr
          207   3979: am_gpio0_607f_isr
          208   3997: am_gpio1_001f_isr
          209   4015: am_gpio1_203f_isr
          210   4033: am_gpio1_405f_isr
          211   4051: am_gpio1_607f_isr
          212   4069: am_gpu_isr
          213   4080: am_iomaster0_isr
          214   4097: am_iomaster1_isr
          215   4114: am_iomaster2_isr
          216   4131: am_iomaster3_isr
          217   4148: am_iomaster4_isr
          218   4165: am_iomaster5_isr
          219   4182: am_iomaster6_isr
          220   4199: am_iomaster7_isr
          221   4216: am_ioslave_acc_isr
          222   4235: am_ioslave_ios_isr
          223   4254: am_mspi0_isr
          224   4267: am_mspi1_isr
          225   4280: am_mspi2_isr
          226   4293: am_pdm0_isr
          227   4305: am_pdm1_isr
          228   4317: am_pdm2_isr
          229   4329: am_pdm3_isr
          230   4341: am_rtc_isr
          231   4352: am_sdio_isr
          232   4364: am_stimer_cmpr0_isr
          233   4384: am_stimer_cmpr1_isr
          234   4404: am_stimer_cmpr2_isr
          235   4424: am_stimer_cmpr3_isr
          236   4444: am_stimer_cmpr4_isr
          237   4464: am_stimer_cmpr5_isr
          238   4484: am_stimer_cmpr6_isr
          239   4504: am_stimer_cmpr7_isr
          240   4524: am_stimerof_isr
          241   4540: am_timer00_isr
          242   4555: am_timer01_isr
          243   4570: am_timer02_isr
          244   4585: am_timer03_isr
          245   4600: am_timer04_isr
          246   4615: am_timer05_isr
          247   4630: am_timer06_isr
          248   4645: am_timer07_isr
          249   4660: am_timer08_isr
          250   4675: am_timer09_isr
          251   4690: am_timer10_isr
          252   4705: am_timer11_isr
          253   4720: am_timer12_isr
          254   4735: am_timer13_isr
          255   4750: am_timer14_isr
          256   4765: am_timer15_isr
          257   4780: am_uart1_isr
          258   4793: am_uart2_isr
          259   4806: am_uart3_isr
          260   4819: am_uart_isr
          261   4831: am_usb_isr
          262   4842: am_vcomp_isr
          263   4855: am_watchdog_isr
          264   4871: __main
          265   4878: __scatterload
          266   4892: __scatterload_rt2
          267   4910: __scatterload_rt2_thumb_only
          268   4939: __scatterload_null
          269   4958: __decompress
          270   4971: __decompress1
          271   4985: __scatterload_copy
          272   5004: __scatterload_zeroinit
          273   5027: __rt_lib_init
          274   5041: __rt_lib_init_fp_1
          275   5060: __rt_lib_init_alloca_1
          276   5083: __rt_lib_init_argv_1
          277   5104: __rt_lib_init_atexit_1
          278   5127: __rt_lib_init_clock_1
          279   5149: __rt_lib_init_cpp_1
          280   5169: __rt_lib_init_exceptions_1
          281   5196: __rt_lib_init_fp_trap_1
          282   5220: __rt_lib_init_getenv_1
          283   5243: __rt_lib_init_heap_1
          284   5264: __rt_lib_init_lc_collate_1
          285   5291: __rt_lib_init_lc_ctype_1
          286   5316: __rt_lib_init_lc_monetary_1
          287   5344: __rt_lib_init_lc_numeric_1
          288   5371: __rt_lib_init_lc_time_1
          289   5395: __rt_lib_init_preinit_1
          290   5419: __rt_lib_init_rand_1
          291   5440: __rt_lib_init_relocate_pie_1
          292   5469: __rt_lib_init_return
          293   5490: __rt_lib_init_signal_1
          294   5513: __rt_lib_init_stdio_1
          295   5535: __rt_lib_init_user_alloc_1
          296   5562: __rt_lib_shutdown
          297   5580: __rt_lib_shutdown_cpp_1
          298   5604: __rt_lib_shutdown_fp_trap_1
          299   5632: __rt_lib_shutdown_heap_1
          300   5657: __rt_lib_shutdown_return
          301   5682: __rt_lib_shutdown_signal_1
          302   5709: __rt_lib_shutdown_stdio_1
          303   5735: __rt_lib_shutdown_user_alloc_1
          304   5766: __rt_entry
          305   5777: __rt_entry_presh_1
          306   5796: __rt_entry_sh
          307   5810: __rt_entry_li
          308   5824: __rt_entry_postsh_1
          309   5844: __rt_entry_main
          310   5860: __rt_entry_postli_1
          311   5880: __rt_exit
          312   5890: __rt_exit_ls
          313   5903: __rt_exit_prels_1
          314   5921: __rt_exit_exit
          315   5936: __user_initial_stackheap
          316   5961: __use_two_region_memory
          317   5985: __rt_heap_escrow$2region
          318   6010: __rt_heap_expand$2region
          319   6035: __user_setup_stackheap
          320   6058: exit
          321   6063: __user_libspace
          322   6079: __user_perproc_libspace
          323   6103: __user_perthread_libspace
          324   6129: _sys_exit
          325   6139: __I$use$semihosting
          326   6159: __use_no_semihosting_swi
          327   6184: __semihosting_library_function
          328   6215: am_bsp_iom_pins_enable
          329   6238: am_bsp_itm_printf_enable
          330   6263: am_gpio0_001f_isr
          331   6281: am_gpu_power_disable
          332   6302: am_gpu_power_enable
          333   6322: am_hal_cmdq_disable
          334   6342: am_hal_cmdq_enable
          335   6361: am_hal_cmdq_init
          336   6378: am_hal_daxi_config
          337   6397: am_hal_daxi_control
          338   6417: am_hal_dcu_get
          339   6432: am_hal_dcu_update
          340   6450: am_hal_delay_us
          341   6466: am_hal_delay_us_status_change
          342   6496: am_hal_delay_us_status_check
          343   6525: am_hal_gpio_interrupt_clear
          344   6553: am_hal_gpio_interrupt_control
          345   6583: am_hal_gpio_interrupt_irq_clear
          346   6615: am_hal_gpio_interrupt_irq_status_get
          347   6652: am_hal_gpio_interrupt_register
          348   6683: am_hal_gpio_interrupt_service
          349   6713: am_hal_gpio_pinconfig
          350   6735: am_hal_gpio_pinconfig_get
          351   6761: am_hal_gpio_state_write
          352   6785: am_hal_interrupt_master_disable
          353   6817: am_hal_interrupt_master_enable
          354   6848: am_hal_interrupt_master_set
          355   6876: am_hal_iom_CQEnable
          356   6896: am_hal_iom_blocking_transfer
          357   6925: am_hal_iom_configure
          358   6946: am_hal_iom_enable
          359   6964: am_hal_iom_initialize
          360   6986: am_hal_iom_power_ctrl
          361   7008: am_hal_itm_enable
          362   7026: am_hal_itm_print
          363   7043: am_hal_pwrctrl_mcu_mode_select
          364   7074: am_hal_pwrctrl_mcu_mode_status
          365   7105: am_hal_pwrctrl_periph_disable
          366   7135: am_hal_pwrctrl_periph_enable
          367   7164: am_hal_sysctrl_sleep
          368   7185: am_hal_tpiu_enable
          369   7204: am_util_delay_ms
          370   7221: am_util_stdio_printf
          371   7242: am_util_stdio_printf_init
          372   7268: am_util_stdio_terminal_clear
          373   7297: am_util_stdio_vsprintf
          374   7320: buck_ldo_update_override
          375   7345: clear_rx_buf
          376   7358: crypto_boost_trims
          377   7377: hostint_handler
          378   7393: iom_slave_read
          379   7408: iom_slave_write
          380   7424: main
          381   7429: update_progress
          382   7445: validate_rx_buf
          383   7461: __aeabi_d2f
          384   7473: _d2f
          385   7478: __fpl_dnaninf
          386   7492: _fp_init
          387   7501: __fplib_config_fpu_vfp
          388   7524: __fplib_config_pureend_doubles
          389   7555: __fpl_fretinf
          390   7569: __I$use$fp
          391   7580: am_hal_gpio_pincfg_pulledup_disabled
          392   7617: am_hal_pwrctrl_peripheral_control
          393   7651: g_AM_BSP_GPIO_HANDSHAKE
          394   7675: g_am_hal_bootrom_helper
          395   7699: sGlobalAccess
          396   7713: ui32DSP0Allowed
          397   7729: ui32DSP1Allowed
          398   7745: ui32MCUAllowed
          399   7760: ui32SharedAccess
          400   7777: Region$$Table$$Base
          401   7797: Region$$Table$$Limit
          402   7818: gpDcuEnable
          403   7830: gpDcuLock
          404   7840: gDcuEnable
          405   7851: gDcuDisable
          406   7863: g_ui32TrimVer
          407   7877: g_ui32origSimobuckVDDStrim
          408   7904: gDaxiConfig
          409   7916: g_AM_BSP_GPIO_IOM0_CS
          410   7938: g_AM_BSP_GPIO_IOM0_MOSI
          411   7962: g_AM_BSP_GPIO_IOM0_SCK
          412   7985: g_AM_BSP_GPIO_IOM0_SCL
          413   8008: g_AM_BSP_GPIO_IOM0_SDA
          414   8031: g_AM_BSP_GPIO_IOM1_CS
          415   8053: g_AM_BSP_GPIO_IOM1_MISO
          416   8077: g_AM_BSP_GPIO_IOM1_MOSI
          417   8101: g_AM_BSP_GPIO_IOM1_SCK
          418   8124: g_AM_BSP_GPIO_IOM1_SCL
          419   8147: g_AM_BSP_GPIO_IOM1_SDA
          420   8170: g_AM_BSP_GPIO_IOM2_CS
          421   8192: g_AM_BSP_GPIO_IOM2_MOSI
          422   8216: g_AM_BSP_GPIO_IOM2_SCK
          423   8239: g_AM_BSP_GPIO_IOM2_SCL
          424   8262: g_AM_BSP_GPIO_IOM2_SDA
          425   8285: g_AM_BSP_GPIO_IOM3_CS
          426   8307: g_AM_BSP_GPIO_IOM3_MOSI
          427   8331: g_AM_BSP_GPIO_IOM3_SCK
          428   8354: g_AM_BSP_GPIO_IOM3_SCL
          429   8377: g_AM_BSP_GPIO_IOM3_SDA
          430   8400: g_AM_BSP_GPIO_IOM4_CS
          431   8422: g_AM_BSP_GPIO_IOM4_MOSI
          432   8446: g_AM_BSP_GPIO_IOM4_SCK
          433   8469: g_AM_BSP_GPIO_IOM4_SCL
          434   8492: g_AM_BSP_GPIO_IOM4_SDA
          435   8515: g_AM_BSP_GPIO_IOM5_CS
          436   8537: g_AM_BSP_GPIO_IOM5_MOSI
          437   8561: g_AM_BSP_GPIO_IOM5_SCK
          438   8584: g_AM_BSP_GPIO_IOM5_SCL
          439   8607: g_AM_BSP_GPIO_IOM5_SDA
          440   8630: g_AM_BSP_GPIO_IOM6_CS
          441   8652: g_AM_BSP_GPIO_IOM6_MOSI
          442   8676: g_AM_BSP_GPIO_IOM6_SCK
          443   8699: g_AM_BSP_GPIO_IOM6_SCL
          444   8722: g_AM_BSP_GPIO_IOM6_SDA
          445   8745: g_AM_BSP_GPIO_IOM7_CS
          446   8767: g_AM_BSP_GPIO_IOM7_MOSI
          447   8791: g_AM_BSP_GPIO_IOM7_SCK
          448   8814: g_AM_BSP_GPIO_IOM7_SCL
          449   8837: g_AM_BSP_GPIO_IOM7_SDA
          450   8860: g_AM_BSP_GPIO_ITM_SWO
          451   8882: g_eCurrPwrMode
          452   8897: __libspace_start
          453   8914: __temporary_stack_top$libspace
          454   8945: bIosInt
          455   8953: gStartOff
          456   8963: g_AM_BSP_GPIO_IOM0_MISO
          457   8987: g_AM_BSP_GPIO_IOM2_MISO
          458   9011: g_AM_BSP_GPIO_IOM3_MISO
          459   9035: g_AM_BSP_GPIO_IOM4_MISO
          460   9059: g_AM_BSP_GPIO_IOM5_MISO
          461   9083: g_AM_BSP_GPIO_IOM6_MISO
          462   9107: g_AM_BSP_GPIO_IOM7_MISO
          463   9131: g_IOMHandle
          464   9143: g_IOMhandles
          465   9156: g_pfnCharPrint
          466   9171: g_pui8RcvBuf
          467   9184: g_startIdx
          468   9195: g_ui32LastUpdate
          469   9212: psGlobalAccessPtr
          470   9230: ui32MCUClaimed
          471   9245: ui32DSP0Claimed
          472   9261: ui32DSP1Claimed
          473   9277: 
          474   9278: 
          475   9279: 


** Section #13 '.note' (SHT_NOTE)
    Size   : 32 bytes (alignment 4)


** Section #14 '.comment' (SHT_PROGBITS)
    Size   : 1564 bytes


** Section #15 '.shstrtab' (SHT_STRTAB)
    Size   : 148 bytes

            #  Offset String
        ====================================

            1      1: MCU_MRAM
            2     10: MCU_TCM
            3     18: SHARED_SRAM
            4     30: .debug_abbrev
            5     44: .debug_frame
            6     57: .debug_info
            7     69: .debug_line
            8     81: .debug_ranges
            9     95: .debug_str
           10    106: .symtab
           11    114: .strtab
           12    122: .note
           13    128: .comment
           14    137: .shstrtab
           15    147: 


