
========================================================================

** ELF Header Information

    File Name: bin\sd_card_raw_block_read_write.axf

    Machine class: ELFCLASS32 (32-bit)
    Data encoding: ELFDATA2LSB (Little endian)
    Header version: EV_CURRENT (Current version)
    Operating System ABI: none
    ABI Version: 0
    File Type: ET_EXEC (Executable) (2)
    Machine: EM_ARM (ARM)

    Image Entry point: 0x00018235
    Flags: EF_ARM_HASENTRY + EF_ARM_ABI_FLOAT_HARD (0x05000402)

    ARM ELF revision: 5 (ABI version 2)

    Conforms to Hard float procedure-call standard

    Built with
    Component: Arm Compiler for Embedded 6.19 Tool: armasm [5e73cb00]
    Component: Arm Compiler for Embedded 6.19 Tool: armlink [5e73cb00]

    Header size: 52 bytes (0x34)
    Program header entry size: 32 bytes (0x20)
    Section header entry size: 40 bytes (0x28)

    Program header entries: 1
    Section header entries: 16

    Program header offset: 196084 (0x0002fdf4)
    Section header offset: 196116 (0x0002fe14)

    Section header string table index: 15

========================================================================

** Program header #0 (PT_LOAD) [PF_X + PF_W + PF_R + PF_ARM_ENTRY]
    Size : 62848 bytes (29448 bytes in file)
    Virtual address: 0x00018000 (Alignment 16)


========================================================================

** Section #1 'MCU_MRAM' (SHT_PROGBITS) [SHF_ALLOC + SHF_EXECINSTR]
    Size   : 29096 bytes (alignment 4)
    Address: 0x00018000

    $d
    RESET
    __Vectors
        0x00018000:    10005b90    .[..    DCD    268458896
        0x00018004:    00018201    ....    DCD    98817
        0x00018008:    0001821f    ....    DCD    98847
        0x0001800c:    00018435    5...    DCD    99381
        0x00018010:    00018221    !...    DCD    98849
        0x00018014:    00018223    #...    DCD    98851
        0x00018018:    00018225    %...    DCD    98853
        0x0001801c:    00000000    ....    DCD    0
        0x00018020:    00000000    ....    DCD    0
        0x00018024:    00000000    ....    DCD    0
        0x00018028:    00000000    ....    DCD    0
        0x0001802c:    00018227    '...    DCD    98855
        0x00018030:    00018229    )...    DCD    98857
        0x00018034:    00000000    ....    DCD    0
        0x00018038:    0001822b    +...    DCD    98859
        0x0001803c:    0001822d    -...    DCD    98861
        0x00018040:    0001822f    /...    DCD    98863
        0x00018044:    0001822f    /...    DCD    98863
        0x00018048:    0001822f    /...    DCD    98863
        0x0001804c:    0001822f    /...    DCD    98863
        0x00018050:    0001822f    /...    DCD    98863
        0x00018054:    0001822f    /...    DCD    98863
        0x00018058:    0001822f    /...    DCD    98863
        0x0001805c:    0001822f    /...    DCD    98863
        0x00018060:    0001822f    /...    DCD    98863
        0x00018064:    0001822f    /...    DCD    98863
        0x00018068:    0001822f    /...    DCD    98863
        0x0001806c:    0001822f    /...    DCD    98863
        0x00018070:    0001822f    /...    DCD    98863
        0x00018074:    0001822f    /...    DCD    98863
        0x00018078:    0001822f    /...    DCD    98863
        0x0001807c:    0001822f    /...    DCD    98863
        0x00018080:    0001822f    /...    DCD    98863
        0x00018084:    0001822f    /...    DCD    98863
        0x00018088:    0001822f    /...    DCD    98863
        0x0001808c:    0001822f    /...    DCD    98863
        0x00018090:    0001822f    /...    DCD    98863
        0x00018094:    0001822f    /...    DCD    98863
        0x00018098:    0001822f    /...    DCD    98863
        0x0001809c:    0001822f    /...    DCD    98863
        0x000180a0:    0001822f    /...    DCD    98863
        0x000180a4:    0001822f    /...    DCD    98863
        0x000180a8:    0001ca61    a...    DCD    117345
        0x000180ac:    0001822f    /...    DCD    98863
        0x000180b0:    0001822f    /...    DCD    98863
        0x000180b4:    0001822f    /...    DCD    98863
        0x000180b8:    0001822f    /...    DCD    98863
        0x000180bc:    0001822f    /...    DCD    98863
        0x000180c0:    0001822f    /...    DCD    98863
        0x000180c4:    0001822f    /...    DCD    98863
        0x000180c8:    0001822f    /...    DCD    98863
        0x000180cc:    0001822f    /...    DCD    98863
        0x000180d0:    0001822f    /...    DCD    98863
        0x000180d4:    0001822f    /...    DCD    98863
        0x000180d8:    0001822f    /...    DCD    98863
        0x000180dc:    0001822f    /...    DCD    98863
        0x000180e0:    0001822f    /...    DCD    98863
        0x000180e4:    0001822f    /...    DCD    98863
        0x000180e8:    0001822f    /...    DCD    98863
        0x000180ec:    0001822f    /...    DCD    98863
        0x000180f0:    0001822f    /...    DCD    98863
        0x000180f4:    0001822f    /...    DCD    98863
        0x000180f8:    0001822f    /...    DCD    98863
        0x000180fc:    0001822f    /...    DCD    98863
        0x00018100:    0001822f    /...    DCD    98863
        0x00018104:    0001822f    /...    DCD    98863
        0x00018108:    0001822f    /...    DCD    98863
        0x0001810c:    0001822f    /...    DCD    98863
        0x00018110:    0001822f    /...    DCD    98863
        0x00018114:    0001822f    /...    DCD    98863
        0x00018118:    0001822f    /...    DCD    98863
        0x0001811c:    0001822f    /...    DCD    98863
        0x00018120:    0001822f    /...    DCD    98863
        0x00018124:    0001822f    /...    DCD    98863
        0x00018128:    0001822f    /...    DCD    98863
        0x0001812c:    0001822f    /...    DCD    98863
        0x00018130:    0001822f    /...    DCD    98863
        0x00018134:    0001822f    /...    DCD    98863
        0x00018138:    0001822f    /...    DCD    98863
        0x0001813c:    0001822f    /...    DCD    98863
        0x00018140:    0001822f    /...    DCD    98863
        0x00018144:    0001822f    /...    DCD    98863
        0x00018148:    0001822f    /...    DCD    98863
        0x0001814c:    0001822f    /...    DCD    98863
        0x00018150:    0001822f    /...    DCD    98863
        0x00018154:    0001822f    /...    DCD    98863
        0x00018158:    0001822f    /...    DCD    98863
        0x0001815c:    0001822f    /...    DCD    98863
        0x00018160:    0001822f    /...    DCD    98863
        0x00018164:    0001822f    /...    DCD    98863
        0x00018168:    0001822f    /...    DCD    98863
        0x0001816c:    0001822f    /...    DCD    98863
        0x00018170:    0001822f    /...    DCD    98863
        0x00018174:    0001822f    /...    DCD    98863
        0x00018178:    0001822f    /...    DCD    98863
        0x0001817c:    0001822f    /...    DCD    98863
        0x00018180:    0001822f    /...    DCD    98863
        0x00018184:    0001822f    /...    DCD    98863
        0x00018188:    0001822f    /...    DCD    98863
        0x0001818c:    0001822f    /...    DCD    98863
    __Patchable
        0x00018190:    00000000    ....    DCD    0
        0x00018194:    00000000    ....    DCD    0
        0x00018198:    00000000    ....    DCD    0
        0x0001819c:    00000000    ....    DCD    0
        0x000181a0:    00000000    ....    DCD    0
        0x000181a4:    00000000    ....    DCD    0
        0x000181a8:    00000000    ....    DCD    0
        0x000181ac:    00000000    ....    DCD    0
        0x000181b0:    00000000    ....    DCD    0
        0x000181b4:    00000000    ....    DCD    0
        0x000181b8:    00000000    ....    DCD    0
        0x000181bc:    00000000    ....    DCD    0
        0x000181c0:    00000000    ....    DCD    0
        0x000181c4:    00000000    ....    DCD    0
        0x000181c8:    00000000    ....    DCD    0
        0x000181cc:    00000000    ....    DCD    0
        0x000181d0:    00000000    ....    DCD    0
        0x000181d4:    00000000    ....    DCD    0
        0x000181d8:    00000000    ....    DCD    0
        0x000181dc:    00000000    ....    DCD    0
        0x000181e0:    00000000    ....    DCD    0
        0x000181e4:    00000000    ....    DCD    0
        0x000181e8:    00000000    ....    DCD    0
        0x000181ec:    00000000    ....    DCD    0
        0x000181f0:    00000000    ....    DCD    0
        0x000181f4:    00000000    ....    DCD    0
        0x000181f8:    00000000    ....    DCD    0
        0x000181fc:    00000000    ....    DCD    0
    $t
    $v0
    Reset_Handler
        0x00018200:    f64e5088    N..P    MOV      r0,#0xed88
        0x00018204:    f2ce0000    ....    MOVT     r0,#0xe000
        0x00018208:    6801        .h      LDR      r1,[r0,#0]
        0x0001820a:    f4410170    A.p.    ORR      r1,r1,#0xf00000
        0x0001820e:    6001        .`      STR      r1,[r0,#0]
        0x00018210:    f3bf8f4f    ..O.    DSB      
        0x00018214:    f3bf8f6f    ..o.    ISB      
        0x00018218:    4805        .H      LDR      r0,[pc,#20] ; [0x18230] = 0x18235
        0x0001821a:    4700        .G      BX       r0
        0x0001821c:    e7fe        ..      B        0x1821c ; Reset_Handler + 28
    NMI_Handler
        0x0001821e:    e7fe        ..      B        NMI_Handler ; 0x1821e
    MemManage_Handler
        0x00018220:    e7fe        ..      B        MemManage_Handler ; 0x18220
    BusFault_Handler
        0x00018222:    e7fe        ..      B        BusFault_Handler ; 0x18222
    UsageFault_Handler
        0x00018224:    e7fe        ..      B        UsageFault_Handler ; 0x18224
    SVC_Handler
        0x00018226:    e7fe        ..      B        SVC_Handler ; 0x18226
    DebugMon_Handler
        0x00018228:    e7fe        ..      B        DebugMon_Handler ; 0x18228
    PendSV_Handler
        0x0001822a:    e7fe        ..      B        PendSV_Handler ; 0x1822a
    SysTick_Handler
        0x0001822c:    e7fe        ..      B        SysTick_Handler ; 0x1822c
    am_cryptosec_isr
    am_default_isr
    am_adc_isr
    am_audadc0_isr
    am_brownout_isr
    am_cachecpu_isr
    am_clkgen_isr
    am_ctimer_isr
    am_disp_isr
    am_dsi_isr
    am_dspi2s0_isr
    am_dspi2s1_isr
    am_dspi2s2_isr
    am_dspi2s3_isr
    am_gpio0_001f_isr
    am_gpio0_203f_isr
    am_gpio0_405f_isr
    am_gpio0_607f_isr
    am_gpio1_001f_isr
    am_gpio1_203f_isr
    am_gpio1_405f_isr
    am_gpio1_607f_isr
    am_gpu_isr
    am_iomaster0_isr
    am_iomaster1_isr
    am_iomaster2_isr
    am_iomaster3_isr
    am_iomaster4_isr
    am_iomaster5_isr
    am_iomaster6_isr
    am_iomaster7_isr
    am_ioslave_acc_isr
    am_ioslave_ios_isr
    am_mspi0_isr
    am_mspi1_isr
    am_mspi2_isr
    am_pdm0_isr
    am_pdm1_isr
    am_pdm2_isr
    am_pdm3_isr
    am_rtc_isr
    am_stimer_cmpr0_isr
    am_stimer_cmpr1_isr
    am_stimer_cmpr2_isr
    am_stimer_cmpr3_isr
    am_stimer_cmpr4_isr
    am_stimer_cmpr5_isr
    am_stimer_cmpr6_isr
    am_stimer_cmpr7_isr
    am_stimerof_isr
    am_timer00_isr
    am_timer01_isr
    am_timer02_isr
    am_timer03_isr
    am_timer04_isr
    am_timer05_isr
    am_timer06_isr
    am_timer07_isr
    am_timer08_isr
    am_timer09_isr
    am_timer10_isr
    am_timer11_isr
    am_timer12_isr
    am_timer13_isr
    am_timer14_isr
    am_timer15_isr
    am_uart1_isr
    am_uart2_isr
    am_uart3_isr
    am_uart_isr
    am_usb_isr
    am_vcomp_isr
    am_watchdog_isr
        0x0001822e:    e7fe        ..      B        am_cryptosec_isr ; 0x1822e
    $d
        0x00018230:    00018235    5...    DCD    98869
    $t
    !!!main
    __main
        0x00018234:    f000f802    ....    BL       __scatterload ; 0x1823c
        0x00018238:    f000f85a    ..Z.    BL       __rt_entry ; 0x182f0
    !!!scatter
    __scatterload
    __scatterload_rt2
    __scatterload_rt2_thumb_only
        0x0001823c:    a00a        ..      ADR      r0,{pc}+0x2c ; 0x18268
        0x0001823e:    e8900c00    ....    LDM      r0,{r10,r11}
        0x00018242:    4482        .D      ADD      r10,r10,r0
        0x00018244:    4483        .D      ADD      r11,r11,r0
        0x00018246:    f1aa0701    ....    SUB      r7,r10,#1
    __scatterload_null
        0x0001824a:    45da        .E      CMP      r10,r11
        0x0001824c:    d101        ..      BNE      0x18252 ; __scatterload_null + 8
        0x0001824e:    f000f84f    ..O.    BL       __rt_entry ; 0x182f0
        0x00018252:    f2af0e09    ....    ADR      lr,{pc}-7 ; 0x1824b
        0x00018256:    e8ba000f    ....    LDM      r10!,{r0-r3}
        0x0001825a:    f0130f01    ....    TST      r3,#1
        0x0001825e:    bf18        ..      IT       NE
        0x00018260:    1afb        ..      SUBNE    r3,r7,r3
        0x00018262:    f0430301    C...    ORR      r3,r3,#1
        0x00018266:    4718        .G      BX       r3
    $d
        0x00018268:    00006f10    .o..    DCD    28432
        0x0001826c:    00006f40    @o..    DCD    28480
    $t
    !!dczerorl
    __decompress
    __decompress0
        0x00018270:    440a        .D      ADD      r2,r2,r1
        0x00018272:    f8104b01    ...K    LDRB     r4,[r0],#1
        0x00018276:    f014050f    ....    ANDS     r5,r4,#0xf
        0x0001827a:    bf08        ..      IT       EQ
        0x0001827c:    f8105b01    ...[    LDRBEQ   r5,[r0],#1
        0x00018280:    0924        $.      LSRS     r4,r4,#4
        0x00018282:    bf08        ..      IT       EQ
        0x00018284:    f8104b01    ...K    LDRBEQ   r4,[r0],#1
        0x00018288:    1e6d        m.      SUBS     r5,r5,#1
        0x0001828a:    d005        ..      BEQ      0x18298 ; __decompress + 40
        0x0001828c:    f8103b01    ...;    LDRB     r3,[r0],#1
        0x00018290:    1e6d        m.      SUBS     r5,r5,#1
        0x00018292:    f8013b01    ...;    STRB     r3,[r1],#1
        0x00018296:    d1f9        ..      BNE      0x1828c ; __decompress + 28
        0x00018298:    1e64        d.      SUBS     r4,r4,#1
        0x0001829a:    d003        ..      BEQ      0x182a4 ; __decompress + 52
        0x0001829c:    1e64        d.      SUBS     r4,r4,#1
        0x0001829e:    f8015b01    ...[    STRB     r5,[r1],#1
        0x000182a2:    d1fb        ..      BNE      0x1829c ; __decompress + 44
        0x000182a4:    4291        .B      CMP      r1,r2
        0x000182a6:    d3e4        ..      BCC      0x18272 ; __decompress + 2
        0x000182a8:    4770        pG      BX       lr
        0x000182aa:    0000        ..      MOVS     r0,r0
    !!handler_copy
    __scatterload_copy
        0x000182ac:    3a10        .:      SUBS     r2,r2,#0x10
        0x000182ae:    bf24        $.      ITT      CS
        0x000182b0:    c878        x.      LDMCS    r0!,{r3-r6}
        0x000182b2:    c178        x.      STMCS    r1!,{r3-r6}
        0x000182b4:    d8fa        ..      BHI      __scatterload_copy ; 0x182ac
        0x000182b6:    0752        R.      LSLS     r2,r2,#29
        0x000182b8:    bf24        $.      ITT      CS
        0x000182ba:    c830        0.      LDMCS    r0!,{r4,r5}
        0x000182bc:    c130        0.      STMCS    r1!,{r4,r5}
        0x000182be:    bf44        D.      ITT      MI
        0x000182c0:    6804        .h      LDRMI    r4,[r0,#0]
        0x000182c2:    600c        .`      STRMI    r4,[r1,#0]
        0x000182c4:    4770        pG      BX       lr
        0x000182c6:    0000        ..      MOVS     r0,r0
    !!handler_zi
    __scatterload_zeroinit
        0x000182c8:    2300        .#      MOVS     r3,#0
        0x000182ca:    2400        .$      MOVS     r4,#0
        0x000182cc:    2500        .%      MOVS     r5,#0
        0x000182ce:    2600        .&      MOVS     r6,#0
        0x000182d0:    3a10        .:      SUBS     r2,r2,#0x10
        0x000182d2:    bf28        (.      IT       CS
        0x000182d4:    c178        x.      STMCS    r1!,{r3-r6}
        0x000182d6:    d8fb        ..      BHI      0x182d0 ; __scatterload_zeroinit + 8
        0x000182d8:    0752        R.      LSLS     r2,r2,#29
        0x000182da:    bf28        (.      IT       CS
        0x000182dc:    c130        0.      STMCS    r1!,{r4,r5}
        0x000182de:    bf48        H.      IT       MI
        0x000182e0:    600b        .`      STRMI    r3,[r1,#0]
        0x000182e2:    4770        pG      BX       lr
    .ARM.Collect$$libinit$$00000000
    __rt_lib_init
        0x000182e4:    b51f        ..      PUSH     {r0-r4,lr}
    .ARM.Collect$$libinit$$00000001
    __rt_lib_init_fp_1
        0x000182e6:    f006fb0c    ....    BL       _fp_init ; 0x1e902
    .ARM.Collect$$libinit$$00000004
    .ARM.Collect$$libinit$$00000006
    .ARM.Collect$$libinit$$0000000C
    .ARM.Collect$$libinit$$0000000E
    .ARM.Collect$$libinit$$00000010
    .ARM.Collect$$libinit$$00000013
    .ARM.Collect$$libinit$$00000015
    .ARM.Collect$$libinit$$00000017
    .ARM.Collect$$libinit$$00000019
    .ARM.Collect$$libinit$$0000001B
    .ARM.Collect$$libinit$$0000001D
    .ARM.Collect$$libinit$$0000001F
    .ARM.Collect$$libinit$$00000021
    .ARM.Collect$$libinit$$00000023
    .ARM.Collect$$libinit$$00000025
    .ARM.Collect$$libinit$$00000027
    .ARM.Collect$$libinit$$0000002E
    .ARM.Collect$$libinit$$00000030
    .ARM.Collect$$libinit$$00000032
    .ARM.Collect$$libinit$$00000034
    .ARM.Collect$$libinit$$00000035
    __rt_lib_init_alloca_1
    __rt_lib_init_argv_1
    __rt_lib_init_atexit_1
    __rt_lib_init_clock_1
    __rt_lib_init_cpp_1
    __rt_lib_init_exceptions_1
    __rt_lib_init_fp_trap_1
    __rt_lib_init_getenv_1
    __rt_lib_init_heap_1
    __rt_lib_init_lc_collate_1
    __rt_lib_init_lc_ctype_1
    __rt_lib_init_lc_monetary_1
    __rt_lib_init_lc_numeric_1
    __rt_lib_init_lc_time_1
    __rt_lib_init_preinit_1
    __rt_lib_init_rand_1
    __rt_lib_init_relocate_pie_1
    __rt_lib_init_return
    __rt_lib_init_signal_1
    __rt_lib_init_stdio_1
    __rt_lib_init_user_alloc_1
        0x000182ea:    bd1f        ..      POP      {r0-r4,pc}
    .ARM.Collect$$libshutdown$$00000000
    __rt_lib_shutdown
        0x000182ec:    b510        ..      PUSH     {r4,lr}
    .ARM.Collect$$libshutdown$$00000002
    .ARM.Collect$$libshutdown$$00000004
    .ARM.Collect$$libshutdown$$00000007
    .ARM.Collect$$libshutdown$$0000000A
    .ARM.Collect$$libshutdown$$0000000C
    .ARM.Collect$$libshutdown$$0000000F
    .ARM.Collect$$libshutdown$$00000010
    __rt_lib_shutdown_cpp_1
    __rt_lib_shutdown_fp_trap_1
    __rt_lib_shutdown_heap_1
    __rt_lib_shutdown_return
    __rt_lib_shutdown_signal_1
    __rt_lib_shutdown_stdio_1
    __rt_lib_shutdown_user_alloc_1
        0x000182ee:    bd10        ..      POP      {r4,pc}
    .ARM.Collect$$rtentry$$00000000
    .ARM.Collect$$rtentry$$00000002
    .ARM.Collect$$rtentry$$00000004
    __rt_entry
    __rt_entry_presh_1
    __rt_entry_sh
        0x000182f0:    f000f866    ..f.    BL       __user_setup_stackheap ; 0x183c0
        0x000182f4:    4611        .F      MOV      r1,r2
    .ARM.Collect$$rtentry$$00000009
    .ARM.Collect$$rtentry$$0000000A
    __rt_entry_li
    __rt_entry_postsh_1
        0x000182f6:    f7fffff5    ....    BL       __rt_lib_init ; 0x182e4
    .ARM.Collect$$rtentry$$0000000C
    .ARM.Collect$$rtentry$$0000000D
    __rt_entry_main
    __rt_entry_postli_1
        0x000182fa:    f005fd03    ....    BL       main ; 0x1dd04
        0x000182fe:    f000f884    ....    BL       exit ; 0x1840a
    .ARM.Collect$$rtexit$$00000000
    __rt_exit
        0x00018302:    b403        ..      PUSH     {r0,r1}
    .ARM.Collect$$rtexit$$00000002
    .ARM.Collect$$rtexit$$00000003
    __rt_exit_ls
    __rt_exit_prels_1
        0x00018304:    f7fffff2    ....    BL       __rt_lib_shutdown ; 0x182ec
    .ARM.Collect$$rtexit$$00000004
    __rt_exit_exit
        0x00018308:    bc03        ..      POP      {r0,r1}
        0x0001830a:    f000f88b    ....    BL       _sys_exit ; 0x18424
        0x0001830e:    0000        ..      MOVS     r0,r0
    .text
    $v0
    __user_initial_stackheap
        0x00018310:    4802        .H      LDR      r0,[pc,#8] ; [0x1831c] = 0x10003090
        0x00018312:    4903        .I      LDR      r1,[pc,#12] ; [0x18320] = 0x10005b90
        0x00018314:    4a01        .J      LDR      r2,[pc,#4] ; [0x1831c] = 0x10003090
        0x00018316:    4b03        .K      LDR      r3,[pc,#12] ; [0x18324] = 0x10003090
        0x00018318:    4770        pG      BX       lr
    $d
        0x0001831a:    0000        ..      DCW    0
        0x0001831c:    10003090    .0..    DCD    268447888
        0x00018320:    10005b90    .[..    DCD    268458896
        0x00018324:    10003090    .0..    DCD    268447888
    $t
    .text
    __aeabi_memclr
    __rt_memclr
        0x00018328:    f04f0200    O...    MOV      r2,#0
    _memset
        0x0001832c:    2904        .)      CMP      r1,#4
        0x0001832e:    f0c08012    ....    BCC.W    0x18356 ; _memset + 42
        0x00018332:    f0100c03    ....    ANDS     r12,r0,#3
        0x00018336:    f000801b    ....    BEQ.W    _memset_w ; 0x18370
        0x0001833a:    f1cc0c04    ....    RSB      r12,r12,#4
        0x0001833e:    f1bc0f02    ....    CMP      r12,#2
        0x00018342:    bf18        ..      IT       NE
        0x00018344:    f8002b01    ...+    STRBNE   r2,[r0],#1
        0x00018348:    bfa8        ..      IT       GE
        0x0001834a:    f8202b02     ..+    STRHGE   r2,[r0],#2
        0x0001834e:    eba1010c    ....    SUB      r1,r1,r12
        0x00018352:    f000b80d    ....    B.W      _memset_w ; 0x18370
        0x00018356:    ea5f7cc1    _..|    LSLS     r12,r1,#31
        0x0001835a:    bf24        $.      ITT      CS
        0x0001835c:    f8002b01    ...+    STRBCS   r2,[r0],#1
        0x00018360:    f8002b01    ...+    STRBCS   r2,[r0],#1
        0x00018364:    bf48        H.      IT       MI
        0x00018366:    f8002b01    ...+    STRBMI   r2,[r0],#1
        0x0001836a:    4770        pG      BX       lr
    .text
    __aeabi_memclr4
    __aeabi_memclr8
    __rt_memclr_w
        0x0001836c:    f04f0200    O...    MOV      r2,#0
    _memset_w
        0x00018370:    b500        ..      PUSH     {lr}
        0x00018372:    4613        .F      MOV      r3,r2
        0x00018374:    4694        .F      MOV      r12,r2
        0x00018376:    4696        .F      MOV      lr,r2
        0x00018378:    3920         9      SUBS     r1,r1,#0x20
        0x0001837a:    bf22        ".      ITTT     CS
        0x0001837c:    e8a0500c    ...P    STMCS    r0!,{r2,r3,r12,lr}
        0x00018380:    e8a0500c    ...P    STMCS    r0!,{r2,r3,r12,lr}
        0x00018384:    f1b10120    .. .    SUBSCS   r1,r1,#0x20
        0x00018388:    f4bfaff7    ....    BCS.W    0x1837a ; _memset_w + 10
        0x0001838c:    0709        ..      LSLS     r1,r1,#28
        0x0001838e:    bf28        (.      IT       CS
        0x00018390:    e8a0500c    ...P    STMCS    r0!,{r2,r3,r12,lr}
        0x00018394:    bf48        H.      IT       MI
        0x00018396:    c00c        ..      STMMI    r0!,{r2,r3}
        0x00018398:    f85deb04    ]...    POP      {lr}
        0x0001839c:    0089        ..      LSLS     r1,r1,#2
        0x0001839e:    bf28        (.      IT       CS
        0x000183a0:    f8402b04    @..+    STRCS    r2,[r0],#4
        0x000183a4:    bf08        ..      IT       EQ
        0x000183a6:    4770        pG      BXEQ     lr
        0x000183a8:    bf48        H.      IT       MI
        0x000183aa:    f8202b02     ..+    STRHMI   r2,[r0],#2
        0x000183ae:    f0114f80    ...O    TST      r1,#0x40000000
        0x000183b2:    bf18        ..      IT       NE
        0x000183b4:    f8002b01    ...+    STRBNE   r2,[r0],#1
        0x000183b8:    4770        pG      BX       lr
    .text
    __use_two_region_memory
        0x000183ba:    4770        pG      BX       lr
    __rt_heap_escrow$2region
        0x000183bc:    4770        pG      BX       lr
    __rt_heap_expand$2region
        0x000183be:    4770        pG      BX       lr
    .text
    __user_setup_stackheap
        0x000183c0:    4675        uF      MOV      r5,lr
        0x000183c2:    f000f82b    ..+.    BL       __user_libspace ; 0x1841c
        0x000183c6:    46ae        .F      MOV      lr,r5
        0x000183c8:    0005        ..      MOVS     r5,r0
        0x000183ca:    4669        iF      MOV      r1,sp
        0x000183cc:    4653        SF      MOV      r3,r10
        0x000183ce:    f0200007     ...    BIC      r0,r0,#7
        0x000183d2:    4685        .F      MOV      sp,r0
        0x000183d4:    b018        ..      ADD      sp,sp,#0x60
        0x000183d6:    b520         .      PUSH     {r5,lr}
        0x000183d8:    f7ffff9a    ....    BL       __user_initial_stackheap ; 0x18310
        0x000183dc:    e8bd4020    .. @    POP      {r5,lr}
        0x000183e0:    f04f0600    O...    MOV      r6,#0
        0x000183e4:    f04f0700    O...    MOV      r7,#0
        0x000183e8:    f04f0800    O...    MOV      r8,#0
        0x000183ec:    f04f0b00    O...    MOV      r11,#0
        0x000183f0:    46ac        .F      MOV      r12,r5
        0x000183f2:    e8ac09c0    ....    STM      r12!,{r6-r8,r11}
        0x000183f6:    e8ac09c0    ....    STM      r12!,{r6-r8,r11}
        0x000183fa:    e8ac09c0    ....    STM      r12!,{r6-r8,r11}
        0x000183fe:    e8ac09c0    ....    STM      r12!,{r6-r8,r11}
        0x00018402:    f0210107    !...    BIC      r1,r1,#7
        0x00018406:    468d        .F      MOV      sp,r1
        0x00018408:    4770        pG      BX       lr
    .text
    exit
        0x0001840a:    b510        ..      PUSH     {r4,lr}
        0x0001840c:    4604        .F      MOV      r4,r0
        0x0001840e:    f3af8000    ....    NOP.W    
        0x00018412:    4620         F      MOV      r0,r4
        0x00018414:    e8bd4010    ...@    POP      {r4,lr}
        0x00018418:    f7ffbf73    ..s.    B.W      __rt_exit ; 0x18302
    .text
    __user_libspace
    __user_perproc_libspace
    __user_perthread_libspace
        0x0001841c:    4800        .H      LDR      r0,[pc,#0] ; [0x18420] = 0x10000100
        0x0001841e:    4770        pG      BX       lr
    $d
        0x00018420:    10000100    ....    DCD    268435712
    $t
    .text
    _sys_exit
        0x00018424:    4901        .I      LDR      r1,[pc,#4] ; [0x1842c] = 0x20026
        0x00018426:    2018        .       MOVS     r0,#0x18
        0x00018428:    beab        ..      BKPT     #0xab
        0x0001842a:    e7fe        ..      B        0x1842a ; _sys_exit + 6
    $d
        0x0001842c:    00020026    &...    DCD    131110
    $t
    .text
    __I$use$semihosting
    __use_no_semihosting_swi
        0x00018430:    4770        pG      BX       lr
    .text
    __semihosting_library_function
        0x00018432:    0000        ..      MOVS     r0,r0
    $t.0
    HardFault_Handler
        0x00018434:    f01e0f04    ....    TST      lr,#4
        0x00018438:    bf0c        ..      ITE      EQ
        0x0001843a:    f3ef8008    ....    MRSEQ    r0,MSP
        0x0001843e:    f3ef8009    ....    MRSNE    r0,PSP
        0x00018442:    4904        .I      LDR      r1,[pc,#16] ; [0x18454] = 0x10000220
        0x00018444:    f5017100    ...q    ADD      r1,r1,#0x200
        0x00018448:    f0210103    !...    BIC      r1,r1,#3
        0x0001844c:    468d        .F      MOV      sp,r1
        0x0001844e:    f004bb37    ..7.    B.W      am_util_faultisr_collect_data ; 0x1cac0
        0x00018452:    0000        ..      MOVS     r0,r0
    $d.4
        0x00018454:    10000220     ...    DCD    268436000
    $t.7
    am_bsp_itm_printf_enable
        0x00018458:    b580        ..      PUSH     {r7,lr}
        0x0001845a:    b082        ..      SUB      sp,sp,#8
        0x0001845c:    f2410008    A...    MOV      r0,#0x1008
        0x00018460:    f2c40002    ....    MOVT     r0,#0x4002
        0x00018464:    6800        .h      LDR      r0,[r0,#0]
        0x00018466:    02c0        ..      LSLS     r0,r0,#11
        0x00018468:    d512        ..      BPL      0x18490 ; am_bsp_itm_printf_enable + 56
        0x0001846a:    f640207c    @.|     MOV      r0,#0xa7c
        0x0001846e:    f2c4000c    ....    MOVT     r0,#0x400c
        0x00018472:    6800        .h      LDR      r0,[r0,#0]
        0x00018474:    07c0        ..      LSLS     r0,r0,#31
        0x00018476:    d00b        ..      BEQ      0x18490 ; am_bsp_itm_printf_enable + 56
        0x00018478:    a801        ..      ADD      r0,sp,#4
        0x0001847a:    f001fb0f    ....    BL       am_hal_dcu_get ; 0x19a9c
        0x0001847e:    f89d0004    ....    LDRB     r0,[sp,#4]
        0x00018482:    06c0        ..      LSLS     r0,r0,#27
        0x00018484:    d408        ..      BMI      0x18498 ; am_bsp_itm_printf_enable + 64
        0x00018486:    2001        .       MOVS     r0,#1
        0x00018488:    2110        .!      MOVS     r1,#0x10
        0x0001848a:    f001fb27    ..'.    BL       am_hal_dcu_update ; 0x19adc
        0x0001848e:    b118        ..      CBZ      r0,0x18498 ; am_bsp_itm_printf_enable + 64
        0x00018490:    f04f30ff    O..0    MOV      r0,#0xffffffff
        0x00018494:    b002        ..      ADD      sp,sp,#8
        0x00018496:    bd80        ..      POP      {r7,pc}
        0x00018498:    f2401060    @.`.    MOVW     r0,#0x160
        0x0001849c:    f2c10000    ....    MOVT     r0,#0x1000
        0x000184a0:    2101        .!      MOVS     r1,#1
        0x000184a2:    7001        .p      STRB     r1,[r0,#0]
        0x000184a4:    f001fcfa    ....    BL       am_hal_itm_enable ; 0x19e9c
        0x000184a8:    f2442040    D.@     MOV      r0,#0x4240
        0x000184ac:    f2c0000f    ....    MOVT     r0,#0xf
        0x000184b0:    f004fa9e    ....    BL       am_hal_tpiu_enable ; 0x1c9f0
        0x000184b4:    f2404024    @.$@    MOV      r0,#0x424
        0x000184b8:    f2c10000    ....    MOVT     r0,#0x1000
        0x000184bc:    6801        .h      LDR      r1,[r0,#0]
        0x000184be:    201c        .       MOVS     r0,#0x1c
        0x000184c0:    f001fc2e    ....    BL       am_hal_gpio_pinconfig ; 0x19d20
        0x000184c4:    f64960f5    I..`    MOV      r0,#0x9ef5
        0x000184c8:    f2c00001    ....    MOVT     r0,#1
        0x000184cc:    f004fb92    ....    BL       am_util_stdio_printf_init ; 0x1cbf4
        0x000184d0:    2000        .       MOVS     r0,#0
        0x000184d2:    b002        ..      ADD      sp,sp,#8
        0x000184d4:    bd80        ..      POP      {r7,pc}
        0x000184d6:    0000        ..      MOVS     r0,r0
    am_bsp_low_power_init
        0x000184d8:    b580        ..      PUSH     {r7,lr}
        0x000184da:    f001ff0d    ....    BL       am_hal_pwrctrl_low_power_init ; 0x1a2f8
        0x000184de:    2000        .       MOVS     r0,#0
        0x000184e0:    2100        .!      MOVS     r1,#0
        0x000184e2:    f001fdfb    ....    BL       am_hal_pwrctrl_control ; 0x1a0dc
        0x000184e6:    e8bd4080    ...@    POP      {r7,lr}
        0x000184ea:    f002ba13    ....    B.W      am_hal_rtc_osc_disable ; 0x1a914
        0x000184ee:    0000        ..      MOVS     r0,r0
    am_bsp_sd_cd_pin_enable
        0x000184f0:    b510        ..      PUSH     {r4,lr}
        0x000184f2:    b188        ..      CBZ      r0,0x18518 ; am_bsp_sd_cd_pin_enable + 40
        0x000184f4:    f64e1030    N.0.    MOV      r0,#0xe930
        0x000184f8:    f2c00001    ....    MOVT     r0,#1
        0x000184fc:    6801        .h      LDR      r1,[r0,#0]
        0x000184fe:    204b        K       MOVS     r0,#0x4b
        0x00018500:    244b        K$      MOVS     r4,#0x4b
        0x00018502:    f001fc0d    ....    BL       am_hal_gpio_pinconfig ; 0x19d20
        0x00018506:    f2402094    @..     MOVW     r0,#0x294
        0x0001850a:    f2c40001    ....    MOVT     r0,#0x4001
        0x0001850e:    6801        .h      LDR      r1,[r0,#0]
        0x00018510:    f3640106    d...    BFI      r1,r4,#0,#7
        0x00018514:    6001        .`      STR      r1,[r0,#0]
        0x00018516:    bd10        ..      POP      {r4,pc}
        0x00018518:    f64e102c    N.,.    MOV      r0,#0xe92c
        0x0001851c:    f2c00001    ....    MOVT     r0,#1
        0x00018520:    6801        .h      LDR      r1,[r0,#0]
        0x00018522:    204b        K       MOVS     r0,#0x4b
        0x00018524:    e8bd4010    ...@    POP      {r4,lr}
        0x00018528:    f001bbfa    ....    B.W      am_hal_gpio_pinconfig ; 0x19d20
    am_bsp_sdio_pins_enable
        0x0001852c:    b510        ..      PUSH     {r4,lr}
        0x0001852e:    4604        .F      MOV      r4,r0
        0x00018530:    2060        `       MOVS     r0,#0x60
        0x00018532:    2101        .!      MOVS     r1,#1
        0x00018534:    f001fc20    .. .    BL       am_hal_gpio_state_write ; 0x19d78
        0x00018538:    f240002c    @.,.    MOVW     r0,#0x2c
        0x0001853c:    f2c10000    ....    MOVT     r0,#0x1000
        0x00018540:    6801        .h      LDR      r1,[r0,#0]
        0x00018542:    2053        S       MOVS     r0,#0x53
        0x00018544:    f001fbec    ....    BL       am_hal_gpio_pinconfig ; 0x19d20
        0x00018548:    f2400028    @.(.    MOVW     r0,#0x28
        0x0001854c:    f2c10000    ....    MOVT     r0,#0x1000
        0x00018550:    6801        .h      LDR      r1,[r0,#0]
        0x00018552:    2058        X       MOVS     r0,#0x58
        0x00018554:    f001fbe4    ....    BL       am_hal_gpio_pinconfig ; 0x19d20
        0x00018558:    2c01        .,      CMP      r4,#1
        0x0001855a:    d03c        <.      BEQ      0x185d6 ; am_bsp_sdio_pins_enable + 170
        0x0001855c:    2c04        .,      CMP      r4,#4
        0x0001855e:    d022        ".      BEQ      0x185a6 ; am_bsp_sdio_pins_enable + 122
        0x00018560:    2c08        .,      CMP      r4,#8
        0x00018562:    bf18        ..      IT       NE
        0x00018564:    bd10        ..      POPNE    {r4,pc}
        0x00018566:    f2400040    @.@.    MOVW     r0,#0x40
        0x0001856a:    f2c10000    ....    MOVT     r0,#0x1000
        0x0001856e:    6801        .h      LDR      r1,[r0,#0]
        0x00018570:    204f        O       MOVS     r0,#0x4f
        0x00018572:    f001fbd5    ....    BL       am_hal_gpio_pinconfig ; 0x19d20
        0x00018576:    f2400044    @.D.    MOVW     r0,#0x44
        0x0001857a:    f2c10000    ....    MOVT     r0,#0x1000
        0x0001857e:    6801        .h      LDR      r1,[r0,#0]
        0x00018580:    2050        P       MOVS     r0,#0x50
        0x00018582:    f001fbcd    ....    BL       am_hal_gpio_pinconfig ; 0x19d20
        0x00018586:    f2400048    @.H.    MOVW     r0,#0x48
        0x0001858a:    f2c10000    ....    MOVT     r0,#0x1000
        0x0001858e:    6801        .h      LDR      r1,[r0,#0]
        0x00018590:    2051        Q       MOVS     r0,#0x51
        0x00018592:    f001fbc5    ....    BL       am_hal_gpio_pinconfig ; 0x19d20
        0x00018596:    f240004c    @.L.    MOVW     r0,#0x4c
        0x0001859a:    f2c10000    ....    MOVT     r0,#0x1000
        0x0001859e:    6801        .h      LDR      r1,[r0,#0]
        0x000185a0:    2052        R       MOVS     r0,#0x52
        0x000185a2:    f001fbbd    ....    BL       am_hal_gpio_pinconfig ; 0x19d20
        0x000185a6:    f2400034    @.4.    MOVW     r0,#0x34
        0x000185aa:    f2c10000    ....    MOVT     r0,#0x1000
        0x000185ae:    6801        .h      LDR      r1,[r0,#0]
        0x000185b0:    2055        U       MOVS     r0,#0x55
        0x000185b2:    f001fbb5    ....    BL       am_hal_gpio_pinconfig ; 0x19d20
        0x000185b6:    f2400038    @.8.    MOVW     r0,#0x38
        0x000185ba:    f2c10000    ....    MOVT     r0,#0x1000
        0x000185be:    6801        .h      LDR      r1,[r0,#0]
        0x000185c0:    2056        V       MOVS     r0,#0x56
        0x000185c2:    f001fbad    ....    BL       am_hal_gpio_pinconfig ; 0x19d20
        0x000185c6:    f240003c    @.<.    MOVW     r0,#0x3c
        0x000185ca:    f2c10000    ....    MOVT     r0,#0x1000
        0x000185ce:    6801        .h      LDR      r1,[r0,#0]
        0x000185d0:    2057        W       MOVS     r0,#0x57
        0x000185d2:    f001fba5    ....    BL       am_hal_gpio_pinconfig ; 0x19d20
        0x000185d6:    f2400030    @.0.    MOVW     r0,#0x30
        0x000185da:    f2c10000    ....    MOVT     r0,#0x1000
        0x000185de:    6801        .h      LDR      r1,[r0,#0]
        0x000185e0:    2054        T       MOVS     r0,#0x54
        0x000185e2:    e8bd4010    ...@    POP      {r4,lr}
        0x000185e6:    f001bb9b    ....    B.W      am_hal_gpio_pinconfig ; 0x19d20
        0x000185ea:    0000        ..      MOVS     r0,r0
    am_getStackedReg
        0x000185ec:    b082        ..      SUB      sp,sp,#8
        0x000185ee:    9001        ..      STR      r0,[sp,#4]
        0x000185f0:    9100        ..      STR      r1,[sp,#0]
        0x000185f2:    9800        ..      LDR      r0,[sp,#0]
        0x000185f4:    9901        ..      LDR      r1,[sp,#4]
        0x000185f6:    f8500021    P.!.    LDR      r0,[r0,r1,LSL #2]
        0x000185fa:    b002        ..      ADD      sp,sp,#8
        0x000185fc:    4770        pG      BX       lr
        0x000185fe:    0000        ..      MOVS     r0,r0
    am_hal_card_cfg_set
        0x00018600:    b5f0        ..      PUSH     {r4-r7,lr}
        0x00018602:    b081        ..      SUB      sp,sp,#4
        0x00018604:    b168        h.      CBZ      r0,0x18622 ; am_hal_card_cfg_set + 34
        0x00018606:    461d        .F      MOV      r5,r3
        0x00018608:    f8d03278    ..x2    LDR      r3,[r0,#0x278]
        0x0001860c:    4604        .F      MOV      r4,r0
        0x0001860e:    b143        C.      CBZ      r3,0x18622 ; am_hal_card_cfg_set + 34
        0x00018610:    7860        `x      LDRB     r0,[r4,#1]
        0x00018612:    2806        .(      CMP      r0,#6
        0x00018614:    d108        ..      BNE      0x18628 ; am_hal_card_cfg_set + 40
        0x00018616:    69d8        .i      LDR      r0,[r3,#0x1c]
        0x00018618:    42a8        .B      CMP      r0,r5
        0x0001861a:    d302        ..      BCC      0x18622 ; am_hal_card_cfg_set + 34
        0x0001861c:    6a18        .j      LDR      r0,[r3,#0x20]
        0x0001861e:    42a8        .B      CMP      r0,r5
        0x00018620:    d906        ..      BLS      0x18630 ; am_hal_card_cfg_set + 48
        0x00018622:    2006        .       MOVS     r0,#6
        0x00018624:    b001        ..      ADD      sp,sp,#4
        0x00018626:    bdf0        ..      POP      {r4-r7,pc}
        0x00018628:    2007        .       MOVS     r0,#7
        0x0001862a:    b001        ..      ADD      sp,sp,#4
        0x0001862c:    bdf0        ..      POP      {r4-r7,pc}
        0x0001862e:    bf00        ..      NOP      
        0x00018630:    f6464000    F..@    MOVW     r0,#0x6c00
        0x00018634:    f2c020dc    ...     MOVT     r0,#0x2dc
        0x00018638:    4285        .B      CMP      r5,r0
        0x0001863a:    f64d0000    M...    MOVW     r0,#0xd800
        0x0001863e:    f04f0100    O...    MOV      r1,#0
        0x00018642:    f2c050b8    ...P    MOVT     r0,#0x5b8
        0x00018646:    bf88        ..      IT       HI
        0x00018648:    2101        .!      MOVHI    r1,#1
        0x0001864a:    4285        .B      CMP      r5,r0
        0x0001864c:    f04f0006    O...    MOV      r0,#6
        0x00018650:    d87b        {.      BHI      0x1874a ; am_hal_card_cfg_set + 330
        0x00018652:    9f07        ..      LDR      r7,[sp,#0x1c]
        0x00018654:    1f3e        >.      SUBS     r6,r7,#4
        0x00018656:    fab6f686    ....    CLZ      r6,r6
        0x0001865a:    0976        v.      LSRS     r6,r6,#5
        0x0001865c:    4031        1@      ANDS     r1,r1,r6
        0x0001865e:    d174        t.      BNE      0x1874a ; am_hal_card_cfg_set + 330
        0x00018660:    7820         x      LDRB     r0,[r4,#0]
        0x00018662:    9906        ..      LDR      r1,[sp,#0x18]
        0x00018664:    f8842274    ..t"    STRB     r2,[r4,#0x274]
        0x00018668:    1ec2        ..      SUBS     r2,r0,#3
        0x0001866a:    2a03        .*      CMP      r2,#3
        0x0001866c:    f8c45270    ..pR    STR      r5,[r4,#0x270]
        0x00018670:    f8841275    ..u.    STRB     r1,[r4,#0x275]
        0x00018674:    f8847276    ..vr    STRB     r7,[r4,#0x276]
        0x00018678:    d212        ..      BCS      0x186a0 ; am_hal_card_cfg_set + 160
        0x0001867a:    4620         F      MOV      r0,r4
        0x0001867c:    f002fcd2    ....    BL       am_hal_sd_card_set_voltage ; 0x1b024
        0x00018680:    2800        .(      CMP      r0,#0
        0x00018682:    d15d        ].      BNE      0x18740 ; am_hal_card_cfg_set + 320
        0x00018684:    f8d41270    ..p.    LDR      r1,[r4,#0x270]
        0x00018688:    4620         F      MOV      r0,r4
        0x0001868a:    f002fbd3    ....    BL       am_hal_sd_card_set_speed ; 0x1ae34
        0x0001868e:    2800        .(      CMP      r0,#0
        0x00018690:    d156        V.      BNE      0x18740 ; am_hal_card_cfg_set + 320
        0x00018692:    f8d402ac    ....    LDR      r0,[r4,#0x2ac]
        0x00018696:    2800        .(      CMP      r0,#0
        0x00018698:    d042        B.      BEQ      0x18720 ; am_hal_card_cfg_set + 288
        0x0001869a:    2801        .(      CMP      r0,#1
        0x0001869c:    d04a        J.      BEQ      0x18734 ; am_hal_card_cfg_set + 308
        0x0001869e:    e053        S.      B        0x18748 ; am_hal_card_cfg_set + 328
        0x000186a0:    2806        .(      CMP      r0,#6
        0x000186a2:    d023        #.      BEQ      0x186ec ; am_hal_card_cfg_set + 236
        0x000186a4:    2802        .(      CMP      r0,#2
        0x000186a6:    d14b        K.      BNE      0x18740 ; am_hal_card_cfg_set + 320
        0x000186a8:    7b18        .{      LDRB     r0,[r3,#0xc]
        0x000186aa:    4288        .B      CMP      r0,r1
        0x000186ac:    d005        ..      BEQ      0x186ba ; am_hal_card_cfg_set + 186
        0x000186ae:    6e9a        .n      LDR      r2,[r3,#0x68]
        0x000186b0:    6818        .h      LDR      r0,[r3,#0]
        0x000186b2:    6912        .i      LDR      r2,[r2,#0x10]
        0x000186b4:    4790        .G      BLX      r2
        0x000186b6:    2800        .(      CMP      r0,#0
        0x000186b8:    d142        B.      BNE      0x18740 ; am_hal_card_cfg_set + 320
        0x000186ba:    f64b2081    K..     MOV      r0,#0xba81
        0x000186be:    f2c0108c    ....    MOVT     r0,#0x18c
        0x000186c2:    4285        .B      CMP      r5,r0
        0x000186c4:    d303        ..      BCC      0x186ce ; am_hal_card_cfg_set + 206
        0x000186c6:    f8940230    ..0.    LDRB     r0,[r4,#0x230]
        0x000186ca:    2804        .(      CMP      r0,#4
        0x000186cc:    d3a9        ..      BCC      0x18622 ; am_hal_card_cfg_set + 34
        0x000186ce:    2f03        ./      CMP      r7,#3
        0x000186d0:    d118        ..      BNE      0x18704 ; am_hal_card_cfg_set + 260
        0x000186d2:    f8941274    ..t.    LDRB     r1,[r4,#0x274]
        0x000186d6:    4620         F      MOV      r0,r4
        0x000186d8:    f001f804    ....    BL       am_hal_card_set_bus_width ; 0x196e4
        0x000186dc:    bb80        ..      CBNZ     r0,0x18740 ; am_hal_card_cfg_set + 320
        0x000186de:    f8d41270    ..p.    LDR      r1,[r4,#0x270]
        0x000186e2:    4620         F      MOV      r0,r4
        0x000186e4:    f001f842    ..B.    BL       am_hal_card_set_speed ; 0x1976c
        0x000186e8:    e017        ..      B        0x1871a ; am_hal_card_cfg_set + 282
        0x000186ea:    bf00        ..      NOP      
        0x000186ec:    4620         F      MOV      r0,r4
        0x000186ee:    4629        )F      MOV      r1,r5
        0x000186f0:    f003ffe6    ....    BL       am_hal_sdio_card_set_speed ; 0x1c6c0
        0x000186f4:    bb20         .      CBNZ     r0,0x18740 ; am_hal_card_cfg_set + 320
        0x000186f6:    f8941274    ..t.    LDRB     r1,[r4,#0x274]
        0x000186fa:    f8d40278    ..x.    LDR      r0,[r4,#0x278]
        0x000186fe:    f003ff97    ....    BL       am_hal_sdio_card_set_bus_width ; 0x1c630
        0x00018702:    e01c        ..      B        0x1873e ; am_hal_card_cfg_set + 318
        0x00018704:    f8d41270    ..p.    LDR      r1,[r4,#0x270]
        0x00018708:    4620         F      MOV      r0,r4
        0x0001870a:    f001f82f    ../.    BL       am_hal_card_set_speed ; 0x1976c
        0x0001870e:    b9b8        ..      CBNZ     r0,0x18740 ; am_hal_card_cfg_set + 320
        0x00018710:    f8941274    ..t.    LDRB     r1,[r4,#0x274]
        0x00018714:    4620         F      MOV      r0,r4
        0x00018716:    f000ffe5    ....    BL       am_hal_card_set_bus_width ; 0x196e4
        0x0001871a:    b988        ..      CBNZ     r0,0x18740 ; am_hal_card_cfg_set + 320
        0x0001871c:    e00a        ..      B        0x18734 ; am_hal_card_cfg_set + 308
        0x0001871e:    bf00        ..      NOP      
        0x00018720:    f8941274    ..t.    LDRB     r1,[r4,#0x274]
        0x00018724:    4620         F      MOV      r0,r4
        0x00018726:    f002fb3f    ..?.    BL       am_hal_sd_card_set_bus_width ; 0x1ada8
        0x0001872a:    b948        H.      CBNZ     r0,0x18740 ; am_hal_card_cfg_set + 320
        0x0001872c:    f8d402ac    ....    LDR      r0,[r4,#0x2ac]
        0x00018730:    2801        .(      CMP      r0,#1
        0x00018732:    d109        ..      BNE      0x18748 ; am_hal_card_cfg_set + 328
        0x00018734:    f8941276    ..v.    LDRB     r1,[r4,#0x276]
        0x00018738:    4620         F      MOV      r0,r4
        0x0001873a:    f001f895    ....    BL       am_hal_card_set_uhs_mode ; 0x19868
        0x0001873e:    b118        ..      CBZ      r0,0x18748 ; am_hal_card_cfg_set + 328
        0x00018740:    2001        .       MOVS     r0,#1
        0x00018742:    b001        ..      ADD      sp,sp,#4
        0x00018744:    bdf0        ..      POP      {r4-r7,pc}
        0x00018746:    bf00        ..      NOP      
        0x00018748:    2000        .       MOVS     r0,#0
        0x0001874a:    b001        ..      ADD      sp,sp,#4
        0x0001874c:    bdf0        ..      POP      {r4-r7,pc}
        0x0001874e:    0000        ..      MOVS     r0,r0
    am_hal_card_deinit
        0x00018750:    b510        ..      PUSH     {r4,lr}
        0x00018752:    b178        x.      CBZ      r0,0x18774 ; am_hal_card_deinit + 36
        0x00018754:    4604        .F      MOV      r4,r0
        0x00018756:    f8d00278    ..x.    LDR      r0,[r0,#0x278]
        0x0001875a:    b158        X.      CBZ      r0,0x18774 ; am_hal_card_deinit + 36
        0x0001875c:    f8d41268    ..h.    LDR      r1,[r4,#0x268]
        0x00018760:    b109        ..      CBZ      r1,0x18766 ; am_hal_card_deinit + 22
        0x00018762:    2001        .       MOVS     r0,#1
        0x00018764:    4788        .G      BLX      r1
        0x00018766:    4620         F      MOV      r0,r4
        0x00018768:    f44f712c    O.,q    MOV      r1,#0x2b0
        0x0001876c:    f7fffddc    ....    BL       __aeabi_memclr ; 0x18328
        0x00018770:    2000        .       MOVS     r0,#0
        0x00018772:    bd10        ..      POP      {r4,pc}
        0x00018774:    2006        .       MOVS     r0,#6
        0x00018776:    bd10        ..      POP      {r4,pc}
    am_hal_card_event_test_cb
        0x00018778:    b580        ..      PUSH     {r7,lr}
        0x0001877a:    b082        ..      SUB      sp,sp,#8
        0x0001877c:    9001        ..      STR      r0,[sp,#4]
        0x0001877e:    9801        ..      LDR      r0,[sp,#4]
        0x00018780:    6880        .h      LDR      r0,[r0,#8]
        0x00018782:    9000        ..      STR      r0,[sp,#0]
        0x00018784:    9801        ..      LDR      r0,[sp,#4]
        0x00018786:    7800        .x      LDRB     r0,[r0,#0]
        0x00018788:    2804        .(      CMP      r0,#4
        0x0001878a:    d114        ..      BNE      0x187b6 ; am_hal_card_event_test_cb + 62
        0x0001878c:    e7ff        ..      B        0x1878e ; am_hal_card_event_test_cb + 22
        0x0001878e:    9800        ..      LDR      r0,[sp,#0]
        0x00018790:    f890004c    ..L.    LDRB     r0,[r0,#0x4c]
        0x00018794:    b978        x.      CBNZ     r0,0x187b6 ; am_hal_card_event_test_cb + 62
        0x00018796:    e7ff        ..      B        0x18798 ; am_hal_card_event_test_cb + 32
        0x00018798:    f2402118    @..!    MOVW     r1,#0x218
        0x0001879c:    f2c10100    ....    MOVT     r1,#0x1000
        0x000187a0:    2001        .       MOVS     r0,#1
        0x000187a2:    7008        .p      STRB     r0,[r1,#0]
        0x000187a4:    9801        ..      LDR      r0,[sp,#4]
        0x000187a6:    6841        Ah      LDR      r1,[r0,#4]
        0x000187a8:    f64e6041    N.A`    MOV      r0,#0xee41
        0x000187ac:    f2c00001    ....    MOVT     r0,#1
        0x000187b0:    f004f9f2    ....    BL       am_util_stdio_printf ; 0x1cb98
        0x000187b4:    e7ff        ..      B        0x187b6 ; am_hal_card_event_test_cb + 62
        0x000187b6:    9801        ..      LDR      r0,[sp,#4]
        0x000187b8:    7800        .x      LDRB     r0,[r0,#0]
        0x000187ba:    2804        .(      CMP      r0,#4
        0x000187bc:    d115        ..      BNE      0x187ea ; am_hal_card_event_test_cb + 114
        0x000187be:    e7ff        ..      B        0x187c0 ; am_hal_card_event_test_cb + 72
        0x000187c0:    9800        ..      LDR      r0,[sp,#0]
        0x000187c2:    f890004c    ..L.    LDRB     r0,[r0,#0x4c]
        0x000187c6:    2801        .(      CMP      r0,#1
        0x000187c8:    d10f        ..      BNE      0x187ea ; am_hal_card_event_test_cb + 114
        0x000187ca:    e7ff        ..      B        0x187cc ; am_hal_card_event_test_cb + 84
        0x000187cc:    f2402119    @..!    MOV      r1,#0x219
        0x000187d0:    f2c10100    ....    MOVT     r1,#0x1000
        0x000187d4:    2001        .       MOVS     r0,#1
        0x000187d6:    7008        .p      STRB     r0,[r1,#0]
        0x000187d8:    9801        ..      LDR      r0,[sp,#4]
        0x000187da:    6841        Ah      LDR      r1,[r0,#4]
        0x000187dc:    f64e6078    N.x`    MOV      r0,#0xee78
        0x000187e0:    f2c00001    ....    MOVT     r0,#1
        0x000187e4:    f004f9d8    ....    BL       am_util_stdio_printf ; 0x1cb98
        0x000187e8:    e7ff        ..      B        0x187ea ; am_hal_card_event_test_cb + 114
        0x000187ea:    9801        ..      LDR      r0,[sp,#4]
        0x000187ec:    7800        .x      LDRB     r0,[r0,#0]
        0x000187ee:    2803        .(      CMP      r0,#3
        0x000187f0:    d10e        ..      BNE      0x18810 ; am_hal_card_event_test_cb + 152
        0x000187f2:    e7ff        ..      B        0x187f4 ; am_hal_card_event_test_cb + 124
        0x000187f4:    9800        ..      LDR      r0,[sp,#0]
        0x000187f6:    f890004c    ..L.    LDRB     r0,[r0,#0x4c]
        0x000187fa:    b948        H.      CBNZ     r0,0x18810 ; am_hal_card_event_test_cb + 152
        0x000187fc:    e7ff        ..      B        0x187fe ; am_hal_card_event_test_cb + 134
        0x000187fe:    9801        ..      LDR      r0,[sp,#4]
        0x00018800:    6841        Ah      LDR      r1,[r0,#4]
        0x00018802:    f64e6026    N.&`    MOV      r0,#0xee26
        0x00018806:    f2c00001    ....    MOVT     r0,#1
        0x0001880a:    f004f9c5    ....    BL       am_util_stdio_printf ; 0x1cb98
        0x0001880e:    e7ff        ..      B        0x18810 ; am_hal_card_event_test_cb + 152
        0x00018810:    9801        ..      LDR      r0,[sp,#4]
        0x00018812:    7800        .x      LDRB     r0,[r0,#0]
        0x00018814:    2803        .(      CMP      r0,#3
        0x00018816:    d10f        ..      BNE      0x18838 ; am_hal_card_event_test_cb + 192
        0x00018818:    e7ff        ..      B        0x1881a ; am_hal_card_event_test_cb + 162
        0x0001881a:    9800        ..      LDR      r0,[sp,#0]
        0x0001881c:    f890004c    ..L.    LDRB     r0,[r0,#0x4c]
        0x00018820:    2801        .(      CMP      r0,#1
        0x00018822:    d109        ..      BNE      0x18838 ; am_hal_card_event_test_cb + 192
        0x00018824:    e7ff        ..      B        0x18826 ; am_hal_card_event_test_cb + 174
        0x00018826:    9801        ..      LDR      r0,[sp,#4]
        0x00018828:    6841        Ah      LDR      r1,[r0,#4]
        0x0001882a:    f64e605c    N.\`    MOV      r0,#0xee5c
        0x0001882e:    f2c00001    ....    MOVT     r0,#1
        0x00018832:    f004f9b1    ....    BL       am_util_stdio_printf ; 0x1cb98
        0x00018836:    e7ff        ..      B        0x18838 ; am_hal_card_event_test_cb + 192
        0x00018838:    9801        ..      LDR      r0,[sp,#4]
        0x0001883a:    7800        .x      LDRB     r0,[r0,#0]
        0x0001883c:    2806        .(      CMP      r0,#6
        0x0001883e:    d10a        ..      BNE      0x18856 ; am_hal_card_event_test_cb + 222
        0x00018840:    e7ff        ..      B        0x18842 ; am_hal_card_event_test_cb + 202
        0x00018842:    9800        ..      LDR      r0,[sp,#0]
        0x00018844:    f8901064    ..d.    LDRB     r1,[r0,#0x64]
        0x00018848:    f64e6012    N..`    MOV      r0,#0xee12
        0x0001884c:    f2c00001    ....    MOVT     r0,#1
        0x00018850:    f004f9a2    ....    BL       am_util_stdio_printf ; 0x1cb98
        0x00018854:    e7ff        ..      B        0x18856 ; am_hal_card_event_test_cb + 222
        0x00018856:    9801        ..      LDR      r0,[sp,#4]
        0x00018858:    7800        .x      LDRB     r0,[r0,#0]
        0x0001885a:    2801        .(      CMP      r0,#1
        0x0001885c:    d114        ..      BNE      0x18888 ; am_hal_card_event_test_cb + 272
        0x0001885e:    e7ff        ..      B        0x18860 ; am_hal_card_event_test_cb + 232
        0x00018860:    f24001f0    @...    MOVW     r1,#0xf0
        0x00018864:    f2c10100    ....    MOVT     r1,#0x1000
        0x00018868:    2001        .       MOVS     r0,#1
        0x0001886a:    6008        .`      STR      r0,[r1,#0]
        0x0001886c:    f6400184    @...    MOV      r1,#0x884
        0x00018870:    f2c10100    ....    MOVT     r1,#0x1000
        0x00018874:    6808        .h      LDR      r0,[r1,#0]
        0x00018876:    3001        .0      ADDS     r0,#1
        0x00018878:    6008        .`      STR      r0,[r1,#0]
        0x0001887a:    f64e60f2    N..`    MOV      r0,#0xeef2
        0x0001887e:    f2c00001    ....    MOVT     r0,#1
        0x00018882:    f004f989    ....    BL       am_util_stdio_printf ; 0x1cb98
        0x00018886:    e7ff        ..      B        0x18888 ; am_hal_card_event_test_cb + 272
        0x00018888:    9801        ..      LDR      r0,[sp,#4]
        0x0001888a:    7800        .x      LDRB     r0,[r0,#0]
        0x0001888c:    b968        h.      CBNZ     r0,0x188aa ; am_hal_card_event_test_cb + 306
        0x0001888e:    e7ff        ..      B        0x18890 ; am_hal_card_event_test_cb + 280
        0x00018890:    f24001f0    @...    MOVW     r1,#0xf0
        0x00018894:    f2c10100    ....    MOVT     r1,#0x1000
        0x00018898:    2000        .       MOVS     r0,#0
        0x0001889a:    6008        .`      STR      r0,[r1,#0]
        0x0001889c:    f64e70b8    N..p    MOV      r0,#0xefb8
        0x000188a0:    f2c00001    ....    MOVT     r0,#1
        0x000188a4:    f004f978    ..x.    BL       am_util_stdio_printf ; 0x1cb98
        0x000188a8:    e7ff        ..      B        0x188aa ; am_hal_card_event_test_cb + 306
        0x000188aa:    b002        ..      ADD      sp,sp,#8
        0x000188ac:    bd80        ..      POP      {r7,pc}
        0x000188ae:    0000        ..      MOVS     r0,r0
    am_hal_card_get_csd_field
        0x000188b0:    b580        ..      PUSH     {r7,lr}
        0x000188b2:    b110        ..      CBZ      r0,0x188ba ; am_hal_card_get_csd_field + 10
        0x000188b4:    7883        .x      LDRB     r3,[r0,#2]
        0x000188b6:    079b        ..      LSLS     r3,r3,#30
        0x000188b8:    d402        ..      BMI      0x188c0 ; am_hal_card_get_csd_field + 16
        0x000188ba:    f04f30ff    O..0    MOV      r0,#0xffffffff
        0x000188be:    bd80        ..      POP      {r7,pc}
        0x000188c0:    f1000c20    .. .    ADD      r12,r0,#0x20
        0x000188c4:    2003        .       MOVS     r0,#3
        0x000188c6:    eba01051    ..Q.    SUB      r0,r0,r1,LSR #5
        0x000188ca:    f001031f    ....    AND      r3,r1,#0x1f
        0x000188ce:    f85ce020    \. .    LDR      lr,[r12,r0,LSL #2]
        0x000188d2:    1898        ..      ADDS     r0,r3,r2
        0x000188d4:    2821        !(      CMP      r0,#0x21
        0x000188d6:    fa2ef003    ....    LSR      r0,lr,r3
        0x000188da:    d30a        ..      BCC      0x188f2 ; am_hal_card_get_csd_field + 66
        0x000188dc:    094b        K.      LSRS     r3,r1,#5
        0x000188de:    f1c30302    ....    RSB      r3,r3,#2
        0x000188e2:    f85c3023    \.#0    LDR      r3,[r12,r3,LSL #2]
        0x000188e6:    4249        IB      RSBS     r1,r1,#0
        0x000188e8:    f001011f    ....    AND      r1,r1,#0x1f
        0x000188ec:    fa03f101    ....    LSL      r1,r3,r1
        0x000188f0:    4308        .C      ORRS     r0,r0,r1
        0x000188f2:    f04f31ff    O..1    MOV      r1,#0xffffffff
        0x000188f6:    4091        .@      LSLS     r1,r1,r2
        0x000188f8:    2a20         *      CMP      r2,#0x20
        0x000188fa:    bf38        8.      IT       CC
        0x000188fc:    4388        .C      BICCC    r0,r0,r1
        0x000188fe:    bd80        ..      POP      {r7,pc}
    am_hal_card_get_ext_csd_field
        0x00018900:    e92d47f0    -..G    PUSH     {r4-r10,lr}
        0x00018904:    b090        ..      SUB      sp,sp,#0x40
        0x00018906:    b388        ..      CBZ      r0,0x1896c ; am_hal_card_get_ext_csd_field + 108
        0x00018908:    f8d07278    ..xr    LDR      r7,[r0,#0x278]
        0x0001890c:    4682        .F      MOV      r10,r0
        0x0001890e:    b36f        o.      CBZ      r7,0x1896c ; am_hal_card_get_ext_csd_field + 108
        0x00018910:    f89a0002    ....    LDRB     r0,[r10,#2]
        0x00018914:    4616        .F      MOV      r6,r2
        0x00018916:    4689        .F      MOV      r9,r1
        0x00018918:    0740        @.      LSLS     r0,r0,#29
        0x0001891a:    d433        3.      BMI      0x18984 ; am_hal_card_get_ext_csd_field + 132
        0x0001891c:    f10d081c    ....    ADD      r8,sp,#0x1c
        0x00018920:    4640        @F      MOV      r0,r8
        0x00018922:    2124        $!      MOVS     r1,#0x24
        0x00018924:    f7fffd22    ..".    BL       __aeabi_memclr4 ; 0x1836c
        0x00018928:    2000        .       MOVS     r0,#0
        0x0001892a:    f8da1008    ....    LDR      r1,[r10,#8]
        0x0001892e:    e9cd0002    ....    STRD     r0,r0,[sp,#8]
        0x00018932:    9006        ..      STR      r0,[sp,#0x18]
        0x00018934:    e9cd0004    ....    STRD     r0,r0,[sp,#0x10]
        0x00018938:    e9cd0000    ....    STRD     r0,r0,[sp,#0]
        0x0001893c:    2008        .       MOVS     r0,#8
        0x0001893e:    f88d001c    ....    STRB     r0,[sp,#0x1c]
        0x00018942:    0408        ..      LSLS     r0,r1,#16
        0x00018944:    9008        ..      STR      r0,[sp,#0x20]
        0x00018946:    2015        .       MOVS     r0,#0x15
        0x00018948:    9009        ..      STR      r0,[sp,#0x24]
        0x0001894a:    f10a0030    ..0.    ADD      r0,r10,#0x30
        0x0001894e:    9001        ..      STR      r0,[sp,#4]
        0x00018950:    2001        .       MOVS     r0,#1
        0x00018952:    9003        ..      STR      r0,[sp,#0xc]
        0x00018954:    f44f7000    O..p    MOV      r0,#0x200
        0x00018958:    6eb9        .n      LDR      r1,[r7,#0x68]
        0x0001895a:    9002        ..      STR      r0,[sp,#8]
        0x0001895c:    68cb        .h      LDR      r3,[r1,#0xc]
        0x0001895e:    6838        8h      LDR      r0,[r7,#0]
        0x00018960:    466a        jF      MOV      r2,sp
        0x00018962:    4641        AF      MOV      r1,r8
        0x00018964:    4798        .G      BLX      r3
        0x00018966:    f89d003c    ..<.    LDRB     r0,[sp,#0x3c]
        0x0001896a:    b128        (.      CBZ      r0,0x18978 ; am_hal_card_get_ext_csd_field + 120
        0x0001896c:    f04f30ff    O..0    MOV      r0,#0xffffffff
        0x00018970:    b010        ..      ADD      sp,sp,#0x40
        0x00018972:    e8bd87f0    ....    POP      {r4-r10,pc}
        0x00018976:    bf00        ..      NOP      
        0x00018978:    f89a0002    ....    LDRB     r0,[r10,#2]
        0x0001897c:    f0400004    @...    ORR      r0,r0,#4
        0x00018980:    f88a0002    ....    STRB     r0,[r10,#2]
        0x00018984:    b146        F.      CBZ      r6,0x18998 ; am_hal_card_get_ext_csd_field + 152
        0x00018986:    1e70        p.      SUBS     r0,r6,#1
        0x00018988:    2803        .(      CMP      r0,#3
        0x0001898a:    f0060c03    ....    AND      r12,r6,#3
        0x0001898e:    d207        ..      BCS      0x189a0 ; am_hal_card_get_ext_csd_field + 160
        0x00018990:    2200        ."      MOVS     r2,#0
        0x00018992:    2000        .       MOVS     r0,#0
        0x00018994:    e026        &.      B        0x189e4 ; am_hal_card_get_ext_csd_field + 228
        0x00018996:    bf00        ..      NOP      
        0x00018998:    2000        .       MOVS     r0,#0
        0x0001899a:    b010        ..      ADD      sp,sp,#0x40
        0x0001899c:    e8bd87f0    ....    POP      {r4-r10,pc}
        0x000189a0:    f0060efc    ....    AND      lr,r6,#0xfc
        0x000189a4:    eb0a0709    ....    ADD      r7,r10,r9
        0x000189a8:    2200        ."      MOVS     r2,#0
        0x000189aa:    2610        .&      MOVS     r6,#0x10
        0x000189ac:    2000        .       MOVS     r0,#0
        0x000189ae:    bf00        ..      NOP      
        0x000189b0:    18b9        ..      ADDS     r1,r7,r2
        0x000189b2:    f8914030    ..0@    LDRB     r4,[r1,#0x30]
        0x000189b6:    f8915031    ..1P    LDRB     r5,[r1,#0x31]
        0x000189ba:    f8913032    ..20    LDRB     r3,[r1,#0x32]
        0x000189be:    4320         C      ORRS     r0,r0,r4
        0x000189c0:    f1a60408    ....    SUB      r4,r6,#8
        0x000189c4:    fa05f404    ....    LSL      r4,r5,r4
        0x000189c8:    f8911033    ..3.    LDRB     r1,[r1,#0x33]
        0x000189cc:    4320         C      ORRS     r0,r0,r4
        0x000189ce:    40b3        .@      LSLS     r3,r3,r6
        0x000189d0:    4318        .C      ORRS     r0,r0,r3
        0x000189d2:    f1060308    ....    ADD      r3,r6,#8
        0x000189d6:    4099        .@      LSLS     r1,r1,r3
        0x000189d8:    3204        .2      ADDS     r2,#4
        0x000189da:    4308        .C      ORRS     r0,r0,r1
        0x000189dc:    4596        .E      CMP      lr,r2
        0x000189de:    f1060620    .. .    ADD      r6,r6,#0x20
        0x000189e2:    d1e5        ..      BNE      0x189b0 ; am_hal_card_get_ext_csd_field + 176
        0x000189e4:    f1bc0f00    ....    CMP      r12,#0
        0x000189e8:    d01f        ..      BEQ      0x18a2a ; am_hal_card_get_ext_csd_field + 298
        0x000189ea:    f10a0330    ..0.    ADD      r3,r10,#0x30
        0x000189ee:    eb020109    ....    ADD      r1,r2,r9
        0x000189f2:    5c59        Y\      LDRB     r1,[r3,r1]
        0x000189f4:    00d7        ..      LSLS     r7,r2,#3
        0x000189f6:    40b9        .@      LSLS     r1,r1,r7
        0x000189f8:    f1bc0f01    ....    CMP      r12,#1
        0x000189fc:    ea400001    @...    ORR      r0,r0,r1
        0x00018a00:    d013        ..      BEQ      0x18a2a ; am_hal_card_get_ext_csd_field + 298
        0x00018a02:    1c51        Q.      ADDS     r1,r2,#1
        0x00018a04:    eb010709    ....    ADD      r7,r1,r9
        0x00018a08:    5ddf        .]      LDRB     r7,[r3,r7]
        0x00018a0a:    00c9        ..      LSLS     r1,r1,#3
        0x00018a0c:    fa07f101    ....    LSL      r1,r7,r1
        0x00018a10:    f1bc0f02    ....    CMP      r12,#2
        0x00018a14:    ea400001    @...    ORR      r0,r0,r1
        0x00018a18:    d007        ..      BEQ      0x18a2a ; am_hal_card_get_ext_csd_field + 298
        0x00018a1a:    1c91        ..      ADDS     r1,r2,#2
        0x00018a1c:    eb010209    ....    ADD      r2,r1,r9
        0x00018a20:    5c9a        .\      LDRB     r2,[r3,r2]
        0x00018a22:    00c9        ..      LSLS     r1,r1,#3
        0x00018a24:    fa02f101    ....    LSL      r1,r2,r1
        0x00018a28:    4308        .C      ORRS     r0,r0,r1
        0x00018a2a:    b010        ..      ADD      sp,sp,#0x40
        0x00018a2c:    e8bd87f0    ....    POP      {r4-r10,pc}
    am_hal_card_host_find_card
        0x00018a30:    b5b0        ..      PUSH     {r4,r5,r7,lr}
        0x00018a32:    4605        .F      MOV      r5,r0
        0x00018a34:    2800        .(      CMP      r0,#0
        0x00018a36:    f04f0006    O...    MOV      r0,#6
        0x00018a3a:    d01c        ..      BEQ      0x18a76 ; am_hal_card_host_find_card + 70
        0x00018a3c:    460c        .F      MOV      r4,r1
        0x00018a3e:    2900        .)      CMP      r1,#0
        0x00018a40:    bf08        ..      IT       EQ
        0x00018a42:    bdb0        ..      POPEQ    {r4,r5,r7,pc}
        0x00018a44:    7a28        (z      LDRB     r0,[r5,#8]
        0x00018a46:    b920         .      CBNZ     r0,0x18a52 ; am_hal_card_host_find_card + 34
        0x00018a48:    6ea9        .n      LDR      r1,[r5,#0x68]
        0x00018a4a:    6828        (h      LDR      r0,[r5,#0]
        0x00018a4c:    6a49        Ij      LDR      r1,[r1,#0x24]
        0x00018a4e:    4788        .G      BLX      r1
        0x00018a50:    b170        p.      CBZ      r0,0x18a70 ; am_hal_card_host_find_card + 64
        0x00018a52:    7ae8        .z      LDRB     r0,[r5,#0xb]
        0x00018a54:    f8c45278    ..xR    STR      r5,[r4,#0x278]
        0x00018a58:    f8840274    ..t.    STRB     r0,[r4,#0x274]
        0x00018a5c:    89a8        ..      LDRH     r0,[r5,#0xc]
        0x00018a5e:    f8a40275    ..u.    STRH     r0,[r4,#0x275]
        0x00018a62:    6a28        (j      LDR      r0,[r5,#0x20]
        0x00018a64:    f8c40270    ..p.    STR      r0,[r4,#0x270]
        0x00018a68:    200e        .       MOVS     r0,#0xe
        0x00018a6a:    7060        `p      STRB     r0,[r4,#1]
        0x00018a6c:    2000        .       MOVS     r0,#0
        0x00018a6e:    bdb0        ..      POP      {r4,r5,r7,pc}
        0x00018a70:    2000        .       MOVS     r0,#0
        0x00018a72:    7060        `p      STRB     r0,[r4,#1]
        0x00018a74:    2001        .       MOVS     r0,#1
        0x00018a76:    bdb0        ..      POP      {r4,r5,r7,pc}
    am_hal_card_host_power_control
        0x00018a78:    f0810101    ....    EOR      r1,r1,#1
        0x00018a7c:    2201        ."      MOVS     r2,#1
        0x00018a7e:    f003b9cf    ....    B.W      am_hal_sdhc_power_control ; 0x1be20
        0x00018a82:    0000        ..      MOVS     r0,r0
    am_hal_card_host_set_xfer_mode
        0x00018a84:    7281        .r      STRB     r1,[r0,#0xa]
        0x00018a86:    4770        pG      BX       lr
    am_hal_card_init
        0x00018a88:    e92d4ff0    -..O    PUSH     {r4-r11,lr}
        0x00018a8c:    b089        ..      SUB      sp,sp,#0x24
        0x00018a8e:    2800        .(      CMP      r0,#0
        0x00018a90:    d044        D.      BEQ      0x18b1c ; am_hal_card_init + 148
        0x00018a92:    4683        .F      MOV      r11,r0
        0x00018a94:    f8d00278    ..x.    LDR      r0,[r0,#0x278]
        0x00018a98:    2800        .(      CMP      r0,#0
        0x00018a9a:    d03f        ?.      BEQ      0x18b1c ; am_hal_card_init + 148
        0x00018a9c:    461e        .F      MOV      r6,r3
        0x00018a9e:    4617        .F      MOV      r7,r2
        0x00018aa0:    4689        .F      MOV      r9,r1
        0x00018aa2:    460d        .F      MOV      r5,r1
        0x00018aa4:    b10a        ..      CBZ      r2,0x18aaa ; am_hal_card_init + 34
        0x00018aa6:    2002        .       MOVS     r0,#2
        0x00018aa8:    47b8        .G      BLX      r7
        0x00018aaa:    200f        .       MOVS     r0,#0xf
        0x00018aac:    f88b0001    ....    STRB     r0,[r11,#1]
        0x00018ab0:    2000        .       MOVS     r0,#0
        0x00018ab2:    f1b90f00    ....    CMP      r9,#0
        0x00018ab6:    f8cb7268    ..hr    STR      r7,[r11,#0x268]
        0x00018aba:    f88b626c    ..lb    STRB     r6,[r11,#0x26c]
        0x00018abe:    f88b0266    ..f.    STRB     r0,[r11,#0x266]
        0x00018ac2:    f88b5000    ...P    STRB     r5,[r11,#0]
        0x00018ac6:    d02f        /.      BEQ      0x18b28 ; am_hal_card_init + 160
        0x00018ac8:    1e68        h.      SUBS     r0,r5,#1
        0x00018aca:    2806        .(      CMP      r0,#6
        0x00018acc:    f2008426    ..&.    BHI.W    0x1931c ; am_hal_card_init + 2196
        0x00018ad0:    2601        .&      MOVS     r6,#1
        0x00018ad2:    e8dff010    ....    TBH      [pc,r0,LSL #1]
    $d.15
        0x00018ad6:    0045        E.      DCW    69
        0x00018ad8:    00070045    E...    DCD    458821
        0x00018adc:    00070007    ....    DCD    458759
        0x00018ae0:    017d0163    c.}.    DCD    24969571
    $t.16
        0x00018ae4:    f1b90f00    ....    CMP      r9,#0
        0x00018ae8:    f00081ff    ....    BEQ.W    0x18eea ; am_hal_card_init + 1122
        0x00018aec:    20c8        .       MOVS     r0,#0xc8
        0x00018aee:    f001f847    ..G.    BL       am_hal_delay_us ; 0x19b80
        0x00018af2:    f8db0278    ..x.    LDR      r0,[r11,#0x278]
        0x00018af6:    466e        nF      MOV      r6,sp
        0x00018af8:    6e81        .n      LDR      r1,[r0,#0x68]
        0x00018afa:    6805        .h      LDR      r5,[r0,#0]
        0x00018afc:    68cc        .h      LDR      r4,[r1,#0xc]
        0x00018afe:    4630        0F      MOV      r0,r6
        0x00018b00:    2124        $!      MOVS     r1,#0x24
        0x00018b02:    f7fffc33    ..3.    BL       __aeabi_memclr4 ; 0x1836c
        0x00018b06:    4628        (F      MOV      r0,r5
        0x00018b08:    4631        1F      MOV      r1,r6
        0x00018b0a:    2200        ."      MOVS     r2,#0
        0x00018b0c:    47a0        .G      BLX      r4
        0x00018b0e:    f89d0020    .. .    LDRB     r0,[sp,#0x20]
        0x00018b12:    2800        .(      CMP      r0,#0
        0x00018b14:    f0008188    ....    BEQ.W    0x18e28 ; am_hal_card_init + 928
        0x00018b18:    2601        .&      MOVS     r6,#1
        0x00018b1a:    e159        Y.      B        0x18dd0 ; am_hal_card_init + 840
        0x00018b1c:    2606        .&      MOVS     r6,#6
        0x00018b1e:    4630        0F      MOV      r0,r6
        0x00018b20:    b009        ..      ADD      sp,sp,#0x24
        0x00018b22:    e8bd8ff0    ....    POP      {r4-r11,pc}
        0x00018b26:    bf00        ..      NOP      
        0x00018b28:    20c8        .       MOVS     r0,#0xc8
        0x00018b2a:    f003ffc1    ....    BL       am_util_delay_us ; 0x1cab0
        0x00018b2e:    f8db0278    ..x.    LDR      r0,[r11,#0x278]
        0x00018b32:    466f        oF      MOV      r7,sp
        0x00018b34:    6e81        .n      LDR      r1,[r0,#0x68]
        0x00018b36:    6806        .h      LDR      r6,[r0,#0]
        0x00018b38:    68cd        .h      LDR      r5,[r1,#0xc]
        0x00018b3a:    4638        8F      MOV      r0,r7
        0x00018b3c:    2124        $!      MOVS     r1,#0x24
        0x00018b3e:    f7fffc15    ....    BL       __aeabi_memclr4 ; 0x1836c
        0x00018b42:    4630        0F      MOV      r0,r6
        0x00018b44:    4639        9F      MOV      r1,r7
        0x00018b46:    2200        ."      MOVS     r2,#0
        0x00018b48:    47a8        .G      BLX      r5
        0x00018b4a:    f89d0020    .. .    LDRB     r0,[sp,#0x20]
        0x00018b4e:    2800        .(      CMP      r0,#0
        0x00018b50:    f00080da    ....    BEQ.W    0x18d08 ; am_hal_card_init + 640
        0x00018b54:    2601        .&      MOVS     r6,#1
        0x00018b56:    4630        0F      MOV      r0,r6
        0x00018b58:    b009        ..      ADD      sp,sp,#0x24
        0x00018b5a:    e8bd8ff0    ....    POP      {r4-r11,pc}
        0x00018b5e:    bf00        ..      NOP      
        0x00018b60:    f1b90f00    ....    CMP      r9,#0
        0x00018b64:    d03f        ?.      BEQ      0x18be6 ; am_hal_card_init + 350
        0x00018b66:    20c8        .       MOVS     r0,#0xc8
        0x00018b68:    f001f80a    ....    BL       am_hal_delay_us ; 0x19b80
        0x00018b6c:    f8db0278    ..x.    LDR      r0,[r11,#0x278]
        0x00018b70:    466e        nF      MOV      r6,sp
        0x00018b72:    6e81        .n      LDR      r1,[r0,#0x68]
        0x00018b74:    6805        .h      LDR      r5,[r0,#0]
        0x00018b76:    68cc        .h      LDR      r4,[r1,#0xc]
        0x00018b78:    4630        0F      MOV      r0,r6
        0x00018b7a:    2124        $!      MOVS     r1,#0x24
        0x00018b7c:    f7fffbf6    ....    BL       __aeabi_memclr4 ; 0x1836c
        0x00018b80:    4628        (F      MOV      r0,r5
        0x00018b82:    4631        1F      MOV      r1,r6
        0x00018b84:    2200        ."      MOVS     r2,#0
        0x00018b86:    47a0        .G      BLX      r4
        0x00018b88:    f89d0020    .. .    LDRB     r0,[sp,#0x20]
        0x00018b8c:    2601        .&      MOVS     r6,#1
        0x00018b8e:    2800        .(      CMP      r0,#0
        0x00018b90:    f040811e    @...    BNE.W    0x18dd0 ; am_hal_card_init + 840
        0x00018b94:    466d        mF      MOV      r5,sp
        0x00018b96:    f8db7278    ..xr    LDR      r7,[r11,#0x278]
        0x00018b9a:    4628        (F      MOV      r0,r5
        0x00018b9c:    2124        $!      MOVS     r1,#0x24
        0x00018b9e:    f7fffbe5    ....    BL       __aeabi_memclr4 ; 0x1836c
        0x00018ba2:    f04f4080    O..@    MOV      r0,#0x40000000
        0x00018ba6:    2464        d$      MOVS     r4,#0x64
        0x00018ba8:    f88d6000    ...`    STRB     r6,[sp,#0]
        0x00018bac:    e9cd0601    ....    STRD     r0,r6,[sp,#4]
        0x00018bb0:    e007        ..      B        0x18bc2 ; am_hal_card_init + 314
        0x00018bb2:    bf00        ..      NOP      
        0x00018bb4:    200a        .       MOVS     r0,#0xa
        0x00018bb6:    f003ff6f    ..o.    BL       am_util_delay_ms ; 0x1ca98
        0x00018bba:    3c01        .<      SUBS     r4,#1
        0x00018bbc:    0620         .      LSLS     r0,r4,#24
        0x00018bbe:    f00083bc    ....    BEQ.W    0x1933a ; am_hal_card_init + 2226
        0x00018bc2:    6eb9        .n      LDR      r1,[r7,#0x68]
        0x00018bc4:    6838        8h      LDR      r0,[r7,#0]
        0x00018bc6:    68cb        .h      LDR      r3,[r1,#0xc]
        0x00018bc8:    4629        )F      MOV      r1,r5
        0x00018bca:    2200        ."      MOVS     r2,#0
        0x00018bcc:    4798        .G      BLX      r3
        0x00018bce:    f89d0020    .. .    LDRB     r0,[sp,#0x20]
        0x00018bd2:    2800        .(      CMP      r0,#0
        0x00018bd4:    d1ee        ..      BNE      0x18bb4 ; am_hal_card_init + 300
        0x00018bd6:    9901        ..      LDR      r1,[sp,#4]
        0x00018bd8:    9804        ..      LDR      r0,[sp,#0x10]
        0x00018bda:    4301        .C      ORRS     r1,r1,r0
        0x00018bdc:    2800        .(      CMP      r0,#0
        0x00018bde:    9101        ..      STR      r1,[sp,#4]
        0x00018be0:    d5e8        ..      BPL      0x18bb4 ; am_hal_card_init + 300
        0x00018be2:    f8cb0004    ....    STR      r0,[r11,#4]
        0x00018be6:    466d        mF      MOV      r5,sp
        0x00018be8:    f8db4278    ..xB    LDR      r4,[r11,#0x278]
        0x00018bec:    4628        (F      MOV      r0,r5
        0x00018bee:    2124        $!      MOVS     r1,#0x24
        0x00018bf0:    f7fffbbc    ....    BL       __aeabi_memclr4 ; 0x1836c
        0x00018bf4:    2002        .       MOVS     r0,#2
        0x00018bf6:    f88d0000    ....    STRB     r0,[sp,#0]
        0x00018bfa:    2007        .       MOVS     r0,#7
        0x00018bfc:    6ea1        .n      LDR      r1,[r4,#0x68]
        0x00018bfe:    9002        ..      STR      r0,[sp,#8]
        0x00018c00:    6820         h      LDR      r0,[r4,#0]
        0x00018c02:    68cb        .h      LDR      r3,[r1,#0xc]
        0x00018c04:    4629        )F      MOV      r1,r5
        0x00018c06:    2200        ."      MOVS     r2,#0
        0x00018c08:    4798        .G      BLX      r3
        0x00018c0a:    f89d0020    .. .    LDRB     r0,[sp,#0x20]
        0x00018c0e:    2800        .(      CMP      r0,#0
        0x00018c10:    f0408393    @...    BNE.W    0x1933a ; am_hal_card_init + 2226
        0x00018c14:    ab04        ..      ADD      r3,sp,#0x10
        0x00018c16:    cb0f        ..      LDM      r3,{r0-r3}
        0x00018c18:    f10b0c10    ....    ADD      r12,r11,#0x10
        0x00018c1c:    e88c0007    ....    STM      r12,{r0-r2}
        0x00018c20:    f89b0002    ....    LDRB     r0,[r11,#2]
        0x00018c24:    466d        mF      MOV      r5,sp
        0x00018c26:    f0400001    @...    ORR      r0,r0,#1
        0x00018c2a:    f8db4278    ..xB    LDR      r4,[r11,#0x278]
        0x00018c2e:    f88b0002    ....    STRB     r0,[r11,#2]
        0x00018c32:    4628        (F      MOV      r0,r5
        0x00018c34:    2124        $!      MOVS     r1,#0x24
        0x00018c36:    f8cb301c    ...0    STR      r3,[r11,#0x1c]
        0x00018c3a:    f7fffb97    ....    BL       __aeabi_memclr4 ; 0x1836c
        0x00018c3e:    2003        .       MOVS     r0,#3
        0x00018c40:    f88d0000    ....    STRB     r0,[sp,#0]
        0x00018c44:    f44f3080    O..0    MOV      r0,#0x10000
        0x00018c48:    9001        ..      STR      r0,[sp,#4]
        0x00018c4a:    2015        .       MOVS     r0,#0x15
        0x00018c4c:    6ea1        .n      LDR      r1,[r4,#0x68]
        0x00018c4e:    9002        ..      STR      r0,[sp,#8]
        0x00018c50:    68cb        .h      LDR      r3,[r1,#0xc]
        0x00018c52:    6820         h      LDR      r0,[r4,#0]
        0x00018c54:    4629        )F      MOV      r1,r5
        0x00018c56:    2200        ."      MOVS     r2,#0
        0x00018c58:    4798        .G      BLX      r3
        0x00018c5a:    f89d0020    .. .    LDRB     r0,[sp,#0x20]
        0x00018c5e:    2800        .(      CMP      r0,#0
        0x00018c60:    f040836b    @.k.    BNE.W    0x1933a ; am_hal_card_init + 2226
        0x00018c64:    f89b0000    ....    LDRB     r0,[r11,#0]
        0x00018c68:    f8bd4012    ...@    LDRH     r4,[sp,#0x12]
        0x00018c6c:    3801        .8      SUBS     r0,#1
        0x00018c6e:    466d        mF      MOV      r5,sp
        0x00018c70:    2802        .(      CMP      r0,#2
        0x00018c72:    bf38        8.      IT       CC
        0x00018c74:    2401        .$      MOVCC    r4,#1
        0x00018c76:    f8db6278    ..xb    LDR      r6,[r11,#0x278]
        0x00018c7a:    4628        (F      MOV      r0,r5
        0x00018c7c:    2124        $!      MOVS     r1,#0x24
        0x00018c7e:    f8cb4008    ...@    STR      r4,[r11,#8]
        0x00018c82:    f7fffb73    ..s.    BL       __aeabi_memclr4 ; 0x1836c
        0x00018c86:    2009        .       MOVS     r0,#9
        0x00018c88:    f88d0000    ....    STRB     r0,[sp,#0]
        0x00018c8c:    0420         .      LSLS     r0,r4,#16
        0x00018c8e:    2407        .$      MOVS     r4,#7
        0x00018c90:    6eb1        .n      LDR      r1,[r6,#0x68]
        0x00018c92:    9001        ..      STR      r0,[sp,#4]
        0x00018c94:    9402        ..      STR      r4,[sp,#8]
        0x00018c96:    6830        0h      LDR      r0,[r6,#0]
        0x00018c98:    68cb        .h      LDR      r3,[r1,#0xc]
        0x00018c9a:    4629        )F      MOV      r1,r5
        0x00018c9c:    2200        ."      MOVS     r2,#0
        0x00018c9e:    4798        .G      BLX      r3
        0x00018ca0:    f89d0020    .. .    LDRB     r0,[sp,#0x20]
        0x00018ca4:    2800        .(      CMP      r0,#0
        0x00018ca6:    f0408348    @.H.    BNE.W    0x1933a ; am_hal_card_init + 2226
        0x00018caa:    ab04        ..      ADD      r3,sp,#0x10
        0x00018cac:    cb0f        ..      LDM      r3,{r0-r3}
        0x00018cae:    f10b0c20    .. .    ADD      r12,r11,#0x20
        0x00018cb2:    e88c0007    ....    STM      r12,{r0-r2}
        0x00018cb6:    f89b0002    ....    LDRB     r0,[r11,#2]
        0x00018cba:    466d        mF      MOV      r5,sp
        0x00018cbc:    f0400002    @...    ORR      r0,r0,#2
        0x00018cc0:    f8db6278    ..xb    LDR      r6,[r11,#0x278]
        0x00018cc4:    f88b0002    ....    STRB     r0,[r11,#2]
        0x00018cc8:    4628        (F      MOV      r0,r5
        0x00018cca:    2124        $!      MOVS     r1,#0x24
        0x00018ccc:    f8cb302c    ..,0    STR      r3,[r11,#0x2c]
        0x00018cd0:    f7fffb4c    ..L.    BL       __aeabi_memclr4 ; 0x1836c
        0x00018cd4:    f8db0008    ....    LDR      r0,[r11,#8]
        0x00018cd8:    f88d4000    ...@    STRB     r4,[sp,#0]
        0x00018cdc:    0401        ..      LSLS     r1,r0,#16
        0x00018cde:    9101        ..      STR      r1,[sp,#4]
        0x00018ce0:    2800        .(      CMP      r0,#0
        0x00018ce2:    bf18        ..      IT       NE
        0x00018ce4:    2015        .       MOVNE    r0,#0x15
        0x00018ce6:    6eb1        .n      LDR      r1,[r6,#0x68]
        0x00018ce8:    9002        ..      STR      r0,[sp,#8]
        0x00018cea:    68cb        .h      LDR      r3,[r1,#0xc]
        0x00018cec:    6830        0h      LDR      r0,[r6,#0]
        0x00018cee:    4629        )F      MOV      r1,r5
        0x00018cf0:    2200        ."      MOVS     r2,#0
        0x00018cf2:    4798        .G      BLX      r3
        0x00018cf4:    f89d0020    .. .    LDRB     r0,[sp,#0x20]
        0x00018cf8:    2800        .(      CMP      r0,#0
        0x00018cfa:    f0008355    ..U.    BEQ.W    0x193a8 ; am_hal_card_init + 2336
        0x00018cfe:    2601        .&      MOVS     r6,#1
        0x00018d00:    4630        0F      MOV      r0,r6
        0x00018d02:    b009        ..      ADD      sp,sp,#0x24
        0x00018d04:    e8bd8ff0    ....    POP      {r4-r11,pc}
        0x00018d08:    f8db0278    ..x.    LDR      r0,[r11,#0x278]
        0x00018d0c:    466f        oF      MOV      r7,sp
        0x00018d0e:    6e81        .n      LDR      r1,[r0,#0x68]
        0x00018d10:    6806        .h      LDR      r6,[r0,#0]
        0x00018d12:    68cd        .h      LDR      r5,[r1,#0xc]
        0x00018d14:    4638        8F      MOV      r0,r7
        0x00018d16:    2124        $!      MOVS     r1,#0x24
        0x00018d18:    f7fffb28    ..(.    BL       __aeabi_memclr4 ; 0x1836c
        0x00018d1c:    2008        .       MOVS     r0,#8
        0x00018d1e:    f88d0000    ....    STRB     r0,[sp,#0]
        0x00018d22:    2015        .       MOVS     r0,#0x15
        0x00018d24:    9002        ..      STR      r0,[sp,#8]
        0x00018d26:    f44f70d5    O..p    MOV      r0,#0x1aa
        0x00018d2a:    9001        ..      STR      r0,[sp,#4]
        0x00018d2c:    4630        0F      MOV      r0,r6
        0x00018d2e:    4639        9F      MOV      r1,r7
        0x00018d30:    2200        ."      MOVS     r2,#0
        0x00018d32:    47a8        .G      BLX      r5
        0x00018d34:    f89d0020    .. .    LDRB     r0,[sp,#0x20]
        0x00018d38:    b930        0.      CBNZ     r0,0x18d48 ; am_hal_card_init + 704
        0x00018d3a:    f89d0010    ....    LDRB     r0,[sp,#0x10]
        0x00018d3e:    28aa        .(      CMP      r0,#0xaa
        0x00018d40:    d102        ..      BNE      0x18d48 ; am_hal_card_init + 704
        0x00018d42:    2504        .%      MOVS     r5,#4
        0x00018d44:    e2e1        ..      B        0x1930a ; am_hal_card_init + 2178
        0x00018d46:    bf00        ..      NOP      
        0x00018d48:    466e        nF      MOV      r6,sp
        0x00018d4a:    f8db7278    ..xr    LDR      r7,[r11,#0x278]
        0x00018d4e:    4630        0F      MOV      r0,r6
        0x00018d50:    2124        $!      MOVS     r1,#0x24
        0x00018d52:    f7fffb0b    ....    BL       __aeabi_memclr4 ; 0x1836c
        0x00018d56:    2001        .       MOVS     r0,#1
        0x00018d58:    f04f4180    O..A    MOV      r1,#0x40000000
        0x00018d5c:    2564        d%      MOVS     r5,#0x64
        0x00018d5e:    f88d0000    ....    STRB     r0,[sp,#0]
        0x00018d62:    e9cd1001    ....    STRD     r1,r0,[sp,#4]
        0x00018d66:    e005        ..      B        0x18d74 ; am_hal_card_init + 748
        0x00018d68:    200a        .       MOVS     r0,#0xa
        0x00018d6a:    f003fe95    ....    BL       am_util_delay_ms ; 0x1ca98
        0x00018d6e:    3d01        .=      SUBS     r5,#1
        0x00018d70:    0628        (.      LSLS     r0,r5,#24
        0x00018d72:    d031        1.      BEQ      0x18dd8 ; am_hal_card_init + 848
        0x00018d74:    6eb9        .n      LDR      r1,[r7,#0x68]
        0x00018d76:    6838        8h      LDR      r0,[r7,#0]
        0x00018d78:    68cb        .h      LDR      r3,[r1,#0xc]
        0x00018d7a:    4631        1F      MOV      r1,r6
        0x00018d7c:    2200        ."      MOVS     r2,#0
        0x00018d7e:    4798        .G      BLX      r3
        0x00018d80:    f89d0020    .. .    LDRB     r0,[sp,#0x20]
        0x00018d84:    2800        .(      CMP      r0,#0
        0x00018d86:    d1ef        ..      BNE      0x18d68 ; am_hal_card_init + 736
        0x00018d88:    9901        ..      LDR      r1,[sp,#4]
        0x00018d8a:    9804        ..      LDR      r0,[sp,#0x10]
        0x00018d8c:    4301        .C      ORRS     r1,r1,r0
        0x00018d8e:    2800        .(      CMP      r0,#0
        0x00018d90:    9101        ..      STR      r1,[sp,#4]
        0x00018d92:    d5e9        ..      BPL      0x18d68 ; am_hal_card_init + 736
        0x00018d94:    f8cb0004    ....    STR      r0,[r11,#4]
        0x00018d98:    2502        .%      MOVS     r5,#2
        0x00018d9a:    e2b6        ..      B        0x1930a ; am_hal_card_init + 2178
        0x00018d9c:    f1b90f00    ....    CMP      r9,#0
        0x00018da0:    d070        p.      BEQ      0x18e84 ; am_hal_card_init + 1020
        0x00018da2:    20c8        .       MOVS     r0,#0xc8
        0x00018da4:    f000feec    ....    BL       am_hal_delay_us ; 0x19b80
        0x00018da8:    f8db0278    ..x.    LDR      r0,[r11,#0x278]
        0x00018dac:    466e        nF      MOV      r6,sp
        0x00018dae:    6e81        .n      LDR      r1,[r0,#0x68]
        0x00018db0:    6805        .h      LDR      r5,[r0,#0]
        0x00018db2:    68cc        .h      LDR      r4,[r1,#0xc]
        0x00018db4:    4630        0F      MOV      r0,r6
        0x00018db6:    2124        $!      MOVS     r1,#0x24
        0x00018db8:    f7fffad8    ....    BL       __aeabi_memclr4 ; 0x1836c
        0x00018dbc:    4628        (F      MOV      r0,r5
        0x00018dbe:    4631        1F      MOV      r1,r6
        0x00018dc0:    2200        ."      MOVS     r2,#0
        0x00018dc2:    47a0        .G      BLX      r4
        0x00018dc4:    f89d0020    .. .    LDRB     r0,[sp,#0x20]
        0x00018dc8:    2601        .&      MOVS     r6,#1
        0x00018dca:    2800        .(      CMP      r0,#0
        0x00018dcc:    f000816a    ..j.    BEQ.W    0x190a4 ; am_hal_card_init + 1564
        0x00018dd0:    4630        0F      MOV      r0,r6
        0x00018dd2:    b009        ..      ADD      sp,sp,#0x24
        0x00018dd4:    e8bd8ff0    ....    POP      {r4-r11,pc}
        0x00018dd8:    46e8        .F      MOV      r8,sp
        0x00018dda:    f8db7278    ..xr    LDR      r7,[r11,#0x278]
        0x00018dde:    4640        @F      MOV      r0,r8
        0x00018de0:    2124        $!      MOVS     r1,#0x24
        0x00018de2:    f7fffac3    ....    BL       __aeabi_memclr4 ; 0x1836c
        0x00018de6:    2005        .       MOVS     r0,#5
        0x00018de8:    f88d0000    ....    STRB     r0,[sp,#0]
        0x00018dec:    2001        .       MOVS     r0,#1
        0x00018dee:    2664        d&      MOVS     r6,#0x64
        0x00018df0:    2500        .%      MOVS     r5,#0
        0x00018df2:    9002        ..      STR      r0,[sp,#8]
        0x00018df4:    6eb9        .n      LDR      r1,[r7,#0x68]
        0x00018df6:    6838        8h      LDR      r0,[r7,#0]
        0x00018df8:    68cb        .h      LDR      r3,[r1,#0xc]
        0x00018dfa:    4641        AF      MOV      r1,r8
        0x00018dfc:    2200        ."      MOVS     r2,#0
        0x00018dfe:    462c        ,F      MOV      r4,r5
        0x00018e00:    4798        .G      BLX      r3
        0x00018e02:    f89d0020    .. .    LDRB     r0,[sp,#0x20]
        0x00018e06:    9d04        ..      LDR      r5,[sp,#0x10]
        0x00018e08:    2800        .(      CMP      r0,#0
        0x00018e0a:    bf18        ..      IT       NE
        0x00018e0c:    4625        %F      MOVNE    r5,r4
        0x00018e0e:    2d00        .-      CMP      r5,#0
        0x00018e10:    d42a        *.      BMI      0x18e68 ; am_hal_card_init + 992
        0x00018e12:    200a        .       MOVS     r0,#0xa
        0x00018e14:    f003fe40    ..@.    BL       am_util_delay_ms ; 0x1ca98
        0x00018e18:    3e01        .>      SUBS     r6,#1
        0x00018e1a:    0630        0.      LSLS     r0,r6,#24
        0x00018e1c:    d1ea        ..      BNE      0x18df4 ; am_hal_card_init + 876
        0x00018e1e:    2601        .&      MOVS     r6,#1
        0x00018e20:    4630        0F      MOV      r0,r6
        0x00018e22:    b009        ..      ADD      sp,sp,#0x24
        0x00018e24:    e8bd8ff0    ....    POP      {r4-r11,pc}
        0x00018e28:    f8db0278    ..x.    LDR      r0,[r11,#0x278]
        0x00018e2c:    466e        nF      MOV      r6,sp
        0x00018e2e:    6e81        .n      LDR      r1,[r0,#0x68]
        0x00018e30:    6805        .h      LDR      r5,[r0,#0]
        0x00018e32:    68cc        .h      LDR      r4,[r1,#0xc]
        0x00018e34:    4630        0F      MOV      r0,r6
        0x00018e36:    2124        $!      MOVS     r1,#0x24
        0x00018e38:    f7fffa98    ....    BL       __aeabi_memclr4 ; 0x1836c
        0x00018e3c:    2008        .       MOVS     r0,#8
        0x00018e3e:    f88d0000    ....    STRB     r0,[sp,#0]
        0x00018e42:    2015        .       MOVS     r0,#0x15
        0x00018e44:    9002        ..      STR      r0,[sp,#8]
        0x00018e46:    f44f70d5    O..p    MOV      r0,#0x1aa
        0x00018e4a:    9001        ..      STR      r0,[sp,#4]
        0x00018e4c:    4628        (F      MOV      r0,r5
        0x00018e4e:    4631        1F      MOV      r1,r6
        0x00018e50:    2200        ."      MOVS     r2,#0
        0x00018e52:    47a0        .G      BLX      r4
        0x00018e54:    f89d0020    .. .    LDRB     r0,[sp,#0x20]
        0x00018e58:    2800        .(      CMP      r0,#0
        0x00018e5a:    d041        A.      BEQ      0x18ee0 ; am_hal_card_init + 1112
        0x00018e5c:    2601        .&      MOVS     r6,#1
        0x00018e5e:    4630        0F      MOV      r0,r6
        0x00018e60:    b009        ..      ADD      sp,sp,#0x24
        0x00018e62:    e8bd8ff0    ....    POP      {r4-r11,pc}
        0x00018e66:    bf00        ..      NOP      
        0x00018e68:    f3c57102    ...q    UBFX     r1,r5,#28,#3
        0x00018e6c:    2800        .(      CMP      r0,#0
        0x00018e6e:    f8cb5004    ...P    STR      r5,[r11,#4]
        0x00018e72:    f8cb100c    ....    STR      r1,[r11,#0xc]
        0x00018e76:    f0008247    ..G.    BEQ.W    0x19308 ; am_hal_card_init + 2176
        0x00018e7a:    2601        .&      MOVS     r6,#1
        0x00018e7c:    4630        0F      MOV      r0,r6
        0x00018e7e:    b009        ..      ADD      sp,sp,#0x24
        0x00018e80:    e8bd8ff0    ....    POP      {r4-r11,pc}
        0x00018e84:    f8db5004    ...P    LDR      r5,[r11,#4]
        0x00018e88:    46e8        .F      MOV      r8,sp
        0x00018e8a:    f8db6278    ..xb    LDR      r6,[r11,#0x278]
        0x00018e8e:    4640        @F      MOV      r0,r8
        0x00018e90:    2124        $!      MOVS     r1,#0x24
        0x00018e92:    f7fffa6b    ..k.    BL       __aeabi_memclr4 ; 0x1836c
        0x00018e96:    2005        .       MOVS     r0,#5
        0x00018e98:    f88d0000    ....    STRB     r0,[sp,#0]
        0x00018e9c:    f64f7000    O..p    MOVW     r0,#0xff00
        0x00018ea0:    f2c010ff    ....    MOVT     r0,#0x1ff
        0x00018ea4:    4028        (@      ANDS     r0,r0,r5
        0x00018ea6:    9001        ..      STR      r0,[sp,#4]
        0x00018ea8:    2001        .       MOVS     r0,#1
        0x00018eaa:    2764        d'      MOVS     r7,#0x64
        0x00018eac:    2400        .$      MOVS     r4,#0
        0x00018eae:    9002        ..      STR      r0,[sp,#8]
        0x00018eb0:    6eb1        .n      LDR      r1,[r6,#0x68]
        0x00018eb2:    6830        0h      LDR      r0,[r6,#0]
        0x00018eb4:    68cb        .h      LDR      r3,[r1,#0xc]
        0x00018eb6:    4641        AF      MOV      r1,r8
        0x00018eb8:    2200        ."      MOVS     r2,#0
        0x00018eba:    4625        %F      MOV      r5,r4
        0x00018ebc:    4798        .G      BLX      r3
        0x00018ebe:    f89d0020    .. .    LDRB     r0,[sp,#0x20]
        0x00018ec2:    9c04        ..      LDR      r4,[sp,#0x10]
        0x00018ec4:    2800        .(      CMP      r0,#0
        0x00018ec6:    bf18        ..      IT       NE
        0x00018ec8:    462c        ,F      MOVNE    r4,r5
        0x00018eca:    2c00        .,      CMP      r4,#0
        0x00018ecc:    f1008124    ..$.    BMI.W    0x19118 ; am_hal_card_init + 1680
        0x00018ed0:    200a        .       MOVS     r0,#0xa
        0x00018ed2:    f003fde1    ....    BL       am_util_delay_ms ; 0x1ca98
        0x00018ed6:    3f01        .?      SUBS     r7,#1
        0x00018ed8:    0638        8.      LSLS     r0,r7,#24
        0x00018eda:    d1e9        ..      BNE      0x18eb0 ; am_hal_card_init + 1064
        0x00018edc:    e22d        -.      B        0x1933a ; am_hal_card_init + 2226
        0x00018ede:    bf00        ..      NOP      
        0x00018ee0:    f89d0010    ....    LDRB     r0,[sp,#0x10]
        0x00018ee4:    28aa        .(      CMP      r0,#0xaa
        0x00018ee6:    f0408228    @.(.    BNE.W    0x1933a ; am_hal_card_init + 2226
        0x00018eea:    f64f6600    O..f    MOVW     r6,#0xfe00
        0x00018eee:    f6cf76ff    ...v    MOVT     r6,#0xffff
        0x00018ef2:    466d        mF      MOV      r5,sp
        0x00018ef4:    f04f0837    O.7.    MOV      r8,#0x37
        0x00018ef8:    f04f0a15    O...    MOV      r10,#0x15
        0x00018efc:    f04f0901    O...    MOV      r9,#1
        0x00018f00:    e005        ..      B        0x18f0e ; am_hal_card_init + 1158
        0x00018f02:    bf00        ..      NOP      
        0x00018f04:    f1b73fff    ...?    CMP      r7,#0xffffffff
        0x00018f08:    f1060601    ....    ADD      r6,r6,#1
        0x00018f0c:    dd2e        ..      BLE      0x18f6c ; am_hal_card_init + 1252
        0x00018f0e:    b3c6        ..      CBZ      r6,0x18f82 ; am_hal_card_init + 1274
        0x00018f10:    f8db4278    ..xB    LDR      r4,[r11,#0x278]
        0x00018f14:    4628        (F      MOV      r0,r5
        0x00018f16:    2124        $!      MOVS     r1,#0x24
        0x00018f18:    f7fffa28    ..(.    BL       __aeabi_memclr4 ; 0x1836c
        0x00018f1c:    6ea1        .n      LDR      r1,[r4,#0x68]
        0x00018f1e:    f88d8000    ....    STRB     r8,[sp,#0]
        0x00018f22:    f8cda008    ....    STR      r10,[sp,#8]
        0x00018f26:    6820         h      LDR      r0,[r4,#0]
        0x00018f28:    68cb        .h      LDR      r3,[r1,#0xc]
        0x00018f2a:    4629        )F      MOV      r1,r5
        0x00018f2c:    2200        ."      MOVS     r2,#0
        0x00018f2e:    4798        .G      BLX      r3
        0x00018f30:    f89d0020    .. .    LDRB     r0,[sp,#0x20]
        0x00018f34:    2800        .(      CMP      r0,#0
        0x00018f36:    d1e5        ..      BNE      0x18f04 ; am_hal_card_init + 1148
        0x00018f38:    4628        (F      MOV      r0,r5
        0x00018f3a:    2124        $!      MOVS     r1,#0x24
        0x00018f3c:    f7fffa16    ....    BL       __aeabi_memclr4 ; 0x1836c
        0x00018f40:    2029        )       MOVS     r0,#0x29
        0x00018f42:    f88d0000    ....    STRB     r0,[sp,#0]
        0x00018f46:    f2480000    H...    MOVW     r0,#0x8000
        0x00018f4a:    f2c410ff    ....    MOVT     r0,#0x41ff
        0x00018f4e:    6ea1        .n      LDR      r1,[r4,#0x68]
        0x00018f50:    e9cd0901    ....    STRD     r0,r9,[sp,#4]
        0x00018f54:    6820         h      LDR      r0,[r4,#0]
        0x00018f56:    68cb        .h      LDR      r3,[r1,#0xc]
        0x00018f58:    4629        )F      MOV      r1,r5
        0x00018f5a:    2200        ."      MOVS     r2,#0
        0x00018f5c:    4798        .G      BLX      r3
        0x00018f5e:    f89d0020    .. .    LDRB     r0,[sp,#0x20]
        0x00018f62:    9904        ..      LDR      r1,[sp,#0x10]
        0x00018f64:    2800        .(      CMP      r0,#0
        0x00018f66:    bf08        ..      IT       EQ
        0x00018f68:    460f        .F      MOVEQ    r7,r1
        0x00018f6a:    e7cb        ..      B        0x18f04 ; am_hal_card_init + 1148
        0x00018f6c:    f3c77080    ...p    UBFX     r0,r7,#30,#1
        0x00018f70:    f88b0233    ..3.    STRB     r0,[r11,#0x233]
        0x00018f74:    f3c76000    ...`    UBFX     r0,r7,#24,#1
        0x00018f78:    2e00        ..      CMP      r6,#0
        0x00018f7a:    f88b0292    ....    STRB     r0,[r11,#0x292]
        0x00018f7e:    f00081dc    ....    BEQ.W    0x1933a ; am_hal_card_init + 2226
        0x00018f82:    2000        .       MOVS     r0,#0
        0x00018f84:    466d        mF      MOV      r5,sp
        0x00018f86:    f8db4278    ..xB    LDR      r4,[r11,#0x278]
        0x00018f8a:    f8cb02ac    ....    STR      r0,[r11,#0x2ac]
        0x00018f8e:    4628        (F      MOV      r0,r5
        0x00018f90:    2124        $!      MOVS     r1,#0x24
        0x00018f92:    f7fff9eb    ....    BL       __aeabi_memclr4 ; 0x1836c
        0x00018f96:    2002        .       MOVS     r0,#2
        0x00018f98:    f88d0000    ....    STRB     r0,[sp,#0]
        0x00018f9c:    2007        .       MOVS     r0,#7
        0x00018f9e:    6ea1        .n      LDR      r1,[r4,#0x68]
        0x00018fa0:    9002        ..      STR      r0,[sp,#8]
        0x00018fa2:    6820         h      LDR      r0,[r4,#0]
        0x00018fa4:    68cb        .h      LDR      r3,[r1,#0xc]
        0x00018fa6:    4629        )F      MOV      r1,r5
        0x00018fa8:    2200        ."      MOVS     r2,#0
        0x00018faa:    4798        .G      BLX      r3
        0x00018fac:    f89d0020    .. .    LDRB     r0,[sp,#0x20]
        0x00018fb0:    2800        .(      CMP      r0,#0
        0x00018fb2:    f04081c2    @...    BNE.W    0x1933a ; am_hal_card_init + 2226
        0x00018fb6:    ab04        ..      ADD      r3,sp,#0x10
        0x00018fb8:    cb0f        ..      LDM      r3,{r0-r3}
        0x00018fba:    f10b0c10    ....    ADD      r12,r11,#0x10
        0x00018fbe:    e88c0007    ....    STM      r12,{r0-r2}
        0x00018fc2:    f89b0002    ....    LDRB     r0,[r11,#2]
        0x00018fc6:    466d        mF      MOV      r5,sp
        0x00018fc8:    f0400001    @...    ORR      r0,r0,#1
        0x00018fcc:    f8db4278    ..xB    LDR      r4,[r11,#0x278]
        0x00018fd0:    f88b0002    ....    STRB     r0,[r11,#2]
        0x00018fd4:    4628        (F      MOV      r0,r5
        0x00018fd6:    2124        $!      MOVS     r1,#0x24
        0x00018fd8:    f8cb301c    ...0    STR      r3,[r11,#0x1c]
        0x00018fdc:    f7fff9c6    ....    BL       __aeabi_memclr4 ; 0x1836c
        0x00018fe0:    2003        .       MOVS     r0,#3
        0x00018fe2:    f88d0000    ....    STRB     r0,[sp,#0]
        0x00018fe6:    2015        .       MOVS     r0,#0x15
        0x00018fe8:    6ea1        .n      LDR      r1,[r4,#0x68]
        0x00018fea:    9002        ..      STR      r0,[sp,#8]
        0x00018fec:    68cb        .h      LDR      r3,[r1,#0xc]
        0x00018fee:    6820         h      LDR      r0,[r4,#0]
        0x00018ff0:    4629        )F      MOV      r1,r5
        0x00018ff2:    2200        ."      MOVS     r2,#0
        0x00018ff4:    4798        .G      BLX      r3
        0x00018ff6:    f89d0020    .. .    LDRB     r0,[sp,#0x20]
        0x00018ffa:    2800        .(      CMP      r0,#0
        0x00018ffc:    f040819d    @...    BNE.W    0x1933a ; am_hal_card_init + 2226
        0x00019000:    f89b0000    ....    LDRB     r0,[r11,#0]
        0x00019004:    f8bd4012    ...@    LDRH     r4,[sp,#0x12]
        0x00019008:    3801        .8      SUBS     r0,#1
        0x0001900a:    466d        mF      MOV      r5,sp
        0x0001900c:    2802        .(      CMP      r0,#2
        0x0001900e:    bf38        8.      IT       CC
        0x00019010:    2400        .$      MOVCC    r4,#0
        0x00019012:    f8db6278    ..xb    LDR      r6,[r11,#0x278]
        0x00019016:    4628        (F      MOV      r0,r5
        0x00019018:    2124        $!      MOVS     r1,#0x24
        0x0001901a:    f8cb4008    ...@    STR      r4,[r11,#8]
        0x0001901e:    f7fff9a5    ....    BL       __aeabi_memclr4 ; 0x1836c
        0x00019022:    2009        .       MOVS     r0,#9
        0x00019024:    f88d0000    ....    STRB     r0,[sp,#0]
        0x00019028:    0420         .      LSLS     r0,r4,#16
        0x0001902a:    2407        .$      MOVS     r4,#7
        0x0001902c:    6eb1        .n      LDR      r1,[r6,#0x68]
        0x0001902e:    9001        ..      STR      r0,[sp,#4]
        0x00019030:    9402        ..      STR      r4,[sp,#8]
        0x00019032:    6830        0h      LDR      r0,[r6,#0]
        0x00019034:    68cb        .h      LDR      r3,[r1,#0xc]
        0x00019036:    4629        )F      MOV      r1,r5
        0x00019038:    2200        ."      MOVS     r2,#0
        0x0001903a:    4798        .G      BLX      r3
        0x0001903c:    f89d0020    .. .    LDRB     r0,[sp,#0x20]
        0x00019040:    2800        .(      CMP      r0,#0
        0x00019042:    f040817a    @.z.    BNE.W    0x1933a ; am_hal_card_init + 2226
        0x00019046:    ab04        ..      ADD      r3,sp,#0x10
        0x00019048:    cb0f        ..      LDM      r3,{r0-r3}
        0x0001904a:    f10b0c20    .. .    ADD      r12,r11,#0x20
        0x0001904e:    e88c0007    ....    STM      r12,{r0-r2}
        0x00019052:    f89b0002    ....    LDRB     r0,[r11,#2]
        0x00019056:    466d        mF      MOV      r5,sp
        0x00019058:    f0400002    @...    ORR      r0,r0,#2
        0x0001905c:    f8db6278    ..xb    LDR      r6,[r11,#0x278]
        0x00019060:    f88b0002    ....    STRB     r0,[r11,#2]
        0x00019064:    4628        (F      MOV      r0,r5
        0x00019066:    2124        $!      MOVS     r1,#0x24
        0x00019068:    f8cb302c    ..,0    STR      r3,[r11,#0x2c]
        0x0001906c:    f7fff97e    ..~.    BL       __aeabi_memclr4 ; 0x1836c
        0x00019070:    f8db0008    ....    LDR      r0,[r11,#8]
        0x00019074:    f88d4000    ...@    STRB     r4,[sp,#0]
        0x00019078:    0401        ..      LSLS     r1,r0,#16
        0x0001907a:    9101        ..      STR      r1,[sp,#4]
        0x0001907c:    2800        .(      CMP      r0,#0
        0x0001907e:    bf18        ..      IT       NE
        0x00019080:    2015        .       MOVNE    r0,#0x15
        0x00019082:    6eb1        .n      LDR      r1,[r6,#0x68]
        0x00019084:    9002        ..      STR      r0,[sp,#8]
        0x00019086:    68cb        .h      LDR      r3,[r1,#0xc]
        0x00019088:    6830        0h      LDR      r0,[r6,#0]
        0x0001908a:    4629        )F      MOV      r1,r5
        0x0001908c:    2200        ."      MOVS     r2,#0
        0x0001908e:    4798        .G      BLX      r3
        0x00019090:    f89d0020    .. .    LDRB     r0,[sp,#0x20]
        0x00019094:    2800        .(      CMP      r0,#0
        0x00019096:    f0008155    ..U.    BEQ.W    0x19344 ; am_hal_card_init + 2236
        0x0001909a:    2601        .&      MOVS     r6,#1
        0x0001909c:    4630        0F      MOV      r0,r6
        0x0001909e:    b009        ..      ADD      sp,sp,#0x24
        0x000190a0:    e8bd8ff0    ....    POP      {r4-r11,pc}
        0x000190a4:    f8db0278    ..x.    LDR      r0,[r11,#0x278]
        0x000190a8:    46e8        .F      MOV      r8,sp
        0x000190aa:    6e81        .n      LDR      r1,[r0,#0x68]
        0x000190ac:    6807        .h      LDR      r7,[r0,#0]
        0x000190ae:    68cc        .h      LDR      r4,[r1,#0xc]
        0x000190b0:    4640        @F      MOV      r0,r8
        0x000190b2:    2124        $!      MOVS     r1,#0x24
        0x000190b4:    f7fff95a    ..Z.    BL       __aeabi_memclr4 ; 0x1836c
        0x000190b8:    2008        .       MOVS     r0,#8
        0x000190ba:    f88d0000    ....    STRB     r0,[sp,#0]
        0x000190be:    2015        .       MOVS     r0,#0x15
        0x000190c0:    9002        ..      STR      r0,[sp,#8]
        0x000190c2:    2060        `       MOVS     r0,#0x60
        0x000190c4:    9001        ..      STR      r0,[sp,#4]
        0x000190c6:    4638        8F      MOV      r0,r7
        0x000190c8:    4641        AF      MOV      r1,r8
        0x000190ca:    2200        ."      MOVS     r2,#0
        0x000190cc:    2700        .'      MOVS     r7,#0
        0x000190ce:    47a0        .G      BLX      r4
        0x000190d0:    f8db9278    ..x.    LDR      r9,[r11,#0x278]
        0x000190d4:    4668        hF      MOV      r0,sp
        0x000190d6:    2124        $!      MOVS     r1,#0x24
        0x000190d8:    f7fff948    ..H.    BL       __aeabi_memclr4 ; 0x1836c
        0x000190dc:    2005        .       MOVS     r0,#5
        0x000190de:    2464        d$      MOVS     r4,#0x64
        0x000190e0:    f88d0000    ....    STRB     r0,[sp,#0]
        0x000190e4:    9602        ..      STR      r6,[sp,#8]
        0x000190e6:    f8d91068    ..h.    LDR      r1,[r9,#0x68]
        0x000190ea:    f8d90000    ....    LDR      r0,[r9,#0]
        0x000190ee:    68cb        .h      LDR      r3,[r1,#0xc]
        0x000190f0:    4641        AF      MOV      r1,r8
        0x000190f2:    2200        ."      MOVS     r2,#0
        0x000190f4:    4798        .G      BLX      r3
        0x000190f6:    f89d0020    .. .    LDRB     r0,[sp,#0x20]
        0x000190fa:    9d04        ..      LDR      r5,[sp,#0x10]
        0x000190fc:    2800        .(      CMP      r0,#0
        0x000190fe:    bf08        ..      IT       EQ
        0x00019100:    462f        /F      MOVEQ    r7,r5
        0x00019102:    2f00        ./      CMP      r7,#0
        0x00019104:    f1008110    ....    BMI.W    0x19328 ; am_hal_card_init + 2208
        0x00019108:    200a        .       MOVS     r0,#0xa
        0x0001910a:    f003fcc5    ....    BL       am_util_delay_ms ; 0x1ca98
        0x0001910e:    3c01        .<      SUBS     r4,#1
        0x00019110:    0620         .      LSLS     r0,r4,#24
        0x00019112:    d1e8        ..      BNE      0x190e6 ; am_hal_card_init + 1630
        0x00019114:    e111        ..      B        0x1933a ; am_hal_card_init + 2226
        0x00019116:    bf00        ..      NOP      
        0x00019118:    f3c47102    ...q    UBFX     r1,r4,#28,#3
        0x0001911c:    2800        .(      CMP      r0,#0
        0x0001911e:    f8cb4004    ...@    STR      r4,[r11,#4]
        0x00019122:    f8cb100c    ....    STR      r1,[r11,#0xc]
        0x00019126:    f0408108    @...    BNE.W    0x1933a ; am_hal_card_init + 2226
        0x0001912a:    466d        mF      MOV      r5,sp
        0x0001912c:    f8db4278    ..xB    LDR      r4,[r11,#0x278]
        0x00019130:    4628        (F      MOV      r0,r5
        0x00019132:    2124        $!      MOVS     r1,#0x24
        0x00019134:    f7fff91a    ....    BL       __aeabi_memclr4 ; 0x1836c
        0x00019138:    2003        .       MOVS     r0,#3
        0x0001913a:    f88d0000    ....    STRB     r0,[sp,#0]
        0x0001913e:    2015        .       MOVS     r0,#0x15
        0x00019140:    6ea1        .n      LDR      r1,[r4,#0x68]
        0x00019142:    9002        ..      STR      r0,[sp,#8]
        0x00019144:    68cb        .h      LDR      r3,[r1,#0xc]
        0x00019146:    6820         h      LDR      r0,[r4,#0]
        0x00019148:    4629        )F      MOV      r1,r5
        0x0001914a:    2200        ."      MOVS     r2,#0
        0x0001914c:    4798        .G      BLX      r3
        0x0001914e:    f89d0020    .. .    LDRB     r0,[sp,#0x20]
        0x00019152:    2800        .(      CMP      r0,#0
        0x00019154:    f04080f1    @...    BNE.W    0x1933a ; am_hal_card_init + 2226
        0x00019158:    f89b0000    ....    LDRB     r0,[r11,#0]
        0x0001915c:    f8bd4012    ...@    LDRH     r4,[sp,#0x12]
        0x00019160:    3801        .8      SUBS     r0,#1
        0x00019162:    466d        mF      MOV      r5,sp
        0x00019164:    2802        .(      CMP      r0,#2
        0x00019166:    bf38        8.      IT       CC
        0x00019168:    2400        .$      MOVCC    r4,#0
        0x0001916a:    f8db6278    ..xb    LDR      r6,[r11,#0x278]
        0x0001916e:    4628        (F      MOV      r0,r5
        0x00019170:    2124        $!      MOVS     r1,#0x24
        0x00019172:    f8cb4008    ...@    STR      r4,[r11,#8]
        0x00019176:    f7fff8f9    ....    BL       __aeabi_memclr4 ; 0x1836c
        0x0001917a:    2007        .       MOVS     r0,#7
        0x0001917c:    f88d0000    ....    STRB     r0,[sp,#0]
        0x00019180:    0420         .      LSLS     r0,r4,#16
        0x00019182:    9001        ..      STR      r0,[sp,#4]
        0x00019184:    2c00        .,      CMP      r4,#0
        0x00019186:    bf18        ..      IT       NE
        0x00019188:    2415        .$      MOVNE    r4,#0x15
        0x0001918a:    6eb0        .n      LDR      r0,[r6,#0x68]
        0x0001918c:    9402        ..      STR      r4,[sp,#8]
        0x0001918e:    68c3        .h      LDR      r3,[r0,#0xc]
        0x00019190:    6830        0h      LDR      r0,[r6,#0]
        0x00019192:    4629        )F      MOV      r1,r5
        0x00019194:    2200        ."      MOVS     r2,#0
        0x00019196:    4798        .G      BLX      r3
        0x00019198:    f89d0020    .. .    LDRB     r0,[sp,#0x20]
        0x0001919c:    2800        .(      CMP      r0,#0
        0x0001919e:    f04080cc    @...    BNE.W    0x1933a ; am_hal_card_init + 2226
        0x000191a2:    f8db0008    ....    LDR      r0,[r11,#8]
        0x000191a6:    f8db7278    ..xr    LDR      r7,[r11,#0x278]
        0x000191aa:    2106        .!      MOVS     r1,#6
        0x000191ac:    2800        .(      CMP      r0,#0
        0x000191ae:    bf08        ..      IT       EQ
        0x000191b0:    2105        .!      MOVEQ    r1,#5
        0x000191b2:    2f00        ./      CMP      r7,#0
        0x000191b4:    f88b1001    ....    STRB     r1,[r11,#1]
        0x000191b8:    f00080bf    ....    BEQ.W    0x1933a ; am_hal_card_init + 2226
        0x000191bc:    466d        mF      MOV      r5,sp
        0x000191be:    4628        (F      MOV      r0,r5
        0x000191c0:    2124        $!      MOVS     r1,#0x24
        0x000191c2:    f7fff8d3    ....    BL       __aeabi_memclr4 ; 0x1836c
        0x000191c6:    2434        4$      MOVS     r4,#0x34
        0x000191c8:    2615        .&      MOVS     r6,#0x15
        0x000191ca:    6eb9        .n      LDR      r1,[r7,#0x68]
        0x000191cc:    f88d4000    ...@    STRB     r4,[sp,#0]
        0x000191d0:    9602        ..      STR      r6,[sp,#8]
        0x000191d2:    6838        8h      LDR      r0,[r7,#0]
        0x000191d4:    68cb        .h      LDR      r3,[r1,#0xc]
        0x000191d6:    4629        )F      MOV      r1,r5
        0x000191d8:    2200        ."      MOVS     r2,#0
        0x000191da:    4798        .G      BLX      r3
        0x000191dc:    f89d0020    .. .    LDRB     r0,[sp,#0x20]
        0x000191e0:    2800        .(      CMP      r0,#0
        0x000191e2:    f04080aa    @...    BNE.W    0x1933a ; am_hal_card_init + 2226
        0x000191e6:    9804        ..      LDR      r0,[sp,#0x10]
        0x000191e8:    466d        mF      MOV      r5,sp
        0x000191ea:    f000000f    ....    AND      r0,r0,#0xf
        0x000191ee:    f8db7278    ..xr    LDR      r7,[r11,#0x278]
        0x000191f2:    f88b027c    ..|.    STRB     r0,[r11,#0x27c]
        0x000191f6:    4628        (F      MOV      r0,r5
        0x000191f8:    2124        $!      MOVS     r1,#0x24
        0x000191fa:    f7fff8b7    ....    BL       __aeabi_memclr4 ; 0x1836c
        0x000191fe:    f44f7000    O..p    MOV      r0,#0x200
        0x00019202:    6eb9        .n      LDR      r1,[r7,#0x68]
        0x00019204:    f88d4000    ...@    STRB     r4,[sp,#0]
        0x00019208:    9602        ..      STR      r6,[sp,#8]
        0x0001920a:    9001        ..      STR      r0,[sp,#4]
        0x0001920c:    68cb        .h      LDR      r3,[r1,#0xc]
        0x0001920e:    6838        8h      LDR      r0,[r7,#0]
        0x00019210:    4629        )F      MOV      r1,r5
        0x00019212:    2200        ."      MOVS     r2,#0
        0x00019214:    4798        .G      BLX      r3
        0x00019216:    f89d0020    .. .    LDRB     r0,[sp,#0x20]
        0x0001921a:    2800        .(      CMP      r0,#0
        0x0001921c:    f040808d    @...    BNE.W    0x1933a ; am_hal_card_init + 2226
        0x00019220:    9804        ..      LDR      r0,[sp,#0x10]
        0x00019222:    466d        mF      MOV      r5,sp
        0x00019224:    f000000f    ....    AND      r0,r0,#0xf
        0x00019228:    f8db4278    ..xB    LDR      r4,[r11,#0x278]
        0x0001922c:    f88b027d    ..}.    STRB     r0,[r11,#0x27d]
        0x00019230:    4628        (F      MOV      r0,r5
        0x00019232:    2124        $!      MOVS     r1,#0x24
        0x00019234:    f7fff89a    ....    BL       __aeabi_memclr4 ; 0x1836c
        0x00019238:    2034        4       MOVS     r0,#0x34
        0x0001923a:    f88d0000    ....    STRB     r0,[sp,#0]
        0x0001923e:    2015        .       MOVS     r0,#0x15
        0x00019240:    9002        ..      STR      r0,[sp,#8]
        0x00019242:    f44f5080    O..P    MOV      r0,#0x1000
        0x00019246:    6ea1        .n      LDR      r1,[r4,#0x68]
        0x00019248:    9001        ..      STR      r0,[sp,#4]
        0x0001924a:    68cb        .h      LDR      r3,[r1,#0xc]
        0x0001924c:    6820         h      LDR      r0,[r4,#0]
        0x0001924e:    4629        )F      MOV      r1,r5
        0x00019250:    2200        ."      MOVS     r2,#0
        0x00019252:    4798        .G      BLX      r3
        0x00019254:    f89d0020    .. .    LDRB     r0,[sp,#0x20]
        0x00019258:    2800        .(      CMP      r0,#0
        0x0001925a:    d16e        n.      BNE      0x1933a ; am_hal_card_init + 2226
        0x0001925c:    f89d0010    ....    LDRB     r0,[sp,#0x10]
        0x00019260:    0781        ..      LSLS     r1,r0,#30
        0x00019262:    f1008177    ..w.    BMI.W    0x19554 ; am_hal_card_init + 2764
        0x00019266:    0641        A.      LSLS     r1,r0,#25
        0x00019268:    f100817d    ..}.    BMI.W    0x19566 ; am_hal_card_init + 2782
        0x0001926c:    b240        @.      SXTB     r0,r0
        0x0001926e:    f1b03fff    ...?    CMP      r0,#0xffffffff
        0x00019272:    f3408183    @...    BLE.W    0x1957c ; am_hal_card_init + 2804
        0x00019276:    466d        mF      MOV      r5,sp
        0x00019278:    f8db4278    ..xB    LDR      r4,[r11,#0x278]
        0x0001927c:    4628        (F      MOV      r0,r5
        0x0001927e:    2124        $!      MOVS     r1,#0x24
        0x00019280:    f7fff874    ..t.    BL       __aeabi_memclr4 ; 0x1836c
        0x00019284:    2034        4       MOVS     r0,#0x34
        0x00019286:    f88d0000    ....    STRB     r0,[sp,#0]
        0x0001928a:    2015        .       MOVS     r0,#0x15
        0x0001928c:    9002        ..      STR      r0,[sp,#8]
        0x0001928e:    f44f5010    O..P    MOV      r0,#0x2400
        0x00019292:    6ea1        .n      LDR      r1,[r4,#0x68]
        0x00019294:    9001        ..      STR      r0,[sp,#4]
        0x00019296:    68cb        .h      LDR      r3,[r1,#0xc]
        0x00019298:    6820         h      LDR      r0,[r4,#0]
        0x0001929a:    4629        )F      MOV      r1,r5
        0x0001929c:    2200        ."      MOVS     r2,#0
        0x0001929e:    4798        .G      BLX      r3
        0x000192a0:    f89d0020    .. .    LDRB     r0,[sp,#0x20]
        0x000192a4:    2800        .(      CMP      r0,#0
        0x000192a6:    d148        H.      BNE      0x1933a ; am_hal_card_init + 2226
        0x000192a8:    9804        ..      LDR      r0,[sp,#0x10]
        0x000192aa:    07c0        ..      LSLS     r0,r0,#31
        0x000192ac:    d005        ..      BEQ      0x192ba ; am_hal_card_init + 2098
        0x000192ae:    f89b027e    ..~.    LDRB     r0,[r11,#0x27e]
        0x000192b2:    f0400008    @...    ORR      r0,r0,#8
        0x000192b6:    f88b027e    ..~.    STRB     r0,[r11,#0x27e]
        0x000192ba:    466d        mF      MOV      r5,sp
        0x000192bc:    f8db4278    ..xB    LDR      r4,[r11,#0x278]
        0x000192c0:    4628        (F      MOV      r0,r5
        0x000192c2:    2124        $!      MOVS     r1,#0x24
        0x000192c4:    f7fff852    ..R.    BL       __aeabi_memclr4 ; 0x1836c
        0x000192c8:    2034        4       MOVS     r0,#0x34
        0x000192ca:    f88d0000    ....    STRB     r0,[sp,#0]
        0x000192ce:    2015        .       MOVS     r0,#0x15
        0x000192d0:    9002        ..      STR      r0,[sp,#8]
        0x000192d2:    f44f5018    O..P    MOV      r0,#0x2600
        0x000192d6:    6ea1        .n      LDR      r1,[r4,#0x68]
        0x000192d8:    9001        ..      STR      r0,[sp,#4]
        0x000192da:    68cb        .h      LDR      r3,[r1,#0xc]
        0x000192dc:    6820         h      LDR      r0,[r4,#0]
        0x000192de:    4629        )F      MOV      r1,r5
        0x000192e0:    2200        ."      MOVS     r2,#0
        0x000192e2:    4798        .G      BLX      r3
        0x000192e4:    f89d0020    .. .    LDRB     r0,[sp,#0x20]
        0x000192e8:    bb38        8.      CBNZ     r0,0x1933a ; am_hal_card_init + 2226
        0x000192ea:    9804        ..      LDR      r0,[sp,#0x10]
        0x000192ec:    07c0        ..      LSLS     r0,r0,#31
        0x000192ee:    d005        ..      BEQ      0x192fc ; am_hal_card_init + 2164
        0x000192f0:    f89b027e    ..~.    LDRB     r0,[r11,#0x27e]
        0x000192f4:    f0400010    @...    ORR      r0,r0,#0x10
        0x000192f8:    f88b027e    ..~.    STRB     r0,[r11,#0x27e]
        0x000192fc:    4658        XF      MOV      r0,r11
        0x000192fe:    f002fff9    ....    BL       am_hal_sdio_card_read_cis ; 0x1c2f4
        0x00019302:    b9d0        ..      CBNZ     r0,0x1933a ; am_hal_card_init + 2226
        0x00019304:    e00a        ..      B        0x1931c ; am_hal_card_init + 2196
        0x00019306:    bf00        ..      NOP      
        0x00019308:    2506        .%      MOVS     r5,#6
        0x0001930a:    2001        .       MOVS     r0,#1
        0x0001930c:    f88b5000    ...P    STRB     r5,[r11,#0]
        0x00019310:    f88b0266    ..f.    STRB     r0,[r11,#0x266]
        0x00019314:    1e68        h.      SUBS     r0,r5,#1
        0x00019316:    2806        .(      CMP      r0,#6
        0x00019318:    f67fabda    ....    BLS      0x18ad0 ; am_hal_card_init + 72
        0x0001931c:    2600        .&      MOVS     r6,#0
        0x0001931e:    4630        0F      MOV      r0,r6
        0x00019320:    b009        ..      ADD      sp,sp,#0x24
        0x00019322:    e8bd8ff0    ....    POP      {r4-r11,pc}
        0x00019326:    bf00        ..      NOP      
        0x00019328:    f3c77102    ...q    UBFX     r1,r7,#28,#3
        0x0001932c:    2800        .(      CMP      r0,#0
        0x0001932e:    f8cb7004    ...p    STR      r7,[r11,#4]
        0x00019332:    f8cb100c    ....    STR      r1,[r11,#0xc]
        0x00019336:    f43fada7    ?...    BEQ      0x18e88 ; am_hal_card_init + 1024
        0x0001933a:    2601        .&      MOVS     r6,#1
        0x0001933c:    4630        0F      MOV      r0,r6
        0x0001933e:    b009        ..      ADD      sp,sp,#0x24
        0x00019340:    e8bd8ff0    ....    POP      {r4-r11,pc}
        0x00019344:    f8db0008    ....    LDR      r0,[r11,#8]
        0x00019348:    2106        .!      MOVS     r1,#6
        0x0001934a:    2800        .(      CMP      r0,#0
        0x0001934c:    bf08        ..      IT       EQ
        0x0001934e:    2105        .!      MOVEQ    r1,#5
        0x00019350:    f8db0020    .. .    LDR      r0,[r11,#0x20]
        0x00019354:    2601        .&      MOVS     r6,#1
        0x00019356:    0f80        ..      LSRS     r0,r0,#30
        0x00019358:    f88b1001    ....    STRB     r1,[r11,#1]
        0x0001935c:    f8cb029c    ....    STR      r0,[r11,#0x29c]
        0x00019360:    d034        4.      BEQ      0x193cc ; am_hal_card_init + 2372
        0x00019362:    2801        .(      CMP      r0,#1
        0x00019364:    f47fad34    ..4.    BNE      0x18dd0 ; am_hal_card_init + 840
        0x00019368:    f8bb002a    ..*.    LDRH     r0,[r11,#0x2a]
        0x0001936c:    f8db1024    ..$.    LDR      r1,[r11,#0x24]
        0x00019370:    f44f6280    O..b    MOV      r2,#0x400
        0x00019374:    ea404001    @..@    ORR      r0,r0,r1,LSL #16
        0x00019378:    eb022280    ..."    ADD      r2,r2,r0,LSL #10
        0x0001937c:    f36f509f    o..P    BFC      r0,#22,#10
        0x00019380:    f8cb02a0    ....    STR      r0,[r11,#0x2a0]
        0x00019384:    f3c14003    ...@    UBFX     r0,r1,#16,#4
        0x00019388:    2101        .!      MOVS     r1,#1
        0x0001938a:    fa01f000    ....    LSL      r0,r1,r0
        0x0001938e:    f8cb025c    ..\.    STR      r0,[r11,#0x25c]
        0x00019392:    2005        .       MOVS     r0,#5
        0x00019394:    f8cb2244    ..D"    STR      r2,[r11,#0x244]
        0x00019398:    f1b26f80    ...o    CMP      r2,#0x4000000
        0x0001939c:    bf98        ..      IT       LS
        0x0001939e:    2004        .       MOVLS    r0,#4
        0x000193a0:    f88b0000    ....    STRB     r0,[r11,#0]
        0x000193a4:    e02f        /.      B        0x19406 ; am_hal_card_init + 2430
        0x000193a6:    bf00        ..      NOP      
        0x000193a8:    f8db0008    ....    LDR      r0,[r11,#8]
        0x000193ac:    2106        .!      MOVS     r1,#6
        0x000193ae:    2800        .(      CMP      r0,#0
        0x000193b0:    4658        XF      MOV      r0,r11
        0x000193b2:    bf08        ..      IT       EQ
        0x000193b4:    2105        .!      MOVEQ    r1,#5
        0x000193b6:    f88b1001    ....    STRB     r1,[r11,#1]
        0x000193ba:    f003fab9    ....    BL       am_hal_sdmmc_cmd8_send_ext_csd ; 0x1c930
        0x000193be:    b3c8        ..      CBZ      r0,0x19434 ; am_hal_card_init + 2476
        0x000193c0:    2601        .&      MOVS     r6,#1
        0x000193c2:    4630        0F      MOV      r0,r6
        0x000193c4:    b009        ..      ADD      sp,sp,#0x24
        0x000193c6:    e8bd8ff0    ....    POP      {r4-r11,pc}
        0x000193ca:    bf00        ..      NOP      
        0x000193cc:    2003        .       MOVS     r0,#3
        0x000193ce:    f88b0000    ....    STRB     r0,[r11,#0]
        0x000193d2:    e9db1009    ....    LDRD     r1,r0,[r11,#0x24]
        0x000193d6:    008b        ..      LSLS     r3,r1,#2
        0x000193d8:    f3c032c2    ...2    UBFX     r2,r0,#15,#3
        0x000193dc:    ea437090    C..p    ORR      r0,r3,r0,LSR #30
        0x000193e0:    f36f301f    o..0    BFC      r0,#12,#20
        0x000193e4:    e9cb02a8    ....    STRD     r0,r2,[r11,#0x2a0]
        0x000193e8:    3202        .2      ADDS     r2,#2
        0x000193ea:    3001        .0      ADDS     r0,#1
        0x000193ec:    f3c14103    ...A    UBFX     r1,r1,#16,#4
        0x000193f0:    4090        .@      LSLS     r0,r0,r2
        0x000193f2:    4088        .@      LSLS     r0,r0,r1
        0x000193f4:    fa06f301    ....    LSL      r3,r6,r1
        0x000193f8:    0a40        @.      LSRS     r0,r0,#9
        0x000193fa:    f8cb12a8    ....    STR      r1,[r11,#0x2a8]
        0x000193fe:    f8cb0244    ..D.    STR      r0,[r11,#0x244]
        0x00019402:    f8cb325c    ..\2    STR      r3,[r11,#0x25c]
        0x00019406:    f8db0278    ..x.    LDR      r0,[r11,#0x278]
        0x0001940a:    2800        .(      CMP      r0,#0
        0x0001940c:    d086        ..      BEQ      0x1931c ; am_hal_card_init + 2196
        0x0001940e:    f8db0234    ..4.    LDR      r0,[r11,#0x234]
        0x00019412:    2800        .(      CMP      r0,#0
        0x00019414:    f43faf82    ?...    BEQ.W    0x1931c ; am_hal_card_init + 2196
        0x00019418:    f2401100    @...    MOVW     r1,#0x100
        0x0001941c:    f2c03121    ..!1    MOVT     r1,#0x321
        0x00019420:    4658        XF      MOV      r0,r11
        0x00019422:    f44f72fa    O..r    MOV      r2,#0x1f4
        0x00019426:    f000f8b1    ....    BL       am_hal_card_mode_switch ; 0x1958c
        0x0001942a:    2600        .&      MOVS     r6,#0
        0x0001942c:    4630        0F      MOV      r0,r6
        0x0001942e:    b009        ..      ADD      sp,sp,#0x24
        0x00019430:    e8bd8ff0    ....    POP      {r4-r11,pc}
        0x00019434:    e9db0109    ....    LDRD     r0,r1,[r11,#0x24]
        0x00019438:    0082        ..      LSLS     r2,r0,#2
        0x0001943a:    ea427191    B..q    ORR      r1,r2,r1,LSR #30
        0x0001943e:    f36f311f    o..1    BFC      r1,#12,#20
        0x00019442:    f64072ff    @..r    MOV      r2,#0xfff
        0x00019446:    4291        .B      CMP      r1,r2
        0x00019448:    f6a171ff    ...q    SUB      r1,r1,#0xfff
        0x0001944c:    fab1f181    ....    CLZ      r1,r1
        0x00019450:    ea4f1151    O.Q.    LSR      r1,r1,#5
        0x00019454:    f88b1233    ..3.    STRB     r1,[r11,#0x233]
        0x00019458:    d155        U.      BNE      0x19506 ; am_hal_card_init + 2686
        0x0001945a:    f89b306e    ..n0    LDRB     r3,[r11,#0x6e]
        0x0001945e:    f89b106d    ..m.    LDRB     r1,[r11,#0x6d]
        0x00019462:    fab3f383    ....    CLZ      r3,r3
        0x00019466:    2900        .)      CMP      r1,#0
        0x00019468:    f44f5180    O..Q    MOV      r1,#0x1000
        0x0001946c:    ea4f1353    O.S.    LSR      r3,r3,#5
        0x00019470:    bf08        ..      IT       EQ
        0x00019472:    f44f7100    O..q    MOVEQ    r1,#0x200
        0x00019476:    f88b3254    ..T2    STRB     r3,[r11,#0x254]
        0x0001947a:    f89b306f    ..o0    LDRB     r3,[r11,#0x6f]
        0x0001947e:    f44f5280    O..R    MOV      r2,#0x1000
        0x00019482:    f8cb125c    ..\.    STR      r1,[r11,#0x25c]
        0x00019486:    2b00        .+      CMP      r3,#0
        0x00019488:    bf08        ..      IT       EQ
        0x0001948a:    f44f7200    O..r    MOVEQ    r2,#0x200
        0x0001948e:    f8cb2258    ..X"    STR      r2,[r11,#0x258]
        0x00019492:    f8db2020    ..      LDR      r2,[r11,#0x20]
        0x00019496:    0d00        ..      LSRS     r0,r0,#20
        0x00019498:    f8ab0264    ..d.    STRH     r0,[r11,#0x264]
        0x0001949c:    f3c26083    ...`    UBFX     r0,r2,#26,#4
        0x000194a0:    f89b20d8    ...     LDRB     r2,[r11,#0xd8]
        0x000194a4:    f88b0230    ..0.    STRB     r0,[r11,#0x230]
        0x000194a8:    f8cb2260    ..`"    STR      r2,[r11,#0x260]
        0x000194ac:    f89b20f4    ...     LDRB     r2,[r11,#0xf4]
        0x000194b0:    f89b00f0    ....    LDRB     r0,[r11,#0xf0]
        0x000194b4:    f88b224d    ..M"    STRB     r2,[r11,#0x24d]
        0x000194b8:    f8db2129    ..)!    LDR      r2,[r11,#0x129]
        0x000194bc:    f8db3104    ...1    LDR      r3,[r11,#0x104]
        0x000194c0:    f8cb2234    ..4"    STR      r2,[r11,#0x234]
        0x000194c4:    f89b2117    ...!    LDRB     r2,[r11,#0x117]
        0x000194c8:    4359        YC      MULS     r1,r3,r1
        0x000194ca:    f88b224c    ..L"    STRB     r2,[r11,#0x24c]
        0x000194ce:    f44f72fa    O..r    MOV      r2,#0x1f4
        0x000194d2:    2806        .(      CMP      r0,#6
        0x000194d4:    f88b0231    ..1.    STRB     r0,[r11,#0x231]
        0x000194d8:    e9cb2390    ...#    STRD     r2,r3,[r11,#0x240]
        0x000194dc:    f8cb1248    ..H.    STR      r1,[r11,#0x248]
        0x000194e0:    d311        ..      BCC      0x19506 ; am_hal_card_init + 2686
        0x000194e2:    f89b0108    ....    LDRB     r0,[r11,#0x108]
        0x000194e6:    f89b1127    ..'.    LDRB     r1,[r11,#0x127]
        0x000194ea:    f89b2128    ..(!    LDRB     r2,[r11,#0x128]
        0x000194ee:    eb000080    ....    ADD      r0,r0,r0,LSL #2
        0x000194f2:    0040        @.      LSLS     r0,r0,#1
        0x000194f4:    eb010181    ....    ADD      r1,r1,r1,LSL #2
        0x000194f8:    eb020282    ....    ADD      r2,r2,r2,LSL #2
        0x000194fc:    f50b730e    ...s    ADD      r3,r11,#0x238
        0x00019500:    0049        I.      LSLS     r1,r1,#1
        0x00019502:    0052        R.      LSLS     r2,r2,#1
        0x00019504:    c307        ..      STM      r3!,{r0-r2}
        0x00019506:    f8db0278    ..x.    LDR      r0,[r11,#0x278]
        0x0001950a:    b188        ..      CBZ      r0,0x19530 ; am_hal_card_init + 2728
        0x0001950c:    f8db0234    ..4.    LDR      r0,[r11,#0x234]
        0x00019510:    b170        p.      CBZ      r0,0x19530 ; am_hal_card_init + 2728
        0x00019512:    f2401100    @...    MOVW     r1,#0x100
        0x00019516:    f2c03121    ..!1    MOVT     r1,#0x321
        0x0001951a:    4658        XF      MOV      r0,r11
        0x0001951c:    f44f72fa    O..r    MOV      r2,#0x1f4
        0x00019520:    f000f834    ..4.    BL       am_hal_card_mode_switch ; 0x1958c
        0x00019524:    b920         .      CBNZ     r0,0x19530 ; am_hal_card_init + 2728
        0x00019526:    4658        XF      MOV      r0,r11
        0x00019528:    2121        !!      MOVS     r1,#0x21
        0x0001952a:    2201        ."      MOVS     r2,#1
        0x0001952c:    f7fff9e8    ....    BL       am_hal_card_get_ext_csd_field ; 0x18900
        0x00019530:    2000        .       MOVS     r0,#0
        0x00019532:    f88b0232    ..2.    STRB     r0,[r11,#0x232]
        0x00019536:    4658        XF      MOV      r0,r11
        0x00019538:    2101        .!      MOVS     r1,#1
        0x0001953a:    2401        .$      MOVS     r4,#1
        0x0001953c:    f000f8a2    ....    BL       am_hal_card_pwr_notification ; 0x19684
        0x00019540:    2800        .(      CMP      r0,#0
        0x00019542:    f47faeeb    ....    BNE      0x1931c ; am_hal_card_init + 2196
        0x00019546:    f88b4232    ..2B    STRB     r4,[r11,#0x232]
        0x0001954a:    2600        .&      MOVS     r6,#0
        0x0001954c:    4630        0F      MOV      r0,r6
        0x0001954e:    b009        ..      ADD      sp,sp,#0x24
        0x00019550:    e8bd8ff0    ....    POP      {r4-r11,pc}
        0x00019554:    f89b127e    ..~.    LDRB     r1,[r11,#0x27e]
        0x00019558:    f0410101    A...    ORR      r1,r1,#1
        0x0001955c:    f88b127e    ..~.    STRB     r1,[r11,#0x27e]
        0x00019560:    0641        A.      LSLS     r1,r0,#25
        0x00019562:    f57fae83    ....    BPL      0x1926c ; am_hal_card_init + 2020
        0x00019566:    f89b127e    ..~.    LDRB     r1,[r11,#0x27e]
        0x0001956a:    f0410102    A...    ORR      r1,r1,#2
        0x0001956e:    f88b127e    ..~.    STRB     r1,[r11,#0x27e]
        0x00019572:    b240        @.      SXTB     r0,r0
        0x00019574:    f1b03fff    ...?    CMP      r0,#0xffffffff
        0x00019578:    f73fae7d    ?.}.    BGT      0x19276 ; am_hal_card_init + 2030
        0x0001957c:    f89b027e    ..~.    LDRB     r0,[r11,#0x27e]
        0x00019580:    f0400004    @...    ORR      r0,r0,#4
        0x00019584:    f88b027e    ..~.    STRB     r0,[r11,#0x27e]
        0x00019588:    e675        u.      B        0x19276 ; am_hal_card_init + 2030
        0x0001958a:    0000        ..      MOVS     r0,r0
    am_hal_card_mode_switch
        0x0001958c:    e92d47f0    -..G    PUSH     {r4-r10,lr}
        0x00019590:    b092        ..      SUB      sp,sp,#0x48
        0x00019592:    b348        H.      CBZ      r0,0x195e8 ; am_hal_card_mode_switch + 92
        0x00019594:    f8d07278    ..xr    LDR      r7,[r0,#0x278]
        0x00019598:    4604        .F      MOV      r4,r0
        0x0001959a:    b32f        /.      CBZ      r7,0x195e8 ; am_hal_card_mode_switch + 92
        0x0001959c:    7860        `x      LDRB     r0,[r4,#1]
        0x0001959e:    2806        .(      CMP      r0,#6
        0x000195a0:    d126        &.      BNE      0x195f0 ; am_hal_card_mode_switch + 100
        0x000195a2:    460e        .F      MOV      r6,r1
        0x000195a4:    4668        hF      MOV      r0,sp
        0x000195a6:    2124        $!      MOVS     r1,#0x24
        0x000195a8:    4615        .F      MOV      r5,r2
        0x000195aa:    f7fefedf    ....    BL       __aeabi_memclr4 ; 0x1836c
        0x000195ae:    2006        .       MOVS     r0,#6
        0x000195b0:    f88d0000    ....    STRB     r0,[sp,#0]
        0x000195b4:    78a0        .x      LDRB     r0,[r4,#2]
        0x000195b6:    7821        !x      LDRB     r1,[r4,#0]
        0x000195b8:    f00000fb    ....    AND      r0,r0,#0xfb
        0x000195bc:    3901        .9      SUBS     r1,#1
        0x000195be:    9601        ..      STR      r6,[sp,#4]
        0x000195c0:    2901        .)      CMP      r1,#1
        0x000195c2:    70a0        .p      STRB     r0,[r4,#2]
        0x000195c4:    bf8f        ..      ITEEE    HI
        0x000195c6:    2015        .       MOVHI    r0,#0x15
        0x000195c8:    2001        .       MOVLS    r0,#1
        0x000195ca:    f88d000c    ....    STRBLS   r0,[sp,#0xc]
        0x000195ce:    201d        .       MOVLS    r0,#0x1d
        0x000195d0:    6eb9        .n      LDR      r1,[r7,#0x68]
        0x000195d2:    9002        ..      STR      r0,[sp,#8]
        0x000195d4:    68cb        .h      LDR      r3,[r1,#0xc]
        0x000195d6:    6838        8h      LDR      r0,[r7,#0]
        0x000195d8:    4669        iF      MOV      r1,sp
        0x000195da:    2200        ."      MOVS     r2,#0
        0x000195dc:    4798        .G      BLX      r3
        0x000195de:    b158        X.      CBZ      r0,0x195f8 ; am_hal_card_mode_switch + 108
        0x000195e0:    b012        ..      ADD      sp,sp,#0x48
        0x000195e2:    e8bd87f0    ....    POP      {r4-r10,pc}
        0x000195e6:    bf00        ..      NOP      
        0x000195e8:    2006        .       MOVS     r0,#6
        0x000195ea:    b012        ..      ADD      sp,sp,#0x48
        0x000195ec:    e8bd87f0    ....    POP      {r4-r10,pc}
        0x000195f0:    2007        .       MOVS     r0,#7
        0x000195f2:    b012        ..      ADD      sp,sp,#0x48
        0x000195f4:    e8bd87f0    ....    POP      {r4-r10,pc}
        0x000195f8:    7820         x      LDRB     r0,[r4,#0]
        0x000195fa:    3801        .8      SUBS     r0,#1
        0x000195fc:    2801        .(      CMP      r0,#1
        0x000195fe:    d806        ..      BHI      0x1960e ; am_hal_card_mode_switch + 130
        0x00019600:    6eb9        .n      LDR      r1,[r7,#0x68]
        0x00019602:    6838        8h      LDR      r0,[r7,#0]
        0x00019604:    6aca        .j      LDR      r2,[r1,#0x2c]
        0x00019606:    2114        .!      MOVS     r1,#0x14
        0x00019608:    4790        .G      BLX      r2
        0x0001960a:    2800        .(      CMP      r0,#0
        0x0001960c:    d1e8        ..      BNE      0x195e0 ; am_hal_card_mode_switch + 84
        0x0001960e:    1c6e        n.      ADDS     r6,r5,#1
        0x00019610:    2700        .'      MOVS     r7,#0
        0x00019612:    f10d0a24    ..$.    ADD      r10,sp,#0x24
        0x00019616:    f04f080d    O...    MOV      r8,#0xd
        0x0001961a:    f04f0915    O...    MOV      r9,#0x15
        0x0001961e:    e006        ..      B        0x1962e ; am_hal_card_mode_switch + 162
        0x00019620:    b318        ..      CBZ      r0,0x1966a ; am_hal_card_mode_switch + 222
        0x00019622:    bf00        ..      NOP      
        0x00019624:    2001        .       MOVS     r0,#1
        0x00019626:    f003fa37    ..7.    BL       am_util_delay_ms ; 0x1ca98
        0x0001962a:    3e01        .>      SUBS     r6,#1
        0x0001962c:    d021        !.      BEQ      0x19672 ; am_hal_card_mode_switch + 230
        0x0001962e:    f8d45278    ..xR    LDR      r5,[r4,#0x278]
        0x00019632:    2d00        .-      CMP      r5,#0
        0x00019634:    d0f6        ..      BEQ      0x19624 ; am_hal_card_mode_switch + 152
        0x00019636:    7860        `x      LDRB     r0,[r4,#1]
        0x00019638:    2805        .(      CMP      r0,#5
        0x0001963a:    d3f3        ..      BCC      0x19624 ; am_hal_card_mode_switch + 152
        0x0001963c:    4650        PF      MOV      r0,r10
        0x0001963e:    2124        $!      MOVS     r1,#0x24
        0x00019640:    f7fefe94    ....    BL       __aeabi_memclr4 ; 0x1836c
        0x00019644:    68a0        .h      LDR      r0,[r4,#8]
        0x00019646:    6ea9        .n      LDR      r1,[r5,#0x68]
        0x00019648:    0400        ..      LSLS     r0,r0,#16
        0x0001964a:    f88d8024    ..$.    STRB     r8,[sp,#0x24]
        0x0001964e:    e9cd090a    ....    STRD     r0,r9,[sp,#0x28]
        0x00019652:    6828        (h      LDR      r0,[r5,#0]
        0x00019654:    68cb        .h      LDR      r3,[r1,#0xc]
        0x00019656:    4651        QF      MOV      r1,r10
        0x00019658:    2200        ."      MOVS     r2,#0
        0x0001965a:    4798        .G      BLX      r3
        0x0001965c:    2800        .(      CMP      r0,#0
        0x0001965e:    d1df        ..      BNE      0x19620 ; am_hal_card_mode_switch + 148
        0x00019660:    f89d1044    ..D.    LDRB     r1,[sp,#0x44]
        0x00019664:    2900        .)      CMP      r1,#0
        0x00019666:    d1db        ..      BNE      0x19620 ; am_hal_card_mode_switch + 148
        0x00019668:    9f0d        ..      LDR      r7,[sp,#0x34]
        0x0001966a:    0638        8.      LSLS     r0,r7,#24
        0x0001966c:    d406        ..      BMI      0x1967c ; am_hal_card_mode_switch + 240
        0x0001966e:    05f8        ..      LSLS     r0,r7,#23
        0x00019670:    d5d8        ..      BPL      0x19624 ; am_hal_card_mode_switch + 152
        0x00019672:    2000        .       MOVS     r0,#0
        0x00019674:    b012        ..      ADD      sp,sp,#0x48
        0x00019676:    e8bd87f0    ....    POP      {r4-r10,pc}
        0x0001967a:    bf00        ..      NOP      
        0x0001967c:    2001        .       MOVS     r0,#1
        0x0001967e:    b012        ..      ADD      sp,sp,#0x48
        0x00019680:    e8bd87f0    ....    POP      {r4-r10,pc}
    am_hal_card_pwr_notification
        0x00019684:    b5b0        ..      PUSH     {r4,r5,r7,lr}
        0x00019686:    4604        .F      MOV      r4,r0
        0x00019688:    f8d00278    ..x.    LDR      r0,[r0,#0x278]
        0x0001968c:    b190        ..      CBZ      r0,0x196b4 ; am_hal_card_pwr_notification + 48
        0x0001968e:    f8940231    ..1.    LDRB     r0,[r4,#0x231]
        0x00019692:    2806        .(      CMP      r0,#6
        0x00019694:    bf3c        <.      ITT      CC
        0x00019696:    2007        .       MOVCC    r0,#7
        0x00019698:    bdb0        ..      POPCC    {r4,r5,r7,pc}
        0x0001969a:    460d        .F      MOV      r5,r1
        0x0001969c:    2901        .)      CMP      r1,#1
        0x0001969e:    d00b        ..      BEQ      0x196b8 ; am_hal_card_pwr_notification + 52
        0x000196a0:    2d04        .-      CMP      r5,#4
        0x000196a2:    d00d        ..      BEQ      0x196c0 ; am_hal_card_pwr_notification + 60
        0x000196a4:    2d03        .-      CMP      r5,#3
        0x000196a6:    bf1c        ..      ITT      NE
        0x000196a8:    2006        .       MOVNE    r0,#6
        0x000196aa:    bdb0        ..      POPNE    {r4,r5,r7,pc}
        0x000196ac:    f504700f    ...p    ADD      r0,r4,#0x23c
        0x000196b0:    e008        ..      B        0x196c4 ; am_hal_card_pwr_notification + 64
        0x000196b2:    bf00        ..      NOP      
        0x000196b4:    2006        .       MOVS     r0,#6
        0x000196b6:    bdb0        ..      POP      {r4,r5,r7,pc}
        0x000196b8:    f44f72fa    O..r    MOV      r2,#0x1f4
        0x000196bc:    e003        ..      B        0x196c6 ; am_hal_card_pwr_notification + 66
        0x000196be:    bf00        ..      NOP      
        0x000196c0:    f504700e    ...p    ADD      r0,r4,#0x238
        0x000196c4:    6802        .h      LDR      r2,[r0,#0]
        0x000196c6:    2000        .       MOVS     r0,#0
        0x000196c8:    f2c03022    .."0    MOVT     r0,#0x322
        0x000196cc:    ea402105    @..!    ORR      r1,r0,r5,LSL #8
        0x000196d0:    4620         F      MOV      r0,r4
        0x000196d2:    f7ffff5b    ..[.    BL       am_hal_card_mode_switch ; 0x1958c
        0x000196d6:    2800        .(      CMP      r0,#0
        0x000196d8:    bf12        ..      ITEE     NE
        0x000196da:    2001        .       MOVNE    r0,#1
        0x000196dc:    f8845232    ..2R    STRBEQ   r5,[r4,#0x232]
        0x000196e0:    2000        .       MOVEQ    r0,#0
        0x000196e2:    bdb0        ..      POP      {r4,r5,r7,pc}
    am_hal_card_set_bus_width
        0x000196e4:    b5b0        ..      PUSH     {r4,r5,r7,lr}
        0x000196e6:    f8d05278    ..xR    LDR      r5,[r0,#0x278]
        0x000196ea:    b19d        ..      CBZ      r5,0x19714 ; am_hal_card_set_bus_width + 48
        0x000196ec:    460c        .F      MOV      r4,r1
        0x000196ee:    7ae9        .z      LDRB     r1,[r5,#0xb]
        0x000196f0:    42a1        .B      CMP      r1,r4
        0x000196f2:    d104        ..      BNE      0x196fe ; am_hal_card_set_bus_width + 26
        0x000196f4:    7b69        i{      LDRB     r1,[r5,#0xd]
        0x000196f6:    f8902276    ..v"    LDRB     r2,[r0,#0x276]
        0x000196fa:    4291        .B      CMP      r1,r2
        0x000196fc:    d033        3.      BEQ      0x19766 ; am_hal_card_set_bus_width + 130
        0x000196fe:    2c08        .,      CMP      r4,#8
        0x00019700:    d00a        ..      BEQ      0x19718 ; am_hal_card_set_bus_width + 52
        0x00019702:    2c04        .,      CMP      r4,#4
        0x00019704:    d014        ..      BEQ      0x19730 ; am_hal_card_set_bus_width + 76
        0x00019706:    2c01        .,      CMP      r4,#1
        0x00019708:    bf12        ..      ITEE     NE
        0x0001970a:    2100        .!      MOVNE    r1,#0
        0x0001970c:    2100        .!      MOVEQ    r1,#0
        0x0001970e:    f2c031b7    ...1    MOVTEQ   r1,#0x3b7
        0x00019712:    e018        ..      B        0x19746 ; am_hal_card_set_bus_width + 98
        0x00019714:    2006        .       MOVS     r0,#6
        0x00019716:    bdb0        ..      POP      {r4,r5,r7,pc}
        0x00019718:    2300        .#      MOVS     r3,#0
        0x0001971a:    f8902276    ..v"    LDRB     r2,[r0,#0x276]
        0x0001971e:    f2c033b7    ...3    MOVT     r3,#0x3b7
        0x00019722:    f5037100    ...q    ADD      r1,r3,#0x200
        0x00019726:    2a04        .*      CMP      r2,#4
        0x00019728:    bf08        ..      IT       EQ
        0x0001972a:    f50361c0    ...a    ADDEQ    r1,r3,#0x600
        0x0001972e:    e00a        ..      B        0x19746 ; am_hal_card_set_bus_width + 98
        0x00019730:    2300        .#      MOVS     r3,#0
        0x00019732:    f8902276    ..v"    LDRB     r2,[r0,#0x276]
        0x00019736:    f2c033b7    ...3    MOVT     r3,#0x3b7
        0x0001973a:    f5037180    ...q    ADD      r1,r3,#0x100
        0x0001973e:    2a04        .*      CMP      r2,#4
        0x00019740:    bf08        ..      IT       EQ
        0x00019742:    f50361a0    ...a    ADDEQ    r1,r3,#0x500
        0x00019746:    f44f72fa    O..r    MOV      r2,#0x1f4
        0x0001974a:    f7ffff1f    ....    BL       am_hal_card_mode_switch ; 0x1958c
        0x0001974e:    2800        .(      CMP      r0,#0
        0x00019750:    bf18        ..      IT       NE
        0x00019752:    bdb0        ..      POPNE    {r4,r5,r7,pc}
        0x00019754:    6ea9        .n      LDR      r1,[r5,#0x68]
        0x00019756:    6828        (h      LDR      r0,[r5,#0]
        0x00019758:    694a        Ji      LDR      r2,[r1,#0x14]
        0x0001975a:    4621        !F      MOV      r1,r4
        0x0001975c:    4790        .G      BLX      r2
        0x0001975e:    2800        .(      CMP      r0,#0
        0x00019760:    bf1c        ..      ITT      NE
        0x00019762:    2001        .       MOVNE    r0,#1
        0x00019764:    bdb0        ..      POPNE    {r4,r5,r7,pc}
        0x00019766:    2000        .       MOVS     r0,#0
        0x00019768:    bdb0        ..      POP      {r4,r5,r7,pc}
        0x0001976a:    0000        ..      MOVS     r0,r0
    am_hal_card_set_speed
        0x0001976c:    e92d47f0    -..G    PUSH     {r4-r10,lr}
        0x00019770:    b090        ..      SUB      sp,sp,#0x40
        0x00019772:    f8d07278    ..xr    LDR      r7,[r0,#0x278]
        0x00019776:    b37f        ..      CBZ      r7,0x197d8 ; am_hal_card_set_speed + 108
        0x00019778:    4605        .F      MOV      r5,r0
        0x0001977a:    f8900276    ..v.    LDRB     r0,[r0,#0x276]
        0x0001977e:    460c        .F      MOV      r4,r1
        0x00019780:    f24931ff    I..1    MOV      r1,#0x93ff
        0x00019784:    f6cf5123    ..#Q    MOVT     r1,#0xfd23
        0x00019788:    2803        .(      CMP      r0,#3
        0x0001978a:    f6464000    F..@    MOVW     r0,#0x6c00
        0x0001978e:    4421        !D      ADD      r1,r1,r4
        0x00019790:    f04f0601    O...    MOV      r6,#1
        0x00019794:    f2c020dc    ...     MOVT     r0,#0x2dc
        0x00019798:    bf08        ..      IT       EQ
        0x0001979a:    2602        .&      MOVEQ    r6,#2
        0x0001979c:    4281        .B      CMP      r1,r0
        0x0001979e:    f64b2080    K..     MOV      r0,#0xba80
        0x000197a2:    f2c0108c    ....    MOVT     r0,#0x18c
        0x000197a6:    f04f0201    O...    MOV      r2,#1
        0x000197aa:    bf28        (.      IT       CS
        0x000197ac:    4616        .F      MOVCS    r6,r2
        0x000197ae:    4284        .B      CMP      r4,r0
        0x000197b0:    d307        ..      BCC      0x197c2 ; am_hal_card_set_speed + 86
        0x000197b2:    f8950230    ..0.    LDRB     r0,[r5,#0x230]
        0x000197b6:    2804        .(      CMP      r0,#4
        0x000197b8:    d303        ..      BCC      0x197c2 ; am_hal_card_set_speed + 86
        0x000197ba:    f89500e9    ....    LDRB     r0,[r5,#0xe9]
        0x000197be:    4286        .B      CMP      r6,r0
        0x000197c0:    d10e        ..      BNE      0x197e0 ; am_hal_card_set_speed + 116
        0x000197c2:    6eb9        .n      LDR      r1,[r7,#0x68]
        0x000197c4:    6838        8h      LDR      r0,[r7,#0]
        0x000197c6:    698a        .i      LDR      r2,[r1,#0x18]
        0x000197c8:    4621        !F      MOV      r1,r4
        0x000197ca:    4790        .G      BLX      r2
        0x000197cc:    2800        .(      CMP      r0,#0
        0x000197ce:    bf18        ..      IT       NE
        0x000197d0:    2001        .       MOVNE    r0,#1
        0x000197d2:    b010        ..      ADD      sp,sp,#0x40
        0x000197d4:    e8bd87f0    ....    POP      {r4-r10,pc}
        0x000197d8:    2006        .       MOVS     r0,#6
        0x000197da:    b010        ..      ADD      sp,sp,#0x40
        0x000197dc:    e8bd87f0    ....    POP      {r4-r10,pc}
        0x000197e0:    2000        .       MOVS     r0,#0
        0x000197e2:    f2c030b9    ...0    MOVT     r0,#0x3b9
        0x000197e6:    ea402106    @..!    ORR      r1,r0,r6,LSL #8
        0x000197ea:    4628        (F      MOV      r0,r5
        0x000197ec:    f44f72fa    O..r    MOV      r2,#0x1f4
        0x000197f0:    f7fffecc    ....    BL       am_hal_card_mode_switch ; 0x1958c
        0x000197f4:    2800        .(      CMP      r0,#0
        0x000197f6:    d1ec        ..      BNE      0x197d2 ; am_hal_card_set_speed + 102
        0x000197f8:    f10d081c    ....    ADD      r8,sp,#0x1c
        0x000197fc:    f8d59278    ..x.    LDR      r9,[r5,#0x278]
        0x00019800:    4640        @F      MOV      r0,r8
        0x00019802:    2124        $!      MOVS     r1,#0x24
        0x00019804:    f1050a30    ..0.    ADD      r10,r5,#0x30
        0x00019808:    f7fefdb0    ....    BL       __aeabi_memclr4 ; 0x1836c
        0x0001980c:    2000        .       MOVS     r0,#0
        0x0001980e:    68a9        .h      LDR      r1,[r5,#8]
        0x00019810:    e9cd0002    ....    STRD     r0,r0,[sp,#8]
        0x00019814:    9006        ..      STR      r0,[sp,#0x18]
        0x00019816:    e9cd0004    ....    STRD     r0,r0,[sp,#0x10]
        0x0001981a:    e9cd0000    ....    STRD     r0,r0,[sp,#0]
        0x0001981e:    2008        .       MOVS     r0,#8
        0x00019820:    f88d001c    ....    STRB     r0,[sp,#0x1c]
        0x00019824:    0408        ..      LSLS     r0,r1,#16
        0x00019826:    9008        ..      STR      r0,[sp,#0x20]
        0x00019828:    2015        .       MOVS     r0,#0x15
        0x0001982a:    9009        ..      STR      r0,[sp,#0x24]
        0x0001982c:    2001        .       MOVS     r0,#1
        0x0001982e:    9003        ..      STR      r0,[sp,#0xc]
        0x00019830:    f44f7000    O..p    MOV      r0,#0x200
        0x00019834:    f8d91068    ..h.    LDR      r1,[r9,#0x68]
        0x00019838:    f8cda004    ....    STR      r10,[sp,#4]
        0x0001983c:    9002        ..      STR      r0,[sp,#8]
        0x0001983e:    68cb        .h      LDR      r3,[r1,#0xc]
        0x00019840:    f8d90000    ....    LDR      r0,[r9,#0]
        0x00019844:    466a        jF      MOV      r2,sp
        0x00019846:    4641        AF      MOV      r1,r8
        0x00019848:    4798        .G      BLX      r3
        0x0001984a:    f89d003c    ..<.    LDRB     r0,[sp,#0x3c]
        0x0001984e:    b938        8.      CBNZ     r0,0x19860 ; am_hal_card_set_speed + 244
        0x00019850:    78a8        .x      LDRB     r0,[r5,#2]
        0x00019852:    f89510e9    ....    LDRB     r1,[r5,#0xe9]
        0x00019856:    f0400004    @...    ORR      r0,r0,#4
        0x0001985a:    428e        .B      CMP      r6,r1
        0x0001985c:    70a8        .p      STRB     r0,[r5,#2]
        0x0001985e:    d0b0        ..      BEQ      0x197c2 ; am_hal_card_set_speed + 86
        0x00019860:    2001        .       MOVS     r0,#1
        0x00019862:    b010        ..      ADD      sp,sp,#0x40
        0x00019864:    e8bd87f0    ....    POP      {r4-r10,pc}
    am_hal_card_set_uhs_mode
        0x00019868:    f8d02278    ..x"    LDR      r2,[r0,#0x278]
        0x0001986c:    2a00        .*      CMP      r2,#0
        0x0001986e:    bf04        ..      ITT      EQ
        0x00019870:    2006        .       MOVEQ    r0,#6
        0x00019872:    4770        pG      BXEQ     lr
        0x00019874:    7b53        S{      LDRB     r3,[r2,#0xd]
        0x00019876:    428b        .B      CMP      r3,r1
        0x00019878:    bf04        ..      ITT      EQ
        0x0001987a:    2000        .       MOVEQ    r0,#0
        0x0001987c:    4770        pG      BXEQ     lr
        0x0001987e:    2904        .)      CMP      r1,#4
        0x00019880:    d10e        ..      BNE      0x198a0 ; am_hal_card_set_uhs_mode + 56
        0x00019882:    7801        .x      LDRB     r1,[r0,#0]
        0x00019884:    3901        .9      SUBS     r1,#1
        0x00019886:    b2c9        ..      UXTB     r1,r1
        0x00019888:    2904        .)      CMP      r1,#4
        0x0001988a:    d80f        ..      BHI      0x198ac ; am_hal_card_set_uhs_mode + 68
        0x0001988c:    2901        .)      CMP      r1,#1
        0x0001988e:    d813        ..      BHI      0x198b8 ; am_hal_card_set_uhs_mode + 80
        0x00019890:    f890024d    ..M.    LDRB     r0,[r0,#0x24d]
        0x00019894:    0740        @.      LSLS     r0,r0,#29
        0x00019896:    bf5c        \.      ITT      PL
        0x00019898:    2001        .       MOVPL    r0,#1
        0x0001989a:    4770        pG      BXPL     lr
        0x0001989c:    e012        ..      B        0x198c4 ; am_hal_card_set_uhs_mode + 92
        0x0001989e:    bf00        ..      NOP      
        0x000198a0:    6e90        .n      LDR      r0,[r2,#0x68]
        0x000198a2:    69c3        .i      LDR      r3,[r0,#0x1c]
        0x000198a4:    b12b        +.      CBZ      r3,0x198b2 ; am_hal_card_set_uhs_mode + 74
        0x000198a6:    6810        .h      LDR      r0,[r2,#0]
        0x000198a8:    2100        .!      MOVS     r1,#0
        0x000198aa:    4718        .G      BX       r3
        0x000198ac:    6e90        .n      LDR      r0,[r2,#0x68]
        0x000198ae:    69c3        .i      LDR      r3,[r0,#0x1c]
        0x000198b0:    b973        s.      CBNZ     r3,0x198d0 ; am_hal_card_set_uhs_mode + 104
        0x000198b2:    2000        .       MOVS     r0,#0
        0x000198b4:    4770        pG      BX       lr
        0x000198b6:    bf00        ..      NOP      
        0x000198b8:    f8900299    ....    LDRB     r0,[r0,#0x299]
        0x000198bc:    2800        .(      CMP      r0,#0
        0x000198be:    bf04        ..      ITT      EQ
        0x000198c0:    2001        .       MOVEQ    r0,#1
        0x000198c2:    4770        pG      BXEQ     lr
        0x000198c4:    6e90        .n      LDR      r0,[r2,#0x68]
        0x000198c6:    69c3        .i      LDR      r3,[r0,#0x1c]
        0x000198c8:    2b00        .+      CMP      r3,#0
        0x000198ca:    bf04        ..      ITT      EQ
        0x000198cc:    2000        .       MOVEQ    r0,#0
        0x000198ce:    4770        pG      BXEQ     lr
        0x000198d0:    6810        .h      LDR      r0,[r2,#0]
        0x000198d2:    2104        .!      MOVS     r1,#4
        0x000198d4:    4718        .G      BX       r3
        0x000198d6:    0000        ..      MOVS     r0,r0
    am_hal_daxi_config
        0x000198d8:    b570        p.      PUSH     {r4-r6,lr}
        0x000198da:    b082        ..      SUB      sp,sp,#8
        0x000198dc:    2654        T&      MOVS     r6,#0x54
        0x000198de:    2500        .%      MOVS     r5,#0
        0x000198e0:    4604        .F      MOV      r4,r0
        0x000198e2:    f6c40600    ....    MOVT     r6,#0x4800
        0x000198e6:    f2c475ff    ...u    MOVT     r5,#0x47ff
        0x000198ea:    f000facb    ....    BL       am_hal_interrupt_master_disable ; 0x19e84
        0x000198ee:    9000        ..      STR      r0,[sp,#0]
        0x000198f0:    f000fac8    ....    BL       am_hal_interrupt_master_disable ; 0x19e84
        0x000198f4:    9001        ..      STR      r0,[sp,#4]
        0x000198f6:    f8560c04    V...    LDR      r0,[r6,#-4]
        0x000198fa:    0740        @.      LSLS     r0,r0,#29
        0x000198fc:    d418        ..      BMI      0x19930 ; am_hal_daxi_config + 88
        0x000198fe:    f3bf8f4f    ..O.    DSB      
        0x00019902:    6830        0h      LDR      r0,[r6,#0]
        0x00019904:    f0400001    @...    ORR      r0,r0,#1
        0x00019908:    6030        0`      STR      r0,[r6,#0]
        0x0001990a:    6828        (h      LDR      r0,[r5,#0]
        0x0001990c:    6830        0h      LDR      r0,[r6,#0]
        0x0001990e:    0740        @.      LSLS     r0,r0,#29
        0x00019910:    d409        ..      BMI      0x19926 ; am_hal_daxi_config + 78
        0x00019912:    6830        0h      LDR      r0,[r6,#0]
        0x00019914:    0740        @.      LSLS     r0,r0,#29
        0x00019916:    bf5c        \.      ITT      PL
        0x00019918:    6830        0h      LDRPL    r0,[r6,#0]
        0x0001991a:    ea5f7040    _.@p    LSLSPL   r0,r0,#29
        0x0001991e:    d402        ..      BMI      0x19926 ; am_hal_daxi_config + 78
        0x00019920:    6830        0h      LDR      r0,[r6,#0]
        0x00019922:    0740        @.      LSLS     r0,r0,#29
        0x00019924:    d5f2        ..      BPL      0x1990c ; am_hal_daxi_config + 52
        0x00019926:    6830        0h      LDR      r0,[r6,#0]
        0x00019928:    f0400002    @...    ORR      r0,r0,#2
        0x0001992c:    6030        0`      STR      r0,[r6,#0]
        0x0001992e:    6828        (h      LDR      r0,[r5,#0]
        0x00019930:    9801        ..      LDR      r0,[sp,#4]
        0x00019932:    f000faaf    ....    BL       am_hal_interrupt_master_set ; 0x19e94
        0x00019936:    b1dc        ..      CBZ      r4,0x19970 ; am_hal_daxi_config + 152
        0x00019938:    7860        `x      LDRB     r0,[r4,#1]
        0x0001993a:    7922        "y      LDRB     r2,[r4,#4]
        0x0001993c:    78a1        .x      LDRB     r1,[r4,#2]
        0x0001993e:    78e3        .x      LDRB     r3,[r4,#3]
        0x00019940:    f0020201    ....    AND      r2,r2,#1
        0x00019944:    f000007f    ....    AND      r0,r0,#0x7f
        0x00019948:    ea420040    B.@.    ORR      r0,r2,r0,LSL #1
        0x0001994c:    f363200b    c..     BFI      r0,r3,#8,#4
        0x00019950:    f001011f    ....    AND      r1,r1,#0x1f
        0x00019954:    ea404001    @..@    ORR      r0,r0,r1,LSL #16
        0x00019958:    f8460c04    F...    STR      r0,[r6,#-4]
        0x0001995c:    7920         y      LDRB     r0,[r4,#4]
        0x0001995e:    f2400120    @. .    MOVW     r1,#0x20
        0x00019962:    f2c10100    ....    MOVT     r1,#0x1000
        0x00019966:    7108        .q      STRB     r0,[r1,#4]
        0x00019968:    6820         h      LDR      r0,[r4,#0]
        0x0001996a:    6008        .`      STR      r0,[r1,#0]
        0x0001996c:    e003        ..      B        0x19976 ; am_hal_daxi_config + 158
        0x0001996e:    bf00        ..      NOP      
        0x00019970:    2006        .       MOVS     r0,#6
        0x00019972:    f8460c04    F...    STR      r0,[r6,#-4]
        0x00019976:    6828        (h      LDR      r0,[r5,#0]
        0x00019978:    9800        ..      LDR      r0,[sp,#0]
        0x0001997a:    f000fa8b    ....    BL       am_hal_interrupt_master_set ; 0x19e94
        0x0001997e:    2000        .       MOVS     r0,#0
        0x00019980:    b002        ..      ADD      sp,sp,#8
        0x00019982:    bd70        p.      POP      {r4-r6,pc}
    am_hal_daxi_control
        0x00019984:    b5b0        ..      PUSH     {r4,r5,r7,lr}
        0x00019986:    b084        ..      SUB      sp,sp,#0x10
        0x00019988:    2803        .(      CMP      r0,#3
        0x0001998a:    d817        ..      BHI      0x199bc ; am_hal_daxi_control + 56
        0x0001998c:    e8dff000    ....    TBB      [pc,r0]
    $d.9
        0x00019990:    7c461a02    ..F|    DCD    2084968962
    $t.10
        0x00019994:    2054        T       MOVS     r0,#0x54
        0x00019996:    f6c40000    ....    MOVT     r0,#0x4800
        0x0001999a:    f8501c04    P...    LDR      r1,[r0,#-4]
        0x0001999e:    0749        I.      LSLS     r1,r1,#29
        0x000199a0:    d409        ..      BMI      0x199b6 ; am_hal_daxi_control + 50
        0x000199a2:    f3bf8f4f    ..O.    DSB      
        0x000199a6:    6801        .h      LDR      r1,[r0,#0]
        0x000199a8:    f0410102    A...    ORR      r1,r1,#2
        0x000199ac:    6001        .`      STR      r1,[r0,#0]
        0x000199ae:    2000        .       MOVS     r0,#0
        0x000199b0:    f2c470ff    ...p    MOVT     r0,#0x47ff
        0x000199b4:    6800        .h      LDR      r0,[r0,#0]
        0x000199b6:    2000        .       MOVS     r0,#0
        0x000199b8:    b004        ..      ADD      sp,sp,#0x10
        0x000199ba:    bdb0        ..      POP      {r4,r5,r7,pc}
        0x000199bc:    2006        .       MOVS     r0,#6
        0x000199be:    b004        ..      ADD      sp,sp,#0x10
        0x000199c0:    bdb0        ..      POP      {r4,r5,r7,pc}
        0x000199c2:    bf00        ..      NOP      
        0x000199c4:    2454        T$      MOVS     r4,#0x54
        0x000199c6:    f6c40400    ....    MOVT     r4,#0x4800
        0x000199ca:    f000fa5b    ..[.    BL       am_hal_interrupt_master_disable ; 0x19e84
        0x000199ce:    9001        ..      STR      r0,[sp,#4]
        0x000199d0:    f8540c04    T...    LDR      r0,[r4,#-4]
        0x000199d4:    0740        @.      LSLS     r0,r0,#29
        0x000199d6:    d41b        ..      BMI      0x19a10 ; am_hal_daxi_control + 140
        0x000199d8:    f3bf8f4f    ..O.    DSB      
        0x000199dc:    6821        !h      LDR      r1,[r4,#0]
        0x000199de:    2000        .       MOVS     r0,#0
        0x000199e0:    f0410101    A...    ORR      r1,r1,#1
        0x000199e4:    f2c470ff    ...p    MOVT     r0,#0x47ff
        0x000199e8:    6021        !`      STR      r1,[r4,#0]
        0x000199ea:    6801        .h      LDR      r1,[r0,#0]
        0x000199ec:    6821        !h      LDR      r1,[r4,#0]
        0x000199ee:    0749        I.      LSLS     r1,r1,#29
        0x000199f0:    d409        ..      BMI      0x19a06 ; am_hal_daxi_control + 130
        0x000199f2:    6821        !h      LDR      r1,[r4,#0]
        0x000199f4:    0749        I.      LSLS     r1,r1,#29
        0x000199f6:    bf5c        \.      ITT      PL
        0x000199f8:    6821        !h      LDRPL    r1,[r4,#0]
        0x000199fa:    ea5f7141    _.Aq    LSLSPL   r1,r1,#29
        0x000199fe:    d402        ..      BMI      0x19a06 ; am_hal_daxi_control + 130
        0x00019a00:    6821        !h      LDR      r1,[r4,#0]
        0x00019a02:    0749        I.      LSLS     r1,r1,#29
        0x00019a04:    d5f2        ..      BPL      0x199ec ; am_hal_daxi_control + 104
        0x00019a06:    6821        !h      LDR      r1,[r4,#0]
        0x00019a08:    f0410102    A...    ORR      r1,r1,#2
        0x00019a0c:    6021        !`      STR      r1,[r4,#0]
        0x00019a0e:    6800        .h      LDR      r0,[r0,#0]
        0x00019a10:    9801        ..      LDR      r0,[sp,#4]
        0x00019a12:    f000fa3f    ..?.    BL       am_hal_interrupt_master_set ; 0x19e94
        0x00019a16:    2000        .       MOVS     r0,#0
        0x00019a18:    b004        ..      ADD      sp,sp,#0x10
        0x00019a1a:    bdb0        ..      POP      {r4,r5,r7,pc}
        0x00019a1c:    2454        T$      MOVS     r4,#0x54
        0x00019a1e:    2500        .%      MOVS     r5,#0
        0x00019a20:    f6c40400    ....    MOVT     r4,#0x4800
        0x00019a24:    f2c475ff    ...u    MOVT     r5,#0x47ff
        0x00019a28:    f000fa2c    ..,.    BL       am_hal_interrupt_master_disable ; 0x19e84
        0x00019a2c:    9002        ..      STR      r0,[sp,#8]
        0x00019a2e:    f000fa29    ..).    BL       am_hal_interrupt_master_disable ; 0x19e84
        0x00019a32:    9003        ..      STR      r0,[sp,#0xc]
        0x00019a34:    f8540c04    T...    LDR      r0,[r4,#-4]
        0x00019a38:    0740        @.      LSLS     r0,r0,#29
        0x00019a3a:    d418        ..      BMI      0x19a6e ; am_hal_daxi_control + 234
        0x00019a3c:    f3bf8f4f    ..O.    DSB      
        0x00019a40:    6820         h      LDR      r0,[r4,#0]
        0x00019a42:    f0400001    @...    ORR      r0,r0,#1
        0x00019a46:    6020         `      STR      r0,[r4,#0]
        0x00019a48:    6828        (h      LDR      r0,[r5,#0]
        0x00019a4a:    6820         h      LDR      r0,[r4,#0]
        0x00019a4c:    0740        @.      LSLS     r0,r0,#29
        0x00019a4e:    d409        ..      BMI      0x19a64 ; am_hal_daxi_control + 224
        0x00019a50:    6820         h      LDR      r0,[r4,#0]
        0x00019a52:    0740        @.      LSLS     r0,r0,#29
        0x00019a54:    bf5c        \.      ITT      PL
        0x00019a56:    6820         h      LDRPL    r0,[r4,#0]
        0x00019a58:    ea5f7040    _.@p    LSLSPL   r0,r0,#29
        0x00019a5c:    d402        ..      BMI      0x19a64 ; am_hal_daxi_control + 224
        0x00019a5e:    6820         h      LDR      r0,[r4,#0]
        0x00019a60:    0740        @.      LSLS     r0,r0,#29
        0x00019a62:    d5f2        ..      BPL      0x19a4a ; am_hal_daxi_control + 198
        0x00019a64:    6820         h      LDR      r0,[r4,#0]
        0x00019a66:    f0400002    @...    ORR      r0,r0,#2
        0x00019a6a:    6020         `      STR      r0,[r4,#0]
        0x00019a6c:    6828        (h      LDR      r0,[r5,#0]
        0x00019a6e:    9803        ..      LDR      r0,[sp,#0xc]
        0x00019a70:    f000fa10    ....    BL       am_hal_interrupt_master_set ; 0x19e94
        0x00019a74:    2006        .       MOVS     r0,#6
        0x00019a76:    f8440c04    D...    STR      r0,[r4,#-4]
        0x00019a7a:    6828        (h      LDR      r0,[r5,#0]
        0x00019a7c:    9802        ..      LDR      r0,[sp,#8]
        0x00019a7e:    f000fa09    ....    BL       am_hal_interrupt_master_set ; 0x19e94
        0x00019a82:    2000        .       MOVS     r0,#0
        0x00019a84:    b004        ..      ADD      sp,sp,#0x10
        0x00019a86:    bdb0        ..      POP      {r4,r5,r7,pc}
        0x00019a88:    f2400020    @. .    MOVW     r0,#0x20
        0x00019a8c:    f2c10000    ....    MOVT     r0,#0x1000
        0x00019a90:    f7ffff22    ..".    BL       am_hal_daxi_config ; 0x198d8
        0x00019a94:    2000        .       MOVS     r0,#0
        0x00019a96:    b004        ..      ADD      sp,sp,#0x10
        0x00019a98:    bdb0        ..      POP      {r4,r5,r7,pc}
        0x00019a9a:    0000        ..      MOVS     r0,r0
    am_hal_dcu_get
        0x00019a9c:    b510        ..      PUSH     {r4,lr}
        0x00019a9e:    f2410108    A...    MOV      r1,#0x1008
        0x00019aa2:    f2c40102    ....    MOVT     r1,#0x4002
        0x00019aa6:    6809        .h      LDR      r1,[r1,#0]
        0x00019aa8:    02c9        ..      LSLS     r1,r1,#11
        0x00019aaa:    d507        ..      BPL      0x19abc ; am_hal_dcu_get + 32
        0x00019aac:    4604        .F      MOV      r4,r0
        0x00019aae:    f640207c    @.|     MOV      r0,#0xa7c
        0x00019ab2:    f2c4000c    ....    MOVT     r0,#0x400c
        0x00019ab6:    6800        .h      LDR      r0,[r0,#0]
        0x00019ab8:    07c0        ..      LSLS     r0,r0,#31
        0x00019aba:    d101        ..      BNE      0x19ac0 ; am_hal_dcu_get + 36
        0x00019abc:    2007        .       MOVS     r0,#7
        0x00019abe:    bd10        ..      POP      {r4,pc}
        0x00019ac0:    f2400000    @...    MOVW     r0,#0
        0x00019ac4:    f2c10000    ....    MOVT     r0,#0x1000
        0x00019ac8:    6801        .h      LDR      r1,[r0,#0]
        0x00019aca:    2205        ."      MOVS     r2,#5
        0x00019acc:    6808        .h      LDR      r0,[r1,#0]
        0x00019ace:    6849        Ih      LDR      r1,[r1,#4]
        0x00019ad0:    f004f886    ....    BL       get_ui32_dcu_mask ; 0x1dbe0
        0x00019ad4:    6020         `      STR      r0,[r4,#0]
        0x00019ad6:    2000        .       MOVS     r0,#0
        0x00019ad8:    bd10        ..      POP      {r4,pc}
        0x00019ada:    0000        ..      MOVS     r0,r0
    am_hal_dcu_update
        0x00019adc:    b5f0        ..      PUSH     {r4-r7,lr}
        0x00019ade:    b081        ..      SUB      sp,sp,#4
        0x00019ae0:    f2410208    A...    MOV      r2,#0x1008
        0x00019ae4:    f2c40202    ....    MOVT     r2,#0x4002
        0x00019ae8:    6812        .h      LDR      r2,[r2,#0]
        0x00019aea:    02d2        ..      LSLS     r2,r2,#11
        0x00019aec:    d516        ..      BPL      0x19b1c ; am_hal_dcu_update + 64
        0x00019aee:    f640257c    @.|%    MOV      r5,#0xa7c
        0x00019af2:    f2c4050c    ....    MOVT     r5,#0x400c
        0x00019af6:    4604        .F      MOV      r4,r0
        0x00019af8:    6828        (h      LDR      r0,[r5,#0]
        0x00019afa:    07c0        ..      LSLS     r0,r0,#31
        0x00019afc:    d00e        ..      BEQ      0x19b1c ; am_hal_dcu_update + 64
        0x00019afe:    4608        .F      MOV      r0,r1
        0x00019b00:    f003fe5c    ..\.    BL       get_raw_dcu_mask ; 0x1d7bc
        0x00019b04:    f2400c00    @...    MOVW     r12,#0
        0x00019b08:    f2c10c00    ....    MOVT     r12,#0x1000
        0x00019b0c:    f8dc3004    ...0    LDR      r3,[r12,#4]
        0x00019b10:    681a        .h      LDR      r2,[r3,#0]
        0x00019b12:    685b        [h      LDR      r3,[r3,#4]
        0x00019b14:    4002        .@      ANDS     r2,r2,r0
        0x00019b16:    400b        .@      ANDS     r3,r3,r1
        0x00019b18:    431a        .C      ORRS     r2,r2,r3
        0x00019b1a:    d003        ..      BEQ      0x19b24 ; am_hal_dcu_update + 72
        0x00019b1c:    2007        .       MOVS     r0,#7
        0x00019b1e:    b001        ..      ADD      sp,sp,#4
        0x00019b20:    bdf0        ..      POP      {r4-r7,pc}
        0x00019b22:    bf00        ..      NOP      
        0x00019b24:    f8dc2000    ...     LDR      r2,[r12,#0]
        0x00019b28:    2610        .&      MOVS     r6,#0x10
        0x00019b2a:    6813        .h      LDR      r3,[r2,#0]
        0x00019b2c:    f8d2e004    ....    LDR      lr,[r2,#4]
        0x00019b30:    2c00        .,      CMP      r4,#0
        0x00019b32:    bf18        ..      IT       NE
        0x00019b34:    2608        .&      MOVNE    r6,#8
        0x00019b36:    eb0c0406    ....    ADD      r4,r12,r6
        0x00019b3a:    f85c6006    \..`    LDR      r6,[r12,r6]
        0x00019b3e:    6864        dh      LDR      r4,[r4,#4]
        0x00019b40:    ea230700    #...    BIC      r7,r3,r0
        0x00019b44:    ea2e0301    ....    BIC      r3,lr,r1
        0x00019b48:    4030        0@      ANDS     r0,r0,r6
        0x00019b4a:    4021        !@      ANDS     r1,r1,r4
        0x00019b4c:    4419        .D      ADD      r1,r1,r3
        0x00019b4e:    4438        8D      ADD      r0,r0,r7
        0x00019b50:    6010        .`      STR      r0,[r2,#0]
        0x00019b52:    6051        Q`      STR      r1,[r2,#4]
        0x00019b54:    6828        (h      LDR      r0,[r5,#0]
        0x00019b56:    07c0        ..      LSLS     r0,r0,#31
        0x00019b58:    d10e        ..      BNE      0x19b78 ; am_hal_dcu_update + 156
        0x00019b5a:    6828        (h      LDR      r0,[r5,#0]
        0x00019b5c:    07c0        ..      LSLS     r0,r0,#31
        0x00019b5e:    bf04        ..      ITT      EQ
        0x00019b60:    6828        (h      LDREQ    r0,[r5,#0]
        0x00019b62:    ea5f70c0    _..p    LSLSEQ   r0,r0,#31
        0x00019b66:    d107        ..      BNE      0x19b78 ; am_hal_dcu_update + 156
        0x00019b68:    6828        (h      LDR      r0,[r5,#0]
        0x00019b6a:    07c0        ..      LSLS     r0,r0,#31
        0x00019b6c:    f04f0000    O...    MOV      r0,#0
        0x00019b70:    d0f0        ..      BEQ      0x19b54 ; am_hal_dcu_update + 120
        0x00019b72:    b001        ..      ADD      sp,sp,#4
        0x00019b74:    bdf0        ..      POP      {r4-r7,pc}
        0x00019b76:    bf00        ..      NOP      
        0x00019b78:    2000        .       MOVS     r0,#0
        0x00019b7a:    b001        ..      ADD      sp,sp,#4
        0x00019b7c:    bdf0        ..      POP      {r4-r7,pc}
        0x00019b7e:    0000        ..      MOVS     r0,r0
    am_hal_delay_us
        0x00019b80:    f2410100    A...    MOVW     r1,#0x1000
        0x00019b84:    f2c40102    ....    MOVT     r1,#0x4002
        0x00019b88:    6809        .h      LDR      r1,[r1,#0]
        0x00019b8a:    2205        ."      MOVS     r2,#5
        0x00019b8c:    f0010118    ....    AND      r1,r1,#0x18
        0x00019b90:    2910        .)      CMP      r1,#0x10
        0x00019b92:    bf08        ..      IT       EQ
        0x00019b94:    2206        ."      MOVEQ    r2,#6
        0x00019b96:    fa00f002    ....    LSL      r0,r0,r2
        0x00019b9a:    f04f010f    O...    MOV      r1,#0xf
        0x00019b9e:    bf08        ..      IT       EQ
        0x00019ba0:    2115        .!      MOVEQ    r1,#0x15
        0x00019ba2:    4281        .B      CMP      r1,r0
        0x00019ba4:    bf28        (.      IT       CS
        0x00019ba6:    4770        pG      BXCS     lr
        0x00019ba8:    1a40        @.      SUBS     r0,r0,r1
        0x00019baa:    f64e3164    N.d1    MOV      r1,#0xeb64
        0x00019bae:    f2c00101    ....    MOVT     r1,#1
        0x00019bb2:    6a49        Ij      LDR      r1,[r1,#0x24]
        0x00019bb4:    4708        .G      BX       r1
        0x00019bb6:    0000        ..      MOVS     r0,r0
    am_hal_delay_us_status_change
        0x00019bb8:    e92d43f0    -..C    PUSH     {r4-r9,lr}
        0x00019bbc:    b081        ..      SUB      sp,sp,#4
        0x00019bbe:    460d        .F      MOV      r5,r1
        0x00019bc0:    6809        .h      LDR      r1,[r1,#0]
        0x00019bc2:    4011        .@      ANDS     r1,r1,r2
        0x00019bc4:    4299        .B      CMP      r1,r3
        0x00019bc6:    d01b        ..      BEQ      0x19c00 ; am_hal_delay_us_status_change + 72
        0x00019bc8:    f64e3164    N.d1    MOV      r1,#0xeb64
        0x00019bcc:    f2c00101    ....    MOVT     r1,#1
        0x00019bd0:    6a4f        Oj      LDR      r7,[r1,#0x24]
        0x00019bd2:    f2410900    A...    MOVW     r9,#0x1000
        0x00019bd6:    4698        .F      MOV      r8,r3
        0x00019bd8:    4616        .F      MOV      r6,r2
        0x00019bda:    1c44        D.      ADDS     r4,r0,#1
        0x00019bdc:    f2c40902    ....    MOVT     r9,#0x4002
        0x00019be0:    3c01        .<      SUBS     r4,#1
        0x00019be2:    d011        ..      BEQ      0x19c08 ; am_hal_delay_us_status_change + 80
        0x00019be4:    f8d90000    ....    LDR      r0,[r9,#0]
        0x00019be8:    f0000018    ....    AND      r0,r0,#0x18
        0x00019bec:    2810        .(      CMP      r0,#0x10
        0x00019bee:    f04f0011    O...    MOV      r0,#0x11
        0x00019bf2:    bf08        ..      IT       EQ
        0x00019bf4:    202b        +       MOVEQ    r0,#0x2b
        0x00019bf6:    47b8        .G      BLX      r7
        0x00019bf8:    6828        (h      LDR      r0,[r5,#0]
        0x00019bfa:    4030        0@      ANDS     r0,r0,r6
        0x00019bfc:    4540        @E      CMP      r0,r8
        0x00019bfe:    d1ef        ..      BNE      0x19be0 ; am_hal_delay_us_status_change + 40
        0x00019c00:    2000        .       MOVS     r0,#0
        0x00019c02:    b001        ..      ADD      sp,sp,#4
        0x00019c04:    e8bd83f0    ....    POP      {r4-r9,pc}
        0x00019c08:    2004        .       MOVS     r0,#4
        0x00019c0a:    b001        ..      ADD      sp,sp,#4
        0x00019c0c:    e8bd83f0    ....    POP      {r4-r9,pc}
    am_hal_delay_us_status_check
        0x00019c10:    e92d43f0    -..C    PUSH     {r4-r9,lr}
        0x00019c14:    b081        ..      SUB      sp,sp,#4
        0x00019c16:    4615        .F      MOV      r5,r2
        0x00019c18:    f64e3264    N.d2    MOV      r2,#0xeb64
        0x00019c1c:    460e        .F      MOV      r6,r1
        0x00019c1e:    f2c00201    ....    MOVT     r2,#1
        0x00019c22:    9908        ..      LDR      r1,[sp,#0x20]
        0x00019c24:    f8d29024    ..$.    LDR      r9,[r2,#0x24]
        0x00019c28:    6832        2h      LDR      r2,[r6,#0]
        0x00019c2a:    461c        .F      MOV      r4,r3
        0x00019c2c:    2900        .)      CMP      r1,#0
        0x00019c2e:    ea020105    ....    AND      r1,r2,r5
        0x00019c32:    d019        ..      BEQ      0x19c68 ; am_hal_delay_us_status_check + 88
        0x00019c34:    42a1        .B      CMP      r1,r4
        0x00019c36:    d02f        /.      BEQ      0x19c98 ; am_hal_delay_us_status_check + 136
        0x00019c38:    f2410800    A...    MOVW     r8,#0x1000
        0x00019c3c:    f2c40802    ....    MOVT     r8,#0x4002
        0x00019c40:    1c47        G.      ADDS     r7,r0,#1
        0x00019c42:    bf00        ..      NOP      
        0x00019c44:    3f01        .?      SUBS     r7,#1
        0x00019c46:    d02b        +.      BEQ      0x19ca0 ; am_hal_delay_us_status_check + 144
        0x00019c48:    f8d80000    ....    LDR      r0,[r8,#0]
        0x00019c4c:    f0000018    ....    AND      r0,r0,#0x18
        0x00019c50:    2810        .(      CMP      r0,#0x10
        0x00019c52:    f04f0011    O...    MOV      r0,#0x11
        0x00019c56:    bf08        ..      IT       EQ
        0x00019c58:    202b        +       MOVEQ    r0,#0x2b
        0x00019c5a:    47c8        .G      BLX      r9
        0x00019c5c:    6830        0h      LDR      r0,[r6,#0]
        0x00019c5e:    4028        (@      ANDS     r0,r0,r5
        0x00019c60:    42a0        .B      CMP      r0,r4
        0x00019c62:    d1ef        ..      BNE      0x19c44 ; am_hal_delay_us_status_check + 52
        0x00019c64:    e018        ..      B        0x19c98 ; am_hal_delay_us_status_check + 136
        0x00019c66:    bf00        ..      NOP      
        0x00019c68:    42a1        .B      CMP      r1,r4
        0x00019c6a:    d115        ..      BNE      0x19c98 ; am_hal_delay_us_status_check + 136
        0x00019c6c:    f2410800    A...    MOVW     r8,#0x1000
        0x00019c70:    f2c40802    ....    MOVT     r8,#0x4002
        0x00019c74:    1c47        G.      ADDS     r7,r0,#1
        0x00019c76:    bf00        ..      NOP      
        0x00019c78:    3f01        .?      SUBS     r7,#1
        0x00019c7a:    d011        ..      BEQ      0x19ca0 ; am_hal_delay_us_status_check + 144
        0x00019c7c:    f8d80000    ....    LDR      r0,[r8,#0]
        0x00019c80:    f0000018    ....    AND      r0,r0,#0x18
        0x00019c84:    2810        .(      CMP      r0,#0x10
        0x00019c86:    f04f0011    O...    MOV      r0,#0x11
        0x00019c8a:    bf08        ..      IT       EQ
        0x00019c8c:    202b        +       MOVEQ    r0,#0x2b
        0x00019c8e:    47c8        .G      BLX      r9
        0x00019c90:    6830        0h      LDR      r0,[r6,#0]
        0x00019c92:    4028        (@      ANDS     r0,r0,r5
        0x00019c94:    42a0        .B      CMP      r0,r4
        0x00019c96:    d0ef        ..      BEQ      0x19c78 ; am_hal_delay_us_status_check + 104
        0x00019c98:    2000        .       MOVS     r0,#0
        0x00019c9a:    b001        ..      ADD      sp,sp,#4
        0x00019c9c:    e8bd83f0    ....    POP      {r4-r9,pc}
        0x00019ca0:    2004        .       MOVS     r0,#4
        0x00019ca2:    b001        ..      ADD      sp,sp,#4
        0x00019ca4:    e8bd83f0    ....    POP      {r4-r9,pc}
    am_hal_fault_status_get
        0x00019ca8:    2800        .(      CMP      r0,#0
        0x00019caa:    bf04        ..      ITT      EQ
        0x00019cac:    2006        .       MOVEQ    r0,#6
        0x00019cae:    4770        pG      BXEQ     lr
        0x00019cb0:    2180        .!      MOVS     r1,#0x80
        0x00019cb2:    f6c40100    ....    MOVT     r1,#0x4800
        0x00019cb6:    68ca        .h      LDR      r2,[r1,#0xc]
        0x00019cb8:    f0020301    ....    AND      r3,r2,#1
        0x00019cbc:    7003        .p      STRB     r3,[r0,#0]
        0x00019cbe:    f3c20340    ..@.    UBFX     r3,r2,#1,#1
        0x00019cc2:    f3c20280    ....    UBFX     r2,r2,#2,#1
        0x00019cc6:    7203        .r      STRB     r3,[r0,#8]
        0x00019cc8:    7402        .t      STRB     r2,[r0,#0x10]
        0x00019cca:    684a        Jh      LDR      r2,[r1,#4]
        0x00019ccc:    60c2        .`      STR      r2,[r0,#0xc]
        0x00019cce:    680a        .h      LDR      r2,[r1,#0]
        0x00019cd0:    6843        Ch      LDR      r3,[r0,#4]
        0x00019cd2:    431a        .C      ORRS     r2,r2,r3
        0x00019cd4:    6042        B`      STR      r2,[r0,#4]
        0x00019cd6:    6889        .h      LDR      r1,[r1,#8]
        0x00019cd8:    6942        Bi      LDR      r2,[r0,#0x14]
        0x00019cda:    4311        .C      ORRS     r1,r1,r2
        0x00019cdc:    6141        Aa      STR      r1,[r0,#0x14]
        0x00019cde:    2000        .       MOVS     r0,#0
        0x00019ce0:    4770        pG      BX       lr
        0x00019ce2:    0000        ..      MOVS     r0,r0
    am_hal_get_card_host
        0x00019ce4:    b510        ..      PUSH     {r4,lr}
        0x00019ce6:    b108        ..      CBZ      r0,0x19cec ; am_hal_get_card_host + 8
        0x00019ce8:    2000        .       MOVS     r0,#0
        0x00019cea:    bd10        ..      POP      {r4,pc}
        0x00019cec:    f2400450    @.P.    MOVW     r4,#0x50
        0x00019cf0:    f2c10400    ....    MOVT     r4,#0x1000
        0x00019cf4:    7a60        `z      LDRB     r0,[r4,#9]
        0x00019cf6:    b118        ..      CBZ      r0,0x19d00 ; am_hal_get_card_host + 28
        0x00019cf8:    b911        ..      CBNZ     r1,0x19d00 ; am_hal_get_card_host + 28
        0x00019cfa:    4620         F      MOV      r0,r4
        0x00019cfc:    bd10        ..      POP      {r4,pc}
        0x00019cfe:    bf00        ..      NOP      
        0x00019d00:    b118        ..      CBZ      r0,0x19d0a ; am_hal_get_card_host + 38
        0x00019d02:    6ea1        .n      LDR      r1,[r4,#0x68]
        0x00019d04:    6820         h      LDR      r0,[r4,#0]
        0x00019d06:    6849        Ih      LDR      r1,[r1,#4]
        0x00019d08:    4788        .G      BLX      r1
        0x00019d0a:    6ea0        .n      LDR      r0,[r4,#0x68]
        0x00019d0c:    6801        .h      LDR      r1,[r0,#0]
        0x00019d0e:    4620         F      MOV      r0,r4
        0x00019d10:    4788        .G      BLX      r1
        0x00019d12:    2800        .(      CMP      r0,#0
        0x00019d14:    d1e8        ..      BNE      0x19ce8 ; am_hal_get_card_host + 4
        0x00019d16:    2001        .       MOVS     r0,#1
        0x00019d18:    7260        `r      STRB     r0,[r4,#9]
        0x00019d1a:    4620         F      MOV      r0,r4
        0x00019d1c:    bd10        ..      POP      {r4,pc}
        0x00019d1e:    0000        ..      MOVS     r0,r0
    am_hal_gpio_pinconfig
        0x00019d20:    b081        ..      SUB      sp,sp,#4
        0x00019d22:    287f        .(      CMP      r0,#0x7f
        0x00019d24:    9100        ..      STR      r1,[sp,#0]
        0x00019d26:    bf82        ..      ITTT     HI
        0x00019d28:    2005        .       MOVHI    r0,#5
        0x00019d2a:    b001        ..      ADDHI    sp,sp,#4
        0x00019d2c:    4770        pG      BXHI     lr
        0x00019d2e:    0509        ..      LSLS     r1,r1,#20
        0x00019d30:    d50b        ..      BPL      0x19d4a ; am_hal_gpio_pinconfig + 42
        0x00019d32:    f24f1218    O...    MOV      r2,#0xf118
        0x00019d36:    0941        A.      LSRS     r1,r0,#5
        0x00019d38:    f2c00201    ....    MOVT     r2,#1
        0x00019d3c:    f8521021    R.!.    LDR      r1,[r2,r1,LSL #2]
        0x00019d40:    f000021f    ....    AND      r2,r0,#0x1f
        0x00019d44:    40d1        .@      LSRS     r1,r1,r2
        0x00019d46:    07c9        ..      LSLS     r1,r1,#31
        0x00019d48:    d012        ..      BEQ      0x19d70 ; am_hal_gpio_pinconfig + 80
        0x00019d4a:    f2402100    @..!    MOVW     r1,#0x200
        0x00019d4e:    f2c40101    ....    MOVT     r1,#0x4001
        0x00019d52:    2273        s"      MOVS     r2,#0x73
        0x00019d54:    600a        .`      STR      r2,[r1,#0]
        0x00019d56:    9a00        ..      LDR      r2,[sp,#0]
        0x00019d58:    f64f6300    O..c    MOVW     r3,#0xfe00
        0x00019d5c:    eb010080    ....    ADD      r0,r1,r0,LSL #2
        0x00019d60:    f6cf73ff    ...s    MOVT     r3,#0xffff
        0x00019d64:    50c2        .P      STR      r2,[r0,r3]
        0x00019d66:    2000        .       MOVS     r0,#0
        0x00019d68:    6008        .`      STR      r0,[r1,#0]
        0x00019d6a:    b001        ..      ADD      sp,sp,#4
        0x00019d6c:    4770        pG      BX       lr
        0x00019d6e:    bf00        ..      NOP      
        0x00019d70:    2007        .       MOVS     r0,#7
        0x00019d72:    b001        ..      ADD      sp,sp,#4
        0x00019d74:    4770        pG      BX       lr
        0x00019d76:    0000        ..      MOVS     r0,r0
    am_hal_gpio_state_write
        0x00019d78:    b510        ..      PUSH     {r4,lr}
        0x00019d7a:    b082        ..      SUB      sp,sp,#8
        0x00019d7c:    2905        .)      CMP      r1,#5
        0x00019d7e:    d813        ..      BHI      0x19da8 ; am_hal_gpio_state_write + 48
        0x00019d80:    4604        .F      MOV      r4,r0
        0x00019d82:    e8dff001    ....    TBB      [pc,r1]
    $d.5
        0x00019d86:    1503        ..      DCW    5379
        0x00019d88:    65534127    'ASe    DCD    1699954983
    $t.6
        0x00019d8c:    f004001f    ....    AND      r0,r4,#0x1f
        0x00019d90:    2101        .!      MOVS     r1,#1
        0x00019d92:    f2402214    @.."    MOVW     r2,#0x214
        0x00019d96:    fa01f000    ....    LSL      r0,r1,r0
        0x00019d9a:    f3c41141    ..A.    UBFX     r1,r4,#5,#2
        0x00019d9e:    f2c40201    ....    MOVT     r2,#0x4001
        0x00019da2:    eb020181    ....    ADD      r1,r2,r1,LSL #2
        0x00019da6:    6208        .b      STR      r0,[r1,#0x20]
        0x00019da8:    2000        .       MOVS     r0,#0
        0x00019daa:    b002        ..      ADD      sp,sp,#8
        0x00019dac:    bd10        ..      POP      {r4,pc}
        0x00019dae:    bf00        ..      NOP      
        0x00019db0:    f004001f    ....    AND      r0,r4,#0x1f
        0x00019db4:    2101        .!      MOVS     r1,#1
        0x00019db6:    f2402214    @.."    MOVW     r2,#0x214
        0x00019dba:    fa01f000    ....    LSL      r0,r1,r0
        0x00019dbe:    f3c41141    ..A.    UBFX     r1,r4,#5,#2
        0x00019dc2:    f2c40201    ....    MOVT     r2,#0x4001
        0x00019dc6:    eb020181    ....    ADD      r1,r2,r1,LSL #2
        0x00019dca:    6108        .a      STR      r0,[r1,#0x10]
        0x00019dcc:    2000        .       MOVS     r0,#0
        0x00019dce:    b002        ..      ADD      sp,sp,#8
        0x00019dd0:    bd10        ..      POP      {r4,pc}
        0x00019dd2:    bf00        ..      NOP      
        0x00019dd4:    f000f856    ..V.    BL       am_hal_interrupt_master_disable ; 0x19e84
        0x00019dd8:    f2402314    @..#    MOVW     r3,#0x214
        0x00019ddc:    9001        ..      STR      r0,[sp,#4]
        0x00019dde:    f3c41241    ..A.    UBFX     r2,r4,#5,#2
        0x00019de2:    f2c40301    ....    MOVT     r3,#0x4001
        0x00019de6:    f004001f    ....    AND      r0,r4,#0x1f
        0x00019dea:    2101        .!      MOVS     r1,#1
        0x00019dec:    f8534022    S."@    LDR      r4,[r3,r2,LSL #2]
        0x00019df0:    fa01f000    ....    LSL      r0,r1,r0
        0x00019df4:    4060        `@      EORS     r0,r0,r4
        0x00019df6:    f8430022    C.".    STR      r0,[r3,r2,LSL #2]
        0x00019dfa:    9801        ..      LDR      r0,[sp,#4]
        0x00019dfc:    f000f84a    ..J.    BL       am_hal_interrupt_master_set ; 0x19e94
        0x00019e00:    2000        .       MOVS     r0,#0
        0x00019e02:    b002        ..      ADD      sp,sp,#8
        0x00019e04:    bd10        ..      POP      {r4,pc}
        0x00019e06:    bf00        ..      NOP      
        0x00019e08:    f004001f    ....    AND      r0,r4,#0x1f
        0x00019e0c:    2101        .!      MOVS     r1,#1
        0x00019e0e:    f2402214    @.."    MOVW     r2,#0x214
        0x00019e12:    fa01f000    ....    LSL      r0,r1,r0
        0x00019e16:    f3c41141    ..A.    UBFX     r1,r4,#5,#2
        0x00019e1a:    f2c40201    ....    MOVT     r2,#0x4001
        0x00019e1e:    eb020181    ....    ADD      r1,r2,r1,LSL #2
        0x00019e22:    6508        .e      STR      r0,[r1,#0x50]
        0x00019e24:    2000        .       MOVS     r0,#0
        0x00019e26:    b002        ..      ADD      sp,sp,#8
        0x00019e28:    bd10        ..      POP      {r4,pc}
        0x00019e2a:    bf00        ..      NOP      
        0x00019e2c:    f004001f    ....    AND      r0,r4,#0x1f
        0x00019e30:    2101        .!      MOVS     r1,#1
        0x00019e32:    f2402214    @.."    MOVW     r2,#0x214
        0x00019e36:    fa01f000    ....    LSL      r0,r1,r0
        0x00019e3a:    f3c41141    ..A.    UBFX     r1,r4,#5,#2
        0x00019e3e:    f2c40201    ....    MOVT     r2,#0x4001
        0x00019e42:    eb020181    ....    ADD      r1,r2,r1,LSL #2
        0x00019e46:    6408        .d      STR      r0,[r1,#0x40]
        0x00019e48:    2000        .       MOVS     r0,#0
        0x00019e4a:    b002        ..      ADD      sp,sp,#8
        0x00019e4c:    bd10        ..      POP      {r4,pc}
        0x00019e4e:    bf00        ..      NOP      
        0x00019e50:    f000f818    ....    BL       am_hal_interrupt_master_disable ; 0x19e84
        0x00019e54:    f2402314    @..#    MOVW     r3,#0x214
        0x00019e58:    f3c41241    ..A.    UBFX     r2,r4,#5,#2
        0x00019e5c:    f2c40301    ....    MOVT     r3,#0x4001
        0x00019e60:    9000        ..      STR      r0,[sp,#0]
        0x00019e62:    eb030282    ....    ADD      r2,r3,r2,LSL #2
        0x00019e66:    f004001f    ....    AND      r0,r4,#0x1f
        0x00019e6a:    2101        .!      MOVS     r1,#1
        0x00019e6c:    6b13        .k      LDR      r3,[r2,#0x30]
        0x00019e6e:    fa01f000    ....    LSL      r0,r1,r0
        0x00019e72:    4058        X@      EORS     r0,r0,r3
        0x00019e74:    6310        .c      STR      r0,[r2,#0x30]
        0x00019e76:    9800        ..      LDR      r0,[sp,#0]
        0x00019e78:    f000f80c    ....    BL       am_hal_interrupt_master_set ; 0x19e94
        0x00019e7c:    2000        .       MOVS     r0,#0
        0x00019e7e:    b002        ..      ADD      sp,sp,#8
        0x00019e80:    bd10        ..      POP      {r4,pc}
        0x00019e82:    0000        ..      MOVS     r0,r0
    am_hal_interrupt_master_disable
        0x00019e84:    f3ef8010    ....    MRS      r0,PRIMASK
        0x00019e88:    b672        r.      CPSID    i
        0x00019e8a:    4770        pG      BX       lr
    am_hal_interrupt_master_enable
        0x00019e8c:    f3ef8010    ....    MRS      r0,PRIMASK
        0x00019e90:    b662        b.      CPSIE    i
        0x00019e92:    4770        pG      BX       lr
    am_hal_interrupt_master_set
        0x00019e94:    f3808810    ....    MSR      PRIMASK,r0
        0x00019e98:    4770        pG      BX       lr
        0x00019e9a:    0000        ..      MOVS     r0,r0
    am_hal_itm_enable
        0x00019e9c:    f64e50fc    N..P    MOV      r0,#0xedfc
        0x00019ea0:    f2ce0000    ....    MOVT     r0,#0xe000
        0x00019ea4:    6801        .h      LDR      r1,[r0,#0]
        0x00019ea6:    f0417180    A..q    ORR      r1,r1,#0x1000000
        0x00019eaa:    6001        .`      STR      r1,[r0,#0]
        0x00019eac:    6801        .h      LDR      r1,[r0,#0]
        0x00019eae:    01c9        ..      LSLS     r1,r1,#7
        0x00019eb0:    d409        ..      BMI      0x19ec6 ; am_hal_itm_enable + 42
        0x00019eb2:    6801        .h      LDR      r1,[r0,#0]
        0x00019eb4:    01c9        ..      LSLS     r1,r1,#7
        0x00019eb6:    bf5c        \.      ITT      PL
        0x00019eb8:    6801        .h      LDRPL    r1,[r0,#0]
        0x00019eba:    ea5f11c1    _...    LSLSPL   r1,r1,#7
        0x00019ebe:    d402        ..      BMI      0x19ec6 ; am_hal_itm_enable + 42
        0x00019ec0:    6801        .h      LDR      r1,[r0,#0]
        0x00019ec2:    01c9        ..      LSLS     r1,r1,#7
        0x00019ec4:    d5f2        ..      BPL      0x19eac ; am_hal_itm_enable + 16
        0x00019ec6:    f6406000    @..`    MOVW     r0,#0xe00
        0x00019eca:    f64c6155    L.Ua    MOV      r1,#0xce55
        0x00019ece:    f2ce0000    ....    MOVT     r0,#0xe000
        0x00019ed2:    f2cc51ac    ...Q    MOVT     r1,#0xc5ac
        0x00019ed6:    f8c011b0    ....    STR      r1,[r0,#0x1b0]
        0x00019eda:    210f        .!      MOVS     r1,#0xf
        0x00019edc:    6401        .d      STR      r1,[r0,#0x40]
        0x00019ede:    f04f31ff    O..1    MOV      r1,#0xffffffff
        0x00019ee2:    6001        .`      STR      r1,[r0,#0]
        0x00019ee4:    f2405111    @..Q    MOV      r1,#0x511
        0x00019ee8:    f2c00115    ....    MOVT     r1,#0x15
        0x00019eec:    f8c01080    ....    STR      r1,[r0,#0x80]
        0x00019ef0:    4770        pG      BX       lr
        0x00019ef2:    0000        ..      MOVS     r0,r0
    am_hal_itm_print
        0x00019ef4:    b510        ..      PUSH     {r4,lr}
        0x00019ef6:    f04f31ff    O..1    MOV      r1,#0xffffffff
        0x00019efa:    bf00        ..      NOP      
        0x00019efc:    1842        B.      ADDS     r2,r0,r1
        0x00019efe:    7853        Sx      LDRB     r3,[r2,#1]
        0x00019f00:    b143        C.      CBZ      r3,0x19f14 ; am_hal_itm_print + 32
        0x00019f02:    7893        .x      LDRB     r3,[r2,#2]
        0x00019f04:    b153        S.      CBZ      r3,0x19f1c ; am_hal_itm_print + 40
        0x00019f06:    78d3        .x      LDRB     r3,[r2,#3]
        0x00019f08:    b333        3.      CBZ      r3,0x19f58 ; am_hal_itm_print + 100
        0x00019f0a:    7912        .y      LDRB     r2,[r2,#4]
        0x00019f0c:    3104        .1      ADDS     r1,#4
        0x00019f0e:    2a00        .*      CMP      r2,#0
        0x00019f10:    d1f4        ..      BNE      0x19efc ; am_hal_itm_print + 8
        0x00019f12:    e004        ..      B        0x19f1e ; am_hal_itm_print + 42
        0x00019f14:    3101        .1      ADDS     r1,#1
        0x00019f16:    b919        ..      CBNZ     r1,0x19f20 ; am_hal_itm_print + 44
        0x00019f18:    e021        !.      B        0x19f5e ; am_hal_itm_print + 106
        0x00019f1a:    bf00        ..      NOP      
        0x00019f1c:    3102        .1      ADDS     r1,#2
        0x00019f1e:    b1f1        ..      CBZ      r1,0x19f5e ; am_hal_itm_print + 106
        0x00019f20:    f0110e03    ....    ANDS     lr,r1,#3
        0x00019f24:    f1a10c01    ....    SUB      r12,r1,#1
        0x00019f28:    d040        @.      BEQ      0x19fac ; am_hal_itm_print + 184
        0x00019f2a:    7802        .x      LDRB     r2,[r0,#0]
        0x00019f2c:    f04f4360    O.`C    MOV      r3,#0xe0000000
        0x00019f30:    681c        .h      LDR      r4,[r3,#0]
        0x00019f32:    b934        4.      CBNZ     r4,0x19f42 ; am_hal_itm_print + 78
        0x00019f34:    681c        .h      LDR      r4,[r3,#0]
        0x00019f36:    b924        $.      CBNZ     r4,0x19f42 ; am_hal_itm_print + 78
        0x00019f38:    681c        .h      LDR      r4,[r3,#0]
        0x00019f3a:    b914        ..      CBNZ     r4,0x19f42 ; am_hal_itm_print + 78
        0x00019f3c:    681c        .h      LDR      r4,[r3,#0]
        0x00019f3e:    2c00        .,      CMP      r4,#0
        0x00019f40:    d0f6        ..      BEQ      0x19f30 ; am_hal_itm_print + 60
        0x00019f42:    1c44        D.      ADDS     r4,r0,#1
        0x00019f44:    f04f4360    O.`C    MOV      r3,#0xe0000000
        0x00019f48:    f1be0f01    ....    CMP      lr,#1
        0x00019f4c:    701a        .p      STRB     r2,[r3,#0]
        0x00019f4e:    d107        ..      BNE      0x19f60 ; am_hal_itm_print + 108
        0x00019f50:    4661        aF      MOV      r1,r12
        0x00019f52:    4620         F      MOV      r0,r4
        0x00019f54:    e02a        *.      B        0x19fac ; am_hal_itm_print + 184
        0x00019f56:    bf00        ..      NOP      
        0x00019f58:    3103        .1      ADDS     r1,#3
        0x00019f5a:    2900        .)      CMP      r1,#0
        0x00019f5c:    d1e0        ..      BNE      0x19f20 ; am_hal_itm_print + 44
        0x00019f5e:    bd10        ..      POP      {r4,pc}
        0x00019f60:    7822        "x      LDRB     r2,[r4,#0]
        0x00019f62:    bf00        ..      NOP      
        0x00019f64:    681c        .h      LDR      r4,[r3,#0]
        0x00019f66:    b934        4.      CBNZ     r4,0x19f76 ; am_hal_itm_print + 130
        0x00019f68:    681c        .h      LDR      r4,[r3,#0]
        0x00019f6a:    b924        $.      CBNZ     r4,0x19f76 ; am_hal_itm_print + 130
        0x00019f6c:    681c        .h      LDR      r4,[r3,#0]
        0x00019f6e:    b914        ..      CBNZ     r4,0x19f76 ; am_hal_itm_print + 130
        0x00019f70:    681c        .h      LDR      r4,[r3,#0]
        0x00019f72:    2c00        .,      CMP      r4,#0
        0x00019f74:    d0f6        ..      BEQ      0x19f64 ; am_hal_itm_print + 112
        0x00019f76:    1c84        ..      ADDS     r4,r0,#2
        0x00019f78:    f04f4360    O.`C    MOV      r3,#0xe0000000
        0x00019f7c:    f1be0f02    ....    CMP      lr,#2
        0x00019f80:    701a        .p      STRB     r2,[r3,#0]
        0x00019f82:    d103        ..      BNE      0x19f8c ; am_hal_itm_print + 152
        0x00019f84:    3902        .9      SUBS     r1,#2
        0x00019f86:    4620         F      MOV      r0,r4
        0x00019f88:    e010        ..      B        0x19fac ; am_hal_itm_print + 184
        0x00019f8a:    bf00        ..      NOP      
        0x00019f8c:    7822        "x      LDRB     r2,[r4,#0]
        0x00019f8e:    bf00        ..      NOP      
        0x00019f90:    681c        .h      LDR      r4,[r3,#0]
        0x00019f92:    b934        4.      CBNZ     r4,0x19fa2 ; am_hal_itm_print + 174
        0x00019f94:    681c        .h      LDR      r4,[r3,#0]
        0x00019f96:    b924        $.      CBNZ     r4,0x19fa2 ; am_hal_itm_print + 174
        0x00019f98:    681c        .h      LDR      r4,[r3,#0]
        0x00019f9a:    b914        ..      CBNZ     r4,0x19fa2 ; am_hal_itm_print + 174
        0x00019f9c:    681c        .h      LDR      r4,[r3,#0]
        0x00019f9e:    2c00        .,      CMP      r4,#0
        0x00019fa0:    d0f6        ..      BEQ      0x19f90 ; am_hal_itm_print + 156
        0x00019fa2:    3003        .0      ADDS     r0,#3
        0x00019fa4:    f04f4360    O.`C    MOV      r3,#0xe0000000
        0x00019fa8:    3903        .9      SUBS     r1,#3
        0x00019faa:    701a        .p      STRB     r2,[r3,#0]
        0x00019fac:    f1bc0f03    ....    CMP      r12,#3
        0x00019fb0:    bf38        8.      IT       CC
        0x00019fb2:    bd10        ..      POPCC    {r4,pc}
        0x00019fb4:    f04f4260    O.`B    MOV      r2,#0xe0000000
        0x00019fb8:    e004        ..      B        0x19fc4 ; am_hal_itm_print + 208
        0x00019fba:    bf00        ..      NOP      
        0x00019fbc:    3004        .0      ADDS     r0,#4
        0x00019fbe:    3904        .9      SUBS     r1,#4
        0x00019fc0:    7013        .p      STRB     r3,[r2,#0]
        0x00019fc2:    d0cc        ..      BEQ      0x19f5e ; am_hal_itm_print + 106
        0x00019fc4:    7803        .x      LDRB     r3,[r0,#0]
        0x00019fc6:    bf00        ..      NOP      
        0x00019fc8:    6814        .h      LDR      r4,[r2,#0]
        0x00019fca:    b934        4.      CBNZ     r4,0x19fda ; am_hal_itm_print + 230
        0x00019fcc:    6814        .h      LDR      r4,[r2,#0]
        0x00019fce:    b924        $.      CBNZ     r4,0x19fda ; am_hal_itm_print + 230
        0x00019fd0:    6814        .h      LDR      r4,[r2,#0]
        0x00019fd2:    b914        ..      CBNZ     r4,0x19fda ; am_hal_itm_print + 230
        0x00019fd4:    6814        .h      LDR      r4,[r2,#0]
        0x00019fd6:    2c00        .,      CMP      r4,#0
        0x00019fd8:    d0f6        ..      BEQ      0x19fc8 ; am_hal_itm_print + 212
        0x00019fda:    7013        .p      STRB     r3,[r2,#0]
        0x00019fdc:    7843        Cx      LDRB     r3,[r0,#1]
        0x00019fde:    bf00        ..      NOP      
        0x00019fe0:    6814        .h      LDR      r4,[r2,#0]
        0x00019fe2:    b934        4.      CBNZ     r4,0x19ff2 ; am_hal_itm_print + 254
        0x00019fe4:    6814        .h      LDR      r4,[r2,#0]
        0x00019fe6:    b924        $.      CBNZ     r4,0x19ff2 ; am_hal_itm_print + 254
        0x00019fe8:    6814        .h      LDR      r4,[r2,#0]
        0x00019fea:    b914        ..      CBNZ     r4,0x19ff2 ; am_hal_itm_print + 254
        0x00019fec:    6814        .h      LDR      r4,[r2,#0]
        0x00019fee:    2c00        .,      CMP      r4,#0
        0x00019ff0:    d0f6        ..      BEQ      0x19fe0 ; am_hal_itm_print + 236
        0x00019ff2:    7013        .p      STRB     r3,[r2,#0]
        0x00019ff4:    7883        .x      LDRB     r3,[r0,#2]
        0x00019ff6:    bf00        ..      NOP      
        0x00019ff8:    6814        .h      LDR      r4,[r2,#0]
        0x00019ffa:    b934        4.      CBNZ     r4,0x1a00a ; am_hal_itm_print + 278
        0x00019ffc:    6814        .h      LDR      r4,[r2,#0]
        0x00019ffe:    b924        $.      CBNZ     r4,0x1a00a ; am_hal_itm_print + 278
        0x0001a000:    6814        .h      LDR      r4,[r2,#0]
        0x0001a002:    b914        ..      CBNZ     r4,0x1a00a ; am_hal_itm_print + 278
        0x0001a004:    6814        .h      LDR      r4,[r2,#0]
        0x0001a006:    2c00        .,      CMP      r4,#0
        0x0001a008:    d0f6        ..      BEQ      0x19ff8 ; am_hal_itm_print + 260
        0x0001a00a:    7013        .p      STRB     r3,[r2,#0]
        0x0001a00c:    78c3        .x      LDRB     r3,[r0,#3]
        0x0001a00e:    bf00        ..      NOP      
        0x0001a010:    6814        .h      LDR      r4,[r2,#0]
        0x0001a012:    2c00        .,      CMP      r4,#0
        0x0001a014:    d1d2        ..      BNE      0x19fbc ; am_hal_itm_print + 200
        0x0001a016:    6814        .h      LDR      r4,[r2,#0]
        0x0001a018:    2c00        .,      CMP      r4,#0
        0x0001a01a:    d1cf        ..      BNE      0x19fbc ; am_hal_itm_print + 200
        0x0001a01c:    6814        .h      LDR      r4,[r2,#0]
        0x0001a01e:    2c00        .,      CMP      r4,#0
        0x0001a020:    d1cc        ..      BNE      0x19fbc ; am_hal_itm_print + 200
        0x0001a022:    6814        .h      LDR      r4,[r2,#0]
        0x0001a024:    2c00        .,      CMP      r4,#0
        0x0001a026:    d0f3        ..      BEQ      0x1a010 ; am_hal_itm_print + 284
        0x0001a028:    e7c8        ..      B        0x19fbc ; am_hal_itm_print + 200
        0x0001a02a:    0000        ..      MOVS     r0,r0
    am_hal_mram_info_read
        0x0001a02c:    b580        ..      PUSH     {r7,lr}
        0x0001a02e:    2801        .(      CMP      r0,#1
        0x0001a030:    d010        ..      BEQ      0x1a054 ; am_hal_mram_info_read + 40
        0x0001a032:    2800        .(      CMP      r0,#0
        0x0001a034:    d14c        L.      BNE      0x1a0d0 ; am_hal_mram_info_read + 164
        0x0001a036:    2000        .       MOVS     r0,#0
        0x0001a038:    ebb02f51    ..Q/    CMP      r0,r1,LSR #9
        0x0001a03c:    f04f0002    O...    MOV      r0,#2
        0x0001a040:    d14b        K.      BNE      0x1a0da ; am_hal_mram_info_read + 174
        0x0001a042:    eb020c01    ....    ADD      r12,r2,r1
        0x0001a046:    f5bc7f00    ....    CMP      r12,#0x200
        0x0001a04a:    d846        F.      BHI      0x1a0da ; am_hal_mram_info_read + 174
        0x0001a04c:    f04f4084    O..@    MOV      r0,#0x42000000
        0x0001a050:    b992        ..      CBNZ     r2,0x1a078 ; am_hal_mram_info_read + 76
        0x0001a052:    e03a        :.      B        0x1a0ca ; am_hal_mram_info_read + 158
        0x0001a054:    f5a160c0    ...`    SUB      r0,r1,#0x600
        0x0001a058:    f5107fc0    ....    CMN      r0,#0x180
        0x0001a05c:    f04f0002    O...    MOV      r0,#2
        0x0001a060:    d33b        ;.      BCC      0x1a0da ; am_hal_mram_info_read + 174
        0x0001a062:    eb020c01    ....    ADD      r12,r2,r1
        0x0001a066:    f5bc6fc0    ...o    CMP      r12,#0x600
        0x0001a06a:    bf88        ..      IT       HI
        0x0001a06c:    bd80        ..      POPHI    {r7,pc}
        0x0001a06e:    f2420000    B...    MOVW     r0,#0x2000
        0x0001a072:    f2c42000    ...     MOVT     r0,#0x4200
        0x0001a076:    b342        B.      CBZ      r2,0x1a0ca ; am_hal_mram_info_read + 158
        0x0001a078:    eb000181    ....    ADD      r1,r0,r1,LSL #2
        0x0001a07c:    1e50        P.      SUBS     r0,r2,#1
        0x0001a07e:    2803        .(      CMP      r0,#3
        0x0001a080:    f0020c03    ....    AND      r12,r2,#3
        0x0001a084:    d314        ..      BCC      0x1a0b0 ; am_hal_mram_info_read + 132
        0x0001a086:    f0220203    "...    BIC      r2,r2,#3
        0x0001a08a:    bf00        ..      NOP      
        0x0001a08c:    6808        .h      LDR      r0,[r1,#0]
        0x0001a08e:    f1010e10    ....    ADD      lr,r1,#0x10
        0x0001a092:    6018        .`      STR      r0,[r3,#0]
        0x0001a094:    6848        Hh      LDR      r0,[r1,#4]
        0x0001a096:    3a04        .:      SUBS     r2,#4
        0x0001a098:    6058        X`      STR      r0,[r3,#4]
        0x0001a09a:    6888        .h      LDR      r0,[r1,#8]
        0x0001a09c:    6098        .`      STR      r0,[r3,#8]
        0x0001a09e:    68c9        .h      LDR      r1,[r1,#0xc]
        0x0001a0a0:    f1030010    ....    ADD      r0,r3,#0x10
        0x0001a0a4:    60d9        .`      STR      r1,[r3,#0xc]
        0x0001a0a6:    4671        qF      MOV      r1,lr
        0x0001a0a8:    4603        .F      MOV      r3,r0
        0x0001a0aa:    d1ef        ..      BNE      0x1a08c ; am_hal_mram_info_read + 96
        0x0001a0ac:    4671        qF      MOV      r1,lr
        0x0001a0ae:    4603        .F      MOV      r3,r0
        0x0001a0b0:    f1bc0f00    ....    CMP      r12,#0
        0x0001a0b4:    d009        ..      BEQ      0x1a0ca ; am_hal_mram_info_read + 158
        0x0001a0b6:    6808        .h      LDR      r0,[r1,#0]
        0x0001a0b8:    f1bc0f01    ....    CMP      r12,#1
        0x0001a0bc:    6018        .`      STR      r0,[r3,#0]
        0x0001a0be:    d004        ..      BEQ      0x1a0ca ; am_hal_mram_info_read + 158
        0x0001a0c0:    6848        Hh      LDR      r0,[r1,#4]
        0x0001a0c2:    f1bc0f02    ....    CMP      r12,#2
        0x0001a0c6:    6058        X`      STR      r0,[r3,#4]
        0x0001a0c8:    d104        ..      BNE      0x1a0d4 ; am_hal_mram_info_read + 168
        0x0001a0ca:    2000        .       MOVS     r0,#0
        0x0001a0cc:    bd80        ..      POP      {r7,pc}
        0x0001a0ce:    bf00        ..      NOP      
        0x0001a0d0:    2001        .       MOVS     r0,#1
        0x0001a0d2:    bd80        ..      POP      {r7,pc}
        0x0001a0d4:    6888        .h      LDR      r0,[r1,#8]
        0x0001a0d6:    6098        .`      STR      r0,[r3,#8]
        0x0001a0d8:    2000        .       MOVS     r0,#0
        0x0001a0da:    bd80        ..      POP      {r7,pc}
    am_hal_pwrctrl_control
        0x0001a0dc:    b5b0        ..      PUSH     {r4,r5,r7,lr}
        0x0001a0de:    2804        .(      CMP      r0,#4
        0x0001a0e0:    d84d        M.      BHI      0x1a17e ; am_hal_pwrctrl_control + 162
        0x0001a0e2:    e8dff000    ....    TBB      [pc,r0]
    $d.22
        0x0001a0e6:    1d03        ..      DCW    7427
        0x0001a0e8:    00453d2d    -=E.    DCD    4537645
    $t.23
        0x0001a0ec:    f2400418    @...    MOVW     r4,#0x18
        0x0001a0f0:    f2c10400    ....    MOVT     r4,#0x1000
        0x0001a0f4:    6820         h      LDR      r0,[r4,#0]
        0x0001a0f6:    2560        `%      MOVS     r5,#0x60
        0x0001a0f8:    1c41        A.      ADDS     r1,r0,#1
        0x0001a0fa:    f2c40502    ....    MOVT     r5,#0x4002
        0x0001a0fe:    d10a        ..      BNE      0x1a116 ; am_hal_pwrctrl_control + 58
        0x0001a100:    2001        .       MOVS     r0,#1
        0x0001a102:    f24041c4    @..A    MOV      r1,#0x4c4
        0x0001a106:    2201        ."      MOVS     r2,#1
        0x0001a108:    4623        #F      MOV      r3,r4
        0x0001a10a:    f7ffff8f    ....    BL       am_hal_mram_info_read ; 0x1a02c
        0x0001a10e:    bbc8        ..      CBNZ     r0,0x1a184 ; am_hal_pwrctrl_control + 168
        0x0001a110:    6820         h      LDR      r0,[r4,#0]
        0x0001a112:    1c41        A.      ADDS     r1,r0,#1
        0x0001a114:    d036        6.      BEQ      0x1a184 ; am_hal_pwrctrl_control + 168
        0x0001a116:    2802        .(      CMP      r0,#2
        0x0001a118:    d936        6.      BLS      0x1a188 ; am_hal_pwrctrl_control + 172
        0x0001a11a:    2100        .!      MOVS     r1,#0
        0x0001a11c:    e067        g.      B        0x1a1ee ; am_hal_pwrctrl_control + 274
        0x0001a11e:    bf00        ..      NOP      
        0x0001a120:    f2411000    A...    MOVW     r0,#0x1100
        0x0001a124:    f2c40002    ....    MOVT     r0,#0x4002
        0x0001a128:    f8500cf8    P...    LDR      r0,[r0,#-0xf8]
        0x0001a12c:    02c0        ..      LSLS     r0,r0,#11
        0x0001a12e:    d505        ..      BPL      0x1a13c ; am_hal_pwrctrl_control + 96
        0x0001a130:    2014        .       MOVS     r0,#0x14
        0x0001a132:    f000fa1f    ....    BL       am_hal_pwrctrl_periph_disable ; 0x1a574
        0x0001a136:    2800        .(      CMP      r0,#0
        0x0001a138:    bf18        ..      IT       NE
        0x0001a13a:    bdb0        ..      POPNE    {r4,r5,r7,pc}
        0x0001a13c:    2000        .       MOVS     r0,#0
        0x0001a13e:    bdb0        ..      POP      {r4,r5,r7,pc}
        0x0001a140:    2060        `       MOVS     r0,#0x60
        0x0001a142:    f2c40002    ....    MOVT     r0,#0x4002
        0x0001a146:    f8d010c4    ....    LDR      r1,[r0,#0xc4]
        0x0001a14a:    2220         "      MOVS     r2,#0x20
        0x0001a14c:    f3620187    b...    BFI      r1,r2,#2,#6
        0x0001a150:    f8c010c4    ....    STR      r1,[r0,#0xc4]
        0x0001a154:    2101        .!      MOVS     r1,#1
        0x0001a156:    f8c010c0    ....    STR      r1,[r0,#0xc0]
        0x0001a15a:    2000        .       MOVS     r0,#0
        0x0001a15c:    bdb0        ..      POP      {r4,r5,r7,pc}
        0x0001a15e:    bf00        ..      NOP      
        0x0001a160:    f2411100    A...    MOVW     r1,#0x1100
        0x0001a164:    f2c40102    ....    MOVT     r1,#0x4002
        0x0001a168:    2000        .       MOVS     r0,#0
        0x0001a16a:    f8410cfc    A...    STR      r0,[r1,#-0xfc]
        0x0001a16e:    bdb0        ..      POP      {r4,r5,r7,pc}
        0x0001a170:    b129        ).      CBZ      r1,0x1a17e ; am_hal_pwrctrl_control + 162
        0x0001a172:    f2401068    @.h.    MOVW     r0,#0x168
        0x0001a176:    f2c10000    ....    MOVT     r0,#0x1000
        0x0001a17a:    6a80        .j      LDR      r0,[r0,#0x28]
        0x0001a17c:    6008        .`      STR      r0,[r1,#0]
        0x0001a17e:    2006        .       MOVS     r0,#6
        0x0001a180:    bdb0        ..      POP      {r4,r5,r7,pc}
        0x0001a182:    bf00        ..      NOP      
        0x0001a184:    2000        .       MOVS     r0,#0
        0x0001a186:    6020         `      STR      r0,[r4,#0]
        0x0001a188:    f8d51318    ....    LDR      r1,[r5,#0x318]
        0x0001a18c:    220a        ."      MOVS     r2,#0xa
        0x0001a18e:    f02151f8    !..Q    BIC      r1,r1,#0x1f000000
        0x0001a192:    f8c51318    ....    STR      r1,[r5,#0x318]
        0x0001a196:    f8d512f8    ....    LDR      r1,[r5,#0x2f8]
        0x0001a19a:    f42101f8    !...    BIC      r1,r1,#0x7c0000
        0x0001a19e:    f8c512f8    ....    STR      r1,[r5,#0x2f8]
        0x0001a1a2:    f8d512e4    ....    LDR      r1,[r5,#0x2e4]
        0x0001a1a6:    f362611c    b..a    BFI      r1,r2,#24,#5
        0x0001a1aa:    f8c512e4    ....    STR      r1,[r5,#0x2e4]
        0x0001a1ae:    f8d512e4    ....    LDR      r1,[r5,#0x2e4]
        0x0001a1b2:    f36221ce    b..!    BFI      r1,r2,#11,#4
        0x0001a1b6:    f8c512e4    ....    STR      r1,[r5,#0x2e4]
        0x0001a1ba:    f8d512f8    ....    LDR      r1,[r5,#0x2f8]
        0x0001a1be:    220f        ."      MOVS     r2,#0xf
        0x0001a1c0:    f362210c    b..!    BFI      r1,r2,#8,#5
        0x0001a1c4:    f8c512f8    ....    STR      r1,[r5,#0x2f8]
        0x0001a1c8:    f8d512f4    ....    LDR      r1,[r5,#0x2f4]
        0x0001a1cc:    f44111f0    A...    ORR      r1,r1,#0x1e0000
        0x0001a1d0:    f8c512f4    ....    STR      r1,[r5,#0x2f4]
        0x0001a1d4:    f8d51300    ....    LDR      r1,[r5,#0x300]
        0x0001a1d8:    f362519a    b..Q    BFI      r1,r2,#22,#5
        0x0001a1dc:    f8c51300    ....    STR      r1,[r5,#0x300]
        0x0001a1e0:    f8d51300    ....    LDR      r1,[r5,#0x300]
        0x0001a1e4:    f44111f0    A...    ORR      r1,r1,#0x1e0000
        0x0001a1e8:    f8c51300    ....    STR      r1,[r5,#0x300]
        0x0001a1ec:    2101        .!      MOVS     r1,#1
        0x0001a1ee:    f8d522e8    ..."    LDR      r2,[r5,#0x2e8]
        0x0001a1f2:    230a        .#      MOVS     r3,#0xa
        0x0001a1f4:    f363629d    c..b    BFI      r2,r3,#26,#4
        0x0001a1f8:    f8c522e8    ..."    STR      r2,[r5,#0x2e8]
        0x0001a1fc:    f8d522e8    ..."    LDR      r2,[r5,#0x2e8]
        0x0001a200:    f3633250    c.P2    BFI      r2,r3,#13,#4
        0x0001a204:    f8c522e8    ..."    STR      r2,[r5,#0x2e8]
        0x0001a208:    f8d522fc    ..."    LDR      r2,[r5,#0x2fc]
        0x0001a20c:    f0427270    B.pr    ORR      r2,r2,#0x3c00000
        0x0001a210:    f8c522fc    ..."    STR      r2,[r5,#0x2fc]
        0x0001a214:    f8d522fc    ..."    LDR      r2,[r5,#0x2fc]
        0x0001a218:    f44252f0    B..R    ORR      r2,r2,#0x1e00
        0x0001a21c:    f8c522fc    ..."    STR      r2,[r5,#0x2fc]
        0x0001a220:    f8d52320    .. #    LDR      r2,[r5,#0x320]
        0x0001a224:    f0424200    B..B    ORR      r2,r2,#0x80000000
        0x0001a228:    f8c52320    .. #    STR      r2,[r5,#0x320]
        0x0001a22c:    f8d52320    .. #    LDR      r2,[r5,#0x320]
        0x0001a230:    f0424280    B..B    ORR      r2,r2,#0x40000000
        0x0001a234:    f8c52320    .. #    STR      r2,[r5,#0x320]
        0x0001a238:    f8d52310    ...#    LDR      r2,[r5,#0x310]
        0x0001a23c:    f3c25205    ...R    UBFX     r2,r2,#20,#6
        0x0001a240:    6062        b`      STR      r2,[r4,#4]
        0x0001a242:    f8d52310    ...#    LDR      r2,[r5,#0x310]
        0x0001a246:    f022727c    ".|r    BIC      r2,r2,#0x3f00000
        0x0001a24a:    f8c52310    ...#    STR      r2,[r5,#0x310]
        0x0001a24e:    f04f0207    O...    MOV      r2,#7
        0x0001a252:    f8c522dc    ..."    STR      r2,[r5,#0x2dc]
        0x0001a256:    b161        a.      CBZ      r1,0x1a272 ; am_hal_pwrctrl_control + 406
        0x0001a258:    f8d512e0    ....    LDR      r1,[r5,#0x2e0]
        0x0001a25c:    2201        ."      MOVS     r2,#1
        0x0001a25e:    f0217170    !.pq    BIC      r1,r1,#0x3c00000
        0x0001a262:    f8c512e0    ....    STR      r1,[r5,#0x2e0]
        0x0001a266:    f8d512e0    ....    LDR      r1,[r5,#0x2e0]
        0x0001a26a:    f362118a    b...    BFI      r1,r2,#6,#5
        0x0001a26e:    f8c512e0    ....    STR      r1,[r5,#0x2e0]
        0x0001a272:    2806        .(      CMP      r0,#6
        0x0001a274:    d308        ..      BCC      0x1a288 ; am_hal_pwrctrl_control + 428
        0x0001a276:    200f        .       MOVS     r0,#0xf
        0x0001a278:    f8c502dc    ....    STR      r0,[r5,#0x2dc]
        0x0001a27c:    f8d50150    ..P.    LDR      r0,[r5,#0x150]
        0x0001a280:    f0200018     ...    BIC      r0,r0,#0x18
        0x0001a284:    f8c50150    ..P.    STR      r0,[r5,#0x150]
        0x0001a288:    f2411000    A...    MOVW     r0,#0x1100
        0x0001a28c:    f2c40002    ....    MOVT     r0,#0x4002
        0x0001a290:    6801        .h      LDR      r1,[r0,#0]
        0x0001a292:    f0410101    A...    ORR      r1,r1,#1
        0x0001a296:    6001        .`      STR      r1,[r0,#0]
        0x0001a298:    f8d50318    ....    LDR      r0,[r5,#0x318]
        0x0001a29c:    f0404000    @..@    ORR      r0,r0,#0x80000000
        0x0001a2a0:    f8c50318    ....    STR      r0,[r5,#0x318]
        0x0001a2a4:    6828        (h      LDR      r0,[r5,#0]
        0x0001a2a6:    f4403000    @..0    ORR      r0,r0,#0x20000
        0x0001a2aa:    6028        (`      STR      r0,[r5,#0]
        0x0001a2ac:    6828        (h      LDR      r0,[r5,#0]
        0x0001a2ae:    f4402080    @..     ORR      r0,r0,#0x40000
        0x0001a2b2:    6028        (`      STR      r0,[r5,#0]
        0x0001a2b4:    6828        (h      LDR      r0,[r5,#0]
        0x0001a2b6:    f4402000    @..     ORR      r0,r0,#0x80000
        0x0001a2ba:    6028        (`      STR      r0,[r5,#0]
        0x0001a2bc:    6828        (h      LDR      r0,[r5,#0]
        0x0001a2be:    f4403080    @..0    ORR      r0,r0,#0x10000
        0x0001a2c2:    6028        (`      STR      r0,[r5,#0]
        0x0001a2c4:    6828        (h      LDR      r0,[r5,#0]
        0x0001a2c6:    f0200010     ...    BIC      r0,r0,#0x10
        0x0001a2ca:    6028        (`      STR      r0,[r5,#0]
        0x0001a2cc:    6828        (h      LDR      r0,[r5,#0]
        0x0001a2ce:    f040000e    @...    ORR      r0,r0,#0xe
        0x0001a2d2:    6028        (`      STR      r0,[r5,#0]
        0x0001a2d4:    6828        (h      LDR      r0,[r5,#0]
        0x0001a2d6:    f0400001    @...    ORR      r0,r0,#1
        0x0001a2da:    6028        (`      STR      r0,[r5,#0]
        0x0001a2dc:    6828        (h      LDR      r0,[r5,#0]
        0x0001a2de:    f4207000     ..p    BIC      r0,r0,#0x200
        0x0001a2e2:    6028        (`      STR      r0,[r5,#0]
        0x0001a2e4:    6828        (h      LDR      r0,[r5,#0]
        0x0001a2e6:    f44070e0    @..p    ORR      r0,r0,#0x1c0
        0x0001a2ea:    6028        (`      STR      r0,[r5,#0]
        0x0001a2ec:    6828        (h      LDR      r0,[r5,#0]
        0x0001a2ee:    f0400020    @. .    ORR      r0,r0,#0x20
        0x0001a2f2:    6028        (`      STR      r0,[r5,#0]
        0x0001a2f4:    2000        .       MOVS     r0,#0
        0x0001a2f6:    bdb0        ..      POP      {r4,r5,r7,pc}
    am_hal_pwrctrl_low_power_init
        0x0001a2f8:    b5f0        ..      PUSH     {r4-r7,lr}
        0x0001a2fa:    b081        ..      SUB      sp,sp,#4
        0x0001a2fc:    f2410608    A...    MOV      r6,#0x1008
        0x0001a300:    f2c40602    ....    MOVT     r6,#0x4002
        0x0001a304:    6830        0h      LDR      r0,[r6,#0]
        0x0001a306:    f2401468    @.h.    MOVW     r4,#0x168
        0x0001a30a:    f3c05000    ...P    UBFX     r0,r0,#20,#1
        0x0001a30e:    f2c10400    ....    MOVT     r4,#0x1000
        0x0001a312:    7020         p      STRB     r0,[r4,#0]
        0x0001a314:    f64e3058    N.X0    MOV      r0,#0xeb58
        0x0001a318:    2588        .%      MOVS     r5,#0x88
        0x0001a31a:    f2c00001    ....    MOVT     r0,#1
        0x0001a31e:    f2c40502    ....    MOVT     r5,#0x4002
        0x0001a322:    f000f89f    ....    BL       am_hal_pwrctrl_mcu_memory_config ; 0x1a464
        0x0001a326:    f64e305e    N.^0    MOV      r0,#0xeb5e
        0x0001a32a:    f2c00001    ....    MOVT     r0,#1
        0x0001a32e:    f000fa8d    ....    BL       am_hal_pwrctrl_sram_config ; 0x1a84c
        0x0001a332:    f2440744    D.D.    MOV      r7,#0x4044
        0x0001a336:    f2c40700    ....    MOVT     r7,#0x4000
        0x0001a33a:    6838        8h      LDR      r0,[r7,#0]
        0x0001a33c:    f440007c    @.|.    ORR      r0,r0,#0xfc0000
        0x0001a340:    6038        8`      STR      r0,[r7,#0]
        0x0001a342:    2000        .       MOVS     r0,#0
        0x0001a344:    f8c60138    ..8.    STR      r0,[r6,#0x138]
        0x0001a348:    f8c6013c    ..<.    STR      r0,[r6,#0x13c]
        0x0001a34c:    f8c60140    ..@.    STR      r0,[r6,#0x140]
        0x0001a350:    f8c60144    ..D.    STR      r0,[r6,#0x144]
        0x0001a354:    f8c60148    ..H.    STR      r0,[r6,#0x148]
        0x0001a358:    f8c6014c    ..L.    STR      r0,[r6,#0x14c]
        0x0001a35c:    f8c60150    ..P.    STR      r0,[r6,#0x150]
        0x0001a360:    f8c60154    ..T.    STR      r0,[r6,#0x154]
        0x0001a364:    f8c60158    ..X.    STR      r0,[r6,#0x158]
        0x0001a368:    f8c6015c    ..\.    STR      r0,[r6,#0x15c]
        0x0001a36c:    f8c60160    ..`.    STR      r0,[r6,#0x160]
        0x0001a370:    f8c60164    ..d.    STR      r0,[r6,#0x164]
        0x0001a374:    f8c60168    ..h.    STR      r0,[r6,#0x168]
        0x0001a378:    f8c6016c    ..l.    STR      r0,[r6,#0x16c]
        0x0001a37c:    f8c60170    ..p.    STR      r0,[r6,#0x170]
        0x0001a380:    f8c60174    ..t.    STR      r0,[r6,#0x174]
        0x0001a384:    f8c60178    ..x.    STR      r0,[r6,#0x178]
        0x0001a388:    f8c6017c    ..|.    STR      r0,[r6,#0x17c]
        0x0001a38c:    f8c60180    ....    STR      r0,[r6,#0x180]
        0x0001a390:    f64e1026    N.&.    MOV      r0,#0xe926
        0x0001a394:    f2c00001    ....    MOVT     r0,#1
        0x0001a398:    f7fffa9e    ....    BL       am_hal_daxi_config ; 0x198d8
        0x0001a39c:    2064        d       MOVS     r0,#0x64
        0x0001a39e:    f7fffbef    ....    BL       am_hal_delay_us ; 0x19b80
        0x0001a3a2:    6838        8h      LDR      r0,[r7,#0]
        0x0001a3a4:    2104        .!      MOVS     r1,#4
        0x0001a3a6:    f0400040    @.@.    ORR      r0,r0,#0x40
        0x0001a3aa:    6038        8`      STR      r0,[r7,#0]
        0x0001a3ac:    f8d502f4    ....    LDR      r0,[r5,#0x2f4]
        0x0001a3b0:    f04060b0    @..`    ORR      r0,r0,#0x5800000
        0x0001a3b4:    f44000fd    @...    ORR      r0,r0,#0x7e8000
        0x0001a3b8:    f8c502f4    ....    STR      r0,[r5,#0x2f4]
        0x0001a3bc:    f8d503bc    ....    LDR      r0,[r5,#0x3bc]
        0x0001a3c0:    f361200f    a..     BFI      r0,r1,#8,#8
        0x0001a3c4:    f8c503bc    ....    STR      r0,[r5,#0x3bc]
        0x0001a3c8:    7860        `x      LDRB     r0,[r4,#1]
        0x0001a3ca:    2801        .(      CMP      r0,#1
        0x0001a3cc:    d102        ..      BNE      0x1a3d4 ; am_hal_pwrctrl_low_power_init + 220
        0x0001a3ce:    e9d40104    ....    LDRD     r0,r1,[r4,#0x10]
        0x0001a3d2:    e01c        ..      B        0x1a40e ; am_hal_pwrctrl_low_power_init + 278
        0x0001a3d4:    f8d502e4    ....    LDR      r0,[r5,#0x2e4]
        0x0001a3d8:    f3c05005    ...P    UBFX     r0,r0,#20,#6
        0x0001a3dc:    6120         a      STR      r0,[r4,#0x10]
        0x0001a3de:    6829        )h      LDR      r1,[r5,#0]
        0x0001a3e0:    f001013f    ..?.    AND      r1,r1,#0x3f
        0x0001a3e4:    6161        aa      STR      r1,[r4,#0x14]
        0x0001a3e6:    f8d522e4    ..."    LDR      r2,[r5,#0x2e4]
        0x0001a3ea:    0e92        ..      LSRS     r2,r2,#26
        0x0001a3ec:    61a2        .a      STR      r2,[r4,#0x18]
        0x0001a3ee:    682a        *h      LDR      r2,[r5,#0]
        0x0001a3f0:    f3c24285    ...B    UBFX     r2,r2,#18,#6
        0x0001a3f4:    61e2        .a      STR      r2,[r4,#0x1c]
        0x0001a3f6:    f8552c44    U.D,    LDR      r2,[r5,#-0x44]
        0x0001a3fa:    f3c212c6    ....    UBFX     r2,r2,#7,#7
        0x0001a3fe:    6222        "b      STR      r2,[r4,#0x20]
        0x0001a400:    f8552c08    U..,    LDR      r2,[r5,#-8]
        0x0001a404:    f36f229f    o.."    BFC      r2,#10,#22
        0x0001a408:    6262        bb      STR      r2,[r4,#0x24]
        0x0001a40a:    2201        ."      MOVS     r2,#1
        0x0001a40c:    7062        bp      STRB     r2,[r4,#1]
        0x0001a40e:    2200        ."      MOVS     r2,#0
        0x0001a410:    1d23        #.      ADDS     r3,r4,#4
        0x0001a412:    c307        ..      STM      r3!,{r0-r2}
        0x0001a414:    466b        kF      MOV      r3,sp
        0x0001a416:    2001        .       MOVS     r0,#1
        0x0001a418:    f44f6192    O..a    MOV      r1,#0x490
        0x0001a41c:    2201        ."      MOVS     r2,#1
        0x0001a41e:    f7fffe05    ....    BL       am_hal_mram_info_read ; 0x1a02c
        0x0001a422:    b118        ..      CBZ      r0,0x1a42c ; am_hal_pwrctrl_low_power_init + 308
        0x0001a424:    2000        .       MOVS     r0,#0
        0x0001a426:    b001        ..      ADD      sp,sp,#4
        0x0001a428:    bdf0        ..      POP      {r4-r7,pc}
        0x0001a42a:    bf00        ..      NOP      
        0x0001a42c:    9800        ..      LDR      r0,[sp,#0]
        0x0001a42e:    f0100f06    ....    TST      r0,#6
        0x0001a432:    d007        ..      BEQ      0x1a444 ; am_hal_pwrctrl_low_power_init + 332
        0x0001a434:    0781        ..      LSLS     r1,r0,#30
        0x0001a436:    d40b        ..      BMI      0x1a450 ; am_hal_pwrctrl_low_power_init + 344
        0x0001a438:    2006        .       MOVS     r0,#6
        0x0001a43a:    60e0        .`      STR      r0,[r4,#0xc]
        0x0001a43c:    2000        .       MOVS     r0,#0
        0x0001a43e:    b001        ..      ADD      sp,sp,#4
        0x0001a440:    bdf0        ..      POP      {r4-r7,pc}
        0x0001a442:    bf00        ..      NOP      
        0x0001a444:    2003        .       MOVS     r0,#3
        0x0001a446:    60e0        .`      STR      r0,[r4,#0xc]
        0x0001a448:    2000        .       MOVS     r0,#0
        0x0001a44a:    b001        ..      ADD      sp,sp,#4
        0x0001a44c:    bdf0        ..      POP      {r4-r7,pc}
        0x0001a44e:    bf00        ..      NOP      
        0x0001a450:    0740        @.      LSLS     r0,r0,#29
        0x0001a452:    f04f0000    O...    MOV      r0,#0
        0x0001a456:    bf58        X.      IT       PL
        0x0001a458:    2009        .       MOVPL    r0,#9
        0x0001a45a:    60e0        .`      STR      r0,[r4,#0xc]
        0x0001a45c:    2000        .       MOVS     r0,#0
        0x0001a45e:    b001        ..      ADD      sp,sp,#4
        0x0001a460:    bdf0        ..      POP      {r4-r7,pc}
        0x0001a462:    0000        ..      MOVS     r0,r0
    am_hal_pwrctrl_mcu_memory_config
        0x0001a464:    b570        p.      PUSH     {r4-r6,lr}
        0x0001a466:    b082        ..      SUB      sp,sp,#8
        0x0001a468:    4606        .F      MOV      r6,r0
        0x0001a46a:    7800        .x      LDRB     r0,[r0,#0]
        0x0001a46c:    f2410514    A...    MOV      r5,#0x1014
        0x0001a470:    2802        .(      CMP      r0,#2
        0x0001a472:    f2c40502    ....    MOVT     r5,#0x4002
        0x0001a476:    d007        ..      BEQ      0x1a488 ; am_hal_pwrctrl_mcu_memory_config + 36
        0x0001a478:    2801        .(      CMP      r0,#1
        0x0001a47a:    d00d        ..      BEQ      0x1a498 ; am_hal_pwrctrl_mcu_memory_config + 52
        0x0001a47c:    b9a0        ..      CBNZ     r0,0x1a4a8 ; am_hal_pwrctrl_mcu_memory_config + 68
        0x0001a47e:    6828        (h      LDR      r0,[r5,#0]
        0x0001a480:    f0200010     ...    BIC      r0,r0,#0x10
        0x0001a484:    e00b        ..      B        0x1a49e ; am_hal_pwrctrl_mcu_memory_config + 58
        0x0001a486:    bf00        ..      NOP      
        0x0001a488:    6828        (h      LDR      r0,[r5,#0]
        0x0001a48a:    f0400010    @...    ORR      r0,r0,#0x10
        0x0001a48e:    6028        (`      STR      r0,[r5,#0]
        0x0001a490:    6828        (h      LDR      r0,[r5,#0]
        0x0001a492:    f0400020    @. .    ORR      r0,r0,#0x20
        0x0001a496:    e006        ..      B        0x1a4a6 ; am_hal_pwrctrl_mcu_memory_config + 66
        0x0001a498:    6828        (h      LDR      r0,[r5,#0]
        0x0001a49a:    f0400010    @...    ORR      r0,r0,#0x10
        0x0001a49e:    6028        (`      STR      r0,[r5,#0]
        0x0001a4a0:    6828        (h      LDR      r0,[r5,#0]
        0x0001a4a2:    f0200020     . .    BIC      r0,r0,#0x20
        0x0001a4a6:    6028        (`      STR      r0,[r5,#0]
        0x0001a4a8:    78b0        .x      LDRB     r0,[r6,#2]
        0x0001a4aa:    6829        )h      LDR      r1,[r5,#0]
        0x0001a4ac:    2401        .$      MOVS     r4,#1
        0x0001a4ae:    f3600102    `...    BFI      r1,r0,#0,#3
        0x0001a4b2:    6029        )`      STR      r1,[r5,#0]
        0x0001a4b4:    7930        0y      LDRB     r0,[r6,#4]
        0x0001a4b6:    6829        )h      LDR      r1,[r5,#0]
        0x0001a4b8:    f000001f    ....    AND      r0,r0,#0x1f
        0x0001a4bc:    f0210108    !...    BIC      r1,r1,#8
        0x0001a4c0:    ea4100c0    A...    ORR      r0,r1,r0,LSL #3
        0x0001a4c4:    6028        (`      STR      r0,[r5,#0]
        0x0001a4c6:    4629        )F      MOV      r1,r5
        0x0001a4c8:    f8513b04    Q..;    LDR      r3,[r1],#4
        0x0001a4cc:    2005        .       MOVS     r0,#5
        0x0001a4ce:    223f        ?"      MOVS     r2,#0x3f
        0x0001a4d0:    9400        ..      STR      r4,[sp,#0]
        0x0001a4d2:    f7fffb9d    ....    BL       am_hal_delay_us_status_check ; 0x19c10
        0x0001a4d6:    b108        ..      CBZ      r0,0x1a4dc ; am_hal_pwrctrl_mcu_memory_config + 120
        0x0001a4d8:    b002        ..      ADD      sp,sp,#8
        0x0001a4da:    bd70        p.      POP      {r4-r6,pc}
        0x0001a4dc:    6868        hh      LDR      r0,[r5,#4]
        0x0001a4de:    6829        )h      LDR      r1,[r5,#0]
        0x0001a4e0:    4048        H@      EORS     r0,r0,r1
        0x0001a4e2:    06c0        ..      LSLS     r0,r0,#27
        0x0001a4e4:    d42e        ..      BMI      0x1a544 ; am_hal_pwrctrl_mcu_memory_config + 224
        0x0001a4e6:    6868        hh      LDR      r0,[r5,#4]
        0x0001a4e8:    6829        )h      LDR      r1,[r5,#0]
        0x0001a4ea:    4048        H@      EORS     r0,r0,r1
        0x0001a4ec:    0680        ..      LSLS     r0,r0,#26
        0x0001a4ee:    d429        ).      BMI      0x1a544 ; am_hal_pwrctrl_mcu_memory_config + 224
        0x0001a4f0:    6868        hh      LDR      r0,[r5,#4]
        0x0001a4f2:    6829        )h      LDR      r1,[r5,#0]
        0x0001a4f4:    4048        H@      EORS     r0,r0,r1
        0x0001a4f6:    0740        @.      LSLS     r0,r0,#29
        0x0001a4f8:    d124        $.      BNE      0x1a544 ; am_hal_pwrctrl_mcu_memory_config + 224
        0x0001a4fa:    6868        hh      LDR      r0,[r5,#4]
        0x0001a4fc:    6829        )h      LDR      r1,[r5,#0]
        0x0001a4fe:    4048        H@      EORS     r0,r0,r1
        0x0001a500:    0700        ..      LSLS     r0,r0,#28
        0x0001a502:    d41f        ..      BMI      0x1a544 ; am_hal_pwrctrl_mcu_memory_config + 224
        0x0001a504:    7870        px      LDRB     r0,[r6,#1]
        0x0001a506:    68a9        .h      LDR      r1,[r5,#8]
        0x0001a508:    2800        .(      CMP      r0,#0
        0x0001a50a:    f0210110    !...    BIC      r1,r1,#0x10
        0x0001a50e:    bf08        ..      IT       EQ
        0x0001a510:    3110        .1      ADDEQ    r1,r1,#0x10
        0x0001a512:    60a9        .`      STR      r1,[r5,#8]
        0x0001a514:    7970        py      LDRB     r0,[r6,#5]
        0x0001a516:    68a9        .h      LDR      r1,[r5,#8]
        0x0001a518:    2800        .(      CMP      r0,#0
        0x0001a51a:    f0210108    !...    BIC      r1,r1,#8
        0x0001a51e:    bf08        ..      IT       EQ
        0x0001a520:    3108        .1      ADDEQ    r1,r1,#8
        0x0001a522:    60a9        .`      STR      r1,[r5,#8]
        0x0001a524:    78f1        .x      LDRB     r1,[r6,#3]
        0x0001a526:    2000        .       MOVS     r0,#0
        0x0001a528:    2907        .)      CMP      r1,#7
        0x0001a52a:    d8d5        ..      BHI      0x1a4d8 ; am_hal_pwrctrl_mcu_memory_config + 116
        0x0001a52c:    e8dff001    ....    TBB      [pc,r1]
    $d.3
        0x0001a530:    14040e06    ....    DCD    335810054
        0x0001a534:    1a040404    ....    DCD    436470788
    $t.4
        0x0001a538:    e7ce        ..      B        0x1a4d8 ; am_hal_pwrctrl_mcu_memory_config + 116
        0x0001a53a:    bf00        ..      NOP      
        0x0001a53c:    68a8        .h      LDR      r0,[r5,#8]
        0x0001a53e:    f0400007    @...    ORR      r0,r0,#7
        0x0001a542:    e012        ..      B        0x1a56a ; am_hal_pwrctrl_mcu_memory_config + 262
        0x0001a544:    2001        .       MOVS     r0,#1
        0x0001a546:    b002        ..      ADD      sp,sp,#8
        0x0001a548:    bd70        p.      POP      {r4-r6,pc}
        0x0001a54a:    bf00        ..      NOP      
        0x0001a54c:    68a8        .h      LDR      r0,[r5,#8]
        0x0001a54e:    2106        .!      MOVS     r1,#6
        0x0001a550:    f3610002    a...    BFI      r0,r1,#0,#3
        0x0001a554:    e009        ..      B        0x1a56a ; am_hal_pwrctrl_mcu_memory_config + 262
        0x0001a556:    bf00        ..      NOP      
        0x0001a558:    68a8        .h      LDR      r0,[r5,#8]
        0x0001a55a:    2104        .!      MOVS     r1,#4
        0x0001a55c:    f3610002    a...    BFI      r0,r1,#0,#3
        0x0001a560:    e003        ..      B        0x1a56a ; am_hal_pwrctrl_mcu_memory_config + 262
        0x0001a562:    bf00        ..      NOP      
        0x0001a564:    68a8        .h      LDR      r0,[r5,#8]
        0x0001a566:    f0200007     ...    BIC      r0,r0,#7
        0x0001a56a:    60a8        .`      STR      r0,[r5,#8]
        0x0001a56c:    2000        .       MOVS     r0,#0
        0x0001a56e:    b002        ..      ADD      sp,sp,#8
        0x0001a570:    bd70        p.      POP      {r4-r6,pc}
        0x0001a572:    0000        ..      MOVS     r0,r0
    am_hal_pwrctrl_periph_disable
        0x0001a574:    e92d43f0    -..C    PUSH     {r4-r9,lr}
        0x0001a578:    b083        ..      SUB      sp,sp,#0xc
        0x0001a57a:    2821        !(      CMP      r0,#0x21
        0x0001a57c:    d904        ..      BLS      0x1a588 ; am_hal_pwrctrl_periph_disable + 20
        0x0001a57e:    2406        .$      MOVS     r4,#6
        0x0001a580:    4620         F      MOV      r0,r4
        0x0001a582:    b003        ..      ADD      sp,sp,#0xc
        0x0001a584:    e8bd83f0    ....    POP      {r4-r9,pc}
        0x0001a588:    f64e1138    N.8.    MOV      r1,#0xe938
        0x0001a58c:    f2c00101    ....    MOVT     r1,#1
        0x0001a590:    0102        ..      LSLS     r2,r0,#4
        0x0001a592:    f8518002    Q...    LDR      r8,[r1,r2]
        0x0001a596:    eb011500    ....    ADD      r5,r1,r0,LSL #4
        0x0001a59a:    686f        oh      LDR      r7,[r5,#4]
        0x0001a59c:    f8d81000    ....    LDR      r1,[r8,#0]
        0x0001a5a0:    4239        9B      TST      r1,r7
        0x0001a5a2:    d074        t.      BEQ      0x1a68e ; am_hal_pwrctrl_periph_disable + 282
        0x0001a5a4:    2814        .(      CMP      r0,#0x14
        0x0001a5a6:    d12d        -.      BNE      0x1a604 ; am_hal_pwrctrl_periph_disable + 144
        0x0001a5a8:    f64076e0    @..v    MOVW     r6,#0xfe0
        0x0001a5ac:    f2c4060c    ....    MOVT     r6,#0x400c
        0x0001a5b0:    6830        0h      LDR      r0,[r6,#0]
        0x0001a5b2:    28c0        .(      CMP      r0,#0xc0
        0x0001a5b4:    d126        &.      BNE      0x1a604 ; am_hal_pwrctrl_periph_disable + 144
        0x0001a5b6:    f6402980    @..)    MOVW     r9,#0xa80
        0x0001a5ba:    f2c4090c    ....    MOVT     r9,#0x400c
        0x0001a5be:    f1a90104    ....    SUB      r1,r9,#4
        0x0001a5c2:    2064        d       MOVS     r0,#0x64
        0x0001a5c4:    2201        ."      MOVS     r2,#1
        0x0001a5c6:    2301        .#      MOVS     r3,#1
        0x0001a5c8:    f7fffaf6    ....    BL       am_hal_delay_us_status_change ; 0x19bb8
        0x0001a5cc:    4604        .F      MOV      r4,r0
        0x0001a5ce:    2800        .(      CMP      r0,#0
        0x0001a5d0:    d1d6        ..      BNE      0x1a580 ; am_hal_pwrctrl_periph_disable + 12
        0x0001a5d2:    f5066173    ..sa    ADD      r1,r6,#0xf30
        0x0001a5d6:    2064        d       MOVS     r0,#0x64
        0x0001a5d8:    2201        ."      MOVS     r2,#1
        0x0001a5da:    2301        .#      MOVS     r3,#1
        0x0001a5dc:    f7fffaec    ....    BL       am_hal_delay_us_status_change ; 0x19bb8
        0x0001a5e0:    4604        .F      MOV      r4,r0
        0x0001a5e2:    2800        .(      CMP      r0,#0
        0x0001a5e4:    d1cc        ..      BNE      0x1a580 ; am_hal_pwrctrl_periph_disable + 12
        0x0001a5e6:    f8d90000    ....    LDR      r0,[r9,#0]
        0x0001a5ea:    f0400001    @...    ORR      r0,r0,#1
        0x0001a5ee:    f8c90000    ....    STR      r0,[r9,#0]
        0x0001a5f2:    f2401068    @.h.    MOVW     r0,#0x168
        0x0001a5f6:    f2c10000    ....    MOVT     r0,#0x1000
        0x0001a5fa:    68c1        .h      LDR      r1,[r0,#0xc]
        0x0001a5fc:    b111        ..      CBZ      r1,0x1a604 ; am_hal_pwrctrl_periph_disable + 144
        0x0001a5fe:    2000        .       MOVS     r0,#0
        0x0001a600:    f002fe80    ....    BL       crypto_boost_trims ; 0x1d304
        0x0001a604:    e9d56502    ...e    LDRD     r6,r5,[r5,#8]
        0x0001a608:    f7fffc3c    ..<.    BL       am_hal_interrupt_master_disable ; 0x19e84
        0x0001a60c:    9002        ..      STR      r0,[sp,#8]
        0x0001a60e:    f8d80000    ....    LDR      r0,[r8,#0]
        0x0001a612:    43b8        .C      BICS     r0,r0,r7
        0x0001a614:    f8c80000    ....    STR      r0,[r8,#0]
        0x0001a618:    9802        ..      LDR      r0,[sp,#8]
        0x0001a61a:    f7fffc3b    ..;.    BL       am_hal_interrupt_master_set ; 0x19e94
        0x0001a61e:    2400        .$      MOVS     r4,#0
        0x0001a620:    2005        .       MOVS     r0,#5
        0x0001a622:    4631        1F      MOV      r1,r6
        0x0001a624:    462a        *F      MOV      r2,r5
        0x0001a626:    462b        +F      MOV      r3,r5
        0x0001a628:    9400        ..      STR      r4,[sp,#0]
        0x0001a62a:    f7fffaf1    ....    BL       am_hal_delay_us_status_check ; 0x19c10
        0x0001a62e:    2800        .(      CMP      r0,#0
        0x0001a630:    d0a6        ..      BEQ      0x1a580 ; am_hal_pwrctrl_periph_disable + 12
        0x0001a632:    f5b57ff0    ....    CMP      r5,#0x1e0
        0x0001a636:    f04f0400    O...    MOV      r4,#0
        0x0001a63a:    db0d        ..      BLT      0x1a658 ; am_hal_pwrctrl_periph_disable + 228
        0x0001a63c:    d01a        ..      BEQ      0x1a674 ; am_hal_pwrctrl_periph_disable + 256
        0x0001a63e:    f5b53fe0    ...?    CMP      r5,#0x1c000
        0x0001a642:    d01d        ..      BEQ      0x1a680 ; am_hal_pwrctrl_periph_disable + 268
        0x0001a644:    f5b55ff0    ..._    CMP      r5,#0x1e00
        0x0001a648:    d19a        ..      BNE      0x1a580 ; am_hal_pwrctrl_periph_disable + 12
        0x0001a64a:    f8d80000    ....    LDR      r0,[r8,#0]
        0x0001a64e:    f4105ff0    ..._    TST      r0,#0x1e00
        0x0001a652:    d11a        ..      BNE      0x1a68a ; am_hal_pwrctrl_periph_disable + 278
        0x0001a654:    e01b        ..      B        0x1a68e ; am_hal_pwrctrl_periph_disable + 282
        0x0001a656:    bf00        ..      NOP      
        0x0001a658:    2d1e        .-      CMP      r5,#0x1e
        0x0001a65a:    d01d        ..      BEQ      0x1a698 ; am_hal_pwrctrl_periph_disable + 292
        0x0001a65c:    2dff        .-      CMP      r5,#0xff
        0x0001a65e:    f47faf8f    ....    BNE.W    0x1a580 ; am_hal_pwrctrl_periph_disable + 12
        0x0001a662:    f8d80000    ....    LDR      r0,[r8,#0]
        0x0001a666:    0600        ..      LSLS     r0,r0,#24
        0x0001a668:    d10f        ..      BNE      0x1a68a ; am_hal_pwrctrl_periph_disable + 278
        0x0001a66a:    2400        .$      MOVS     r4,#0
        0x0001a66c:    4620         F      MOV      r0,r4
        0x0001a66e:    b003        ..      ADD      sp,sp,#0xc
        0x0001a670:    e8bd83f0    ....    POP      {r4-r9,pc}
        0x0001a674:    f8d80000    ....    LDR      r0,[r8,#0]
        0x0001a678:    f4107ff0    ....    TST      r0,#0x1e0
        0x0001a67c:    d105        ..      BNE      0x1a68a ; am_hal_pwrctrl_periph_disable + 278
        0x0001a67e:    e006        ..      B        0x1a68e ; am_hal_pwrctrl_periph_disable + 282
        0x0001a680:    f8d80000    ....    LDR      r0,[r8,#0]
        0x0001a684:    f4103fe0    ...?    TST      r0,#0x1c000
        0x0001a688:    d001        ..      BEQ      0x1a68e ; am_hal_pwrctrl_periph_disable + 282
        0x0001a68a:    f8d80000    ....    LDR      r0,[r8,#0]
        0x0001a68e:    2400        .$      MOVS     r4,#0
        0x0001a690:    4620         F      MOV      r0,r4
        0x0001a692:    b003        ..      ADD      sp,sp,#0xc
        0x0001a694:    e8bd83f0    ....    POP      {r4-r9,pc}
        0x0001a698:    f8d80000    ....    LDR      r0,[r8,#0]
        0x0001a69c:    f0100f1e    ....    TST      r0,#0x1e
        0x0001a6a0:    d1f3        ..      BNE      0x1a68a ; am_hal_pwrctrl_periph_disable + 278
        0x0001a6a2:    e7f4        ..      B        0x1a68e ; am_hal_pwrctrl_periph_disable + 282
    am_hal_pwrctrl_periph_enable
        0x0001a6a4:    e92d4ff0    -..O    PUSH     {r4-r11,lr}
        0x0001a6a8:    b085        ..      SUB      sp,sp,#0x14
        0x0001a6aa:    2821        !(      CMP      r0,#0x21
        0x0001a6ac:    d904        ..      BLS      0x1a6b8 ; am_hal_pwrctrl_periph_enable + 20
        0x0001a6ae:    2706        .'      MOVS     r7,#6
        0x0001a6b0:    4638        8F      MOV      r0,r7
        0x0001a6b2:    b005        ..      ADD      sp,sp,#0x14
        0x0001a6b4:    e8bd8ff0    ....    POP      {r4-r11,pc}
        0x0001a6b8:    4606        .F      MOV      r6,r0
        0x0001a6ba:    f64e1138    N.8.    MOV      r1,#0xe938
        0x0001a6be:    f2c00101    ....    MOVT     r1,#1
        0x0001a6c2:    0132        2.      LSLS     r2,r6,#4
        0x0001a6c4:    588f        .X      LDR      r7,[r1,r2]
        0x0001a6c6:    eb011000    ....    ADD      r0,r1,r0,LSL #4
        0x0001a6ca:    6845        Eh      LDR      r5,[r0,#4]
        0x0001a6cc:    6839        9h      LDR      r1,[r7,#0]
        0x0001a6ce:    4229        )B      TST      r1,r5
        0x0001a6d0:    d004        ..      BEQ      0x1a6dc ; am_hal_pwrctrl_periph_enable + 56
        0x0001a6d2:    2700        .'      MOVS     r7,#0
        0x0001a6d4:    4638        8F      MOV      r0,r7
        0x0001a6d6:    b005        ..      ADD      sp,sp,#0x14
        0x0001a6d8:    e8bd8ff0    ....    POP      {r4-r11,pc}
        0x0001a6dc:    e9d08902    ....    LDRD     r8,r9,[r0,#8]
        0x0001a6e0:    f2401a68    @.h.    MOVW     r10,#0x168
        0x0001a6e4:    2e14        ..      CMP      r6,#0x14
        0x0001a6e6:    f2c10a00    ....    MOVT     r10,#0x1000
        0x0001a6ea:    d140        @.      BNE      0x1a76e ; am_hal_pwrctrl_periph_enable + 202
        0x0001a6ec:    f8da400c    ...@    LDR      r4,[r10,#0xc]
        0x0001a6f0:    b3ec        ..      CBZ      r4,0x1a76e ; am_hal_pwrctrl_periph_enable + 202
        0x0001a6f2:    f89a0000    ....    LDRB     r0,[r10,#0]
        0x0001a6f6:    bbd0        ..      CBNZ     r0,0x1a76e ; am_hal_pwrctrl_periph_enable + 202
        0x0001a6f8:    f7fffbc4    ....    BL       am_hal_interrupt_master_disable ; 0x19e84
        0x0001a6fc:    9003        ..      STR      r0,[sp,#0xc]
        0x0001a6fe:    2001        .       MOVS     r0,#1
        0x0001a700:    f88a0000    ....    STRB     r0,[r10,#0]
        0x0001a704:    e9da0101    ....    LDRD     r0,r1,[r10,#4]
        0x0001a708:    223f        ?"      MOVS     r2,#0x3f
        0x0001a70a:    4420         D      ADD      r0,r0,r4
        0x0001a70c:    283f        ?(      CMP      r0,#0x3f
        0x0001a70e:    bf38        8.      IT       CC
        0x0001a710:    4602        .F      MOVCC    r2,r0
        0x0001a712:    440c        .D      ADD      r4,r4,r1
        0x0001a714:    f8cd8004    ....    STR      r8,[sp,#4]
        0x0001a718:    f2400888    @...    MOVW     r8,#0x88
        0x0001a71c:    e9ca0401    ....    STRD     r0,r4,[r10,#4]
        0x0001a720:    f2c40802    ....    MOVT     r8,#0x4002
        0x0001a724:    f8d812e4    ....    LDR      r1,[r8,#0x2e4]
        0x0001a728:    f04f0b3f    O.?.    MOV      r11,#0x3f
        0x0001a72c:    2c3f        ?,      CMP      r4,#0x3f
        0x0001a72e:    bf38        8.      IT       CC
        0x0001a730:    46a3        .F      MOVCC    r11,r4
        0x0001a732:    f021717c    !.|q    BIC      r1,r1,#0x3f00000
        0x0001a736:    2800        .(      CMP      r0,#0
        0x0001a738:    f04f0014    O...    MOV      r0,#0x14
        0x0001a73c:    bf58        X.      IT       PL
        0x0001a73e:    ea415102    A..Q    ORRPL    r1,r1,r2,LSL #20
        0x0001a742:    f8c812e4    ....    STR      r1,[r8,#0x2e4]
        0x0001a746:    f7fffa1b    ....    BL       am_hal_delay_us ; 0x19b80
        0x0001a74a:    f8d80000    ....    LDR      r0,[r8,#0]
        0x0001a74e:    2c00        .,      CMP      r4,#0
        0x0001a750:    f020003f     .?.    BIC      r0,r0,#0x3f
        0x0001a754:    bf58        X.      IT       PL
        0x0001a756:    ea40000b    @...    ORRPL    r0,r0,r11
        0x0001a75a:    f8c80000    ....    STR      r0,[r8,#0]
        0x0001a75e:    f8dd8004    ....    LDR      r8,[sp,#4]
        0x0001a762:    9803        ..      LDR      r0,[sp,#0xc]
        0x0001a764:    f7fffb96    ....    BL       am_hal_interrupt_master_set ; 0x19e94
        0x0001a768:    2014        .       MOVS     r0,#0x14
        0x0001a76a:    f7fffa09    ....    BL       am_hal_delay_us ; 0x19b80
        0x0001a76e:    f7fffb89    ....    BL       am_hal_interrupt_master_disable ; 0x19e84
        0x0001a772:    9002        ..      STR      r0,[sp,#8]
        0x0001a774:    6838        8h      LDR      r0,[r7,#0]
        0x0001a776:    4328        (C      ORRS     r0,r0,r5
        0x0001a778:    6038        8`      STR      r0,[r7,#0]
        0x0001a77a:    9802        ..      LDR      r0,[sp,#8]
        0x0001a77c:    f7fffb8a    ....    BL       am_hal_interrupt_master_set ; 0x19e94
        0x0001a780:    2701        .'      MOVS     r7,#1
        0x0001a782:    2005        .       MOVS     r0,#5
        0x0001a784:    4641        AF      MOV      r1,r8
        0x0001a786:    464a        JF      MOV      r2,r9
        0x0001a788:    464b        KF      MOV      r3,r9
        0x0001a78a:    9700        ..      STR      r7,[sp,#0]
        0x0001a78c:    f7fffa40    ..@.    BL       am_hal_delay_us_status_check ; 0x19c10
        0x0001a790:    2800        .(      CMP      r0,#0
        0x0001a792:    d041        A.      BEQ      0x1a818 ; am_hal_pwrctrl_periph_enable + 372
        0x0001a794:    4607        .F      MOV      r7,r0
        0x0001a796:    2e14        ..      CMP      r6,#0x14
        0x0001a798:    d18a        ..      BNE      0x1a6b0 ; am_hal_pwrctrl_periph_enable + 12
        0x0001a79a:    f8da400c    ...@    LDR      r4,[r10,#0xc]
        0x0001a79e:    2c00        .,      CMP      r4,#0
        0x0001a7a0:    f43faf86    ?...    BEQ.W    0x1a6b0 ; am_hal_pwrctrl_periph_enable + 12
        0x0001a7a4:    f89a0000    ....    LDRB     r0,[r10,#0]
        0x0001a7a8:    2800        .(      CMP      r0,#0
        0x0001a7aa:    f43faf81    ?...    BEQ.W    0x1a6b0 ; am_hal_pwrctrl_periph_enable + 12
        0x0001a7ae:    f7fffb69    ..i.    BL       am_hal_interrupt_master_disable ; 0x19e84
        0x0001a7b2:    9004        ..      STR      r0,[sp,#0x10]
        0x0001a7b4:    2000        .       MOVS     r0,#0
        0x0001a7b6:    f88a0000    ....    STRB     r0,[r10,#0]
        0x0001a7ba:    e9da0101    ....    LDRD     r0,r1,[r10,#4]
        0x0001a7be:    263f        ?&      MOVS     r6,#0x3f
        0x0001a7c0:    1b05        ..      SUBS     r5,r0,r4
        0x0001a7c2:    1b09        ..      SUBS     r1,r1,r4
        0x0001a7c4:    2488        .$      MOVS     r4,#0x88
        0x0001a7c6:    2d3f        ?-      CMP      r5,#0x3f
        0x0001a7c8:    bf38        8.      IT       CC
        0x0001a7ca:    462e        .F      MOVCC    r6,r5
        0x0001a7cc:    e9ca5101    ...Q    STRD     r5,r1,[r10,#4]
        0x0001a7d0:    f2c40402    ....    MOVT     r4,#0x4002
        0x0001a7d4:    6822        "h      LDR      r2,[r4,#0]
        0x0001a7d6:    203f        ?       MOVS     r0,#0x3f
        0x0001a7d8:    293f        ?)      CMP      r1,#0x3f
        0x0001a7da:    bf38        8.      IT       CC
        0x0001a7dc:    4608        .F      MOVCC    r0,r1
        0x0001a7de:    f022023f    ".?.    BIC      r2,r2,#0x3f
        0x0001a7e2:    2900        .)      CMP      r1,#0
        0x0001a7e4:    bf58        X.      IT       PL
        0x0001a7e6:    4302        .C      ORRPL    r2,r2,r0
        0x0001a7e8:    2014        .       MOVS     r0,#0x14
        0x0001a7ea:    6022        "`      STR      r2,[r4,#0]
        0x0001a7ec:    f7fff9c8    ....    BL       am_hal_delay_us ; 0x19b80
        0x0001a7f0:    f8d402e4    ....    LDR      r0,[r4,#0x2e4]
        0x0001a7f4:    2d00        .-      CMP      r5,#0
        0x0001a7f6:    f020707c     .|p    BIC      r0,r0,#0x3f00000
        0x0001a7fa:    bf58        X.      IT       PL
        0x0001a7fc:    ea405006    @..P    ORRPL    r0,r0,r6,LSL #20
        0x0001a800:    f8c402e4    ....    STR      r0,[r4,#0x2e4]
        0x0001a804:    9804        ..      LDR      r0,[sp,#0x10]
        0x0001a806:    f7fffb45    ..E.    BL       am_hal_interrupt_master_set ; 0x19e94
        0x0001a80a:    2014        .       MOVS     r0,#0x14
        0x0001a80c:    f7fff9b8    ....    BL       am_hal_delay_us ; 0x19b80
        0x0001a810:    4638        8F      MOV      r0,r7
        0x0001a812:    b005        ..      ADD      sp,sp,#0x14
        0x0001a814:    e8bd8ff0    ....    POP      {r4-r11,pc}
        0x0001a818:    2e14        ..      CMP      r6,#0x14
        0x0001a81a:    d10c        ..      BNE      0x1a836 ; am_hal_pwrctrl_periph_enable + 402
        0x0001a81c:    f6417110    A..q    MOV      r1,#0x1f10
        0x0001a820:    f2c4010c    ....    MOVT     r1,#0x400c
        0x0001a824:    2064        d       MOVS     r0,#0x64
        0x0001a826:    2201        ."      MOVS     r2,#1
        0x0001a828:    2301        .#      MOVS     r3,#1
        0x0001a82a:    f7fff9c5    ....    BL       am_hal_delay_us_status_change ; 0x19bb8
        0x0001a82e:    4607        .F      MOV      r7,r0
        0x0001a830:    2800        .(      CMP      r0,#0
        0x0001a832:    f47faf3d    ..=.    BNE      0x1a6b0 ; am_hal_pwrctrl_periph_enable + 12
        0x0001a836:    f8d80000    ....    LDR      r0,[r8,#0]
        0x0001a83a:    ea000009    ....    AND      r0,r0,r9
        0x0001a83e:    fab0f080    ....    CLZ      r0,r0
        0x0001a842:    0947        G.      LSRS     r7,r0,#5
        0x0001a844:    4638        8F      MOV      r0,r7
        0x0001a846:    b005        ..      ADD      sp,sp,#0x14
        0x0001a848:    e8bd8ff0    ....    POP      {r4-r11,pc}
    am_hal_pwrctrl_sram_config
        0x0001a84c:    b570        p.      PUSH     {r4-r6,lr}
        0x0001a84e:    b082        ..      SUB      sp,sp,#8
        0x0001a850:    f241062c    A.,.    MOV      r6,#0x102c
        0x0001a854:    f2c40602    ....    MOVT     r6,#0x4002
        0x0001a858:    4604        .F      MOV      r4,r0
        0x0001a85a:    7800        .x      LDRB     r0,[r0,#0]
        0x0001a85c:    f8561c08    V...    LDR      r1,[r6,#-8]
        0x0001a860:    2501        .%      MOVS     r5,#1
        0x0001a862:    f3600101    `...    BFI      r1,r0,#0,#2
        0x0001a866:    f8461c08    F...    STR      r1,[r6,#-8]
        0x0001a86a:    f8563c08    V..<    LDR      r3,[r6,#-8]
        0x0001a86e:    1f31        1.      SUBS     r1,r6,#4
        0x0001a870:    2005        .       MOVS     r0,#5
        0x0001a872:    2203        ."      MOVS     r2,#3
        0x0001a874:    9500        ..      STR      r5,[sp,#0]
        0x0001a876:    f7fff9cb    ....    BL       am_hal_delay_us_status_check ; 0x19c10
        0x0001a87a:    b108        ..      CBZ      r0,0x1a880 ; am_hal_pwrctrl_sram_config + 52
        0x0001a87c:    b002        ..      ADD      sp,sp,#8
        0x0001a87e:    bd70        p.      POP      {r4-r6,pc}
        0x0001a880:    f8560c04    V...    LDR      r0,[r6,#-4]
        0x0001a884:    f8561c08    V...    LDR      r1,[r6,#-8]
        0x0001a888:    4048        H@      EORS     r0,r0,r1
        0x0001a88a:    0780        ..      LSLS     r0,r0,#30
        0x0001a88c:    d002        ..      BEQ      0x1a894 ; am_hal_pwrctrl_sram_config + 72
        0x0001a88e:    2001        .       MOVS     r0,#1
        0x0001a890:    b002        ..      ADD      sp,sp,#8
        0x0001a892:    bd70        p.      POP      {r4-r6,pc}
        0x0001a894:    7860        `x      LDRB     r0,[r4,#1]
        0x0001a896:    6831        1h      LDR      r1,[r6,#0]
        0x0001a898:    f3600183    `...    BFI      r1,r0,#2,#2
        0x0001a89c:    6031        1`      STR      r1,[r6,#0]
        0x0001a89e:    78a0        .x      LDRB     r0,[r4,#2]
        0x0001a8a0:    6831        1h      LDR      r1,[r6,#0]
        0x0001a8a2:    f0000003    ....    AND      r0,r0,#3
        0x0001a8a6:    f02101c0    !...    BIC      r1,r1,#0xc0
        0x0001a8aa:    ea411080    A...    ORR      r0,r1,r0,LSL #6
        0x0001a8ae:    6030        0`      STR      r0,[r6,#0]
        0x0001a8b0:    78e0        .x      LDRB     r0,[r4,#3]
        0x0001a8b2:    6831        1h      LDR      r1,[r6,#0]
        0x0001a8b4:    f0000003    ....    AND      r0,r0,#3
        0x0001a8b8:    f4217140    !.@q    BIC      r1,r1,#0x300
        0x0001a8bc:    ea412000    A..     ORR      r0,r1,r0,LSL #8
        0x0001a8c0:    6030        0`      STR      r0,[r6,#0]
        0x0001a8c2:    7920         y      LDRB     r0,[r4,#4]
        0x0001a8c4:    6831        1h      LDR      r1,[r6,#0]
        0x0001a8c6:    f3601105    `...    BFI      r1,r0,#4,#2
        0x0001a8ca:    6031        1`      STR      r1,[r6,#0]
        0x0001a8cc:    7960        `y      LDRB     r0,[r4,#5]
        0x0001a8ce:    2803        .(      CMP      r0,#3
        0x0001a8d0:    d808        ..      BHI      0x1a8e4 ; am_hal_pwrctrl_sram_config + 152
        0x0001a8d2:    e8dff000    ....    TBB      [pc,r0]
    $d.7
        0x0001a8d6:    0b03        ..      DCW    2819
        0x0001a8d8:    bf00170f    ....    DCD    3204454159
    $t.8
        0x0001a8dc:    6830        0h      LDR      r0,[r6,#0]
        0x0001a8de:    f0400003    @...    ORR      r0,r0,#3
        0x0001a8e2:    6030        0`      STR      r0,[r6,#0]
        0x0001a8e4:    2000        .       MOVS     r0,#0
        0x0001a8e6:    b002        ..      ADD      sp,sp,#8
        0x0001a8e8:    bd70        p.      POP      {r4-r6,pc}
        0x0001a8ea:    bf00        ..      NOP      
        0x0001a8ec:    6830        0h      LDR      r0,[r6,#0]
        0x0001a8ee:    2102        .!      MOVS     r1,#2
        0x0001a8f0:    e002        ..      B        0x1a8f8 ; am_hal_pwrctrl_sram_config + 172
        0x0001a8f2:    bf00        ..      NOP      
        0x0001a8f4:    6830        0h      LDR      r0,[r6,#0]
        0x0001a8f6:    2101        .!      MOVS     r1,#1
        0x0001a8f8:    f3610001    a...    BFI      r0,r1,#0,#2
        0x0001a8fc:    6030        0`      STR      r0,[r6,#0]
        0x0001a8fe:    2000        .       MOVS     r0,#0
        0x0001a900:    b002        ..      ADD      sp,sp,#8
        0x0001a902:    bd70        p.      POP      {r4-r6,pc}
        0x0001a904:    6830        0h      LDR      r0,[r6,#0]
        0x0001a906:    f0200003     ...    BIC      r0,r0,#3
        0x0001a90a:    6030        0`      STR      r0,[r6,#0]
        0x0001a90c:    2000        .       MOVS     r0,#0
        0x0001a90e:    b002        ..      ADD      sp,sp,#8
        0x0001a910:    bd70        p.      POP      {r4-r6,pc}
        0x0001a912:    0000        ..      MOVS     r0,r0
    am_hal_rtc_osc_disable
        0x0001a914:    f6440100    D...    MOVW     r1,#0x4800
        0x0001a918:    f2c40100    ....    MOVT     r1,#0x4000
        0x0001a91c:    6808        .h      LDR      r0,[r1,#0]
        0x0001a91e:    f0400210    @...    ORR      r2,r0,#0x10
        0x0001a922:    2000        .       MOVS     r0,#0
        0x0001a924:    600a        .`      STR      r2,[r1,#0]
        0x0001a926:    4770        pG      BX       lr
    am_hal_sd_card_block_erase
        0x0001a928:    e92d41f0    -..A    PUSH     {r4-r8,lr}
        0x0001a92c:    b08a        ..      SUB      sp,sp,#0x28
        0x0001a92e:    b198        ..      CBZ      r0,0x1a958 ; am_hal_sd_card_block_erase + 48
        0x0001a930:    f8d07278    ..xr    LDR      r7,[r0,#0x278]
        0x0001a934:    4605        .F      MOV      r5,r0
        0x0001a936:    b17f        ..      CBZ      r7,0x1a958 ; am_hal_sd_card_block_erase + 48
        0x0001a938:    7868        hx      LDRB     r0,[r5,#1]
        0x0001a93a:    2806        .(      CMP      r0,#6
        0x0001a93c:    d110        ..      BNE      0x1a960 ; am_hal_sd_card_block_erase + 56
        0x0001a93e:    f8d50244    ..D.    LDR      r0,[r5,#0x244]
        0x0001a942:    460e        .F      MOV      r6,r1
        0x0001a944:    4288        .B      CMP      r0,r1
        0x0001a946:    d903        ..      BLS      0x1a950 ; am_hal_sd_card_block_erase + 40
        0x0001a948:    eb020806    ....    ADD      r8,r2,r6
        0x0001a94c:    4580        .E      CMP      r8,r0
        0x0001a94e:    d90b        ..      BLS      0x1a968 ; am_hal_sd_card_block_erase + 64
        0x0001a950:    2005        .       MOVS     r0,#5
        0x0001a952:    b00a        ..      ADD      sp,sp,#0x28
        0x0001a954:    e8bd81f0    ....    POP      {r4-r8,pc}
        0x0001a958:    2006        .       MOVS     r0,#6
        0x0001a95a:    b00a        ..      ADD      sp,sp,#0x28
        0x0001a95c:    e8bd81f0    ....    POP      {r4-r8,pc}
        0x0001a960:    2007        .       MOVS     r0,#7
        0x0001a962:    b00a        ..      ADD      sp,sp,#0x28
        0x0001a964:    e8bd81f0    ....    POP      {r4-r8,pc}
        0x0001a968:    a801        ..      ADD      r0,sp,#4
        0x0001a96a:    2124        $!      MOVS     r1,#0x24
        0x0001a96c:    461c        .F      MOV      r4,r3
        0x0001a96e:    f7fdfcfd    ....    BL       __aeabi_memclr4 ; 0x1836c
        0x0001a972:    f8950233    ..3.    LDRB     r0,[r5,#0x233]
        0x0001a976:    2120         !      MOVS     r1,#0x20
        0x0001a978:    f88d1004    ....    STRB     r1,[sp,#4]
        0x0001a97c:    b910        ..      CBNZ     r0,0x1a984 ; am_hal_sd_card_block_erase + 92
        0x0001a97e:    f8d5025c    ..\.    LDR      r0,[r5,#0x25c]
        0x0001a982:    4346        FC      MULS     r6,r0,r6
        0x0001a984:    2015        .       MOVS     r0,#0x15
        0x0001a986:    6eb9        .n      LDR      r1,[r7,#0x68]
        0x0001a988:    9602        ..      STR      r6,[sp,#8]
        0x0001a98a:    9003        ..      STR      r0,[sp,#0xc]
        0x0001a98c:    6838        8h      LDR      r0,[r7,#0]
        0x0001a98e:    68cb        .h      LDR      r3,[r1,#0xc]
        0x0001a990:    a901        ..      ADD      r1,sp,#4
        0x0001a992:    2200        ."      MOVS     r2,#0
        0x0001a994:    4798        .G      BLX      r3
        0x0001a996:    bb88        ..      CBNZ     r0,0x1a9fc ; am_hal_sd_card_block_erase + 212
        0x0001a998:    a801        ..      ADD      r0,sp,#4
        0x0001a99a:    2124        $!      MOVS     r1,#0x24
        0x0001a99c:    f7fdfce6    ....    BL       __aeabi_memclr4 ; 0x1836c
        0x0001a9a0:    f8951233    ..3.    LDRB     r1,[r5,#0x233]
        0x0001a9a4:    2021        !       MOVS     r0,#0x21
        0x0001a9a6:    f88d0004    ....    STRB     r0,[sp,#4]
        0x0001a9aa:    f1a80001    ....    SUB      r0,r8,#1
        0x0001a9ae:    b911        ..      CBNZ     r1,0x1a9b6 ; am_hal_sd_card_block_erase + 142
        0x0001a9b0:    f8d5125c    ..\.    LDR      r1,[r5,#0x25c]
        0x0001a9b4:    4348        HC      MULS     r0,r1,r0
        0x0001a9b6:    9002        ..      STR      r0,[sp,#8]
        0x0001a9b8:    2015        .       MOVS     r0,#0x15
        0x0001a9ba:    6eb9        .n      LDR      r1,[r7,#0x68]
        0x0001a9bc:    9003        ..      STR      r0,[sp,#0xc]
        0x0001a9be:    6838        8h      LDR      r0,[r7,#0]
        0x0001a9c0:    68cb        .h      LDR      r3,[r1,#0xc]
        0x0001a9c2:    a901        ..      ADD      r1,sp,#4
        0x0001a9c4:    2200        ."      MOVS     r2,#0
        0x0001a9c6:    4798        .G      BLX      r3
        0x0001a9c8:    b9c0        ..      CBNZ     r0,0x1a9fc ; am_hal_sd_card_block_erase + 212
        0x0001a9ca:    ad01        ..      ADD      r5,sp,#4
        0x0001a9cc:    4628        (F      MOV      r0,r5
        0x0001a9ce:    2124        $!      MOVS     r1,#0x24
        0x0001a9d0:    f7fdfccc    ....    BL       __aeabi_memclr4 ; 0x1836c
        0x0001a9d4:    2001        .       MOVS     r0,#1
        0x0001a9d6:    f88d0010    ....    STRB     r0,[sp,#0x10]
        0x0001a9da:    2026        &       MOVS     r0,#0x26
        0x0001a9dc:    f88d0004    ....    STRB     r0,[sp,#4]
        0x0001a9e0:    201d        .       MOVS     r0,#0x1d
        0x0001a9e2:    6eb9        .n      LDR      r1,[r7,#0x68]
        0x0001a9e4:    9003        ..      STR      r0,[sp,#0xc]
        0x0001a9e6:    6838        8h      LDR      r0,[r7,#0]
        0x0001a9e8:    68cb        .h      LDR      r3,[r1,#0xc]
        0x0001a9ea:    4629        )F      MOV      r1,r5
        0x0001a9ec:    2200        ."      MOVS     r2,#0
        0x0001a9ee:    4798        .G      BLX      r3
        0x0001a9f0:    b920         .      CBNZ     r0,0x1a9fc ; am_hal_sd_card_block_erase + 212
        0x0001a9f2:    6eb9        .n      LDR      r1,[r7,#0x68]
        0x0001a9f4:    6838        8h      LDR      r0,[r7,#0]
        0x0001a9f6:    6aca        .j      LDR      r2,[r1,#0x2c]
        0x0001a9f8:    4621        !F      MOV      r1,r4
        0x0001a9fa:    4790        .G      BLX      r2
        0x0001a9fc:    b00a        ..      ADD      sp,sp,#0x28
        0x0001a9fe:    e8bd81f0    ....    POP      {r4-r8,pc}
        0x0001aa02:    0000        ..      MOVS     r0,r0
    am_hal_sd_card_block_read_async
        0x0001aa04:    e92d43f0    -..C    PUSH     {r4-r9,lr}
        0x0001aa08:    b091        ..      SUB      sp,sp,#0x44
        0x0001aa0a:    2800        .(      CMP      r0,#0
        0x0001aa0c:    d06a        j.      BEQ      0x1aae4 ; am_hal_sd_card_block_read_async + 224
        0x0001aa0e:    f8d05278    ..xR    LDR      r5,[r0,#0x278]
        0x0001aa12:    4606        .F      MOV      r6,r0
        0x0001aa14:    2d00        .-      CMP      r5,#0
        0x0001aa16:    d065        e.      BEQ      0x1aae4 ; am_hal_sd_card_block_read_async + 224
        0x0001aa18:    7870        px      LDRB     r0,[r6,#1]
        0x0001aa1a:    2806        .(      CMP      r0,#6
        0x0001aa1c:    d166        f.      BNE      0x1aaec ; am_hal_sd_card_block_read_async + 232
        0x0001aa1e:    460f        .F      MOV      r7,r1
        0x0001aa20:    f8d61244    ..D.    LDR      r1,[r6,#0x244]
        0x0001aa24:    19d0        ..      ADDS     r0,r2,r7
        0x0001aa26:    4614        .F      MOV      r4,r2
        0x0001aa28:    4288        .B      CMP      r0,r1
        0x0001aa2a:    f04f0005    O...    MOV      r0,#5
        0x0001aa2e:    d856        V.      BHI      0x1aade ; am_hal_sd_card_block_read_async + 218
        0x0001aa30:    2200        ."      MOVS     r2,#0
        0x0001aa32:    ebb24f14    ...O    CMP      r2,r4,LSR #16
        0x0001aa36:    d152        R.      BNE      0x1aade ; am_hal_sd_card_block_read_async + 218
        0x0001aa38:    42b9        .B      CMP      r1,r7
        0x0001aa3a:    d950        P.      BLS      0x1aade ; am_hal_sd_card_block_read_async + 218
        0x0001aa3c:    7aa8        .z      LDRB     r0,[r5,#0xa]
        0x0001aa3e:    4699        .F      MOV      r9,r3
        0x0001aa40:    2803        .(      CMP      r0,#3
        0x0001aa42:    d103        ..      BNE      0x1aa4c ; am_hal_sd_card_block_read_async + 72
        0x0001aa44:    6928        (i      LDR      r0,[r5,#0x10]
        0x0001aa46:    42a0        .B      CMP      r0,r4
        0x0001aa48:    bf38        8.      IT       CC
        0x0001aa4a:    4604        .F      MOVCC    r4,r0
        0x0001aa4c:    f10d0820    .. .    ADD      r8,sp,#0x20
        0x0001aa50:    4640        @F      MOV      r0,r8
        0x0001aa52:    2124        $!      MOVS     r1,#0x24
        0x0001aa54:    f7fdfc8a    ....    BL       __aeabi_memclr4 ; 0x1836c
        0x0001aa58:    2000        .       MOVS     r0,#0
        0x0001aa5a:    2111        .!      MOVS     r1,#0x11
        0x0001aa5c:    9007        ..      STR      r0,[sp,#0x1c]
        0x0001aa5e:    e9cd0005    ....    STRD     r0,r0,[sp,#0x14]
        0x0001aa62:    9001        ..      STR      r0,[sp,#4]
        0x0001aa64:    2c01        .,      CMP      r4,#1
        0x0001aa66:    bf88        ..      IT       HI
        0x0001aa68:    2001        .       MOVHI    r0,#1
        0x0001aa6a:    bf88        ..      IT       HI
        0x0001aa6c:    2112        .!      MOVHI    r1,#0x12
        0x0001aa6e:    f88d1020    .. .    STRB     r1,[sp,#0x20]
        0x0001aa72:    f8961233    ..3.    LDRB     r1,[r6,#0x233]
        0x0001aa76:    f8d6225c    ..\"    LDR      r2,[r6,#0x25c]
        0x0001aa7a:    2900        .)      CMP      r1,#0
        0x0001aa7c:    f04f0101    O...    MOV      r1,#1
        0x0001aa80:    bf08        ..      IT       EQ
        0x0001aa82:    4611        .F      MOVEQ    r1,r2
        0x0001aa84:    2301        .#      MOVS     r3,#1
        0x0001aa86:    4379        yC      MULS     r1,r7,r1
        0x0001aa88:    f04f0c15    O...    MOV      r12,#0x15
        0x0001aa8c:    9109        ..      STR      r1,[sp,#0x24]
        0x0001aa8e:    f8cdc028    ..(.    STR      r12,[sp,#0x28]
        0x0001aa92:    f88d302d    ..-0    STRB     r3,[sp,#0x2d]
        0x0001aa96:    f88d002e    ....    STRB     r0,[sp,#0x2e]
        0x0001aa9a:    9b08        ..      LDR      r3,[sp,#0x20]
        0x0001aa9c:    e9dd600b    ...`    LDRD     r6,r0,[sp,#0x2c]
        0x0001aaa0:    f10d0e34    ..4.    ADD      lr,sp,#0x34
        0x0001aaa4:    9404        ..      STR      r4,[sp,#0x10]
        0x0001aaa6:    e9cd9202    ....    STRD     r9,r2,[sp,#8]
        0x0001aaaa:    e89e4094    ...@    LDM      lr,{r2,r4,r7,lr}
        0x0001aaae:    e9c5310a    ...1    STRD     r3,r1,[r5,#0x28]
        0x0001aab2:    f1050138    ..8.    ADD      r1,r5,#0x38
        0x0001aab6:    c195        ..      STM      r1!,{r0,r2,r4,r7}
        0x0001aab8:    af01        ..      ADD      r7,sp,#4
        0x0001aaba:    cf8f        ..      LDM      r7,{r0-r3,r7}
        0x0001aabc:    e9c5c60c    ....    STRD     r12,r6,[r5,#0x30]
        0x0001aac0:    e9dd6406    ...d    LDRD     r6,r4,[sp,#0x18]
        0x0001aac4:    e9c5e012    ....    STRD     lr,r0,[r5,#0x48]
        0x0001aac8:    f1050050    ..P.    ADD      r0,r5,#0x50
        0x0001aacc:    c08e        ..      STM      r0!,{r1-r3,r7}
        0x0001aace:    6ea9        .n      LDR      r1,[r5,#0x68]
        0x0001aad0:    e9c56418    ...d    STRD     r6,r4,[r5,#0x60]
        0x0001aad4:    6828        (h      LDR      r0,[r5,#0]
        0x0001aad6:    68cb        .h      LDR      r3,[r1,#0xc]
        0x0001aad8:    aa01        ..      ADD      r2,sp,#4
        0x0001aada:    4641        AF      MOV      r1,r8
        0x0001aadc:    4798        .G      BLX      r3
        0x0001aade:    b011        ..      ADD      sp,sp,#0x44
        0x0001aae0:    e8bd83f0    ....    POP      {r4-r9,pc}
        0x0001aae4:    2006        .       MOVS     r0,#6
        0x0001aae6:    b011        ..      ADD      sp,sp,#0x44
        0x0001aae8:    e8bd83f0    ....    POP      {r4-r9,pc}
        0x0001aaec:    2007        .       MOVS     r0,#7
        0x0001aaee:    b011        ..      ADD      sp,sp,#0x44
        0x0001aaf0:    e8bd83f0    ....    POP      {r4-r9,pc}
    am_hal_sd_card_block_read_sync
        0x0001aaf4:    e92d43f0    -..C    PUSH     {r4-r9,lr}
        0x0001aaf8:    b091        ..      SUB      sp,sp,#0x44
        0x0001aafa:    2800        .(      CMP      r0,#0
        0x0001aafc:    d050        P.      BEQ      0x1aba0 ; am_hal_sd_card_block_read_sync + 172
        0x0001aafe:    f8d05278    ..xR    LDR      r5,[r0,#0x278]
        0x0001ab02:    4607        .F      MOV      r7,r0
        0x0001ab04:    2d00        .-      CMP      r5,#0
        0x0001ab06:    d04b        K.      BEQ      0x1aba0 ; am_hal_sd_card_block_read_sync + 172
        0x0001ab08:    7878        xx      LDRB     r0,[r7,#1]
        0x0001ab0a:    2806        .(      CMP      r0,#6
        0x0001ab0c:    d14c        L.      BNE      0x1aba8 ; am_hal_sd_card_block_read_sync + 180
        0x0001ab0e:    460e        .F      MOV      r6,r1
        0x0001ab10:    f8d71244    ..D.    LDR      r1,[r7,#0x244]
        0x0001ab14:    1990        ..      ADDS     r0,r2,r6
        0x0001ab16:    4614        .F      MOV      r4,r2
        0x0001ab18:    4288        .B      CMP      r0,r1
        0x0001ab1a:    f04f0005    O...    MOV      r0,#5
        0x0001ab1e:    d83b        ;.      BHI      0x1ab98 ; am_hal_sd_card_block_read_sync + 164
        0x0001ab20:    2200        ."      MOVS     r2,#0
        0x0001ab22:    ebb24f14    ...O    CMP      r2,r4,LSR #16
        0x0001ab26:    d137        7.      BNE      0x1ab98 ; am_hal_sd_card_block_read_sync + 164
        0x0001ab28:    42b1        .B      CMP      r1,r6
        0x0001ab2a:    d935        5.      BLS      0x1ab98 ; am_hal_sd_card_block_read_sync + 164
        0x0001ab2c:    7aa8        .z      LDRB     r0,[r5,#0xa]
        0x0001ab2e:    4699        .F      MOV      r9,r3
        0x0001ab30:    2803        .(      CMP      r0,#3
        0x0001ab32:    d103        ..      BNE      0x1ab3c ; am_hal_sd_card_block_read_sync + 72
        0x0001ab34:    6928        (i      LDR      r0,[r5,#0x10]
        0x0001ab36:    42a0        .B      CMP      r0,r4
        0x0001ab38:    bf38        8.      IT       CC
        0x0001ab3a:    4604        .F      MOVCC    r4,r0
        0x0001ab3c:    f10d0820    .. .    ADD      r8,sp,#0x20
        0x0001ab40:    4640        @F      MOV      r0,r8
        0x0001ab42:    2124        $!      MOVS     r1,#0x24
        0x0001ab44:    f7fdfc12    ....    BL       __aeabi_memclr4 ; 0x1836c
        0x0001ab48:    2000        .       MOVS     r0,#0
        0x0001ab4a:    2111        .!      MOVS     r1,#0x11
        0x0001ab4c:    e9cd0003    ....    STRD     r0,r0,[sp,#0xc]
        0x0001ab50:    9007        ..      STR      r0,[sp,#0x1c]
        0x0001ab52:    e9cd0005    ....    STRD     r0,r0,[sp,#0x14]
        0x0001ab56:    e9cd0001    ....    STRD     r0,r0,[sp,#4]
        0x0001ab5a:    2c01        .,      CMP      r4,#1
        0x0001ab5c:    bf88        ..      IT       HI
        0x0001ab5e:    2001        .       MOVHI    r0,#1
        0x0001ab60:    bf88        ..      IT       HI
        0x0001ab62:    2112        .!      MOVHI    r1,#0x12
        0x0001ab64:    f88d1020    .. .    STRB     r1,[sp,#0x20]
        0x0001ab68:    f8971233    ..3.    LDRB     r1,[r7,#0x233]
        0x0001ab6c:    f8d7225c    ..\"    LDR      r2,[r7,#0x25c]
        0x0001ab70:    2900        .)      CMP      r1,#0
        0x0001ab72:    9203        ..      STR      r2,[sp,#0xc]
        0x0001ab74:    bf18        ..      IT       NE
        0x0001ab76:    2201        ."      MOVNE    r2,#1
        0x0001ab78:    fb02f106    ....    MUL      r1,r2,r6
        0x0001ab7c:    9109        ..      STR      r1,[sp,#0x24]
        0x0001ab7e:    2115        .!      MOVS     r1,#0x15
        0x0001ab80:    f88d002e    ....    STRB     r0,[sp,#0x2e]
        0x0001ab84:    6ea8        .n      LDR      r0,[r5,#0x68]
        0x0001ab86:    910a        ..      STR      r1,[sp,#0x28]
        0x0001ab88:    f8cd9008    ....    STR      r9,[sp,#8]
        0x0001ab8c:    9404        ..      STR      r4,[sp,#0x10]
        0x0001ab8e:    68c3        .h      LDR      r3,[r0,#0xc]
        0x0001ab90:    6828        (h      LDR      r0,[r5,#0]
        0x0001ab92:    aa01        ..      ADD      r2,sp,#4
        0x0001ab94:    4641        AF      MOV      r1,r8
        0x0001ab96:    4798        .G      BLX      r3
        0x0001ab98:    b011        ..      ADD      sp,sp,#0x44
        0x0001ab9a:    e8bd83f0    ....    POP      {r4-r9,pc}
        0x0001ab9e:    bf00        ..      NOP      
        0x0001aba0:    2006        .       MOVS     r0,#6
        0x0001aba2:    b011        ..      ADD      sp,sp,#0x44
        0x0001aba4:    e8bd83f0    ....    POP      {r4-r9,pc}
        0x0001aba8:    2007        .       MOVS     r0,#7
        0x0001abaa:    b011        ..      ADD      sp,sp,#0x44
        0x0001abac:    e8bd83f0    ....    POP      {r4-r9,pc}
    am_hal_sd_card_block_write_async
        0x0001abb0:    e92d43f0    -..C    PUSH     {r4-r9,lr}
        0x0001abb4:    b091        ..      SUB      sp,sp,#0x44
        0x0001abb6:    4606        .F      MOV      r6,r0
        0x0001abb8:    f8900291    ....    LDRB     r0,[r0,#0x291]
        0x0001abbc:    b120         .      CBZ      r0,0x1abc8 ; am_hal_sd_card_block_write_async + 24
        0x0001abbe:    2007        .       MOVS     r0,#7
        0x0001abc0:    b011        ..      ADD      sp,sp,#0x44
        0x0001abc2:    e8bd83f0    ....    POP      {r4-r9,pc}
        0x0001abc6:    bf00        ..      NOP      
        0x0001abc8:    f8d64278    ..xB    LDR      r4,[r6,#0x278]
        0x0001abcc:    2c00        .,      CMP      r4,#0
        0x0001abce:    d067        g.      BEQ      0x1aca0 ; am_hal_sd_card_block_write_async + 240
        0x0001abd0:    7870        px      LDRB     r0,[r6,#1]
        0x0001abd2:    2806        .(      CMP      r0,#6
        0x0001abd4:    d1f3        ..      BNE      0x1abbe ; am_hal_sd_card_block_write_async + 14
        0x0001abd6:    460f        .F      MOV      r7,r1
        0x0001abd8:    f8d61244    ..D.    LDR      r1,[r6,#0x244]
        0x0001abdc:    19d0        ..      ADDS     r0,r2,r7
        0x0001abde:    4615        .F      MOV      r5,r2
        0x0001abe0:    4288        .B      CMP      r0,r1
        0x0001abe2:    f04f0005    O...    MOV      r0,#5
        0x0001abe6:    d858        X.      BHI      0x1ac9a ; am_hal_sd_card_block_write_async + 234
        0x0001abe8:    2200        ."      MOVS     r2,#0
        0x0001abea:    ebb24f15    ...O    CMP      r2,r5,LSR #16
        0x0001abee:    d154        T.      BNE      0x1ac9a ; am_hal_sd_card_block_write_async + 234
        0x0001abf0:    42b9        .B      CMP      r1,r7
        0x0001abf2:    d952        R.      BLS      0x1ac9a ; am_hal_sd_card_block_write_async + 234
        0x0001abf4:    7aa0        .z      LDRB     r0,[r4,#0xa]
        0x0001abf6:    4699        .F      MOV      r9,r3
        0x0001abf8:    2803        .(      CMP      r0,#3
        0x0001abfa:    d103        ..      BNE      0x1ac04 ; am_hal_sd_card_block_write_async + 84
        0x0001abfc:    6920         i      LDR      r0,[r4,#0x10]
        0x0001abfe:    42a8        .B      CMP      r0,r5
        0x0001ac00:    bf38        8.      IT       CC
        0x0001ac02:    4605        .F      MOVCC    r5,r0
        0x0001ac04:    f10d0820    .. .    ADD      r8,sp,#0x20
        0x0001ac08:    4640        @F      MOV      r0,r8
        0x0001ac0a:    2124        $!      MOVS     r1,#0x24
        0x0001ac0c:    f7fdfbae    ....    BL       __aeabi_memclr4 ; 0x1836c
        0x0001ac10:    2000        .       MOVS     r0,#0
        0x0001ac12:    2118        .!      MOVS     r1,#0x18
        0x0001ac14:    9001        ..      STR      r0,[sp,#4]
        0x0001ac16:    9007        ..      STR      r0,[sp,#0x1c]
        0x0001ac18:    e9cd0005    ....    STRD     r0,r0,[sp,#0x14]
        0x0001ac1c:    2d01        .-      CMP      r5,#1
        0x0001ac1e:    bf88        ..      IT       HI
        0x0001ac20:    2001        .       MOVHI    r0,#1
        0x0001ac22:    bf88        ..      IT       HI
        0x0001ac24:    2119        .!      MOVHI    r1,#0x19
        0x0001ac26:    f88d1020    .. .    STRB     r1,[sp,#0x20]
        0x0001ac2a:    f8961233    ..3.    LDRB     r1,[r6,#0x233]
        0x0001ac2e:    f8d6225c    ..\"    LDR      r2,[r6,#0x25c]
        0x0001ac32:    2900        .)      CMP      r1,#0
        0x0001ac34:    f04f0101    O...    MOV      r1,#1
        0x0001ac38:    bf08        ..      IT       EQ
        0x0001ac3a:    4611        .F      MOVEQ    r1,r2
        0x0001ac3c:    2301        .#      MOVS     r3,#1
        0x0001ac3e:    4379        yC      MULS     r1,r7,r1
        0x0001ac40:    f04f0c15    O...    MOV      r12,#0x15
        0x0001ac44:    9109        ..      STR      r1,[sp,#0x24]
        0x0001ac46:    f8cdc028    ..(.    STR      r12,[sp,#0x28]
        0x0001ac4a:    f88d302d    ..-0    STRB     r3,[sp,#0x2d]
        0x0001ac4e:    f88d002e    ....    STRB     r0,[sp,#0x2e]
        0x0001ac52:    f88d3004    ...0    STRB     r3,[sp,#4]
        0x0001ac56:    9b08        ..      LDR      r3,[sp,#0x20]
        0x0001ac58:    e9dd600b    ...`    LDRD     r6,r0,[sp,#0x2c]
        0x0001ac5c:    f10d0e34    ..4.    ADD      lr,sp,#0x34
        0x0001ac60:    9504        ..      STR      r5,[sp,#0x10]
        0x0001ac62:    e9cd9202    ....    STRD     r9,r2,[sp,#8]
        0x0001ac66:    e89e40a4    ...@    LDM      lr,{r2,r5,r7,lr}
        0x0001ac6a:    e9c4310a    ...1    STRD     r3,r1,[r4,#0x28]
        0x0001ac6e:    f1040138    ..8.    ADD      r1,r4,#0x38
        0x0001ac72:    c1a5        ..      STM      r1!,{r0,r2,r5,r7}
        0x0001ac74:    af01        ..      ADD      r7,sp,#4
        0x0001ac76:    cf8f        ..      LDM      r7,{r0-r3,r7}
        0x0001ac78:    e9c4c60c    ....    STRD     r12,r6,[r4,#0x30]
        0x0001ac7c:    e9dd6506    ...e    LDRD     r6,r5,[sp,#0x18]
        0x0001ac80:    e9c4e012    ....    STRD     lr,r0,[r4,#0x48]
        0x0001ac84:    f1040050    ..P.    ADD      r0,r4,#0x50
        0x0001ac88:    c08e        ..      STM      r0!,{r1-r3,r7}
        0x0001ac8a:    6ea1        .n      LDR      r1,[r4,#0x68]
        0x0001ac8c:    e9c46518    ...e    STRD     r6,r5,[r4,#0x60]
        0x0001ac90:    6820         h      LDR      r0,[r4,#0]
        0x0001ac92:    68cb        .h      LDR      r3,[r1,#0xc]
        0x0001ac94:    aa01        ..      ADD      r2,sp,#4
        0x0001ac96:    4641        AF      MOV      r1,r8
        0x0001ac98:    4798        .G      BLX      r3
        0x0001ac9a:    b011        ..      ADD      sp,sp,#0x44
        0x0001ac9c:    e8bd83f0    ....    POP      {r4-r9,pc}
        0x0001aca0:    2006        .       MOVS     r0,#6
        0x0001aca2:    b011        ..      ADD      sp,sp,#0x44
        0x0001aca4:    e8bd83f0    ....    POP      {r4-r9,pc}
    am_hal_sd_card_block_write_sync
        0x0001aca8:    e92d43f0    -..C    PUSH     {r4-r9,lr}
        0x0001acac:    b091        ..      SUB      sp,sp,#0x44
        0x0001acae:    4607        .F      MOV      r7,r0
        0x0001acb0:    f8900291    ....    LDRB     r0,[r0,#0x291]
        0x0001acb4:    b120         .      CBZ      r0,0x1acc0 ; am_hal_sd_card_block_write_sync + 24
        0x0001acb6:    2007        .       MOVS     r0,#7
        0x0001acb8:    b011        ..      ADD      sp,sp,#0x44
        0x0001acba:    e8bd83f0    ....    POP      {r4-r9,pc}
        0x0001acbe:    bf00        ..      NOP      
        0x0001acc0:    f8d79278    ..x.    LDR      r9,[r7,#0x278]
        0x0001acc4:    f1b90f00    ....    CMP      r9,#0
        0x0001acc8:    d052        R.      BEQ      0x1ad70 ; am_hal_sd_card_block_write_sync + 200
        0x0001acca:    7878        xx      LDRB     r0,[r7,#1]
        0x0001accc:    2806        .(      CMP      r0,#6
        0x0001acce:    d1f2        ..      BNE      0x1acb6 ; am_hal_sd_card_block_write_sync + 14
        0x0001acd0:    460e        .F      MOV      r6,r1
        0x0001acd2:    f8d71244    ..D.    LDR      r1,[r7,#0x244]
        0x0001acd6:    1990        ..      ADDS     r0,r2,r6
        0x0001acd8:    4615        .F      MOV      r5,r2
        0x0001acda:    4288        .B      CMP      r0,r1
        0x0001acdc:    f04f0005    O...    MOV      r0,#5
        0x0001ace0:    d842        B.      BHI      0x1ad68 ; am_hal_sd_card_block_write_sync + 192
        0x0001ace2:    2200        ."      MOVS     r2,#0
        0x0001ace4:    ebb24f15    ...O    CMP      r2,r5,LSR #16
        0x0001ace8:    d13e        >.      BNE      0x1ad68 ; am_hal_sd_card_block_write_sync + 192
        0x0001acea:    42b1        .B      CMP      r1,r6
        0x0001acec:    d93c        <.      BLS      0x1ad68 ; am_hal_sd_card_block_write_sync + 192
        0x0001acee:    f899000a    ....    LDRB     r0,[r9,#0xa]
        0x0001acf2:    461c        .F      MOV      r4,r3
        0x0001acf4:    2803        .(      CMP      r0,#3
        0x0001acf6:    d104        ..      BNE      0x1ad02 ; am_hal_sd_card_block_write_sync + 90
        0x0001acf8:    f8d90010    ....    LDR      r0,[r9,#0x10]
        0x0001acfc:    42a8        .B      CMP      r0,r5
        0x0001acfe:    bf38        8.      IT       CC
        0x0001ad00:    4605        .F      MOVCC    r5,r0
        0x0001ad02:    f10d0820    .. .    ADD      r8,sp,#0x20
        0x0001ad06:    4640        @F      MOV      r0,r8
        0x0001ad08:    2124        $!      MOVS     r1,#0x24
        0x0001ad0a:    f7fdfb2f    ../.    BL       __aeabi_memclr4 ; 0x1836c
        0x0001ad0e:    2000        .       MOVS     r0,#0
        0x0001ad10:    2118        .!      MOVS     r1,#0x18
        0x0001ad12:    e9cd0003    ....    STRD     r0,r0,[sp,#0xc]
        0x0001ad16:    e9cd0001    ....    STRD     r0,r0,[sp,#4]
        0x0001ad1a:    9007        ..      STR      r0,[sp,#0x1c]
        0x0001ad1c:    e9cd0005    ....    STRD     r0,r0,[sp,#0x14]
        0x0001ad20:    2d01        .-      CMP      r5,#1
        0x0001ad22:    bf88        ..      IT       HI
        0x0001ad24:    2001        .       MOVHI    r0,#1
        0x0001ad26:    bf88        ..      IT       HI
        0x0001ad28:    2119        .!      MOVHI    r1,#0x19
        0x0001ad2a:    f88d1020    .. .    STRB     r1,[sp,#0x20]
        0x0001ad2e:    f8971233    ..3.    LDRB     r1,[r7,#0x233]
        0x0001ad32:    f8d7225c    ..\"    LDR      r2,[r7,#0x25c]
        0x0001ad36:    2900        .)      CMP      r1,#0
        0x0001ad38:    f04f0101    O...    MOV      r1,#1
        0x0001ad3c:    bf08        ..      IT       EQ
        0x0001ad3e:    4611        .F      MOVEQ    r1,r2
        0x0001ad40:    4371        qC      MULS     r1,r6,r1
        0x0001ad42:    2301        .#      MOVS     r3,#1
        0x0001ad44:    9109        ..      STR      r1,[sp,#0x24]
        0x0001ad46:    2115        .!      MOVS     r1,#0x15
        0x0001ad48:    f88d002e    ....    STRB     r0,[sp,#0x2e]
        0x0001ad4c:    f8d90068    ..h.    LDR      r0,[r9,#0x68]
        0x0001ad50:    910a        ..      STR      r1,[sp,#0x28]
        0x0001ad52:    9504        ..      STR      r5,[sp,#0x10]
        0x0001ad54:    e9cd4202    ...B    STRD     r4,r2,[sp,#8]
        0x0001ad58:    f88d3004    ...0    STRB     r3,[sp,#4]
        0x0001ad5c:    68c3        .h      LDR      r3,[r0,#0xc]
        0x0001ad5e:    f8d90000    ....    LDR      r0,[r9,#0]
        0x0001ad62:    aa01        ..      ADD      r2,sp,#4
        0x0001ad64:    4641        AF      MOV      r1,r8
        0x0001ad66:    4798        .G      BLX      r3
        0x0001ad68:    b011        ..      ADD      sp,sp,#0x44
        0x0001ad6a:    e8bd83f0    ....    POP      {r4-r9,pc}
        0x0001ad6e:    bf00        ..      NOP      
        0x0001ad70:    2006        .       MOVS     r0,#6
        0x0001ad72:    b011        ..      ADD      sp,sp,#0x44
        0x0001ad74:    e8bd83f0    ....    POP      {r4-r9,pc}
    am_hal_sd_card_enable_card_detect
        0x0001ad78:    b510        ..      PUSH     {r4,lr}
        0x0001ad7a:    4602        .F      MOV      r2,r0
        0x0001ad7c:    f04f0006    O...    MOV      r0,#6
        0x0001ad80:    b151        Q.      CBZ      r1,0x1ad98 ; am_hal_sd_card_enable_card_detect + 32
        0x0001ad82:    f8d24278    ..xB    LDR      r4,[r2,#0x278]
        0x0001ad86:    2c00        .,      CMP      r4,#0
        0x0001ad88:    bf08        ..      IT       EQ
        0x0001ad8a:    bd10        ..      POPEQ    {r4,pc}
        0x0001ad8c:    6820         h      LDR      r0,[r4,#0]
        0x0001ad8e:    66e1        .f      STR      r1,[r4,#0x6c]
        0x0001ad90:    21c0        .!      MOVS     r1,#0xc0
        0x0001ad92:    f000ff09    ....    BL       am_hal_sdhc_intr_signal_enable ; 0x1bba8
        0x0001ad96:    b108        ..      CBZ      r0,0x1ad9c ; am_hal_sd_card_enable_card_detect + 36
        0x0001ad98:    bd10        ..      POP      {r4,pc}
        0x0001ad9a:    bf00        ..      NOP      
        0x0001ad9c:    6820         h      LDR      r0,[r4,#0]
        0x0001ad9e:    21c0        .!      MOVS     r1,#0xc0
        0x0001ada0:    e8bd4010    ...@    POP      {r4,lr}
        0x0001ada4:    f000bf32    ..2.    B.W      am_hal_sdhc_intr_status_enable ; 0x1bc0c
    am_hal_sd_card_set_bus_width
        0x0001ada8:    b5f0        ..      PUSH     {r4-r7,lr}
        0x0001adaa:    b089        ..      SUB      sp,sp,#0x24
        0x0001adac:    f8d06278    ..xb    LDR      r6,[r0,#0x278]
        0x0001adb0:    b1c6        ..      CBZ      r6,0x1ade4 ; am_hal_sd_card_set_bus_width + 60
        0x0001adb2:    466d        mF      MOV      r5,sp
        0x0001adb4:    460c        .F      MOV      r4,r1
        0x0001adb6:    6887        .h      LDR      r7,[r0,#8]
        0x0001adb8:    4628        (F      MOV      r0,r5
        0x0001adba:    2124        $!      MOVS     r1,#0x24
        0x0001adbc:    f7fdfad6    ....    BL       __aeabi_memclr4 ; 0x1836c
        0x0001adc0:    2037        7       MOVS     r0,#0x37
        0x0001adc2:    f88d0000    ....    STRB     r0,[sp,#0]
        0x0001adc6:    0438        8.      LSLS     r0,r7,#16
        0x0001adc8:    2715        .'      MOVS     r7,#0x15
        0x0001adca:    6eb1        .n      LDR      r1,[r6,#0x68]
        0x0001adcc:    9001        ..      STR      r0,[sp,#4]
        0x0001adce:    9702        ..      STR      r7,[sp,#8]
        0x0001add0:    6830        0h      LDR      r0,[r6,#0]
        0x0001add2:    68cb        .h      LDR      r3,[r1,#0xc]
        0x0001add4:    4629        )F      MOV      r1,r5
        0x0001add6:    2200        ."      MOVS     r2,#0
        0x0001add8:    4798        .G      BLX      r3
        0x0001adda:    f89d0020    .. .    LDRB     r0,[sp,#0x20]
        0x0001adde:    b128        (.      CBZ      r0,0x1adec ; am_hal_sd_card_set_bus_width + 68
        0x0001ade0:    b009        ..      ADD      sp,sp,#0x24
        0x0001ade2:    bdf0        ..      POP      {r4-r7,pc}
        0x0001ade4:    2006        .       MOVS     r0,#6
        0x0001ade6:    b009        ..      ADD      sp,sp,#0x24
        0x0001ade8:    bdf0        ..      POP      {r4-r7,pc}
        0x0001adea:    bf00        ..      NOP      
        0x0001adec:    466d        mF      MOV      r5,sp
        0x0001adee:    4628        (F      MOV      r0,r5
        0x0001adf0:    2124        $!      MOVS     r1,#0x24
        0x0001adf2:    f7fdfabb    ....    BL       __aeabi_memclr4 ; 0x1836c
        0x0001adf6:    2006        .       MOVS     r0,#6
        0x0001adf8:    f88d0000    ....    STRB     r0,[sp,#0]
        0x0001adfc:    1f20         .      SUBS     r0,r4,#4
        0x0001adfe:    fab0f080    ....    CLZ      r0,r0
        0x0001ae02:    0940        @.      LSRS     r0,r0,#5
        0x0001ae04:    0040        @.      LSLS     r0,r0,#1
        0x0001ae06:    6eb1        .n      LDR      r1,[r6,#0x68]
        0x0001ae08:    e9cd0701    ....    STRD     r0,r7,[sp,#4]
        0x0001ae0c:    6830        0h      LDR      r0,[r6,#0]
        0x0001ae0e:    68cb        .h      LDR      r3,[r1,#0xc]
        0x0001ae10:    4629        )F      MOV      r1,r5
        0x0001ae12:    2200        ."      MOVS     r2,#0
        0x0001ae14:    4798        .G      BLX      r3
        0x0001ae16:    f89d0020    .. .    LDRB     r0,[sp,#0x20]
        0x0001ae1a:    2800        .(      CMP      r0,#0
        0x0001ae1c:    d1e0        ..      BNE      0x1ade0 ; am_hal_sd_card_set_bus_width + 56
        0x0001ae1e:    6eb1        .n      LDR      r1,[r6,#0x68]
        0x0001ae20:    6830        0h      LDR      r0,[r6,#0]
        0x0001ae22:    694a        Ji      LDR      r2,[r1,#0x14]
        0x0001ae24:    4621        !F      MOV      r1,r4
        0x0001ae26:    4790        .G      BLX      r2
        0x0001ae28:    2800        .(      CMP      r0,#0
        0x0001ae2a:    bf18        ..      IT       NE
        0x0001ae2c:    2001        .       MOVNE    r0,#1
        0x0001ae2e:    b009        ..      ADD      sp,sp,#0x24
        0x0001ae30:    bdf0        ..      POP      {r4-r7,pc}
        0x0001ae32:    0000        ..      MOVS     r0,r0
    am_hal_sd_card_set_speed
        0x0001ae34:    e92d4ff0    -..O    PUSH     {r4-r11,lr}
        0x0001ae38:    b0b1        ..      SUB      sp,sp,#0xc4
        0x0001ae3a:    f10d0904    ....    ADD      r9,sp,#4
        0x0001ae3e:    4688        .F      MOV      r8,r1
        0x0001ae40:    4605        .F      MOV      r5,r0
        0x0001ae42:    4648        HF      MOV      r0,r9
        0x0001ae44:    2140        @!      MOVS     r1,#0x40
        0x0001ae46:    f04f0b40    O.@.    MOV      r11,#0x40
        0x0001ae4a:    f7fdfa8f    ....    BL       __aeabi_memclr4 ; 0x1836c
        0x0001ae4e:    f8d5a278    ..x.    LDR      r10,[r5,#0x278]
        0x0001ae52:    2706        .'      MOVS     r7,#6
        0x0001ae54:    f1ba0f00    ....    CMP      r10,#0
        0x0001ae58:    f00080af    ....    BEQ.W    0x1afba ; am_hal_sd_card_set_speed + 390
        0x0001ae5c:    ae11        ..      ADD      r6,sp,#0x44
        0x0001ae5e:    4630        0F      MOV      r0,r6
        0x0001ae60:    2140        @!      MOVS     r1,#0x40
        0x0001ae62:    f7fdfa83    ....    BL       __aeabi_memclr4 ; 0x1836c
        0x0001ae66:    ac28        (.      ADD      r4,sp,#0xa0
        0x0001ae68:    4620         F      MOV      r0,r4
        0x0001ae6a:    2124        $!      MOVS     r1,#0x24
        0x0001ae6c:    f7fdfa7e    ..~.    BL       __aeabi_memclr4 ; 0x1836c
        0x0001ae70:    2000        .       MOVS     r0,#0
        0x0001ae72:    e9cd0023    ..#.    STRD     r0,r0,[sp,#0x8c]
        0x0001ae76:    9027        '.      STR      r0,[sp,#0x9c]
        0x0001ae78:    e9cd0025    ..%.    STRD     r0,r0,[sp,#0x94]
        0x0001ae7c:    e9cd0021    ..!.    STRD     r0,r0,[sp,#0x84]
        0x0001ae80:    f64f70f0    O..p    MOV      r0,#0xfff0
        0x0001ae84:    f2c000ff    ....    MOVT     r0,#0xff
        0x0001ae88:    9029        ).      STR      r0,[sp,#0xa4]
        0x0001ae8a:    2015        .       MOVS     r0,#0x15
        0x0001ae8c:    902a        *.      STR      r0,[sp,#0xa8]
        0x0001ae8e:    2001        .       MOVS     r0,#1
        0x0001ae90:    9024        $.      STR      r0,[sp,#0x90]
        0x0001ae92:    f8da0068    ..h.    LDR      r0,[r10,#0x68]
        0x0001ae96:    f88d70a0    ...p    STRB     r7,[sp,#0xa0]
        0x0001ae9a:    9622        ".      STR      r6,[sp,#0x88]
        0x0001ae9c:    f8cdb08c    ....    STR      r11,[sp,#0x8c]
        0x0001aea0:    68c3        .h      LDR      r3,[r0,#0xc]
        0x0001aea2:    f8da0000    ....    LDR      r0,[r10,#0]
        0x0001aea6:    aa21        !.      ADD      r2,sp,#0x84
        0x0001aea8:    4621        !F      MOV      r1,r4
        0x0001aeaa:    4798        .G      BLX      r3
        0x0001aeac:    0400        ..      LSLS     r0,r0,#16
        0x0001aeae:    d001        ..      BEQ      0x1aeb4 ; am_hal_sd_card_set_speed + 128
        0x0001aeb0:    2701        .'      MOVS     r7,#1
        0x0001aeb2:    e082        ..      B        0x1afba ; am_hal_sd_card_set_speed + 390
        0x0001aeb4:    f89d1051    ..Q.    LDRB     r1,[sp,#0x51]
        0x0001aeb8:    f8d532ac    ...2    LDR      r3,[r5,#0x2ac]
        0x0001aebc:    f0010201    ....    AND      r2,r1,#1
        0x0001aec0:    2b01        .+      CMP      r3,#1
        0x0001aec2:    f0010002    ....    AND      r0,r1,#2
        0x0001aec6:    d115        ..      BNE      0x1aef4 ; am_hal_sd_card_set_speed + 192
        0x0001aec8:    2800        .(      CMP      r0,#0
        0x0001aeca:    bf18        ..      IT       NE
        0x0001aecc:    2001        .       MOVNE    r0,#1
        0x0001aece:    f8850296    ....    STRB     r0,[r5,#0x296]
        0x0001aed2:    f3c10080    ....    UBFX     r0,r1,#2,#1
        0x0001aed6:    f8850297    ....    STRB     r0,[r5,#0x297]
        0x0001aeda:    f3c100c0    ....    UBFX     r0,r1,#3,#1
        0x0001aede:    f5057424    ..$t    ADD      r4,r5,#0x290
        0x0001aee2:    f8850298    ....    STRB     r0,[r5,#0x298]
        0x0001aee6:    f3c11000    ....    UBFX     r0,r1,#4,#1
        0x0001aeea:    f8852295    ..."    STRB     r2,[r5,#0x295]
        0x0001aeee:    f8850299    ....    STRB     r0,[r5,#0x299]
        0x0001aef2:    e009        ..      B        0x1af08 ; am_hal_sd_card_set_speed + 212
        0x0001aef4:    2800        .(      CMP      r0,#0
        0x0001aef6:    bf18        ..      IT       NE
        0x0001aef8:    2001        .       MOVNE    r0,#1
        0x0001aefa:    f5057424    ..$t    ADD      r4,r5,#0x290
        0x0001aefe:    f8852293    ..."    STRB     r2,[r5,#0x293]
        0x0001af02:    f8850294    ....    STRB     r0,[r5,#0x294]
        0x0001af06:    b1fb        ..      CBZ      r3,0x1af48 ; am_hal_sd_card_set_speed + 276
        0x0001af08:    f8956276    ..vb    LDRB     r6,[r5,#0x276]
        0x0001af0c:    2e04        ..      CMP      r6,#4
        0x0001af0e:    d015        ..      BEQ      0x1af3c ; am_hal_sd_card_set_speed + 264
        0x0001af10:    2e03        ..      CMP      r6,#3
        0x0001af12:    d127        '.      BNE      0x1af64 ; am_hal_sd_card_set_speed + 304
        0x0001af14:    f24930ff    I..0    MOV      r0,#0x93ff
        0x0001af18:    f6cf5023    ..#P    MOVT     r0,#0xfd23
        0x0001af1c:    f64631ff    F..1    MOV      r1,#0x6bff
        0x0001af20:    4440        @D      ADD      r0,r0,r8
        0x0001af22:    f2c021dc    ...!    MOVT     r1,#0x2dc
        0x0001af26:    4288        .B      CMP      r0,r1
        0x0001af28:    bf38        8.      IT       CC
        0x0001af2a:    2602        .&      MOVCC    r6,#2
        0x0001af2c:    f8950298    ....    LDRB     r0,[r5,#0x298]
        0x0001af30:    b9c0        ..      CBNZ     r0,0x1af64 ; am_hal_sd_card_set_speed + 304
        0x0001af32:    2701        .'      MOVS     r7,#1
        0x0001af34:    4638        8F      MOV      r0,r7
        0x0001af36:    b031        1.      ADD      sp,sp,#0xc4
        0x0001af38:    e8bd8ff0    ....    POP      {r4-r11,pc}
        0x0001af3c:    f8950299    ....    LDRB     r0,[r5,#0x299]
        0x0001af40:    2800        .(      CMP      r0,#0
        0x0001af42:    d058        X.      BEQ      0x1aff6 ; am_hal_sd_card_set_speed + 450
        0x0001af44:    2604        .&      MOVS     r6,#4
        0x0001af46:    e00d        ..      B        0x1af64 ; am_hal_sd_card_set_speed + 304
        0x0001af48:    f6470040    G.@.    MOV      r0,#0x7840
        0x0001af4c:    f2c0107d    ..}.    MOVT     r0,#0x17d
        0x0001af50:    4580        .E      CMP      r8,r0
        0x0001af52:    d903        ..      BLS      0x1af5c ; am_hal_sd_card_set_speed + 296
        0x0001af54:    f8951294    ....    LDRB     r1,[r5,#0x294]
        0x0001af58:    2900        .)      CMP      r1,#0
        0x0001af5a:    d04c        L.      BEQ      0x1aff6 ; am_hal_sd_card_set_speed + 450
        0x0001af5c:    2600        .&      MOVS     r6,#0
        0x0001af5e:    4580        .E      CMP      r8,r0
        0x0001af60:    bf88        ..      IT       HI
        0x0001af62:    2601        .&      MOVHI    r6,#1
        0x0001af64:    af11        ..      ADD      r7,sp,#0x44
        0x0001af66:    4638        8F      MOV      r0,r7
        0x0001af68:    2124        $!      MOVS     r1,#0x24
        0x0001af6a:    f7fdf9ff    ....    BL       __aeabi_memclr4 ; 0x1836c
        0x0001af6e:    2106        .!      MOVS     r1,#6
        0x0001af70:    f88d1044    ..D.    STRB     r1,[sp,#0x44]
        0x0001af74:    f64f71f0    O..q    MOV      r1,#0xfff0
        0x0001af78:    f2c801ff    ....    MOVT     r1,#0x80ff
        0x0001af7c:    2000        .       MOVS     r0,#0
        0x0001af7e:    4331        1C      ORRS     r1,r1,r6
        0x0001af80:    e9cd002a    ..*.    STRD     r0,r0,[sp,#0xa8]
        0x0001af84:    902e        ..      STR      r0,[sp,#0xb8]
        0x0001af86:    e9cd002c    ..,.    STRD     r0,r0,[sp,#0xb0]
        0x0001af8a:    e9cd0028    ..(.    STRD     r0,r0,[sp,#0xa0]
        0x0001af8e:    9112        ..      STR      r1,[sp,#0x48]
        0x0001af90:    2115        .!      MOVS     r1,#0x15
        0x0001af92:    f88d0053    ..S.    STRB     r0,[sp,#0x53]
        0x0001af96:    2001        .       MOVS     r0,#1
        0x0001af98:    9113        ..      STR      r1,[sp,#0x4c]
        0x0001af9a:    902b        +.      STR      r0,[sp,#0xac]
        0x0001af9c:    2040        @       MOVS     r0,#0x40
        0x0001af9e:    f8da1068    ..h.    LDR      r1,[r10,#0x68]
        0x0001afa2:    f8cd90a4    ....    STR      r9,[sp,#0xa4]
        0x0001afa6:    902a        *.      STR      r0,[sp,#0xa8]
        0x0001afa8:    68cb        .h      LDR      r3,[r1,#0xc]
        0x0001afaa:    f8da0000    ....    LDR      r0,[r10,#0]
        0x0001afae:    aa28        (.      ADD      r2,sp,#0xa0
        0x0001afb0:    4639        9F      MOV      r1,r7
        0x0001afb2:    4798        .G      BLX      r3
        0x0001afb4:    4607        .F      MOV      r7,r0
        0x0001afb6:    0400        ..      LSLS     r0,r0,#16
        0x0001afb8:    d004        ..      BEQ      0x1afc4 ; am_hal_sd_card_set_speed + 400
        0x0001afba:    4638        8F      MOV      r0,r7
        0x0001afbc:    b031        1.      ADD      sp,sp,#0xc4
        0x0001afbe:    e8bd8ff0    ....    POP      {r4-r11,pc}
        0x0001afc2:    bf00        ..      NOP      
        0x0001afc4:    f8d502ac    ....    LDR      r0,[r5,#0x2ac]
        0x0001afc8:    f89d1014    ....    LDRB     r1,[sp,#0x14]
        0x0001afcc:    2800        .(      CMP      r0,#0
        0x0001afce:    f001000f    ....    AND      r0,r1,#0xf
        0x0001afd2:    d003        ..      BEQ      0x1afdc ; am_hal_sd_card_set_speed + 424
        0x0001afd4:    4286        .B      CMP      r6,r0
        0x0001afd6:    d015        ..      BEQ      0x1b004 ; am_hal_sd_card_set_speed + 464
        0x0001afd8:    e00d        ..      B        0x1aff6 ; am_hal_sd_card_set_speed + 450
        0x0001afda:    bf00        ..      NOP      
        0x0001afdc:    f6470140    G.@.    MOV      r1,#0x7840
        0x0001afe0:    f2c0117d    ..}.    MOVT     r1,#0x17d
        0x0001afe4:    4588        .E      CMP      r8,r1
        0x0001afe6:    d905        ..      BLS      0x1aff4 ; am_hal_sd_card_set_speed + 448
        0x0001afe8:    b120         .      CBZ      r0,0x1aff4 ; am_hal_sd_card_set_speed + 448
        0x0001afea:    2801        .(      CMP      r0,#1
        0x0001afec:    f04f0701    O...    MOV      r7,#1
        0x0001aff0:    d1e3        ..      BNE      0x1afba ; am_hal_sd_card_set_speed + 390
        0x0001aff2:    e006        ..      B        0x1b002 ; am_hal_sd_card_set_speed + 462
        0x0001aff4:    b120         .      CBZ      r0,0x1b000 ; am_hal_sd_card_set_speed + 460
        0x0001aff6:    2701        .'      MOVS     r7,#1
        0x0001aff8:    4638        8F      MOV      r0,r7
        0x0001affa:    b031        1.      ADD      sp,sp,#0xc4
        0x0001affc:    e8bd8ff0    ....    POP      {r4-r11,pc}
        0x0001b000:    2700        .'      MOVS     r7,#0
        0x0001b002:    7027        'p      STRB     r7,[r4,#0]
        0x0001b004:    f8da1068    ..h.    LDR      r1,[r10,#0x68]
        0x0001b008:    f8da0000    ....    LDR      r0,[r10,#0]
        0x0001b00c:    698a        .i      LDR      r2,[r1,#0x18]
        0x0001b00e:    4641        AF      MOV      r1,r8
        0x0001b010:    4790        .G      BLX      r2
        0x0001b012:    4607        .F      MOV      r7,r0
        0x0001b014:    2800        .(      CMP      r0,#0
        0x0001b016:    bf18        ..      IT       NE
        0x0001b018:    2701        .'      MOVNE    r7,#1
        0x0001b01a:    4638        8F      MOV      r0,r7
        0x0001b01c:    b031        1.      ADD      sp,sp,#0xc4
        0x0001b01e:    e8bd8ff0    ....    POP      {r4-r11,pc}
        0x0001b022:    0000        ..      MOVS     r0,r0
    am_hal_sd_card_set_voltage
        0x0001b024:    e92d4ff0    -..O    PUSH     {r4-r11,lr}
        0x0001b028:    b089        ..      SUB      sp,sp,#0x24
        0x0001b02a:    4604        .F      MOV      r4,r0
        0x0001b02c:    f8d00278    ..x.    LDR      r0,[r0,#0x278]
        0x0001b030:    b350        P.      CBZ      r0,0x1b088 ; am_hal_sd_card_set_voltage + 100
        0x0001b032:    f8d402ac    ....    LDR      r0,[r4,#0x2ac]
        0x0001b036:    460d        .F      MOV      r5,r1
        0x0001b038:    2902        .)      CMP      r1,#2
        0x0001b03a:    bf08        ..      IT       EQ
        0x0001b03c:    2800        .(      CMPEQ    r0,#0
        0x0001b03e:    f00080ca    ....    BEQ.W    0x1b1d6 ; am_hal_sd_card_set_voltage + 434
        0x0001b042:    2d00        .-      CMP      r5,#0
        0x0001b044:    bf08        ..      IT       EQ
        0x0001b046:    2801        .(      CMPEQ    r0,#1
        0x0001b048:    f00080c5    ....    BEQ.W    0x1b1d6 ; am_hal_sd_card_set_voltage + 434
        0x0001b04c:    f8d41268    ..h.    LDR      r1,[r4,#0x268]
        0x0001b050:    b109        ..      CBZ      r1,0x1b056 ; am_hal_sd_card_set_voltage + 50
        0x0001b052:    2002        .       MOVS     r0,#2
        0x0001b054:    4788        .G      BLX      r1
        0x0001b056:    20c8        .       MOVS     r0,#0xc8
        0x0001b058:    f001fd2a    ..*.    BL       am_util_delay_us ; 0x1cab0
        0x0001b05c:    f8d40278    ..x.    LDR      r0,[r4,#0x278]
        0x0001b060:    46e8        .F      MOV      r8,sp
        0x0001b062:    6e81        .n      LDR      r1,[r0,#0x68]
        0x0001b064:    6806        .h      LDR      r6,[r0,#0]
        0x0001b066:    68cf        .h      LDR      r7,[r1,#0xc]
        0x0001b068:    4640        @F      MOV      r0,r8
        0x0001b06a:    2124        $!      MOVS     r1,#0x24
        0x0001b06c:    f7fdf97e    ..~.    BL       __aeabi_memclr4 ; 0x1836c
        0x0001b070:    4630        0F      MOV      r0,r6
        0x0001b072:    4641        AF      MOV      r1,r8
        0x0001b074:    2200        ."      MOVS     r2,#0
        0x0001b076:    47b8        .G      BLX      r7
        0x0001b078:    f89d0020    .. .    LDRB     r0,[sp,#0x20]
        0x0001b07c:    b150        P.      CBZ      r0,0x1b094 ; am_hal_sd_card_set_voltage + 112
        0x0001b07e:    2601        .&      MOVS     r6,#1
        0x0001b080:    4630        0F      MOV      r0,r6
        0x0001b082:    b009        ..      ADD      sp,sp,#0x24
        0x0001b084:    e8bd8ff0    ....    POP      {r4-r11,pc}
        0x0001b088:    2606        .&      MOVS     r6,#6
        0x0001b08a:    4630        0F      MOV      r0,r6
        0x0001b08c:    b009        ..      ADD      sp,sp,#0x24
        0x0001b08e:    e8bd8ff0    ....    POP      {r4-r11,pc}
        0x0001b092:    bf00        ..      NOP      
        0x0001b094:    f8d40278    ..x.    LDR      r0,[r4,#0x278]
        0x0001b098:    46e8        .F      MOV      r8,sp
        0x0001b09a:    6e81        .n      LDR      r1,[r0,#0x68]
        0x0001b09c:    6806        .h      LDR      r6,[r0,#0]
        0x0001b09e:    68cf        .h      LDR      r7,[r1,#0xc]
        0x0001b0a0:    4640        @F      MOV      r0,r8
        0x0001b0a2:    2124        $!      MOVS     r1,#0x24
        0x0001b0a4:    f7fdf962    ..b.    BL       __aeabi_memclr4 ; 0x1836c
        0x0001b0a8:    2008        .       MOVS     r0,#8
        0x0001b0aa:    f88d0000    ....    STRB     r0,[sp,#0]
        0x0001b0ae:    2015        .       MOVS     r0,#0x15
        0x0001b0b0:    9002        ..      STR      r0,[sp,#8]
        0x0001b0b2:    f44f70d5    O..p    MOV      r0,#0x1aa
        0x0001b0b6:    9001        ..      STR      r0,[sp,#4]
        0x0001b0b8:    4630        0F      MOV      r0,r6
        0x0001b0ba:    4641        AF      MOV      r1,r8
        0x0001b0bc:    2200        ."      MOVS     r2,#0
        0x0001b0be:    47b8        .G      BLX      r7
        0x0001b0c0:    f89d0020    .. .    LDRB     r0,[sp,#0x20]
        0x0001b0c4:    b120         .      CBZ      r0,0x1b0d0 ; am_hal_sd_card_set_voltage + 172
        0x0001b0c6:    2601        .&      MOVS     r6,#1
        0x0001b0c8:    4630        0F      MOV      r0,r6
        0x0001b0ca:    b009        ..      ADD      sp,sp,#0x24
        0x0001b0cc:    e8bd8ff0    ....    POP      {r4-r11,pc}
        0x0001b0d0:    f89d0010    ....    LDRB     r0,[sp,#0x10]
        0x0001b0d4:    2601        .&      MOVS     r6,#1
        0x0001b0d6:    28aa        .(      CMP      r0,#0xaa
        0x0001b0d8:    d1d2        ..      BNE      0x1b080 ; am_hal_sd_card_set_voltage + 92
        0x0001b0da:    f64f6700    O..g    MOVW     r7,#0xfe00
        0x0001b0de:    f6cf77ff    ...w    MOVT     r7,#0xffff
        0x0001b0e2:    46e8        .F      MOV      r8,sp
        0x0001b0e4:    f04f0a15    O...    MOV      r10,#0x15
        0x0001b0e8:    e005        ..      B        0x1b0f6 ; am_hal_sd_card_set_voltage + 210
        0x0001b0ea:    bf00        ..      NOP      
        0x0001b0ec:    f1bb3fff    ...?    CMP      r11,#0xffffffff
        0x0001b0f0:    f1070701    ....    ADD      r7,r7,#1
        0x0001b0f4:    dd34        4.      BLE      0x1b160 ; am_hal_sd_card_set_voltage + 316
        0x0001b0f6:    2f00        ./      CMP      r7,#0
        0x0001b0f8:    d04a        J.      BEQ      0x1b190 ; am_hal_sd_card_set_voltage + 364
        0x0001b0fa:    f8d49278    ..x.    LDR      r9,[r4,#0x278]
        0x0001b0fe:    4640        @F      MOV      r0,r8
        0x0001b100:    2124        $!      MOVS     r1,#0x24
        0x0001b102:    f7fdf933    ..3.    BL       __aeabi_memclr4 ; 0x1836c
        0x0001b106:    2037        7       MOVS     r0,#0x37
        0x0001b108:    f8d91068    ..h.    LDR      r1,[r9,#0x68]
        0x0001b10c:    f88d0000    ....    STRB     r0,[sp,#0]
        0x0001b110:    f8cda008    ....    STR      r10,[sp,#8]
        0x0001b114:    f8d90000    ....    LDR      r0,[r9,#0]
        0x0001b118:    68cb        .h      LDR      r3,[r1,#0xc]
        0x0001b11a:    4641        AF      MOV      r1,r8
        0x0001b11c:    2200        ."      MOVS     r2,#0
        0x0001b11e:    4798        .G      BLX      r3
        0x0001b120:    f89d0020    .. .    LDRB     r0,[sp,#0x20]
        0x0001b124:    2800        .(      CMP      r0,#0
        0x0001b126:    d1e1        ..      BNE      0x1b0ec ; am_hal_sd_card_set_voltage + 200
        0x0001b128:    4640        @F      MOV      r0,r8
        0x0001b12a:    2124        $!      MOVS     r1,#0x24
        0x0001b12c:    f7fdf91e    ....    BL       __aeabi_memclr4 ; 0x1836c
        0x0001b130:    2029        )       MOVS     r0,#0x29
        0x0001b132:    f88d0000    ....    STRB     r0,[sp,#0]
        0x0001b136:    f2480000    H...    MOVW     r0,#0x8000
        0x0001b13a:    f2c410ff    ....    MOVT     r0,#0x41ff
        0x0001b13e:    f8d91068    ..h.    LDR      r1,[r9,#0x68]
        0x0001b142:    e9cd0601    ....    STRD     r0,r6,[sp,#4]
        0x0001b146:    f8d90000    ....    LDR      r0,[r9,#0]
        0x0001b14a:    68cb        .h      LDR      r3,[r1,#0xc]
        0x0001b14c:    4641        AF      MOV      r1,r8
        0x0001b14e:    2200        ."      MOVS     r2,#0
        0x0001b150:    4798        .G      BLX      r3
        0x0001b152:    f89d0020    .. .    LDRB     r0,[sp,#0x20]
        0x0001b156:    9904        ..      LDR      r1,[sp,#0x10]
        0x0001b158:    2800        .(      CMP      r0,#0
        0x0001b15a:    bf08        ..      IT       EQ
        0x0001b15c:    468b        .F      MOVEQ    r11,r1
        0x0001b15e:    e7c5        ..      B        0x1b0ec ; am_hal_sd_card_set_voltage + 200
        0x0001b160:    f3cb7080    ...p    UBFX     r0,r11,#30,#1
        0x0001b164:    ea5f11cb    _...    LSLS     r1,r11,#7
        0x0001b168:    f8840233    ..3.    STRB     r0,[r4,#0x233]
        0x0001b16c:    d40a        ..      BMI      0x1b184 ; am_hal_sd_card_set_voltage + 352
        0x0001b16e:    2000        .       MOVS     r0,#0
        0x0001b170:    f8c402ac    ....    STR      r0,[r4,#0x2ac]
        0x0001b174:    f8840292    ....    STRB     r0,[r4,#0x292]
        0x0001b178:    b957        W.      CBNZ     r7,0x1b190 ; am_hal_sd_card_set_voltage + 364
        0x0001b17a:    2602        .&      MOVS     r6,#2
        0x0001b17c:    4630        0F      MOV      r0,r6
        0x0001b17e:    b009        ..      ADD      sp,sp,#0x24
        0x0001b180:    e8bd8ff0    ....    POP      {r4-r11,pc}
        0x0001b184:    2001        .       MOVS     r0,#1
        0x0001b186:    f8840292    ....    STRB     r0,[r4,#0x292]
        0x0001b18a:    b34d        M.      CBZ      r5,0x1b1e0 ; am_hal_sd_card_set_voltage + 444
        0x0001b18c:    2f00        ./      CMP      r7,#0
        0x0001b18e:    d0f4        ..      BEQ      0x1b17a ; am_hal_sd_card_set_voltage + 342
        0x0001b190:    4620         F      MOV      r0,r4
        0x0001b192:    f001fb55    ..U.    BL       am_hal_sdmmc_cmd2_send_cid ; 0x1c840
        0x0001b196:    2800        .(      CMP      r0,#0
        0x0001b198:    d195        ..      BNE      0x1b0c6 ; am_hal_sd_card_set_voltage + 162
        0x0001b19a:    4620         F      MOV      r0,r4
        0x0001b19c:    2100        .!      MOVS     r1,#0
        0x0001b19e:    f001fb77    ..w.    BL       am_hal_sdmmc_cmd3_set_rca ; 0x1c890
        0x0001b1a2:    2800        .(      CMP      r0,#0
        0x0001b1a4:    f47faf8f    ....    BNE.W    0x1b0c6 ; am_hal_sd_card_set_voltage + 162
        0x0001b1a8:    4620         F      MOV      r0,r4
        0x0001b1aa:    f001fbf5    ....    BL       am_hal_sdmmc_cmd9_send_csd ; 0x1c998
        0x0001b1ae:    2800        .(      CMP      r0,#0
        0x0001b1b0:    f47faf89    ....    BNE.W    0x1b0c6 ; am_hal_sd_card_set_voltage + 162
        0x0001b1b4:    4620         F      MOV      r0,r4
        0x0001b1b6:    f001fb93    ....    BL       am_hal_sdmmc_cmd7_card_select ; 0x1c8e0
        0x0001b1ba:    2800        .(      CMP      r0,#0
        0x0001b1bc:    f47faf83    ....    BNE.W    0x1b0c6 ; am_hal_sd_card_set_voltage + 162
        0x0001b1c0:    f8d402ac    ....    LDR      r0,[r4,#0x2ac]
        0x0001b1c4:    2801        .(      CMP      r0,#1
        0x0001b1c6:    d106        ..      BNE      0x1b1d6 ; am_hal_sd_card_set_voltage + 434
        0x0001b1c8:    4620         F      MOV      r0,r4
        0x0001b1ca:    2104        .!      MOVS     r1,#4
        0x0001b1cc:    f7fffdec    ....    BL       am_hal_sd_card_set_bus_width ; 0x1ada8
        0x0001b1d0:    2800        .(      CMP      r0,#0
        0x0001b1d2:    f47faf78    ..x.    BNE      0x1b0c6 ; am_hal_sd_card_set_voltage + 162
        0x0001b1d6:    2600        .&      MOVS     r6,#0
        0x0001b1d8:    4630        0F      MOV      r0,r6
        0x0001b1da:    b009        ..      ADD      sp,sp,#0x24
        0x0001b1dc:    e8bd8ff0    ....    POP      {r4-r11,pc}
        0x0001b1e0:    f8d40278    ..x.    LDR      r0,[r4,#0x278]
        0x0001b1e4:    46e8        .F      MOV      r8,sp
        0x0001b1e6:    6e81        .n      LDR      r1,[r0,#0x68]
        0x0001b1e8:    6805        .h      LDR      r5,[r0,#0]
        0x0001b1ea:    68ce        .h      LDR      r6,[r1,#0xc]
        0x0001b1ec:    4640        @F      MOV      r0,r8
        0x0001b1ee:    2124        $!      MOVS     r1,#0x24
        0x0001b1f0:    f7fdf8bc    ....    BL       __aeabi_memclr4 ; 0x1836c
        0x0001b1f4:    200b        .       MOVS     r0,#0xb
        0x0001b1f6:    f88d0000    ....    STRB     r0,[sp,#0]
        0x0001b1fa:    2015        .       MOVS     r0,#0x15
        0x0001b1fc:    9002        ..      STR      r0,[sp,#8]
        0x0001b1fe:    4628        (F      MOV      r0,r5
        0x0001b200:    4641        AF      MOV      r1,r8
        0x0001b202:    2200        ."      MOVS     r2,#0
        0x0001b204:    47b0        .G      BLX      r6
        0x0001b206:    f89d0020    .. .    LDRB     r0,[sp,#0x20]
        0x0001b20a:    2601        .&      MOVS     r6,#1
        0x0001b20c:    2800        .(      CMP      r0,#0
        0x0001b20e:    f47faf37    ..7.    BNE      0x1b080 ; am_hal_sd_card_set_voltage + 92
        0x0001b212:    f8d41268    ..h.    LDR      r1,[r4,#0x268]
        0x0001b216:    2003        .       MOVS     r0,#3
        0x0001b218:    4788        .G      BLX      r1
        0x0001b21a:    f8c462ac    ...b    STR      r6,[r4,#0x2ac]
        0x0001b21e:    2f00        ./      CMP      r7,#0
        0x0001b220:    d1b6        ..      BNE      0x1b190 ; am_hal_sd_card_set_voltage + 364
        0x0001b222:    e7aa        ..      B        0x1b17a ; am_hal_sd_card_set_voltage + 342
    am_hal_sdhc_card_busy
        0x0001b224:    b510        ..      PUSH     {r4,lr}
        0x0001b226:    b082        ..      SUB      sp,sp,#8
        0x0001b228:    b170        p.      CBZ      r0,0x1b248 ; am_hal_sdhc_card_busy + 36
        0x0001b22a:    6802        .h      LDR      r2,[r0,#0]
        0x0001b22c:    f24133b0    A..3    MOV      r3,#0x13b0
        0x0001b230:    f0224c7e    ".~L    BIC      r12,r2,#0xfe000000
        0x0001b234:    f2c01383    ....    MOVT     r3,#0x183
        0x0001b238:    459c        .E      CMP      r12,r3
        0x0001b23a:    d105        ..      BNE      0x1b248 ; am_hal_sdhc_card_busy + 36
        0x0001b23c:    0192        ..      LSLS     r2,r2,#6
        0x0001b23e:    d407        ..      BMI      0x1b250 ; am_hal_sdhc_card_busy + 44
        0x0001b240:    2007        .       MOVS     r0,#7
        0x0001b242:    b002        ..      ADD      sp,sp,#8
        0x0001b244:    bd10        ..      POP      {r4,pc}
        0x0001b246:    bf00        ..      NOP      
        0x0001b248:    2002        .       MOVS     r0,#2
        0x0001b24a:    b002        ..      ADD      sp,sp,#8
        0x0001b24c:    bd10        ..      POP      {r4,pc}
        0x0001b24e:    bf00        ..      NOP      
        0x0001b250:    6844        Dh      LDR      r4,[r0,#4]
        0x0001b252:    f44f707a    O.zp    MOV      r0,#0x3e8
        0x0001b256:    4348        HC      MULS     r0,r1,r0
        0x0001b258:    2124        $!      MOVS     r1,#0x24
        0x0001b25a:    f2c40107    ....    MOVT     r1,#0x4007
        0x0001b25e:    4421        !D      ADD      r1,r1,r4
        0x0001b260:    f04f0c01    O...    MOV      r12,#1
        0x0001b264:    f44f1280    O...    MOV      r2,#0x100000
        0x0001b268:    f44f1380    O...    MOV      r3,#0x100000
        0x0001b26c:    f8cdc000    ....    STR      r12,[sp,#0]
        0x0001b270:    f7fefcce    ....    BL       am_hal_delay_us_status_check ; 0x19c10
        0x0001b274:    212c        ,!      MOVS     r1,#0x2c
        0x0001b276:    f2c40107    ....    MOVT     r1,#0x4007
        0x0001b27a:    5862        bX      LDR      r2,[r4,r1]
        0x0001b27c:    f0220204    "...    BIC      r2,r2,#4
        0x0001b280:    5062        bP      STR      r2,[r4,r1]
        0x0001b282:    b002        ..      ADD      sp,sp,#8
        0x0001b284:    bd10        ..      POP      {r4,pc}
        0x0001b286:    0000        ..      MOVS     r0,r0
    am_hal_sdhc_deinitialize
        0x0001b288:    b180        ..      CBZ      r0,0x1b2ac ; am_hal_sdhc_deinitialize + 36
        0x0001b28a:    4601        .F      MOV      r1,r0
        0x0001b28c:    6800        .h      LDR      r0,[r0,#0]
        0x0001b28e:    f24133b0    A..3    MOV      r3,#0x13b0
        0x0001b292:    f020427e     .~B    BIC      r2,r0,#0xfe000000
        0x0001b296:    f2c01383    ....    MOVT     r3,#0x183
        0x0001b29a:    429a        .B      CMP      r2,r3
        0x0001b29c:    d106        ..      BNE      0x1b2ac ; am_hal_sdhc_deinitialize + 36
        0x0001b29e:    f0207280     ..r    BIC      r2,r0,#0x1000000
        0x0001b2a2:    2000        .       MOVS     r0,#0
        0x0001b2a4:    e9c12000    ...     STRD     r2,r0,[r1,#0]
        0x0001b2a8:    4770        pG      BX       lr
        0x0001b2aa:    bf00        ..      NOP      
        0x0001b2ac:    2002        .       MOVS     r0,#2
        0x0001b2ae:    4770        pG      BX       lr
    am_hal_sdhc_disable
        0x0001b2b0:    b510        ..      PUSH     {r4,lr}
        0x0001b2b2:    b3a8        ..      CBZ      r0,0x1b320 ; am_hal_sdhc_disable + 112
        0x0001b2b4:    6801        .h      LDR      r1,[r0,#0]
        0x0001b2b6:    f24133b0    A..3    MOV      r3,#0x13b0
        0x0001b2ba:    f021427e    !.~B    BIC      r2,r1,#0xfe000000
        0x0001b2be:    f2c01383    ....    MOVT     r3,#0x183
        0x0001b2c2:    429a        .B      CMP      r2,r3
        0x0001b2c4:    d12c        ,.      BNE      0x1b320 ; am_hal_sdhc_disable + 112
        0x0001b2c6:    018a        ..      LSLS     r2,r1,#6
        0x0001b2c8:    f04f0400    O...    MOV      r4,#0
        0x0001b2cc:    d526        &.      BPL      0x1b31c ; am_hal_sdhc_disable + 108
        0x0001b2ce:    f0217100    !..q    BIC      r1,r1,#0x2000000
        0x0001b2d2:    6001        .`      STR      r1,[r0,#0]
        0x0001b2d4:    f24e1180    N...    MOV      r1,#0xe180
        0x0001b2d8:    f2ce0100    ....    MOVT     r1,#0xe000
        0x0001b2dc:    f04f6280    O..b    MOV      r2,#0x4000000
        0x0001b2e0:    600a        .`      STR      r2,[r1,#0]
        0x0001b2e2:    f3bf8f4f    ..O.    DSB      
        0x0001b2e6:    f3bf8f6f    ..o.    ISB      
        0x0001b2ea:    6841        Ah      LDR      r1,[r0,#4]
        0x0001b2ec:    2200        ."      MOVS     r2,#0
        0x0001b2ee:    f2c40207    ....    MOVT     r2,#0x4007
        0x0001b2f2:    4411        .D      ADD      r1,r1,r2
        0x0001b2f4:    638c        .c      STR      r4,[r1,#0x38]
        0x0001b2f6:    6841        Ah      LDR      r1,[r0,#4]
        0x0001b2f8:    4411        .D      ADD      r1,r1,r2
        0x0001b2fa:    634c        Lc      STR      r4,[r1,#0x34]
        0x0001b2fc:    6840        @h      LDR      r0,[r0,#4]
        0x0001b2fe:    f04f31ff    O..1    MOV      r1,#0xffffffff
        0x0001b302:    4410        .D      ADD      r0,r0,r2
        0x0001b304:    6301        .c      STR      r1,[r0,#0x30]
        0x0001b306:    f2404050    @.P@    MOVW     r0,#0x450
        0x0001b30a:    f2c40002    ....    MOVT     r0,#0x4002
        0x0001b30e:    6801        .h      LDR      r1,[r0,#0]
        0x0001b310:    f0210103    !...    BIC      r1,r1,#3
        0x0001b314:    6001        .`      STR      r1,[r0,#0]
        0x0001b316:    200a        .       MOVS     r0,#0xa
        0x0001b318:    f001fbbe    ....    BL       am_util_delay_ms ; 0x1ca98
        0x0001b31c:    4620         F      MOV      r0,r4
        0x0001b31e:    bd10        ..      POP      {r4,pc}
        0x0001b320:    2002        .       MOVS     r0,#2
        0x0001b322:    bd10        ..      POP      {r4,pc}
    am_hal_sdhc_enable
        0x0001b324:    b5f0        ..      PUSH     {r4-r7,lr}
        0x0001b326:    b081        ..      SUB      sp,sp,#4
        0x0001b328:    b310        ..      CBZ      r0,0x1b370 ; am_hal_sdhc_enable + 76
        0x0001b32a:    4604        .F      MOV      r4,r0
        0x0001b32c:    6800        .h      LDR      r0,[r0,#0]
        0x0001b32e:    f24132b0    A..2    MOV      r2,#0x13b0
        0x0001b332:    f020417e     .~A    BIC      r1,r0,#0xfe000000
        0x0001b336:    f2c01283    ....    MOVT     r2,#0x183
        0x0001b33a:    4291        .B      CMP      r1,r2
        0x0001b33c:    d118        ..      BNE      0x1b370 ; am_hal_sdhc_enable + 76
        0x0001b33e:    0180        ..      LSLS     r0,r0,#6
        0x0001b340:    d41a        ..      BMI      0x1b378 ; am_hal_sdhc_enable + 84
        0x0001b342:    f2404150    @.PA    MOVW     r1,#0x450
        0x0001b346:    f2c40102    ....    MOVT     r1,#0x4002
        0x0001b34a:    2500        .%      MOVS     r5,#0
        0x0001b34c:    6860        `h      LDR      r0,[r4,#4]
        0x0001b34e:    680a        .h      LDR      r2,[r1,#0]
        0x0001b350:    f2c40507    ....    MOVT     r5,#0x4007
        0x0001b354:    1946        F.      ADDS     r6,r0,r5
        0x0001b356:    f0420003    B...    ORR      r0,r2,#3
        0x0001b35a:    6008        .`      STR      r0,[r1,#0]
        0x0001b35c:    200a        .       MOVS     r0,#0xa
        0x0001b35e:    f001fb9b    ....    BL       am_util_delay_ms ; 0x1ca98
        0x0001b362:    6a70        pj      LDR      r0,[r6,#0x24]
        0x0001b364:    03c0        ..      LSLS     r0,r0,#15
        0x0001b366:    d40b        ..      BMI      0x1b380 ; am_hal_sdhc_enable + 92
        0x0001b368:    2001        .       MOVS     r0,#1
        0x0001b36a:    b001        ..      ADD      sp,sp,#4
        0x0001b36c:    bdf0        ..      POP      {r4-r7,pc}
        0x0001b36e:    bf00        ..      NOP      
        0x0001b370:    2002        .       MOVS     r0,#2
        0x0001b372:    b001        ..      ADD      sp,sp,#4
        0x0001b374:    bdf0        ..      POP      {r4-r7,pc}
        0x0001b376:    bf00        ..      NOP      
        0x0001b378:    2007        .       MOVS     r0,#7
        0x0001b37a:    b001        ..      ADD      sp,sp,#4
        0x0001b37c:    bdf0        ..      POP      {r4-r7,pc}
        0x0001b37e:    bf00        ..      NOP      
        0x0001b380:    6af0        .j      LDR      r0,[r6,#0x2c]
        0x0001b382:    f06f0796    o...    MVN      r7,#0x96
        0x0001b386:    f0407080    @..p    ORR      r0,r0,#0x1000000
        0x0001b38a:    62f0        .b      STR      r0,[r6,#0x2c]
        0x0001b38c:    2001        .       MOVS     r0,#1
        0x0001b38e:    3701        .7      ADDS     r7,#1
        0x0001b390:    d221        !.      BCS      0x1b3d6 ; am_hal_sdhc_enable + 178
        0x0001b392:    f001fb81    ....    BL       am_util_delay_ms ; 0x1ca98
        0x0001b396:    6af0        .j      LDR      r0,[r6,#0x2c]
        0x0001b398:    01c0        ..      LSLS     r0,r0,#7
        0x0001b39a:    d4f7        ..      BMI      0x1b38c ; am_hal_sdhc_enable + 104
        0x0001b39c:    6860        `h      LDR      r0,[r4,#4]
        0x0001b39e:    f04f31ff    O..1    MOV      r1,#0xffffffff
        0x0001b3a2:    4428        (D      ADD      r0,r0,r5
        0x0001b3a4:    6341        Ac      STR      r1,[r0,#0x34]
        0x0001b3a6:    6860        `h      LDR      r0,[r4,#4]
        0x0001b3a8:    2280        ."      MOVS     r2,#0x80
        0x0001b3aa:    1941        A.      ADDS     r1,r0,r5
        0x0001b3ac:    2000        .       MOVS     r0,#0
        0x0001b3ae:    6388        .c      STR      r0,[r1,#0x38]
        0x0001b3b0:    f24e411a    N..A    MOV      r1,#0xe41a
        0x0001b3b4:    f2ce0100    ....    MOVT     r1,#0xe000
        0x0001b3b8:    700a        .p      STRB     r2,[r1,#0]
        0x0001b3ba:    f24e1100    N...    MOVW     r1,#0xe100
        0x0001b3be:    f2ce0100    ....    MOVT     r1,#0xe000
        0x0001b3c2:    f04f6280    O..b    MOV      r2,#0x4000000
        0x0001b3c6:    600a        .`      STR      r2,[r1,#0]
        0x0001b3c8:    6821        !h      LDR      r1,[r4,#0]
        0x0001b3ca:    82a0        ..      STRH     r0,[r4,#0x14]
        0x0001b3cc:    f0417100    A..q    ORR      r1,r1,#0x2000000
        0x0001b3d0:    61a0        .a      STR      r0,[r4,#0x18]
        0x0001b3d2:    61e0        .a      STR      r0,[r4,#0x1c]
        0x0001b3d4:    6021        !`      STR      r1,[r4,#0]
        0x0001b3d6:    b001        ..      ADD      sp,sp,#4
        0x0001b3d8:    bdf0        ..      POP      {r4-r7,pc}
        0x0001b3da:    0000        ..      MOVS     r0,r0
    am_hal_sdhc_execute_cmd
        0x0001b3dc:    e92d4ff0    -..O    PUSH     {r4-r11,lr}
        0x0001b3e0:    b08d        ..      SUB      sp,sp,#0x34
        0x0001b3e2:    b188        ..      CBZ      r0,0x1b408 ; am_hal_sdhc_execute_cmd + 44
        0x0001b3e4:    4683        .F      MOV      r11,r0
        0x0001b3e6:    6800        .h      LDR      r0,[r0,#0]
        0x0001b3e8:    4692        .F      MOV      r10,r2
        0x0001b3ea:    f24132b0    A..2    MOV      r2,#0x13b0
        0x0001b3ee:    4689        .F      MOV      r9,r1
        0x0001b3f0:    f020417e     .~A    BIC      r1,r0,#0xfe000000
        0x0001b3f4:    f2c01283    ....    MOVT     r2,#0x183
        0x0001b3f8:    4291        .B      CMP      r1,r2
        0x0001b3fa:    d105        ..      BNE      0x1b408 ; am_hal_sdhc_execute_cmd + 44
        0x0001b3fc:    0180        ..      LSLS     r0,r0,#6
        0x0001b3fe:    d407        ..      BMI      0x1b410 ; am_hal_sdhc_execute_cmd + 52
        0x0001b400:    2007        .       MOVS     r0,#7
        0x0001b402:    b00d        ..      ADD      sp,sp,#0x34
        0x0001b404:    e8bd8ff0    ....    POP      {r4-r11,pc}
        0x0001b408:    2002        .       MOVS     r0,#2
        0x0001b40a:    b00d        ..      ADD      sp,sp,#0x34
        0x0001b40c:    e8bd8ff0    ....    POP      {r4-r11,pc}
        0x0001b410:    f89b0039    ..9.    LDRB     r0,[r11,#0x39]
        0x0001b414:    2800        .(      CMP      r0,#0
        0x0001b416:    d04f        O.      BEQ      0x1b4b8 ; am_hal_sdhc_execute_cmd + 220
        0x0001b418:    f8db0004    ....    LDR      r0,[r11,#4]
        0x0001b41c:    f89b1014    ....    LDRB     r1,[r11,#0x14]
        0x0001b420:    f1004080    ...@    ADD      r0,r0,#0x40000000
        0x0001b424:    f50026e0    ...&    ADD      r6,r0,#0x70000
        0x0001b428:    b199        ..      CBZ      r1,0x1b452 ; am_hal_sdhc_execute_cmd + 118
        0x0001b42a:    6a70        pj      LDR      r0,[r6,#0x24]
        0x0001b42c:    03c0        ..      LSLS     r0,r0,#15
        0x0001b42e:    d50d        ..      BPL      0x1b44c ; am_hal_sdhc_execute_cmd + 112
        0x0001b430:    6af0        .j      LDR      r0,[r6,#0x2c]
        0x0001b432:    f06f0596    o...    MVN      r5,#0x96
        0x0001b436:    f0407000    @..p    ORR      r0,r0,#0x2000000
        0x0001b43a:    62f0        .b      STR      r0,[r6,#0x2c]
        0x0001b43c:    3501        .5      ADDS     r5,#1
        0x0001b43e:    d205        ..      BCS      0x1b44c ; am_hal_sdhc_execute_cmd + 112
        0x0001b440:    2001        .       MOVS     r0,#1
        0x0001b442:    f001fb29    ..).    BL       am_util_delay_ms ; 0x1ca98
        0x0001b446:    6af0        .j      LDR      r0,[r6,#0x2c]
        0x0001b448:    0180        ..      LSLS     r0,r0,#6
        0x0001b44a:    d4f7        ..      BMI      0x1b43c ; am_hal_sdhc_execute_cmd + 96
        0x0001b44c:    2000        .       MOVS     r0,#0
        0x0001b44e:    f88b0014    ....    STRB     r0,[r11,#0x14]
        0x0001b452:    f89b0015    ....    LDRB     r0,[r11,#0x15]
        0x0001b456:    b1a0        ..      CBZ      r0,0x1b482 ; am_hal_sdhc_execute_cmd + 166
        0x0001b458:    6a70        pj      LDR      r0,[r6,#0x24]
        0x0001b45a:    03c0        ..      LSLS     r0,r0,#15
        0x0001b45c:    d50e        ..      BPL      0x1b47c ; am_hal_sdhc_execute_cmd + 160
        0x0001b45e:    6af0        .j      LDR      r0,[r6,#0x2c]
        0x0001b460:    f06f0596    o...    MVN      r5,#0x96
        0x0001b464:    f0406080    @..`    ORR      r0,r0,#0x4000000
        0x0001b468:    62f0        .b      STR      r0,[r6,#0x2c]
        0x0001b46a:    bf00        ..      NOP      
        0x0001b46c:    3501        .5      ADDS     r5,#1
        0x0001b46e:    d205        ..      BCS      0x1b47c ; am_hal_sdhc_execute_cmd + 160
        0x0001b470:    2001        .       MOVS     r0,#1
        0x0001b472:    f001fb11    ....    BL       am_util_delay_ms ; 0x1ca98
        0x0001b476:    6af0        .j      LDR      r0,[r6,#0x2c]
        0x0001b478:    0140        @.      LSLS     r0,r0,#5
        0x0001b47a:    d4f7        ..      BMI      0x1b46c ; am_hal_sdhc_execute_cmd + 144
        0x0001b47c:    2000        .       MOVS     r0,#0
        0x0001b47e:    f88b0015    ....    STRB     r0,[r11,#0x15]
        0x0001b482:    6b70        pk      LDR      r0,[r6,#0x34]
        0x0001b484:    4635        5F      MOV      r5,r6
        0x0001b486:    f4207080     ..p    BIC      r0,r0,#0x100
        0x0001b48a:    6370        pc      STR      r0,[r6,#0x34]
        0x0001b48c:    f04f30ff    O..0    MOV      r0,#0xffffffff
        0x0001b490:    f8450f30    E.0.    STR      r0,[r5,#0x30]!
        0x0001b494:    f44f70e0    O..p    MOV      r0,#0x1c0
        0x0001b498:    60a8        .`      STR      r0,[r5,#8]
        0x0001b49a:    f8550c04    U...    LDR      r0,[r5,#-4]
        0x0001b49e:    f1ba0f00    ....    CMP      r10,#0
        0x0001b4a2:    f0400004    @...    ORR      r0,r0,#4
        0x0001b4a6:    f8450c04    E...    STR      r0,[r5,#-4]
        0x0001b4aa:    d002        ..      BEQ      0x1b4b2 ; am_hal_sdhc_execute_cmd + 214
        0x0001b4ac:    f89a0002    ....    LDRB     r0,[r10,#2]
        0x0001b4b0:    b130        0.      CBZ      r0,0x1b4c0 ; am_hal_sdhc_execute_cmd + 228
        0x0001b4b2:    2201        ."      MOVS     r2,#1
        0x0001b4b4:    e005        ..      B        0x1b4c2 ; am_hal_sdhc_execute_cmd + 230
        0x0001b4b6:    bf00        ..      NOP      
        0x0001b4b8:    2003        .       MOVS     r0,#3
        0x0001b4ba:    b00d        ..      ADD      sp,sp,#0x34
        0x0001b4bc:    e8bd8ff0    ....    POP      {r4-r11,pc}
        0x0001b4c0:    2203        ."      MOVS     r2,#3
        0x0001b4c2:    f1060124    ..$.    ADD      r1,r6,#0x24
        0x0001b4c6:    2700        .'      MOVS     r7,#0
        0x0001b4c8:    2064        d       MOVS     r0,#0x64
        0x0001b4ca:    4613        .F      MOV      r3,r2
        0x0001b4cc:    9700        ..      STR      r7,[sp,#0]
        0x0001b4ce:    f7fefb9f    ....    BL       am_hal_delay_us_status_check ; 0x19c10
        0x0001b4d2:    2804        .(      CMP      r0,#4
        0x0001b4d4:    d104        ..      BNE      0x1b4e0 ; am_hal_sdhc_execute_cmd + 260
        0x0001b4d6:    2001        .       MOVS     r0,#1
        0x0001b4d8:    f8890020    .. .    STRB     r0,[r9,#0x20]
        0x0001b4dc:    e1f4        ..      B        0x1b8c8 ; am_hal_sdhc_execute_cmd + 1260
        0x0001b4de:    bf00        ..      NOP      
        0x0001b4e0:    f8d90008    ....    LDR      r0,[r9,#8]
        0x0001b4e4:    07c1        ..      LSLS     r1,r0,#31
        0x0001b4e6:    d101        ..      BNE      0x1b4ec ; am_hal_sdhc_execute_cmd + 272
        0x0001b4e8:    2100        .!      MOVS     r1,#0
        0x0001b4ea:    e00b        ..      B        0x1b504 ; am_hal_sdhc_execute_cmd + 296
        0x0001b4ec:    0781        ..      LSLS     r1,r0,#30
        0x0001b4ee:    d407        ..      BMI      0x1b500 ; am_hal_sdhc_execute_cmd + 292
        0x0001b4f0:    0701        ..      LSLS     r1,r0,#28
        0x0001b4f2:    f44f3140    O.@1    MOV      r1,#0x30000
        0x0001b4f6:    bf58        X.      IT       PL
        0x0001b4f8:    f44f3100    O..1    MOVPL    r1,#0x20000
        0x0001b4fc:    e002        ..      B        0x1b504 ; am_hal_sdhc_execute_cmd + 296
        0x0001b4fe:    bf00        ..      NOP      
        0x0001b500:    f44f3180    O..1    MOV      r1,#0x10000
        0x0001b504:    f44f1380    O...    MOV      r3,#0x100000
        0x0001b508:    f0000204    ....    AND      r2,r0,#4
        0x0001b50c:    ea034000    ...@    AND      r0,r3,r0,LSL #16
        0x0001b510:    f1ba0f00    ....    CMP      r10,#0
        0x0001b514:    bf18        ..      IT       NE
        0x0001b516:    f5011100    ....    ADDNE    r1,r1,#0x200000
        0x0001b51a:    f8993000    ...0    LDRB     r3,[r9,#0]
        0x0001b51e:    ea404042    @.B@    ORR      r0,r0,r2,LSL #17
        0x0001b522:    4408        .D      ADD      r0,r0,r1
        0x0001b524:    f1ba0f00    ....    CMP      r10,#0
        0x0001b528:    ea406703    @..g    ORR      r7,r0,r3,LSL #24
        0x0001b52c:    d038        8.      BEQ      0x1b5a0 ; am_hal_sdhc_execute_cmd + 452
        0x0001b52e:    f8da0004    ....    LDR      r0,[r10,#4]
        0x0001b532:    f8cb0020    .. .    STR      r0,[r11,#0x20]
        0x0001b536:    e9da2002    ...     LDRD     r2,r0,[r10,#8]
        0x0001b53a:    2800        .(      CMP      r0,#0
        0x0001b53c:    e9cb000a    ....    STRD     r0,r0,[r11,#0x28]
        0x0001b540:    bf08        ..      IT       EQ
        0x0001b542:    2001        .       MOVEQ    r0,#1
        0x0001b544:    4350        PC      MULS     r0,r2,r0
        0x0001b546:    f89a3000    ...0    LDRB     r3,[r10,#0]
        0x0001b54a:    f8cb0024    ..$.    STR      r0,[r11,#0x24]
        0x0001b54e:    f89a0001    ....    LDRB     r0,[r10,#1]
        0x0001b552:    fab3f183    ....    CLZ      r1,r3
        0x0001b556:    0949        I.      LSRS     r1,r1,#5
        0x0001b558:    f88b3038    ..80    STRB     r3,[r11,#0x38]
        0x0001b55c:    f8cb2030    ..0     STR      r2,[r11,#0x30]
        0x0001b560:    b920         .      CBNZ     r0,0x1b56c ; am_hal_sdhc_execute_cmd + 400
        0x0001b562:    f8db0010    ....    LDR      r0,[r11,#0x10]
        0x0001b566:    7a80        .z      LDRB     r0,[r0,#0xa]
        0x0001b568:    f88a0001    ....    STRB     r0,[r10,#1]
        0x0001b56c:    2803        .(      CMP      r0,#3
        0x0001b56e:    ea4f1301    O...    LSL      r3,r1,#4
        0x0001b572:    d017        ..      BEQ      0x1b5a4 ; am_hal_sdhc_execute_cmd + 456
        0x0001b574:    2802        .(      CMP      r0,#2
        0x0001b576:    f0408133    @.3.    BNE.W    0x1b7e0 ; am_hal_sdhc_execute_cmd + 1028
        0x0001b57a:    6ab0        .j      LDR      r0,[r6,#0x28]
        0x0001b57c:    f0430301    C...    ORR      r3,r3,#1
        0x0001b580:    f0200018     ...    BIC      r0,r0,#0x18
        0x0001b584:    62b0        .b      STR      r0,[r6,#0x28]
        0x0001b586:    f8da0004    ....    LDR      r0,[r10,#4]
        0x0001b58a:    6030        0`      STR      r0,[r6,#0]
        0x0001b58c:    f8db0008    ....    LDR      r0,[r11,#8]
        0x0001b590:    f8da1008    ....    LDR      r1,[r10,#8]
        0x0001b594:    fbb0f0f1    ....    UDIV     r0,r0,r1
        0x0001b598:    f8cb0034    ..4.    STR      r0,[r11,#0x34]
        0x0001b59c:    e120         .      B        0x1b7e0 ; am_hal_sdhc_execute_cmd + 1028
        0x0001b59e:    bf00        ..      NOP      
        0x0001b5a0:    2300        .#      MOVS     r3,#0
        0x0001b5a2:    e139        9.      B        0x1b818 ; am_hal_sdhc_execute_cmd + 1084
        0x0001b5a4:    6ab0        .j      LDR      r0,[r6,#0x28]
        0x0001b5a6:    2102        .!      MOVS     r1,#2
        0x0001b5a8:    f36100c4    a...    BFI      r0,r1,#3,#2
        0x0001b5ac:    62b0        .b      STR      r0,[r6,#0x28]
        0x0001b5ae:    f89a0010    ....    LDRB     r0,[r10,#0x10]
        0x0001b5b2:    f2401298    @...    MOVW     r2,#0x198
        0x0001b5b6:    f0430301    C...    ORR      r3,r3,#1
        0x0001b5ba:    f2c10200    ....    MOVT     r2,#0x1000
        0x0001b5be:    e9cd5606    ...V    STRD     r5,r6,[sp,#0x18]
        0x0001b5c2:    e9cd3704    ...7    STRD     r3,r7,[sp,#0x10]
        0x0001b5c6:    b3c8        ..      CBZ      r0,0x1b63c ; am_hal_sdhc_execute_cmd + 608
        0x0001b5c8:    f8dae014    ....    LDR      lr,[r10,#0x14]
        0x0001b5cc:    f8cda028    ..(.    STR      r10,[sp,#0x28]
        0x0001b5d0:    f0000101    ....    AND      r1,r0,#1
        0x0001b5d4:    2801        .(      CMP      r0,#1
        0x0001b5d6:    f04f0a00    O...    MOV      r10,#0
        0x0001b5da:    e9cd1902    ....    STRD     r1,r9,[sp,#8]
        0x0001b5de:    d14f        O.      BNE      0x1b680 ; am_hal_sdhc_execute_cmd + 676
        0x0001b5e0:    2501        .%      MOVS     r5,#1
        0x0001b5e2:    f04f0800    O...    MOV      r8,#0
        0x0001b5e6:    2100        .!      MOVS     r1,#0
        0x0001b5e8:    9802        ..      LDR      r0,[sp,#8]
        0x0001b5ea:    f8dd900c    ....    LDR      r9,[sp,#0xc]
        0x0001b5ee:    f8dda028    ..(.    LDR      r10,[sp,#0x28]
        0x0001b5f2:    2800        .(      CMP      r0,#0
        0x0001b5f4:    f00080ef    ....    BEQ.W    0x1b7d6 ; am_hal_sdhc_execute_cmd + 1018
        0x0001b5f8:    eb0e00c8    ....    ADD      r0,lr,r8,LSL #3
        0x0001b5fc:    462b        +F      MOV      r3,r5
        0x0001b5fe:    6845        Eh      LDR      r5,[r0,#4]
        0x0001b600:    2d00        .-      CMP      r5,#0
        0x0001b602:    f00080e8    ....    BEQ.W    0x1b7d6 ; am_hal_sdhc_execute_cmd + 1018
        0x0001b606:    f8da7008    ...p    LDR      r7,[r10,#8]
        0x0001b60a:    f85e0038    ^.8.    LDR      r0,[lr,r8,LSL #3]
        0x0001b60e:    b2db        ..      UXTB     r3,r3
        0x0001b610:    eb0201c1    ....    ADD      r1,r2,r1,LSL #3
        0x0001b614:    2b01        .+      CMP      r3,#1
        0x0001b616:    ebc714c7    ....    RSB      r4,r7,r7,LSL #7
        0x0001b61a:    f1a10108    ....    SUB      r1,r1,#8
        0x0001b61e:    f24080c5    @...    BLS.W    0x1b7ac ; am_hal_sdhc_execute_cmd + 976
        0x0001b622:    2721        !'      MOVS     r7,#0x21
        0x0001b624:    4623        #F      MOV      r3,r4
        0x0001b626:    42a5        .B      CMP      r5,r4
        0x0001b628:    bf38        8.      IT       CC
        0x0001b62a:    462b        +F      MOVCC    r3,r5
        0x0001b62c:    f8217f08    !...    STRH     r7,[r1,#8]!
        0x0001b630:    6048        H`      STR      r0,[r1,#4]
        0x0001b632:    1aed        ..      SUBS     r5,r5,r3
        0x0001b634:    4418        .D      ADD      r0,r0,r3
        0x0001b636:    804b        K.      STRH     r3,[r1,#2]
        0x0001b638:    d1f4        ..      BNE      0x1b624 ; am_hal_sdhc_execute_cmd + 584
        0x0001b63a:    e0cc        ..      B        0x1b7d6 ; am_hal_sdhc_execute_cmd + 1018
        0x0001b63c:    f8da500c    ...P    LDR      r5,[r10,#0xc]
        0x0001b640:    2d00        .-      CMP      r5,#0
        0x0001b642:    bf08        ..      IT       EQ
        0x0001b644:    2501        .%      MOVEQ    r5,#1
        0x0001b646:    2d01        .-      CMP      r5,#1
        0x0001b648:    f2c080c5    ....    BLT.W    0x1b7d6 ; am_hal_sdhc_execute_cmd + 1018
        0x0001b64c:    e9da1301    ....    LDRD     r1,r3,[r10,#4]
        0x0001b650:    f1a20708    ....    SUB      r7,r2,#8
        0x0001b654:    f04f0c00    O...    MOV      r12,#0
        0x0001b658:    4628        (F      MOV      r0,r5
        0x0001b65a:    2423        #$      MOVS     r4,#0x23
        0x0001b65c:    2d7f        .-      CMP      r5,#0x7f
        0x0001b65e:    bf28        (.      IT       CS
        0x0001b660:    207f        .       MOVCS    r0,#0x7f
        0x0001b662:    bf88        ..      IT       HI
        0x0001b664:    2421        !$      MOVHI    r4,#0x21
        0x0001b666:    f8074f08    ...O    STRB     r4,[r7,#8]!
        0x0001b66a:    6079        y`      STR      r1,[r7,#4]
        0x0001b66c:    fb001103    ....    MLA      r1,r0,r3,r1
        0x0001b670:    fb00f603    ....    MUL      r6,r0,r3
        0x0001b674:    3d7f        .=      SUBS     r5,r5,#0x7f
        0x0001b676:    807e        ~.      STRH     r6,[r7,#2]
        0x0001b678:    f887c001    ....    STRB     r12,[r7,#1]
        0x0001b67c:    d8ec        ..      BHI      0x1b658 ; am_hal_sdhc_execute_cmd + 636
        0x0001b67e:    e0aa        ..      B        0x1b7d6 ; am_hal_sdhc_execute_cmd + 1018
        0x0001b680:    f00001fe    ....    AND      r1,r0,#0xfe
        0x0001b684:    9108        ..      STR      r1,[sp,#0x20]
        0x0001b686:    f04f0c21    O.!.    MOV      r12,#0x21
        0x0001b68a:    f04f0800    O...    MOV      r8,#0
        0x0001b68e:    2100        .!      MOVS     r1,#0
        0x0001b690:    f04f0900    O...    MOV      r9,#0
        0x0001b694:    4605        .F      MOV      r5,r0
        0x0001b696:    f8cde024    ..$.    STR      lr,[sp,#0x24]
        0x0001b69a:    e00d        ..      B        0x1b6b8 ; am_hal_sdhc_execute_cmd + 732
        0x0001b69c:    9d0b        ..      LDR      r5,[sp,#0x2c]
        0x0001b69e:    f1090902    ....    ADD      r9,r9,#2
        0x0001b6a2:    9b08        ..      LDR      r3,[sp,#0x20]
        0x0001b6a4:    fa5ff089    _...    UXTB     r0,r9
        0x0001b6a8:    f8dde024    ..$.    LDR      lr,[sp,#0x24]
        0x0001b6ac:    f1080802    ....    ADD      r8,r8,#2
        0x0001b6b0:    4298        .B      CMP      r0,r3
        0x0001b6b2:    f1a50502    ....    SUB      r5,r5,#2
        0x0001b6b6:    d097        ..      BEQ      0x1b5e8 ; am_hal_sdhc_execute_cmd + 524
        0x0001b6b8:    eb0e03c8    ....    ADD      r3,lr,r8,LSL #3
        0x0001b6bc:    685e        ^h      LDR      r6,[r3,#4]
        0x0001b6be:    950b        ..      STR      r5,[sp,#0x2c]
        0x0001b6c0:    b38e        ..      CBZ      r6,0x1b726 ; am_hal_sdhc_execute_cmd + 842
        0x0001b6c2:    980a        ..      LDR      r0,[sp,#0x28]
        0x0001b6c4:    f85e7038    ^.8p    LDR      r7,[lr,r8,LSL #3]
        0x0001b6c8:    6880        .h      LDR      r0,[r0,#8]
        0x0001b6ca:    b2eb        ..      UXTB     r3,r5
        0x0001b6cc:    2b01        .+      CMP      r3,#1
        0x0001b6ce:    ebc014c0    ....    RSB      r4,r0,r0,LSL #7
        0x0001b6d2:    d90f        ..      BLS      0x1b6f4 ; am_hal_sdhc_execute_cmd + 792
        0x0001b6d4:    42a6        .B      CMP      r6,r4
        0x0001b6d6:    4620         F      MOV      r0,r4
        0x0001b6d8:    eb0205c1    ....    ADD      r5,r2,r1,LSL #3
        0x0001b6dc:    bf38        8.      IT       CC
        0x0001b6de:    4630        0F      MOVCC    r0,r6
        0x0001b6e0:    f822c031    ".1.    STRH     r12,[r2,r1,LSL #3]
        0x0001b6e4:    606f        o`      STR      r7,[r5,#4]
        0x0001b6e6:    4407        .D      ADD      r7,r7,r0
        0x0001b6e8:    1a36        6.      SUBS     r6,r6,r0
        0x0001b6ea:    f1010101    ....    ADD      r1,r1,#1
        0x0001b6ee:    8068        h.      STRH     r0,[r5,#2]
        0x0001b6f0:    d1f0        ..      BNE      0x1b6d4 ; am_hal_sdhc_execute_cmd + 760
        0x0001b6f2:    e018        ..      B        0x1b726 ; am_hal_sdhc_execute_cmd + 842
        0x0001b6f4:    2000        .       MOVS     r0,#0
        0x0001b6f6:    42a6        .B      CMP      r6,r4
        0x0001b6f8:    bf98        ..      IT       LS
        0x0001b6fa:    2001        .       MOVLS    r0,#1
        0x0001b6fc:    4623        #F      MOV      r3,r4
        0x0001b6fe:    bf38        8.      IT       CC
        0x0001b700:    4633        3F      MOVCC    r3,r6
        0x0001b702:    07c0        ..      LSLS     r0,r0,#31
        0x0001b704:    f04f0021    O.!.    MOV      r0,#0x21
        0x0001b708:    eb0205c1    ....    ADD      r5,r2,r1,LSL #3
        0x0001b70c:    bf18        ..      IT       NE
        0x0001b70e:    2023        #       MOVNE    r0,#0x23
        0x0001b710:    f8020031    ..1.    STRB     r0,[r2,r1,LSL #3]
        0x0001b714:    606f        o`      STR      r7,[r5,#4]
        0x0001b716:    441f        .D      ADD      r7,r7,r3
        0x0001b718:    1af6        ..      SUBS     r6,r6,r3
        0x0001b71a:    f1010101    ....    ADD      r1,r1,#1
        0x0001b71e:    806b        k.      STRH     r3,[r5,#2]
        0x0001b720:    f885a001    ....    STRB     r10,[r5,#1]
        0x0001b724:    d1e6        ..      BNE      0x1b6f4 ; am_hal_sdhc_execute_cmd + 792
        0x0001b726:    f0480301    H...    ORR      r3,r8,#1
        0x0001b72a:    eb0e00c3    ....    ADD      r0,lr,r3,LSL #3
        0x0001b72e:    4674        tF      MOV      r4,lr
        0x0001b730:    f8d0e004    ....    LDR      lr,[r0,#4]
        0x0001b734:    f1be0f00    ....    CMP      lr,#0
        0x0001b738:    d0b0        ..      BEQ      0x1b69c ; am_hal_sdhc_execute_cmd + 704
        0x0001b73a:    f8546033    T.3`    LDR      r6,[r4,r3,LSL #3]
        0x0001b73e:    9d0b        ..      LDR      r5,[sp,#0x2c]
        0x0001b740:    9b0a        ..      LDR      r3,[sp,#0x28]
        0x0001b742:    1ee8        ..      SUBS     r0,r5,#3
        0x0001b744:    689b        .h      LDR      r3,[r3,#8]
        0x0001b746:    b2c0        ..      UXTB     r0,r0
        0x0001b748:    28fe        .(      CMP      r0,#0xfe
        0x0001b74a:    ebc317c3    ....    RSB      r7,r3,r3,LSL #7
        0x0001b74e:    d211        ..      BCS      0x1b774 ; am_hal_sdhc_execute_cmd + 920
        0x0001b750:    45be        .E      CMP      lr,r7
        0x0001b752:    4638        8F      MOV      r0,r7
        0x0001b754:    eb0203c1    ....    ADD      r3,r2,r1,LSL #3
        0x0001b758:    bf38        8.      IT       CC
        0x0001b75a:    4670        pF      MOVCC    r0,lr
        0x0001b75c:    f822c031    ".1.    STRH     r12,[r2,r1,LSL #3]
        0x0001b760:    605e        ^`      STR      r6,[r3,#4]
        0x0001b762:    4406        .D      ADD      r6,r6,r0
        0x0001b764:    ebbe0e00    ....    SUBS     lr,lr,r0
        0x0001b768:    f1010101    ....    ADD      r1,r1,#1
        0x0001b76c:    8058        X.      STRH     r0,[r3,#2]
        0x0001b76e:    d1ef        ..      BNE      0x1b750 ; am_hal_sdhc_execute_cmd + 884
        0x0001b770:    e795        ..      B        0x1b69e ; am_hal_sdhc_execute_cmd + 706
        0x0001b772:    bf00        ..      NOP      
        0x0001b774:    2000        .       MOVS     r0,#0
        0x0001b776:    45be        .E      CMP      lr,r7
        0x0001b778:    bf98        ..      IT       LS
        0x0001b77a:    2001        .       MOVLS    r0,#1
        0x0001b77c:    463b        ;F      MOV      r3,r7
        0x0001b77e:    bf38        8.      IT       CC
        0x0001b780:    4673        sF      MOVCC    r3,lr
        0x0001b782:    07c0        ..      LSLS     r0,r0,#31
        0x0001b784:    f04f0021    O.!.    MOV      r0,#0x21
        0x0001b788:    eb0204c1    ....    ADD      r4,r2,r1,LSL #3
        0x0001b78c:    bf18        ..      IT       NE
        0x0001b78e:    2023        #       MOVNE    r0,#0x23
        0x0001b790:    f8020031    ..1.    STRB     r0,[r2,r1,LSL #3]
        0x0001b794:    6066        f`      STR      r6,[r4,#4]
        0x0001b796:    441e        .D      ADD      r6,r6,r3
        0x0001b798:    ebbe0e03    ....    SUBS     lr,lr,r3
        0x0001b79c:    f1010101    ....    ADD      r1,r1,#1
        0x0001b7a0:    8063        c.      STRH     r3,[r4,#2]
        0x0001b7a2:    f884a001    ....    STRB     r10,[r4,#1]
        0x0001b7a6:    d1e5        ..      BNE      0x1b774 ; am_hal_sdhc_execute_cmd + 920
        0x0001b7a8:    e779        y.      B        0x1b69e ; am_hal_sdhc_execute_cmd + 706
        0x0001b7aa:    bf00        ..      NOP      
        0x0001b7ac:    2700        .'      MOVS     r7,#0
        0x0001b7ae:    2600        .&      MOVS     r6,#0
        0x0001b7b0:    42a5        .B      CMP      r5,r4
        0x0001b7b2:    bf98        ..      IT       LS
        0x0001b7b4:    2601        .&      MOVLS    r6,#1
        0x0001b7b6:    4623        #F      MOV      r3,r4
        0x0001b7b8:    bf38        8.      IT       CC
        0x0001b7ba:    462b        +F      MOVCC    r3,r5
        0x0001b7bc:    07f6        ..      LSLS     r6,r6,#31
        0x0001b7be:    f04f0621    O.!.    MOV      r6,#0x21
        0x0001b7c2:    bf18        ..      IT       NE
        0x0001b7c4:    2623        #&      MOVNE    r6,#0x23
        0x0001b7c6:    f8016f08    ...o    STRB     r6,[r1,#8]!
        0x0001b7ca:    6048        H`      STR      r0,[r1,#4]
        0x0001b7cc:    1aed        ..      SUBS     r5,r5,r3
        0x0001b7ce:    4418        .D      ADD      r0,r0,r3
        0x0001b7d0:    804b        K.      STRH     r3,[r1,#2]
        0x0001b7d2:    704f        Op      STRB     r7,[r1,#1]
        0x0001b7d4:    d1eb        ..      BNE      0x1b7ae ; am_hal_sdhc_execute_cmd + 978
        0x0001b7d6:    9e07        ..      LDR      r6,[sp,#0x1c]
        0x0001b7d8:    65b2        .e      STR      r2,[r6,#0x58]
        0x0001b7da:    9d06        ..      LDR      r5,[sp,#0x18]
        0x0001b7dc:    e9dd3704    ...7    LDRD     r3,r7,[sp,#0x10]
        0x0001b7e0:    f899000e    ....    LDRB     r0,[r9,#0xe]
        0x0001b7e4:    b110        ..      CBZ      r0,0x1b7ec ; am_hal_sdhc_execute_cmd + 1040
        0x0001b7e6:    f0430304    C...    ORR      r3,r3,#4
        0x0001b7ea:    e007        ..      B        0x1b7fc ; am_hal_sdhc_execute_cmd + 1056
        0x0001b7ec:    f899000f    ....    LDRB     r0,[r9,#0xf]
        0x0001b7f0:    b120         .      CBZ      r0,0x1b7fc ; am_hal_sdhc_execute_cmd + 1056
        0x0001b7f2:    f8da000c    ....    LDR      r0,[r10,#0xc]
        0x0001b7f6:    f0430308    C...    ORR      r3,r3,#8
        0x0001b7fa:    6030        0`      STR      r0,[r6,#0]
        0x0001b7fc:    e9da1002    ....    LDRD     r1,r0,[r10,#8]
        0x0001b800:    2801        .(      CMP      r0,#1
        0x0001b802:    bf88        ..      IT       HI
        0x0001b804:    ea414100    A..A    ORRHI    r1,r1,r0,LSL #16
        0x0001b808:    6071        q`      STR      r1,[r6,#4]
        0x0001b80a:    6af0        .j      LDR      r0,[r6,#0x2c]
        0x0001b80c:    bf88        ..      IT       HI
        0x0001b80e:    f0430322    C.".    ORRHI    r3,r3,#0x22
        0x0001b812:    f4402060    @.`     ORR      r0,r0,#0xe0000
        0x0001b816:    62f0        .b      STR      r0,[r6,#0x2c]
        0x0001b818:    2001        .       MOVS     r0,#1
        0x0001b81a:    2100        .!      MOVS     r1,#0
        0x0001b81c:    ea430407    C...    ORR      r4,r3,r7
        0x0001b820:    2701        .'      MOVS     r7,#1
        0x0001b822:    f7fef8af    ....    BL       am_hal_daxi_control ; 0x19984
        0x0001b826:    f8d90004    ....    LDR      r0,[r9,#4]
        0x0001b82a:    4629        )F      MOV      r1,r5
        0x0001b82c:    60b0        .`      STR      r0,[r6,#8]
        0x0001b82e:    f44f60fa    O..`    MOV      r0,#0x7d0
        0x0001b832:    2201        ."      MOVS     r2,#1
        0x0001b834:    2301        .#      MOVS     r3,#1
        0x0001b836:    60f4        .`      STR      r4,[r6,#0xc]
        0x0001b838:    9700        ..      STR      r7,[sp,#0]
        0x0001b83a:    f7fef9e9    ....    BL       am_hal_delay_us_status_check ; 0x19c10
        0x0001b83e:    b168        h.      CBZ      r0,0x1b85c ; am_hal_sdhc_execute_cmd + 1152
        0x0001b840:    6828        (h      LDR      r0,[r5,#0]
        0x0001b842:    0301        ..      LSLS     r1,r0,#12
        0x0001b844:    d42c        ,.      BMI      0x1b8a0 ; am_hal_sdhc_execute_cmd + 1220
        0x0001b846:    0341        A.      LSLS     r1,r0,#13
        0x0001b848:    d42c        ,.      BMI      0x1b8a4 ; am_hal_sdhc_execute_cmd + 1224
        0x0001b84a:    0381        ..      LSLS     r1,r0,#14
        0x0001b84c:    d438        8.      BMI      0x1b8c0 ; am_hal_sdhc_execute_cmd + 1252
        0x0001b84e:    03c0        ..      LSLS     r0,r0,#15
        0x0001b850:    f04f0006    O...    MOV      r0,#6
        0x0001b854:    bf58        X.      IT       PL
        0x0001b856:    2002        .       MOVPL    r0,#2
        0x0001b858:    e033        3.      B        0x1b8c2 ; am_hal_sdhc_execute_cmd + 1254
        0x0001b85a:    bf00        ..      NOP      
        0x0001b85c:    4630        0F      MOV      r0,r6
        0x0001b85e:    4649        IF      MOV      r1,r9
        0x0001b860:    6337        7c      STR      r7,[r6,#0x30]
        0x0001b862:    f000f851    ..Q.    BL       am_hal_sdhc_get_cmd_response ; 0x1b908
        0x0001b866:    f899000d    ....    LDRB     r0,[r9,#0xd]
        0x0001b86a:    b158        X.      CBZ      r0,0x1b884 ; am_hal_sdhc_execute_cmd + 1192
        0x0001b86c:    f7fefb0a    ....    BL       am_hal_interrupt_master_disable ; 0x19e84
        0x0001b870:    900c        ..      STR      r0,[sp,#0x30]
        0x0001b872:    f04f30ff    O..0    MOV      r0,#0xffffffff
        0x0001b876:    63b0        .c      STR      r0,[r6,#0x38]
        0x0001b878:    2000        .       MOVS     r0,#0
        0x0001b87a:    f88b0039    ..9.    STRB     r0,[r11,#0x39]
        0x0001b87e:    980c        ..      LDR      r0,[sp,#0x30]
        0x0001b880:    f7fefb08    ....    BL       am_hal_interrupt_master_set ; 0x19e94
        0x0001b884:    f1ba0f00    ....    CMP      r10,#0
        0x0001b888:    d00e        ..      BEQ      0x1b8a8 ; am_hal_sdhc_execute_cmd + 1228
        0x0001b88a:    f899000d    ....    LDRB     r0,[r9,#0xd]
        0x0001b88e:    b990        ..      CBNZ     r0,0x1b8b6 ; am_hal_sdhc_execute_cmd + 1242
        0x0001b890:    4658        XF      MOV      r0,r11
        0x0001b892:    4651        QF      MOV      r1,r10
        0x0001b894:    b00d        ..      ADD      sp,sp,#0x34
        0x0001b896:    e8bd4ff0    ...O    POP      {r4-r11,lr}
        0x0001b89a:    f000bc93    ....    B.W      am_hal_sdhc_xfer_data ; 0x1c1c4
        0x0001b89e:    bf00        ..      NOP      
        0x0001b8a0:    2003        .       MOVS     r0,#3
        0x0001b8a2:    e00e        ..      B        0x1b8c2 ; am_hal_sdhc_execute_cmd + 1254
        0x0001b8a4:    2005        .       MOVS     r0,#5
        0x0001b8a6:    e00c        ..      B        0x1b8c2 ; am_hal_sdhc_execute_cmd + 1254
        0x0001b8a8:    f899000c    ....    LDRB     r0,[r9,#0xc]
        0x0001b8ac:    b918        ..      CBNZ     r0,0x1b8b6 ; am_hal_sdhc_execute_cmd + 1242
        0x0001b8ae:    6af0        .j      LDR      r0,[r6,#0x2c]
        0x0001b8b0:    f0200004     ...    BIC      r0,r0,#4
        0x0001b8b4:    62f0        .b      STR      r0,[r6,#0x2c]
        0x0001b8b6:    2000        .       MOVS     r0,#0
        0x0001b8b8:    b00d        ..      ADD      sp,sp,#0x34
        0x0001b8ba:    e8bd8ff0    ....    POP      {r4-r11,pc}
        0x0001b8be:    bf00        ..      NOP      
        0x0001b8c0:    2004        .       MOVS     r0,#4
        0x0001b8c2:    f8890020    .. .    STRB     r0,[r9,#0x20]
        0x0001b8c6:    2001        .       MOVS     r0,#1
        0x0001b8c8:    f8db101c    ....    LDR      r1,[r11,#0x1c]
        0x0001b8cc:    f88b0014    ....    STRB     r0,[r11,#0x14]
        0x0001b8d0:    1c48        H.      ADDS     r0,r1,#1
        0x0001b8d2:    f8cb001c    ....    STR      r0,[r11,#0x1c]
        0x0001b8d6:    2004        .       MOVS     r0,#4
        0x0001b8d8:    b00d        ..      ADD      sp,sp,#0x34
        0x0001b8da:    e8bd8ff0    ....    POP      {r4-r11,pc}
        0x0001b8de:    0000        ..      MOVS     r0,r0
    am_hal_sdhc_get_cd
        0x0001b8e0:    b180        ..      CBZ      r0,0x1b904 ; am_hal_sdhc_get_cd + 36
        0x0001b8e2:    6801        .h      LDR      r1,[r0,#0]
        0x0001b8e4:    f24132b0    A..2    MOV      r2,#0x13b0
        0x0001b8e8:    f021417c    !.|A    BIC      r1,r1,#0xfc000000
        0x0001b8ec:    f2c03283    ...2    MOVT     r2,#0x383
        0x0001b8f0:    4291        .B      CMP      r1,r2
        0x0001b8f2:    d107        ..      BNE      0x1b904 ; am_hal_sdhc_get_cd + 36
        0x0001b8f4:    6840        @h      LDR      r0,[r0,#4]
        0x0001b8f6:    2124        $!      MOVS     r1,#0x24
        0x0001b8f8:    f2c40107    ....    MOVT     r1,#0x4007
        0x0001b8fc:    5840        @X      LDR      r0,[r0,r1]
        0x0001b8fe:    f3c04000    ...@    UBFX     r0,r0,#16,#1
        0x0001b902:    4770        pG      BX       lr
        0x0001b904:    2001        .       MOVS     r0,#1
        0x0001b906:    4770        pG      BX       lr
    am_hal_sdhc_get_cmd_response
        0x0001b908:    b580        ..      PUSH     {r7,lr}
        0x0001b90a:    688b        .h      LDR      r3,[r1,#8]
        0x0001b90c:    2200        ."      MOVS     r2,#0
        0x0001b90e:    2b00        .+      CMP      r3,#0
        0x0001b910:    f8812020    ..      STRB     r2,[r1,#0x20]
        0x0001b914:    bf08        ..      IT       EQ
        0x0001b916:    bd80        ..      POPEQ    {r7,pc}
        0x0001b918:    6902        .i      LDR      r2,[r0,#0x10]
        0x0001b91a:    079b        ..      LSLS     r3,r3,#30
        0x0001b91c:    d402        ..      BMI      0x1b924 ; am_hal_sdhc_get_cmd_response + 28
        0x0001b91e:    610a        .a      STR      r2,[r1,#0x10]
        0x0001b920:    bd80        ..      POP      {r7,pc}
        0x0001b922:    bf00        ..      NOP      
        0x0001b924:    f8d0c014    ....    LDR      r12,[r0,#0x14]
        0x0001b928:    6983        .i      LDR      r3,[r0,#0x18]
        0x0001b92a:    69c0        .i      LDR      r0,[r0,#0x1c]
        0x0001b92c:    0200        ..      LSLS     r0,r0,#8
        0x0001b92e:    ea406e13    @..n    ORR      lr,r0,r3,LSR #24
        0x0001b932:    021b        ..      LSLS     r3,r3,#8
        0x0001b934:    ea4f200c    O..     LSL      r0,r12,#8
        0x0001b938:    ea43631c    C..c    ORR      r3,r3,r12,LSR #24
        0x0001b93c:    ea406012    @..`    ORR      r0,r0,r2,LSR #24
        0x0001b940:    0212        ..      LSLS     r2,r2,#8
        0x0001b942:    e9c1e304    ....    STRD     lr,r3,[r1,#0x10]
        0x0001b946:    e9c10206    ....    STRD     r0,r2,[r1,#0x18]
        0x0001b94a:    bd80        ..      POP      {r7,pc}
    am_hal_sdhc_get_wr_protect
        0x0001b94c:    b180        ..      CBZ      r0,0x1b970 ; am_hal_sdhc_get_wr_protect + 36
        0x0001b94e:    6801        .h      LDR      r1,[r0,#0]
        0x0001b950:    f24132b0    A..2    MOV      r2,#0x13b0
        0x0001b954:    f021417c    !.|A    BIC      r1,r1,#0xfc000000
        0x0001b958:    f2c03283    ...2    MOVT     r2,#0x383
        0x0001b95c:    4291        .B      CMP      r1,r2
        0x0001b95e:    d107        ..      BNE      0x1b970 ; am_hal_sdhc_get_wr_protect + 36
        0x0001b960:    6840        @h      LDR      r0,[r0,#4]
        0x0001b962:    2124        $!      MOVS     r1,#0x24
        0x0001b964:    f2c40107    ....    MOVT     r1,#0x4007
        0x0001b968:    5840        @X      LDR      r0,[r0,r1]
        0x0001b96a:    f3c040c0    ...@    UBFX     r0,r0,#19,#1
        0x0001b96e:    4770        pG      BX       lr
        0x0001b970:    2001        .       MOVS     r0,#1
        0x0001b972:    4770        pG      BX       lr
    am_hal_sdhc_host_deinit
        0x0001b974:    b5b0        ..      PUSH     {r4,r5,r7,lr}
        0x0001b976:    4604        .F      MOV      r4,r0
        0x0001b978:    f7fffc9a    ....    BL       am_hal_sdhc_disable ; 0x1b2b0
        0x0001b97c:    2800        .(      CMP      r0,#0
        0x0001b97e:    bf1c        ..      ITT      NE
        0x0001b980:    2001        .       MOVNE    r0,#1
        0x0001b982:    bdb0        ..      POPNE    {r4,r5,r7,pc}
        0x0001b984:    4620         F      MOV      r0,r4
        0x0001b986:    2101        .!      MOVS     r1,#1
        0x0001b988:    2200        ."      MOVS     r2,#0
        0x0001b98a:    2501        .%      MOVS     r5,#1
        0x0001b98c:    f000fa48    ..H.    BL       am_hal_sdhc_power_control ; 0x1be20
        0x0001b990:    b110        ..      CBZ      r0,0x1b998 ; am_hal_sdhc_host_deinit + 36
        0x0001b992:    4628        (F      MOV      r0,r5
        0x0001b994:    bdb0        ..      POP      {r4,r5,r7,pc}
        0x0001b996:    bf00        ..      NOP      
        0x0001b998:    4620         F      MOV      r0,r4
        0x0001b99a:    f7fffc75    ..u.    BL       am_hal_sdhc_deinitialize ; 0x1b288
        0x0001b99e:    4605        .F      MOV      r5,r0
        0x0001b9a0:    2800        .(      CMP      r0,#0
        0x0001b9a2:    bf18        ..      IT       NE
        0x0001b9a4:    2501        .%      MOVNE    r5,#1
        0x0001b9a6:    4628        (F      MOV      r0,r5
        0x0001b9a8:    bdb0        ..      POP      {r4,r5,r7,pc}
        0x0001b9aa:    0000        ..      MOVS     r0,r0
    am_hal_sdhc_host_execute_cmd
        0x0001b9ac:    b570        p.      PUSH     {r4-r6,lr}
        0x0001b9ae:    4614        .F      MOV      r4,r2
        0x0001b9b0:    460d        .F      MOV      r5,r1
        0x0001b9b2:    4606        .F      MOV      r6,r0
        0x0001b9b4:    f7fffd12    ....    BL       am_hal_sdhc_execute_cmd ; 0x1b3dc
        0x0001b9b8:    0401        ..      LSLS     r1,r0,#16
        0x0001b9ba:    bf08        ..      IT       EQ
        0x0001b9bc:    bd70        p.      POPEQ    {r4-r6,pc}
        0x0001b9be:    4630        0F      MOV      r0,r6
        0x0001b9c0:    4629        )F      MOV      r1,r5
        0x0001b9c2:    4622        "F      MOV      r2,r4
        0x0001b9c4:    f7fffd0a    ....    BL       am_hal_sdhc_execute_cmd ; 0x1b3dc
        0x0001b9c8:    0401        ..      LSLS     r1,r0,#16
        0x0001b9ca:    d007        ..      BEQ      0x1b9dc ; am_hal_sdhc_host_execute_cmd + 48
        0x0001b9cc:    4630        0F      MOV      r0,r6
        0x0001b9ce:    4629        )F      MOV      r1,r5
        0x0001b9d0:    4622        "F      MOV      r2,r4
        0x0001b9d2:    e8bd4070    ..p@    POP      {r4-r6,lr}
        0x0001b9d6:    f7ffbd01    ....    B.W      am_hal_sdhc_execute_cmd ; 0x1b3dc
        0x0001b9da:    bf00        ..      NOP      
        0x0001b9dc:    bd70        p.      POP      {r4-r6,pc}
        0x0001b9de:    0000        ..      MOVS     r0,r0
    am_hal_sdhc_host_init
        0x0001b9e0:    b510        ..      PUSH     {r4,lr}
        0x0001b9e2:    4604        .F      MOV      r4,r0
        0x0001b9e4:    6840        @h      LDR      r0,[r0,#4]
        0x0001b9e6:    4621        !F      MOV      r1,r4
        0x0001b9e8:    f000f820    .. .    BL       am_hal_sdhc_initialize ; 0x1ba2c
        0x0001b9ec:    b998        ..      CBNZ     r0,0x1ba16 ; am_hal_sdhc_host_init + 54
        0x0001b9ee:    6820         h      LDR      r0,[r4,#0]
        0x0001b9f0:    2100        .!      MOVS     r1,#0
        0x0001b9f2:    2200        ."      MOVS     r2,#0
        0x0001b9f4:    f000fa14    ....    BL       am_hal_sdhc_power_control ; 0x1be20
        0x0001b9f8:    b968        h.      CBNZ     r0,0x1ba16 ; am_hal_sdhc_host_init + 54
        0x0001b9fa:    6820         h      LDR      r0,[r4,#0]
        0x0001b9fc:    f7fffc92    ....    BL       am_hal_sdhc_enable ; 0x1b324
        0x0001ba00:    b948        H.      CBNZ     r0,0x1ba16 ; am_hal_sdhc_host_init + 54
        0x0001ba02:    6820         h      LDR      r0,[r4,#0]
        0x0001ba04:    4621        !F      MOV      r1,r4
        0x0001ba06:    f000fb9d    ....    BL       am_hal_sdhc_setup_host ; 0x1c144
        0x0001ba0a:    b920         .      CBNZ     r0,0x1ba16 ; am_hal_sdhc_host_init + 54
        0x0001ba0c:    6820         h      LDR      r0,[r4,#0]
        0x0001ba0e:    7b21        !{      LDRB     r1,[r4,#0xc]
        0x0001ba10:    f000fae8    ....    BL       am_hal_sdhc_set_bus_voltage ; 0x1bfe4
        0x0001ba14:    b110        ..      CBZ      r0,0x1ba1c ; am_hal_sdhc_host_init + 60
        0x0001ba16:    2001        .       MOVS     r0,#1
        0x0001ba18:    bd10        ..      POP      {r4,pc}
        0x0001ba1a:    bf00        ..      NOP      
        0x0001ba1c:    6820         h      LDR      r0,[r4,#0]
        0x0001ba1e:    6a21        !j      LDR      r1,[r4,#0x20]
        0x0001ba20:    f000fa6a    ..j.    BL       am_hal_sdhc_set_bus_clock ; 0x1bef8
        0x0001ba24:    2800        .(      CMP      r0,#0
        0x0001ba26:    bf18        ..      IT       NE
        0x0001ba28:    2001        .       MOVNE    r0,#1
        0x0001ba2a:    bd10        ..      POP      {r4,pc}
    am_hal_sdhc_initialize
        0x0001ba2c:    2800        .(      CMP      r0,#0
        0x0001ba2e:    bf1c        ..      ITT      NE
        0x0001ba30:    2005        .       MOVNE    r0,#5
        0x0001ba32:    4770        pG      BXNE     lr
        0x0001ba34:    2900        .)      CMP      r1,#0
        0x0001ba36:    bf04        ..      ITT      EQ
        0x0001ba38:    2006        .       MOVEQ    r0,#6
        0x0001ba3a:    4770        pG      BXEQ     lr
        0x0001ba3c:    f2404228    @.(B    MOVW     r2,#0x428
        0x0001ba40:    f2c10200    ....    MOVT     r2,#0x1000
        0x0001ba44:    6813        .h      LDR      r3,[r2,#0]
        0x0001ba46:    01d8        ..      LSLS     r0,r3,#7
        0x0001ba48:    bf44        D.      ITT      MI
        0x0001ba4a:    2007        .       MOVMI    r0,#7
        0x0001ba4c:    4770        pG      BXMI     lr
        0x0001ba4e:    f24130b0    A..0    MOV      r0,#0x13b0
        0x0001ba52:    f2c01083    ....    MOVT     r0,#0x183
        0x0001ba56:    f3600318    `...    BFI      r3,r0,#0,#25
        0x0001ba5a:    2000        .       MOVS     r0,#0
        0x0001ba5c:    e9c23000    ...0    STRD     r3,r0,[r2,#0]
        0x0001ba60:    600a        .`      STR      r2,[r1,#0]
        0x0001ba62:    4770        pG      BX       lr
    am_hal_sdhc_interrupt_service
        0x0001ba64:    e92d43f0    -..C    PUSH     {r4-r9,lr}
        0x0001ba68:    b083        ..      SUB      sp,sp,#0xc
        0x0001ba6a:    4604        .F      MOV      r4,r0
        0x0001ba6c:    6800        .h      LDR      r0,[r0,#0]
        0x0001ba6e:    f24133b0    A..3    MOV      r3,#0x13b0
        0x0001ba72:    f020427e     .~B    BIC      r2,r0,#0xfe000000
        0x0001ba76:    f2c01383    ....    MOVT     r3,#0x183
        0x0001ba7a:    429a        .B      CMP      r2,r3
        0x0001ba7c:    d106        ..      BNE      0x1ba8c ; am_hal_sdhc_interrupt_service + 40
        0x0001ba7e:    0180        ..      LSLS     r0,r0,#6
        0x0001ba80:    d408        ..      BMI      0x1ba94 ; am_hal_sdhc_interrupt_service + 48
        0x0001ba82:    2007        .       MOVS     r0,#7
        0x0001ba84:    b003        ..      ADD      sp,sp,#0xc
        0x0001ba86:    e8bd83f0    ....    POP      {r4-r9,pc}
        0x0001ba8a:    bf00        ..      NOP      
        0x0001ba8c:    2002        .       MOVS     r0,#2
        0x0001ba8e:    b003        ..      ADD      sp,sp,#0xc
        0x0001ba90:    e8bd83f0    ....    POP      {r4-r9,pc}
        0x0001ba94:    f8d49010    ....    LDR      r9,[r4,#0x10]
        0x0001ba98:    6867        gh      LDR      r7,[r4,#4]
        0x0001ba9a:    f2400800    @...    MOVW     r8,#0
        0x0001ba9e:    460d        .F      MOV      r5,r1
        0x0001baa0:    f0110f30    ..0.    TST      r1,#0x30
        0x0001baa4:    f2c40807    ....    MOVT     r8,#0x4007
        0x0001baa8:    d002        ..      BEQ      0x1bab0 ; am_hal_sdhc_interrupt_service + 76
        0x0001baaa:    4620         F      MOV      r0,r4
        0x0001baac:    f000f8e8    ....    BL       am_hal_sdhc_pio_xfer_data ; 0x1bc80
        0x0001bab0:    0728        (.      LSLS     r0,r5,#28
        0x0001bab2:    4447        GD      ADD      r7,r7,r8
        0x0001bab4:    d51b        ..      BPL      0x1baee ; am_hal_sdhc_interrupt_service + 138
        0x0001bab6:    2000        .       MOVS     r0,#0
        0x0001bab8:    2100        .!      MOVS     r1,#0
        0x0001baba:    f7fdff63    ..c.    BL       am_hal_daxi_control ; 0x19984
        0x0001babe:    6b60        `k      LDR      r0,[r4,#0x34]
        0x0001bac0:    6aa3        .j      LDR      r3,[r4,#0x28]
        0x0001bac2:    e9d41201    ....    LDRD     r1,r2,[r4,#4]
        0x0001bac6:    6a26        &j      LDR      r6,[r4,#0x20]
        0x0001bac8:    1a18        ..      SUBS     r0,r3,r0
        0x0001baca:    62a0        .b      STR      r0,[r4,#0x28]
        0x0001bacc:    f0220003    "...    BIC      r0,r2,#3
        0x0001bad0:    4430        0D      ADD      r0,r0,r6
        0x0001bad2:    6220         b      STR      r0,[r4,#0x20]
        0x0001bad4:    f8410008    A...    STR      r0,[r1,r8]
        0x0001bad8:    2003        .       MOVS     r0,#3
        0x0001bada:    f88d0000    ....    STRB     r0,[sp,#0]
        0x0001bade:    6920         i      LDR      r0,[r4,#0x10]
        0x0001bae0:    6b62        bk      LDR      r2,[r4,#0x34]
        0x0001bae2:    6ec1        .n      LDR      r1,[r0,#0x6c]
        0x0001bae4:    9002        ..      STR      r0,[sp,#8]
        0x0001bae6:    9201        ..      STR      r2,[sp,#4]
        0x0001bae8:    b109        ..      CBZ      r1,0x1baee ; am_hal_sdhc_interrupt_service + 138
        0x0001baea:    4668        hF      MOV      r0,sp
        0x0001baec:    4788        .G      BLX      r1
        0x0001baee:    07a8        ..      LSLS     r0,r5,#30
        0x0001baf0:    d515        ..      BPL      0x1bb1e ; am_hal_sdhc_interrupt_service + 186
        0x0001baf2:    2000        .       MOVS     r0,#0
        0x0001baf4:    2100        .!      MOVS     r1,#0
        0x0001baf6:    f7fdff45    ..E.    BL       am_hal_daxi_control ; 0x19984
        0x0001bafa:    6921        !i      LDR      r1,[r4,#0x10]
        0x0001bafc:    2004        .       MOVS     r0,#4
        0x0001bafe:    9102        ..      STR      r1,[sp,#8]
        0x0001bb00:    6ec9        .n      LDR      r1,[r1,#0x6c]
        0x0001bb02:    f88d0000    ....    STRB     r0,[sp,#0]
        0x0001bb06:    6aa0        .j      LDR      r0,[r4,#0x28]
        0x0001bb08:    9001        ..      STR      r0,[sp,#4]
        0x0001bb0a:    b109        ..      CBZ      r1,0x1bb10 ; am_hal_sdhc_interrupt_service + 172
        0x0001bb0c:    4668        hF      MOV      r0,sp
        0x0001bb0e:    4788        .G      BLX      r1
        0x0001bb10:    2001        .       MOVS     r0,#1
        0x0001bb12:    f8840039    ..9.    STRB     r0,[r4,#0x39]
        0x0001bb16:    6af8        .j      LDR      r0,[r7,#0x2c]
        0x0001bb18:    f0200004     ...    BIC      r0,r0,#4
        0x0001bb1c:    62f8        .b      STR      r0,[r7,#0x2c]
        0x0001bb1e:    f0157f1c    ....    TST      r5,#0x2700000
        0x0001bb22:    d02b        +.      BEQ      0x1bb7c ; am_hal_sdhc_interrupt_service + 280
        0x0001bb24:    2006        .       MOVS     r0,#6
        0x0001bb26:    f88d0000    ....    STRB     r0,[sp,#0]
        0x0001bb2a:    6920         i      LDR      r0,[r4,#0x10]
        0x0001bb2c:    6aa1        .j      LDR      r1,[r4,#0x28]
        0x0001bb2e:    01aa        ..      LSLS     r2,r5,#6
        0x0001bb30:    e9cd1001    ....    STRD     r1,r0,[sp,#4]
        0x0001bb34:    f04f0101    O...    MOV      r1,#1
        0x0001bb38:    f04f0201    O...    MOV      r2,#1
        0x0001bb3c:    d40d        ..      BMI      0x1bb5a ; am_hal_sdhc_interrupt_service + 246
        0x0001bb3e:    02aa        ..      LSLS     r2,r5,#10
        0x0001bb40:    d408        ..      BMI      0x1bb54 ; am_hal_sdhc_interrupt_service + 240
        0x0001bb42:    02ea        ..      LSLS     r2,r5,#11
        0x0001bb44:    d408        ..      BMI      0x1bb58 ; am_hal_sdhc_interrupt_service + 244
        0x0001bb46:    026a        j.      LSLS     r2,r5,#9
        0x0001bb48:    f04f0204    O...    MOV      r2,#4
        0x0001bb4c:    bf58        X.      IT       PL
        0x0001bb4e:    2205        ."      MOVPL    r2,#5
        0x0001bb50:    e003        ..      B        0x1bb5a ; am_hal_sdhc_interrupt_service + 246
        0x0001bb52:    bf00        ..      NOP      
        0x0001bb54:    2202        ."      MOVS     r2,#2
        0x0001bb56:    e000        ..      B        0x1bb5a ; am_hal_sdhc_interrupt_service + 246
        0x0001bb58:    2203        ."      MOVS     r2,#3
        0x0001bb5a:    f8892064    ..d     STRB     r2,[r9,#0x64]
        0x0001bb5e:    7561        au      STRB     r1,[r4,#0x15]
        0x0001bb60:    69a2        .i      LDR      r2,[r4,#0x18]
        0x0001bb62:    6ec1        .n      LDR      r1,[r0,#0x6c]
        0x0001bb64:    1c50        P.      ADDS     r0,r2,#1
        0x0001bb66:    61a0        .a      STR      r0,[r4,#0x18]
        0x0001bb68:    b109        ..      CBZ      r1,0x1bb6e ; am_hal_sdhc_interrupt_service + 266
        0x0001bb6a:    4668        hF      MOV      r0,sp
        0x0001bb6c:    4788        .G      BLX      r1
        0x0001bb6e:    2001        .       MOVS     r0,#1
        0x0001bb70:    f8840039    ..9.    STRB     r0,[r4,#0x39]
        0x0001bb74:    6af8        .j      LDR      r0,[r7,#0x2c]
        0x0001bb76:    f0200004     ...    BIC      r0,r0,#4
        0x0001bb7a:    62f8        .b      STR      r0,[r7,#0x2c]
        0x0001bb7c:    f0150fc0    ....    TST      r5,#0xc0
        0x0001bb80:    d00e        ..      BEQ      0x1bba0 ; am_hal_sdhc_interrupt_service + 316
        0x0001bb82:    6860        `h      LDR      r0,[r4,#4]
        0x0001bb84:    09aa        ..      LSRS     r2,r5,#6
        0x0001bb86:    4440        @D      ADD      r0,r0,r8
        0x0001bb88:    6a40        @j      LDR      r0,[r0,#0x24]
        0x0001bb8a:    6921        !i      LDR      r1,[r4,#0x10]
        0x0001bb8c:    f4003080    ...0    AND      r0,r0,#0x10000
        0x0001bb90:    6ec9        .n      LDR      r1,[r1,#0x6c]
        0x0001bb92:    ea024010    ...@    AND      r0,r2,r0,LSR #16
        0x0001bb96:    f88d0000    ....    STRB     r0,[sp,#0]
        0x0001bb9a:    b109        ..      CBZ      r1,0x1bba0 ; am_hal_sdhc_interrupt_service + 316
        0x0001bb9c:    4668        hF      MOV      r0,sp
        0x0001bb9e:    4788        .G      BLX      r1
        0x0001bba0:    2000        .       MOVS     r0,#0
        0x0001bba2:    b003        ..      ADD      sp,sp,#0xc
        0x0001bba4:    e8bd83f0    ....    POP      {r4-r9,pc}
    am_hal_sdhc_intr_signal_enable
        0x0001bba8:    b1b0        ..      CBZ      r0,0x1bbd8 ; am_hal_sdhc_intr_signal_enable + 48
        0x0001bbaa:    6802        .h      LDR      r2,[r0,#0]
        0x0001bbac:    f24133b0    A..3    MOV      r3,#0x13b0
        0x0001bbb0:    f0224c7e    ".~L    BIC      r12,r2,#0xfe000000
        0x0001bbb4:    f2c01383    ....    MOVT     r3,#0x183
        0x0001bbb8:    459c        .E      CMP      r12,r3
        0x0001bbba:    d10d        ..      BNE      0x1bbd8 ; am_hal_sdhc_intr_signal_enable + 48
        0x0001bbbc:    0192        ..      LSLS     r2,r2,#6
        0x0001bbbe:    bf5c        \.      ITT      PL
        0x0001bbc0:    2007        .       MOVPL    r0,#7
        0x0001bbc2:    4770        pG      BXPL     lr
        0x0001bbc4:    6840        @h      LDR      r0,[r0,#4]
        0x0001bbc6:    2238        8"      MOVS     r2,#0x38
        0x0001bbc8:    f2c40207    ....    MOVT     r2,#0x4007
        0x0001bbcc:    5883        .X      LDR      r3,[r0,r2]
        0x0001bbce:    4319        .C      ORRS     r1,r1,r3
        0x0001bbd0:    5081        .P      STR      r1,[r0,r2]
        0x0001bbd2:    2000        .       MOVS     r0,#0
        0x0001bbd4:    4770        pG      BX       lr
        0x0001bbd6:    bf00        ..      NOP      
        0x0001bbd8:    2002        .       MOVS     r0,#2
        0x0001bbda:    4770        pG      BX       lr
    am_hal_sdhc_intr_status_clear
        0x0001bbdc:    b1a0        ..      CBZ      r0,0x1bc08 ; am_hal_sdhc_intr_status_clear + 44
        0x0001bbde:    6802        .h      LDR      r2,[r0,#0]
        0x0001bbe0:    f24133b0    A..3    MOV      r3,#0x13b0
        0x0001bbe4:    f0224c7e    ".~L    BIC      r12,r2,#0xfe000000
        0x0001bbe8:    f2c01383    ....    MOVT     r3,#0x183
        0x0001bbec:    459c        .E      CMP      r12,r3
        0x0001bbee:    d10b        ..      BNE      0x1bc08 ; am_hal_sdhc_intr_status_clear + 44
        0x0001bbf0:    0192        ..      LSLS     r2,r2,#6
        0x0001bbf2:    bf5c        \.      ITT      PL
        0x0001bbf4:    2007        .       MOVPL    r0,#7
        0x0001bbf6:    4770        pG      BXPL     lr
        0x0001bbf8:    6840        @h      LDR      r0,[r0,#4]
        0x0001bbfa:    2230        0"      MOVS     r2,#0x30
        0x0001bbfc:    f2c40207    ....    MOVT     r2,#0x4007
        0x0001bc00:    5081        .P      STR      r1,[r0,r2]
        0x0001bc02:    2000        .       MOVS     r0,#0
        0x0001bc04:    4770        pG      BX       lr
        0x0001bc06:    bf00        ..      NOP      
        0x0001bc08:    2002        .       MOVS     r0,#2
        0x0001bc0a:    4770        pG      BX       lr
    am_hal_sdhc_intr_status_enable
        0x0001bc0c:    b1b0        ..      CBZ      r0,0x1bc3c ; am_hal_sdhc_intr_status_enable + 48
        0x0001bc0e:    6802        .h      LDR      r2,[r0,#0]
        0x0001bc10:    f24133b0    A..3    MOV      r3,#0x13b0
        0x0001bc14:    f0224c7e    ".~L    BIC      r12,r2,#0xfe000000
        0x0001bc18:    f2c01383    ....    MOVT     r3,#0x183
        0x0001bc1c:    459c        .E      CMP      r12,r3
        0x0001bc1e:    d10d        ..      BNE      0x1bc3c ; am_hal_sdhc_intr_status_enable + 48
        0x0001bc20:    0192        ..      LSLS     r2,r2,#6
        0x0001bc22:    bf5c        \.      ITT      PL
        0x0001bc24:    2007        .       MOVPL    r0,#7
        0x0001bc26:    4770        pG      BXPL     lr
        0x0001bc28:    6840        @h      LDR      r0,[r0,#4]
        0x0001bc2a:    2234        4"      MOVS     r2,#0x34
        0x0001bc2c:    f2c40207    ....    MOVT     r2,#0x4007
        0x0001bc30:    5883        .X      LDR      r3,[r0,r2]
        0x0001bc32:    4319        .C      ORRS     r1,r1,r3
        0x0001bc34:    5081        .P      STR      r1,[r0,r2]
        0x0001bc36:    2000        .       MOVS     r0,#0
        0x0001bc38:    4770        pG      BX       lr
        0x0001bc3a:    bf00        ..      NOP      
        0x0001bc3c:    2002        .       MOVS     r0,#2
        0x0001bc3e:    4770        pG      BX       lr
    am_hal_sdhc_intr_status_get
        0x0001bc40:    b580        ..      PUSH     {r7,lr}
        0x0001bc42:    b1d8        ..      CBZ      r0,0x1bc7c ; am_hal_sdhc_intr_status_get + 60
        0x0001bc44:    f8d0e000    ....    LDR      lr,[r0,#0]
        0x0001bc48:    f24133b0    A..3    MOV      r3,#0x13b0
        0x0001bc4c:    f02e4c7e    ..~L    BIC      r12,lr,#0xfe000000
        0x0001bc50:    f2c01383    ....    MOVT     r3,#0x183
        0x0001bc54:    459c        .E      CMP      r12,r3
        0x0001bc56:    d111        ..      BNE      0x1bc7c ; am_hal_sdhc_intr_status_get + 60
        0x0001bc58:    ea5f138e    _...    LSLS     r3,lr,#6
        0x0001bc5c:    bf5c        \.      ITT      PL
        0x0001bc5e:    2007        .       MOVPL    r0,#7
        0x0001bc60:    bd80        ..      POPPL    {r7,pc}
        0x0001bc62:    6840        @h      LDR      r0,[r0,#4]
        0x0001bc64:    2a00        .*      CMP      r2,#0
        0x0001bc66:    f1004080    ...@    ADD      r0,r0,#0x40000000
        0x0001bc6a:    f50023e0    ...#    ADD      r3,r0,#0x70000
        0x0001bc6e:    6b18        .k      LDR      r0,[r3,#0x30]
        0x0001bc70:    bf1c        ..      ITT      NE
        0x0001bc72:    6b5a        Zk      LDRNE    r2,[r3,#0x34]
        0x0001bc74:    4010        .@      ANDNE    r0,r0,r2
        0x0001bc76:    6008        .`      STR      r0,[r1,#0]
        0x0001bc78:    2000        .       MOVS     r0,#0
        0x0001bc7a:    bd80        ..      POP      {r7,pc}
        0x0001bc7c:    2002        .       MOVS     r0,#2
        0x0001bc7e:    bd80        ..      POP      {r7,pc}
    am_hal_sdhc_pio_xfer_data
        0x0001bc80:    b570        p.      PUSH     {r4-r6,lr}
        0x0001bc82:    6842        Bh      LDR      r2,[r0,#4]
        0x0001bc84:    f8901038    ..8.    LDRB     r1,[r0,#0x38]
        0x0001bc88:    f1024280    ...B    ADD      r2,r2,#0x40000000
        0x0001bc8c:    f50222e0    ..."    ADD      r2,r2,#0x70000
        0x0001bc90:    6a53        Sj      LDR      r3,[r2,#0x24]
        0x0001bc92:    f44f6c80    O..l    MOV      r12,#0x400
        0x0001bc96:    2900        .)      CMP      r1,#0
        0x0001bc98:    bf08        ..      IT       EQ
        0x0001bc9a:    f44f6c00    O..l    MOVEQ    r12,#0x800
        0x0001bc9e:    ea130f0c    ....    TST      r3,r12
        0x0001bca2:    f00080bb    ....    BEQ.W    0x1be1c ; am_hal_sdhc_pio_xfer_data + 412
        0x0001bca6:    2900        .)      CMP      r1,#0
        0x0001bca8:    d143        C.      BNE      0x1bd32 ; am_hal_sdhc_pio_xfer_data + 178
        0x0001bcaa:    6b01        .k      LDR      r1,[r0,#0x30]
        0x0001bcac:    2900        .)      CMP      r1,#0
        0x0001bcae:    f000809b    ....    BEQ.W    0x1bde8 ; am_hal_sdhc_pio_xfer_data + 360
        0x0001bcb2:    2301        .#      MOVS     r3,#1
        0x0001bcb4:    e009        ..      B        0x1bcca ; am_hal_sdhc_pio_xfer_data + 74
        0x0001bcb6:    bf00        ..      NOP      
        0x0001bcb8:    2300        .#      MOVS     r3,#0
        0x0001bcba:    6a81        .j      LDR      r1,[r0,#0x28]
        0x0001bcbc:    3901        .9      SUBS     r1,#1
        0x0001bcbe:    6281        .b      STR      r1,[r0,#0x28]
        0x0001bcc0:    6a51        Qj      LDR      r1,[r2,#0x24]
        0x0001bcc2:    ea110f0c    ....    TST      r1,r12
        0x0001bcc6:    bf08        ..      IT       EQ
        0x0001bcc8:    bd70        p.      POPEQ    {r4-r6,pc}
        0x0001bcca:    2b00        .+      CMP      r3,#0
        0x0001bccc:    d0f4        ..      BEQ      0x1bcb8 ; am_hal_sdhc_pio_xfer_data + 56
        0x0001bcce:    f8d0e020    .. .    LDR      lr,[r0,#0x20]
        0x0001bcd2:    2100        .!      MOVS     r1,#0
        0x0001bcd4:    eb0e0401    ....    ADD      r4,lr,r1
        0x0001bcd8:    6a13        .j      LDR      r3,[r2,#0x20]
        0x0001bcda:    4625        %F      MOV      r5,r4
        0x0001bcdc:    f8453b04    E..;    STR      r3,[r5],#4
        0x0001bce0:    6b03        .k      LDR      r3,[r0,#0x30]
        0x0001bce2:    1d0e        ..      ADDS     r6,r1,#4
        0x0001bce4:    429e        .B      CMP      r6,r3
        0x0001bce6:    6205        .b      STR      r5,[r0,#0x20]
        0x0001bce8:    d2e7        ..      BCS      0x1bcba ; am_hal_sdhc_pio_xfer_data + 58
        0x0001bcea:    6a13        .j      LDR      r3,[r2,#0x20]
        0x0001bcec:    f1010608    ....    ADD      r6,r1,#8
        0x0001bcf0:    602b        +`      STR      r3,[r5,#0]
        0x0001bcf2:    6b03        .k      LDR      r3,[r0,#0x30]
        0x0001bcf4:    eb06050e    ....    ADD      r5,r6,lr
        0x0001bcf8:    429e        .B      CMP      r6,r3
        0x0001bcfa:    6205        .b      STR      r5,[r0,#0x20]
        0x0001bcfc:    d2dd        ..      BCS      0x1bcba ; am_hal_sdhc_pio_xfer_data + 58
        0x0001bcfe:    6a13        .j      LDR      r3,[r2,#0x20]
        0x0001bd00:    f101060c    ....    ADD      r6,r1,#0xc
        0x0001bd04:    602b        +`      STR      r3,[r5,#0]
        0x0001bd06:    6b03        .k      LDR      r3,[r0,#0x30]
        0x0001bd08:    eb06050e    ....    ADD      r5,r6,lr
        0x0001bd0c:    429e        .B      CMP      r6,r3
        0x0001bd0e:    6205        .b      STR      r5,[r0,#0x20]
        0x0001bd10:    d2d3        ..      BCS      0x1bcba ; am_hal_sdhc_pio_xfer_data + 58
        0x0001bd12:    6a13        .j      LDR      r3,[r2,#0x20]
        0x0001bd14:    3110        .1      ADDS     r1,r1,#0x10
        0x0001bd16:    602b        +`      STR      r3,[r5,#0]
        0x0001bd18:    6b03        .k      LDR      r3,[r0,#0x30]
        0x0001bd1a:    3410        .4      ADDS     r4,r4,#0x10
        0x0001bd1c:    4299        .B      CMP      r1,r3
        0x0001bd1e:    6204        .b      STR      r4,[r0,#0x20]
        0x0001bd20:    d3d8        ..      BCC      0x1bcd4 ; am_hal_sdhc_pio_xfer_data + 84
        0x0001bd22:    e7ca        ..      B        0x1bcba ; am_hal_sdhc_pio_xfer_data + 58
        0x0001bd24:    6a81        .j      LDR      r1,[r0,#0x28]
        0x0001bd26:    3901        .9      SUBS     r1,#1
        0x0001bd28:    6281        .b      STR      r1,[r0,#0x28]
        0x0001bd2a:    6a51        Qj      LDR      r1,[r2,#0x24]
        0x0001bd2c:    ea110f0c    ....    TST      r1,r12
        0x0001bd30:    d074        t.      BEQ      0x1be1c ; am_hal_sdhc_pio_xfer_data + 412
        0x0001bd32:    f8903038    ..80    LDRB     r3,[r0,#0x38]
        0x0001bd36:    6b01        .k      LDR      r1,[r0,#0x30]
        0x0001bd38:    b343        C.      CBZ      r3,0x1bd8c ; am_hal_sdhc_pio_xfer_data + 268
        0x0001bd3a:    2900        .)      CMP      r1,#0
        0x0001bd3c:    d0f2        ..      BEQ      0x1bd24 ; am_hal_sdhc_pio_xfer_data + 164
        0x0001bd3e:    2108        .!      MOVS     r1,#8
        0x0001bd40:    6a03        .j      LDR      r3,[r0,#0x20]
        0x0001bd42:    f8536b04    S..k    LDR      r6,[r3],#4
        0x0001bd46:    6203        .b      STR      r3,[r0,#0x20]
        0x0001bd48:    6216        .b      STR      r6,[r2,#0x20]
        0x0001bd4a:    6b03        .k      LDR      r3,[r0,#0x30]
        0x0001bd4c:    1f0e        ..      SUBS     r6,r1,#4
        0x0001bd4e:    429e        .B      CMP      r6,r3
        0x0001bd50:    d2e8        ..      BCS      0x1bd24 ; am_hal_sdhc_pio_xfer_data + 164
        0x0001bd52:    6a03        .j      LDR      r3,[r0,#0x20]
        0x0001bd54:    f8536b04    S..k    LDR      r6,[r3],#4
        0x0001bd58:    6203        .b      STR      r3,[r0,#0x20]
        0x0001bd5a:    6216        .b      STR      r6,[r2,#0x20]
        0x0001bd5c:    6b03        .k      LDR      r3,[r0,#0x30]
        0x0001bd5e:    4299        .B      CMP      r1,r3
        0x0001bd60:    d2e0        ..      BCS      0x1bd24 ; am_hal_sdhc_pio_xfer_data + 164
        0x0001bd62:    6a03        .j      LDR      r3,[r0,#0x20]
        0x0001bd64:    f8536b04    S..k    LDR      r6,[r3],#4
        0x0001bd68:    6203        .b      STR      r3,[r0,#0x20]
        0x0001bd6a:    6216        .b      STR      r6,[r2,#0x20]
        0x0001bd6c:    6b03        .k      LDR      r3,[r0,#0x30]
        0x0001bd6e:    1d0e        ..      ADDS     r6,r1,#4
        0x0001bd70:    429e        .B      CMP      r6,r3
        0x0001bd72:    d2d7        ..      BCS      0x1bd24 ; am_hal_sdhc_pio_xfer_data + 164
        0x0001bd74:    6a03        .j      LDR      r3,[r0,#0x20]
        0x0001bd76:    f8536b04    S..k    LDR      r6,[r3],#4
        0x0001bd7a:    6203        .b      STR      r3,[r0,#0x20]
        0x0001bd7c:    6216        .b      STR      r6,[r2,#0x20]
        0x0001bd7e:    6b03        .k      LDR      r3,[r0,#0x30]
        0x0001bd80:    f1010608    ....    ADD      r6,r1,#8
        0x0001bd84:    3110        .1      ADDS     r1,r1,#0x10
        0x0001bd86:    429e        .B      CMP      r6,r3
        0x0001bd88:    d3da        ..      BCC      0x1bd40 ; am_hal_sdhc_pio_xfer_data + 192
        0x0001bd8a:    e7cb        ..      B        0x1bd24 ; am_hal_sdhc_pio_xfer_data + 164
        0x0001bd8c:    2900        .)      CMP      r1,#0
        0x0001bd8e:    d0c9        ..      BEQ      0x1bd24 ; am_hal_sdhc_pio_xfer_data + 164
        0x0001bd90:    f8d0e020    .. .    LDR      lr,[r0,#0x20]
        0x0001bd94:    2300        .#      MOVS     r3,#0
        0x0001bd96:    bf00        ..      NOP      
        0x0001bd98:    eb0e0503    ....    ADD      r5,lr,r3
        0x0001bd9c:    6a16        .j      LDR      r6,[r2,#0x20]
        0x0001bd9e:    462c        ,F      MOV      r4,r5
        0x0001bda0:    f8446b04    D..k    STR      r6,[r4],#4
        0x0001bda4:    6b06        .k      LDR      r6,[r0,#0x30]
        0x0001bda6:    1d19        ..      ADDS     r1,r3,#4
        0x0001bda8:    42b1        .B      CMP      r1,r6
        0x0001bdaa:    6204        .b      STR      r4,[r0,#0x20]
        0x0001bdac:    d2ba        ..      BCS      0x1bd24 ; am_hal_sdhc_pio_xfer_data + 164
        0x0001bdae:    6a11        .j      LDR      r1,[r2,#0x20]
        0x0001bdb0:    f1030608    ....    ADD      r6,r3,#8
        0x0001bdb4:    6021        !`      STR      r1,[r4,#0]
        0x0001bdb6:    6b01        .k      LDR      r1,[r0,#0x30]
        0x0001bdb8:    eb06040e    ....    ADD      r4,r6,lr
        0x0001bdbc:    428e        .B      CMP      r6,r1
        0x0001bdbe:    6204        .b      STR      r4,[r0,#0x20]
        0x0001bdc0:    d2b0        ..      BCS      0x1bd24 ; am_hal_sdhc_pio_xfer_data + 164
        0x0001bdc2:    6a11        .j      LDR      r1,[r2,#0x20]
        0x0001bdc4:    f103060c    ....    ADD      r6,r3,#0xc
        0x0001bdc8:    6021        !`      STR      r1,[r4,#0]
        0x0001bdca:    6b01        .k      LDR      r1,[r0,#0x30]
        0x0001bdcc:    eb06040e    ....    ADD      r4,r6,lr
        0x0001bdd0:    428e        .B      CMP      r6,r1
        0x0001bdd2:    6204        .b      STR      r4,[r0,#0x20]
        0x0001bdd4:    d2a6        ..      BCS      0x1bd24 ; am_hal_sdhc_pio_xfer_data + 164
        0x0001bdd6:    6a11        .j      LDR      r1,[r2,#0x20]
        0x0001bdd8:    3310        .3      ADDS     r3,r3,#0x10
        0x0001bdda:    6021        !`      STR      r1,[r4,#0]
        0x0001bddc:    6b01        .k      LDR      r1,[r0,#0x30]
        0x0001bdde:    3510        .5      ADDS     r5,r5,#0x10
        0x0001bde0:    428b        .B      CMP      r3,r1
        0x0001bde2:    6205        .b      STR      r5,[r0,#0x20]
        0x0001bde4:    d3d8        ..      BCC      0x1bd98 ; am_hal_sdhc_pio_xfer_data + 280
        0x0001bde6:    e79d        ..      B        0x1bd24 ; am_hal_sdhc_pio_xfer_data + 164
        0x0001bde8:    6a81        .j      LDR      r1,[r0,#0x28]
        0x0001bdea:    3904        .9      SUBS     r1,#4
        0x0001bdec:    1ccb        ..      ADDS     r3,r1,#3
        0x0001bdee:    6283        .b      STR      r3,[r0,#0x28]
        0x0001bdf0:    6a53        Sj      LDR      r3,[r2,#0x24]
        0x0001bdf2:    ea130f0c    ....    TST      r3,r12
        0x0001bdf6:    d011        ..      BEQ      0x1be1c ; am_hal_sdhc_pio_xfer_data + 412
        0x0001bdf8:    1c8b        ..      ADDS     r3,r1,#2
        0x0001bdfa:    6283        .b      STR      r3,[r0,#0x28]
        0x0001bdfc:    6a53        Sj      LDR      r3,[r2,#0x24]
        0x0001bdfe:    ea130f0c    ....    TST      r3,r12
        0x0001be02:    d00b        ..      BEQ      0x1be1c ; am_hal_sdhc_pio_xfer_data + 412
        0x0001be04:    1c4b        K.      ADDS     r3,r1,#1
        0x0001be06:    6283        .b      STR      r3,[r0,#0x28]
        0x0001be08:    6a53        Sj      LDR      r3,[r2,#0x24]
        0x0001be0a:    ea130f0c    ....    TST      r3,r12
        0x0001be0e:    d005        ..      BEQ      0x1be1c ; am_hal_sdhc_pio_xfer_data + 412
        0x0001be10:    6281        .b      STR      r1,[r0,#0x28]
        0x0001be12:    6a53        Sj      LDR      r3,[r2,#0x24]
        0x0001be14:    3904        .9      SUBS     r1,#4
        0x0001be16:    ea130f0c    ....    TST      r3,r12
        0x0001be1a:    d1e7        ..      BNE      0x1bdec ; am_hal_sdhc_pio_xfer_data + 364
        0x0001be1c:    bd70        p.      POP      {r4-r6,pc}
        0x0001be1e:    0000        ..      MOVS     r0,r0
    am_hal_sdhc_power_control
        0x0001be20:    b510        ..      PUSH     {r4,lr}
        0x0001be22:    b3a8        ..      CBZ      r0,0x1be90 ; am_hal_sdhc_power_control + 112
        0x0001be24:    6803        .h      LDR      r3,[r0,#0]
        0x0001be26:    f2413cb0    A..<    MOV      r12,#0x13b0
        0x0001be2a:    4604        .F      MOV      r4,r0
        0x0001be2c:    f2c01c83    ....    MOVT     r12,#0x183
        0x0001be30:    f023407e    #.~@    BIC      r0,r3,#0xfe000000
        0x0001be34:    4560        `E      CMP      r0,r12
        0x0001be36:    d12b        +.      BNE      0x1be90 ; am_hal_sdhc_power_control + 112
        0x0001be38:    1e48        H.      SUBS     r0,r1,#1
        0x0001be3a:    2802        .(      CMP      r0,#2
        0x0001be3c:    d22a        *.      BCS      0x1be94 ; am_hal_sdhc_power_control + 116
        0x0001be3e:    b18a        ..      CBZ      r2,0x1be64 ; am_hal_sdhc_power_control + 68
        0x0001be40:    6860        `h      LDR      r0,[r4,#4]
        0x0001be42:    f1004080    ...@    ADD      r0,r0,#0x40000000
        0x0001be46:    f50020e0    ...     ADD      r0,r0,#0x70000
        0x0001be4a:    6a81        .j      LDR      r1,[r0,#0x28]
        0x0001be4c:    6421        !d      STR      r1,[r4,#0x40]
        0x0001be4e:    6ac1        .j      LDR      r1,[r0,#0x2c]
        0x0001be50:    6461        ad      STR      r1,[r4,#0x44]
        0x0001be52:    6b41        Ak      LDR      r1,[r0,#0x34]
        0x0001be54:    64a1        .d      STR      r1,[r4,#0x48]
        0x0001be56:    6b81        .k      LDR      r1,[r0,#0x38]
        0x0001be58:    64e1        .d      STR      r1,[r4,#0x4c]
        0x0001be5a:    6bc0        .k      LDR      r0,[r0,#0x3c]
        0x0001be5c:    6520         e      STR      r0,[r4,#0x50]
        0x0001be5e:    2001        .       MOVS     r0,#1
        0x0001be60:    f884003c    ..<.    STRB     r0,[r4,#0x3c]
        0x0001be64:    f023407c    #.|@    BIC      r0,r3,#0xfc000000
        0x0001be68:    f10c7100    ...q    ADD      r1,r12,#0x2000000
        0x0001be6c:    4288        .B      CMP      r0,r1
        0x0001be6e:    d107        ..      BNE      0x1be80 ; am_hal_sdhc_power_control + 96
        0x0001be70:    6860        `h      LDR      r0,[r4,#4]
        0x0001be72:    f1004080    ...@    ADD      r0,r0,#0x40000000
        0x0001be76:    f50020e0    ...     ADD      r0,r0,#0x70000
        0x0001be7a:    6b41        Ak      LDR      r1,[r0,#0x34]
        0x0001be7c:    2100        .!      MOVS     r1,#0
        0x0001be7e:    6341        Ac      STR      r1,[r0,#0x34]
        0x0001be80:    7920         y      LDRB     r0,[r4,#4]
        0x0001be82:    3015        .0      ADDS     r0,r0,#0x15
        0x0001be84:    b2c0        ..      UXTB     r0,r0
        0x0001be86:    f7fefb75    ..u.    BL       am_hal_pwrctrl_periph_disable ; 0x1a574
        0x0001be8a:    2000        .       MOVS     r0,#0
        0x0001be8c:    bd10        ..      POP      {r4,pc}
        0x0001be8e:    bf00        ..      NOP      
        0x0001be90:    2002        .       MOVS     r0,#2
        0x0001be92:    bd10        ..      POP      {r4,pc}
        0x0001be94:    2900        .)      CMP      r1,#0
        0x0001be96:    bf1c        ..      ITT      NE
        0x0001be98:    2006        .       MOVNE    r0,#6
        0x0001be9a:    bd10        ..      POPNE    {r4,pc}
        0x0001be9c:    b312        ..      CBZ      r2,0x1bee4 ; am_hal_sdhc_power_control + 196
        0x0001be9e:    f894003c    ..<.    LDRB     r0,[r4,#0x3c]
        0x0001bea2:    b338        8.      CBZ      r0,0x1bef4 ; am_hal_sdhc_power_control + 212
        0x0001bea4:    7920         y      LDRB     r0,[r4,#4]
        0x0001bea6:    3015        .0      ADDS     r0,r0,#0x15
        0x0001bea8:    b2c0        ..      UXTB     r0,r0
        0x0001beaa:    f7fefbfb    ....    BL       am_hal_pwrctrl_periph_enable ; 0x1a6a4
        0x0001beae:    6860        `h      LDR      r0,[r4,#4]
        0x0001beb0:    2200        ."      MOVS     r2,#0
        0x0001beb2:    6c21        !l      LDR      r1,[r4,#0x40]
        0x0001beb4:    f2c40207    ....    MOVT     r2,#0x4007
        0x0001beb8:    4410        .D      ADD      r0,r0,r2
        0x0001beba:    6281        .b      STR      r1,[r0,#0x28]
        0x0001bebc:    6860        `h      LDR      r0,[r4,#4]
        0x0001bebe:    6c61        al      LDR      r1,[r4,#0x44]
        0x0001bec0:    4410        .D      ADD      r0,r0,r2
        0x0001bec2:    62c1        .b      STR      r1,[r0,#0x2c]
        0x0001bec4:    6860        `h      LDR      r0,[r4,#4]
        0x0001bec6:    6ca1        .l      LDR      r1,[r4,#0x48]
        0x0001bec8:    4410        .D      ADD      r0,r0,r2
        0x0001beca:    6341        Ac      STR      r1,[r0,#0x34]
        0x0001becc:    6860        `h      LDR      r0,[r4,#4]
        0x0001bece:    6ce1        .l      LDR      r1,[r4,#0x4c]
        0x0001bed0:    4410        .D      ADD      r0,r0,r2
        0x0001bed2:    6381        .c      STR      r1,[r0,#0x38]
        0x0001bed4:    6860        `h      LDR      r0,[r4,#4]
        0x0001bed6:    6d21        !m      LDR      r1,[r4,#0x50]
        0x0001bed8:    4410        .D      ADD      r0,r0,r2
        0x0001beda:    63c1        .c      STR      r1,[r0,#0x3c]
        0x0001bedc:    2000        .       MOVS     r0,#0
        0x0001bede:    f884003c    ..<.    STRB     r0,[r4,#0x3c]
        0x0001bee2:    bd10        ..      POP      {r4,pc}
        0x0001bee4:    7920         y      LDRB     r0,[r4,#4]
        0x0001bee6:    3015        .0      ADDS     r0,r0,#0x15
        0x0001bee8:    b2c0        ..      UXTB     r0,r0
        0x0001beea:    f7fefbdb    ....    BL       am_hal_pwrctrl_periph_enable ; 0x1a6a4
        0x0001beee:    2000        .       MOVS     r0,#0
        0x0001bef0:    bd10        ..      POP      {r4,pc}
        0x0001bef2:    bf00        ..      NOP      
        0x0001bef4:    2007        .       MOVS     r0,#7
        0x0001bef6:    bd10        ..      POP      {r4,pc}
    am_hal_sdhc_set_bus_clock
        0x0001bef8:    b5f0        ..      PUSH     {r4-r7,lr}
        0x0001befa:    b081        ..      SUB      sp,sp,#4
        0x0001befc:    b170        p.      CBZ      r0,0x1bf1c ; am_hal_sdhc_set_bus_clock + 36
        0x0001befe:    6802        .h      LDR      r2,[r0,#0]
        0x0001bf00:    f24137b0    A..7    MOV      r7,#0x13b0
        0x0001bf04:    f022437e    ".~C    BIC      r3,r2,#0xfe000000
        0x0001bf08:    f2c01783    ....    MOVT     r7,#0x183
        0x0001bf0c:    42bb        .B      CMP      r3,r7
        0x0001bf0e:    d105        ..      BNE      0x1bf1c ; am_hal_sdhc_set_bus_clock + 36
        0x0001bf10:    0192        ..      LSLS     r2,r2,#6
        0x0001bf12:    d407        ..      BMI      0x1bf24 ; am_hal_sdhc_set_bus_clock + 44
        0x0001bf14:    2007        .       MOVS     r0,#7
        0x0001bf16:    b001        ..      ADD      sp,sp,#4
        0x0001bf18:    bdf0        ..      POP      {r4-r7,pc}
        0x0001bf1a:    bf00        ..      NOP      
        0x0001bf1c:    2002        .       MOVS     r0,#2
        0x0001bf1e:    b001        ..      ADD      sp,sp,#4
        0x0001bf20:    bdf0        ..      POP      {r4-r7,pc}
        0x0001bf22:    bf00        ..      NOP      
        0x0001bf24:    6904        .i      LDR      r4,[r0,#0x10]
        0x0001bf26:    6840        @h      LDR      r0,[r0,#4]
        0x0001bf28:    69e2        .i      LDR      r2,[r4,#0x1c]
        0x0001bf2a:    428a        .B      CMP      r2,r1
        0x0001bf2c:    d91c        ..      BLS      0x1bf68 ; am_hal_sdhc_set_bus_clock + 112
        0x0001bf2e:    ebb10f52    ..R.    CMP      r1,r2,LSR #1
        0x0001bf32:    d21b        ..      BCS      0x1bf6c ; am_hal_sdhc_set_bus_clock + 116
        0x0001bf34:    ebb10f92    ....    CMP      r1,r2,LSR #2
        0x0001bf38:    d21a        ..      BCS      0x1bf70 ; am_hal_sdhc_set_bus_clock + 120
        0x0001bf3a:    ebb10fd2    ....    CMP      r1,r2,LSR #3
        0x0001bf3e:    d219        ..      BCS      0x1bf74 ; am_hal_sdhc_set_bus_clock + 124
        0x0001bf40:    ebb11f12    ....    CMP      r1,r2,LSR #4
        0x0001bf44:    d218        ..      BCS      0x1bf78 ; am_hal_sdhc_set_bus_clock + 128
        0x0001bf46:    ebb11f52    ..R.    CMP      r1,r2,LSR #5
        0x0001bf4a:    d217        ..      BCS      0x1bf7c ; am_hal_sdhc_set_bus_clock + 132
        0x0001bf4c:    ebb11f92    ....    CMP      r1,r2,LSR #6
        0x0001bf50:    d216        ..      BCS      0x1bf80 ; am_hal_sdhc_set_bus_clock + 136
        0x0001bf52:    ebb11fd2    ....    CMP      r1,r2,LSR #7
        0x0001bf56:    d215        ..      BCS      0x1bf84 ; am_hal_sdhc_set_bus_clock + 140
        0x0001bf58:    f44f7380    O..s    MOV      r3,#0x100
        0x0001bf5c:    ebb12f12    .../    CMP      r1,r2,LSR #8
        0x0001bf60:    bf38        8.      IT       CC
        0x0001bf62:    f44f7300    O..s    MOVCC    r3,#0x200
        0x0001bf66:    e00e        ..      B        0x1bf86 ; am_hal_sdhc_set_bus_clock + 142
        0x0001bf68:    2301        .#      MOVS     r3,#1
        0x0001bf6a:    e00c        ..      B        0x1bf86 ; am_hal_sdhc_set_bus_clock + 142
        0x0001bf6c:    2302        .#      MOVS     r3,#2
        0x0001bf6e:    e00a        ..      B        0x1bf86 ; am_hal_sdhc_set_bus_clock + 142
        0x0001bf70:    2304        .#      MOVS     r3,#4
        0x0001bf72:    e008        ..      B        0x1bf86 ; am_hal_sdhc_set_bus_clock + 142
        0x0001bf74:    2308        .#      MOVS     r3,#8
        0x0001bf76:    e006        ..      B        0x1bf86 ; am_hal_sdhc_set_bus_clock + 142
        0x0001bf78:    2310        .#      MOVS     r3,#0x10
        0x0001bf7a:    e004        ..      B        0x1bf86 ; am_hal_sdhc_set_bus_clock + 142
        0x0001bf7c:    2320         #      MOVS     r3,#0x20
        0x0001bf7e:    e002        ..      B        0x1bf86 ; am_hal_sdhc_set_bus_clock + 142
        0x0001bf80:    2340        @#      MOVS     r3,#0x40
        0x0001bf82:    e000        ..      B        0x1bf86 ; am_hal_sdhc_set_bus_clock + 142
        0x0001bf84:    2380        .#      MOVS     r3,#0x80
        0x0001bf86:    fbb2f5f3    ....    UDIV     r5,r2,r3
        0x0001bf8a:    6961        ai      LDR      r1,[r4,#0x14]
        0x0001bf8c:    42a9        .B      CMP      r1,r5
        0x0001bf8e:    d022        ".      BEQ      0x1bfd6 ; am_hal_sdhc_set_bus_clock + 222
        0x0001bf90:    f1004080    ...@    ADD      r0,r0,#0x40000000
        0x0001bf94:    f50026e0    ...&    ADD      r6,r0,#0x70000
        0x0001bf98:    6af0        .j      LDR      r0,[r6,#0x2c]
        0x0001bf9a:    0859        Y.      LSRS     r1,r3,#1
        0x0001bf9c:    f0200005     ...    BIC      r0,r0,#5
        0x0001bfa0:    62f0        .b      STR      r0,[r6,#0x2c]
        0x0001bfa2:    6af0        .j      LDR      r0,[r6,#0x2c]
        0x0001bfa4:    f361200f    a..     BFI      r0,r1,#8,#8
        0x0001bfa8:    62f0        .b      STR      r0,[r6,#0x2c]
        0x0001bfaa:    6af0        .j      LDR      r0,[r6,#0x2c]
        0x0001bfac:    f0400001    @...    ORR      r0,r0,#1
        0x0001bfb0:    62f0        .b      STR      r0,[r6,#0x2c]
        0x0001bfb2:    6af0        .j      LDR      r0,[r6,#0x2c]
        0x0001bfb4:    0780        ..      LSLS     r0,r0,#30
        0x0001bfb6:    d409        ..      BMI      0x1bfcc ; am_hal_sdhc_set_bus_clock + 212
        0x0001bfb8:    f46f777a    o.zw    MVN      r7,#0x3e8
        0x0001bfbc:    3701        .7      ADDS     r7,#1
        0x0001bfbe:    d20d        ..      BCS      0x1bfdc ; am_hal_sdhc_set_bus_clock + 228
        0x0001bfc0:    200a        .       MOVS     r0,#0xa
        0x0001bfc2:    f000fd75    ..u.    BL       am_util_delay_us ; 0x1cab0
        0x0001bfc6:    6af0        .j      LDR      r0,[r6,#0x2c]
        0x0001bfc8:    0780        ..      LSLS     r0,r0,#30
        0x0001bfca:    d5f7        ..      BPL      0x1bfbc ; am_hal_sdhc_set_bus_clock + 196
        0x0001bfcc:    6af0        .j      LDR      r0,[r6,#0x2c]
        0x0001bfce:    f0400004    @...    ORR      r0,r0,#4
        0x0001bfd2:    62f0        .b      STR      r0,[r6,#0x2c]
        0x0001bfd4:    6165        ea      STR      r5,[r4,#0x14]
        0x0001bfd6:    2000        .       MOVS     r0,#0
        0x0001bfd8:    b001        ..      ADD      sp,sp,#4
        0x0001bfda:    bdf0        ..      POP      {r4-r7,pc}
        0x0001bfdc:    2001        .       MOVS     r0,#1
        0x0001bfde:    b001        ..      ADD      sp,sp,#4
        0x0001bfe0:    bdf0        ..      POP      {r4-r7,pc}
        0x0001bfe2:    0000        ..      MOVS     r0,r0
    am_hal_sdhc_set_bus_voltage
        0x0001bfe4:    b510        ..      PUSH     {r4,lr}
        0x0001bfe6:    b328        (.      CBZ      r0,0x1c034 ; am_hal_sdhc_set_bus_voltage + 80
        0x0001bfe8:    6802        .h      LDR      r2,[r0,#0]
        0x0001bfea:    f24133b0    A..3    MOV      r3,#0x13b0
        0x0001bfee:    f0224c7e    ".~L    BIC      r12,r2,#0xfe000000
        0x0001bff2:    f2c01383    ....    MOVT     r3,#0x183
        0x0001bff6:    459c        .E      CMP      r12,r3
        0x0001bff8:    d11c        ..      BNE      0x1c034 ; am_hal_sdhc_set_bus_voltage + 80
        0x0001bffa:    0192        ..      LSLS     r2,r2,#6
        0x0001bffc:    bf5c        \.      ITT      PL
        0x0001bffe:    2007        .       MOVPL    r0,#7
        0x0001c000:    bd10        ..      POPPL    {r4,pc}
        0x0001c002:    6902        .i      LDR      r2,[r0,#0x10]
        0x0001c004:    f2400c00    @...    MOVW     r12,#0
        0x0001c008:    2902        .)      CMP      r1,#2
        0x0001c00a:    f2c40c07    ....    MOVT     r12,#0x4007
        0x0001c00e:    d807        ..      BHI      0x1c020 ; am_hal_sdhc_set_bus_voltage + 60
        0x0001c010:    6843        Ch      LDR      r3,[r0,#4]
        0x0001c012:    1d4c        L.      ADDS     r4,r1,#5
        0x0001c014:    4463        cD      ADD      r3,r3,r12
        0x0001c016:    f8d3e028    ..(.    LDR      lr,[r3,#0x28]
        0x0001c01a:    ea4e2444    N.D$    ORR      r4,lr,r4,LSL #9
        0x0001c01e:    629c        .b      STR      r4,[r3,#0x28]
        0x0001c020:    6840        @h      LDR      r0,[r0,#4]
        0x0001c022:    4460        `D      ADD      r0,r0,r12
        0x0001c024:    6a83        .j      LDR      r3,[r0,#0x28]
        0x0001c026:    f4437380    C..s    ORR      r3,r3,#0x100
        0x0001c02a:    6283        .b      STR      r3,[r0,#0x28]
        0x0001c02c:    2000        .       MOVS     r0,#0
        0x0001c02e:    7311        .s      STRB     r1,[r2,#0xc]
        0x0001c030:    bd10        ..      POP      {r4,pc}
        0x0001c032:    bf00        ..      NOP      
        0x0001c034:    2002        .       MOVS     r0,#2
        0x0001c036:    bd10        ..      POP      {r4,pc}
    am_hal_sdhc_set_bus_width
        0x0001c038:    b580        ..      PUSH     {r7,lr}
        0x0001c03a:    b1f8        ..      CBZ      r0,0x1c07c ; am_hal_sdhc_set_bus_width + 68
        0x0001c03c:    6802        .h      LDR      r2,[r0,#0]
        0x0001c03e:    f24133b0    A..3    MOV      r3,#0x13b0
        0x0001c042:    f0224c7e    ".~L    BIC      r12,r2,#0xfe000000
        0x0001c046:    f2c01383    ....    MOVT     r3,#0x183
        0x0001c04a:    459c        .E      CMP      r12,r3
        0x0001c04c:    d116        ..      BNE      0x1c07c ; am_hal_sdhc_set_bus_width + 68
        0x0001c04e:    0192        ..      LSLS     r2,r2,#6
        0x0001c050:    bf5c        \.      ITT      PL
        0x0001c052:    2007        .       MOVPL    r0,#7
        0x0001c054:    bd80        ..      POPPL    {r7,pc}
        0x0001c056:    f2400c00    @...    MOVW     r12,#0
        0x0001c05a:    6842        Bh      LDR      r2,[r0,#4]
        0x0001c05c:    f2c40c07    ....    MOVT     r12,#0x4007
        0x0001c060:    eb02030c    ....    ADD      r3,r2,r12
        0x0001c064:    f8d0e010    ....    LDR      lr,[r0,#0x10]
        0x0001c068:    6a9a        .j      LDR      r2,[r3,#0x28]
        0x0001c06a:    2908        .)      CMP      r1,#8
        0x0001c06c:    d108        ..      BNE      0x1c080 ; am_hal_sdhc_set_bus_width + 72
        0x0001c06e:    f0420020    B. .    ORR      r0,r2,#0x20
        0x0001c072:    6298        .b      STR      r0,[r3,#0x28]
        0x0001c074:    2000        .       MOVS     r0,#0
        0x0001c076:    f88e100b    ....    STRB     r1,[lr,#0xb]
        0x0001c07a:    bd80        ..      POP      {r7,pc}
        0x0001c07c:    2002        .       MOVS     r0,#2
        0x0001c07e:    bd80        ..      POP      {r7,pc}
        0x0001c080:    f0220220    ". .    BIC      r2,r2,#0x20
        0x0001c084:    629a        .b      STR      r2,[r3,#0x28]
        0x0001c086:    6840        @h      LDR      r0,[r0,#4]
        0x0001c088:    2904        .)      CMP      r1,#4
        0x0001c08a:    4460        `D      ADD      r0,r0,r12
        0x0001c08c:    6a82        .j      LDR      r2,[r0,#0x28]
        0x0001c08e:    f0220202    "...    BIC      r2,r2,#2
        0x0001c092:    bf08        ..      IT       EQ
        0x0001c094:    3202        .2      ADDEQ    r2,#2
        0x0001c096:    6282        .b      STR      r2,[r0,#0x28]
        0x0001c098:    2000        .       MOVS     r0,#0
        0x0001c09a:    f88e100b    ....    STRB     r1,[lr,#0xb]
        0x0001c09e:    bd80        ..      POP      {r7,pc}
    am_hal_sdhc_set_txrx_delay
        0x0001c0a0:    f2404050    @.P@    MOVW     r0,#0x450
        0x0001c0a4:    f2c40002    ....    MOVT     r0,#0x4002
        0x0001c0a8:    6802        .h      LDR      r2,[r0,#0]
        0x0001c0aa:    f0420204    B...    ORR      r2,r2,#4
        0x0001c0ae:    6002        .`      STR      r2,[r0,#0]
        0x0001c0b0:    780a        .x      LDRB     r2,[r1,#0]
        0x0001c0b2:    6803        .h      LDR      r3,[r0,#0]
        0x0001c0b4:    f002020f    ....    AND      r2,r2,#0xf
        0x0001c0b8:    f4235370    #.pS    BIC      r3,r3,#0x3c00
        0x0001c0bc:    ea432282    C.."    ORR      r2,r3,r2,LSL #10
        0x0001c0c0:    6002        .`      STR      r2,[r0,#0]
        0x0001c0c2:    6802        .h      LDR      r2,[r0,#0]
        0x0001c0c4:    f4427200    B..r    ORR      r2,r2,#0x200
        0x0001c0c8:    6002        .`      STR      r2,[r0,#0]
        0x0001c0ca:    7849        Ix      LDRB     r1,[r1,#1]
        0x0001c0cc:    6802        .h      LDR      r2,[r0,#0]
        0x0001c0ce:    f001011f    ....    AND      r1,r1,#0x1f
        0x0001c0d2:    f42272f8    "..r    BIC      r2,r2,#0x1f0
        0x0001c0d6:    ea421101    B...    ORR      r1,r2,r1,LSL #4
        0x0001c0da:    6001        .`      STR      r1,[r0,#0]
        0x0001c0dc:    6801        .h      LDR      r1,[r0,#0]
        0x0001c0de:    f0410108    A...    ORR      r1,r1,#8
        0x0001c0e2:    6001        .`      STR      r1,[r0,#0]
        0x0001c0e4:    6801        .h      LDR      r1,[r0,#0]
        0x0001c0e6:    f0210104    !...    BIC      r1,r1,#4
        0x0001c0ea:    6001        .`      STR      r1,[r0,#0]
        0x0001c0ec:    4770        pG      BX       lr
        0x0001c0ee:    0000        ..      MOVS     r0,r0
    am_hal_sdhc_set_uhs_mode
        0x0001c0f0:    b580        ..      PUSH     {r7,lr}
        0x0001c0f2:    b328        (.      CBZ      r0,0x1c140 ; am_hal_sdhc_set_uhs_mode + 80
        0x0001c0f4:    6802        .h      LDR      r2,[r0,#0]
        0x0001c0f6:    f24133b0    A..3    MOV      r3,#0x13b0
        0x0001c0fa:    f0224c7e    ".~L    BIC      r12,r2,#0xfe000000
        0x0001c0fe:    f2c01383    ....    MOVT     r3,#0x183
        0x0001c102:    459c        .E      CMP      r12,r3
        0x0001c104:    d11c        ..      BNE      0x1c140 ; am_hal_sdhc_set_uhs_mode + 80
        0x0001c106:    0192        ..      LSLS     r2,r2,#6
        0x0001c108:    bf5c        \.      ITT      PL
        0x0001c10a:    2007        .       MOVPL    r0,#7
        0x0001c10c:    bd80        ..      POPPL    {r7,pc}
        0x0001c10e:    6902        .i      LDR      r2,[r0,#0x10]
        0x0001c110:    7b53        S{      LDRB     r3,[r2,#0xd]
        0x0001c112:    428b        .B      CMP      r3,r1
        0x0001c114:    bf04        ..      ITT      EQ
        0x0001c116:    2000        .       MOVEQ    r0,#0
        0x0001c118:    bd80        ..      POPEQ    {r7,pc}
        0x0001c11a:    6840        @h      LDR      r0,[r0,#4]
        0x0001c11c:    f2400c3c    @.<.    MOVW     r12,#0x3c
        0x0001c120:    f2c40c07    ....    MOVT     r12,#0x4007
        0x0001c124:    f850300c    P..0    LDR      r3,[r0,r12]
        0x0001c128:    f0010e07    ....    AND      lr,r1,#7
        0x0001c12c:    f42323e0    #..#    BIC      r3,r3,#0x70000
        0x0001c130:    ea43430e    C..C    ORR      r3,r3,lr,LSL #16
        0x0001c134:    f840300c    @..0    STR      r3,[r0,r12]
        0x0001c138:    2000        .       MOVS     r0,#0
        0x0001c13a:    7351        Qs      STRB     r1,[r2,#0xd]
        0x0001c13c:    bd80        ..      POP      {r7,pc}
        0x0001c13e:    bf00        ..      NOP      
        0x0001c140:    2002        .       MOVS     r0,#2
        0x0001c142:    bd80        ..      POP      {r7,pc}
    am_hal_sdhc_setup_host
        0x0001c144:    b3e0        ..      CBZ      r0,0x1c1c0 ; am_hal_sdhc_setup_host + 124
        0x0001c146:    6802        .h      LDR      r2,[r0,#0]
        0x0001c148:    f24133b0    A..3    MOV      r3,#0x13b0
        0x0001c14c:    f0224c7e    ".~L    BIC      r12,r2,#0xfe000000
        0x0001c150:    f2c01383    ....    MOVT     r3,#0x183
        0x0001c154:    459c        .E      CMP      r12,r3
        0x0001c156:    d133        3.      BNE      0x1c1c0 ; am_hal_sdhc_setup_host + 124
        0x0001c158:    0192        ..      LSLS     r2,r2,#6
        0x0001c15a:    bf5c        \.      ITT      PL
        0x0001c15c:    2007        .       MOVPL    r0,#7
        0x0001c15e:    4770        pG      BXPL     lr
        0x0001c160:    6842        Bh      LDR      r2,[r0,#4]
        0x0001c162:    6101        .a      STR      r1,[r0,#0x10]
        0x0001c164:    f1024280    ...B    ADD      r2,r2,#0x40000000
        0x0001c168:    f5022ce0    ...,    ADD      r12,r2,#0x70000
        0x0001c16c:    f8dc2040    ..@     LDR      r2,[r12,#0x40]
        0x0001c170:    0a13        ..      LSRS     r3,r2,#8
        0x0001c172:    7303        .s      STRB     r3,[r0,#0xc]
        0x0001c174:    f8dc30fc    ...0    LDR      r3,[r12,#0xfc]
        0x0001c178:    f3c22207    ..."    UBFX     r2,r2,#8,#8
        0x0001c17c:    0c1b        ..      LSRS     r3,r3,#16
        0x0001c17e:    760b        .v      STRB     r3,[r1,#0x18]
        0x0001c180:    f2442340    D.@#    MOV      r3,#0x4240
        0x0001c184:    f2c0030f    ....    MOVT     r3,#0xf
        0x0001c188:    435a        ZC      MULS     r2,r3,r2
        0x0001c18a:    0a13        ..      LSRS     r3,r2,#8
        0x0001c18c:    e9c12307    ...#    STRD     r2,r3,[r1,#0x1c]
        0x0001c190:    f2401303    @...    MOV      r3,#0x103
        0x0001c194:    2200        ."      MOVS     r2,#0
        0x0001c196:    814b        K.      STRH     r3,[r1,#0xa]
        0x0001c198:    f44f63fe    O..c    MOV      r3,#0x7f0
        0x0001c19c:    734a        Js      STRB     r2,[r1,#0xd]
        0x0001c19e:    e9c13204    ...2    STRD     r3,r2,[r1,#0x10]
        0x0001c1a2:    f8dc1004    ....    LDR      r1,[r12,#4]
        0x0001c1a6:    f44f5380    O..S    MOV      r3,#0x1000
        0x0001c1aa:    f3c13102    ...1    UBFX     r1,r1,#12,#3
        0x0001c1ae:    fa03f101    ....    LSL      r1,r3,r1
        0x0001c1b2:    6081        .`      STR      r1,[r0,#8]
        0x0001c1b4:    2101        .!      MOVS     r1,#1
        0x0001c1b6:    f8801039    ..9.    STRB     r1,[r0,#0x39]
        0x0001c1ba:    4610        .F      MOV      r0,r2
        0x0001c1bc:    4770        pG      BX       lr
        0x0001c1be:    bf00        ..      NOP      
        0x0001c1c0:    2002        .       MOVS     r0,#2
        0x0001c1c2:    4770        pG      BX       lr
    am_hal_sdhc_xfer_data
        0x0001c1c4:    e92d4ff0    -..O    PUSH     {r4-r11,lr}
        0x0001c1c8:    b081        ..      SUB      sp,sp,#4
        0x0001c1ca:    4604        .F      MOV      r4,r0
        0x0001c1cc:    6840        @h      LDR      r0,[r0,#4]
        0x0001c1ce:    2200        ."      MOVS     r2,#0
        0x0001c1d0:    f2c40207    ....    MOVT     r2,#0x4007
        0x0001c1d4:    1886        ..      ADDS     r6,r0,r2
        0x0001c1d6:    9100        ..      STR      r1,[sp,#0]
        0x0001c1d8:    68c8        .h      LDR      r0,[r1,#0xc]
        0x0001c1da:    f6430180    C...    MOVW     r1,#0x3880
        0x0001c1de:    f2c00101    ....    MOVT     r1,#1
        0x0001c1e2:    fb00f501    ....    MUL      r5,r0,r1
        0x0001c1e6:    2800        .(      CMP      r0,#0
        0x0001c1e8:    bf04        ..      ITT      EQ
        0x0001c1ea:    f6430580    C...    MOVWEQ   r5,#0x3880
        0x0001c1ee:    f2c00501    ....    MOVTEQ   r5,#1
        0x0001c1f2:    f8940038    ..8.    LDRB     r0,[r4,#0x38]
        0x0001c1f6:    f04f0a10    O...    MOV      r10,#0x10
        0x0001c1fa:    2800        .(      CMP      r0,#0
        0x0001c1fc:    bf08        ..      IT       EQ
        0x0001c1fe:    f04f0a20    O. .    MOVEQ    r10,#0x20
        0x0001c202:    2d00        .-      CMP      r5,#0
        0x0001c204:    f04f0700    O...    MOV      r7,#0
        0x0001c208:    d060        `.      BEQ      0x1c2cc ; am_hal_sdhc_xfer_data + 264
        0x0001c20a:    f04f0802    O...    MOV      r8,#2
        0x0001c20e:    f04f0b00    O...    MOV      r11,#0
        0x0001c212:    bf00        ..      NOP      
        0x0001c214:    6b30        0k      LDR      r0,[r6,#0x30]
        0x0001c216:    f0100902    ....    ANDS     r9,r0,#2
        0x0001c21a:    d10b        ..      BNE      0x1c234 ; am_hal_sdhc_xfer_data + 112
        0x0001c21c:    0701        ..      LSLS     r1,r0,#28
        0x0001c21e:    d413        ..      BMI      0x1c248 ; am_hal_sdhc_xfer_data + 132
        0x0001c220:    ea100f0a    ....    TST      r0,r10
        0x0001c224:    d030        0.      BEQ      0x1c288 ; am_hal_sdhc_xfer_data + 196
        0x0001c226:    4620         F      MOV      r0,r4
        0x0001c228:    f8c6a030    ..0.    STR      r10,[r6,#0x30]
        0x0001c22c:    f7fffd28    ..(.    BL       am_hal_sdhc_pio_xfer_data ; 0x1bc80
        0x0001c230:    e020         .      B        0x1c274 ; am_hal_sdhc_xfer_data + 176
        0x0001c232:    bf00        ..      NOP      
        0x0001c234:    2000        .       MOVS     r0,#0
        0x0001c236:    2100        .!      MOVS     r1,#0
        0x0001c238:    f7fdfba4    ....    BL       am_hal_daxi_control ; 0x19984
        0x0001c23c:    f8c68030    ..0.    STR      r8,[r6,#0x30]
        0x0001c240:    62a7        .b      STR      r7,[r4,#0x28]
        0x0001c242:    f04f0b01    O...    MOV      r11,#1
        0x0001c246:    e015        ..      B        0x1c274 ; am_hal_sdhc_xfer_data + 176
        0x0001c248:    2000        .       MOVS     r0,#0
        0x0001c24a:    2100        .!      MOVS     r1,#0
        0x0001c24c:    f7fdfb9a    ....    BL       am_hal_daxi_control ; 0x19984
        0x0001c250:    2008        .       MOVS     r0,#8
        0x0001c252:    6330        0c      STR      r0,[r6,#0x30]
        0x0001c254:    6b60        `k      LDR      r0,[r4,#0x34]
        0x0001c256:    6aa3        .j      LDR      r3,[r4,#0x28]
        0x0001c258:    e9d41201    ....    LDRD     r1,r2,[r4,#4]
        0x0001c25c:    6a27        'j      LDR      r7,[r4,#0x20]
        0x0001c25e:    1a18        ..      SUBS     r0,r3,r0
        0x0001c260:    62a0        .b      STR      r0,[r4,#0x28]
        0x0001c262:    f0220003    "...    BIC      r0,r2,#3
        0x0001c266:    2200        ."      MOVS     r2,#0
        0x0001c268:    4438        8D      ADD      r0,r0,r7
        0x0001c26a:    f2c40207    ....    MOVT     r2,#0x4007
        0x0001c26e:    2700        .'      MOVS     r7,#0
        0x0001c270:    6220         b      STR      r0,[r4,#0x20]
        0x0001c272:    5088        .P      STR      r0,[r1,r2]
        0x0001c274:    2005        .       MOVS     r0,#5
        0x0001c276:    3d01        .=      SUBS     r5,#1
        0x0001c278:    f000fc1a    ....    BL       am_util_delay_us ; 0x1cab0
        0x0001c27c:    f1b90f00    ....    CMP      r9,#0
        0x0001c280:    d120         .      BNE      0x1c2c4 ; am_hal_sdhc_xfer_data + 256
        0x0001c282:    2d00        .-      CMP      r5,#0
        0x0001c284:    d1c6        ..      BNE      0x1c214 ; am_hal_sdhc_xfer_data + 80
        0x0001c286:    e01d        ..      B        0x1c2c4 ; am_hal_sdhc_xfer_data + 256
        0x0001c288:    f0107f1c    ....    TST      r0,#0x2700000
        0x0001c28c:    d0f2        ..      BEQ      0x1c274 ; am_hal_sdhc_xfer_data + 176
        0x0001c28e:    0181        ..      LSLS     r1,r0,#6
        0x0001c290:    f04f0501    O...    MOV      r5,#1
        0x0001c294:    f04f0101    O...    MOV      r1,#1
        0x0001c298:    6330        0c      STR      r0,[r6,#0x30]
        0x0001c29a:    d40c        ..      BMI      0x1c2b6 ; am_hal_sdhc_xfer_data + 242
        0x0001c29c:    0281        ..      LSLS     r1,r0,#10
        0x0001c29e:    d407        ..      BMI      0x1c2b0 ; am_hal_sdhc_xfer_data + 236
        0x0001c2a0:    02c1        ..      LSLS     r1,r0,#11
        0x0001c2a2:    d407        ..      BMI      0x1c2b4 ; am_hal_sdhc_xfer_data + 240
        0x0001c2a4:    2104        .!      MOVS     r1,#4
        0x0001c2a6:    0240        @.      LSLS     r0,r0,#9
        0x0001c2a8:    bf58        X.      IT       PL
        0x0001c2aa:    2105        .!      MOVPL    r1,#5
        0x0001c2ac:    e003        ..      B        0x1c2b6 ; am_hal_sdhc_xfer_data + 242
        0x0001c2ae:    bf00        ..      NOP      
        0x0001c2b0:    2102        .!      MOVS     r1,#2
        0x0001c2b2:    e000        ..      B        0x1c2b6 ; am_hal_sdhc_xfer_data + 242
        0x0001c2b4:    2103        .!      MOVS     r1,#3
        0x0001c2b6:    9800        ..      LDR      r0,[sp,#0]
        0x0001c2b8:    7565        eu      STRB     r5,[r4,#0x15]
        0x0001c2ba:    7601        .v      STRB     r1,[r0,#0x18]
        0x0001c2bc:    69a0        .i      LDR      r0,[r4,#0x18]
        0x0001c2be:    3001        .0      ADDS     r0,#1
        0x0001c2c0:    61a0        .a      STR      r0,[r4,#0x18]
        0x0001c2c2:    e7d7        ..      B        0x1c274 ; am_hal_sdhc_xfer_data + 176
        0x0001c2c4:    fab5f085    ....    CLZ      r0,r5
        0x0001c2c8:    0941        A.      LSRS     r1,r0,#5
        0x0001c2ca:    e002        ..      B        0x1c2d2 ; am_hal_sdhc_xfer_data + 270
        0x0001c2cc:    2101        .!      MOVS     r1,#1
        0x0001c2ce:    f04f0b00    O...    MOV      r11,#0
        0x0001c2d2:    6af0        .j      LDR      r0,[r6,#0x2c]
        0x0001c2d4:    f0200004     ...    BIC      r0,r0,#4
        0x0001c2d8:    62f0        .b      STR      r0,[r6,#0x2c]
        0x0001c2da:    e9d4020a    ....    LDRD     r0,r2,[r4,#0x28]
        0x0001c2de:    1a12        ..      SUBS     r2,r2,r0
        0x0001c2e0:    0410        ..      LSLS     r0,r2,#16
        0x0001c2e2:    f3610082    a...    BFI      r0,r1,#2,#1
        0x0001c2e6:    ea5f71cb    _..q    LSLS     r1,r11,#31
        0x0001c2ea:    bf18        ..      IT       NE
        0x0001c2ec:    0410        ..      LSLNE    r0,r2,#16
        0x0001c2ee:    b001        ..      ADD      sp,sp,#4
        0x0001c2f0:    e8bd8ff0    ....    POP      {r4-r11,pc}
    am_hal_sdio_card_read_cis
        0x0001c2f4:    e92d4ff0    -..O    PUSH     {r4-r11,lr}
        0x0001c2f8:    b08b        ..      SUB      sp,sp,#0x2c
        0x0001c2fa:    f8d04278    ..xB    LDR      r4,[r0,#0x278]
        0x0001c2fe:    b1cc        ..      CBZ      r4,0x1c334 ; am_hal_sdio_card_read_cis + 64
        0x0001c300:    ad02        ..      ADD      r5,sp,#8
        0x0001c302:    4680        .F      MOV      r8,r0
        0x0001c304:    4628        (F      MOV      r0,r5
        0x0001c306:    2124        $!      MOVS     r1,#0x24
        0x0001c308:    f7fcf830    ..0.    BL       __aeabi_memclr4 ; 0x1836c
        0x0001c30c:    f44f5090    O..P    MOV      r0,#0x1200
        0x0001c310:    2634        4&      MOVS     r6,#0x34
        0x0001c312:    2715        .'      MOVS     r7,#0x15
        0x0001c314:    9003        ..      STR      r0,[sp,#0xc]
        0x0001c316:    6ea0        .n      LDR      r0,[r4,#0x68]
        0x0001c318:    f88d6008    ...`    STRB     r6,[sp,#8]
        0x0001c31c:    9704        ..      STR      r7,[sp,#0x10]
        0x0001c31e:    68c3        .h      LDR      r3,[r0,#0xc]
        0x0001c320:    6820         h      LDR      r0,[r4,#0]
        0x0001c322:    4629        )F      MOV      r1,r5
        0x0001c324:    2200        ."      MOVS     r2,#0
        0x0001c326:    4798        .G      BLX      r3
        0x0001c328:    f89d0028    ..(.    LDRB     r0,[sp,#0x28]
        0x0001c32c:    b130        0.      CBZ      r0,0x1c33c ; am_hal_sdio_card_read_cis + 72
        0x0001c32e:    b00b        ..      ADD      sp,sp,#0x2c
        0x0001c330:    e8bd8ff0    ....    POP      {r4-r11,pc}
        0x0001c334:    2006        .       MOVS     r0,#6
        0x0001c336:    b00b        ..      ADD      sp,sp,#0x2c
        0x0001c338:    e8bd8ff0    ....    POP      {r4-r11,pc}
        0x0001c33c:    ad02        ..      ADD      r5,sp,#8
        0x0001c33e:    f89da018    ....    LDRB     r10,[sp,#0x18]
        0x0001c342:    f8d84278    ..xB    LDR      r4,[r8,#0x278]
        0x0001c346:    4628        (F      MOV      r0,r5
        0x0001c348:    2124        $!      MOVS     r1,#0x24
        0x0001c34a:    f7fcf80f    ....    BL       __aeabi_memclr4 ; 0x1836c
        0x0001c34e:    f44f50a0    O..P    MOV      r0,#0x1400
        0x0001c352:    6ea1        .n      LDR      r1,[r4,#0x68]
        0x0001c354:    f88d6008    ...`    STRB     r6,[sp,#8]
        0x0001c358:    9704        ..      STR      r7,[sp,#0x10]
        0x0001c35a:    9003        ..      STR      r0,[sp,#0xc]
        0x0001c35c:    68cb        .h      LDR      r3,[r1,#0xc]
        0x0001c35e:    6820         h      LDR      r0,[r4,#0]
        0x0001c360:    4629        )F      MOV      r1,r5
        0x0001c362:    2200        ."      MOVS     r2,#0
        0x0001c364:    4798        .G      BLX      r3
        0x0001c366:    f89d0028    ..(.    LDRB     r0,[sp,#0x28]
        0x0001c36a:    2800        .(      CMP      r0,#0
        0x0001c36c:    d1df        ..      BNE      0x1c32e ; am_hal_sdio_card_read_cis + 58
        0x0001c36e:    ae02        ..      ADD      r6,sp,#8
        0x0001c370:    9f06        ..      LDR      r7,[sp,#0x18]
        0x0001c372:    f8d84278    ..xB    LDR      r4,[r8,#0x278]
        0x0001c376:    4630        0F      MOV      r0,r6
        0x0001c378:    2124        $!      MOVS     r1,#0x24
        0x0001c37a:    f7fbfff7    ....    BL       __aeabi_memclr4 ; 0x1836c
        0x0001c37e:    f44f50b0    O..P    MOV      r0,#0x1600
        0x0001c382:    f04f0934    O.4.    MOV      r9,#0x34
        0x0001c386:    2515        .%      MOVS     r5,#0x15
        0x0001c388:    9003        ..      STR      r0,[sp,#0xc]
        0x0001c38a:    6ea0        .n      LDR      r0,[r4,#0x68]
        0x0001c38c:    f88d9008    ....    STRB     r9,[sp,#8]
        0x0001c390:    9504        ..      STR      r5,[sp,#0x10]
        0x0001c392:    68c3        .h      LDR      r3,[r0,#0xc]
        0x0001c394:    6820         h      LDR      r0,[r4,#0]
        0x0001c396:    4631        1F      MOV      r1,r6
        0x0001c398:    2200        ."      MOVS     r2,#0
        0x0001c39a:    4798        .G      BLX      r3
        0x0001c39c:    f89d0028    ..(.    LDRB     r0,[sp,#0x28]
        0x0001c3a0:    2800        .(      CMP      r0,#0
        0x0001c3a2:    d1c4        ..      BNE      0x1c32e ; am_hal_sdio_card_read_cis + 58
        0x0001c3a4:    9806        ..      LDR      r0,[sp,#0x18]
        0x0001c3a6:    f3672a0f    g..*    BFI      r10,r7,#8,#8
        0x0001c3aa:    f3604a17    `..J    BFI      r10,r0,#16,#8
        0x0001c3ae:    f44f7700    O..w    MOV      r7,#0x200
        0x0001c3b2:    ae02        ..      ADD      r6,sp,#8
        0x0001c3b4:    e00a        ..      B        0x1c3cc ; am_hal_sdio_card_read_cis + 216
        0x0001c3b6:    bf00        ..      NOP      
        0x0001c3b8:    9901        ..      LDR      r1,[sp,#4]
        0x0001c3ba:    eb01000a    ....    ADD      r0,r1,r10
        0x0001c3be:    3f01        .?      SUBS     r7,#1
        0x0001c3c0:    f1000a01    ....    ADD      r10,r0,#1
        0x0001c3c4:    f04f0515    O...    MOV      r5,#0x15
        0x0001c3c8:    f000812a    ..*.    BEQ.W    0x1c620 ; am_hal_sdio_card_read_cis + 812
        0x0001c3cc:    f8d84278    ..xB    LDR      r4,[r8,#0x278]
        0x0001c3d0:    4630        0F      MOV      r0,r6
        0x0001c3d2:    2124        $!      MOVS     r1,#0x24
        0x0001c3d4:    f7fbffca    ....    BL       __aeabi_memclr4 ; 0x1836c
        0x0001c3d8:    ea4f204a    O.J     LSL      r0,r10,#9
        0x0001c3dc:    6ea1        .n      LDR      r1,[r4,#0x68]
        0x0001c3de:    f88d9008    ....    STRB     r9,[sp,#8]
        0x0001c3e2:    9504        ..      STR      r5,[sp,#0x10]
        0x0001c3e4:    9003        ..      STR      r0,[sp,#0xc]
        0x0001c3e6:    68cb        .h      LDR      r3,[r1,#0xc]
        0x0001c3e8:    6820         h      LDR      r0,[r4,#0]
        0x0001c3ea:    4631        1F      MOV      r1,r6
        0x0001c3ec:    2200        ."      MOVS     r2,#0
        0x0001c3ee:    4798        .G      BLX      r3
        0x0001c3f0:    f89d0028    ..(.    LDRB     r0,[sp,#0x28]
        0x0001c3f4:    2800        .(      CMP      r0,#0
        0x0001c3f6:    d19a        ..      BNE      0x1c32e ; am_hal_sdio_card_read_cis + 58
        0x0001c3f8:    9d06        ..      LDR      r5,[sp,#0x18]
        0x0001c3fa:    1c68        h.      ADDS     r0,r5,#1
        0x0001c3fc:    b2c0        ..      UXTB     r0,r0
        0x0001c3fe:    2802        .(      CMP      r0,#2
        0x0001c400:    f0c0810f    ....    BCC.W    0x1c622 ; am_hal_sdio_card_read_cis + 814
        0x0001c404:    f8d84278    ..xB    LDR      r4,[r8,#0x278]
        0x0001c408:    4630        0F      MOV      r0,r6
        0x0001c40a:    2124        $!      MOVS     r1,#0x24
        0x0001c40c:    f04f0934    O.4.    MOV      r9,#0x34
        0x0001c410:    46d3        .F      MOV      r11,r10
        0x0001c412:    f10a0a01    ....    ADD      r10,r10,#1
        0x0001c416:    f7fbffa9    ....    BL       __aeabi_memclr4 ; 0x1836c
        0x0001c41a:    2015        .       MOVS     r0,#0x15
        0x0001c41c:    9004        ..      STR      r0,[sp,#0x10]
        0x0001c41e:    ea4f204a    O.J     LSL      r0,r10,#9
        0x0001c422:    6ea1        .n      LDR      r1,[r4,#0x68]
        0x0001c424:    f88d9008    ....    STRB     r9,[sp,#8]
        0x0001c428:    9003        ..      STR      r0,[sp,#0xc]
        0x0001c42a:    68cb        .h      LDR      r3,[r1,#0xc]
        0x0001c42c:    6820         h      LDR      r0,[r4,#0]
        0x0001c42e:    4631        1F      MOV      r1,r6
        0x0001c430:    2200        ."      MOVS     r2,#0
        0x0001c432:    4798        .G      BLX      r3
        0x0001c434:    f89d0028    ..(.    LDRB     r0,[sp,#0x28]
        0x0001c438:    2800        .(      CMP      r0,#0
        0x0001c43a:    f47faf78    ..x.    BNE      0x1c32e ; am_hal_sdio_card_read_cis + 58
        0x0001c43e:    f89d1018    ....    LDRB     r1,[sp,#0x18]
        0x0001c442:    b2e8        ..      UXTB     r0,r5
        0x0001c444:    2822        "(      CMP      r0,#0x22
        0x0001c446:    f0008085    ....    BEQ.W    0x1c554 ; am_hal_sdio_card_read_cis + 608
        0x0001c44a:    2820         (      CMP      r0,#0x20
        0x0001c44c:    f04f0934    O.4.    MOV      r9,#0x34
        0x0001c450:    d1b3        ..      BNE      0x1c3ba ; am_hal_sdio_card_read_cis + 198
        0x0001c452:    9101        ..      STR      r1,[sp,#4]
        0x0001c454:    f8d84278    ..xB    LDR      r4,[r8,#0x278]
        0x0001c458:    4630        0F      MOV      r0,r6
        0x0001c45a:    2124        $!      MOVS     r1,#0x24
        0x0001c45c:    f7fbff86    ....    BL       __aeabi_memclr4 ; 0x1836c
        0x0001c460:    f44f6080    O..`    MOV      r0,#0x400
        0x0001c464:    f04f0a15    O...    MOV      r10,#0x15
        0x0001c468:    eb00204b    ..K     ADD      r0,r0,r11,LSL #9
        0x0001c46c:    6ea1        .n      LDR      r1,[r4,#0x68]
        0x0001c46e:    f88d9008    ....    STRB     r9,[sp,#8]
        0x0001c472:    f8cda010    ....    STR      r10,[sp,#0x10]
        0x0001c476:    9003        ..      STR      r0,[sp,#0xc]
        0x0001c478:    68cb        .h      LDR      r3,[r1,#0xc]
        0x0001c47a:    6820         h      LDR      r0,[r4,#0]
        0x0001c47c:    4631        1F      MOV      r1,r6
        0x0001c47e:    2200        ."      MOVS     r2,#0
        0x0001c480:    465d        ]F      MOV      r5,r11
        0x0001c482:    4798        .G      BLX      r3
        0x0001c484:    f89d0028    ..(.    LDRB     r0,[sp,#0x28]
        0x0001c488:    2800        .(      CMP      r0,#0
        0x0001c48a:    f47faf50    ..P.    BNE      0x1c32e ; am_hal_sdio_card_read_cis + 58
        0x0001c48e:    f89db018    ....    LDRB     r11,[sp,#0x18]
        0x0001c492:    f8d84278    ..xB    LDR      r4,[r8,#0x278]
        0x0001c496:    4630        0F      MOV      r0,r6
        0x0001c498:    2124        $!      MOVS     r1,#0x24
        0x0001c49a:    f7fbff67    ..g.    BL       __aeabi_memclr4 ; 0x1836c
        0x0001c49e:    f44f60c0    O..`    MOV      r0,#0x600
        0x0001c4a2:    eb002045    ..E     ADD      r0,r0,r5,LSL #9
        0x0001c4a6:    6ea1        .n      LDR      r1,[r4,#0x68]
        0x0001c4a8:    f88d9008    ....    STRB     r9,[sp,#8]
        0x0001c4ac:    f8cda010    ....    STR      r10,[sp,#0x10]
        0x0001c4b0:    9003        ..      STR      r0,[sp,#0xc]
        0x0001c4b2:    68cb        .h      LDR      r3,[r1,#0xc]
        0x0001c4b4:    6820         h      LDR      r0,[r4,#0]
        0x0001c4b6:    4631        1F      MOV      r1,r6
        0x0001c4b8:    2200        ."      MOVS     r2,#0
        0x0001c4ba:    4798        .G      BLX      r3
        0x0001c4bc:    f89d0028    ..(.    LDRB     r0,[sp,#0x28]
        0x0001c4c0:    2800        .(      CMP      r0,#0
        0x0001c4c2:    f47faf34    ..4.    BNE      0x1c32e ; am_hal_sdio_card_read_cis + 58
        0x0001c4c6:    9700        ..      STR      r7,[sp,#0]
        0x0001c4c8:    9c06        ..      LDR      r4,[sp,#0x18]
        0x0001c4ca:    f8d87278    ..xr    LDR      r7,[r8,#0x278]
        0x0001c4ce:    4630        0F      MOV      r0,r6
        0x0001c4d0:    2124        $!      MOVS     r1,#0x24
        0x0001c4d2:    f7fbff4b    ..K.    BL       __aeabi_memclr4 ; 0x1836c
        0x0001c4d6:    f44f6000    O..`    MOV      r0,#0x800
        0x0001c4da:    eb002045    ..E     ADD      r0,r0,r5,LSL #9
        0x0001c4de:    6eb9        .n      LDR      r1,[r7,#0x68]
        0x0001c4e0:    f88d9008    ....    STRB     r9,[sp,#8]
        0x0001c4e4:    f8cda010    ....    STR      r10,[sp,#0x10]
        0x0001c4e8:    9003        ..      STR      r0,[sp,#0xc]
        0x0001c4ea:    68cb        .h      LDR      r3,[r1,#0xc]
        0x0001c4ec:    6838        8h      LDR      r0,[r7,#0]
        0x0001c4ee:    4631        1F      MOV      r1,r6
        0x0001c4f0:    2200        ."      MOVS     r2,#0
        0x0001c4f2:    4798        .G      BLX      r3
        0x0001c4f4:    f89d0028    ..(.    LDRB     r0,[sp,#0x28]
        0x0001c4f8:    2800        .(      CMP      r0,#0
        0x0001c4fa:    f47faf18    ....    BNE      0x1c32e ; am_hal_sdio_card_read_cis + 58
        0x0001c4fe:    46a1        .F      MOV      r9,r4
        0x0001c500:    465c        \F      MOV      r4,r11
        0x0001c502:    f89db018    ....    LDRB     r11,[sp,#0x18]
        0x0001c506:    f8d87278    ..xr    LDR      r7,[r8,#0x278]
        0x0001c50a:    4630        0F      MOV      r0,r6
        0x0001c50c:    2124        $!      MOVS     r1,#0x24
        0x0001c50e:    f1050a05    ....    ADD      r10,r5,#5
        0x0001c512:    f7fbff2b    ..+.    BL       __aeabi_memclr4 ; 0x1836c
        0x0001c516:    2034        4       MOVS     r0,#0x34
        0x0001c518:    f88d0008    ....    STRB     r0,[sp,#8]
        0x0001c51c:    2015        .       MOVS     r0,#0x15
        0x0001c51e:    9004        ..      STR      r0,[sp,#0x10]
        0x0001c520:    ea4f204a    O.J     LSL      r0,r10,#9
        0x0001c524:    6eb9        .n      LDR      r1,[r7,#0x68]
        0x0001c526:    9003        ..      STR      r0,[sp,#0xc]
        0x0001c528:    68cb        .h      LDR      r3,[r1,#0xc]
        0x0001c52a:    6838        8h      LDR      r0,[r7,#0]
        0x0001c52c:    4631        1F      MOV      r1,r6
        0x0001c52e:    2200        ."      MOVS     r2,#0
        0x0001c530:    4798        .G      BLX      r3
        0x0001c532:    f89d0028    ..(.    LDRB     r0,[sp,#0x28]
        0x0001c536:    2800        .(      CMP      r0,#0
        0x0001c538:    f47faef9    ....    BNE      0x1c32e ; am_hal_sdio_card_read_cis + 58
        0x0001c53c:    9806        ..      LDR      r0,[sp,#0x18]
        0x0001c53e:    f369240f    i..$    BFI      r4,r9,#8,#8
        0x0001c542:    f3602b0f    `..+    BFI      r11,r0,#8,#8
        0x0001c546:    9f00        ..      LDR      r7,[sp,#0]
        0x0001c548:    e9c84ba0    ...K    STRD     r4,r11,[r8,#0x280]
        0x0001c54c:    f04f0934    O.4.    MOV      r9,#0x34
        0x0001c550:    ae02        ..      ADD      r6,sp,#8
        0x0001c552:    e731        1.      B        0x1c3b8 ; am_hal_sdio_card_read_cis + 196
        0x0001c554:    9101        ..      STR      r1,[sp,#4]
        0x0001c556:    f8d84278    ..xB    LDR      r4,[r8,#0x278]
        0x0001c55a:    4630        0F      MOV      r0,r6
        0x0001c55c:    2124        $!      MOVS     r1,#0x24
        0x0001c55e:    f7fbff05    ....    BL       __aeabi_memclr4 ; 0x1836c
        0x0001c562:    f44f60c0    O..`    MOV      r0,#0x600
        0x0001c566:    f04f0934    O.4.    MOV      r9,#0x34
        0x0001c56a:    f04f0a15    O...    MOV      r10,#0x15
        0x0001c56e:    eb00204b    ..K     ADD      r0,r0,r11,LSL #9
        0x0001c572:    6ea1        .n      LDR      r1,[r4,#0x68]
        0x0001c574:    f88d9008    ....    STRB     r9,[sp,#8]
        0x0001c578:    f8cda010    ....    STR      r10,[sp,#0x10]
        0x0001c57c:    9003        ..      STR      r0,[sp,#0xc]
        0x0001c57e:    68cb        .h      LDR      r3,[r1,#0xc]
        0x0001c580:    6820         h      LDR      r0,[r4,#0]
        0x0001c582:    4631        1F      MOV      r1,r6
        0x0001c584:    2200        ."      MOVS     r2,#0
        0x0001c586:    4798        .G      BLX      r3
        0x0001c588:    f89d0028    ..(.    LDRB     r0,[sp,#0x28]
        0x0001c58c:    2800        .(      CMP      r0,#0
        0x0001c58e:    f47faece    ....    BNE      0x1c32e ; am_hal_sdio_card_read_cis + 58
        0x0001c592:    f89d5018    ...P    LDRB     r5,[sp,#0x18]
        0x0001c596:    f8d84278    ..xB    LDR      r4,[r8,#0x278]
        0x0001c59a:    4630        0F      MOV      r0,r6
        0x0001c59c:    2124        $!      MOVS     r1,#0x24
        0x0001c59e:    f7fbfee5    ....    BL       __aeabi_memclr4 ; 0x1836c
        0x0001c5a2:    f44f6000    O..`    MOV      r0,#0x800
        0x0001c5a6:    eb00204b    ..K     ADD      r0,r0,r11,LSL #9
        0x0001c5aa:    6ea1        .n      LDR      r1,[r4,#0x68]
        0x0001c5ac:    f88d9008    ....    STRB     r9,[sp,#8]
        0x0001c5b0:    f8cda010    ....    STR      r10,[sp,#0x10]
        0x0001c5b4:    9003        ..      STR      r0,[sp,#0xc]
        0x0001c5b6:    68cb        .h      LDR      r3,[r1,#0xc]
        0x0001c5b8:    6820         h      LDR      r0,[r4,#0]
        0x0001c5ba:    4631        1F      MOV      r1,r6
        0x0001c5bc:    2200        ."      MOVS     r2,#0
        0x0001c5be:    4798        .G      BLX      r3
        0x0001c5c0:    f89d0028    ..(.    LDRB     r0,[sp,#0x28]
        0x0001c5c4:    2800        .(      CMP      r0,#0
        0x0001c5c6:    f47faeb2    ....    BNE      0x1c32e ; am_hal_sdio_card_read_cis + 58
        0x0001c5ca:    4659        YF      MOV      r1,r11
        0x0001c5cc:    46bb        .F      MOV      r11,r7
        0x0001c5ce:    9f06        ..      LDR      r7,[sp,#0x18]
        0x0001c5d0:    f8d84278    ..xB    LDR      r4,[r8,#0x278]
        0x0001c5d4:    f1010a05    ....    ADD      r10,r1,#5
        0x0001c5d8:    4630        0F      MOV      r0,r6
        0x0001c5da:    2124        $!      MOVS     r1,#0x24
        0x0001c5dc:    f04f0934    O.4.    MOV      r9,#0x34
        0x0001c5e0:    f7fbfec4    ....    BL       __aeabi_memclr4 ; 0x1836c
        0x0001c5e4:    2015        .       MOVS     r0,#0x15
        0x0001c5e6:    9004        ..      STR      r0,[sp,#0x10]
        0x0001c5e8:    ea4f204a    O.J     LSL      r0,r10,#9
        0x0001c5ec:    6ea1        .n      LDR      r1,[r4,#0x68]
        0x0001c5ee:    f88d9008    ....    STRB     r9,[sp,#8]
        0x0001c5f2:    9003        ..      STR      r0,[sp,#0xc]
        0x0001c5f4:    68cb        .h      LDR      r3,[r1,#0xc]
        0x0001c5f6:    6820         h      LDR      r0,[r4,#0]
        0x0001c5f8:    4631        1F      MOV      r1,r6
        0x0001c5fa:    2200        ."      MOVS     r2,#0
        0x0001c5fc:    4798        .G      BLX      r3
        0x0001c5fe:    f89d0028    ..(.    LDRB     r0,[sp,#0x28]
        0x0001c602:    2800        .(      CMP      r0,#0
        0x0001c604:    f47fae93    ....    BNE      0x1c32e ; am_hal_sdio_card_read_cis + 58
        0x0001c608:    f89d0018    ....    LDRB     r0,[sp,#0x18]
        0x0001c60c:    f367250f    g..%    BFI      r5,r7,#8,#8
        0x0001c610:    465f        _F      MOV      r7,r11
        0x0001c612:    ae02        ..      ADD      r6,sp,#8
        0x0001c614:    f04f0934    O.4.    MOV      r9,#0x34
        0x0001c618:    e9c850a2    ...P    STRD     r5,r0,[r8,#0x288]
        0x0001c61c:    e6cc        ..      B        0x1c3b8 ; am_hal_sdio_card_read_cis + 196
        0x0001c61e:    bf00        ..      NOP      
        0x0001c620:    2700        .'      MOVS     r7,#0
        0x0001c622:    fab7f087    ....    CLZ      r0,r7
        0x0001c626:    0940        @.      LSRS     r0,r0,#5
        0x0001c628:    b00b        ..      ADD      sp,sp,#0x2c
        0x0001c62a:    e8bd8ff0    ....    POP      {r4-r11,pc}
        0x0001c62e:    0000        ..      MOVS     r0,r0
    am_hal_sdio_card_set_bus_width
        0x0001c630:    b570        p.      PUSH     {r4-r6,lr}
        0x0001c632:    b08a        ..      SUB      sp,sp,#0x28
        0x0001c634:    b1b0        ..      CBZ      r0,0x1c664 ; am_hal_sdio_card_set_bus_width + 52
        0x0001c636:    460c        .F      MOV      r4,r1
        0x0001c638:    2908        .)      CMP      r1,#8
        0x0001c63a:    d017        ..      BEQ      0x1c66c ; am_hal_sdio_card_set_bus_width + 60
        0x0001c63c:    4605        .F      MOV      r5,r0
        0x0001c63e:    2c04        .,      CMP      r4,#4
        0x0001c640:    d018        ..      BEQ      0x1c674 ; am_hal_sdio_card_set_bus_width + 68
        0x0001c642:    2c01        .,      CMP      r4,#1
        0x0001c644:    d132        2.      BNE      0x1c6ac ; am_hal_sdio_card_set_bus_width + 124
        0x0001c646:    ae01        ..      ADD      r6,sp,#4
        0x0001c648:    4630        0F      MOV      r0,r6
        0x0001c64a:    2124        $!      MOVS     r1,#0x24
        0x0001c64c:    f7fbfe8e    ....    BL       __aeabi_memclr4 ; 0x1836c
        0x0001c650:    2034        4       MOVS     r0,#0x34
        0x0001c652:    f88d0004    ....    STRB     r0,[sp,#4]
        0x0001c656:    2015        .       MOVS     r0,#0x15
        0x0001c658:    f6406100    @..a    MOVW     r1,#0xe00
        0x0001c65c:    9003        ..      STR      r0,[sp,#0xc]
        0x0001c65e:    f2c80100    ....    MOVT     r1,#0x8000
        0x0001c662:    e016        ..      B        0x1c692 ; am_hal_sdio_card_set_bus_width + 98
        0x0001c664:    2006        .       MOVS     r0,#6
        0x0001c666:    b00a        ..      ADD      sp,sp,#0x28
        0x0001c668:    bd70        p.      POP      {r4-r6,pc}
        0x0001c66a:    bf00        ..      NOP      
        0x0001c66c:    2007        .       MOVS     r0,#7
        0x0001c66e:    b00a        ..      ADD      sp,sp,#0x28
        0x0001c670:    bd70        p.      POP      {r4-r6,pc}
        0x0001c672:    bf00        ..      NOP      
        0x0001c674:    ae01        ..      ADD      r6,sp,#4
        0x0001c676:    4630        0F      MOV      r0,r6
        0x0001c678:    2124        $!      MOVS     r1,#0x24
        0x0001c67a:    f7fbfe77    ..w.    BL       __aeabi_memclr4 ; 0x1836c
        0x0001c67e:    2034        4       MOVS     r0,#0x34
        0x0001c680:    f88d0004    ....    STRB     r0,[sp,#4]
        0x0001c684:    2015        .       MOVS     r0,#0x15
        0x0001c686:    9003        ..      STR      r0,[sp,#0xc]
        0x0001c688:    f6406000    @..`    MOVW     r0,#0xe00
        0x0001c68c:    f2c80000    ....    MOVT     r0,#0x8000
        0x0001c690:    1c81        ..      ADDS     r1,r0,#2
        0x0001c692:    6eaa        .n      LDR      r2,[r5,#0x68]
        0x0001c694:    6828        (h      LDR      r0,[r5,#0]
        0x0001c696:    68d3        .h      LDR      r3,[r2,#0xc]
        0x0001c698:    9102        ..      STR      r1,[sp,#8]
        0x0001c69a:    4631        1F      MOV      r1,r6
        0x0001c69c:    2200        ."      MOVS     r2,#0
        0x0001c69e:    4798        .G      BLX      r3
        0x0001c6a0:    f89d0024    ..$.    LDRB     r0,[sp,#0x24]
        0x0001c6a4:    b110        ..      CBZ      r0,0x1c6ac ; am_hal_sdio_card_set_bus_width + 124
        0x0001c6a6:    b00a        ..      ADD      sp,sp,#0x28
        0x0001c6a8:    bd70        p.      POP      {r4-r6,pc}
        0x0001c6aa:    bf00        ..      NOP      
        0x0001c6ac:    6ea9        .n      LDR      r1,[r5,#0x68]
        0x0001c6ae:    6828        (h      LDR      r0,[r5,#0]
        0x0001c6b0:    694a        Ji      LDR      r2,[r1,#0x14]
        0x0001c6b2:    4621        !F      MOV      r1,r4
        0x0001c6b4:    4790        .G      BLX      r2
        0x0001c6b6:    2800        .(      CMP      r0,#0
        0x0001c6b8:    bf18        ..      IT       NE
        0x0001c6ba:    2001        .       MOVNE    r0,#1
        0x0001c6bc:    b00a        ..      ADD      sp,sp,#0x28
        0x0001c6be:    bd70        p.      POP      {r4-r6,pc}
    am_hal_sdio_card_set_speed
        0x0001c6c0:    e92d47f0    -..G    PUSH     {r4-r10,lr}
        0x0001c6c4:    b08a        ..      SUB      sp,sp,#0x28
        0x0001c6c6:    f8d07278    ..xr    LDR      r7,[r0,#0x278]
        0x0001c6ca:    b15f        _.      CBZ      r7,0x1c6e4 ; am_hal_sdio_card_set_speed + 36
        0x0001c6cc:    4605        .F      MOV      r5,r0
        0x0001c6ce:    f64d0000    M...    MOVW     r0,#0xd800
        0x0001c6d2:    f2c050b8    ...P    MOVT     r0,#0x5b8
        0x0001c6d6:    460c        .F      MOV      r4,r1
        0x0001c6d8:    4281        .B      CMP      r1,r0
        0x0001c6da:    d907        ..      BLS      0x1c6ec ; am_hal_sdio_card_set_speed + 44
        0x0001c6dc:    2005        .       MOVS     r0,#5
        0x0001c6de:    b00a        ..      ADD      sp,sp,#0x28
        0x0001c6e0:    e8bd87f0    ....    POP      {r4-r10,pc}
        0x0001c6e4:    2006        .       MOVS     r0,#6
        0x0001c6e6:    b00a        ..      ADD      sp,sp,#0x28
        0x0001c6e8:    e8bd87f0    ....    POP      {r4-r10,pc}
        0x0001c6ec:    f6470041    G.A.    MOV      r0,#0x7841
        0x0001c6f0:    f2c0107d    ..}.    MOVT     r0,#0x17d
        0x0001c6f4:    ae01        ..      ADD      r6,sp,#4
        0x0001c6f6:    4284        .B      CMP      r4,r0
        0x0001c6f8:    d318        ..      BCC      0x1c72c ; am_hal_sdio_card_set_speed + 108
        0x0001c6fa:    4630        0F      MOV      r0,r6
        0x0001c6fc:    2124        $!      MOVS     r1,#0x24
        0x0001c6fe:    f7fbfe35    ..5.    BL       __aeabi_memclr4 ; 0x1836c
        0x0001c702:    2034        4       MOVS     r0,#0x34
        0x0001c704:    f88d0004    ....    STRB     r0,[sp,#4]
        0x0001c708:    2015        .       MOVS     r0,#0x15
        0x0001c70a:    9003        ..      STR      r0,[sp,#0xc]
        0x0001c70c:    f44f5018    O..P    MOV      r0,#0x2600
        0x0001c710:    6eb9        .n      LDR      r1,[r7,#0x68]
        0x0001c712:    9002        ..      STR      r0,[sp,#8]
        0x0001c714:    68cb        .h      LDR      r3,[r1,#0xc]
        0x0001c716:    6838        8h      LDR      r0,[r7,#0]
        0x0001c718:    4631        1F      MOV      r1,r6
        0x0001c71a:    2200        ."      MOVS     r2,#0
        0x0001c71c:    4798        .G      BLX      r3
        0x0001c71e:    f89d0024    ..$.    LDRB     r0,[sp,#0x24]
        0x0001c722:    2800        .(      CMP      r0,#0
        0x0001c724:    d03c        <.      BEQ      0x1c7a0 ; am_hal_sdio_card_set_speed + 224
        0x0001c726:    b00a        ..      ADD      sp,sp,#0x28
        0x0001c728:    e8bd87f0    ....    POP      {r4-r10,pc}
        0x0001c72c:    4630        0F      MOV      r0,r6
        0x0001c72e:    2124        $!      MOVS     r1,#0x24
        0x0001c730:    f7fbfe1c    ....    BL       __aeabi_memclr4 ; 0x1836c
        0x0001c734:    f2426000    B..`    MOVW     r0,#0x2600
        0x0001c738:    f04f0834    O.4.    MOV      r8,#0x34
        0x0001c73c:    f04f0915    O...    MOV      r9,#0x15
        0x0001c740:    f2c80000    ....    MOVT     r0,#0x8000
        0x0001c744:    6eb9        .n      LDR      r1,[r7,#0x68]
        0x0001c746:    f88d8004    ....    STRB     r8,[sp,#4]
        0x0001c74a:    f8cd900c    ....    STR      r9,[sp,#0xc]
        0x0001c74e:    9002        ..      STR      r0,[sp,#8]
        0x0001c750:    68cb        .h      LDR      r3,[r1,#0xc]
        0x0001c752:    6838        8h      LDR      r0,[r7,#0]
        0x0001c754:    4631        1F      MOV      r1,r6
        0x0001c756:    2200        ."      MOVS     r2,#0
        0x0001c758:    4798        .G      BLX      r3
        0x0001c75a:    f89d0024    ..$.    LDRB     r0,[sp,#0x24]
        0x0001c75e:    2800        .(      CMP      r0,#0
        0x0001c760:    d1e1        ..      BNE      0x1c726 ; am_hal_sdio_card_set_speed + 102
        0x0001c762:    f8d56278    ..xb    LDR      r6,[r5,#0x278]
        0x0001c766:    ad01        ..      ADD      r5,sp,#4
        0x0001c768:    4628        (F      MOV      r0,r5
        0x0001c76a:    2124        $!      MOVS     r1,#0x24
        0x0001c76c:    f7fbfdfe    ....    BL       __aeabi_memclr4 ; 0x1836c
        0x0001c770:    f44f5018    O..P    MOV      r0,#0x2600
        0x0001c774:    6eb1        .n      LDR      r1,[r6,#0x68]
        0x0001c776:    f88d8004    ....    STRB     r8,[sp,#4]
        0x0001c77a:    f8cd900c    ....    STR      r9,[sp,#0xc]
        0x0001c77e:    9002        ..      STR      r0,[sp,#8]
        0x0001c780:    68cb        .h      LDR      r3,[r1,#0xc]
        0x0001c782:    6830        0h      LDR      r0,[r6,#0]
        0x0001c784:    4629        )F      MOV      r1,r5
        0x0001c786:    2200        ."      MOVS     r2,#0
        0x0001c788:    4798        .G      BLX      r3
        0x0001c78a:    f89d0024    ..$.    LDRB     r0,[sp,#0x24]
        0x0001c78e:    2800        .(      CMP      r0,#0
        0x0001c790:    d1c9        ..      BNE      0x1c726 ; am_hal_sdio_card_set_speed + 102
        0x0001c792:    9805        ..      LDR      r0,[sp,#0x14]
        0x0001c794:    0780        ..      LSLS     r0,r0,#30
        0x0001c796:    d547        G.      BPL      0x1c828 ; am_hal_sdio_card_set_speed + 360
        0x0001c798:    2001        .       MOVS     r0,#1
        0x0001c79a:    b00a        ..      ADD      sp,sp,#0x28
        0x0001c79c:    e8bd87f0    ....    POP      {r4-r10,pc}
        0x0001c7a0:    9805        ..      LDR      r0,[sp,#0x14]
        0x0001c7a2:    07c0        ..      LSLS     r0,r0,#31
        0x0001c7a4:    d104        ..      BNE      0x1c7b0 ; am_hal_sdio_card_set_speed + 240
        0x0001c7a6:    2007        .       MOVS     r0,#7
        0x0001c7a8:    b00a        ..      ADD      sp,sp,#0x28
        0x0001c7aa:    e8bd87f0    ....    POP      {r4-r10,pc}
        0x0001c7ae:    bf00        ..      NOP      
        0x0001c7b0:    f10d0a04    ....    ADD      r10,sp,#4
        0x0001c7b4:    f8d56278    ..xb    LDR      r6,[r5,#0x278]
        0x0001c7b8:    4650        PF      MOV      r0,r10
        0x0001c7ba:    2124        $!      MOVS     r1,#0x24
        0x0001c7bc:    f7fbfdd6    ....    BL       __aeabi_memclr4 ; 0x1836c
        0x0001c7c0:    f2426000    B..`    MOVW     r0,#0x2600
        0x0001c7c4:    f2c80000    ....    MOVT     r0,#0x8000
        0x0001c7c8:    3001        .0      ADDS     r0,#1
        0x0001c7ca:    f04f0834    O.4.    MOV      r8,#0x34
        0x0001c7ce:    f04f0915    O...    MOV      r9,#0x15
        0x0001c7d2:    9002        ..      STR      r0,[sp,#8]
        0x0001c7d4:    6eb0        .n      LDR      r0,[r6,#0x68]
        0x0001c7d6:    f88d8004    ....    STRB     r8,[sp,#4]
        0x0001c7da:    f8cd900c    ....    STR      r9,[sp,#0xc]
        0x0001c7de:    68c3        .h      LDR      r3,[r0,#0xc]
        0x0001c7e0:    6830        0h      LDR      r0,[r6,#0]
        0x0001c7e2:    4651        QF      MOV      r1,r10
        0x0001c7e4:    2200        ."      MOVS     r2,#0
        0x0001c7e6:    4798        .G      BLX      r3
        0x0001c7e8:    f89d0024    ..$.    LDRB     r0,[sp,#0x24]
        0x0001c7ec:    2800        .(      CMP      r0,#0
        0x0001c7ee:    d19a        ..      BNE      0x1c726 ; am_hal_sdio_card_set_speed + 102
        0x0001c7f0:    f8d56278    ..xb    LDR      r6,[r5,#0x278]
        0x0001c7f4:    ad01        ..      ADD      r5,sp,#4
        0x0001c7f6:    4628        (F      MOV      r0,r5
        0x0001c7f8:    2124        $!      MOVS     r1,#0x24
        0x0001c7fa:    f7fbfdb7    ....    BL       __aeabi_memclr4 ; 0x1836c
        0x0001c7fe:    f44f5018    O..P    MOV      r0,#0x2600
        0x0001c802:    6eb1        .n      LDR      r1,[r6,#0x68]
        0x0001c804:    f88d8004    ....    STRB     r8,[sp,#4]
        0x0001c808:    f8cd900c    ....    STR      r9,[sp,#0xc]
        0x0001c80c:    9002        ..      STR      r0,[sp,#8]
        0x0001c80e:    68cb        .h      LDR      r3,[r1,#0xc]
        0x0001c810:    6830        0h      LDR      r0,[r6,#0]
        0x0001c812:    4629        )F      MOV      r1,r5
        0x0001c814:    2200        ."      MOVS     r2,#0
        0x0001c816:    4798        .G      BLX      r3
        0x0001c818:    f89d0024    ..$.    LDRB     r0,[sp,#0x24]
        0x0001c81c:    2800        .(      CMP      r0,#0
        0x0001c81e:    f47faf82    ....    BNE.W    0x1c726 ; am_hal_sdio_card_set_speed + 102
        0x0001c822:    9805        ..      LDR      r0,[sp,#0x14]
        0x0001c824:    0780        ..      LSLS     r0,r0,#30
        0x0001c826:    d0b7        ..      BEQ      0x1c798 ; am_hal_sdio_card_set_speed + 216
        0x0001c828:    6eb9        .n      LDR      r1,[r7,#0x68]
        0x0001c82a:    6838        8h      LDR      r0,[r7,#0]
        0x0001c82c:    698a        .i      LDR      r2,[r1,#0x18]
        0x0001c82e:    4621        !F      MOV      r1,r4
        0x0001c830:    4790        .G      BLX      r2
        0x0001c832:    2800        .(      CMP      r0,#0
        0x0001c834:    bf18        ..      IT       NE
        0x0001c836:    2001        .       MOVNE    r0,#1
        0x0001c838:    b00a        ..      ADD      sp,sp,#0x28
        0x0001c83a:    e8bd87f0    ....    POP      {r4-r10,pc}
        0x0001c83e:    0000        ..      MOVS     r0,r0
    am_hal_sdmmc_cmd2_send_cid
        0x0001c840:    b570        p.      PUSH     {r4-r6,lr}
        0x0001c842:    b08a        ..      SUB      sp,sp,#0x28
        0x0001c844:    ad01        ..      ADD      r5,sp,#4
        0x0001c846:    4604        .F      MOV      r4,r0
        0x0001c848:    f8d06278    ..xb    LDR      r6,[r0,#0x278]
        0x0001c84c:    4628        (F      MOV      r0,r5
        0x0001c84e:    2124        $!      MOVS     r1,#0x24
        0x0001c850:    f7fbfd8c    ....    BL       __aeabi_memclr4 ; 0x1836c
        0x0001c854:    2002        .       MOVS     r0,#2
        0x0001c856:    f88d0004    ....    STRB     r0,[sp,#4]
        0x0001c85a:    2007        .       MOVS     r0,#7
        0x0001c85c:    6eb1        .n      LDR      r1,[r6,#0x68]
        0x0001c85e:    9003        ..      STR      r0,[sp,#0xc]
        0x0001c860:    6830        0h      LDR      r0,[r6,#0]
        0x0001c862:    68cb        .h      LDR      r3,[r1,#0xc]
        0x0001c864:    4629        )F      MOV      r1,r5
        0x0001c866:    2200        ."      MOVS     r2,#0
        0x0001c868:    4798        .G      BLX      r3
        0x0001c86a:    f89d0024    ..$.    LDRB     r0,[sp,#0x24]
        0x0001c86e:    b108        ..      CBZ      r0,0x1c874 ; am_hal_sdmmc_cmd2_send_cid + 52
        0x0001c870:    b00a        ..      ADD      sp,sp,#0x28
        0x0001c872:    bd70        p.      POP      {r4-r6,pc}
        0x0001c874:    ae05        ..      ADD      r6,sp,#0x14
        0x0001c876:    ce4e        N.      LDM      r6,{r1-r3,r6}
        0x0001c878:    f1040c10    ....    ADD      r12,r4,#0x10
        0x0001c87c:    e88c000e    ....    STM      r12,{r1-r3}
        0x0001c880:    78a1        .x      LDRB     r1,[r4,#2]
        0x0001c882:    61e6        .a      STR      r6,[r4,#0x1c]
        0x0001c884:    f0410101    A...    ORR      r1,r1,#1
        0x0001c888:    70a1        .p      STRB     r1,[r4,#2]
        0x0001c88a:    b00a        ..      ADD      sp,sp,#0x28
        0x0001c88c:    bd70        p.      POP      {r4-r6,pc}
        0x0001c88e:    0000        ..      MOVS     r0,r0
    am_hal_sdmmc_cmd3_set_rca
        0x0001c890:    b5f0        ..      PUSH     {r4-r7,lr}
        0x0001c892:    b089        ..      SUB      sp,sp,#0x24
        0x0001c894:    466e        nF      MOV      r6,sp
        0x0001c896:    4604        .F      MOV      r4,r0
        0x0001c898:    f8d07278    ..xr    LDR      r7,[r0,#0x278]
        0x0001c89c:    460d        .F      MOV      r5,r1
        0x0001c89e:    4630        0F      MOV      r0,r6
        0x0001c8a0:    2124        $!      MOVS     r1,#0x24
        0x0001c8a2:    f7fbfd63    ..c.    BL       __aeabi_memclr4 ; 0x1836c
        0x0001c8a6:    2003        .       MOVS     r0,#3
        0x0001c8a8:    f88d0000    ....    STRB     r0,[sp,#0]
        0x0001c8ac:    0428        (.      LSLS     r0,r5,#16
        0x0001c8ae:    9001        ..      STR      r0,[sp,#4]
        0x0001c8b0:    2015        .       MOVS     r0,#0x15
        0x0001c8b2:    6eb9        .n      LDR      r1,[r7,#0x68]
        0x0001c8b4:    9002        ..      STR      r0,[sp,#8]
        0x0001c8b6:    68cb        .h      LDR      r3,[r1,#0xc]
        0x0001c8b8:    6838        8h      LDR      r0,[r7,#0]
        0x0001c8ba:    4631        1F      MOV      r1,r6
        0x0001c8bc:    2200        ."      MOVS     r2,#0
        0x0001c8be:    4798        .G      BLX      r3
        0x0001c8c0:    f89d0020    .. .    LDRB     r0,[sp,#0x20]
        0x0001c8c4:    b110        ..      CBZ      r0,0x1c8cc ; am_hal_sdmmc_cmd3_set_rca + 60
        0x0001c8c6:    b009        ..      ADD      sp,sp,#0x24
        0x0001c8c8:    bdf0        ..      POP      {r4-r7,pc}
        0x0001c8ca:    bf00        ..      NOP      
        0x0001c8cc:    7821        !x      LDRB     r1,[r4,#0]
        0x0001c8ce:    f8bd2012    ...     LDRH     r2,[sp,#0x12]
        0x0001c8d2:    3901        .9      SUBS     r1,#1
        0x0001c8d4:    2902        .)      CMP      r1,#2
        0x0001c8d6:    bf38        8.      IT       CC
        0x0001c8d8:    462a        *F      MOVCC    r2,r5
        0x0001c8da:    60a2        .`      STR      r2,[r4,#8]
        0x0001c8dc:    b009        ..      ADD      sp,sp,#0x24
        0x0001c8de:    bdf0        ..      POP      {r4-r7,pc}
    am_hal_sdmmc_cmd7_card_select
        0x0001c8e0:    b570        p.      PUSH     {r4-r6,lr}
        0x0001c8e2:    b08a        ..      SUB      sp,sp,#0x28
        0x0001c8e4:    ad01        ..      ADD      r5,sp,#4
        0x0001c8e6:    4604        .F      MOV      r4,r0
        0x0001c8e8:    f8d06278    ..xb    LDR      r6,[r0,#0x278]
        0x0001c8ec:    4628        (F      MOV      r0,r5
        0x0001c8ee:    2124        $!      MOVS     r1,#0x24
        0x0001c8f0:    f7fbfd3c    ..<.    BL       __aeabi_memclr4 ; 0x1836c
        0x0001c8f4:    68a1        .h      LDR      r1,[r4,#8]
        0x0001c8f6:    2007        .       MOVS     r0,#7
        0x0001c8f8:    f88d0004    ....    STRB     r0,[sp,#4]
        0x0001c8fc:    0408        ..      LSLS     r0,r1,#16
        0x0001c8fe:    9002        ..      STR      r0,[sp,#8]
        0x0001c900:    2900        .)      CMP      r1,#0
        0x0001c902:    bf18        ..      IT       NE
        0x0001c904:    2115        .!      MOVNE    r1,#0x15
        0x0001c906:    6eb0        .n      LDR      r0,[r6,#0x68]
        0x0001c908:    9103        ..      STR      r1,[sp,#0xc]
        0x0001c90a:    68c3        .h      LDR      r3,[r0,#0xc]
        0x0001c90c:    6830        0h      LDR      r0,[r6,#0]
        0x0001c90e:    4629        )F      MOV      r1,r5
        0x0001c910:    2200        ."      MOVS     r2,#0
        0x0001c912:    4798        .G      BLX      r3
        0x0001c914:    f89d0024    ..$.    LDRB     r0,[sp,#0x24]
        0x0001c918:    b110        ..      CBZ      r0,0x1c920 ; am_hal_sdmmc_cmd7_card_select + 64
        0x0001c91a:    b00a        ..      ADD      sp,sp,#0x28
        0x0001c91c:    bd70        p.      POP      {r4-r6,pc}
        0x0001c91e:    bf00        ..      NOP      
        0x0001c920:    68a1        .h      LDR      r1,[r4,#8]
        0x0001c922:    2206        ."      MOVS     r2,#6
        0x0001c924:    2900        .)      CMP      r1,#0
        0x0001c926:    bf08        ..      IT       EQ
        0x0001c928:    2205        ."      MOVEQ    r2,#5
        0x0001c92a:    7062        bp      STRB     r2,[r4,#1]
        0x0001c92c:    b00a        ..      ADD      sp,sp,#0x28
        0x0001c92e:    bd70        p.      POP      {r4-r6,pc}
    am_hal_sdmmc_cmd8_send_ext_csd
        0x0001c930:    b570        p.      PUSH     {r4-r6,lr}
        0x0001c932:    b090        ..      SUB      sp,sp,#0x40
        0x0001c934:    ad07        ..      ADD      r5,sp,#0x1c
        0x0001c936:    4604        .F      MOV      r4,r0
        0x0001c938:    f8d06278    ..xb    LDR      r6,[r0,#0x278]
        0x0001c93c:    4628        (F      MOV      r0,r5
        0x0001c93e:    2124        $!      MOVS     r1,#0x24
        0x0001c940:    f7fbfd14    ....    BL       __aeabi_memclr4 ; 0x1836c
        0x0001c944:    2000        .       MOVS     r0,#0
        0x0001c946:    68a1        .h      LDR      r1,[r4,#8]
        0x0001c948:    e9cd0002    ....    STRD     r0,r0,[sp,#8]
        0x0001c94c:    9006        ..      STR      r0,[sp,#0x18]
        0x0001c94e:    e9cd0004    ....    STRD     r0,r0,[sp,#0x10]
        0x0001c952:    e9cd0000    ....    STRD     r0,r0,[sp,#0]
        0x0001c956:    2008        .       MOVS     r0,#8
        0x0001c958:    f88d001c    ....    STRB     r0,[sp,#0x1c]
        0x0001c95c:    0408        ..      LSLS     r0,r1,#16
        0x0001c95e:    9008        ..      STR      r0,[sp,#0x20]
        0x0001c960:    2015        .       MOVS     r0,#0x15
        0x0001c962:    9009        ..      STR      r0,[sp,#0x24]
        0x0001c964:    f1040030    ..0.    ADD      r0,r4,#0x30
        0x0001c968:    9001        ..      STR      r0,[sp,#4]
        0x0001c96a:    2001        .       MOVS     r0,#1
        0x0001c96c:    9003        ..      STR      r0,[sp,#0xc]
        0x0001c96e:    f44f7000    O..p    MOV      r0,#0x200
        0x0001c972:    6eb1        .n      LDR      r1,[r6,#0x68]
        0x0001c974:    9002        ..      STR      r0,[sp,#8]
        0x0001c976:    68cb        .h      LDR      r3,[r1,#0xc]
        0x0001c978:    6830        0h      LDR      r0,[r6,#0]
        0x0001c97a:    466a        jF      MOV      r2,sp
        0x0001c97c:    4629        )F      MOV      r1,r5
        0x0001c97e:    4798        .G      BLX      r3
        0x0001c980:    f89d003c    ..<.    LDRB     r0,[sp,#0x3c]
        0x0001c984:    b110        ..      CBZ      r0,0x1c98c ; am_hal_sdmmc_cmd8_send_ext_csd + 92
        0x0001c986:    b010        ..      ADD      sp,sp,#0x40
        0x0001c988:    bd70        p.      POP      {r4-r6,pc}
        0x0001c98a:    bf00        ..      NOP      
        0x0001c98c:    78a1        .x      LDRB     r1,[r4,#2]
        0x0001c98e:    f0410104    A...    ORR      r1,r1,#4
        0x0001c992:    70a1        .p      STRB     r1,[r4,#2]
        0x0001c994:    b010        ..      ADD      sp,sp,#0x40
        0x0001c996:    bd70        p.      POP      {r4-r6,pc}
    am_hal_sdmmc_cmd9_send_csd
        0x0001c998:    b570        p.      PUSH     {r4-r6,lr}
        0x0001c99a:    b08a        ..      SUB      sp,sp,#0x28
        0x0001c99c:    ad01        ..      ADD      r5,sp,#4
        0x0001c99e:    4604        .F      MOV      r4,r0
        0x0001c9a0:    f8d06278    ..xb    LDR      r6,[r0,#0x278]
        0x0001c9a4:    4628        (F      MOV      r0,r5
        0x0001c9a6:    2124        $!      MOVS     r1,#0x24
        0x0001c9a8:    f7fbfce0    ....    BL       __aeabi_memclr4 ; 0x1836c
        0x0001c9ac:    68a1        .h      LDR      r1,[r4,#8]
        0x0001c9ae:    2009        .       MOVS     r0,#9
        0x0001c9b0:    f88d0004    ....    STRB     r0,[sp,#4]
        0x0001c9b4:    0408        ..      LSLS     r0,r1,#16
        0x0001c9b6:    9002        ..      STR      r0,[sp,#8]
        0x0001c9b8:    2007        .       MOVS     r0,#7
        0x0001c9ba:    6eb1        .n      LDR      r1,[r6,#0x68]
        0x0001c9bc:    9003        ..      STR      r0,[sp,#0xc]
        0x0001c9be:    6830        0h      LDR      r0,[r6,#0]
        0x0001c9c0:    68cb        .h      LDR      r3,[r1,#0xc]
        0x0001c9c2:    4629        )F      MOV      r1,r5
        0x0001c9c4:    2200        ."      MOVS     r2,#0
        0x0001c9c6:    4798        .G      BLX      r3
        0x0001c9c8:    f89d0024    ..$.    LDRB     r0,[sp,#0x24]
        0x0001c9cc:    b110        ..      CBZ      r0,0x1c9d4 ; am_hal_sdmmc_cmd9_send_csd + 60
        0x0001c9ce:    b00a        ..      ADD      sp,sp,#0x28
        0x0001c9d0:    bd70        p.      POP      {r4-r6,pc}
        0x0001c9d2:    bf00        ..      NOP      
        0x0001c9d4:    ae05        ..      ADD      r6,sp,#0x14
        0x0001c9d6:    ce4e        N.      LDM      r6,{r1-r3,r6}
        0x0001c9d8:    f1040c20    .. .    ADD      r12,r4,#0x20
        0x0001c9dc:    e88c000e    ....    STM      r12,{r1-r3}
        0x0001c9e0:    78a1        .x      LDRB     r1,[r4,#2]
        0x0001c9e2:    62e6        .b      STR      r6,[r4,#0x2c]
        0x0001c9e4:    f0410102    A...    ORR      r1,r1,#2
        0x0001c9e8:    70a1        .p      STRB     r1,[r4,#2]
        0x0001c9ea:    b00a        ..      ADD      sp,sp,#0x28
        0x0001c9ec:    bd70        p.      POP      {r4-r6,pc}
        0x0001c9ee:    0000        ..      MOVS     r0,r0
    am_hal_tpiu_enable
        0x0001c9f0:    f647337f    G..3    MOV      r3,#0x7b7f
        0x0001c9f4:    f6cf73e1    ...s    MOVT     r3,#0xffe1
        0x0001c9f8:    2104        .!      MOVS     r1,#4
        0x0001c9fa:    18c2        ..      ADDS     r2,r0,r3
        0x0001c9fc:    f5034361    ..aC    ADD      r3,r3,#0xe100
        0x0001ca00:    f2ce0104    ....    MOVT     r1,#0xe004
        0x0001ca04:    f04f0c00    O...    MOV      r12,#0
        0x0001ca08:    429a        .B      CMP      r2,r3
        0x0001ca0a:    f6464300    F..C    MOVW     r3,#0x6c00
        0x0001ca0e:    f8c1c300    ....    STR      r12,[r1,#0x300]
        0x0001ca12:    bf3c        <.      ITT      CC
        0x0001ca14:    f2442040    D.@     MOVCC    r0,#0x4240
        0x0001ca18:    f2c0000f    ....    MOVTCC   r0,#0xf
        0x0001ca1c:    f2c023dc    ...#    MOVT     r3,#0x2dc
        0x0001ca20:    fbb3f0f0    ....    UDIV     r0,r3,r0
        0x0001ca24:    2201        ."      MOVS     r2,#1
        0x0001ca26:    3801        .8      SUBS     r0,#1
        0x0001ca28:    b280        ..      UXTH     r0,r0
        0x0001ca2a:    600a        .`      STR      r2,[r1,#0]
        0x0001ca2c:    60c8        .`      STR      r0,[r1,#0xc]
        0x0001ca2e:    2002        .       MOVS     r0,#2
        0x0001ca30:    f8c100ec    ....    STR      r0,[r1,#0xec]
        0x0001ca34:    f6407100    @..q    MOVW     r1,#0xf00
        0x0001ca38:    f2ce0104    ....    MOVT     r1,#0xe004
        0x0001ca3c:    f8c1c000    ....    STR      r12,[r1,#0]
        0x0001ca40:    f2402150    @.P!    MOVW     r1,#0x250
        0x0001ca44:    f2c40102    ....    MOVT     r1,#0x4002
        0x0001ca48:    680a        .h      LDR      r2,[r1,#0]
        0x0001ca4a:    f3600243    `.C.    BFI      r2,r0,#1,#3
        0x0001ca4e:    600a        .`      STR      r2,[r1,#0]
        0x0001ca50:    6808        .h      LDR      r0,[r1,#0]
        0x0001ca52:    f0400201    @...    ORR      r2,r0,#1
        0x0001ca56:    2064        d       MOVS     r0,#0x64
        0x0001ca58:    600a        .`      STR      r2,[r1,#0]
        0x0001ca5a:    f7fdb891    ....    B        am_hal_delay_us ; 0x19b80
        0x0001ca5e:    0000        ..      MOVS     r0,r0
    am_sdio_isr
        0x0001ca60:    b580        ..      PUSH     {r7,lr}
        0x0001ca62:    b082        ..      SUB      sp,sp,#8
        0x0001ca64:    f6400088    @...    MOV      r0,#0x888
        0x0001ca68:    f2c10000    ....    MOVT     r0,#0x1000
        0x0001ca6c:    9000        ..      STR      r0,[sp,#0]
        0x0001ca6e:    6800        .h      LDR      r0,[r0,#0]
        0x0001ca70:    6800        .h      LDR      r0,[r0,#0]
        0x0001ca72:    a901        ..      ADD      r1,sp,#4
        0x0001ca74:    2201        ."      MOVS     r2,#1
        0x0001ca76:    f7fff8e3    ....    BL       am_hal_sdhc_intr_status_get ; 0x1bc40
        0x0001ca7a:    9800        ..      LDR      r0,[sp,#0]
        0x0001ca7c:    6800        .h      LDR      r0,[r0,#0]
        0x0001ca7e:    6800        .h      LDR      r0,[r0,#0]
        0x0001ca80:    9901        ..      LDR      r1,[sp,#4]
        0x0001ca82:    f7fff8ab    ....    BL       am_hal_sdhc_intr_status_clear ; 0x1bbdc
        0x0001ca86:    9800        ..      LDR      r0,[sp,#0]
        0x0001ca88:    6800        .h      LDR      r0,[r0,#0]
        0x0001ca8a:    6800        .h      LDR      r0,[r0,#0]
        0x0001ca8c:    9901        ..      LDR      r1,[sp,#4]
        0x0001ca8e:    f7feffe9    ....    BL       am_hal_sdhc_interrupt_service ; 0x1ba64
        0x0001ca92:    b002        ..      ADD      sp,sp,#8
        0x0001ca94:    bd80        ..      POP      {r7,pc}
        0x0001ca96:    0000        ..      MOVS     r0,r0
    am_util_delay_ms
        0x0001ca98:    b580        ..      PUSH     {r7,lr}
        0x0001ca9a:    b082        ..      SUB      sp,sp,#8
        0x0001ca9c:    9001        ..      STR      r0,[sp,#4]
        0x0001ca9e:    9801        ..      LDR      r0,[sp,#4]
        0x0001caa0:    f44f717a    O.zq    MOV      r1,#0x3e8
        0x0001caa4:    4348        HC      MULS     r0,r1,r0
        0x0001caa6:    f7fdf86b    ..k.    BL       am_hal_delay_us ; 0x19b80
        0x0001caaa:    b002        ..      ADD      sp,sp,#8
        0x0001caac:    bd80        ..      POP      {r7,pc}
        0x0001caae:    0000        ..      MOVS     r0,r0
    am_util_delay_us
        0x0001cab0:    b580        ..      PUSH     {r7,lr}
        0x0001cab2:    b082        ..      SUB      sp,sp,#8
        0x0001cab4:    9001        ..      STR      r0,[sp,#4]
        0x0001cab6:    9801        ..      LDR      r0,[sp,#4]
        0x0001cab8:    f7fdf862    ..b.    BL       am_hal_delay_us ; 0x19b80
        0x0001cabc:    b002        ..      ADD      sp,sp,#8
        0x0001cabe:    bd80        ..      POP      {r7,pc}
    am_util_faultisr_collect_data
        0x0001cac0:    b580        ..      PUSH     {r7,lr}
        0x0001cac2:    b096        ..      SUB      sp,sp,#0x58
        0x0001cac4:    9015        ..      STR      r0,[sp,#0x54]
        0x0001cac6:    2000        .       MOVS     r0,#0
        0x0001cac8:    9008        ..      STR      r0,[sp,#0x20]
        0x0001caca:    9007        ..      STR      r0,[sp,#0x1c]
        0x0001cacc:    9006        ..      STR      r0,[sp,#0x18]
        0x0001cace:    9005        ..      STR      r0,[sp,#0x14]
        0x0001cad0:    9004        ..      STR      r0,[sp,#0x10]
        0x0001cad2:    9003        ..      STR      r0,[sp,#0xc]
        0x0001cad4:    9002        ..      STR      r0,[sp,#8]
        0x0001cad6:    9802        ..      LDR      r0,[sp,#8]
        0x0001cad8:    9013        ..      STR      r0,[sp,#0x4c]
        0x0001cada:    f64e5028    N.(P    MOV      r0,#0xed28
        0x0001cade:    f2ce0000    ....    MOVT     r0,#0xe000
        0x0001cae2:    6800        .h      LDR      r0,[r0,#0]
        0x0001cae4:    9013        ..      STR      r0,[sp,#0x4c]
        0x0001cae6:    9813        ..      LDR      r0,[sp,#0x4c]
        0x0001cae8:    f88d0050    ..P.    STRB     r0,[sp,#0x50]
        0x0001caec:    9813        ..      LDR      r0,[sp,#0x4c]
        0x0001caee:    0a00        ..      LSRS     r0,r0,#8
        0x0001caf0:    f88d0051    ..Q.    STRB     r0,[sp,#0x51]
        0x0001caf4:    9813        ..      LDR      r0,[sp,#0x4c]
        0x0001caf6:    0c00        ..      LSRS     r0,r0,#16
        0x0001caf8:    f8ad0052    ..R.    STRH     r0,[sp,#0x52]
        0x0001cafc:    f64e5038    N.8P    MOV      r0,#0xed38
        0x0001cb00:    f2ce0000    ....    MOVT     r0,#0xe000
        0x0001cb04:    6800        .h      LDR      r0,[r0,#0]
        0x0001cb06:    9012        ..      STR      r0,[sp,#0x48]
        0x0001cb08:    9815        ..      LDR      r0,[sp,#0x54]
        0x0001cb0a:    f000fba7    ....    BL       am_valid_sp ; 0x1d25c
        0x0001cb0e:    b3d8        ..      CBZ      r0,0x1cb88 ; am_util_faultisr_collect_data + 200
        0x0001cb10:    e7ff        ..      B        0x1cb12 ; am_util_faultisr_collect_data + 82
        0x0001cb12:    f89d0051    ..Q.    LDRB     r0,[sp,#0x51]
        0x0001cb16:    0780        ..      LSLS     r0,r0,#30
        0x0001cb18:    2800        .(      CMP      r0,#0
        0x0001cb1a:    d506        ..      BPL      0x1cb2a ; am_util_faultisr_collect_data + 106
        0x0001cb1c:    e7ff        ..      B        0x1cb1e ; am_util_faultisr_collect_data + 94
        0x0001cb1e:    9915        ..      LDR      r1,[sp,#0x54]
        0x0001cb20:    2006        .       MOVS     r0,#6
        0x0001cb22:    f7fbfd63    ..c.    BL       am_getStackedReg ; 0x185ec
        0x0001cb26:    9001        ..      STR      r0,[sp,#4]
        0x0001cb28:    e003        ..      B        0x1cb32 ; am_util_faultisr_collect_data + 114
        0x0001cb2a:    f04f30ff    O..0    MOV      r0,#0xffffffff
        0x0001cb2e:    9001        ..      STR      r0,[sp,#4]
        0x0001cb30:    e7ff        ..      B        0x1cb32 ; am_util_faultisr_collect_data + 114
        0x0001cb32:    9801        ..      LDR      r0,[sp,#4]
        0x0001cb34:    9011        ..      STR      r0,[sp,#0x44]
        0x0001cb36:    9915        ..      LDR      r1,[sp,#0x54]
        0x0001cb38:    2000        .       MOVS     r0,#0
        0x0001cb3a:    f7fbfd57    ..W.    BL       am_getStackedReg ; 0x185ec
        0x0001cb3e:    9009        ..      STR      r0,[sp,#0x24]
        0x0001cb40:    9915        ..      LDR      r1,[sp,#0x54]
        0x0001cb42:    2001        .       MOVS     r0,#1
        0x0001cb44:    f7fbfd52    ..R.    BL       am_getStackedReg ; 0x185ec
        0x0001cb48:    900a        ..      STR      r0,[sp,#0x28]
        0x0001cb4a:    9915        ..      LDR      r1,[sp,#0x54]
        0x0001cb4c:    2002        .       MOVS     r0,#2
        0x0001cb4e:    f7fbfd4d    ..M.    BL       am_getStackedReg ; 0x185ec
        0x0001cb52:    900b        ..      STR      r0,[sp,#0x2c]
        0x0001cb54:    9915        ..      LDR      r1,[sp,#0x54]
        0x0001cb56:    2003        .       MOVS     r0,#3
        0x0001cb58:    f7fbfd48    ..H.    BL       am_getStackedReg ; 0x185ec
        0x0001cb5c:    900c        ..      STR      r0,[sp,#0x30]
        0x0001cb5e:    9915        ..      LDR      r1,[sp,#0x54]
        0x0001cb60:    2004        .       MOVS     r0,#4
        0x0001cb62:    f7fbfd43    ..C.    BL       am_getStackedReg ; 0x185ec
        0x0001cb66:    900d        ..      STR      r0,[sp,#0x34]
        0x0001cb68:    9915        ..      LDR      r1,[sp,#0x54]
        0x0001cb6a:    2005        .       MOVS     r0,#5
        0x0001cb6c:    f7fbfd3e    ..>.    BL       am_getStackedReg ; 0x185ec
        0x0001cb70:    900e        ..      STR      r0,[sp,#0x38]
        0x0001cb72:    9915        ..      LDR      r1,[sp,#0x54]
        0x0001cb74:    2006        .       MOVS     r0,#6
        0x0001cb76:    f7fbfd39    ..9.    BL       am_getStackedReg ; 0x185ec
        0x0001cb7a:    900f        ..      STR      r0,[sp,#0x3c]
        0x0001cb7c:    9915        ..      LDR      r1,[sp,#0x54]
        0x0001cb7e:    2007        .       MOVS     r0,#7
        0x0001cb80:    f7fbfd34    ..4.    BL       am_getStackedReg ; 0x185ec
        0x0001cb84:    9010        ..      STR      r0,[sp,#0x40]
        0x0001cb86:    e7ff        ..      B        0x1cb88 ; am_util_faultisr_collect_data + 200
        0x0001cb88:    a803        ..      ADD      r0,sp,#0xc
        0x0001cb8a:    f7fdf88d    ....    BL       am_hal_fault_status_get ; 0x19ca8
        0x0001cb8e:    2000        .       MOVS     r0,#0
        0x0001cb90:    9002        ..      STR      r0,[sp,#8]
        0x0001cb92:    e7ff        ..      B        0x1cb94 ; am_util_faultisr_collect_data + 212
        0x0001cb94:    e7fe        ..      B        0x1cb94 ; am_util_faultisr_collect_data + 212
        0x0001cb96:    0000        ..      MOVS     r0,r0
    am_util_stdio_printf
        0x0001cb98:    b083        ..      SUB      sp,sp,#0xc
        0x0001cb9a:    b580        ..      PUSH     {r7,lr}
        0x0001cb9c:    b085        ..      SUB      sp,sp,#0x14
        0x0001cb9e:    9309        ..      STR      r3,[sp,#0x24]
        0x0001cba0:    9208        ..      STR      r2,[sp,#0x20]
        0x0001cba2:    9107        ..      STR      r1,[sp,#0x1c]
        0x0001cba4:    9003        ..      STR      r0,[sp,#0xc]
        0x0001cba6:    f2404080    @..@    MOVW     r0,#0x480
        0x0001cbaa:    f2c10000    ....    MOVT     r0,#0x1000
        0x0001cbae:    6800        .h      LDR      r0,[r0,#0]
        0x0001cbb0:    b918        ..      CBNZ     r0,0x1cbba ; am_util_stdio_printf + 34
        0x0001cbb2:    e7ff        ..      B        0x1cbb4 ; am_util_stdio_printf + 28
        0x0001cbb4:    2000        .       MOVS     r0,#0
        0x0001cbb6:    9004        ..      STR      r0,[sp,#0x10]
        0x0001cbb8:    e016        ..      B        0x1cbe8 ; am_util_stdio_printf + 80
        0x0001cbba:    a807        ..      ADD      r0,sp,#0x1c
        0x0001cbbc:    9001        ..      STR      r0,[sp,#4]
        0x0001cbbe:    9903        ..      LDR      r1,[sp,#0xc]
        0x0001cbc0:    9a01        ..      LDR      r2,[sp,#4]
        0x0001cbc2:    f2404084    @..@    MOV      r0,#0x484
        0x0001cbc6:    f2c10000    ....    MOVT     r0,#0x1000
        0x0001cbca:    9000        ..      STR      r0,[sp,#0]
        0x0001cbcc:    f000f81c    ....    BL       am_util_stdio_vsprintf ; 0x1cc08
        0x0001cbd0:    4601        .F      MOV      r1,r0
        0x0001cbd2:    9800        ..      LDR      r0,[sp,#0]
        0x0001cbd4:    9102        ..      STR      r1,[sp,#8]
        0x0001cbd6:    f2404180    @..A    MOVW     r1,#0x480
        0x0001cbda:    f2c10100    ....    MOVT     r1,#0x1000
        0x0001cbde:    6809        .h      LDR      r1,[r1,#0]
        0x0001cbe0:    4788        .G      BLX      r1
        0x0001cbe2:    9802        ..      LDR      r0,[sp,#8]
        0x0001cbe4:    9004        ..      STR      r0,[sp,#0x10]
        0x0001cbe6:    e7ff        ..      B        0x1cbe8 ; am_util_stdio_printf + 80
        0x0001cbe8:    9804        ..      LDR      r0,[sp,#0x10]
        0x0001cbea:    b005        ..      ADD      sp,sp,#0x14
        0x0001cbec:    e8bd4080    ...@    POP      {r7,lr}
        0x0001cbf0:    b003        ..      ADD      sp,sp,#0xc
        0x0001cbf2:    4770        pG      BX       lr
    am_util_stdio_printf_init
        0x0001cbf4:    b081        ..      SUB      sp,sp,#4
        0x0001cbf6:    9000        ..      STR      r0,[sp,#0]
        0x0001cbf8:    9800        ..      LDR      r0,[sp,#0]
        0x0001cbfa:    f2404180    @..A    MOVW     r1,#0x480
        0x0001cbfe:    f2c10100    ....    MOVT     r1,#0x1000
        0x0001cc02:    6008        .`      STR      r0,[r1,#0]
        0x0001cc04:    b001        ..      ADD      sp,sp,#4
        0x0001cc06:    4770        pG      BX       lr
    am_util_stdio_vsprintf
        0x0001cc08:    b580        ..      PUSH     {r7,lr}
        0x0001cc0a:    b09e        ..      SUB      sp,sp,#0x78
        0x0001cc0c:    921d        ..      STR      r2,[sp,#0x74]
        0x0001cc0e:    901c        ..      STR      r0,[sp,#0x70]
        0x0001cc10:    911b        ..      STR      r1,[sp,#0x6c]
        0x0001cc12:    2000        .       MOVS     r0,#0
        0x0001cc14:    9014        ..      STR      r0,[sp,#0x50]
        0x0001cc16:    900e        ..      STR      r0,[sp,#0x38]
        0x0001cc18:    e7ff        ..      B        0x1cc1a ; am_util_stdio_vsprintf + 18
        0x0001cc1a:    981b        ..      LDR      r0,[sp,#0x6c]
        0x0001cc1c:    7800        .x      LDRB     r0,[r0,#0]
        0x0001cc1e:    2800        .(      CMP      r0,#0
        0x0001cc20:    f0008312    ....    BEQ.W    0x1d248 ; am_util_stdio_vsprintf + 1600
        0x0001cc24:    e7ff        ..      B        0x1cc26 ; am_util_stdio_vsprintf + 30
        0x0001cc26:    2006        .       MOVS     r0,#6
        0x0001cc28:    9011        ..      STR      r0,[sp,#0x44]
        0x0001cc2a:    981b        ..      LDR      r0,[sp,#0x6c]
        0x0001cc2c:    7800        .x      LDRB     r0,[r0,#0]
        0x0001cc2e:    2825        %(      CMP      r0,#0x25
        0x0001cc30:    d027        '.      BEQ      0x1cc82 ; am_util_stdio_vsprintf + 122
        0x0001cc32:    e7ff        ..      B        0x1cc34 ; am_util_stdio_vsprintf + 44
        0x0001cc34:    981c        ..      LDR      r0,[sp,#0x70]
        0x0001cc36:    b1e8        ..      CBZ      r0,0x1cc74 ; am_util_stdio_vsprintf + 108
        0x0001cc38:    e7ff        ..      B        0x1cc3a ; am_util_stdio_vsprintf + 50
        0x0001cc3a:    981b        ..      LDR      r0,[sp,#0x6c]
        0x0001cc3c:    7800        .x      LDRB     r0,[r0,#0]
        0x0001cc3e:    280a        .(      CMP      r0,#0xa
        0x0001cc40:    d111        ..      BNE      0x1cc66 ; am_util_stdio_vsprintf + 94
        0x0001cc42:    e7ff        ..      B        0x1cc44 ; am_util_stdio_vsprintf + 60
        0x0001cc44:    f240407c    @.|@    MOV      r0,#0x47c
        0x0001cc48:    f2c10000    ....    MOVT     r0,#0x1000
        0x0001cc4c:    7800        .x      LDRB     r0,[r0,#0]
        0x0001cc4e:    07c0        ..      LSLS     r0,r0,#31
        0x0001cc50:    b148        H.      CBZ      r0,0x1cc66 ; am_util_stdio_vsprintf + 94
        0x0001cc52:    e7ff        ..      B        0x1cc54 ; am_util_stdio_vsprintf + 76
        0x0001cc54:    991c        ..      LDR      r1,[sp,#0x70]
        0x0001cc56:    1c48        H.      ADDS     r0,r1,#1
        0x0001cc58:    901c        ..      STR      r0,[sp,#0x70]
        0x0001cc5a:    200d        .       MOVS     r0,#0xd
        0x0001cc5c:    7008        .p      STRB     r0,[r1,#0]
        0x0001cc5e:    9814        ..      LDR      r0,[sp,#0x50]
        0x0001cc60:    3001        .0      ADDS     r0,#1
        0x0001cc62:    9014        ..      STR      r0,[sp,#0x50]
        0x0001cc64:    e7ff        ..      B        0x1cc66 ; am_util_stdio_vsprintf + 94
        0x0001cc66:    981b        ..      LDR      r0,[sp,#0x6c]
        0x0001cc68:    7800        .x      LDRB     r0,[r0,#0]
        0x0001cc6a:    991c        ..      LDR      r1,[sp,#0x70]
        0x0001cc6c:    1c4a        J.      ADDS     r2,r1,#1
        0x0001cc6e:    921c        ..      STR      r2,[sp,#0x70]
        0x0001cc70:    7008        .p      STRB     r0,[r1,#0]
        0x0001cc72:    e7ff        ..      B        0x1cc74 ; am_util_stdio_vsprintf + 108
        0x0001cc74:    981b        ..      LDR      r0,[sp,#0x6c]
        0x0001cc76:    3001        .0      ADDS     r0,#1
        0x0001cc78:    901b        ..      STR      r0,[sp,#0x6c]
        0x0001cc7a:    9814        ..      LDR      r0,[sp,#0x50]
        0x0001cc7c:    3001        .0      ADDS     r0,#1
        0x0001cc7e:    9014        ..      STR      r0,[sp,#0x50]
        0x0001cc80:    e7cb        ..      B        0x1cc1a ; am_util_stdio_vsprintf + 18
        0x0001cc82:    981b        ..      LDR      r0,[sp,#0x6c]
        0x0001cc84:    3001        .0      ADDS     r0,#1
        0x0001cc86:    901b        ..      STR      r0,[sp,#0x6c]
        0x0001cc88:    2000        .       MOVS     r0,#0
        0x0001cc8a:    f88d0040    ..@.    STRB     r0,[sp,#0x40]
        0x0001cc8e:    f88d0041    ..A.    STRB     r0,[sp,#0x41]
        0x0001cc92:    2020                MOVS     r0,#0x20
        0x0001cc94:    f88d0042    ..B.    STRB     r0,[sp,#0x42]
        0x0001cc98:    981b        ..      LDR      r0,[sp,#0x6c]
        0x0001cc9a:    7800        .x      LDRB     r0,[r0,#0]
        0x0001cc9c:    2830        0(      CMP      r0,#0x30
        0x0001cc9e:    d107        ..      BNE      0x1ccb0 ; am_util_stdio_vsprintf + 168
        0x0001cca0:    e7ff        ..      B        0x1cca2 ; am_util_stdio_vsprintf + 154
        0x0001cca2:    2030        0       MOVS     r0,#0x30
        0x0001cca4:    f88d0042    ..B.    STRB     r0,[sp,#0x42]
        0x0001cca8:    981b        ..      LDR      r0,[sp,#0x6c]
        0x0001ccaa:    3001        .0      ADDS     r0,#1
        0x0001ccac:    901b        ..      STR      r0,[sp,#0x6c]
        0x0001ccae:    e7ff        ..      B        0x1ccb0 ; am_util_stdio_vsprintf + 168
        0x0001ccb0:    981b        ..      LDR      r0,[sp,#0x6c]
        0x0001ccb2:    a915        ..      ADD      r1,sp,#0x54
        0x0001ccb4:    f000fb8a    ....    BL       decstr_to_int ; 0x1d3cc
        0x0001ccb8:    9013        ..      STR      r0,[sp,#0x4c]
        0x0001ccba:    9915        ..      LDR      r1,[sp,#0x54]
        0x0001ccbc:    981b        ..      LDR      r0,[sp,#0x6c]
        0x0001ccbe:    4408        .D      ADD      r0,r0,r1
        0x0001ccc0:    901b        ..      STR      r0,[sp,#0x6c]
        0x0001ccc2:    981b        ..      LDR      r0,[sp,#0x6c]
        0x0001ccc4:    7800        .x      LDRB     r0,[r0,#0]
        0x0001ccc6:    2873        s(      CMP      r0,#0x73
        0x0001ccc8:    d009        ..      BEQ      0x1ccde ; am_util_stdio_vsprintf + 214
        0x0001ccca:    e7ff        ..      B        0x1cccc ; am_util_stdio_vsprintf + 196
        0x0001cccc:    9813        ..      LDR      r0,[sp,#0x4c]
        0x0001ccce:    f1b03fff    ...?    CMP      r0,#0xffffffff
        0x0001ccd2:    dc04        ..      BGT      0x1ccde ; am_util_stdio_vsprintf + 214
        0x0001ccd4:    e7ff        ..      B        0x1ccd6 ; am_util_stdio_vsprintf + 206
        0x0001ccd6:    9813        ..      LDR      r0,[sp,#0x4c]
        0x0001ccd8:    4240        @B      RSBS     r0,r0,#0
        0x0001ccda:    9013        ..      STR      r0,[sp,#0x4c]
        0x0001ccdc:    e7ff        ..      B        0x1ccde ; am_util_stdio_vsprintf + 214
        0x0001ccde:    981b        ..      LDR      r0,[sp,#0x6c]
        0x0001cce0:    7800        .x      LDRB     r0,[r0,#0]
        0x0001cce2:    282e        .(      CMP      r0,#0x2e
        0x0001cce4:    d10d        ..      BNE      0x1cd02 ; am_util_stdio_vsprintf + 250
        0x0001cce6:    e7ff        ..      B        0x1cce8 ; am_util_stdio_vsprintf + 224
        0x0001cce8:    981b        ..      LDR      r0,[sp,#0x6c]
        0x0001ccea:    3001        .0      ADDS     r0,#1
        0x0001ccec:    901b        ..      STR      r0,[sp,#0x6c]
        0x0001ccee:    981b        ..      LDR      r0,[sp,#0x6c]
        0x0001ccf0:    a915        ..      ADD      r1,sp,#0x54
        0x0001ccf2:    f000fb6b    ..k.    BL       decstr_to_int ; 0x1d3cc
        0x0001ccf6:    9011        ..      STR      r0,[sp,#0x44]
        0x0001ccf8:    9915        ..      LDR      r1,[sp,#0x54]
        0x0001ccfa:    981b        ..      LDR      r0,[sp,#0x6c]
        0x0001ccfc:    4408        .D      ADD      r0,r0,r1
        0x0001ccfe:    901b        ..      STR      r0,[sp,#0x6c]
        0x0001cd00:    e7ff        ..      B        0x1cd02 ; am_util_stdio_vsprintf + 250
        0x0001cd02:    981b        ..      LDR      r0,[sp,#0x6c]
        0x0001cd04:    7800        .x      LDRB     r0,[r0,#0]
        0x0001cd06:    286c        l(      CMP      r0,#0x6c
        0x0001cd08:    d110        ..      BNE      0x1cd2c ; am_util_stdio_vsprintf + 292
        0x0001cd0a:    e7ff        ..      B        0x1cd0c ; am_util_stdio_vsprintf + 260
        0x0001cd0c:    981b        ..      LDR      r0,[sp,#0x6c]
        0x0001cd0e:    3001        .0      ADDS     r0,#1
        0x0001cd10:    901b        ..      STR      r0,[sp,#0x6c]
        0x0001cd12:    981b        ..      LDR      r0,[sp,#0x6c]
        0x0001cd14:    7800        .x      LDRB     r0,[r0,#0]
        0x0001cd16:    286c        l(      CMP      r0,#0x6c
        0x0001cd18:    d107        ..      BNE      0x1cd2a ; am_util_stdio_vsprintf + 290
        0x0001cd1a:    e7ff        ..      B        0x1cd1c ; am_util_stdio_vsprintf + 276
        0x0001cd1c:    981b        ..      LDR      r0,[sp,#0x6c]
        0x0001cd1e:    3001        .0      ADDS     r0,#1
        0x0001cd20:    901b        ..      STR      r0,[sp,#0x6c]
        0x0001cd22:    2001        .       MOVS     r0,#1
        0x0001cd24:    f88d0040    ..@.    STRB     r0,[sp,#0x40]
        0x0001cd28:    e7ff        ..      B        0x1cd2a ; am_util_stdio_vsprintf + 290
        0x0001cd2a:    e7ff        ..      B        0x1cd2c ; am_util_stdio_vsprintf + 292
        0x0001cd2c:    981b        ..      LDR      r0,[sp,#0x6c]
        0x0001cd2e:    7800        .x      LDRB     r0,[r0,#0]
        0x0001cd30:    3846        F8      SUBS     r0,r0,#0x46
        0x0001cd32:    4601        .F      MOV      r1,r0
        0x0001cd34:    910b        ..      STR      r1,[sp,#0x2c]
        0x0001cd36:    2832        2(      CMP      r0,#0x32
        0x0001cd38:    f2008273    ..s.    BHI.W    0x1d222 ; am_util_stdio_vsprintf + 1562
        0x0001cd3c:    990b        ..      LDR      r1,[sp,#0x2c]
        0x0001cd3e:    e8dff011    ....    TBH      [pc,r1,LSL #1]
    $d.4
        0x0001cd42:    0224        $.      DCW    548
        0x0001cd44:    02700270    p.p.    DCD    40895088
        0x0001cd48:    02700270    p.p.    DCD    40895088
        0x0001cd4c:    02700270    p.p.    DCD    40895088
        0x0001cd50:    02700270    p.p.    DCD    40895088
        0x0001cd54:    02700270    p.p.    DCD    40895088
        0x0001cd58:    02700270    p.p.    DCD    40895088
        0x0001cd5c:    02700270    p.p.    DCD    40895088
        0x0001cd60:    02700270    p.p.    DCD    40895088
        0x0001cd64:    00bf0270    p...    DCD    12518000
        0x0001cd68:    02700270    p.p.    DCD    40895088
        0x0001cd6c:    02700270    p.p.    DCD    40895088
        0x0001cd70:    02700270    p.p.    DCD    40895088
        0x0001cd74:    02700270    p.p.    DCD    40895088
        0x0001cd78:    02700270    p.p.    DCD    40895088
        0x0001cd7c:    016f0033    3.o.    DCD    24051763
        0x0001cd80:    02240270    p.$.    DCD    35914352
        0x0001cd84:    02700270    p.p.    DCD    40895088
        0x0001cd88:    0270016f    o.p.    DCD    40894831
        0x0001cd8c:    02700270    p.p.    DCD    40895088
        0x0001cd90:    02700270    p.p.    DCD    40895088
        0x0001cd94:    02700270    p.p.    DCD    40895088
        0x0001cd98:    02700270    p.p.    DCD    40895088
        0x0001cd9c:    02700047    G.p.    DCD    40894535
        0x0001cda0:    02700119    ..p.    DCD    40894745
        0x0001cda4:    00bb0270    p...    DCD    12255856
    $t.5
        0x0001cda8:    981d        ..      LDR      r0,[sp,#0x74]
        0x0001cdaa:    1d01        ..      ADDS     r1,r0,#4
        0x0001cdac:    911d        ..      STR      r1,[sp,#0x74]
        0x0001cdae:    6800        .h      LDR      r0,[r0,#0]
        0x0001cdb0:    f88d0043    ..C.    STRB     r0,[sp,#0x43]
        0x0001cdb4:    981c        ..      LDR      r0,[sp,#0x70]
        0x0001cdb6:    b138        8.      CBZ      r0,0x1cdc8 ; am_util_stdio_vsprintf + 448
        0x0001cdb8:    e7ff        ..      B        0x1cdba ; am_util_stdio_vsprintf + 434
        0x0001cdba:    f89d0043    ..C.    LDRB     r0,[sp,#0x43]
        0x0001cdbe:    991c        ..      LDR      r1,[sp,#0x70]
        0x0001cdc0:    1c4a        J.      ADDS     r2,r1,#1
        0x0001cdc2:    921c        ..      STR      r2,[sp,#0x70]
        0x0001cdc4:    7008        .p      STRB     r0,[r1,#0]
        0x0001cdc6:    e7ff        ..      B        0x1cdc8 ; am_util_stdio_vsprintf + 448
        0x0001cdc8:    9814        ..      LDR      r0,[sp,#0x50]
        0x0001cdca:    3001        .0      ADDS     r0,#1
        0x0001cdcc:    9014        ..      STR      r0,[sp,#0x50]
        0x0001cdce:    e236        6.      B        0x1d23e ; am_util_stdio_vsprintf + 1590
        0x0001cdd0:    981d        ..      LDR      r0,[sp,#0x74]
        0x0001cdd2:    1d01        ..      ADDS     r1,r0,#4
        0x0001cdd4:    911d        ..      STR      r1,[sp,#0x74]
        0x0001cdd6:    6800        .h      LDR      r0,[r0,#0]
        0x0001cdd8:    901a        ..      STR      r0,[sp,#0x68]
        0x0001cdda:    981a        ..      LDR      r0,[sp,#0x68]
        0x0001cddc:    f001fc52    ..R.    BL       simple_strlen ; 0x1e684
        0x0001cde0:    900e        ..      STR      r0,[sp,#0x38]
        0x0001cde2:    9813        ..      LDR      r0,[sp,#0x4c]
        0x0001cde4:    2801        .(      CMP      r0,#1
        0x0001cde6:    db25        %.      BLT      0x1ce34 ; am_util_stdio_vsprintf + 556
        0x0001cde8:    e7ff        ..      B        0x1cdea ; am_util_stdio_vsprintf + 482
        0x0001cdea:    980e        ..      LDR      r0,[sp,#0x38]
        0x0001cdec:    9913        ..      LDR      r1,[sp,#0x4c]
        0x0001cdee:    4288        .B      CMP      r0,r1
        0x0001cdf0:    d21f        ..      BCS      0x1ce32 ; am_util_stdio_vsprintf + 554
        0x0001cdf2:    e7ff        ..      B        0x1cdf4 ; am_util_stdio_vsprintf + 492
        0x0001cdf4:    990e        ..      LDR      r1,[sp,#0x38]
        0x0001cdf6:    9813        ..      LDR      r0,[sp,#0x4c]
        0x0001cdf8:    1a40        @.      SUBS     r0,r0,r1
        0x0001cdfa:    9013        ..      STR      r0,[sp,#0x4c]
        0x0001cdfc:    981c        ..      LDR      r0,[sp,#0x70]
        0x0001cdfe:    f89d1042    ..B.    LDRB     r1,[sp,#0x42]
        0x0001ce02:    9a13        ..      LDR      r2,[sp,#0x4c]
        0x0001ce04:    f001fbbe    ....    BL       padbuffer ; 0x1e584
        0x0001ce08:    9013        ..      STR      r0,[sp,#0x4c]
        0x0001ce0a:    981c        ..      LDR      r0,[sp,#0x70]
        0x0001ce0c:    b118        ..      CBZ      r0,0x1ce16 ; am_util_stdio_vsprintf + 526
        0x0001ce0e:    e7ff        ..      B        0x1ce10 ; am_util_stdio_vsprintf + 520
        0x0001ce10:    9813        ..      LDR      r0,[sp,#0x4c]
        0x0001ce12:    900a        ..      STR      r0,[sp,#0x28]
        0x0001ce14:    e002        ..      B        0x1ce1c ; am_util_stdio_vsprintf + 532
        0x0001ce16:    2000        .       MOVS     r0,#0
        0x0001ce18:    900a        ..      STR      r0,[sp,#0x28]
        0x0001ce1a:    e7ff        ..      B        0x1ce1c ; am_util_stdio_vsprintf + 532
        0x0001ce1c:    990a        ..      LDR      r1,[sp,#0x28]
        0x0001ce1e:    981c        ..      LDR      r0,[sp,#0x70]
        0x0001ce20:    4408        .D      ADD      r0,r0,r1
        0x0001ce22:    901c        ..      STR      r0,[sp,#0x70]
        0x0001ce24:    9913        ..      LDR      r1,[sp,#0x4c]
        0x0001ce26:    9814        ..      LDR      r0,[sp,#0x50]
        0x0001ce28:    4408        .D      ADD      r0,r0,r1
        0x0001ce2a:    9014        ..      STR      r0,[sp,#0x50]
        0x0001ce2c:    2000        .       MOVS     r0,#0
        0x0001ce2e:    9013        ..      STR      r0,[sp,#0x4c]
        0x0001ce30:    e7ff        ..      B        0x1ce32 ; am_util_stdio_vsprintf + 554
        0x0001ce32:    e7ff        ..      B        0x1ce34 ; am_util_stdio_vsprintf + 556
        0x0001ce34:    e7ff        ..      B        0x1ce36 ; am_util_stdio_vsprintf + 558
        0x0001ce36:    981a        ..      LDR      r0,[sp,#0x68]
        0x0001ce38:    7800        .x      LDRB     r0,[r0,#0]
        0x0001ce3a:    b188        ..      CBZ      r0,0x1ce60 ; am_util_stdio_vsprintf + 600
        0x0001ce3c:    e7ff        ..      B        0x1ce3e ; am_util_stdio_vsprintf + 566
        0x0001ce3e:    981c        ..      LDR      r0,[sp,#0x70]
        0x0001ce40:    b138        8.      CBZ      r0,0x1ce52 ; am_util_stdio_vsprintf + 586
        0x0001ce42:    e7ff        ..      B        0x1ce44 ; am_util_stdio_vsprintf + 572
        0x0001ce44:    981a        ..      LDR      r0,[sp,#0x68]
        0x0001ce46:    7800        .x      LDRB     r0,[r0,#0]
        0x0001ce48:    991c        ..      LDR      r1,[sp,#0x70]
        0x0001ce4a:    1c4a        J.      ADDS     r2,r1,#1
        0x0001ce4c:    921c        ..      STR      r2,[sp,#0x70]
        0x0001ce4e:    7008        .p      STRB     r0,[r1,#0]
        0x0001ce50:    e7ff        ..      B        0x1ce52 ; am_util_stdio_vsprintf + 586
        0x0001ce52:    981a        ..      LDR      r0,[sp,#0x68]
        0x0001ce54:    3001        .0      ADDS     r0,#1
        0x0001ce56:    901a        ..      STR      r0,[sp,#0x68]
        0x0001ce58:    9814        ..      LDR      r0,[sp,#0x50]
        0x0001ce5a:    3001        .0      ADDS     r0,#1
        0x0001ce5c:    9014        ..      STR      r0,[sp,#0x50]
        0x0001ce5e:    e7ea        ..      B        0x1ce36 ; am_util_stdio_vsprintf + 558
        0x0001ce60:    9813        ..      LDR      r0,[sp,#0x4c]
        0x0001ce62:    b340        @.      CBZ      r0,0x1ceb6 ; am_util_stdio_vsprintf + 686
        0x0001ce64:    e7ff        ..      B        0x1ce66 ; am_util_stdio_vsprintf + 606
        0x0001ce66:    9813        ..      LDR      r0,[sp,#0x4c]
        0x0001ce68:    4240        @B      RSBS     r0,r0,#0
        0x0001ce6a:    9013        ..      STR      r0,[sp,#0x4c]
        0x0001ce6c:    980e        ..      LDR      r0,[sp,#0x38]
        0x0001ce6e:    9913        ..      LDR      r1,[sp,#0x4c]
        0x0001ce70:    4288        .B      CMP      r0,r1
        0x0001ce72:    d21f        ..      BCS      0x1ceb4 ; am_util_stdio_vsprintf + 684
        0x0001ce74:    e7ff        ..      B        0x1ce76 ; am_util_stdio_vsprintf + 622
        0x0001ce76:    990e        ..      LDR      r1,[sp,#0x38]
        0x0001ce78:    9813        ..      LDR      r0,[sp,#0x4c]
        0x0001ce7a:    1a40        @.      SUBS     r0,r0,r1
        0x0001ce7c:    9013        ..      STR      r0,[sp,#0x4c]
        0x0001ce7e:    981c        ..      LDR      r0,[sp,#0x70]
        0x0001ce80:    f89d1042    ..B.    LDRB     r1,[sp,#0x42]
        0x0001ce84:    9a13        ..      LDR      r2,[sp,#0x4c]
        0x0001ce86:    f001fb7d    ..}.    BL       padbuffer ; 0x1e584
        0x0001ce8a:    9013        ..      STR      r0,[sp,#0x4c]
        0x0001ce8c:    981c        ..      LDR      r0,[sp,#0x70]
        0x0001ce8e:    b118        ..      CBZ      r0,0x1ce98 ; am_util_stdio_vsprintf + 656
        0x0001ce90:    e7ff        ..      B        0x1ce92 ; am_util_stdio_vsprintf + 650
        0x0001ce92:    9813        ..      LDR      r0,[sp,#0x4c]
        0x0001ce94:    9009        ..      STR      r0,[sp,#0x24]
        0x0001ce96:    e002        ..      B        0x1ce9e ; am_util_stdio_vsprintf + 662
        0x0001ce98:    2000        .       MOVS     r0,#0
        0x0001ce9a:    9009        ..      STR      r0,[sp,#0x24]
        0x0001ce9c:    e7ff        ..      B        0x1ce9e ; am_util_stdio_vsprintf + 662
        0x0001ce9e:    9909        ..      LDR      r1,[sp,#0x24]
        0x0001cea0:    981c        ..      LDR      r0,[sp,#0x70]
        0x0001cea2:    4408        .D      ADD      r0,r0,r1
        0x0001cea4:    901c        ..      STR      r0,[sp,#0x70]
        0x0001cea6:    9913        ..      LDR      r1,[sp,#0x4c]
        0x0001cea8:    9814        ..      LDR      r0,[sp,#0x50]
        0x0001ceaa:    4408        .D      ADD      r0,r0,r1
        0x0001ceac:    9014        ..      STR      r0,[sp,#0x50]
        0x0001ceae:    2000        .       MOVS     r0,#0
        0x0001ceb0:    9013        ..      STR      r0,[sp,#0x4c]
        0x0001ceb2:    e7ff        ..      B        0x1ceb4 ; am_util_stdio_vsprintf + 684
        0x0001ceb4:    e7ff        ..      B        0x1ceb6 ; am_util_stdio_vsprintf + 686
        0x0001ceb6:    e1c2        ..      B        0x1d23e ; am_util_stdio_vsprintf + 1590
        0x0001ceb8:    2001        .       MOVS     r0,#1
        0x0001ceba:    f88d0041    ..A.    STRB     r0,[sp,#0x41]
        0x0001cebe:    e7ff        ..      B        0x1cec0 ; am_util_stdio_vsprintf + 696
        0x0001cec0:    f89d0040    ..@.    LDRB     r0,[sp,#0x40]
        0x0001cec4:    07c0        ..      LSLS     r0,r0,#31
        0x0001cec6:    b160        `.      CBZ      r0,0x1cee2 ; am_util_stdio_vsprintf + 730
        0x0001cec8:    e7ff        ..      B        0x1ceca ; am_util_stdio_vsprintf + 706
        0x0001ceca:    981d        ..      LDR      r0,[sp,#0x74]
        0x0001cecc:    3007        .0      ADDS     r0,#7
        0x0001cece:    f0200007     ...    BIC      r0,r0,#7
        0x0001ced2:    f1000108    ....    ADD      r1,r0,#8
        0x0001ced6:    911d        ..      STR      r1,[sp,#0x74]
        0x0001ced8:    6801        .h      LDR      r1,[r0,#0]
        0x0001ceda:    6840        @h      LDR      r0,[r0,#4]
        0x0001cedc:    9107        ..      STR      r1,[sp,#0x1c]
        0x0001cede:    9008        ..      STR      r0,[sp,#0x20]
        0x0001cee0:    e007        ..      B        0x1cef2 ; am_util_stdio_vsprintf + 746
        0x0001cee2:    981d        ..      LDR      r0,[sp,#0x74]
        0x0001cee4:    1d01        ..      ADDS     r1,r0,#4
        0x0001cee6:    911d        ..      STR      r1,[sp,#0x74]
        0x0001cee8:    6801        .h      LDR      r1,[r0,#0]
        0x0001ceea:    2000        .       MOVS     r0,#0
        0x0001ceec:    9107        ..      STR      r1,[sp,#0x1c]
        0x0001ceee:    9008        ..      STR      r0,[sp,#0x20]
        0x0001cef0:    e7ff        ..      B        0x1cef2 ; am_util_stdio_vsprintf + 746
        0x0001cef2:    9907        ..      LDR      r1,[sp,#0x1c]
        0x0001cef4:    9808        ..      LDR      r0,[sp,#0x20]
        0x0001cef6:    9118        ..      STR      r1,[sp,#0x60]
        0x0001cef8:    9019        ..      STR      r0,[sp,#0x64]
        0x0001cefa:    9813        ..      LDR      r0,[sp,#0x4c]
        0x0001cefc:    b318        ..      CBZ      r0,0x1cf46 ; am_util_stdio_vsprintf + 830
        0x0001cefe:    e7ff        ..      B        0x1cf00 ; am_util_stdio_vsprintf + 760
        0x0001cf00:    9818        ..      LDR      r0,[sp,#0x60]
        0x0001cf02:    9919        ..      LDR      r1,[sp,#0x64]
        0x0001cf04:    f001fae8    ....    BL       ndigits_in_hex ; 0x1e4d8
        0x0001cf08:    4601        .F      MOV      r1,r0
        0x0001cf0a:    9813        ..      LDR      r0,[sp,#0x4c]
        0x0001cf0c:    1a40        @.      SUBS     r0,r0,r1
        0x0001cf0e:    9013        ..      STR      r0,[sp,#0x4c]
        0x0001cf10:    981c        ..      LDR      r0,[sp,#0x70]
        0x0001cf12:    f89d1042    ..B.    LDRB     r1,[sp,#0x42]
        0x0001cf16:    9a13        ..      LDR      r2,[sp,#0x4c]
        0x0001cf18:    f001fb34    ..4.    BL       padbuffer ; 0x1e584
        0x0001cf1c:    9013        ..      STR      r0,[sp,#0x4c]
        0x0001cf1e:    981c        ..      LDR      r0,[sp,#0x70]
        0x0001cf20:    b118        ..      CBZ      r0,0x1cf2a ; am_util_stdio_vsprintf + 802
        0x0001cf22:    e7ff        ..      B        0x1cf24 ; am_util_stdio_vsprintf + 796
        0x0001cf24:    9813        ..      LDR      r0,[sp,#0x4c]
        0x0001cf26:    9006        ..      STR      r0,[sp,#0x18]
        0x0001cf28:    e002        ..      B        0x1cf30 ; am_util_stdio_vsprintf + 808
        0x0001cf2a:    2000        .       MOVS     r0,#0
        0x0001cf2c:    9006        ..      STR      r0,[sp,#0x18]
        0x0001cf2e:    e7ff        ..      B        0x1cf30 ; am_util_stdio_vsprintf + 808
        0x0001cf30:    9906        ..      LDR      r1,[sp,#0x18]
        0x0001cf32:    981c        ..      LDR      r0,[sp,#0x70]
        0x0001cf34:    4408        .D      ADD      r0,r0,r1
        0x0001cf36:    901c        ..      STR      r0,[sp,#0x70]
        0x0001cf38:    9913        ..      LDR      r1,[sp,#0x4c]
        0x0001cf3a:    9814        ..      LDR      r0,[sp,#0x50]
        0x0001cf3c:    4408        .D      ADD      r0,r0,r1
        0x0001cf3e:    9014        ..      STR      r0,[sp,#0x50]
        0x0001cf40:    2000        .       MOVS     r0,#0
        0x0001cf42:    9013        ..      STR      r0,[sp,#0x4c]
        0x0001cf44:    e7ff        ..      B        0x1cf46 ; am_util_stdio_vsprintf + 830
        0x0001cf46:    9818        ..      LDR      r0,[sp,#0x60]
        0x0001cf48:    9919        ..      LDR      r1,[sp,#0x64]
        0x0001cf4a:    9a1c        ..      LDR      r2,[sp,#0x70]
        0x0001cf4c:    f89d3041    ..A0    LDRB     r3,[sp,#0x41]
        0x0001cf50:    f0030301    ....    AND      r3,r3,#1
        0x0001cf54:    f001fbb2    ....    BL       uint64_to_hexstr ; 0x1e6bc
        0x0001cf58:    9012        ..      STR      r0,[sp,#0x48]
        0x0001cf5a:    981c        ..      LDR      r0,[sp,#0x70]
        0x0001cf5c:    b128        (.      CBZ      r0,0x1cf6a ; am_util_stdio_vsprintf + 866
        0x0001cf5e:    e7ff        ..      B        0x1cf60 ; am_util_stdio_vsprintf + 856
        0x0001cf60:    9912        ..      LDR      r1,[sp,#0x48]
        0x0001cf62:    981c        ..      LDR      r0,[sp,#0x70]
        0x0001cf64:    4408        .D      ADD      r0,r0,r1
        0x0001cf66:    901c        ..      STR      r0,[sp,#0x70]
        0x0001cf68:    e7ff        ..      B        0x1cf6a ; am_util_stdio_vsprintf + 866
        0x0001cf6a:    9912        ..      LDR      r1,[sp,#0x48]
        0x0001cf6c:    9814        ..      LDR      r0,[sp,#0x50]
        0x0001cf6e:    4408        .D      ADD      r0,r0,r1
        0x0001cf70:    9014        ..      STR      r0,[sp,#0x50]
        0x0001cf72:    e164        d.      B        0x1d23e ; am_util_stdio_vsprintf + 1590
        0x0001cf74:    f89d0040    ..@.    LDRB     r0,[sp,#0x40]
        0x0001cf78:    07c0        ..      LSLS     r0,r0,#31
        0x0001cf7a:    b160        `.      CBZ      r0,0x1cf96 ; am_util_stdio_vsprintf + 910
        0x0001cf7c:    e7ff        ..      B        0x1cf7e ; am_util_stdio_vsprintf + 886
        0x0001cf7e:    981d        ..      LDR      r0,[sp,#0x74]
        0x0001cf80:    3007        .0      ADDS     r0,#7
        0x0001cf82:    f0200007     ...    BIC      r0,r0,#7
        0x0001cf86:    f1000108    ....    ADD      r1,r0,#8
        0x0001cf8a:    911d        ..      STR      r1,[sp,#0x74]
        0x0001cf8c:    6801        .h      LDR      r1,[r0,#0]
        0x0001cf8e:    6840        @h      LDR      r0,[r0,#4]
        0x0001cf90:    9104        ..      STR      r1,[sp,#0x10]
        0x0001cf92:    9005        ..      STR      r0,[sp,#0x14]
        0x0001cf94:    e007        ..      B        0x1cfa6 ; am_util_stdio_vsprintf + 926
        0x0001cf96:    981d        ..      LDR      r0,[sp,#0x74]
        0x0001cf98:    1d01        ..      ADDS     r1,r0,#4
        0x0001cf9a:    911d        ..      STR      r1,[sp,#0x74]
        0x0001cf9c:    6801        .h      LDR      r1,[r0,#0]
        0x0001cf9e:    2000        .       MOVS     r0,#0
        0x0001cfa0:    9104        ..      STR      r1,[sp,#0x10]
        0x0001cfa2:    9005        ..      STR      r0,[sp,#0x14]
        0x0001cfa4:    e7ff        ..      B        0x1cfa6 ; am_util_stdio_vsprintf + 926
        0x0001cfa6:    9904        ..      LDR      r1,[sp,#0x10]
        0x0001cfa8:    9805        ..      LDR      r0,[sp,#0x14]
        0x0001cfaa:    9118        ..      STR      r1,[sp,#0x60]
        0x0001cfac:    9019        ..      STR      r0,[sp,#0x64]
        0x0001cfae:    9813        ..      LDR      r0,[sp,#0x4c]
        0x0001cfb0:    b318        ..      CBZ      r0,0x1cffa ; am_util_stdio_vsprintf + 1010
        0x0001cfb2:    e7ff        ..      B        0x1cfb4 ; am_util_stdio_vsprintf + 940
        0x0001cfb4:    9818        ..      LDR      r0,[sp,#0x60]
        0x0001cfb6:    9919        ..      LDR      r1,[sp,#0x64]
        0x0001cfb8:    f001fac6    ....    BL       ndigits_in_u64 ; 0x1e548
        0x0001cfbc:    4601        .F      MOV      r1,r0
        0x0001cfbe:    9813        ..      LDR      r0,[sp,#0x4c]
        0x0001cfc0:    1a40        @.      SUBS     r0,r0,r1
        0x0001cfc2:    9013        ..      STR      r0,[sp,#0x4c]
        0x0001cfc4:    981c        ..      LDR      r0,[sp,#0x70]
        0x0001cfc6:    f89d1042    ..B.    LDRB     r1,[sp,#0x42]
        0x0001cfca:    9a13        ..      LDR      r2,[sp,#0x4c]
        0x0001cfcc:    f001fada    ....    BL       padbuffer ; 0x1e584
        0x0001cfd0:    9013        ..      STR      r0,[sp,#0x4c]
        0x0001cfd2:    981c        ..      LDR      r0,[sp,#0x70]
        0x0001cfd4:    b118        ..      CBZ      r0,0x1cfde ; am_util_stdio_vsprintf + 982
        0x0001cfd6:    e7ff        ..      B        0x1cfd8 ; am_util_stdio_vsprintf + 976
        0x0001cfd8:    9813        ..      LDR      r0,[sp,#0x4c]
        0x0001cfda:    9003        ..      STR      r0,[sp,#0xc]
        0x0001cfdc:    e002        ..      B        0x1cfe4 ; am_util_stdio_vsprintf + 988
        0x0001cfde:    2000        .       MOVS     r0,#0
        0x0001cfe0:    9003        ..      STR      r0,[sp,#0xc]
        0x0001cfe2:    e7ff        ..      B        0x1cfe4 ; am_util_stdio_vsprintf + 988
        0x0001cfe4:    9903        ..      LDR      r1,[sp,#0xc]
        0x0001cfe6:    981c        ..      LDR      r0,[sp,#0x70]
        0x0001cfe8:    4408        .D      ADD      r0,r0,r1
        0x0001cfea:    901c        ..      STR      r0,[sp,#0x70]
        0x0001cfec:    9913        ..      LDR      r1,[sp,#0x4c]
        0x0001cfee:    9814        ..      LDR      r0,[sp,#0x50]
        0x0001cff0:    4408        .D      ADD      r0,r0,r1
        0x0001cff2:    9014        ..      STR      r0,[sp,#0x50]
        0x0001cff4:    2000        .       MOVS     r0,#0
        0x0001cff6:    9013        ..      STR      r0,[sp,#0x4c]
        0x0001cff8:    e7ff        ..      B        0x1cffa ; am_util_stdio_vsprintf + 1010
        0x0001cffa:    9818        ..      LDR      r0,[sp,#0x60]
        0x0001cffc:    9919        ..      LDR      r1,[sp,#0x64]
        0x0001cffe:    9a1c        ..      LDR      r2,[sp,#0x70]
        0x0001d000:    f001fbbc    ....    BL       uint64_to_str ; 0x1e77c
        0x0001d004:    9012        ..      STR      r0,[sp,#0x48]
        0x0001d006:    981c        ..      LDR      r0,[sp,#0x70]
        0x0001d008:    b128        (.      CBZ      r0,0x1d016 ; am_util_stdio_vsprintf + 1038
        0x0001d00a:    e7ff        ..      B        0x1d00c ; am_util_stdio_vsprintf + 1028
        0x0001d00c:    9912        ..      LDR      r1,[sp,#0x48]
        0x0001d00e:    981c        ..      LDR      r0,[sp,#0x70]
        0x0001d010:    4408        .D      ADD      r0,r0,r1
        0x0001d012:    901c        ..      STR      r0,[sp,#0x70]
        0x0001d014:    e7ff        ..      B        0x1d016 ; am_util_stdio_vsprintf + 1038
        0x0001d016:    9912        ..      LDR      r1,[sp,#0x48]
        0x0001d018:    9814        ..      LDR      r0,[sp,#0x50]
        0x0001d01a:    4408        .D      ADD      r0,r0,r1
        0x0001d01c:    9014        ..      STR      r0,[sp,#0x50]
        0x0001d01e:    e10e        ..      B        0x1d23e ; am_util_stdio_vsprintf + 1590
        0x0001d020:    f89d0040    ..@.    LDRB     r0,[sp,#0x40]
        0x0001d024:    07c0        ..      LSLS     r0,r0,#31
        0x0001d026:    b160        `.      CBZ      r0,0x1d042 ; am_util_stdio_vsprintf + 1082
        0x0001d028:    e7ff        ..      B        0x1d02a ; am_util_stdio_vsprintf + 1058
        0x0001d02a:    981d        ..      LDR      r0,[sp,#0x74]
        0x0001d02c:    3007        .0      ADDS     r0,#7
        0x0001d02e:    f0200007     ...    BIC      r0,r0,#7
        0x0001d032:    f1000108    ....    ADD      r1,r0,#8
        0x0001d036:    911d        ..      STR      r1,[sp,#0x74]
        0x0001d038:    6801        .h      LDR      r1,[r0,#0]
        0x0001d03a:    6840        @h      LDR      r0,[r0,#4]
        0x0001d03c:    9101        ..      STR      r1,[sp,#4]
        0x0001d03e:    9002        ..      STR      r0,[sp,#8]
        0x0001d040:    e007        ..      B        0x1d052 ; am_util_stdio_vsprintf + 1098
        0x0001d042:    981d        ..      LDR      r0,[sp,#0x74]
        0x0001d044:    1d01        ..      ADDS     r1,r0,#4
        0x0001d046:    911d        ..      STR      r1,[sp,#0x74]
        0x0001d048:    6801        .h      LDR      r1,[r0,#0]
        0x0001d04a:    17c8        ..      ASRS     r0,r1,#31
        0x0001d04c:    9101        ..      STR      r1,[sp,#4]
        0x0001d04e:    9002        ..      STR      r0,[sp,#8]
        0x0001d050:    e7ff        ..      B        0x1d052 ; am_util_stdio_vsprintf + 1098
        0x0001d052:    9901        ..      LDR      r1,[sp,#4]
        0x0001d054:    9802        ..      LDR      r0,[sp,#8]
        0x0001d056:    9116        ..      STR      r1,[sp,#0x58]
        0x0001d058:    9017        ..      STR      r0,[sp,#0x5c]
        0x0001d05a:    9817        ..      LDR      r0,[sp,#0x5c]
        0x0001d05c:    f1b03fff    ...?    CMP      r0,#0xffffffff
        0x0001d060:    dc0c        ..      BGT      0x1d07c ; am_util_stdio_vsprintf + 1140
        0x0001d062:    e7ff        ..      B        0x1d064 ; am_util_stdio_vsprintf + 1116
        0x0001d064:    9816        ..      LDR      r0,[sp,#0x58]
        0x0001d066:    9a17        ..      LDR      r2,[sp,#0x5c]
        0x0001d068:    4241        AB      RSBS     r1,r0,#0
        0x0001d06a:    f04f0000    O...    MOV      r0,#0
        0x0001d06e:    4190        .A      SBCS     r0,r0,r2
        0x0001d070:    9118        ..      STR      r1,[sp,#0x60]
        0x0001d072:    9019        ..      STR      r0,[sp,#0x64]
        0x0001d074:    2001        .       MOVS     r0,#1
        0x0001d076:    f88d003f    ..?.    STRB     r0,[sp,#0x3f]
        0x0001d07a:    e007        ..      B        0x1d08c ; am_util_stdio_vsprintf + 1156
        0x0001d07c:    9816        ..      LDR      r0,[sp,#0x58]
        0x0001d07e:    9917        ..      LDR      r1,[sp,#0x5c]
        0x0001d080:    9119        ..      STR      r1,[sp,#0x64]
        0x0001d082:    9018        ..      STR      r0,[sp,#0x60]
        0x0001d084:    2000        .       MOVS     r0,#0
        0x0001d086:    f88d003f    ..?.    STRB     r0,[sp,#0x3f]
        0x0001d08a:    e7ff        ..      B        0x1d08c ; am_util_stdio_vsprintf + 1156
        0x0001d08c:    9813        ..      LDR      r0,[sp,#0x4c]
        0x0001d08e:    2800        .(      CMP      r0,#0
        0x0001d090:    d055        U.      BEQ      0x1d13e ; am_util_stdio_vsprintf + 1334
        0x0001d092:    e7ff        ..      B        0x1d094 ; am_util_stdio_vsprintf + 1164
        0x0001d094:    9818        ..      LDR      r0,[sp,#0x60]
        0x0001d096:    9919        ..      LDR      r1,[sp,#0x64]
        0x0001d098:    f001fa3e    ..>.    BL       ndigits_in_i64 ; 0x1e518
        0x0001d09c:    4601        .F      MOV      r1,r0
        0x0001d09e:    9813        ..      LDR      r0,[sp,#0x4c]
        0x0001d0a0:    1a40        @.      SUBS     r0,r0,r1
        0x0001d0a2:    9013        ..      STR      r0,[sp,#0x4c]
        0x0001d0a4:    f89d003f    ..?.    LDRB     r0,[sp,#0x3f]
        0x0001d0a8:    07c0        ..      LSLS     r0,r0,#31
        0x0001d0aa:    b1b0        ..      CBZ      r0,0x1d0da ; am_util_stdio_vsprintf + 1234
        0x0001d0ac:    e7ff        ..      B        0x1d0ae ; am_util_stdio_vsprintf + 1190
        0x0001d0ae:    9813        ..      LDR      r0,[sp,#0x4c]
        0x0001d0b0:    3801        .8      SUBS     r0,#1
        0x0001d0b2:    9013        ..      STR      r0,[sp,#0x4c]
        0x0001d0b4:    f89d0042    ..B.    LDRB     r0,[sp,#0x42]
        0x0001d0b8:    2830        0(      CMP      r0,#0x30
        0x0001d0ba:    d10d        ..      BNE      0x1d0d8 ; am_util_stdio_vsprintf + 1232
        0x0001d0bc:    e7ff        ..      B        0x1d0be ; am_util_stdio_vsprintf + 1206
        0x0001d0be:    981c        ..      LDR      r0,[sp,#0x70]
        0x0001d0c0:    b130        0.      CBZ      r0,0x1d0d0 ; am_util_stdio_vsprintf + 1224
        0x0001d0c2:    e7ff        ..      B        0x1d0c4 ; am_util_stdio_vsprintf + 1212
        0x0001d0c4:    991c        ..      LDR      r1,[sp,#0x70]
        0x0001d0c6:    1c48        H.      ADDS     r0,r1,#1
        0x0001d0c8:    901c        ..      STR      r0,[sp,#0x70]
        0x0001d0ca:    202d        -       MOVS     r0,#0x2d
        0x0001d0cc:    7008        .p      STRB     r0,[r1,#0]
        0x0001d0ce:    e7ff        ..      B        0x1d0d0 ; am_util_stdio_vsprintf + 1224
        0x0001d0d0:    9814        ..      LDR      r0,[sp,#0x50]
        0x0001d0d2:    3001        .0      ADDS     r0,#1
        0x0001d0d4:    9014        ..      STR      r0,[sp,#0x50]
        0x0001d0d6:    e7ff        ..      B        0x1d0d8 ; am_util_stdio_vsprintf + 1232
        0x0001d0d8:    e7ff        ..      B        0x1d0da ; am_util_stdio_vsprintf + 1234
        0x0001d0da:    981c        ..      LDR      r0,[sp,#0x70]
        0x0001d0dc:    f89d1042    ..B.    LDRB     r1,[sp,#0x42]
        0x0001d0e0:    9a13        ..      LDR      r2,[sp,#0x4c]
        0x0001d0e2:    f001fa4f    ..O.    BL       padbuffer ; 0x1e584
        0x0001d0e6:    9013        ..      STR      r0,[sp,#0x4c]
        0x0001d0e8:    981c        ..      LDR      r0,[sp,#0x70]
        0x0001d0ea:    b118        ..      CBZ      r0,0x1d0f4 ; am_util_stdio_vsprintf + 1260
        0x0001d0ec:    e7ff        ..      B        0x1d0ee ; am_util_stdio_vsprintf + 1254
        0x0001d0ee:    9813        ..      LDR      r0,[sp,#0x4c]
        0x0001d0f0:    9000        ..      STR      r0,[sp,#0]
        0x0001d0f2:    e002        ..      B        0x1d0fa ; am_util_stdio_vsprintf + 1266
        0x0001d0f4:    2000        .       MOVS     r0,#0
        0x0001d0f6:    9000        ..      STR      r0,[sp,#0]
        0x0001d0f8:    e7ff        ..      B        0x1d0fa ; am_util_stdio_vsprintf + 1266
        0x0001d0fa:    9900        ..      LDR      r1,[sp,#0]
        0x0001d0fc:    981c        ..      LDR      r0,[sp,#0x70]
        0x0001d0fe:    4408        .D      ADD      r0,r0,r1
        0x0001d100:    901c        ..      STR      r0,[sp,#0x70]
        0x0001d102:    9913        ..      LDR      r1,[sp,#0x4c]
        0x0001d104:    9814        ..      LDR      r0,[sp,#0x50]
        0x0001d106:    4408        .D      ADD      r0,r0,r1
        0x0001d108:    9014        ..      STR      r0,[sp,#0x50]
        0x0001d10a:    2000        .       MOVS     r0,#0
        0x0001d10c:    9013        ..      STR      r0,[sp,#0x4c]
        0x0001d10e:    f89d003f    ..?.    LDRB     r0,[sp,#0x3f]
        0x0001d112:    07c0        ..      LSLS     r0,r0,#31
        0x0001d114:    b190        ..      CBZ      r0,0x1d13c ; am_util_stdio_vsprintf + 1332
        0x0001d116:    e7ff        ..      B        0x1d118 ; am_util_stdio_vsprintf + 1296
        0x0001d118:    f89d0042    ..B.    LDRB     r0,[sp,#0x42]
        0x0001d11c:    2820         (      CMP      r0,#0x20
        0x0001d11e:    d10d        ..      BNE      0x1d13c ; am_util_stdio_vsprintf + 1332
        0x0001d120:    e7ff        ..      B        0x1d122 ; am_util_stdio_vsprintf + 1306
        0x0001d122:    981c        ..      LDR      r0,[sp,#0x70]
        0x0001d124:    b130        0.      CBZ      r0,0x1d134 ; am_util_stdio_vsprintf + 1324
        0x0001d126:    e7ff        ..      B        0x1d128 ; am_util_stdio_vsprintf + 1312
        0x0001d128:    991c        ..      LDR      r1,[sp,#0x70]
        0x0001d12a:    1c48        H.      ADDS     r0,r1,#1
        0x0001d12c:    901c        ..      STR      r0,[sp,#0x70]
        0x0001d12e:    202d        -       MOVS     r0,#0x2d
        0x0001d130:    7008        .p      STRB     r0,[r1,#0]
        0x0001d132:    e7ff        ..      B        0x1d134 ; am_util_stdio_vsprintf + 1324
        0x0001d134:    9814        ..      LDR      r0,[sp,#0x50]
        0x0001d136:    3001        .0      ADDS     r0,#1
        0x0001d138:    9014        ..      STR      r0,[sp,#0x50]
        0x0001d13a:    e7ff        ..      B        0x1d13c ; am_util_stdio_vsprintf + 1332
        0x0001d13c:    e012        ..      B        0x1d164 ; am_util_stdio_vsprintf + 1372
        0x0001d13e:    f89d003f    ..?.    LDRB     r0,[sp,#0x3f]
        0x0001d142:    07c0        ..      LSLS     r0,r0,#31
        0x0001d144:    b168        h.      CBZ      r0,0x1d162 ; am_util_stdio_vsprintf + 1370
        0x0001d146:    e7ff        ..      B        0x1d148 ; am_util_stdio_vsprintf + 1344
        0x0001d148:    981c        ..      LDR      r0,[sp,#0x70]
        0x0001d14a:    b130        0.      CBZ      r0,0x1d15a ; am_util_stdio_vsprintf + 1362
        0x0001d14c:    e7ff        ..      B        0x1d14e ; am_util_stdio_vsprintf + 1350
        0x0001d14e:    991c        ..      LDR      r1,[sp,#0x70]
        0x0001d150:    1c48        H.      ADDS     r0,r1,#1
        0x0001d152:    901c        ..      STR      r0,[sp,#0x70]
        0x0001d154:    202d        -       MOVS     r0,#0x2d
        0x0001d156:    7008        .p      STRB     r0,[r1,#0]
        0x0001d158:    e7ff        ..      B        0x1d15a ; am_util_stdio_vsprintf + 1362
        0x0001d15a:    9814        ..      LDR      r0,[sp,#0x50]
        0x0001d15c:    3001        .0      ADDS     r0,#1
        0x0001d15e:    9014        ..      STR      r0,[sp,#0x50]
        0x0001d160:    e7ff        ..      B        0x1d162 ; am_util_stdio_vsprintf + 1370
        0x0001d162:    e7ff        ..      B        0x1d164 ; am_util_stdio_vsprintf + 1372
        0x0001d164:    9818        ..      LDR      r0,[sp,#0x60]
        0x0001d166:    9919        ..      LDR      r1,[sp,#0x64]
        0x0001d168:    9a1c        ..      LDR      r2,[sp,#0x70]
        0x0001d16a:    f001fb07    ....    BL       uint64_to_str ; 0x1e77c
        0x0001d16e:    9012        ..      STR      r0,[sp,#0x48]
        0x0001d170:    981c        ..      LDR      r0,[sp,#0x70]
        0x0001d172:    b128        (.      CBZ      r0,0x1d180 ; am_util_stdio_vsprintf + 1400
        0x0001d174:    e7ff        ..      B        0x1d176 ; am_util_stdio_vsprintf + 1390
        0x0001d176:    9912        ..      LDR      r1,[sp,#0x48]
        0x0001d178:    981c        ..      LDR      r0,[sp,#0x70]
        0x0001d17a:    4408        .D      ADD      r0,r0,r1
        0x0001d17c:    901c        ..      STR      r0,[sp,#0x70]
        0x0001d17e:    e7ff        ..      B        0x1d180 ; am_util_stdio_vsprintf + 1400
        0x0001d180:    9912        ..      LDR      r1,[sp,#0x48]
        0x0001d182:    9814        ..      LDR      r0,[sp,#0x50]
        0x0001d184:    4408        .D      ADD      r0,r0,r1
        0x0001d186:    9014        ..      STR      r0,[sp,#0x50]
        0x0001d188:    e059        Y.      B        0x1d23e ; am_util_stdio_vsprintf + 1590
        0x0001d18a:    981c        ..      LDR      r0,[sp,#0x70]
        0x0001d18c:    2800        .(      CMP      r0,#0
        0x0001d18e:    d047        G.      BEQ      0x1d220 ; am_util_stdio_vsprintf + 1560
        0x0001d190:    e7ff        ..      B        0x1d192 ; am_util_stdio_vsprintf + 1418
        0x0001d192:    981d        ..      LDR      r0,[sp,#0x74]
        0x0001d194:    3007        .0      ADDS     r0,#7
        0x0001d196:    f0200007     ...    BIC      r0,r0,#7
        0x0001d19a:    f1000108    ....    ADD      r1,r0,#8
        0x0001d19e:    911d        ..      STR      r1,[sp,#0x74]
        0x0001d1a0:    ed900b00    ....    VLDR     d0,[r0,#0]
        0x0001d1a4:    ec510b10    Q...    VMOV     r0,r1,d0
        0x0001d1a8:    f001fb2c    ..,.    BL       __aeabi_d2f ; 0x1e804
        0x0001d1ac:    900d        ..      STR      r0,[sp,#0x34]
        0x0001d1ae:    991c        ..      LDR      r1,[sp,#0x70]
        0x0001d1b0:    2014        .       MOVS     r0,#0x14
        0x0001d1b2:    6008        .`      STR      r0,[r1,#0]
        0x0001d1b4:    ed9d0a0d    ....    VLDR     s0,[sp,#0x34]
        0x0001d1b8:    981c        ..      LDR      r0,[sp,#0x70]
        0x0001d1ba:    9911        ..      LDR      r1,[sp,#0x44]
        0x0001d1bc:    f000f9e6    ....    BL       ftoa ; 0x1d58c
        0x0001d1c0:    9012        ..      STR      r0,[sp,#0x48]
        0x0001d1c2:    9812        ..      LDR      r0,[sp,#0x48]
        0x0001d1c4:    f1b03fff    ...?    CMP      r0,#0xffffffff
        0x0001d1c8:    dc21        !.      BGT      0x1d20e ; am_util_stdio_vsprintf + 1542
        0x0001d1ca:    e7ff        ..      B        0x1d1cc ; am_util_stdio_vsprintf + 1476
        0x0001d1cc:    9812        ..      LDR      r0,[sp,#0x48]
        0x0001d1ce:    3001        .0      ADDS     r0,#1
        0x0001d1d0:    b930        0.      CBNZ     r0,0x1d1e0 ; am_util_stdio_vsprintf + 1496
        0x0001d1d2:    e7ff        ..      B        0x1d1d4 ; am_util_stdio_vsprintf + 1484
        0x0001d1d4:    f6426030    B.0`    MOV      r0,#0x2e30
        0x0001d1d8:    f2c00030    ..0.    MOVT     r0,#0x30
        0x0001d1dc:    900c        ..      STR      r0,[sp,#0x30]
        0x0001d1de:    e010        ..      B        0x1d202 ; am_util_stdio_vsprintf + 1530
        0x0001d1e0:    9812        ..      LDR      r0,[sp,#0x48]
        0x0001d1e2:    3002        .0      ADDS     r0,#2
        0x0001d1e4:    b930        0.      CBNZ     r0,0x1d1f4 ; am_util_stdio_vsprintf + 1516
        0x0001d1e6:    e7ff        ..      B        0x1d1e8 ; am_util_stdio_vsprintf + 1504
        0x0001d1e8:    f6426023    B.#`    MOV      r0,#0x2e23
        0x0001d1ec:    f2c00023    ..#.    MOVT     r0,#0x23
        0x0001d1f0:    900c        ..      STR      r0,[sp,#0x30]
        0x0001d1f2:    e005        ..      B        0x1d200 ; am_util_stdio_vsprintf + 1528
        0x0001d1f4:    f642603f    B.?`    MOV      r0,#0x2e3f
        0x0001d1f8:    f2c0003f    ..?.    MOVT     r0,#0x3f
        0x0001d1fc:    900c        ..      STR      r0,[sp,#0x30]
        0x0001d1fe:    e7ff        ..      B        0x1d200 ; am_util_stdio_vsprintf + 1528
        0x0001d200:    e7ff        ..      B        0x1d202 ; am_util_stdio_vsprintf + 1530
        0x0001d202:    980c        ..      LDR      r0,[sp,#0x30]
        0x0001d204:    991c        ..      LDR      r1,[sp,#0x70]
        0x0001d206:    6008        .`      STR      r0,[r1,#0]
        0x0001d208:    2003        .       MOVS     r0,#3
        0x0001d20a:    9012        ..      STR      r0,[sp,#0x48]
        0x0001d20c:    e7ff        ..      B        0x1d20e ; am_util_stdio_vsprintf + 1542
        0x0001d20e:    9912        ..      LDR      r1,[sp,#0x48]
        0x0001d210:    9814        ..      LDR      r0,[sp,#0x50]
        0x0001d212:    4408        .D      ADD      r0,r0,r1
        0x0001d214:    9014        ..      STR      r0,[sp,#0x50]
        0x0001d216:    9912        ..      LDR      r1,[sp,#0x48]
        0x0001d218:    981c        ..      LDR      r0,[sp,#0x70]
        0x0001d21a:    4408        .D      ADD      r0,r0,r1
        0x0001d21c:    901c        ..      STR      r0,[sp,#0x70]
        0x0001d21e:    e7ff        ..      B        0x1d220 ; am_util_stdio_vsprintf + 1560
        0x0001d220:    e00d        ..      B        0x1d23e ; am_util_stdio_vsprintf + 1590
        0x0001d222:    981c        ..      LDR      r0,[sp,#0x70]
        0x0001d224:    b138        8.      CBZ      r0,0x1d236 ; am_util_stdio_vsprintf + 1582
        0x0001d226:    e7ff        ..      B        0x1d228 ; am_util_stdio_vsprintf + 1568
        0x0001d228:    981b        ..      LDR      r0,[sp,#0x6c]
        0x0001d22a:    7800        .x      LDRB     r0,[r0,#0]
        0x0001d22c:    991c        ..      LDR      r1,[sp,#0x70]
        0x0001d22e:    1c4a        J.      ADDS     r2,r1,#1
        0x0001d230:    921c        ..      STR      r2,[sp,#0x70]
        0x0001d232:    7008        .p      STRB     r0,[r1,#0]
        0x0001d234:    e7ff        ..      B        0x1d236 ; am_util_stdio_vsprintf + 1582
        0x0001d236:    9814        ..      LDR      r0,[sp,#0x50]
        0x0001d238:    3001        .0      ADDS     r0,#1
        0x0001d23a:    9014        ..      STR      r0,[sp,#0x50]
        0x0001d23c:    e7ff        ..      B        0x1d23e ; am_util_stdio_vsprintf + 1590
        0x0001d23e:    981b        ..      LDR      r0,[sp,#0x6c]
        0x0001d240:    3001        .0      ADDS     r0,#1
        0x0001d242:    901b        ..      STR      r0,[sp,#0x6c]
        0x0001d244:    f7ffbce9    ....    B.W      0x1cc1a ; am_util_stdio_vsprintf + 18
        0x0001d248:    981c        ..      LDR      r0,[sp,#0x70]
        0x0001d24a:    b120         .      CBZ      r0,0x1d256 ; am_util_stdio_vsprintf + 1614
        0x0001d24c:    e7ff        ..      B        0x1d24e ; am_util_stdio_vsprintf + 1606
        0x0001d24e:    991c        ..      LDR      r1,[sp,#0x70]
        0x0001d250:    2000        .       MOVS     r0,#0
        0x0001d252:    7008        .p      STRB     r0,[r1,#0]
        0x0001d254:    e7ff        ..      B        0x1d256 ; am_util_stdio_vsprintf + 1614
        0x0001d256:    9814        ..      LDR      r0,[sp,#0x50]
        0x0001d258:    b01e        ..      ADD      sp,sp,#0x78
        0x0001d25a:    bd80        ..      POP      {r7,pc}
    am_valid_sp
        0x0001d25c:    b082        ..      SUB      sp,sp,#8
        0x0001d25e:    9000        ..      STR      r0,[sp,#0]
        0x0001d260:    9800        ..      LDR      r0,[sp,#0]
        0x0001d262:    f1b05f80    ..._    CMP      r0,#0x10000000
        0x0001d266:    d30c        ..      BCC      0x1d282 ; am_valid_sp + 38
        0x0001d268:    e7ff        ..      B        0x1d26a ; am_valid_sp + 14
        0x0001d26a:    9800        ..      LDR      r0,[sp,#0]
        0x0001d26c:    f64f71ff    O..q    MOV      r1,#0xffff
        0x0001d270:    f2c1012b    ..+.    MOVT     r1,#0x102b
        0x0001d274:    4288        .B      CMP      r0,r1
        0x0001d276:    d804        ..      BHI      0x1d282 ; am_valid_sp + 38
        0x0001d278:    e7ff        ..      B        0x1d27a ; am_valid_sp + 30
        0x0001d27a:    2001        .       MOVS     r0,#1
        0x0001d27c:    f88d0007    ....    STRB     r0,[sp,#7]
        0x0001d280:    e003        ..      B        0x1d28a ; am_valid_sp + 46
        0x0001d282:    2000        .       MOVS     r0,#0
        0x0001d284:    f88d0007    ....    STRB     r0,[sp,#7]
        0x0001d288:    e7ff        ..      B        0x1d28a ; am_valid_sp + 46
        0x0001d28a:    f89d0007    ....    LDRB     r0,[sp,#7]
        0x0001d28e:    b002        ..      ADD      sp,sp,#8
        0x0001d290:    4770        pG      BX       lr
        0x0001d292:    0000        ..      MOVS     r0,r0
    check_if_data_match
        0x0001d294:    b580        ..      PUSH     {r7,lr}
        0x0001d296:    b086        ..      SUB      sp,sp,#0x18
        0x0001d298:    9005        ..      STR      r0,[sp,#0x14]
        0x0001d29a:    9104        ..      STR      r1,[sp,#0x10]
        0x0001d29c:    9203        ..      STR      r2,[sp,#0xc]
        0x0001d29e:    2000        .       MOVS     r0,#0
        0x0001d2a0:    9002        ..      STR      r0,[sp,#8]
        0x0001d2a2:    e7ff        ..      B        0x1d2a4 ; check_if_data_match + 16
        0x0001d2a4:    9802        ..      LDR      r0,[sp,#8]
        0x0001d2a6:    9903        ..      LDR      r1,[sp,#0xc]
        0x0001d2a8:    4288        .B      CMP      r0,r1
        0x0001d2aa:    d21c        ..      BCS      0x1d2e6 ; check_if_data_match + 82
        0x0001d2ac:    e7ff        ..      B        0x1d2ae ; check_if_data_match + 26
        0x0001d2ae:    9805        ..      LDR      r0,[sp,#0x14]
        0x0001d2b0:    9a02        ..      LDR      r2,[sp,#8]
        0x0001d2b2:    5c80        .\      LDRB     r0,[r0,r2]
        0x0001d2b4:    9904        ..      LDR      r1,[sp,#0x10]
        0x0001d2b6:    5c89        .\      LDRB     r1,[r1,r2]
        0x0001d2b8:    4288        .B      CMP      r0,r1
        0x0001d2ba:    d00f        ..      BEQ      0x1d2dc ; check_if_data_match + 72
        0x0001d2bc:    e7ff        ..      B        0x1d2be ; check_if_data_match + 42
        0x0001d2be:    9b02        ..      LDR      r3,[sp,#8]
        0x0001d2c0:    9805        ..      LDR      r0,[sp,#0x14]
        0x0001d2c2:    5cc2        .\      LDRB     r2,[r0,r3]
        0x0001d2c4:    9804        ..      LDR      r0,[sp,#0x10]
        0x0001d2c6:    5cc0        .\      LDRB     r0,[r0,r3]
        0x0001d2c8:    4669        iF      MOV      r1,sp
        0x0001d2ca:    6008        .`      STR      r0,[r1,#0]
        0x0001d2cc:    f64e50e7    N..P    MOV      r0,#0xede7
        0x0001d2d0:    f2c00001    ....    MOVT     r0,#1
        0x0001d2d4:    4619        .F      MOV      r1,r3
        0x0001d2d6:    f7fffc5f    .._.    BL       am_util_stdio_printf ; 0x1cb98
        0x0001d2da:    e004        ..      B        0x1d2e6 ; check_if_data_match + 82
        0x0001d2dc:    e7ff        ..      B        0x1d2de ; check_if_data_match + 74
        0x0001d2de:    9802        ..      LDR      r0,[sp,#8]
        0x0001d2e0:    3001        .0      ADDS     r0,#1
        0x0001d2e2:    9002        ..      STR      r0,[sp,#8]
        0x0001d2e4:    e7de        ..      B        0x1d2a4 ; check_if_data_match + 16
        0x0001d2e6:    9802        ..      LDR      r0,[sp,#8]
        0x0001d2e8:    9903        ..      LDR      r1,[sp,#0xc]
        0x0001d2ea:    4288        .B      CMP      r0,r1
        0x0001d2ec:    d107        ..      BNE      0x1d2fe ; check_if_data_match + 106
        0x0001d2ee:    e7ff        ..      B        0x1d2f0 ; check_if_data_match + 92
        0x0001d2f0:    f64e60ac    N..`    MOV      r0,#0xeeac
        0x0001d2f4:    f2c00001    ....    MOVT     r0,#1
        0x0001d2f8:    f7fffc4e    ..N.    BL       am_util_stdio_printf ; 0x1cb98
        0x0001d2fc:    e7ff        ..      B        0x1d2fe ; check_if_data_match + 106
        0x0001d2fe:    b006        ..      ADD      sp,sp,#0x18
        0x0001d300:    bd80        ..      POP      {r7,pc}
        0x0001d302:    0000        ..      MOVS     r0,r0
    crypto_boost_trims
        0x0001d304:    e92d43f0    -..C    PUSH     {r4-r9,lr}
        0x0001d308:    b081        ..      SUB      sp,sp,#4
        0x0001d30a:    f2401968    @.h.    MOVW     r9,#0x168
        0x0001d30e:    f2c10900    ....    MOVT     r9,#0x1000
        0x0001d312:    f8992000    ...     LDRB     r2,[r9,#0]
        0x0001d316:    4604        .F      MOV      r4,r0
        0x0001d318:    fab2f082    ....    CLZ      r0,r2
        0x0001d31c:    0940        @.      LSRS     r0,r0,#5
        0x0001d31e:    4060        `@      EORS     r0,r0,r4
        0x0001d320:    bf1c        ..      ITT      NE
        0x0001d322:    b001        ..      ADDNE    sp,sp,#4
        0x0001d324:    e8bd83f0    ....    POPNE    {r4-r9,pc}
        0x0001d328:    f2400888    @...    MOVW     r8,#0x88
        0x0001d32c:    460d        .F      MOV      r5,r1
        0x0001d32e:    f2c40802    ....    MOVT     r8,#0x4002
        0x0001d332:    f7fcfda7    ....    BL       am_hal_interrupt_master_disable ; 0x19e84
        0x0001d336:    9000        ..      STR      r0,[sp,#0]
        0x0001d338:    f8894000    ...@    STRB     r4,[r9,#0]
        0x0001d33c:    2c00        .,      CMP      r4,#0
        0x0001d33e:    bf08        ..      IT       EQ
        0x0001d340:    426d        mB      RSBEQ    r5,r5,#0
        0x0001d342:    e9d90101    ....    LDRD     r0,r1,[r9,#4]
        0x0001d346:    223f        ?"      MOVS     r2,#0x3f
        0x0001d348:    4428        (D      ADD      r0,r0,r5
        0x0001d34a:    283f        ?(      CMP      r0,#0x3f
        0x0001d34c:    bf38        8.      IT       CC
        0x0001d34e:    4602        .F      MOVCC    r2,r0
        0x0001d350:    0517        ..      LSLS     r7,r2,#20
        0x0001d352:    2800        .(      CMP      r0,#0
        0x0001d354:    4429        )D      ADD      r1,r1,r5
        0x0001d356:    f04f063f    O.?.    MOV      r6,#0x3f
        0x0001d35a:    bf48        H.      IT       MI
        0x0001d35c:    2700        .'      MOVMI    r7,#0
        0x0001d35e:    293f        ?)      CMP      r1,#0x3f
        0x0001d360:    f8c90004    ....    STR      r0,[r9,#4]
        0x0001d364:    bf38        8.      IT       CC
        0x0001d366:    460e        .F      MOVCC    r6,r1
        0x0001d368:    2900        .)      CMP      r1,#0
        0x0001d36a:    bf48        H.      IT       MI
        0x0001d36c:    2600        .&      MOVMI    r6,#0
        0x0001d36e:    f8c91008    ....    STR      r1,[r9,#8]
        0x0001d372:    b18c        ..      CBZ      r4,0x1d398 ; crypto_boost_trims + 148
        0x0001d374:    f8d802e4    ....    LDR      r0,[r8,#0x2e4]
        0x0001d378:    f020707c     .|p    BIC      r0,r0,#0x3f00000
        0x0001d37c:    4338        8C      ORRS     r0,r0,r7
        0x0001d37e:    f8c802e4    ....    STR      r0,[r8,#0x2e4]
        0x0001d382:    2014        .       MOVS     r0,#0x14
        0x0001d384:    f7fcfbfc    ....    BL       am_hal_delay_us ; 0x19b80
        0x0001d388:    f8d80000    ....    LDR      r0,[r8,#0]
        0x0001d38c:    f020003f     .?.    BIC      r0,r0,#0x3f
        0x0001d390:    4330        0C      ORRS     r0,r0,r6
        0x0001d392:    f8c80000    ....    STR      r0,[r8,#0]
        0x0001d396:    e010        ..      B        0x1d3ba ; crypto_boost_trims + 182
        0x0001d398:    f8d80000    ....    LDR      r0,[r8,#0]
        0x0001d39c:    f020003f     .?.    BIC      r0,r0,#0x3f
        0x0001d3a0:    4330        0C      ORRS     r0,r0,r6
        0x0001d3a2:    f8c80000    ....    STR      r0,[r8,#0]
        0x0001d3a6:    2014        .       MOVS     r0,#0x14
        0x0001d3a8:    f7fcfbea    ....    BL       am_hal_delay_us ; 0x19b80
        0x0001d3ac:    f8d802e4    ....    LDR      r0,[r8,#0x2e4]
        0x0001d3b0:    f020707c     .|p    BIC      r0,r0,#0x3f00000
        0x0001d3b4:    4338        8C      ORRS     r0,r0,r7
        0x0001d3b6:    f8c802e4    ....    STR      r0,[r8,#0x2e4]
        0x0001d3ba:    9800        ..      LDR      r0,[sp,#0]
        0x0001d3bc:    f7fcfd6a    ..j.    BL       am_hal_interrupt_master_set ; 0x19e94
        0x0001d3c0:    2014        .       MOVS     r0,#0x14
        0x0001d3c2:    b001        ..      ADD      sp,sp,#4
        0x0001d3c4:    e8bd43f0    ...C    POP      {r4-r9,lr}
        0x0001d3c8:    f7fcbbda    ....    B        am_hal_delay_us ; 0x19b80
    decstr_to_int
        0x0001d3cc:    b087        ..      SUB      sp,sp,#0x1c
        0x0001d3ce:    9006        ..      STR      r0,[sp,#0x18]
        0x0001d3d0:    9105        ..      STR      r1,[sp,#0x14]
        0x0001d3d2:    2000        .       MOVS     r0,#0
        0x0001d3d4:    f88d0013    ....    STRB     r0,[sp,#0x13]
        0x0001d3d8:    9003        ..      STR      r0,[sp,#0xc]
        0x0001d3da:    9002        ..      STR      r0,[sp,#8]
        0x0001d3dc:    9806        ..      LDR      r0,[sp,#0x18]
        0x0001d3de:    7800        .x      LDRB     r0,[r0,#0]
        0x0001d3e0:    282d        -(      CMP      r0,#0x2d
        0x0001d3e2:    d10a        ..      BNE      0x1d3fa ; decstr_to_int + 46
        0x0001d3e4:    e7ff        ..      B        0x1d3e6 ; decstr_to_int + 26
        0x0001d3e6:    2001        .       MOVS     r0,#1
        0x0001d3e8:    f88d0013    ....    STRB     r0,[sp,#0x13]
        0x0001d3ec:    9806        ..      LDR      r0,[sp,#0x18]
        0x0001d3ee:    3001        .0      ADDS     r0,#1
        0x0001d3f0:    9006        ..      STR      r0,[sp,#0x18]
        0x0001d3f2:    9802        ..      LDR      r0,[sp,#8]
        0x0001d3f4:    3001        .0      ADDS     r0,#1
        0x0001d3f6:    9002        ..      STR      r0,[sp,#8]
        0x0001d3f8:    e7ff        ..      B        0x1d3fa ; decstr_to_int + 46
        0x0001d3fa:    e7ff        ..      B        0x1d3fc ; decstr_to_int + 48
        0x0001d3fc:    9806        ..      LDR      r0,[sp,#0x18]
        0x0001d3fe:    7801        .x      LDRB     r1,[r0,#0]
        0x0001d400:    2000        .       MOVS     r0,#0
        0x0001d402:    2930        0)      CMP      r1,#0x30
        0x0001d404:    9001        ..      STR      r0,[sp,#4]
        0x0001d406:    db08        ..      BLT      0x1d41a ; decstr_to_int + 78
        0x0001d408:    e7ff        ..      B        0x1d40a ; decstr_to_int + 62
        0x0001d40a:    9806        ..      LDR      r0,[sp,#0x18]
        0x0001d40c:    7801        .x      LDRB     r1,[r0,#0]
        0x0001d40e:    2000        .       MOVS     r0,#0
        0x0001d410:    293a        :)      CMP      r1,#0x3a
        0x0001d412:    bfb8        ..      IT       LT
        0x0001d414:    2001        .       MOVLT    r0,#1
        0x0001d416:    9001        ..      STR      r0,[sp,#4]
        0x0001d418:    e7ff        ..      B        0x1d41a ; decstr_to_int + 78
        0x0001d41a:    9801        ..      LDR      r0,[sp,#4]
        0x0001d41c:    07c0        ..      LSLS     r0,r0,#31
        0x0001d41e:    b190        ..      CBZ      r0,0x1d446 ; decstr_to_int + 122
        0x0001d420:    e7ff        ..      B        0x1d422 ; decstr_to_int + 86
        0x0001d422:    9802        ..      LDR      r0,[sp,#8]
        0x0001d424:    3001        .0      ADDS     r0,#1
        0x0001d426:    9002        ..      STR      r0,[sp,#8]
        0x0001d428:    9803        ..      LDR      r0,[sp,#0xc]
        0x0001d42a:    eb000080    ....    ADD      r0,r0,r0,LSL #2
        0x0001d42e:    0040        @.      LSLS     r0,r0,#1
        0x0001d430:    9003        ..      STR      r0,[sp,#0xc]
        0x0001d432:    9806        ..      LDR      r0,[sp,#0x18]
        0x0001d434:    7800        .x      LDRB     r0,[r0,#0]
        0x0001d436:    9903        ..      LDR      r1,[sp,#0xc]
        0x0001d438:    4408        .D      ADD      r0,r0,r1
        0x0001d43a:    3830        08      SUBS     r0,r0,#0x30
        0x0001d43c:    9003        ..      STR      r0,[sp,#0xc]
        0x0001d43e:    9806        ..      LDR      r0,[sp,#0x18]
        0x0001d440:    3001        .0      ADDS     r0,#1
        0x0001d442:    9006        ..      STR      r0,[sp,#0x18]
        0x0001d444:    e7da        ..      B        0x1d3fc ; decstr_to_int + 48
        0x0001d446:    9805        ..      LDR      r0,[sp,#0x14]
        0x0001d448:    b120         .      CBZ      r0,0x1d454 ; decstr_to_int + 136
        0x0001d44a:    e7ff        ..      B        0x1d44c ; decstr_to_int + 128
        0x0001d44c:    9802        ..      LDR      r0,[sp,#8]
        0x0001d44e:    9905        ..      LDR      r1,[sp,#0x14]
        0x0001d450:    6008        .`      STR      r0,[r1,#0]
        0x0001d452:    e7ff        ..      B        0x1d454 ; decstr_to_int + 136
        0x0001d454:    f89d0013    ....    LDRB     r0,[sp,#0x13]
        0x0001d458:    07c0        ..      LSLS     r0,r0,#31
        0x0001d45a:    b120         .      CBZ      r0,0x1d466 ; decstr_to_int + 154
        0x0001d45c:    e7ff        ..      B        0x1d45e ; decstr_to_int + 146
        0x0001d45e:    9803        ..      LDR      r0,[sp,#0xc]
        0x0001d460:    4240        @B      RSBS     r0,r0,#0
        0x0001d462:    9000        ..      STR      r0,[sp,#0]
        0x0001d464:    e002        ..      B        0x1d46c ; decstr_to_int + 160
        0x0001d466:    9803        ..      LDR      r0,[sp,#0xc]
        0x0001d468:    9000        ..      STR      r0,[sp,#0]
        0x0001d46a:    e7ff        ..      B        0x1d46c ; decstr_to_int + 160
        0x0001d46c:    9800        ..      LDR      r0,[sp,#0]
        0x0001d46e:    b007        ..      ADD      sp,sp,#0x1c
        0x0001d470:    4770        pG      BX       lr
        0x0001d472:    0000        ..      MOVS     r0,r0
    divu64_10
        0x0001d474:    b08c        ..      SUB      sp,sp,#0x30
        0x0001d476:    9109        ..      STR      r1,[sp,#0x24]
        0x0001d478:    9008        ..      STR      r0,[sp,#0x20]
        0x0001d47a:    9809        ..      LDR      r0,[sp,#0x24]
        0x0001d47c:    2800        .(      CMP      r0,#0
        0x0001d47e:    d05b        [.      BEQ      0x1d538 ; divu64_10 + 196
        0x0001d480:    e7ff        ..      B        0x1d482 ; divu64_10 + 14
        0x0001d482:    9b08        ..      LDR      r3,[sp,#0x20]
        0x0001d484:    9a09        ..      LDR      r2,[sp,#0x24]
        0x0001d486:    ea5f0052    _.R.    LSRS.W   r0,r2,#1
        0x0001d48a:    ea4f0133    O.3.    RRX      r1,r3
        0x0001d48e:    089b        ..      LSRS     r3,r3,#2
        0x0001d490:    ea437382    C..s    ORR      r3,r3,r2,LSL #30
        0x0001d494:    18c9        ..      ADDS     r1,r1,r3
        0x0001d496:    eb400092    @...    ADC      r0,r0,r2,LSR #2
        0x0001d49a:    9106        ..      STR      r1,[sp,#0x18]
        0x0001d49c:    9007        ..      STR      r0,[sp,#0x1c]
        0x0001d49e:    9906        ..      LDR      r1,[sp,#0x18]
        0x0001d4a0:    9807        ..      LDR      r0,[sp,#0x1c]
        0x0001d4a2:    090a        ..      LSRS     r2,r1,#4
        0x0001d4a4:    ea427200    B..r    ORR      r2,r2,r0,LSL #28
        0x0001d4a8:    1889        ..      ADDS     r1,r1,r2
        0x0001d4aa:    eb401010    @...    ADC      r0,r0,r0,LSR #4
        0x0001d4ae:    9106        ..      STR      r1,[sp,#0x18]
        0x0001d4b0:    9007        ..      STR      r0,[sp,#0x1c]
        0x0001d4b2:    9906        ..      LDR      r1,[sp,#0x18]
        0x0001d4b4:    9807        ..      LDR      r0,[sp,#0x1c]
        0x0001d4b6:    0a0a        ..      LSRS     r2,r1,#8
        0x0001d4b8:    ea426200    B..b    ORR      r2,r2,r0,LSL #24
        0x0001d4bc:    1889        ..      ADDS     r1,r1,r2
        0x0001d4be:    eb402010    @..     ADC      r0,r0,r0,LSR #8
        0x0001d4c2:    9106        ..      STR      r1,[sp,#0x18]
        0x0001d4c4:    9007        ..      STR      r0,[sp,#0x1c]
        0x0001d4c6:    9906        ..      LDR      r1,[sp,#0x18]
        0x0001d4c8:    9807        ..      LDR      r0,[sp,#0x1c]
        0x0001d4ca:    0c0a        ..      LSRS     r2,r1,#16
        0x0001d4cc:    ea424200    B..B    ORR      r2,r2,r0,LSL #16
        0x0001d4d0:    1889        ..      ADDS     r1,r1,r2
        0x0001d4d2:    eb404010    @..@    ADC      r0,r0,r0,LSR #16
        0x0001d4d6:    9106        ..      STR      r1,[sp,#0x18]
        0x0001d4d8:    9007        ..      STR      r0,[sp,#0x1c]
        0x0001d4da:    9906        ..      LDR      r1,[sp,#0x18]
        0x0001d4dc:    9807        ..      LDR      r0,[sp,#0x1c]
        0x0001d4de:    1809        ..      ADDS     r1,r1,r0
        0x0001d4e0:    f1400000    @...    ADC      r0,r0,#0
        0x0001d4e4:    9106        ..      STR      r1,[sp,#0x18]
        0x0001d4e6:    9007        ..      STR      r0,[sp,#0x1c]
        0x0001d4e8:    9806        ..      LDR      r0,[sp,#0x18]
        0x0001d4ea:    9907        ..      LDR      r1,[sp,#0x1c]
        0x0001d4ec:    08c0        ..      LSRS     r0,r0,#3
        0x0001d4ee:    ea407041    @.Ap    ORR      r0,r0,r1,LSL #29
        0x0001d4f2:    08c9        ..      LSRS     r1,r1,#3
        0x0001d4f4:    9107        ..      STR      r1,[sp,#0x1c]
        0x0001d4f6:    9006        ..      STR      r0,[sp,#0x18]
        0x0001d4f8:    9908        ..      LDR      r1,[sp,#0x20]
        0x0001d4fa:    9809        ..      LDR      r0,[sp,#0x24]
        0x0001d4fc:    9a06        ..      LDR      r2,[sp,#0x18]
        0x0001d4fe:    f8ddc01c    ....    LDR      r12,[sp,#0x1c]
        0x0001d502:    230a        .#      MOVS     r3,#0xa
        0x0001d504:    fba23203    ...2    UMULL    r3,r2,r2,r3
        0x0001d508:    eb0c0c8c    ....    ADD      r12,r12,r12,LSL #2
        0x0001d50c:    eb02024c    ..L.    ADD      r2,r2,r12,LSL #1
        0x0001d510:    1ac9        ..      SUBS     r1,r1,r3
        0x0001d512:    4190        .A      SBCS     r0,r0,r2
        0x0001d514:    9104        ..      STR      r1,[sp,#0x10]
        0x0001d516:    9005        ..      STR      r0,[sp,#0x14]
        0x0001d518:    9906        ..      LDR      r1,[sp,#0x18]
        0x0001d51a:    9807        ..      LDR      r0,[sp,#0x1c]
        0x0001d51c:    9b04        ..      LDR      r3,[sp,#0x10]
        0x0001d51e:    9a05        ..      LDR      r2,[sp,#0x14]
        0x0001d520:    3306        .3      ADDS     r3,#6
        0x0001d522:    f1420200    B...    ADC      r2,r2,#0
        0x0001d526:    091b        ..      LSRS     r3,r3,#4
        0x0001d528:    ea437302    C..s    ORR      r3,r3,r2,LSL #28
        0x0001d52c:    18c9        ..      ADDS     r1,r1,r3
        0x0001d52e:    eb401012    @...    ADC      r0,r0,r2,LSR #4
        0x0001d532:    910a        ..      STR      r1,[sp,#0x28]
        0x0001d534:    900b        ..      STR      r0,[sp,#0x2c]
        0x0001d536:    e025        %.      B        0x1d584 ; divu64_10 + 272
        0x0001d538:    9808        ..      LDR      r0,[sp,#0x20]
        0x0001d53a:    9001        ..      STR      r0,[sp,#4]
        0x0001d53c:    9901        ..      LDR      r1,[sp,#4]
        0x0001d53e:    0848        H.      LSRS     r0,r1,#1
        0x0001d540:    eb000091    ....    ADD      r0,r0,r1,LSR #2
        0x0001d544:    9003        ..      STR      r0,[sp,#0xc]
        0x0001d546:    9803        ..      LDR      r0,[sp,#0xc]
        0x0001d548:    eb001010    ....    ADD      r0,r0,r0,LSR #4
        0x0001d54c:    9003        ..      STR      r0,[sp,#0xc]
        0x0001d54e:    9803        ..      LDR      r0,[sp,#0xc]
        0x0001d550:    eb002010    ...     ADD      r0,r0,r0,LSR #8
        0x0001d554:    9003        ..      STR      r0,[sp,#0xc]
        0x0001d556:    9803        ..      LDR      r0,[sp,#0xc]
        0x0001d558:    eb004010    ...@    ADD      r0,r0,r0,LSR #16
        0x0001d55c:    9003        ..      STR      r0,[sp,#0xc]
        0x0001d55e:    9803        ..      LDR      r0,[sp,#0xc]
        0x0001d560:    08c0        ..      LSRS     r0,r0,#3
        0x0001d562:    9003        ..      STR      r0,[sp,#0xc]
        0x0001d564:    9801        ..      LDR      r0,[sp,#4]
        0x0001d566:    9903        ..      LDR      r1,[sp,#0xc]
        0x0001d568:    eb010181    ....    ADD      r1,r1,r1,LSL #2
        0x0001d56c:    eba00041    ..A.    SUB      r0,r0,r1,LSL #1
        0x0001d570:    9002        ..      STR      r0,[sp,#8]
        0x0001d572:    9803        ..      LDR      r0,[sp,#0xc]
        0x0001d574:    9902        ..      LDR      r1,[sp,#8]
        0x0001d576:    3106        .1      ADDS     r1,#6
        0x0001d578:    eb001011    ....    ADD      r0,r0,r1,LSR #4
        0x0001d57c:    2100        .!      MOVS     r1,#0
        0x0001d57e:    910b        ..      STR      r1,[sp,#0x2c]
        0x0001d580:    900a        ..      STR      r0,[sp,#0x28]
        0x0001d582:    e7ff        ..      B        0x1d584 ; divu64_10 + 272
        0x0001d584:    980a        ..      LDR      r0,[sp,#0x28]
        0x0001d586:    990b        ..      LDR      r1,[sp,#0x2c]
        0x0001d588:    b00c        ..      ADD      sp,sp,#0x30
        0x0001d58a:    4770        pG      BX       lr
    ftoa
        0x0001d58c:    b580        ..      PUSH     {r7,lr}
        0x0001d58e:    b090        ..      SUB      sp,sp,#0x40
        0x0001d590:    ed8d0a0e    ....    VSTR     s0,[sp,#0x38]
        0x0001d594:    900d        ..      STR      r0,[sp,#0x34]
        0x0001d596:    910c        ..      STR      r1,[sp,#0x30]
        0x0001d598:    980d        ..      LDR      r0,[sp,#0x34]
        0x0001d59a:    6800        .h      LDR      r0,[r0,#0]
        0x0001d59c:    9009        ..      STR      r0,[sp,#0x24]
        0x0001d59e:    9809        ..      LDR      r0,[sp,#0x24]
        0x0001d5a0:    2803        .(      CMP      r0,#3
        0x0001d5a2:    dc04        ..      BGT      0x1d5ae ; ftoa + 34
        0x0001d5a4:    e7ff        ..      B        0x1d5a6 ; ftoa + 26
        0x0001d5a6:    f06f0002    o...    MVN      r0,#2
        0x0001d5aa:    900f        ..      STR      r0,[sp,#0x3c]
        0x0001d5ac:    e103        ..      B        0x1d7b6 ; ftoa + 554
        0x0001d5ae:    ed9d0a0e    ....    VLDR     s0,[sp,#0x38]
        0x0001d5b2:    eeb50a40    ..@.    VCMP.F32 s0,#0.0
        0x0001d5b6:    eef1fa10    ....    VMRS     APSR_nzcv,FPSCR
        0x0001d5ba:    d109        ..      BNE      0x1d5d0 ; ftoa + 68
        0x0001d5bc:    e7ff        ..      B        0x1d5be ; ftoa + 50
        0x0001d5be:    990d        ..      LDR      r1,[sp,#0x34]
        0x0001d5c0:    f6426030    B.0`    MOV      r0,#0x2e30
        0x0001d5c4:    f2c00030    ..0.    MOVT     r0,#0x30
        0x0001d5c8:    6008        .`      STR      r0,[r1,#0]
        0x0001d5ca:    2003        .       MOVS     r0,#3
        0x0001d5cc:    900f        ..      STR      r0,[sp,#0x3c]
        0x0001d5ce:    e0f2        ..      B        0x1d7b6 ; ftoa + 554
        0x0001d5d0:    980d        ..      LDR      r0,[sp,#0x34]
        0x0001d5d2:    9005        ..      STR      r0,[sp,#0x14]
        0x0001d5d4:    980e        ..      LDR      r0,[sp,#0x38]
        0x0001d5d6:    900b        ..      STR      r0,[sp,#0x2c]
        0x0001d5d8:    980b        ..      LDR      r0,[sp,#0x2c]
        0x0001d5da:    0dc1        ..      LSRS     r1,r0,#23
        0x0001d5dc:    f06f007e    o.~.    MVN      r0,#0x7e
        0x0001d5e0:    fa50f081    P...    UXTAB    r0,r0,r1
        0x0001d5e4:    900a        ..      STR      r0,[sp,#0x28]
        0x0001d5e6:    980b        ..      LDR      r0,[sp,#0x2c]
        0x0001d5e8:    f4400000    @...    ORR      r0,r0,#0x800000
        0x0001d5ec:    f020407f     ..@    BIC      r0,r0,#0xff000000
        0x0001d5f0:    9008        ..      STR      r0,[sp,#0x20]
        0x0001d5f2:    2000        .       MOVS     r0,#0
        0x0001d5f4:    9006        ..      STR      r0,[sp,#0x18]
        0x0001d5f6:    9007        ..      STR      r0,[sp,#0x1c]
        0x0001d5f8:    980a        ..      LDR      r0,[sp,#0x28]
        0x0001d5fa:    281f        .(      CMP      r0,#0x1f
        0x0001d5fc:    db04        ..      BLT      0x1d608 ; ftoa + 124
        0x0001d5fe:    e7ff        ..      B        0x1d600 ; ftoa + 116
        0x0001d600:    f06f0001    o...    MVN      r0,#1
        0x0001d604:    900f        ..      STR      r0,[sp,#0x3c]
        0x0001d606:    e0d6        ..      B        0x1d7b6 ; ftoa + 554
        0x0001d608:    980a        ..      LDR      r0,[sp,#0x28]
        0x0001d60a:    f1100f18    ....    CMN      r0,#0x18
        0x0001d60e:    dc04        ..      BGT      0x1d61a ; ftoa + 142
        0x0001d610:    e7ff        ..      B        0x1d612 ; ftoa + 134
        0x0001d612:    f04f30ff    O..0    MOV      r0,#0xffffffff
        0x0001d616:    900f        ..      STR      r0,[sp,#0x3c]
        0x0001d618:    e0cd        ..      B        0x1d7b6 ; ftoa + 554
        0x0001d61a:    980a        ..      LDR      r0,[sp,#0x28]
        0x0001d61c:    2817        .(      CMP      r0,#0x17
        0x0001d61e:    db06        ..      BLT      0x1d62e ; ftoa + 162
        0x0001d620:    e7ff        ..      B        0x1d622 ; ftoa + 150
        0x0001d622:    9808        ..      LDR      r0,[sp,#0x20]
        0x0001d624:    990a        ..      LDR      r1,[sp,#0x28]
        0x0001d626:    3917        .9      SUBS     r1,r1,#0x17
        0x0001d628:    4088        .@      LSLS     r0,r0,r1
        0x0001d62a:    9007        ..      STR      r0,[sp,#0x1c]
        0x0001d62c:    e01a        ..      B        0x1d664 ; ftoa + 216
        0x0001d62e:    980a        ..      LDR      r0,[sp,#0x28]
        0x0001d630:    2800        .(      CMP      r0,#0
        0x0001d632:    d40e        ..      BMI      0x1d652 ; ftoa + 198
        0x0001d634:    e7ff        ..      B        0x1d636 ; ftoa + 170
        0x0001d636:    9808        ..      LDR      r0,[sp,#0x20]
        0x0001d638:    990a        ..      LDR      r1,[sp,#0x28]
        0x0001d63a:    f1c10117    ....    RSB      r1,r1,#0x17
        0x0001d63e:    4108        .A      ASRS     r0,r0,r1
        0x0001d640:    9007        ..      STR      r0,[sp,#0x1c]
        0x0001d642:    9808        ..      LDR      r0,[sp,#0x20]
        0x0001d644:    990a        ..      LDR      r1,[sp,#0x28]
        0x0001d646:    3101        .1      ADDS     r1,#1
        0x0001d648:    4088        .@      LSLS     r0,r0,r1
        0x0001d64a:    f020407f     ..@    BIC      r0,r0,#0xff000000
        0x0001d64e:    9006        ..      STR      r0,[sp,#0x18]
        0x0001d650:    e007        ..      B        0x1d662 ; ftoa + 214
        0x0001d652:    9808        ..      LDR      r0,[sp,#0x20]
        0x0001d654:    f020407f     ..@    BIC      r0,r0,#0xff000000
        0x0001d658:    990a        ..      LDR      r1,[sp,#0x28]
        0x0001d65a:    43c9        .C      MVNS     r1,r1
        0x0001d65c:    40c8        .@      LSRS     r0,r0,r1
        0x0001d65e:    9006        ..      STR      r0,[sp,#0x18]
        0x0001d660:    e7ff        ..      B        0x1d662 ; ftoa + 214
        0x0001d662:    e7ff        ..      B        0x1d664 ; ftoa + 216
        0x0001d664:    e7ff        ..      B        0x1d666 ; ftoa + 218
        0x0001d666:    e7ff        ..      B        0x1d668 ; ftoa + 220
        0x0001d668:    980b        ..      LDR      r0,[sp,#0x2c]
        0x0001d66a:    f1b03fff    ...?    CMP      r0,#0xffffffff
        0x0001d66e:    dc06        ..      BGT      0x1d67e ; ftoa + 242
        0x0001d670:    e7ff        ..      B        0x1d672 ; ftoa + 230
        0x0001d672:    990d        ..      LDR      r1,[sp,#0x34]
        0x0001d674:    1c48        H.      ADDS     r0,r1,#1
        0x0001d676:    900d        ..      STR      r0,[sp,#0x34]
        0x0001d678:    202d        -       MOVS     r0,#0x2d
        0x0001d67a:    7008        .p      STRB     r0,[r1,#0]
        0x0001d67c:    e7ff        ..      B        0x1d67e ; ftoa + 242
        0x0001d67e:    9807        ..      LDR      r0,[sp,#0x1c]
        0x0001d680:    b930        0.      CBNZ     r0,0x1d690 ; ftoa + 260
        0x0001d682:    e7ff        ..      B        0x1d684 ; ftoa + 248
        0x0001d684:    990d        ..      LDR      r1,[sp,#0x34]
        0x0001d686:    1c48        H.      ADDS     r0,r1,#1
        0x0001d688:    900d        ..      STR      r0,[sp,#0x34]
        0x0001d68a:    2030        0       MOVS     r0,#0x30
        0x0001d68c:    7008        .p      STRB     r0,[r1,#0]
        0x0001d68e:    e01f        ..      B        0x1d6d0 ; ftoa + 324
        0x0001d690:    9807        ..      LDR      r0,[sp,#0x1c]
        0x0001d692:    2801        .(      CMP      r0,#1
        0x0001d694:    db06        ..      BLT      0x1d6a4 ; ftoa + 280
        0x0001d696:    e7ff        ..      B        0x1d698 ; ftoa + 268
        0x0001d698:    9807        ..      LDR      r0,[sp,#0x1c]
        0x0001d69a:    17c1        ..      ASRS     r1,r0,#31
        0x0001d69c:    9a0d        ..      LDR      r2,[sp,#0x34]
        0x0001d69e:    f001f86d    ..m.    BL       uint64_to_str ; 0x1e77c
        0x0001d6a2:    e00b        ..      B        0x1d6bc ; ftoa + 304
        0x0001d6a4:    990d        ..      LDR      r1,[sp,#0x34]
        0x0001d6a6:    1c48        H.      ADDS     r0,r1,#1
        0x0001d6a8:    900d        ..      STR      r0,[sp,#0x34]
        0x0001d6aa:    202d        -       MOVS     r0,#0x2d
        0x0001d6ac:    7008        .p      STRB     r0,[r1,#0]
        0x0001d6ae:    9807        ..      LDR      r0,[sp,#0x1c]
        0x0001d6b0:    4240        @B      RSBS     r0,r0,#0
        0x0001d6b2:    17c1        ..      ASRS     r1,r0,#31
        0x0001d6b4:    9a0d        ..      LDR      r2,[sp,#0x34]
        0x0001d6b6:    f001f861    ..a.    BL       uint64_to_str ; 0x1e77c
        0x0001d6ba:    e7ff        ..      B        0x1d6bc ; ftoa + 304
        0x0001d6bc:    e7ff        ..      B        0x1d6be ; ftoa + 306
        0x0001d6be:    980d        ..      LDR      r0,[sp,#0x34]
        0x0001d6c0:    7800        .x      LDRB     r0,[r0,#0]
        0x0001d6c2:    b120         .      CBZ      r0,0x1d6ce ; ftoa + 322
        0x0001d6c4:    e7ff        ..      B        0x1d6c6 ; ftoa + 314
        0x0001d6c6:    980d        ..      LDR      r0,[sp,#0x34]
        0x0001d6c8:    3001        .0      ADDS     r0,#1
        0x0001d6ca:    900d        ..      STR      r0,[sp,#0x34]
        0x0001d6cc:    e7f7        ..      B        0x1d6be ; ftoa + 306
        0x0001d6ce:    e7ff        ..      B        0x1d6d0 ; ftoa + 324
        0x0001d6d0:    990d        ..      LDR      r1,[sp,#0x34]
        0x0001d6d2:    1c48        H.      ADDS     r0,r1,#1
        0x0001d6d4:    900d        ..      STR      r0,[sp,#0x34]
        0x0001d6d6:    202e        .       MOVS     r0,#0x2e
        0x0001d6d8:    7008        .p      STRB     r0,[r1,#0]
        0x0001d6da:    9806        ..      LDR      r0,[sp,#0x18]
        0x0001d6dc:    b930        0.      CBNZ     r0,0x1d6ec ; ftoa + 352
        0x0001d6de:    e7ff        ..      B        0x1d6e0 ; ftoa + 340
        0x0001d6e0:    990d        ..      LDR      r1,[sp,#0x34]
        0x0001d6e2:    1c48        H.      ADDS     r0,r1,#1
        0x0001d6e4:    900d        ..      STR      r0,[sp,#0x34]
        0x0001d6e6:    2030        0       MOVS     r0,#0x30
        0x0001d6e8:    7008        .p      STRB     r0,[r1,#0]
        0x0001d6ea:    e05c        \.      B        0x1d7a6 ; ftoa + 538
        0x0001d6ec:    9909        ..      LDR      r1,[sp,#0x24]
        0x0001d6ee:    980d        ..      LDR      r0,[sp,#0x34]
        0x0001d6f0:    9a05        ..      LDR      r2,[sp,#0x14]
        0x0001d6f2:    1a80        ..      SUBS     r0,r0,r2
        0x0001d6f4:    43c0        .C      MVNS     r0,r0
        0x0001d6f6:    4408        .D      ADD      r0,r0,r1
        0x0001d6f8:    9002        ..      STR      r0,[sp,#8]
        0x0001d6fa:    9802        ..      LDR      r0,[sp,#8]
        0x0001d6fc:    990c        ..      LDR      r1,[sp,#0x30]
        0x0001d6fe:    4288        .B      CMP      r0,r1
        0x0001d700:    dd03        ..      BLE      0x1d70a ; ftoa + 382
        0x0001d702:    e7ff        ..      B        0x1d704 ; ftoa + 376
        0x0001d704:    980c        ..      LDR      r0,[sp,#0x30]
        0x0001d706:    9001        ..      STR      r0,[sp,#4]
        0x0001d708:    e002        ..      B        0x1d710 ; ftoa + 388
        0x0001d70a:    9802        ..      LDR      r0,[sp,#8]
        0x0001d70c:    9001        ..      STR      r0,[sp,#4]
        0x0001d70e:    e7ff        ..      B        0x1d710 ; ftoa + 388
        0x0001d710:    9801        ..      LDR      r0,[sp,#4]
        0x0001d712:    9002        ..      STR      r0,[sp,#8]
        0x0001d714:    2000        .       MOVS     r0,#0
        0x0001d716:    9003        ..      STR      r0,[sp,#0xc]
        0x0001d718:    e7ff        ..      B        0x1d71a ; ftoa + 398
        0x0001d71a:    9803        ..      LDR      r0,[sp,#0xc]
        0x0001d71c:    9902        ..      LDR      r1,[sp,#8]
        0x0001d71e:    4288        .B      CMP      r0,r1
        0x0001d720:    da15        ..      BGE      0x1d74e ; ftoa + 450
        0x0001d722:    e7ff        ..      B        0x1d724 ; ftoa + 408
        0x0001d724:    9806        ..      LDR      r0,[sp,#0x18]
        0x0001d726:    eb000080    ....    ADD      r0,r0,r0,LSL #2
        0x0001d72a:    0040        @.      LSLS     r0,r0,#1
        0x0001d72c:    9006        ..      STR      r0,[sp,#0x18]
        0x0001d72e:    f89d001b    ....    LDRB     r0,[sp,#0x1b]
        0x0001d732:    3030        00      ADDS     r0,r0,#0x30
        0x0001d734:    990d        ..      LDR      r1,[sp,#0x34]
        0x0001d736:    1c4a        J.      ADDS     r2,r1,#1
        0x0001d738:    920d        ..      STR      r2,[sp,#0x34]
        0x0001d73a:    7008        .p      STRB     r0,[r1,#0]
        0x0001d73c:    9806        ..      LDR      r0,[sp,#0x18]
        0x0001d73e:    f020407f     ..@    BIC      r0,r0,#0xff000000
        0x0001d742:    9006        ..      STR      r0,[sp,#0x18]
        0x0001d744:    e7ff        ..      B        0x1d746 ; ftoa + 442
        0x0001d746:    9803        ..      LDR      r0,[sp,#0xc]
        0x0001d748:    3001        .0      ADDS     r0,#1
        0x0001d74a:    9003        ..      STR      r0,[sp,#0xc]
        0x0001d74c:    e7e5        ..      B        0x1d71a ; ftoa + 398
        0x0001d74e:    9806        ..      LDR      r0,[sp,#0x18]
        0x0001d750:    eb000080    ....    ADD      r0,r0,r0,LSL #2
        0x0001d754:    f34050c7    @..P    SBFX     r0,r0,#23,#8
        0x0001d758:    2805        .(      CMP      r0,#5
        0x0001d75a:    db23        #.      BLT      0x1d7a4 ; ftoa + 536
        0x0001d75c:    e7ff        ..      B        0x1d75e ; ftoa + 466
        0x0001d75e:    980d        ..      LDR      r0,[sp,#0x34]
        0x0001d760:    3801        .8      SUBS     r0,#1
        0x0001d762:    9004        ..      STR      r0,[sp,#0x10]
        0x0001d764:    e7ff        ..      B        0x1d766 ; ftoa + 474
        0x0001d766:    9804        ..      LDR      r0,[sp,#0x10]
        0x0001d768:    9905        ..      LDR      r1,[sp,#0x14]
        0x0001d76a:    4288        .B      CMP      r0,r1
        0x0001d76c:    d319        ..      BCC      0x1d7a2 ; ftoa + 534
        0x0001d76e:    e7ff        ..      B        0x1d770 ; ftoa + 484
        0x0001d770:    9804        ..      LDR      r0,[sp,#0x10]
        0x0001d772:    7800        .x      LDRB     r0,[r0,#0]
        0x0001d774:    282e        .(      CMP      r0,#0x2e
        0x0001d776:    d101        ..      BNE      0x1d77c ; ftoa + 496
        0x0001d778:    e7ff        ..      B        0x1d77a ; ftoa + 494
        0x0001d77a:    e00e        ..      B        0x1d79a ; ftoa + 526
        0x0001d77c:    9804        ..      LDR      r0,[sp,#0x10]
        0x0001d77e:    7800        .x      LDRB     r0,[r0,#0]
        0x0001d780:    2839        9(      CMP      r0,#0x39
        0x0001d782:    d104        ..      BNE      0x1d78e ; ftoa + 514
        0x0001d784:    e7ff        ..      B        0x1d786 ; ftoa + 506
        0x0001d786:    9904        ..      LDR      r1,[sp,#0x10]
        0x0001d788:    2030        0       MOVS     r0,#0x30
        0x0001d78a:    7008        .p      STRB     r0,[r1,#0]
        0x0001d78c:    e004        ..      B        0x1d798 ; ftoa + 524
        0x0001d78e:    9904        ..      LDR      r1,[sp,#0x10]
        0x0001d790:    7808        .x      LDRB     r0,[r1,#0]
        0x0001d792:    3001        .0      ADDS     r0,#1
        0x0001d794:    7008        .p      STRB     r0,[r1,#0]
        0x0001d796:    e004        ..      B        0x1d7a2 ; ftoa + 534
        0x0001d798:    e7ff        ..      B        0x1d79a ; ftoa + 526
        0x0001d79a:    9804        ..      LDR      r0,[sp,#0x10]
        0x0001d79c:    3801        .8      SUBS     r0,#1
        0x0001d79e:    9004        ..      STR      r0,[sp,#0x10]
        0x0001d7a0:    e7e1        ..      B        0x1d766 ; ftoa + 474
        0x0001d7a2:    e7ff        ..      B        0x1d7a4 ; ftoa + 536
        0x0001d7a4:    e7ff        ..      B        0x1d7a6 ; ftoa + 538
        0x0001d7a6:    990d        ..      LDR      r1,[sp,#0x34]
        0x0001d7a8:    2000        .       MOVS     r0,#0
        0x0001d7aa:    7008        .p      STRB     r0,[r1,#0]
        0x0001d7ac:    980d        ..      LDR      r0,[sp,#0x34]
        0x0001d7ae:    9905        ..      LDR      r1,[sp,#0x14]
        0x0001d7b0:    1a40        @.      SUBS     r0,r0,r1
        0x0001d7b2:    900f        ..      STR      r0,[sp,#0x3c]
        0x0001d7b4:    e7ff        ..      B        0x1d7b6 ; ftoa + 554
        0x0001d7b6:    980f        ..      LDR      r0,[sp,#0x3c]
        0x0001d7b8:    b010        ..      ADD      sp,sp,#0x40
        0x0001d7ba:    bd80        ..      POP      {r7,pc}
    get_raw_dcu_mask
        0x0001d7bc:    b5b0        ..      PUSH     {r4,r5,r7,lr}
        0x0001d7be:    4684        .F      MOV      r12,r0
        0x0001d7c0:    f2404020    @. @    MOVW     r0,#0x420
        0x0001d7c4:    f2c10000    ....    MOVT     r0,#0x1000
        0x0001d7c8:    f8d0e000    ....    LDR      lr,[r0,#0]
        0x0001d7cc:    2207        ."      MOVS     r2,#7
        0x0001d7ce:    f1ce0320    .. .    RSB      r3,lr,#0x20
        0x0001d7d2:    fa22f303    "...    LSR      r3,r2,r3
        0x0001d7d6:    ea4f708c    O..p    LSL      r0,r12,#30
        0x0001d7da:    f1be0120    .. .    SUBS     r1,lr,#0x20
        0x0001d7de:    bf58        X.      IT       PL
        0x0001d7e0:    fa02f301    ....    LSLPL    r3,r2,r1
        0x0001d7e4:    fa02f40e    ....    LSL      r4,r2,lr
        0x0001d7e8:    bf58        X.      IT       PL
        0x0001d7ea:    2400        .$      MOVPL    r4,#0
        0x0001d7ec:    ea0371e0    ...q    AND      r1,r3,r0,ASR #31
        0x0001d7f0:    ea5f734c    _.Ls    LSLS     r3,r12,#29
        0x0001d7f4:    ea0470e0    ...p    AND      r0,r4,r0,ASR #31
        0x0001d7f8:    d470        p.      BMI      0x1d8dc ; get_raw_dcu_mask + 288
        0x0001d7fa:    ea5f720c    _..r    LSLS     r2,r12,#28
        0x0001d7fe:    f1008082    ....    BMI.W    0x1d906 ; get_raw_dcu_mask + 330
        0x0001d802:    ea5f62cc    _..b    LSLS     r2,r12,#27
        0x0001d806:    f1008094    ....    BMI.W    0x1d932 ; get_raw_dcu_mask + 374
        0x0001d80a:    ea5f628c    _..b    LSLS     r2,r12,#26
        0x0001d80e:    f10080a6    ....    BMI.W    0x1d95e ; get_raw_dcu_mask + 418
        0x0001d812:    ea5f624c    _.Lb    LSLS     r2,r12,#25
        0x0001d816:    f10080b8    ....    BMI.W    0x1d98a ; get_raw_dcu_mask + 462
        0x0001d81a:    ea5f620c    _..b    LSLS     r2,r12,#24
        0x0001d81e:    f10080ca    ....    BMI.W    0x1d9b6 ; get_raw_dcu_mask + 506
        0x0001d822:    ea5f52cc    _..R    LSLS     r2,r12,#23
        0x0001d826:    f10080dc    ....    BMI.W    0x1d9e2 ; get_raw_dcu_mask + 550
        0x0001d82a:    ea5f528c    _..R    LSLS     r2,r12,#22
        0x0001d82e:    f10080ee    ....    BMI.W    0x1da0e ; get_raw_dcu_mask + 594
        0x0001d832:    ea5f524c    _.LR    LSLS     r2,r12,#21
        0x0001d836:    f1008100    ....    BMI.W    0x1da3a ; get_raw_dcu_mask + 638
        0x0001d83a:    ea5f520c    _..R    LSLS     r2,r12,#20
        0x0001d83e:    f1008112    ....    BMI.W    0x1da66 ; get_raw_dcu_mask + 682
        0x0001d842:    ea5f42cc    _..B    LSLS     r2,r12,#19
        0x0001d846:    f1008124    ..$.    BMI.W    0x1da92 ; get_raw_dcu_mask + 726
        0x0001d84a:    ea5f428c    _..B    LSLS     r2,r12,#18
        0x0001d84e:    f1008136    ..6.    BMI.W    0x1dabe ; get_raw_dcu_mask + 770
        0x0001d852:    ea5f424c    _.LB    LSLS     r2,r12,#17
        0x0001d856:    f100814a    ..J.    BMI.W    0x1daee ; get_raw_dcu_mask + 818
        0x0001d85a:    ea5f420c    _..B    LSLS     r2,r12,#16
        0x0001d85e:    f100815e    ..^.    BMI.W    0x1db1e ; get_raw_dcu_mask + 866
        0x0001d862:    ea5f32cc    _..2    LSLS     r2,r12,#15
        0x0001d866:    f1008172    ..r.    BMI.W    0x1db4e ; get_raw_dcu_mask + 914
        0x0001d86a:    ea5f328c    _..2    LSLS     r2,r12,#14
        0x0001d86e:    f1008186    ....    BMI.W    0x1db7e ; get_raw_dcu_mask + 962
        0x0001d872:    ea5f324c    _.L2    LSLS     r2,r12,#13
        0x0001d876:    f100819a    ....    BMI.W    0x1dbae ; get_raw_dcu_mask + 1010
        0x0001d87a:    ea5f320c    _..2    LSLS     r2,r12,#12
        0x0001d87e:    d513        ..      BPL      0x1d8a8 ; get_raw_dcu_mask + 236
        0x0001d880:    f06f0515    o...    MVN      r5,#0x15
        0x0001d884:    f10e0236    ..6.    ADD      r2,lr,#0x36
        0x0001d888:    2407        .$      MOVS     r4,#7
        0x0001d88a:    eba5050e    ....    SUB      r5,r5,lr
        0x0001d88e:    fa24f505    $...    LSR      r5,r4,r5
        0x0001d892:    fa04f202    ....    LSL      r2,r4,r2
        0x0001d896:    f11e0316    ....    ADDS     r3,lr,#0x16
        0x0001d89a:    bf58        X.      IT       PL
        0x0001d89c:    fa04f503    ....    LSLPL    r5,r4,r3
        0x0001d8a0:    bf58        X.      IT       PL
        0x0001d8a2:    2200        ."      MOVPL    r2,#0
        0x0001d8a4:    4329        )C      ORRS     r1,r1,r5
        0x0001d8a6:    4310        .C      ORRS     r0,r0,r2
        0x0001d8a8:    ea5f22cc    _.."    LSLS     r2,r12,#11
        0x0001d8ac:    bf58        X.      IT       PL
        0x0001d8ae:    bdb0        ..      POPPL    {r4,r5,r7,pc}
        0x0001d8b0:    f06f0418    o...    MVN      r4,#0x18
        0x0001d8b4:    f10e0239    ..9.    ADD      r2,lr,#0x39
        0x0001d8b8:    2507        .%      MOVS     r5,#7
        0x0001d8ba:    eba4040e    ....    SUB      r4,r4,lr
        0x0001d8be:    fa25f404    %...    LSR      r4,r5,r4
        0x0001d8c2:    fa05f202    ....    LSL      r2,r5,r2
        0x0001d8c6:    f11e0319    ....    ADDS     r3,lr,#0x19
        0x0001d8ca:    bf58        X.      IT       PL
        0x0001d8cc:    fa05f403    ....    LSLPL    r4,r5,r3
        0x0001d8d0:    bf58        X.      IT       PL
        0x0001d8d2:    2200        ."      MOVPL    r2,#0
        0x0001d8d4:    4321        !C      ORRS     r1,r1,r4
        0x0001d8d6:    4310        .C      ORRS     r0,r0,r2
        0x0001d8d8:    bdb0        ..      POP      {r4,r5,r7,pc}
        0x0001d8da:    bf00        ..      NOP      
        0x0001d8dc:    f1ce051d    ....    RSB      r5,lr,#0x1d
        0x0001d8e0:    f10e0303    ....    ADD      r3,lr,#3
        0x0001d8e4:    fa22f505    "...    LSR      r5,r2,r5
        0x0001d8e8:    f1be041d    ....    SUBS     r4,lr,#0x1d
        0x0001d8ec:    bf58        X.      IT       PL
        0x0001d8ee:    fa02f504    ....    LSLPL    r5,r2,r4
        0x0001d8f2:    fa02f203    ....    LSL      r2,r2,r3
        0x0001d8f6:    bf58        X.      IT       PL
        0x0001d8f8:    2200        ."      MOVPL    r2,#0
        0x0001d8fa:    4329        )C      ORRS     r1,r1,r5
        0x0001d8fc:    4310        .C      ORRS     r0,r0,r2
        0x0001d8fe:    ea5f720c    _..r    LSLS     r2,r12,#28
        0x0001d902:    f57faf7e    ..~.    BPL      0x1d802 ; get_raw_dcu_mask + 70
        0x0001d906:    f10e0206    ....    ADD      r2,lr,#6
        0x0001d90a:    2407        .$      MOVS     r4,#7
        0x0001d90c:    f1ce051a    ....    RSB      r5,lr,#0x1a
        0x0001d910:    fa24f505    $...    LSR      r5,r4,r5
        0x0001d914:    fa04f202    ....    LSL      r2,r4,r2
        0x0001d918:    f1be031a    ....    SUBS     r3,lr,#0x1a
        0x0001d91c:    bf58        X.      IT       PL
        0x0001d91e:    fa04f503    ....    LSLPL    r5,r4,r3
        0x0001d922:    bf58        X.      IT       PL
        0x0001d924:    2200        ."      MOVPL    r2,#0
        0x0001d926:    4329        )C      ORRS     r1,r1,r5
        0x0001d928:    4310        .C      ORRS     r0,r0,r2
        0x0001d92a:    ea5f62cc    _..b    LSLS     r2,r12,#27
        0x0001d92e:    f57faf6c    ..l.    BPL      0x1d80a ; get_raw_dcu_mask + 78
        0x0001d932:    f10e0209    ....    ADD      r2,lr,#9
        0x0001d936:    2407        .$      MOVS     r4,#7
        0x0001d938:    f1ce0517    ....    RSB      r5,lr,#0x17
        0x0001d93c:    fa24f505    $...    LSR      r5,r4,r5
        0x0001d940:    fa04f202    ....    LSL      r2,r4,r2
        0x0001d944:    f1be0317    ....    SUBS     r3,lr,#0x17
        0x0001d948:    bf58        X.      IT       PL
        0x0001d94a:    fa04f503    ....    LSLPL    r5,r4,r3
        0x0001d94e:    bf58        X.      IT       PL
        0x0001d950:    2200        ."      MOVPL    r2,#0
        0x0001d952:    4329        )C      ORRS     r1,r1,r5
        0x0001d954:    4310        .C      ORRS     r0,r0,r2
        0x0001d956:    ea5f628c    _..b    LSLS     r2,r12,#26
        0x0001d95a:    f57faf5a    ..Z.    BPL      0x1d812 ; get_raw_dcu_mask + 86
        0x0001d95e:    f10e020c    ....    ADD      r2,lr,#0xc
        0x0001d962:    2407        .$      MOVS     r4,#7
        0x0001d964:    f1ce0514    ....    RSB      r5,lr,#0x14
        0x0001d968:    fa24f505    $...    LSR      r5,r4,r5
        0x0001d96c:    fa04f202    ....    LSL      r2,r4,r2
        0x0001d970:    f1be0314    ....    SUBS     r3,lr,#0x14
        0x0001d974:    bf58        X.      IT       PL
        0x0001d976:    fa04f503    ....    LSLPL    r5,r4,r3
        0x0001d97a:    bf58        X.      IT       PL
        0x0001d97c:    2200        ."      MOVPL    r2,#0
        0x0001d97e:    4329        )C      ORRS     r1,r1,r5
        0x0001d980:    4310        .C      ORRS     r0,r0,r2
        0x0001d982:    ea5f624c    _.Lb    LSLS     r2,r12,#25
        0x0001d986:    f57faf48    ..H.    BPL      0x1d81a ; get_raw_dcu_mask + 94
        0x0001d98a:    f10e020f    ....    ADD      r2,lr,#0xf
        0x0001d98e:    2407        .$      MOVS     r4,#7
        0x0001d990:    f1ce0511    ....    RSB      r5,lr,#0x11
        0x0001d994:    fa24f505    $...    LSR      r5,r4,r5
        0x0001d998:    fa04f202    ....    LSL      r2,r4,r2
        0x0001d99c:    f1be0311    ....    SUBS     r3,lr,#0x11
        0x0001d9a0:    bf58        X.      IT       PL
        0x0001d9a2:    fa04f503    ....    LSLPL    r5,r4,r3
        0x0001d9a6:    bf58        X.      IT       PL
        0x0001d9a8:    2200        ."      MOVPL    r2,#0
        0x0001d9aa:    4329        )C      ORRS     r1,r1,r5
        0x0001d9ac:    4310        .C      ORRS     r0,r0,r2
        0x0001d9ae:    ea5f620c    _..b    LSLS     r2,r12,#24
        0x0001d9b2:    f57faf36    ..6.    BPL      0x1d822 ; get_raw_dcu_mask + 102
        0x0001d9b6:    f10e0212    ....    ADD      r2,lr,#0x12
        0x0001d9ba:    2407        .$      MOVS     r4,#7
        0x0001d9bc:    f1ce050e    ....    RSB      r5,lr,#0xe
        0x0001d9c0:    fa24f505    $...    LSR      r5,r4,r5
        0x0001d9c4:    fa04f202    ....    LSL      r2,r4,r2
        0x0001d9c8:    f1be030e    ....    SUBS     r3,lr,#0xe
        0x0001d9cc:    bf58        X.      IT       PL
        0x0001d9ce:    fa04f503    ....    LSLPL    r5,r4,r3
        0x0001d9d2:    bf58        X.      IT       PL
        0x0001d9d4:    2200        ."      MOVPL    r2,#0
        0x0001d9d6:    4329        )C      ORRS     r1,r1,r5
        0x0001d9d8:    4310        .C      ORRS     r0,r0,r2
        0x0001d9da:    ea5f52cc    _..R    LSLS     r2,r12,#23
        0x0001d9de:    f57faf24    ..$.    BPL      0x1d82a ; get_raw_dcu_mask + 110
        0x0001d9e2:    f10e0215    ....    ADD      r2,lr,#0x15
        0x0001d9e6:    2407        .$      MOVS     r4,#7
        0x0001d9e8:    f1ce050b    ....    RSB      r5,lr,#0xb
        0x0001d9ec:    fa24f505    $...    LSR      r5,r4,r5
        0x0001d9f0:    fa04f202    ....    LSL      r2,r4,r2
        0x0001d9f4:    f1be030b    ....    SUBS     r3,lr,#0xb
        0x0001d9f8:    bf58        X.      IT       PL
        0x0001d9fa:    fa04f503    ....    LSLPL    r5,r4,r3
        0x0001d9fe:    bf58        X.      IT       PL
        0x0001da00:    2200        ."      MOVPL    r2,#0
        0x0001da02:    4329        )C      ORRS     r1,r1,r5
        0x0001da04:    4310        .C      ORRS     r0,r0,r2
        0x0001da06:    ea5f528c    _..R    LSLS     r2,r12,#22
        0x0001da0a:    f57faf12    ....    BPL      0x1d832 ; get_raw_dcu_mask + 118
        0x0001da0e:    f10e0218    ....    ADD      r2,lr,#0x18
        0x0001da12:    2407        .$      MOVS     r4,#7
        0x0001da14:    f1ce0508    ....    RSB      r5,lr,#8
        0x0001da18:    fa24f505    $...    LSR      r5,r4,r5
        0x0001da1c:    fa04f202    ....    LSL      r2,r4,r2
        0x0001da20:    f1be0308    ....    SUBS     r3,lr,#8
        0x0001da24:    bf58        X.      IT       PL
        0x0001da26:    fa04f503    ....    LSLPL    r5,r4,r3
        0x0001da2a:    bf58        X.      IT       PL
        0x0001da2c:    2200        ."      MOVPL    r2,#0
        0x0001da2e:    4329        )C      ORRS     r1,r1,r5
        0x0001da30:    4310        .C      ORRS     r0,r0,r2
        0x0001da32:    ea5f524c    _.LR    LSLS     r2,r12,#21
        0x0001da36:    f57faf00    ....    BPL      0x1d83a ; get_raw_dcu_mask + 126
        0x0001da3a:    f10e021b    ....    ADD      r2,lr,#0x1b
        0x0001da3e:    2407        .$      MOVS     r4,#7
        0x0001da40:    f1ce0505    ....    RSB      r5,lr,#5
        0x0001da44:    fa24f505    $...    LSR      r5,r4,r5
        0x0001da48:    fa04f202    ....    LSL      r2,r4,r2
        0x0001da4c:    f1be0305    ....    SUBS     r3,lr,#5
        0x0001da50:    bf58        X.      IT       PL
        0x0001da52:    fa04f503    ....    LSLPL    r5,r4,r3
        0x0001da56:    bf58        X.      IT       PL
        0x0001da58:    2200        ."      MOVPL    r2,#0
        0x0001da5a:    4329        )C      ORRS     r1,r1,r5
        0x0001da5c:    4310        .C      ORRS     r0,r0,r2
        0x0001da5e:    ea5f520c    _..R    LSLS     r2,r12,#20
        0x0001da62:    f57faeee    ....    BPL      0x1d842 ; get_raw_dcu_mask + 134
        0x0001da66:    f10e021e    ....    ADD      r2,lr,#0x1e
        0x0001da6a:    2407        .$      MOVS     r4,#7
        0x0001da6c:    f1ce0502    ....    RSB      r5,lr,#2
        0x0001da70:    fa24f505    $...    LSR      r5,r4,r5
        0x0001da74:    fa04f202    ....    LSL      r2,r4,r2
        0x0001da78:    f1be0302    ....    SUBS     r3,lr,#2
        0x0001da7c:    bf58        X.      IT       PL
        0x0001da7e:    fa04f503    ....    LSLPL    r5,r4,r3
        0x0001da82:    bf58        X.      IT       PL
        0x0001da84:    2200        ."      MOVPL    r2,#0
        0x0001da86:    4329        )C      ORRS     r1,r1,r5
        0x0001da88:    4310        .C      ORRS     r0,r0,r2
        0x0001da8a:    ea5f42cc    _..B    LSLS     r2,r12,#19
        0x0001da8e:    f57faedc    ....    BPL      0x1d84a ; get_raw_dcu_mask + 142
        0x0001da92:    f10e0221    ..!.    ADD      r2,lr,#0x21
        0x0001da96:    2407        .$      MOVS     r4,#7
        0x0001da98:    ea6f050e    o...    MVN      r5,lr
        0x0001da9c:    fa24f505    $...    LSR      r5,r4,r5
        0x0001daa0:    fa04f202    ....    LSL      r2,r4,r2
        0x0001daa4:    f11e0301    ....    ADDS     r3,lr,#1
        0x0001daa8:    bf58        X.      IT       PL
        0x0001daaa:    fa04f503    ....    LSLPL    r5,r4,r3
        0x0001daae:    bf58        X.      IT       PL
        0x0001dab0:    2200        ."      MOVPL    r2,#0
        0x0001dab2:    4329        )C      ORRS     r1,r1,r5
        0x0001dab4:    4310        .C      ORRS     r0,r0,r2
        0x0001dab6:    ea5f428c    _..B    LSLS     r2,r12,#18
        0x0001daba:    f57faeca    ....    BPL      0x1d852 ; get_raw_dcu_mask + 150
        0x0001dabe:    f06f0503    o...    MVN      r5,#3
        0x0001dac2:    f10e0224    ..$.    ADD      r2,lr,#0x24
        0x0001dac6:    2407        .$      MOVS     r4,#7
        0x0001dac8:    eba5050e    ....    SUB      r5,r5,lr
        0x0001dacc:    fa24f505    $...    LSR      r5,r4,r5
        0x0001dad0:    fa04f202    ....    LSL      r2,r4,r2
        0x0001dad4:    f11e0304    ....    ADDS     r3,lr,#4
        0x0001dad8:    bf58        X.      IT       PL
        0x0001dada:    fa04f503    ....    LSLPL    r5,r4,r3
        0x0001dade:    bf58        X.      IT       PL
        0x0001dae0:    2200        ."      MOVPL    r2,#0
        0x0001dae2:    4329        )C      ORRS     r1,r1,r5
        0x0001dae4:    4310        .C      ORRS     r0,r0,r2
        0x0001dae6:    ea5f424c    _.LB    LSLS     r2,r12,#17
        0x0001daea:    f57faeb6    ....    BPL      0x1d85a ; get_raw_dcu_mask + 158
        0x0001daee:    f06f0506    o...    MVN      r5,#6
        0x0001daf2:    f10e0227    ..'.    ADD      r2,lr,#0x27
        0x0001daf6:    2407        .$      MOVS     r4,#7
        0x0001daf8:    eba5050e    ....    SUB      r5,r5,lr
        0x0001dafc:    fa24f505    $...    LSR      r5,r4,r5
        0x0001db00:    fa04f202    ....    LSL      r2,r4,r2
        0x0001db04:    f11e0307    ....    ADDS     r3,lr,#7
        0x0001db08:    bf58        X.      IT       PL
        0x0001db0a:    fa04f503    ....    LSLPL    r5,r4,r3
        0x0001db0e:    bf58        X.      IT       PL
        0x0001db10:    2200        ."      MOVPL    r2,#0
        0x0001db12:    4329        )C      ORRS     r1,r1,r5
        0x0001db14:    4310        .C      ORRS     r0,r0,r2
        0x0001db16:    ea5f420c    _..B    LSLS     r2,r12,#16
        0x0001db1a:    f57faea2    ....    BPL      0x1d862 ; get_raw_dcu_mask + 166
        0x0001db1e:    f06f0509    o...    MVN      r5,#9
        0x0001db22:    f10e022a    ..*.    ADD      r2,lr,#0x2a
        0x0001db26:    2407        .$      MOVS     r4,#7
        0x0001db28:    eba5050e    ....    SUB      r5,r5,lr
        0x0001db2c:    fa24f505    $...    LSR      r5,r4,r5
        0x0001db30:    fa04f202    ....    LSL      r2,r4,r2
        0x0001db34:    f11e030a    ....    ADDS     r3,lr,#0xa
        0x0001db38:    bf58        X.      IT       PL
        0x0001db3a:    fa04f503    ....    LSLPL    r5,r4,r3
        0x0001db3e:    bf58        X.      IT       PL
        0x0001db40:    2200        ."      MOVPL    r2,#0
        0x0001db42:    4329        )C      ORRS     r1,r1,r5
        0x0001db44:    4310        .C      ORRS     r0,r0,r2
        0x0001db46:    ea5f32cc    _..2    LSLS     r2,r12,#15
        0x0001db4a:    f57fae8e    ....    BPL      0x1d86a ; get_raw_dcu_mask + 174
        0x0001db4e:    f06f050c    o...    MVN      r5,#0xc
        0x0001db52:    f10e022d    ..-.    ADD      r2,lr,#0x2d
        0x0001db56:    2407        .$      MOVS     r4,#7
        0x0001db58:    eba5050e    ....    SUB      r5,r5,lr
        0x0001db5c:    fa24f505    $...    LSR      r5,r4,r5
        0x0001db60:    fa04f202    ....    LSL      r2,r4,r2
        0x0001db64:    f11e030d    ....    ADDS     r3,lr,#0xd
        0x0001db68:    bf58        X.      IT       PL
        0x0001db6a:    fa04f503    ....    LSLPL    r5,r4,r3
        0x0001db6e:    bf58        X.      IT       PL
        0x0001db70:    2200        ."      MOVPL    r2,#0
        0x0001db72:    4329        )C      ORRS     r1,r1,r5
        0x0001db74:    4310        .C      ORRS     r0,r0,r2
        0x0001db76:    ea5f328c    _..2    LSLS     r2,r12,#14
        0x0001db7a:    f57fae7a    ..z.    BPL      0x1d872 ; get_raw_dcu_mask + 182
        0x0001db7e:    f06f050f    o...    MVN      r5,#0xf
        0x0001db82:    f10e0230    ..0.    ADD      r2,lr,#0x30
        0x0001db86:    2407        .$      MOVS     r4,#7
        0x0001db88:    eba5050e    ....    SUB      r5,r5,lr
        0x0001db8c:    fa24f505    $...    LSR      r5,r4,r5
        0x0001db90:    fa04f202    ....    LSL      r2,r4,r2
        0x0001db94:    f11e0310    ....    ADDS     r3,lr,#0x10
        0x0001db98:    bf58        X.      IT       PL
        0x0001db9a:    fa04f503    ....    LSLPL    r5,r4,r3
        0x0001db9e:    bf58        X.      IT       PL
        0x0001dba0:    2200        ."      MOVPL    r2,#0
        0x0001dba2:    4329        )C      ORRS     r1,r1,r5
        0x0001dba4:    4310        .C      ORRS     r0,r0,r2
        0x0001dba6:    ea5f324c    _.L2    LSLS     r2,r12,#13
        0x0001dbaa:    f57fae66    ..f.    BPL      0x1d87a ; get_raw_dcu_mask + 190
        0x0001dbae:    f06f0512    o...    MVN      r5,#0x12
        0x0001dbb2:    f10e0233    ..3.    ADD      r2,lr,#0x33
        0x0001dbb6:    2407        .$      MOVS     r4,#7
        0x0001dbb8:    eba5050e    ....    SUB      r5,r5,lr
        0x0001dbbc:    fa24f505    $...    LSR      r5,r4,r5
        0x0001dbc0:    fa04f202    ....    LSL      r2,r4,r2
        0x0001dbc4:    f11e0313    ....    ADDS     r3,lr,#0x13
        0x0001dbc8:    bf58        X.      IT       PL
        0x0001dbca:    fa04f503    ....    LSLPL    r5,r4,r3
        0x0001dbce:    bf58        X.      IT       PL
        0x0001dbd0:    2200        ."      MOVPL    r2,#0
        0x0001dbd2:    4329        )C      ORRS     r1,r1,r5
        0x0001dbd4:    4310        .C      ORRS     r0,r0,r2
        0x0001dbd6:    ea5f320c    _..2    LSLS     r2,r12,#12
        0x0001dbda:    f57fae65    ..e.    BPL      0x1d8a8 ; get_raw_dcu_mask + 236
        0x0001dbde:    e64f        O.      B        0x1d880 ; get_raw_dcu_mask + 196
    get_ui32_dcu_mask
        0x0001dbe0:    f2404320    @. C    MOVW     r3,#0x420
        0x0001dbe4:    f2c10300    ....    MOVT     r3,#0x1000
        0x0001dbe8:    f8d3c000    ....    LDR      r12,[r3,#0]
        0x0001dbec:    f1cc0320    .. .    RSB      r3,r12,#0x20
        0x0001dbf0:    fa20f00c     ...    LSR      r0,r0,r12
        0x0001dbf4:    fa01f303    ....    LSL      r3,r1,r3
        0x0001dbf8:    4303        .C      ORRS     r3,r3,r0
        0x0001dbfa:    f1bc0020    .. .    SUBS     r0,r12,#0x20
        0x0001dbfe:    bf58        X.      IT       PL
        0x0001dc00:    fa21f300    !...    LSRPL    r3,r1,r0
        0x0001dc04:    f0030007    ....    AND      r0,r3,#7
        0x0001dc08:    ea800002    ....    EOR      r0,r0,r2
        0x0001dc0c:    fa21fc0c    !...    LSR      r12,r1,r12
        0x0001dc10:    fab0f080    ....    CLZ      r0,r0
        0x0001dc14:    f3c301c2    ....    UBFX     r1,r3,#3,#3
        0x0001dc18:    bf58        X.      IT       PL
        0x0001dc1a:    f04f0c00    O...    MOVPL    r12,#0
        0x0001dc1e:    0940        @.      LSRS     r0,r0,#5
        0x0001dc20:    4051        Q@      EORS     r1,r1,r2
        0x0001dc22:    f3c31182    ....    UBFX     r1,r3,#6,#3
        0x0001dc26:    bf08        ..      IT       EQ
        0x0001dc28:    3002        .0      ADDEQ    r0,#2
        0x0001dc2a:    4051        Q@      EORS     r1,r1,r2
        0x0001dc2c:    f3c32142    ..B!    UBFX     r1,r3,#9,#3
        0x0001dc30:    bf08        ..      IT       EQ
        0x0001dc32:    3004        .0      ADDEQ    r0,#4
        0x0001dc34:    4051        Q@      EORS     r1,r1,r2
        0x0001dc36:    f3c33102    ...1    UBFX     r1,r3,#12,#3
        0x0001dc3a:    bf08        ..      IT       EQ
        0x0001dc3c:    3008        .0      ADDEQ    r0,r0,#8
        0x0001dc3e:    4051        Q@      EORS     r1,r1,r2
        0x0001dc40:    f3c331c2    ...1    UBFX     r1,r3,#15,#3
        0x0001dc44:    bf08        ..      IT       EQ
        0x0001dc46:    f0400010    @...    ORREQ    r0,r0,#0x10
        0x0001dc4a:    4051        Q@      EORS     r1,r1,r2
        0x0001dc4c:    f3c34182    ...A    UBFX     r1,r3,#18,#3
        0x0001dc50:    bf08        ..      IT       EQ
        0x0001dc52:    f0400020    @. .    ORREQ    r0,r0,#0x20
        0x0001dc56:    4051        Q@      EORS     r1,r1,r2
        0x0001dc58:    f3c35142    ..BQ    UBFX     r1,r3,#21,#3
        0x0001dc5c:    bf08        ..      IT       EQ
        0x0001dc5e:    f0400040    @.@.    ORREQ    r0,r0,#0x40
        0x0001dc62:    4051        Q@      EORS     r1,r1,r2
        0x0001dc64:    f3c36102    ...a    UBFX     r1,r3,#24,#3
        0x0001dc68:    bf08        ..      IT       EQ
        0x0001dc6a:    f0400080    @...    ORREQ    r0,r0,#0x80
        0x0001dc6e:    4051        Q@      EORS     r1,r1,r2
        0x0001dc70:    f3c361c2    ...a    UBFX     r1,r3,#27,#3
        0x0001dc74:    bf08        ..      IT       EQ
        0x0001dc76:    f4407080    @..p    ORREQ    r0,r0,#0x100
        0x0001dc7a:    4051        Q@      EORS     r1,r1,r2
        0x0001dc7c:    ea4f7193    O..q    LSR      r1,r3,#30
        0x0001dc80:    ea41018c    A...    ORR      r1,r1,r12,LSL #2
        0x0001dc84:    bf08        ..      IT       EQ
        0x0001dc86:    f4407000    @..p    ORREQ    r0,r0,#0x200
        0x0001dc8a:    f0010107    ....    AND      r1,r1,#7
        0x0001dc8e:    4051        Q@      EORS     r1,r1,r2
        0x0001dc90:    bf08        ..      IT       EQ
        0x0001dc92:    f4406080    @..`    ORREQ    r0,r0,#0x400
        0x0001dc96:    f3cc0142    ..B.    UBFX     r1,r12,#1,#3
        0x0001dc9a:    4051        Q@      EORS     r1,r1,r2
        0x0001dc9c:    bf08        ..      IT       EQ
        0x0001dc9e:    f4406000    @..`    ORREQ    r0,r0,#0x800
        0x0001dca2:    f3cc1102    ....    UBFX     r1,r12,#4,#3
        0x0001dca6:    4051        Q@      EORS     r1,r1,r2
        0x0001dca8:    bf08        ..      IT       EQ
        0x0001dcaa:    f4405080    @..P    ORREQ    r0,r0,#0x1000
        0x0001dcae:    f3cc11c2    ....    UBFX     r1,r12,#7,#3
        0x0001dcb2:    4051        Q@      EORS     r1,r1,r2
        0x0001dcb4:    bf08        ..      IT       EQ
        0x0001dcb6:    f4405000    @..P    ORREQ    r0,r0,#0x2000
        0x0001dcba:    f3cc2182    ...!    UBFX     r1,r12,#10,#3
        0x0001dcbe:    4051        Q@      EORS     r1,r1,r2
        0x0001dcc0:    bf08        ..      IT       EQ
        0x0001dcc2:    f4404080    @..@    ORREQ    r0,r0,#0x4000
        0x0001dcc6:    f3cc3142    ..B1    UBFX     r1,r12,#13,#3
        0x0001dcca:    4051        Q@      EORS     r1,r1,r2
        0x0001dccc:    bf08        ..      IT       EQ
        0x0001dcce:    f4404000    @..@    ORREQ    r0,r0,#0x8000
        0x0001dcd2:    f3cc4102    ...A    UBFX     r1,r12,#16,#3
        0x0001dcd6:    4051        Q@      EORS     r1,r1,r2
        0x0001dcd8:    bf08        ..      IT       EQ
        0x0001dcda:    f4403080    @..0    ORREQ    r0,r0,#0x10000
        0x0001dcde:    f3cc41c2    ...A    UBFX     r1,r12,#19,#3
        0x0001dce2:    4051        Q@      EORS     r1,r1,r2
        0x0001dce4:    bf08        ..      IT       EQ
        0x0001dce6:    f4403000    @..0    ORREQ    r0,r0,#0x20000
        0x0001dcea:    f3cc5182    ...Q    UBFX     r1,r12,#22,#3
        0x0001dcee:    4051        Q@      EORS     r1,r1,r2
        0x0001dcf0:    bf08        ..      IT       EQ
        0x0001dcf2:    f4402080    @..     ORREQ    r0,r0,#0x40000
        0x0001dcf6:    f3cc6142    ..Ba    UBFX     r1,r12,#25,#3
        0x0001dcfa:    4051        Q@      EORS     r1,r1,r2
        0x0001dcfc:    bf08        ..      IT       EQ
        0x0001dcfe:    f4402000    @..     ORREQ    r0,r0,#0x80000
        0x0001dd02:    4770        pG      BX       lr
    main
        0x0001dd04:    b580        ..      PUSH     {r7,lr}
        0x0001dd06:    f5ad7d4e    ..N}    SUB      sp,sp,#0x338
        0x0001dd0a:    2000        .       MOVS     r0,#0
        0x0001dd0c:    9010        ..      STR      r0,[sp,#0x40]
        0x0001dd0e:    90cd        ..      STR      r0,[sp,#0x334]
        0x0001dd10:    90cc        ..      STR      r0,[sp,#0x330]
        0x0001dd12:    90cb        ..      STR      r0,[sp,#0x32c]
        0x0001dd14:    f7fafbe0    ....    BL       am_bsp_low_power_init ; 0x184d8
        0x0001dd18:    2004        .       MOVS     r0,#4
        0x0001dd1a:    f7fafc07    ....    BL       am_bsp_sdio_pins_enable ; 0x1852c
        0x0001dd1e:    f64e1034    N.4.    MOV      r0,#0xe934
        0x0001dd22:    f2c00001    ....    MOVT     r0,#1
        0x0001dd26:    6801        .h      LDR      r1,[r0,#0]
        0x0001dd28:    204c        L       MOVS     r0,#0x4c
        0x0001dd2a:    f7fbfff9    ....    BL       am_hal_gpio_pinconfig ; 0x19d20
        0x0001dd2e:    f240213c    @.<!    MOVW     r1,#0x23c
        0x0001dd32:    f2c40101    ....    MOVT     r1,#0x4001
        0x0001dd36:    f44f5080    O..P    MOV      r0,#0x1000
        0x0001dd3a:    6008        .`      STR      r0,[r1,#0]
        0x0001dd3c:    f7fcf8a6    ....    BL       am_hal_interrupt_master_enable ; 0x19e8c
        0x0001dd40:    f7fafb8a    ....    BL       am_bsp_itm_printf_enable ; 0x18458
        0x0001dd44:    9810        ..      LDR      r0,[sp,#0x40]
        0x0001dd46:    901e        ..      STR      r0,[sp,#0x78]
        0x0001dd48:    e7ff        ..      B        0x1dd4a ; main + 70
        0x0001dd4a:    981e        ..      LDR      r0,[sp,#0x78]
        0x0001dd4c:    f5b05fa0    ..._    CMP      r0,#0x1400
        0x0001dd50:    da1a        ..      BGE      0x1dd88 ; main + 132
        0x0001dd52:    e7ff        ..      B        0x1dd54 ; main + 80
        0x0001dd54:    9a1e        ..      LDR      r2,[sp,#0x78]
        0x0001dd56:    f1c200ff    ....    RSB      r0,r2,#0xff
        0x0001dd5a:    f2400140    @.@.    MOVW     r1,#0x40
        0x0001dd5e:    f2c10106    ....    MOVT     r1,#0x1006
        0x0001dd62:    5488        .T      STRB     r0,[r1,r2]
        0x0001dd64:    981e        ..      LDR      r0,[sp,#0x78]
        0x0001dd66:    f6414190    A..A    MOV      r1,#0x1c90
        0x0001dd6a:    f2c10100    ....    MOVT     r1,#0x1000
        0x0001dd6e:    5408        .T      STRB     r0,[r1,r0]
        0x0001dd70:    9a1e        ..      LDR      r2,[sp,#0x78]
        0x0001dd72:    f6400190    @...    MOVW     r1,#0x890
        0x0001dd76:    f2c10100    ....    MOVT     r1,#0x1000
        0x0001dd7a:    2000        .       MOVS     r0,#0
        0x0001dd7c:    5488        .T      STRB     r0,[r1,r2]
        0x0001dd7e:    e7ff        ..      B        0x1dd80 ; main + 124
        0x0001dd80:    981e        ..      LDR      r0,[sp,#0x78]
        0x0001dd82:    3001        .0      ADDS     r0,#1
        0x0001dd84:    901e        ..      STR      r0,[sp,#0x78]
        0x0001dd86:    e7e0        ..      B        0x1dd4a ; main + 70
        0x0001dd88:    2000        .       MOVS     r0,#0
        0x0001dd8a:    2101        .!      MOVS     r1,#1
        0x0001dd8c:    f7fbffaa    ....    BL       am_hal_get_card_host ; 0x19ce4
        0x0001dd90:    4601        .F      MOV      r1,r0
        0x0001dd92:    f6400088    @...    MOV      r0,#0x888
        0x0001dd96:    f2c10000    ....    MOVT     r0,#0x1000
        0x0001dd9a:    6001        .`      STR      r1,[r0,#0]
        0x0001dd9c:    6800        .h      LDR      r0,[r0,#0]
        0x0001dd9e:    b940        @.      CBNZ     r0,0x1ddb2 ; main + 174
        0x0001dda0:    e7ff        ..      B        0x1dda2 ; main + 158
        0x0001dda2:    f24f000b    O...    MOV      r0,#0xf00b
        0x0001dda6:    f2c00001    ....    MOVT     r0,#1
        0x0001ddaa:    f7fefef5    ....    BL       am_util_stdio_printf ; 0x1cb98
        0x0001ddae:    e7ff        ..      B        0x1ddb0 ; main + 172
        0x0001ddb0:    e7fe        ..      B        0x1ddb0 ; main + 172
        0x0001ddb2:    f64e7007    N..p    MOV      r0,#0xef07
        0x0001ddb6:    f2c00001    ....    MOVT     r0,#1
        0x0001ddba:    f7fefeed    ....    BL       am_util_stdio_printf ; 0x1cb98
        0x0001ddbe:    e7ff        ..      B        0x1ddc0 ; main + 188
        0x0001ddc0:    f6400088    @...    MOV      r0,#0x888
        0x0001ddc4:    f2c10000    ....    MOVT     r0,#0x1000
        0x0001ddc8:    6800        .h      LDR      r0,[r0,#0]
        0x0001ddca:    a91f        ..      ADD      r1,sp,#0x7c
        0x0001ddcc:    f7fafe30    ..0.    BL       am_hal_card_host_find_card ; 0x18a30
        0x0001ddd0:    b188        ..      CBZ      r0,0x1ddf6 ; main + 242
        0x0001ddd2:    e7ff        ..      B        0x1ddd4 ; main + 208
        0x0001ddd4:    f24f004c    O.L.    MOV      r0,#0xf04c
        0x0001ddd8:    f2c00001    ....    MOVT     r0,#1
        0x0001dddc:    f7fefedc    ....    BL       am_util_stdio_printf ; 0x1cb98
        0x0001dde0:    f44f707a    O.zp    MOV      r0,#0x3e8
        0x0001dde4:    f7fefe58    ..X.    BL       am_util_delay_ms ; 0x1ca98
        0x0001dde8:    f64e70c9    N..p    MOV      r0,#0xefc9
        0x0001ddec:    f2c00001    ....    MOVT     r0,#1
        0x0001ddf0:    f7fefed2    ....    BL       am_util_stdio_printf ; 0x1cb98
        0x0001ddf4:    e7e4        ..      B        0x1ddc0 ; main + 188
        0x0001ddf6:    2001        .       MOVS     r0,#1
        0x0001ddf8:    f7fafb7a    ..z.    BL       am_bsp_sd_cd_pin_enable ; 0x184f0
        0x0001ddfc:    f2487179    H.yq    MOV      r1,#0x8779
        0x0001de00:    f2c00101    ....    MOVT     r1,#1
        0x0001de04:    a81f        ..      ADD      r0,sp,#0x7c
        0x0001de06:    f7fcffb7    ....    BL       am_hal_sd_card_enable_card_detect ; 0x1ad78
        0x0001de0a:    90cc        ..      STR      r0,[sp,#0x330]
        0x0001de0c:    98cc        ..      LDR      r0,[sp,#0x330]
        0x0001de0e:    b138        8.      CBZ      r0,0x1de20 ; main + 284
        0x0001de10:    e7ff        ..      B        0x1de12 ; main + 270
        0x0001de12:    f64e60ba    N..`    MOV      r0,#0xeeba
        0x0001de16:    f2c00001    ....    MOVT     r0,#1
        0x0001de1a:    f7fefebd    ....    BL       am_util_stdio_printf ; 0x1cb98
        0x0001de1e:    e7ff        ..      B        0x1de20 ; main + 284
        0x0001de20:    2000        .       MOVS     r0,#0
        0x0001de22:    901d        ..      STR      r0,[sp,#0x74]
        0x0001de24:    e7ff        ..      B        0x1de26 ; main + 290
        0x0001de26:    981d        ..      LDR      r0,[sp,#0x74]
        0x0001de28:    0a80        ..      LSRS     r0,r0,#10
        0x0001de2a:    2804        .(      CMP      r0,#4
        0x0001de2c:    f200834b    ..K.    BHI.W    0x1e4c6 ; main + 1986
        0x0001de30:    e7ff        ..      B        0x1de32 ; main + 302
        0x0001de32:    f24000f0    @...    MOVW     r0,#0xf0
        0x0001de36:    f2c10000    ....    MOVT     r0,#0x1000
        0x0001de3a:    6800        .h      LDR      r0,[r0,#0]
        0x0001de3c:    28ff        .(      CMP      r0,#0xff
        0x0001de3e:    d107        ..      BNE      0x1de50 ; main + 332
        0x0001de40:    e7ff        ..      B        0x1de42 ; main + 318
        0x0001de42:    f24f0027    O.'.    MOV      r0,#0xf027
        0x0001de46:    f2c00001    ....    MOVT     r0,#1
        0x0001de4a:    f7fefea5    ....    BL       am_util_stdio_printf ; 0x1cb98
        0x0001de4e:    e32f        /.      B        0x1e4b0 ; main + 1964
        0x0001de50:    f24000f0    @...    MOVW     r0,#0xf0
        0x0001de54:    f2c10000    ....    MOVT     r0,#0x1000
        0x0001de58:    6800        .h      LDR      r0,[r0,#0]
        0x0001de5a:    2801        .(      CMP      r0,#1
        0x0001de5c:    f0408315    @...    BNE.W    0x1e48a ; main + 1926
        0x0001de60:    e7ff        ..      B        0x1de62 ; main + 350
        0x0001de62:    98cb        ..      LDR      r0,[sp,#0x32c]
        0x0001de64:    f6400184    @...    MOV      r1,#0x884
        0x0001de68:    f2c10100    ....    MOVT     r1,#0x1000
        0x0001de6c:    6809        .h      LDR      r1,[r1,#0]
        0x0001de6e:    4288        .B      CMP      r0,r1
        0x0001de70:    f0008081    ....    BEQ.W    0x1df76 ; main + 626
        0x0001de74:    e7ff        ..      B        0x1de76 ; main + 370
        0x0001de76:    2000        .       MOVS     r0,#0
        0x0001de78:    2101        .!      MOVS     r1,#1
        0x0001de7a:    f7fbff33    ..3.    BL       am_hal_get_card_host ; 0x19ce4
        0x0001de7e:    4601        .F      MOV      r1,r0
        0x0001de80:    f6400088    @...    MOV      r0,#0x888
        0x0001de84:    f2c10000    ....    MOVT     r0,#0x1000
        0x0001de88:    6001        .`      STR      r1,[r0,#0]
        0x0001de8a:    6800        .h      LDR      r0,[r0,#0]
        0x0001de8c:    b938        8.      CBNZ     r0,0x1de9e ; main + 410
        0x0001de8e:    e7ff        ..      B        0x1de90 ; main + 396
        0x0001de90:    f24f000b    O...    MOV      r0,#0xf00b
        0x0001de94:    f2c00001    ....    MOVT     r0,#1
        0x0001de98:    f7fefe7e    ..~.    BL       am_util_stdio_printf ; 0x1cb98
        0x0001de9c:    e30f        ..      B        0x1e4be ; main + 1978
        0x0001de9e:    f64e7007    N..p    MOV      r0,#0xef07
        0x0001dea2:    f2c00001    ....    MOVT     r0,#1
        0x0001dea6:    f7fefe77    ..w.    BL       am_util_stdio_printf ; 0x1cb98
        0x0001deaa:    f6400088    @...    MOV      r0,#0x888
        0x0001deae:    f2c10000    ....    MOVT     r0,#0x1000
        0x0001deb2:    6800        .h      LDR      r0,[r0,#0]
        0x0001deb4:    a91f        ..      ADD      r1,sp,#0x7c
        0x0001deb6:    f7fafdbb    ....    BL       am_hal_card_host_find_card ; 0x18a30
        0x0001deba:    b188        ..      CBZ      r0,0x1dee0 ; main + 476
        0x0001debc:    e7ff        ..      B        0x1debe ; main + 442
        0x0001debe:    f24f004c    O.L.    MOV      r0,#0xf04c
        0x0001dec2:    f2c00001    ....    MOVT     r0,#1
        0x0001dec6:    f7fefe67    ..g.    BL       am_util_stdio_printf ; 0x1cb98
        0x0001deca:    f44f707a    O.zp    MOV      r0,#0x3e8
        0x0001dece:    f7fefde3    ....    BL       am_util_delay_ms ; 0x1ca98
        0x0001ded2:    f64e70c9    N..p    MOV      r0,#0xefc9
        0x0001ded6:    f2c00001    ....    MOVT     r0,#1
        0x0001deda:    f7fefe5d    ..].    BL       am_util_stdio_printf ; 0x1cb98
        0x0001dede:    e2ee        ..      B        0x1e4be ; main + 1978
        0x0001dee0:    f2487179    H.yq    MOV      r1,#0x8779
        0x0001dee4:    f2c00101    ....    MOVT     r1,#1
        0x0001dee8:    a81f        ..      ADD      r0,sp,#0x7c
        0x0001deea:    f7fcff45    ..E.    BL       am_hal_sd_card_enable_card_detect ; 0x1ad78
        0x0001deee:    90cc        ..      STR      r0,[sp,#0x330]
        0x0001def0:    98cc        ..      LDR      r0,[sp,#0x330]
        0x0001def2:    b138        8.      CBZ      r0,0x1df04 ; main + 512
        0x0001def4:    e7ff        ..      B        0x1def6 ; main + 498
        0x0001def6:    f64e60ba    N..`    MOV      r0,#0xeeba
        0x0001defa:    f2c00001    ....    MOVT     r0,#1
        0x0001defe:    f7fefe4b    ..K.    BL       am_util_stdio_printf ; 0x1cb98
        0x0001df02:    e7ff        ..      B        0x1df04 ; main + 512
        0x0001df04:    f24e52d5    N..R    MOV      r2,#0xe5d5
        0x0001df08:    f2c00201    ....    MOVT     r2,#1
        0x0001df0c:    a81f        ..      ADD      r0,sp,#0x7c
        0x0001df0e:    2104        .!      MOVS     r1,#4
        0x0001df10:    2301        .#      MOVS     r3,#1
        0x0001df12:    f7fafdb9    ....    BL       am_hal_card_init ; 0x18a88
        0x0001df16:    b158        X.      CBZ      r0,0x1df30 ; main + 556
        0x0001df18:    e7ff        ..      B        0x1df1a ; main + 534
        0x0001df1a:    f44f707a    O.zp    MOV      r0,#0x3e8
        0x0001df1e:    f7fefdbb    ....    BL       am_util_delay_ms ; 0x1ca98
        0x0001df22:    f64e70ee    N..p    MOV      r0,#0xefee
        0x0001df26:    f2c00001    ....    MOVT     r0,#1
        0x0001df2a:    f7fefe35    ..5.    BL       am_util_stdio_printf ; 0x1cb98
        0x0001df2e:    e2c6        ..      B        0x1e4be ; main + 1978
        0x0001df30:    4669        iF      MOV      r1,sp
        0x0001df32:    2000        .       MOVS     r0,#0
        0x0001df34:    6048        H`      STR      r0,[r1,#4]
        0x0001df36:    6008        .`      STR      r0,[r1,#0]
        0x0001df38:    a81f        ..      ADD      r0,sp,#0x7c
        0x0001df3a:    2204        ."      MOVS     r2,#4
        0x0001df3c:    f6464300    F..C    MOVW     r3,#0x6c00
        0x0001df40:    f2c023dc    ...#    MOVT     r3,#0x2dc
        0x0001df44:    4611        .F      MOV      r1,r2
        0x0001df46:    f7fafb5b    ..[.    BL       am_hal_card_cfg_set ; 0x18600
        0x0001df4a:    90cc        ..      STR      r0,[sp,#0x330]
        0x0001df4c:    98cc        ..      LDR      r0,[sp,#0x330]
        0x0001df4e:    b158        X.      CBZ      r0,0x1df68 ; main + 612
        0x0001df50:    e7ff        ..      B        0x1df52 ; main + 590
        0x0001df52:    f44f707a    O.zp    MOV      r0,#0x3e8
        0x0001df56:    f7fefd9f    ....    BL       am_util_delay_ms ; 0x1ca98
        0x0001df5a:    f64e60d8    N..`    MOV      r0,#0xeed8
        0x0001df5e:    f2c00001    ....    MOVT     r0,#1
        0x0001df62:    f7fefe19    ....    BL       am_util_stdio_printf ; 0x1cb98
        0x0001df66:    e2aa        ..      B        0x1e4be ; main + 1978
        0x0001df68:    f6400084    @...    MOV      r0,#0x884
        0x0001df6c:    f2c10000    ....    MOVT     r0,#0x1000
        0x0001df70:    6800        .h      LDR      r0,[r0,#0]
        0x0001df72:    90cb        ..      STR      r0,[sp,#0x32c]
        0x0001df74:    e7ff        ..      B        0x1df76 ; main + 626
        0x0001df76:    f6400088    @...    MOV      r0,#0x888
        0x0001df7a:    f2c10000    ....    MOVT     r0,#0x1000
        0x0001df7e:    6800        .h      LDR      r0,[r0,#0]
        0x0001df80:    2103        .!      MOVS     r1,#3
        0x0001df82:    f7fafd7f    ....    BL       am_hal_card_host_set_xfer_mode ; 0x18a84
        0x0001df86:    f64e5091    N..P    MOV      r0,#0xed91
        0x0001df8a:    f2c00001    ....    MOVT     r0,#1
        0x0001df8e:    f7fefe03    ....    BL       am_util_stdio_printf ; 0x1cb98
        0x0001df92:    a81f        ..      ADD      r0,sp,#0x7c
        0x0001df94:    217e        ~!      MOVS     r1,#0x7e
        0x0001df96:    2202        ."      MOVS     r2,#2
        0x0001df98:    f7fafc8a    ....    BL       am_hal_card_get_csd_field ; 0x188b0
        0x0001df9c:    901c        ..      STR      r0,[sp,#0x70]
        0x0001df9e:    981c        ..      LDR      r0,[sp,#0x70]
        0x0001dfa0:    bb48        H.      CBNZ     r0,0x1dff6 ; main + 754
        0x0001dfa2:    e7ff        ..      B        0x1dfa4 ; main + 672
        0x0001dfa4:    a81f        ..      ADD      r0,sp,#0x7c
        0x0001dfa6:    900f        ..      STR      r0,[sp,#0x3c]
        0x0001dfa8:    212f        /!      MOVS     r1,#0x2f
        0x0001dfaa:    2203        ."      MOVS     r2,#3
        0x0001dfac:    f7fafc80    ....    BL       am_hal_card_get_csd_field ; 0x188b0
        0x0001dfb0:    4601        .F      MOV      r1,r0
        0x0001dfb2:    980f        ..      LDR      r0,[sp,#0x3c]
        0x0001dfb4:    9118        ..      STR      r1,[sp,#0x60]
        0x0001dfb6:    213e        >!      MOVS     r1,#0x3e
        0x0001dfb8:    220c        ."      MOVS     r2,#0xc
        0x0001dfba:    f7fafc79    ..y.    BL       am_hal_card_get_csd_field ; 0x188b0
        0x0001dfbe:    4601        .F      MOV      r1,r0
        0x0001dfc0:    980f        ..      LDR      r0,[sp,#0x3c]
        0x0001dfc2:    9119        ..      STR      r1,[sp,#0x64]
        0x0001dfc4:    2150        P!      MOVS     r1,#0x50
        0x0001dfc6:    2204        ."      MOVS     r2,#4
        0x0001dfc8:    f7fafc72    ..r.    BL       am_hal_card_get_csd_field ; 0x188b0
        0x0001dfcc:    9017        ..      STR      r0,[sp,#0x5c]
        0x0001dfce:    9818        ..      LDR      r0,[sp,#0x60]
        0x0001dfd0:    1c81        ..      ADDS     r1,r0,#2
        0x0001dfd2:    2001        .       MOVS     r0,#1
        0x0001dfd4:    fa00f101    ....    LSL      r1,r0,r1
        0x0001dfd8:    9116        ..      STR      r1,[sp,#0x58]
        0x0001dfda:    9917        ..      LDR      r1,[sp,#0x5c]
        0x0001dfdc:    4088        .@      LSLS     r0,r0,r1
        0x0001dfde:    9015        ..      STR      r0,[sp,#0x54]
        0x0001dfe0:    9819        ..      LDR      r0,[sp,#0x64]
        0x0001dfe2:    3001        .0      ADDS     r0,#1
        0x0001dfe4:    9916        ..      LDR      r1,[sp,#0x58]
        0x0001dfe6:    4348        HC      MULS     r0,r1,r0
        0x0001dfe8:    9915        ..      LDR      r1,[sp,#0x54]
        0x0001dfea:    4348        HC      MULS     r0,r1,r0
        0x0001dfec:    0a40        @.      LSRS     r0,r0,#9
        0x0001dfee:    901b        ..      STR      r0,[sp,#0x6c]
        0x0001dff0:    9815        ..      LDR      r0,[sp,#0x54]
        0x0001dff2:    901a        ..      STR      r0,[sp,#0x68]
        0x0001dff4:    e01d        ..      B        0x1e032 ; main + 814
        0x0001dff6:    981c        ..      LDR      r0,[sp,#0x70]
        0x0001dff8:    2801        .(      CMP      r0,#1
        0x0001dffa:    d119        ..      BNE      0x1e030 ; main + 812
        0x0001dffc:    e7ff        ..      B        0x1dffe ; main + 762
        0x0001dffe:    a81f        ..      ADD      r0,sp,#0x7c
        0x0001e000:    900e        ..      STR      r0,[sp,#0x38]
        0x0001e002:    2130        0!      MOVS     r1,#0x30
        0x0001e004:    2216        ."      MOVS     r2,#0x16
        0x0001e006:    f7fafc53    ..S.    BL       am_hal_card_get_csd_field ; 0x188b0
        0x0001e00a:    4601        .F      MOV      r1,r0
        0x0001e00c:    980e        ..      LDR      r0,[sp,#0x38]
        0x0001e00e:    9119        ..      STR      r1,[sp,#0x64]
        0x0001e010:    2150        P!      MOVS     r1,#0x50
        0x0001e012:    2204        ."      MOVS     r2,#4
        0x0001e014:    f7fafc4c    ..L.    BL       am_hal_card_get_csd_field ; 0x188b0
        0x0001e018:    9014        ..      STR      r0,[sp,#0x50]
        0x0001e01a:    9914        ..      LDR      r1,[sp,#0x50]
        0x0001e01c:    2001        .       MOVS     r0,#1
        0x0001e01e:    4088        .@      LSLS     r0,r0,r1
        0x0001e020:    901a        ..      STR      r0,[sp,#0x68]
        0x0001e022:    9919        ..      LDR      r1,[sp,#0x64]
        0x0001e024:    f44f6080    O..`    MOV      r0,#0x400
        0x0001e028:    eb002081    ...     ADD      r0,r0,r1,LSL #10
        0x0001e02c:    901b        ..      STR      r0,[sp,#0x6c]
        0x0001e02e:    e7ff        ..      B        0x1e030 ; main + 812
        0x0001e030:    e7ff        ..      B        0x1e032 ; main + 814
        0x0001e032:    981c        ..      LDR      r0,[sp,#0x70]
        0x0001e034:    1c41        A.      ADDS     r1,r0,#1
        0x0001e036:    f24f0099    O...    MOV      r0,#0xf099
        0x0001e03a:    f2c00001    ....    MOVT     r0,#1
        0x0001e03e:    f7fefdab    ....    BL       am_util_stdio_printf ; 0x1cb98
        0x0001e042:    9919        ..      LDR      r1,[sp,#0x64]
        0x0001e044:    f24f00d5    O...    MOV      r0,#0xf0d5
        0x0001e048:    f2c00001    ....    MOVT     r0,#1
        0x0001e04c:    f7fefda4    ....    BL       am_util_stdio_printf ; 0x1cb98
        0x0001e050:    991a        ..      LDR      r1,[sp,#0x68]
        0x0001e052:    f64e6094    N..`    MOV      r0,#0xee94
        0x0001e056:    f2c00001    ....    MOVT     r0,#1
        0x0001e05a:    f7fefd9d    ....    BL       am_util_stdio_printf ; 0x1cb98
        0x0001e05e:    991b        ..      LDR      r1,[sp,#0x6c]
        0x0001e060:    f24f00b5    O...    MOV      r0,#0xf0b5
        0x0001e064:    f2c00001    ....    MOVT     r0,#1
        0x0001e068:    f7fefd96    ....    BL       am_util_stdio_printf ; 0x1cb98
        0x0001e06c:    f64e30a8    N..0    MOV      r0,#0xeba8
        0x0001e070:    f2c00001    ....    MOVT     r0,#1
        0x0001e074:    f7fefd90    ....    BL       am_util_stdio_printf ; 0x1cb98
        0x0001e078:    2001        .       MOVS     r0,#1
        0x0001e07a:    f88d004f    ..O.    STRB     r0,[sp,#0x4f]
        0x0001e07e:    f64e404a    N.J@    MOV      r0,#0xec4a
        0x0001e082:    f2c00001    ....    MOVT     r0,#1
        0x0001e086:    f7fefd87    ....    BL       am_util_stdio_printf ; 0x1cb98
        0x0001e08a:    f89d204f    ..O     LDRB     r2,[sp,#0x4f]
        0x0001e08e:    f2400340    @.@.    MOVW     r3,#0x40
        0x0001e092:    f2c10306    ....    MOVT     r3,#0x1006
        0x0001e096:    a81f        ..      ADD      r0,sp,#0x7c
        0x0001e098:    f2411170    A.p.    MOV      r1,#0x1170
        0x0001e09c:    f2c00101    ....    MOVT     r1,#1
        0x0001e0a0:    f7fcfe02    ....    BL       am_hal_sd_card_block_write_sync ; 0x1aca8
        0x0001e0a4:    90cc        ..      STR      r0,[sp,#0x330]
        0x0001e0a6:    f8bd0330    ..0.    LDRH     r0,[sp,#0x330]
        0x0001e0aa:    b140        @.      CBZ      r0,0x1e0be ; main + 954
        0x0001e0ac:    e7ff        ..      B        0x1e0ae ; main + 938
        0x0001e0ae:    99cc        ..      LDR      r1,[sp,#0x330]
        0x0001e0b0:    f24f007e    O.~.    MOV      r0,#0xf07e
        0x0001e0b4:    f2c00001    ....    MOVT     r0,#1
        0x0001e0b8:    f7fefd6e    ..n.    BL       am_util_stdio_printf ; 0x1cb98
        0x0001e0bc:    e1ff        ..      B        0x1e4be ; main + 1978
        0x0001e0be:    f89d004f    ..O.    LDRB     r0,[sp,#0x4f]
        0x0001e0c2:    0241        A.      LSLS     r1,r0,#9
        0x0001e0c4:    f2414040    A.@@    MOVW     r0,#0x1440
        0x0001e0c8:    f2c10006    ....    MOVT     r0,#0x1006
        0x0001e0cc:    900d        ..      STR      r0,[sp,#0x34]
        0x0001e0ce:    f7faf94d    ..M.    BL       __aeabi_memclr4 ; 0x1836c
        0x0001e0d2:    9b0d        ..      LDR      r3,[sp,#0x34]
        0x0001e0d4:    f89d204f    ..O     LDRB     r2,[sp,#0x4f]
        0x0001e0d8:    a81f        ..      ADD      r0,sp,#0x7c
        0x0001e0da:    f2411170    A.p.    MOV      r1,#0x1170
        0x0001e0de:    f2c00101    ....    MOVT     r1,#1
        0x0001e0e2:    f7fcfd07    ....    BL       am_hal_sd_card_block_read_sync ; 0x1aaf4
        0x0001e0e6:    90cc        ..      STR      r0,[sp,#0x330]
        0x0001e0e8:    f8bd0330    ..0.    LDRH     r0,[sp,#0x330]
        0x0001e0ec:    b140        @.      CBZ      r0,0x1e100 ; main + 1020
        0x0001e0ee:    e7ff        ..      B        0x1e0f0 ; main + 1004
        0x0001e0f0:    99cc        ..      LDR      r1,[sp,#0x330]
        0x0001e0f2:    f24f0064    O.d.    MOV      r0,#0xf064
        0x0001e0f6:    f2c00001    ....    MOVT     r0,#1
        0x0001e0fa:    f7fefd4d    ..M.    BL       am_util_stdio_printf ; 0x1cb98
        0x0001e0fe:    e1de        ..      B        0x1e4be ; main + 1978
        0x0001e100:    f89d004f    ..O.    LDRB     r0,[sp,#0x4f]
        0x0001e104:    0242        B.      LSLS     r2,r0,#9
        0x0001e106:    f2414040    A.@@    MOVW     r0,#0x1440
        0x0001e10a:    f2c10006    ....    MOVT     r0,#0x1006
        0x0001e10e:    f2400140    @.@.    MOVW     r1,#0x40
        0x0001e112:    f2c10106    ....    MOVT     r1,#0x1006
        0x0001e116:    910c        ..      STR      r1,[sp,#0x30]
        0x0001e118:    f7fff8bc    ....    BL       check_if_data_match ; 0x1d294
        0x0001e11c:    f64e504e    N.NP    MOV      r0,#0xed4e
        0x0001e120:    f2c00001    ....    MOVT     r0,#1
        0x0001e124:    f7fefd38    ..8.    BL       am_util_stdio_printf ; 0x1cb98
        0x0001e128:    210a        .!      MOVS     r1,#0xa
        0x0001e12a:    f88d104f    ..O.    STRB     r1,[sp,#0x4f]
        0x0001e12e:    f64e30fb    N..0    MOV      r0,#0xebfb
        0x0001e132:    f2c00001    ....    MOVT     r0,#1
        0x0001e136:    f241127a    A.z.    MOV      r2,#0x117a
        0x0001e13a:    f2c00201    ....    MOVT     r2,#1
        0x0001e13e:    920b        ..      STR      r2,[sp,#0x2c]
        0x0001e140:    f7fefd2a    ..*.    BL       am_util_stdio_printf ; 0x1cb98
        0x0001e144:    990b        ..      LDR      r1,[sp,#0x2c]
        0x0001e146:    9b0c        ..      LDR      r3,[sp,#0x30]
        0x0001e148:    f89d204f    ..O     LDRB     r2,[sp,#0x4f]
        0x0001e14c:    a81f        ..      ADD      r0,sp,#0x7c
        0x0001e14e:    f7fcfdab    ....    BL       am_hal_sd_card_block_write_sync ; 0x1aca8
        0x0001e152:    90cc        ..      STR      r0,[sp,#0x330]
        0x0001e154:    f8bd0330    ..0.    LDRH     r0,[sp,#0x330]
        0x0001e158:    b140        @.      CBZ      r0,0x1e16c ; main + 1128
        0x0001e15a:    e7ff        ..      B        0x1e15c ; main + 1112
        0x0001e15c:    99cc        ..      LDR      r1,[sp,#0x330]
        0x0001e15e:    f24f007e    O.~.    MOV      r0,#0xf07e
        0x0001e162:    f2c00001    ....    MOVT     r0,#1
        0x0001e166:    f7fefd17    ....    BL       am_util_stdio_printf ; 0x1cb98
        0x0001e16a:    e1a8        ..      B        0x1e4be ; main + 1978
        0x0001e16c:    f89d004f    ..O.    LDRB     r0,[sp,#0x4f]
        0x0001e170:    0241        A.      LSLS     r1,r0,#9
        0x0001e172:    f2414040    A.@@    MOVW     r0,#0x1440
        0x0001e176:    f2c10006    ....    MOVT     r0,#0x1006
        0x0001e17a:    900a        ..      STR      r0,[sp,#0x28]
        0x0001e17c:    f7faf8f6    ....    BL       __aeabi_memclr4 ; 0x1836c
        0x0001e180:    9b0a        ..      LDR      r3,[sp,#0x28]
        0x0001e182:    f89d204f    ..O     LDRB     r2,[sp,#0x4f]
        0x0001e186:    a81f        ..      ADD      r0,sp,#0x7c
        0x0001e188:    f241117a    A.z.    MOV      r1,#0x117a
        0x0001e18c:    f2c00101    ....    MOVT     r1,#1
        0x0001e190:    f7fcfcb0    ....    BL       am_hal_sd_card_block_read_sync ; 0x1aaf4
        0x0001e194:    90cc        ..      STR      r0,[sp,#0x330]
        0x0001e196:    f8bd0330    ..0.    LDRH     r0,[sp,#0x330]
        0x0001e19a:    b140        @.      CBZ      r0,0x1e1ae ; main + 1194
        0x0001e19c:    e7ff        ..      B        0x1e19e ; main + 1178
        0x0001e19e:    99cc        ..      LDR      r1,[sp,#0x330]
        0x0001e1a0:    f24f0064    O.d.    MOV      r0,#0xf064
        0x0001e1a4:    f2c00001    ....    MOVT     r0,#1
        0x0001e1a8:    f7fefcf6    ....    BL       am_util_stdio_printf ; 0x1cb98
        0x0001e1ac:    e187        ..      B        0x1e4be ; main + 1978
        0x0001e1ae:    f89d004f    ..O.    LDRB     r0,[sp,#0x4f]
        0x0001e1b2:    0242        B.      LSLS     r2,r0,#9
        0x0001e1b4:    f2414040    A.@@    MOVW     r0,#0x1440
        0x0001e1b8:    f2c10006    ....    MOVT     r0,#0x1006
        0x0001e1bc:    f2400140    @.@.    MOVW     r1,#0x40
        0x0001e1c0:    f2c10106    ....    MOVT     r1,#0x1006
        0x0001e1c4:    f7fff866    ..f.    BL       check_if_data_match ; 0x1d294
        0x0001e1c8:    f64e30a8    N..0    MOV      r0,#0xeba8
        0x0001e1cc:    f2c00001    ....    MOVT     r0,#1
        0x0001e1d0:    f7fefce2    ....    BL       am_util_stdio_printf ; 0x1cb98
        0x0001e1d4:    200a        .       MOVS     r0,#0xa
        0x0001e1d6:    f88d004f    ..O.    STRB     r0,[sp,#0x4f]
        0x0001e1da:    f89d104f    ..O.    LDRB     r1,[sp,#0x4f]
        0x0001e1de:    f64e408d    N..@    MOV      r0,#0xec8d
        0x0001e1e2:    f2c00001    ....    MOVT     r0,#1
        0x0001e1e6:    f2411270    A.p.    MOV      r2,#0x1170
        0x0001e1ea:    f2c00201    ....    MOVT     r2,#1
        0x0001e1ee:    9209        ..      STR      r2,[sp,#0x24]
        0x0001e1f0:    f7fefcd2    ....    BL       am_util_stdio_printf ; 0x1cb98
        0x0001e1f4:    9909        ..      LDR      r1,[sp,#0x24]
        0x0001e1f6:    f89d204f    ..O     LDRB     r2,[sp,#0x4f]
        0x0001e1fa:    f6414390    A..C    MOV      r3,#0x1c90
        0x0001e1fe:    f2c10300    ....    MOVT     r3,#0x1000
        0x0001e202:    a81f        ..      ADD      r0,sp,#0x7c
        0x0001e204:    f7fcfd50    ..P.    BL       am_hal_sd_card_block_write_sync ; 0x1aca8
        0x0001e208:    90cc        ..      STR      r0,[sp,#0x330]
        0x0001e20a:    f8bd0330    ..0.    LDRH     r0,[sp,#0x330]
        0x0001e20e:    b140        @.      CBZ      r0,0x1e222 ; main + 1310
        0x0001e210:    e7ff        ..      B        0x1e212 ; main + 1294
        0x0001e212:    99cc        ..      LDR      r1,[sp,#0x330]
        0x0001e214:    f24f007e    O.~.    MOV      r0,#0xf07e
        0x0001e218:    f2c00001    ....    MOVT     r0,#1
        0x0001e21c:    f7fefcbc    ....    BL       am_util_stdio_printf ; 0x1cb98
        0x0001e220:    e14d        M.      B        0x1e4be ; main + 1978
        0x0001e222:    f89d004f    ..O.    LDRB     r0,[sp,#0x4f]
        0x0001e226:    0241        A.      LSLS     r1,r0,#9
        0x0001e228:    f6400090    @...    MOVW     r0,#0x890
        0x0001e22c:    f2c10000    ....    MOVT     r0,#0x1000
        0x0001e230:    9008        ..      STR      r0,[sp,#0x20]
        0x0001e232:    f7faf89b    ....    BL       __aeabi_memclr4 ; 0x1836c
        0x0001e236:    9b08        ..      LDR      r3,[sp,#0x20]
        0x0001e238:    f89d204f    ..O     LDRB     r2,[sp,#0x4f]
        0x0001e23c:    a81f        ..      ADD      r0,sp,#0x7c
        0x0001e23e:    f2411170    A.p.    MOV      r1,#0x1170
        0x0001e242:    f2c00101    ....    MOVT     r1,#1
        0x0001e246:    f7fcfc55    ..U.    BL       am_hal_sd_card_block_read_sync ; 0x1aaf4
        0x0001e24a:    90cc        ..      STR      r0,[sp,#0x330]
        0x0001e24c:    f8bd0330    ..0.    LDRH     r0,[sp,#0x330]
        0x0001e250:    b140        @.      CBZ      r0,0x1e264 ; main + 1376
        0x0001e252:    e7ff        ..      B        0x1e254 ; main + 1360
        0x0001e254:    99cc        ..      LDR      r1,[sp,#0x330]
        0x0001e256:    f24f0064    O.d.    MOV      r0,#0xf064
        0x0001e25a:    f2c00001    ....    MOVT     r0,#1
        0x0001e25e:    f7fefc9b    ....    BL       am_util_stdio_printf ; 0x1cb98
        0x0001e262:    e12c        ,.      B        0x1e4be ; main + 1978
        0x0001e264:    f89d004f    ..O.    LDRB     r0,[sp,#0x4f]
        0x0001e268:    0242        B.      LSLS     r2,r0,#9
        0x0001e26a:    f6400090    @...    MOVW     r0,#0x890
        0x0001e26e:    f2c10000    ....    MOVT     r0,#0x1000
        0x0001e272:    f6414190    A..A    MOV      r1,#0x1c90
        0x0001e276:    f2c10100    ....    MOVT     r1,#0x1000
        0x0001e27a:    9106        ..      STR      r1,[sp,#0x18]
        0x0001e27c:    f7fff80a    ....    BL       check_if_data_match ; 0x1d294
        0x0001e280:    f64e30a8    N..0    MOV      r0,#0xeba8
        0x0001e284:    f2c00001    ....    MOVT     r0,#1
        0x0001e288:    f7fefc86    ....    BL       am_util_stdio_printf ; 0x1cb98
        0x0001e28c:    f64e5016    N..P    MOV      r0,#0xed16
        0x0001e290:    f2c00001    ....    MOVT     r0,#1
        0x0001e294:    f7fefc80    ....    BL       am_util_stdio_printf ; 0x1cb98
        0x0001e298:    9b06        ..      LDR      r3,[sp,#0x18]
        0x0001e29a:    f2402119    @..!    MOV      r1,#0x219
        0x0001e29e:    f2c10100    ....    MOVT     r1,#0x1000
        0x0001e2a2:    2000        .       MOVS     r0,#0
        0x0001e2a4:    9007        ..      STR      r0,[sp,#0x1c]
        0x0001e2a6:    7008        .p      STRB     r0,[r1,#0]
        0x0001e2a8:    f89d204f    ..O     LDRB     r2,[sp,#0x4f]
        0x0001e2ac:    a81f        ..      ADD      r0,sp,#0x7c
        0x0001e2ae:    f2411170    A.p.    MOV      r1,#0x1170
        0x0001e2b2:    f2c00101    ....    MOVT     r1,#1
        0x0001e2b6:    f7fcfc7b    ..{.    BL       am_hal_sd_card_block_write_async ; 0x1abb0
        0x0001e2ba:    4601        .F      MOV      r1,r0
        0x0001e2bc:    9807        ..      LDR      r0,[sp,#0x1c]
        0x0001e2be:    91cc        ..      STR      r1,[sp,#0x330]
        0x0001e2c0:    9012        ..      STR      r0,[sp,#0x48]
        0x0001e2c2:    e7ff        ..      B        0x1e2c4 ; main + 1472
        0x0001e2c4:    f2402019    @..     MOV      r0,#0x219
        0x0001e2c8:    f2c10000    ....    MOVT     r0,#0x1000
        0x0001e2cc:    7800        .x      LDRB     r0,[r0,#0]
        0x0001e2ce:    07c0        ..      LSLS     r0,r0,#31
        0x0001e2d0:    b998        ..      CBNZ     r0,0x1e2fa ; main + 1526
        0x0001e2d2:    e7ff        ..      B        0x1e2d4 ; main + 1488
        0x0001e2d4:    2001        .       MOVS     r0,#1
        0x0001e2d6:    f7fefbdf    ....    BL       am_util_delay_ms ; 0x1ca98
        0x0001e2da:    9812        ..      LDR      r0,[sp,#0x48]
        0x0001e2dc:    3001        .0      ADDS     r0,#1
        0x0001e2de:    9012        ..      STR      r0,[sp,#0x48]
        0x0001e2e0:    9812        ..      LDR      r0,[sp,#0x48]
        0x0001e2e2:    f5b07f7a    ..z.    CMP      r0,#0x3e8
        0x0001e2e6:    d107        ..      BNE      0x1e2f8 ; main + 1524
        0x0001e2e8:    e7ff        ..      B        0x1e2ea ; main + 1510
        0x0001e2ea:    f24f1002    O...    MOV      r0,#0xf102
        0x0001e2ee:    f2c00001    ....    MOVT     r0,#1
        0x0001e2f2:    f7fefc51    ..Q.    BL       am_util_stdio_printf ; 0x1cb98
        0x0001e2f6:    e000        ..      B        0x1e2fa ; main + 1526
        0x0001e2f8:    e7e4        ..      B        0x1e2c4 ; main + 1472
        0x0001e2fa:    9812        ..      LDR      r0,[sp,#0x48]
        0x0001e2fc:    f5b07f7a    ..z.    CMP      r0,#0x3e8
        0x0001e300:    da07        ..      BGE      0x1e312 ; main + 1550
        0x0001e302:    e7ff        ..      B        0x1e304 ; main + 1536
        0x0001e304:    f64e706a    N.jp    MOV      r0,#0xef6a
        0x0001e308:    f2c00001    ....    MOVT     r0,#1
        0x0001e30c:    f7fefc44    ..D.    BL       am_util_stdio_printf ; 0x1cb98
        0x0001e310:    e7ff        ..      B        0x1e312 ; main + 1550
        0x0001e312:    f89d004f    ..O.    LDRB     r0,[sp,#0x4f]
        0x0001e316:    0241        A.      LSLS     r1,r0,#9
        0x0001e318:    f6400090    @...    MOVW     r0,#0x890
        0x0001e31c:    f2c10000    ....    MOVT     r0,#0x1000
        0x0001e320:    9004        ..      STR      r0,[sp,#0x10]
        0x0001e322:    f7faf823    ..#.    BL       __aeabi_memclr4 ; 0x1836c
        0x0001e326:    9b04        ..      LDR      r3,[sp,#0x10]
        0x0001e328:    f2402118    @..!    MOVW     r1,#0x218
        0x0001e32c:    f2c10100    ....    MOVT     r1,#0x1000
        0x0001e330:    2000        .       MOVS     r0,#0
        0x0001e332:    9005        ..      STR      r0,[sp,#0x14]
        0x0001e334:    7008        .p      STRB     r0,[r1,#0]
        0x0001e336:    f89d204f    ..O     LDRB     r2,[sp,#0x4f]
        0x0001e33a:    a81f        ..      ADD      r0,sp,#0x7c
        0x0001e33c:    f2411170    A.p.    MOV      r1,#0x1170
        0x0001e340:    f2c00101    ....    MOVT     r1,#1
        0x0001e344:    f7fcfb5e    ..^.    BL       am_hal_sd_card_block_read_async ; 0x1aa04
        0x0001e348:    4601        .F      MOV      r1,r0
        0x0001e34a:    9805        ..      LDR      r0,[sp,#0x14]
        0x0001e34c:    91cc        ..      STR      r1,[sp,#0x330]
        0x0001e34e:    9012        ..      STR      r0,[sp,#0x48]
        0x0001e350:    e7ff        ..      B        0x1e352 ; main + 1614
        0x0001e352:    f2402018    @..     MOVW     r0,#0x218
        0x0001e356:    f2c10000    ....    MOVT     r0,#0x1000
        0x0001e35a:    7800        .x      LDRB     r0,[r0,#0]
        0x0001e35c:    07c0        ..      LSLS     r0,r0,#31
        0x0001e35e:    b998        ..      CBNZ     r0,0x1e388 ; main + 1668
        0x0001e360:    e7ff        ..      B        0x1e362 ; main + 1630
        0x0001e362:    2001        .       MOVS     r0,#1
        0x0001e364:    f7fefb98    ....    BL       am_util_delay_ms ; 0x1ca98
        0x0001e368:    9812        ..      LDR      r0,[sp,#0x48]
        0x0001e36a:    3001        .0      ADDS     r0,#1
        0x0001e36c:    9012        ..      STR      r0,[sp,#0x48]
        0x0001e36e:    9812        ..      LDR      r0,[sp,#0x48]
        0x0001e370:    f5b07f7a    ..z.    CMP      r0,#0x3e8
        0x0001e374:    d107        ..      BNE      0x1e386 ; main + 1666
        0x0001e376:    e7ff        ..      B        0x1e378 ; main + 1652
        0x0001e378:    f24f00ef    O...    MOV      r0,#0xf0ef
        0x0001e37c:    f2c00001    ....    MOVT     r0,#1
        0x0001e380:    f7fefc0a    ....    BL       am_util_stdio_printf ; 0x1cb98
        0x0001e384:    e000        ..      B        0x1e388 ; main + 1668
        0x0001e386:    e7e4        ..      B        0x1e352 ; main + 1614
        0x0001e388:    9812        ..      LDR      r0,[sp,#0x48]
        0x0001e38a:    f5b07f7a    ..z.    CMP      r0,#0x3e8
        0x0001e38e:    da07        ..      BGE      0x1e3a0 ; main + 1692
        0x0001e390:    e7ff        ..      B        0x1e392 ; main + 1678
        0x0001e392:    f64e7049    N.Ip    MOV      r0,#0xef49
        0x0001e396:    f2c00001    ....    MOVT     r0,#1
        0x0001e39a:    f7fefbfd    ....    BL       am_util_stdio_printf ; 0x1cb98
        0x0001e39e:    e7ff        ..      B        0x1e3a0 ; main + 1692
        0x0001e3a0:    f89d004f    ..O.    LDRB     r0,[sp,#0x4f]
        0x0001e3a4:    0242        B.      LSLS     r2,r0,#9
        0x0001e3a6:    f6400090    @...    MOVW     r0,#0x890
        0x0001e3aa:    f2c10000    ....    MOVT     r0,#0x1000
        0x0001e3ae:    f6414190    A..A    MOV      r1,#0x1c90
        0x0001e3b2:    f2c10100    ....    MOVT     r1,#0x1000
        0x0001e3b6:    f7feff6d    ..m.    BL       check_if_data_match ; 0x1d294
        0x0001e3ba:    f64e30a8    N..0    MOV      r0,#0xeba8
        0x0001e3be:    f2c00001    ....    MOVT     r0,#1
        0x0001e3c2:    f7fefbe9    ....    BL       am_util_stdio_printf ; 0x1cb98
        0x0001e3c6:    f89d004f    ..O.    LDRB     r0,[sp,#0x4f]
        0x0001e3ca:    f241117a    A.z.    MOV      r1,#0x117a
        0x0001e3ce:    f2c00101    ....    MOVT     r1,#1
        0x0001e3d2:    9102        ..      STR      r1,[sp,#8]
        0x0001e3d4:    1842        B.      ADDS     r2,r0,r1
        0x0001e3d6:    f64e40da    N..@    MOV      r0,#0xecda
        0x0001e3da:    f2c00001    ....    MOVT     r0,#1
        0x0001e3de:    f7fefbdb    ....    BL       am_util_stdio_printf ; 0x1cb98
        0x0001e3e2:    9902        ..      LDR      r1,[sp,#8]
        0x0001e3e4:    f89d204f    ..O     LDRB     r2,[sp,#0x4f]
        0x0001e3e8:    a81f        ..      ADD      r0,sp,#0x7c
        0x0001e3ea:    9003        ..      STR      r0,[sp,#0xc]
        0x0001e3ec:    f2427310    B..s    MOV      r3,#0x2710
        0x0001e3f0:    f7fcfa9a    ....    BL       am_hal_sd_card_block_erase ; 0x1a928
        0x0001e3f4:    9902        ..      LDR      r1,[sp,#8]
        0x0001e3f6:    9803        ..      LDR      r0,[sp,#0xc]
        0x0001e3f8:    f89d204f    ..O     LDRB     r2,[sp,#0x4f]
        0x0001e3fc:    f2414340    A.@C    MOVW     r3,#0x1440
        0x0001e400:    f2c10306    ....    MOVT     r3,#0x1006
        0x0001e404:    f7fcfb76    ..v.    BL       am_hal_sd_card_block_read_sync ; 0x1aaf4
        0x0001e408:    90cc        ..      STR      r0,[sp,#0x330]
        0x0001e40a:    f8bd0330    ..0.    LDRH     r0,[sp,#0x330]
        0x0001e40e:    b140        @.      CBZ      r0,0x1e422 ; main + 1822
        0x0001e410:    e7ff        ..      B        0x1e412 ; main + 1806
        0x0001e412:    99cc        ..      LDR      r1,[sp,#0x330]
        0x0001e414:    f24f0064    O.d.    MOV      r0,#0xf064
        0x0001e418:    f2c00001    ....    MOVT     r0,#1
        0x0001e41c:    f7fefbbc    ....    BL       am_util_stdio_printf ; 0x1cb98
        0x0001e420:    e04d        M.      B        0x1e4be ; main + 1978
        0x0001e422:    2000        .       MOVS     r0,#0
        0x0001e424:    9011        ..      STR      r0,[sp,#0x44]
        0x0001e426:    e7ff        ..      B        0x1e428 ; main + 1828
        0x0001e428:    9811        ..      LDR      r0,[sp,#0x44]
        0x0001e42a:    f89d104f    ..O.    LDRB     r1,[sp,#0x4f]
        0x0001e42e:    ebb02f41    ..A/    CMP      r0,r1,LSL #9
        0x0001e432:    da23        #.      BGE      0x1e47c ; main + 1912
        0x0001e434:    e7ff        ..      B        0x1e436 ; main + 1842
        0x0001e436:    9911        ..      LDR      r1,[sp,#0x44]
        0x0001e438:    f2414040    A.@@    MOVW     r0,#0x1440
        0x0001e43c:    f2c10006    ....    MOVT     r0,#0x1006
        0x0001e440:    5c40        @\      LDRB     r0,[r0,r1]
        0x0001e442:    b1b0        ..      CBZ      r0,0x1e472 ; main + 1902
        0x0001e444:    e7ff        ..      B        0x1e446 ; main + 1858
        0x0001e446:    9911        ..      LDR      r1,[sp,#0x44]
        0x0001e448:    f2414040    A.@@    MOVW     r0,#0x1440
        0x0001e44c:    f2c10006    ....    MOVT     r0,#0x1006
        0x0001e450:    5c40        @\      LDRB     r0,[r0,r1]
        0x0001e452:    28ff        .(      CMP      r0,#0xff
        0x0001e454:    d00d        ..      BEQ      0x1e472 ; main + 1902
        0x0001e456:    e7ff        ..      B        0x1e458 ; main + 1876
        0x0001e458:    9911        ..      LDR      r1,[sp,#0x44]
        0x0001e45a:    f2414040    A.@@    MOVW     r0,#0x1440
        0x0001e45e:    f2c10006    ....    MOVT     r0,#0x1006
        0x0001e462:    5c42        B\      LDRB     r2,[r0,r1]
        0x0001e464:    f64e50c1    N..P    MOV      r0,#0xedc1
        0x0001e468:    f2c00001    ....    MOVT     r0,#1
        0x0001e46c:    f7fefb94    ....    BL       am_util_stdio_printf ; 0x1cb98
        0x0001e470:    e7ff        ..      B        0x1e472 ; main + 1902
        0x0001e472:    e7ff        ..      B        0x1e474 ; main + 1904
        0x0001e474:    9811        ..      LDR      r0,[sp,#0x44]
        0x0001e476:    3001        .0      ADDS     r0,#1
        0x0001e478:    9011        ..      STR      r0,[sp,#0x44]
        0x0001e47a:    e7d5        ..      B        0x1e428 ; main + 1828
        0x0001e47c:    f64e30a8    N..0    MOV      r0,#0xeba8
        0x0001e480:    f2c00001    ....    MOVT     r0,#1
        0x0001e484:    f7fefb88    ....    BL       am_util_stdio_printf ; 0x1cb98
        0x0001e488:    e011        ..      B        0x1e4ae ; main + 1962
        0x0001e48a:    f24000f0    @...    MOVW     r0,#0xf0
        0x0001e48e:    f2c10000    ....    MOVT     r0,#0x1000
        0x0001e492:    6800        .h      LDR      r0,[r0,#0]
        0x0001e494:    b950        P.      CBNZ     r0,0x1e4ac ; main + 1960
        0x0001e496:    e7ff        ..      B        0x1e498 ; main + 1940
        0x0001e498:    f64e701b    N..p    MOV      r0,#0xef1b
        0x0001e49c:    f2c00001    ....    MOVT     r0,#1
        0x0001e4a0:    f7fefb7a    ..z.    BL       am_util_stdio_printf ; 0x1cb98
        0x0001e4a4:    a81f        ..      ADD      r0,sp,#0x7c
        0x0001e4a6:    f7faf953    ..S.    BL       am_hal_card_deinit ; 0x18750
        0x0001e4aa:    e7ff        ..      B        0x1e4ac ; main + 1960
        0x0001e4ac:    e7ff        ..      B        0x1e4ae ; main + 1962
        0x0001e4ae:    e7ff        ..      B        0x1e4b0 ; main + 1964
        0x0001e4b0:    f64e30e7    N..0    MOV      r0,#0xebe7
        0x0001e4b4:    f2c00001    ....    MOVT     r0,#1
        0x0001e4b8:    f7fefb6e    ..n.    BL       am_util_stdio_printf ; 0x1cb98
        0x0001e4bc:    e7ff        ..      B        0x1e4be ; main + 1978
        0x0001e4be:    981d        ..      LDR      r0,[sp,#0x74]
        0x0001e4c0:    3001        .0      ADDS     r0,#1
        0x0001e4c2:    901d        ..      STR      r0,[sp,#0x74]
        0x0001e4c4:    e4af        ..      B        0x1de26 ; main + 290
        0x0001e4c6:    f64e708c    N..p    MOV      r0,#0xef8c
        0x0001e4ca:    f2c00001    ....    MOVT     r0,#1
        0x0001e4ce:    f7fefb63    ..c.    BL       am_util_stdio_printf ; 0x1cb98
        0x0001e4d2:    e7ff        ..      B        0x1e4d4 ; main + 2000
        0x0001e4d4:    e7fe        ..      B        0x1e4d4 ; main + 2000
        0x0001e4d6:    0000        ..      MOVS     r0,r0
    ndigits_in_hex
        0x0001e4d8:    b084        ..      SUB      sp,sp,#0x10
        0x0001e4da:    9103        ..      STR      r1,[sp,#0xc]
        0x0001e4dc:    9002        ..      STR      r0,[sp,#8]
        0x0001e4de:    9802        ..      LDR      r0,[sp,#8]
        0x0001e4e0:    9903        ..      LDR      r1,[sp,#0xc]
        0x0001e4e2:    4308        .C      ORRS     r0,r0,r1
        0x0001e4e4:    fab0f080    ....    CLZ      r0,r0
        0x0001e4e8:    0940        @.      LSRS     r0,r0,#5
        0x0001e4ea:    9001        ..      STR      r0,[sp,#4]
        0x0001e4ec:    e7ff        ..      B        0x1e4ee ; ndigits_in_hex + 22
        0x0001e4ee:    9802        ..      LDR      r0,[sp,#8]
        0x0001e4f0:    9903        ..      LDR      r1,[sp,#0xc]
        0x0001e4f2:    4308        .C      ORRS     r0,r0,r1
        0x0001e4f4:    b160        `.      CBZ      r0,0x1e510 ; ndigits_in_hex + 56
        0x0001e4f6:    e7ff        ..      B        0x1e4f8 ; ndigits_in_hex + 32
        0x0001e4f8:    9802        ..      LDR      r0,[sp,#8]
        0x0001e4fa:    9903        ..      LDR      r1,[sp,#0xc]
        0x0001e4fc:    0900        ..      LSRS     r0,r0,#4
        0x0001e4fe:    ea407001    @..p    ORR      r0,r0,r1,LSL #28
        0x0001e502:    0909        ..      LSRS     r1,r1,#4
        0x0001e504:    9103        ..      STR      r1,[sp,#0xc]
        0x0001e506:    9002        ..      STR      r0,[sp,#8]
        0x0001e508:    9801        ..      LDR      r0,[sp,#4]
        0x0001e50a:    3001        .0      ADDS     r0,#1
        0x0001e50c:    9001        ..      STR      r0,[sp,#4]
        0x0001e50e:    e7ee        ..      B        0x1e4ee ; ndigits_in_hex + 22
        0x0001e510:    9801        ..      LDR      r0,[sp,#4]
        0x0001e512:    b004        ..      ADD      sp,sp,#0x10
        0x0001e514:    4770        pG      BX       lr
        0x0001e516:    0000        ..      MOVS     r0,r0
    ndigits_in_i64
        0x0001e518:    b580        ..      PUSH     {r7,lr}
        0x0001e51a:    b082        ..      SUB      sp,sp,#8
        0x0001e51c:    9101        ..      STR      r1,[sp,#4]
        0x0001e51e:    9000        ..      STR      r0,[sp,#0]
        0x0001e520:    9801        ..      LDR      r0,[sp,#4]
        0x0001e522:    f1b03fff    ...?    CMP      r0,#0xffffffff
        0x0001e526:    dc09        ..      BGT      0x1e53c ; ndigits_in_i64 + 36
        0x0001e528:    e7ff        ..      B        0x1e52a ; ndigits_in_i64 + 18
        0x0001e52a:    9800        ..      LDR      r0,[sp,#0]
        0x0001e52c:    9a01        ..      LDR      r2,[sp,#4]
        0x0001e52e:    4241        AB      RSBS     r1,r0,#0
        0x0001e530:    f04f0000    O...    MOV      r0,#0
        0x0001e534:    4190        .A      SBCS     r0,r0,r2
        0x0001e536:    9100        ..      STR      r1,[sp,#0]
        0x0001e538:    9001        ..      STR      r0,[sp,#4]
        0x0001e53a:    e7ff        ..      B        0x1e53c ; ndigits_in_i64 + 36
        0x0001e53c:    9800        ..      LDR      r0,[sp,#0]
        0x0001e53e:    9901        ..      LDR      r1,[sp,#4]
        0x0001e540:    f000f802    ....    BL       ndigits_in_u64 ; 0x1e548
        0x0001e544:    b002        ..      ADD      sp,sp,#8
        0x0001e546:    bd80        ..      POP      {r7,pc}
    ndigits_in_u64
        0x0001e548:    b580        ..      PUSH     {r7,lr}
        0x0001e54a:    b084        ..      SUB      sp,sp,#0x10
        0x0001e54c:    9103        ..      STR      r1,[sp,#0xc]
        0x0001e54e:    9002        ..      STR      r0,[sp,#8]
        0x0001e550:    9802        ..      LDR      r0,[sp,#8]
        0x0001e552:    9903        ..      LDR      r1,[sp,#0xc]
        0x0001e554:    4308        .C      ORRS     r0,r0,r1
        0x0001e556:    fab0f080    ....    CLZ      r0,r0
        0x0001e55a:    0940        @.      LSRS     r0,r0,#5
        0x0001e55c:    9001        ..      STR      r0,[sp,#4]
        0x0001e55e:    e7ff        ..      B        0x1e560 ; ndigits_in_u64 + 24
        0x0001e560:    9802        ..      LDR      r0,[sp,#8]
        0x0001e562:    9903        ..      LDR      r1,[sp,#0xc]
        0x0001e564:    4308        .C      ORRS     r0,r0,r1
        0x0001e566:    b150        P.      CBZ      r0,0x1e57e ; ndigits_in_u64 + 54
        0x0001e568:    e7ff        ..      B        0x1e56a ; ndigits_in_u64 + 34
        0x0001e56a:    9802        ..      LDR      r0,[sp,#8]
        0x0001e56c:    9903        ..      LDR      r1,[sp,#0xc]
        0x0001e56e:    f7feff81    ....    BL       divu64_10 ; 0x1d474
        0x0001e572:    9103        ..      STR      r1,[sp,#0xc]
        0x0001e574:    9002        ..      STR      r0,[sp,#8]
        0x0001e576:    9801        ..      LDR      r0,[sp,#4]
        0x0001e578:    3001        .0      ADDS     r0,#1
        0x0001e57a:    9001        ..      STR      r0,[sp,#4]
        0x0001e57c:    e7f0        ..      B        0x1e560 ; ndigits_in_u64 + 24
        0x0001e57e:    9801        ..      LDR      r0,[sp,#4]
        0x0001e580:    b004        ..      ADD      sp,sp,#0x10
        0x0001e582:    bd80        ..      POP      {r7,pc}
    padbuffer
        0x0001e584:    b085        ..      SUB      sp,sp,#0x14
        0x0001e586:    9003        ..      STR      r0,[sp,#0xc]
        0x0001e588:    f88d100b    ....    STRB     r1,[sp,#0xb]
        0x0001e58c:    9201        ..      STR      r2,[sp,#4]
        0x0001e58e:    2000        .       MOVS     r0,#0
        0x0001e590:    9000        ..      STR      r0,[sp,#0]
        0x0001e592:    9801        ..      LDR      r0,[sp,#4]
        0x0001e594:    2800        .(      CMP      r0,#0
        0x0001e596:    dc03        ..      BGT      0x1e5a0 ; padbuffer + 28
        0x0001e598:    e7ff        ..      B        0x1e59a ; padbuffer + 22
        0x0001e59a:    9800        ..      LDR      r0,[sp,#0]
        0x0001e59c:    9004        ..      STR      r0,[sp,#0x10]
        0x0001e59e:    e016        ..      B        0x1e5ce ; padbuffer + 74
        0x0001e5a0:    e7ff        ..      B        0x1e5a2 ; padbuffer + 30
        0x0001e5a2:    9801        ..      LDR      r0,[sp,#4]
        0x0001e5a4:    1e41        A.      SUBS     r1,r0,#1
        0x0001e5a6:    9101        ..      STR      r1,[sp,#4]
        0x0001e5a8:    b170        p.      CBZ      r0,0x1e5c8 ; padbuffer + 68
        0x0001e5aa:    e7ff        ..      B        0x1e5ac ; padbuffer + 40
        0x0001e5ac:    9803        ..      LDR      r0,[sp,#0xc]
        0x0001e5ae:    b138        8.      CBZ      r0,0x1e5c0 ; padbuffer + 60
        0x0001e5b0:    e7ff        ..      B        0x1e5b2 ; padbuffer + 46
        0x0001e5b2:    f89d000b    ....    LDRB     r0,[sp,#0xb]
        0x0001e5b6:    9903        ..      LDR      r1,[sp,#0xc]
        0x0001e5b8:    1c4a        J.      ADDS     r2,r1,#1
        0x0001e5ba:    9203        ..      STR      r2,[sp,#0xc]
        0x0001e5bc:    7008        .p      STRB     r0,[r1,#0]
        0x0001e5be:    e7ff        ..      B        0x1e5c0 ; padbuffer + 60
        0x0001e5c0:    9800        ..      LDR      r0,[sp,#0]
        0x0001e5c2:    3001        .0      ADDS     r0,#1
        0x0001e5c4:    9000        ..      STR      r0,[sp,#0]
        0x0001e5c6:    e7ec        ..      B        0x1e5a2 ; padbuffer + 30
        0x0001e5c8:    9800        ..      LDR      r0,[sp,#0]
        0x0001e5ca:    9004        ..      STR      r0,[sp,#0x10]
        0x0001e5cc:    e7ff        ..      B        0x1e5ce ; padbuffer + 74
        0x0001e5ce:    9804        ..      LDR      r0,[sp,#0x10]
        0x0001e5d0:    b005        ..      ADD      sp,sp,#0x14
        0x0001e5d2:    4770        pG      BX       lr
    sd_card_power_config
        0x0001e5d4:    b580        ..      PUSH     {r7,lr}
        0x0001e5d6:    b084        ..      SUB      sp,sp,#0x10
        0x0001e5d8:    f88d000f    ....    STRB     r0,[sp,#0xf]
        0x0001e5dc:    f64e1034    N.4.    MOV      r0,#0xe934
        0x0001e5e0:    f2c00001    ....    MOVT     r0,#1
        0x0001e5e4:    6801        .h      LDR      r1,[r0,#0]
        0x0001e5e6:    2030        0       MOVS     r0,#0x30
        0x0001e5e8:    f7fbfb9a    ....    BL       am_hal_gpio_pinconfig ; 0x19d20
        0x0001e5ec:    f89d000f    ....    LDRB     r0,[sp,#0xf]
        0x0001e5f0:    2802        .(      CMP      r0,#2
        0x0001e5f2:    d11d        ..      BNE      0x1e630 ; sd_card_power_config + 92
        0x0001e5f4:    e7ff        ..      B        0x1e5f6 ; sd_card_power_config + 34
        0x0001e5f6:    f2402138    @.8!    MOVW     r1,#0x238
        0x0001e5fa:    f2c40101    ....    MOVT     r1,#0x4001
        0x0001e5fe:    f44f3080    O..0    MOV      r0,#0x10000
        0x0001e602:    9001        ..      STR      r0,[sp,#4]
        0x0001e604:    6008        .`      STR      r0,[r1,#0]
        0x0001e606:    2014        .       MOVS     r0,#0x14
        0x0001e608:    9002        ..      STR      r0,[sp,#8]
        0x0001e60a:    f7fefa45    ..E.    BL       am_util_delay_ms ; 0x1ca98
        0x0001e60e:    9901        ..      LDR      r1,[sp,#4]
        0x0001e610:    9802        ..      LDR      r0,[sp,#8]
        0x0001e612:    f2402228    @.("    MOVW     r2,#0x228
        0x0001e616:    f2c40201    ....    MOVT     r2,#0x4001
        0x0001e61a:    6011        .`      STR      r1,[r2,#0]
        0x0001e61c:    f7fefa3c    ..<.    BL       am_util_delay_ms ; 0x1ca98
        0x0001e620:    f240213c    @.<!    MOVW     r1,#0x23c
        0x0001e624:    f2c40101    ....    MOVT     r1,#0x4001
        0x0001e628:    f44f5080    O..P    MOV      r0,#0x1000
        0x0001e62c:    6008        .`      STR      r0,[r1,#0]
        0x0001e62e:    e025        %.      B        0x1e67c ; sd_card_power_config + 168
        0x0001e630:    f89d000f    ....    LDRB     r0,[sp,#0xf]
        0x0001e634:    2801        .(      CMP      r0,#1
        0x0001e636:    d10f        ..      BNE      0x1e658 ; sd_card_power_config + 132
        0x0001e638:    e7ff        ..      B        0x1e63a ; sd_card_power_config + 102
        0x0001e63a:    f2402138    @.8!    MOVW     r1,#0x238
        0x0001e63e:    f2c40101    ....    MOVT     r1,#0x4001
        0x0001e642:    f44f3080    O..0    MOV      r0,#0x10000
        0x0001e646:    6008        .`      STR      r0,[r1,#0]
        0x0001e648:    f240213c    @.<!    MOVW     r1,#0x23c
        0x0001e64c:    f2c40101    ....    MOVT     r1,#0x4001
        0x0001e650:    f44f5080    O..P    MOV      r0,#0x1000
        0x0001e654:    6008        .`      STR      r0,[r1,#0]
        0x0001e656:    e010        ..      B        0x1e67a ; sd_card_power_config + 166
        0x0001e658:    f89d000f    ....    LDRB     r0,[sp,#0xf]
        0x0001e65c:    2803        .(      CMP      r0,#3
        0x0001e65e:    d10b        ..      BNE      0x1e678 ; sd_card_power_config + 164
        0x0001e660:    e7ff        ..      B        0x1e662 ; sd_card_power_config + 142
        0x0001e662:    f240212c    @.,!    MOVW     r1,#0x22c
        0x0001e666:    f2c40101    ....    MOVT     r1,#0x4001
        0x0001e66a:    f44f5080    O..P    MOV      r0,#0x1000
        0x0001e66e:    6008        .`      STR      r0,[r1,#0]
        0x0001e670:    2014        .       MOVS     r0,#0x14
        0x0001e672:    f7fefa11    ....    BL       am_util_delay_ms ; 0x1ca98
        0x0001e676:    e7ff        ..      B        0x1e678 ; sd_card_power_config + 164
        0x0001e678:    e7ff        ..      B        0x1e67a ; sd_card_power_config + 166
        0x0001e67a:    e7ff        ..      B        0x1e67c ; sd_card_power_config + 168
        0x0001e67c:    2001        .       MOVS     r0,#1
        0x0001e67e:    b004        ..      ADD      sp,sp,#0x10
        0x0001e680:    bd80        ..      POP      {r7,pc}
        0x0001e682:    0000        ..      MOVS     r0,r0
    simple_strlen
        0x0001e684:    b083        ..      SUB      sp,sp,#0xc
        0x0001e686:    9001        ..      STR      r0,[sp,#4]
        0x0001e688:    2000        .       MOVS     r0,#0
        0x0001e68a:    9000        ..      STR      r0,[sp,#0]
        0x0001e68c:    9801        ..      LDR      r0,[sp,#4]
        0x0001e68e:    b918        ..      CBNZ     r0,0x1e698 ; simple_strlen + 20
        0x0001e690:    e7ff        ..      B        0x1e692 ; simple_strlen + 14
        0x0001e692:    9800        ..      LDR      r0,[sp,#0]
        0x0001e694:    9002        ..      STR      r0,[sp,#8]
        0x0001e696:    e00d        ..      B        0x1e6b4 ; simple_strlen + 48
        0x0001e698:    e7ff        ..      B        0x1e69a ; simple_strlen + 22
        0x0001e69a:    9801        ..      LDR      r0,[sp,#4]
        0x0001e69c:    1c41        A.      ADDS     r1,r0,#1
        0x0001e69e:    9101        ..      STR      r1,[sp,#4]
        0x0001e6a0:    7800        .x      LDRB     r0,[r0,#0]
        0x0001e6a2:    b120         .      CBZ      r0,0x1e6ae ; simple_strlen + 42
        0x0001e6a4:    e7ff        ..      B        0x1e6a6 ; simple_strlen + 34
        0x0001e6a6:    9800        ..      LDR      r0,[sp,#0]
        0x0001e6a8:    3001        .0      ADDS     r0,#1
        0x0001e6aa:    9000        ..      STR      r0,[sp,#0]
        0x0001e6ac:    e7f5        ..      B        0x1e69a ; simple_strlen + 22
        0x0001e6ae:    9800        ..      LDR      r0,[sp,#0]
        0x0001e6b0:    9002        ..      STR      r0,[sp,#8]
        0x0001e6b2:    e7ff        ..      B        0x1e6b4 ; simple_strlen + 48
        0x0001e6b4:    9802        ..      LDR      r0,[sp,#8]
        0x0001e6b6:    b003        ..      ADD      sp,sp,#0xc
        0x0001e6b8:    4770        pG      BX       lr
        0x0001e6ba:    0000        ..      MOVS     r0,r0
    uint64_to_hexstr
        0x0001e6bc:    b08c        ..      SUB      sp,sp,#0x30
        0x0001e6be:    910b        ..      STR      r1,[sp,#0x2c]
        0x0001e6c0:    900a        ..      STR      r0,[sp,#0x28]
        0x0001e6c2:    9209        ..      STR      r2,[sp,#0x24]
        0x0001e6c4:    f88d3023    ..#0    STRB     r3,[sp,#0x23]
        0x0001e6c8:    2000        .       MOVS     r0,#0
        0x0001e6ca:    9006        ..      STR      r0,[sp,#0x18]
        0x0001e6cc:    980a        ..      LDR      r0,[sp,#0x28]
        0x0001e6ce:    990b        ..      LDR      r1,[sp,#0x2c]
        0x0001e6d0:    4308        .C      ORRS     r0,r0,r1
        0x0001e6d2:    b940        @.      CBNZ     r0,0x1e6e6 ; uint64_to_hexstr + 42
        0x0001e6d4:    e7ff        ..      B        0x1e6d6 ; uint64_to_hexstr + 26
        0x0001e6d6:    9a06        ..      LDR      r2,[sp,#0x18]
        0x0001e6d8:    1c50        P.      ADDS     r0,r2,#1
        0x0001e6da:    9006        ..      STR      r0,[sp,#0x18]
        0x0001e6dc:    f10d0103    ....    ADD      r1,sp,#3
        0x0001e6e0:    2030        0       MOVS     r0,#0x30
        0x0001e6e2:    5488        .T      STRB     r0,[r1,r2]
        0x0001e6e4:    e7ff        ..      B        0x1e6e6 ; uint64_to_hexstr + 42
        0x0001e6e6:    e7ff        ..      B        0x1e6e8 ; uint64_to_hexstr + 44
        0x0001e6e8:    980a        ..      LDR      r0,[sp,#0x28]
        0x0001e6ea:    990b        ..      LDR      r1,[sp,#0x2c]
        0x0001e6ec:    4308        .C      ORRS     r0,r0,r1
        0x0001e6ee:    b350        P.      CBZ      r0,0x1e746 ; uint64_to_hexstr + 138
        0x0001e6f0:    e7ff        ..      B        0x1e6f2 ; uint64_to_hexstr + 54
        0x0001e6f2:    f89d0028    ..(.    LDRB     r0,[sp,#0x28]
        0x0001e6f6:    f000000f    ....    AND      r0,r0,#0xf
        0x0001e6fa:    f88d0017    ....    STRB     r0,[sp,#0x17]
        0x0001e6fe:    f89d0017    ....    LDRB     r0,[sp,#0x17]
        0x0001e702:    280a        .(      CMP      r0,#0xa
        0x0001e704:    db0d        ..      BLT      0x1e722 ; uint64_to_hexstr + 102
        0x0001e706:    e7ff        ..      B        0x1e708 ; uint64_to_hexstr + 76
        0x0001e708:    f89d0023    ..#.    LDRB     r0,[sp,#0x23]
        0x0001e70c:    07c0        ..      LSLS     r0,r0,#31
        0x0001e70e:    2107        .!      MOVS     r1,#7
        0x0001e710:    2800        .(      CMP      r0,#0
        0x0001e712:    bf18        ..      IT       NE
        0x0001e714:    2127        '!      MOVNE    r1,#0x27
        0x0001e716:    f89d0017    ....    LDRB     r0,[sp,#0x17]
        0x0001e71a:    4408        .D      ADD      r0,r0,r1
        0x0001e71c:    f88d0017    ....    STRB     r0,[sp,#0x17]
        0x0001e720:    e7ff        ..      B        0x1e722 ; uint64_to_hexstr + 102
        0x0001e722:    f89d0017    ....    LDRB     r0,[sp,#0x17]
        0x0001e726:    3030        00      ADDS     r0,r0,#0x30
        0x0001e728:    9a06        ..      LDR      r2,[sp,#0x18]
        0x0001e72a:    1c51        Q.      ADDS     r1,r2,#1
        0x0001e72c:    9106        ..      STR      r1,[sp,#0x18]
        0x0001e72e:    f10d0103    ....    ADD      r1,sp,#3
        0x0001e732:    5488        .T      STRB     r0,[r1,r2]
        0x0001e734:    980a        ..      LDR      r0,[sp,#0x28]
        0x0001e736:    990b        ..      LDR      r1,[sp,#0x2c]
        0x0001e738:    0900        ..      LSRS     r0,r0,#4
        0x0001e73a:    ea407001    @..p    ORR      r0,r0,r1,LSL #28
        0x0001e73e:    0909        ..      LSRS     r1,r1,#4
        0x0001e740:    910b        ..      STR      r1,[sp,#0x2c]
        0x0001e742:    900a        ..      STR      r0,[sp,#0x28]
        0x0001e744:    e7d0        ..      B        0x1e6e8 ; uint64_to_hexstr + 44
        0x0001e746:    9806        ..      LDR      r0,[sp,#0x18]
        0x0001e748:    9007        ..      STR      r0,[sp,#0x1c]
        0x0001e74a:    9809        ..      LDR      r0,[sp,#0x24]
        0x0001e74c:    b198        ..      CBZ      r0,0x1e776 ; uint64_to_hexstr + 186
        0x0001e74e:    e7ff        ..      B        0x1e750 ; uint64_to_hexstr + 148
        0x0001e750:    e7ff        ..      B        0x1e752 ; uint64_to_hexstr + 150
        0x0001e752:    9806        ..      LDR      r0,[sp,#0x18]
        0x0001e754:    1e41        A.      SUBS     r1,r0,#1
        0x0001e756:    9106        ..      STR      r1,[sp,#0x18]
        0x0001e758:    b148        H.      CBZ      r0,0x1e76e ; uint64_to_hexstr + 178
        0x0001e75a:    e7ff        ..      B        0x1e75c ; uint64_to_hexstr + 160
        0x0001e75c:    9906        ..      LDR      r1,[sp,#0x18]
        0x0001e75e:    f10d0003    ....    ADD      r0,sp,#3
        0x0001e762:    5c40        @\      LDRB     r0,[r0,r1]
        0x0001e764:    9909        ..      LDR      r1,[sp,#0x24]
        0x0001e766:    1c4a        J.      ADDS     r2,r1,#1
        0x0001e768:    9209        ..      STR      r2,[sp,#0x24]
        0x0001e76a:    7008        .p      STRB     r0,[r1,#0]
        0x0001e76c:    e7f1        ..      B        0x1e752 ; uint64_to_hexstr + 150
        0x0001e76e:    9909        ..      LDR      r1,[sp,#0x24]
        0x0001e770:    2000        .       MOVS     r0,#0
        0x0001e772:    7008        .p      STRB     r0,[r1,#0]
        0x0001e774:    e7ff        ..      B        0x1e776 ; uint64_to_hexstr + 186
        0x0001e776:    9807        ..      LDR      r0,[sp,#0x1c]
        0x0001e778:    b00c        ..      ADD      sp,sp,#0x30
        0x0001e77a:    4770        pG      BX       lr
    uint64_to_str
        0x0001e77c:    b580        ..      PUSH     {r7,lr}
        0x0001e77e:    b090        ..      SUB      sp,sp,#0x40
        0x0001e780:    910f        ..      STR      r1,[sp,#0x3c]
        0x0001e782:    900e        ..      STR      r0,[sp,#0x38]
        0x0001e784:    920d        ..      STR      r2,[sp,#0x34]
        0x0001e786:    2000        .       MOVS     r0,#0
        0x0001e788:    9005        ..      STR      r0,[sp,#0x14]
        0x0001e78a:    9004        ..      STR      r0,[sp,#0x10]
        0x0001e78c:    e7ff        ..      B        0x1e78e ; uint64_to_str + 18
        0x0001e78e:    980e        ..      LDR      r0,[sp,#0x38]
        0x0001e790:    990f        ..      LDR      r1,[sp,#0x3c]
        0x0001e792:    f7fefe6f    ..o.    BL       divu64_10 ; 0x1d474
        0x0001e796:    9101        ..      STR      r1,[sp,#4]
        0x0001e798:    9000        ..      STR      r0,[sp,#0]
        0x0001e79a:    980e        ..      LDR      r0,[sp,#0x38]
        0x0001e79c:    9900        ..      LDR      r1,[sp,#0]
        0x0001e79e:    eb010181    ....    ADD      r1,r1,r1,LSL #2
        0x0001e7a2:    eba00041    ..A.    SUB      r0,r0,r1,LSL #1
        0x0001e7a6:    9003        ..      STR      r0,[sp,#0xc]
        0x0001e7a8:    9803        ..      LDR      r0,[sp,#0xc]
        0x0001e7aa:    3030        00      ADDS     r0,r0,#0x30
        0x0001e7ac:    9a05        ..      LDR      r2,[sp,#0x14]
        0x0001e7ae:    1c51        Q.      ADDS     r1,r2,#1
        0x0001e7b0:    9105        ..      STR      r1,[sp,#0x14]
        0x0001e7b2:    f10d011b    ....    ADD      r1,sp,#0x1b
        0x0001e7b6:    5488        .T      STRB     r0,[r1,r2]
        0x0001e7b8:    9800        ..      LDR      r0,[sp,#0]
        0x0001e7ba:    9901        ..      LDR      r1,[sp,#4]
        0x0001e7bc:    910f        ..      STR      r1,[sp,#0x3c]
        0x0001e7be:    900e        ..      STR      r0,[sp,#0x38]
        0x0001e7c0:    e7ff        ..      B        0x1e7c2 ; uint64_to_str + 70
        0x0001e7c2:    980e        ..      LDR      r0,[sp,#0x38]
        0x0001e7c4:    990f        ..      LDR      r1,[sp,#0x3c]
        0x0001e7c6:    4308        .C      ORRS     r0,r0,r1
        0x0001e7c8:    2800        .(      CMP      r0,#0
        0x0001e7ca:    d1e0        ..      BNE      0x1e78e ; uint64_to_str + 18
        0x0001e7cc:    e7ff        ..      B        0x1e7ce ; uint64_to_str + 82
        0x0001e7ce:    9805        ..      LDR      r0,[sp,#0x14]
        0x0001e7d0:    9004        ..      STR      r0,[sp,#0x10]
        0x0001e7d2:    980d        ..      LDR      r0,[sp,#0x34]
        0x0001e7d4:    b198        ..      CBZ      r0,0x1e7fe ; uint64_to_str + 130
        0x0001e7d6:    e7ff        ..      B        0x1e7d8 ; uint64_to_str + 92
        0x0001e7d8:    e7ff        ..      B        0x1e7da ; uint64_to_str + 94
        0x0001e7da:    9805        ..      LDR      r0,[sp,#0x14]
        0x0001e7dc:    1e41        A.      SUBS     r1,r0,#1
        0x0001e7de:    9105        ..      STR      r1,[sp,#0x14]
        0x0001e7e0:    b148        H.      CBZ      r0,0x1e7f6 ; uint64_to_str + 122
        0x0001e7e2:    e7ff        ..      B        0x1e7e4 ; uint64_to_str + 104
        0x0001e7e4:    9905        ..      LDR      r1,[sp,#0x14]
        0x0001e7e6:    f10d001b    ....    ADD      r0,sp,#0x1b
        0x0001e7ea:    5c40        @\      LDRB     r0,[r0,r1]
        0x0001e7ec:    990d        ..      LDR      r1,[sp,#0x34]
        0x0001e7ee:    1c4a        J.      ADDS     r2,r1,#1
        0x0001e7f0:    920d        ..      STR      r2,[sp,#0x34]
        0x0001e7f2:    7008        .p      STRB     r0,[r1,#0]
        0x0001e7f4:    e7f1        ..      B        0x1e7da ; uint64_to_str + 94
        0x0001e7f6:    990d        ..      LDR      r1,[sp,#0x34]
        0x0001e7f8:    2000        .       MOVS     r0,#0
        0x0001e7fa:    7008        .p      STRB     r0,[r1,#0]
        0x0001e7fc:    e7ff        ..      B        0x1e7fe ; uint64_to_str + 130
        0x0001e7fe:    9804        ..      LDR      r0,[sp,#0x10]
        0x0001e800:    b010        ..      ADD      sp,sp,#0x40
        0x0001e802:    bd80        ..      POP      {r7,pc}
    $t
    x$fpl$d2f
    $v0
    __aeabi_d2f
    _d2f
        0x0001e804:    f0214200    !..B    BIC      r2,r1,#0x80000000
        0x0001e808:    f0014300    ...C    AND      r3,r1,#0x80000000
        0x0001e80c:    f1a25260    ..`R    SUB      r2,r2,#0x38000000
        0x0001e810:    f5b21f80    ....    CMP      r2,#0x100000
        0x0001e814:    bf28        (.      IT       CS
        0x0001e816:    f1d26c7f    ...l    RSBSCS   r12,r2,#0xff00000
        0x0001e81a:    d90b        ..      BLS      0x1e834 ; __aeabi_d2f + 48
        0x0001e81c:    ea5f1c00    _...    LSLS     r12,r0,#4
        0x0001e820:    ea4302c2    C...    ORR      r2,r3,r2,LSL #3
        0x0001e824:    eb427050    B.Pp    ADC      r0,r2,r0,LSR #29
        0x0001e828:    bf18        ..      IT       NE
        0x0001e82a:    4770        pG      BXNE     lr
        0x0001e82c:    bf28        (.      IT       CS
        0x0001e82e:    f0200001     ...    BICCS    r0,r0,#1
        0x0001e832:    4770        pG      BX       lr
        0x0001e834:    f5b21f80    ....    CMP      r2,#0x100000
        0x0001e838:    bfbc        ..      ITT      LT
        0x0001e83a:    4618        .F      MOVLT    r0,r3
        0x0001e83c:    4770        pG      BXLT     lr
        0x0001e83e:    ea4f0c41    O.A.    LSL      r12,r1,#1
        0x0001e842:    f51c1f00    ....    CMN      r12,#0x200000
        0x0001e846:    d202        ..      BCS      0x1e84e ; __aeabi_d2f + 74
        0x0001e848:    4608        .F      MOV      r0,r1
        0x0001e84a:    f000b867    ..g.    B.W      __fpl_fretinf ; 0x1e91c
        0x0001e84e:    b570        p.      PUSH     {r4-r6,lr}
        0x0001e850:    f000f809    ....    BL       __fpl_dnaninf ; 0x1e866
    $d
        0x0001e854:    89000000    ....    DCD    2298478592
    $t
        0x0001e858:    f7ffbff6    ....    B.W      0x1e848 ; __aeabi_d2f + 68
        0x0001e85c:    f04f4000    O..@    MOV      r0,#0x80000000
        0x0001e860:    f5a00080    ....    SUB      r0,r0,#0x400000
        0x0001e864:    4770        pG      BX       lr
    x$fpl$dnaninf
    $v0
    __fpl_dnaninf
        0x0001e866:    f10e0e02    ....    ADD      lr,lr,#2
        0x0001e86a:    f02e0e03    ....    BIC      lr,lr,#3
        0x0001e86e:    f85e6b04    ^..k    LDR      r6,[lr],#4
        0x0001e872:    4236        6B      TST      r6,r6
        0x0001e874:    d405        ..      BMI      0x1e882 ; __fpl_dnaninf + 28
        0x0001e876:    2a01        .*      CMP      r2,#1
        0x0001e878:    eb430503    C...    ADC      r5,r3,r3
        0x0001e87c:    f5151f00    ....    CMN      r5,#0x200000
        0x0001e880:    d812        ..      BHI      0x1e8a8 ; __fpl_dnaninf + 66
        0x0001e882:    2801        .(      CMP      r0,#1
        0x0001e884:    eb410c01    A...    ADC      r12,r1,r1
        0x0001e888:    f51c1f00    ....    CMN      r12,#0x200000
        0x0001e88c:    d80c        ..      BHI      0x1e8a8 ; __fpl_dnaninf + 66
        0x0001e88e:    d10e        ..      BNE      0x1e8ae ; __fpl_dnaninf + 72
        0x0001e890:    ea4f7cd1    O..|    LSR      r12,r1,#31
        0x0001e894:    eb0c0c4c    ..L.    ADD      r12,r12,r12,LSL #1
        0x0001e898:    f10c0c02    ....    ADD      r12,r12,#2
        0x0001e89c:    f5151f00    ....    CMN      r5,#0x200000
        0x0001e8a0:    bf08        ..      IT       EQ
        0x0001e8a2:    eb4c7cd3    L..|    ADCEQ    r12,r12,r3,LSR #31
        0x0001e8a6:    e004        ..      B        0x1e8b2 ; __fpl_dnaninf + 76
        0x0001e8a8:    f04f0c08    O...    MOV      r12,#8
        0x0001e8ac:    e001        ..      B        0x1e8b2 ; __fpl_dnaninf + 76
        0x0001e8ae:    ea4f7cd3    O..|    LSR      r12,r3,#31
        0x0001e8b2:    eb0c054c    ..L.    ADD      r5,r12,r12,LSL #1
        0x0001e8b6:    fa26f605    &...    LSR      r6,r6,r5
        0x0001e8ba:    f0060607    ....    AND      r6,r6,#7
        0x0001e8be:    f1b60c04    ....    SUBS     r12,r6,#4
        0x0001e8c2:    d206        ..      BCS      0x1e8d2 ; __fpl_dnaninf + 108
        0x0001e8c4:    eb0e0c86    ....    ADD      r12,lr,r6,LSL #2
        0x0001e8c8:    e8bd4070    ..p@    POP      {r4-r6,lr}
        0x0001e8cc:    f04c0c01    L...    ORR      r12,r12,#1
        0x0001e8d0:    4760        `G      BX       r12
        0x0001e8d2:    e8dff00c    ....    TBB      [pc,r12]
    $d
        0x0001e8d6:    0b09        ..      DCW    2825
        0x0001e8d8:    0202        ..      DCW    514
    $t
        0x0001e8da:    f04f4100    O..A    MOV      r1,#0x80000000
        0x0001e8de:    f5a12100    ...!    SUB      r1,r1,#0x80000
        0x0001e8e2:    f04f0000    O...    MOV      r0,#0
        0x0001e8e6:    bd70        p.      POP      {r4-r6,pc}
        0x0001e8e8:    4619        .F      MOV      r1,r3
        0x0001e8ea:    4610        .F      MOV      r0,r2
        0x0001e8ec:    2801        .(      CMP      r0,#1
        0x0001e8ee:    eb510401    Q...    ADCS     r4,r1,r1
        0x0001e8f2:    bf18        ..      IT       NE
        0x0001e8f4:    f5d41400    ....    RSBSNE   r4,r4,#0x200000
        0x0001e8f8:    bf84        ..      ITT      HI
        0x0001e8fa:    2000        .       MOVHI    r0,#0
        0x0001e8fc:    f0014100    ...A    ANDHI    r1,r1,#0x80000000
        0x0001e900:    bd70        p.      POP      {r4-r6,pc}
    x$fpl$fpinit
    $v0
    _fp_init
        0x0001e902:    eef10a10    ....    VMRS     r0,FPSCR
        0x0001e906:    f64f71ff    O..q    MOV      r1,#0xffff
        0x0001e90a:    f2c031c0    ...1    MOVT     r1,#0x3c0
        0x0001e90e:    ea200001     ...    BIC      r0,r0,r1
        0x0001e912:    f0407040    @.@p    ORR      r0,r0,#0x3000000
        0x0001e916:    eee10a10    ....    VMSR     FPSCR,r0
    __fplib_config_fpu_vfp
    __fplib_config_pureend_doubles
        0x0001e91a:    4770        pG      BX       lr
    x$fpl$fretinf
    $v0
    __fpl_fretinf
        0x0001e91c:    21ff        .!      MOVS     r1,#0xff
        0x0001e91e:    ea4150d0    A..P    ORR      r0,r1,r0,LSR #23
        0x0001e922:    05c0        ..      LSLS     r0,r0,#23
        0x0001e924:    4770        pG      BX       lr
    $d.realdata
    x$fpl$usenofp
    __I$use$fp
    am_hal_daxi_defaults
        0x0001e926:    0100        ..      DCW    256
        0x0001e928:    00010f02    ....    DCD    69378
    am_hal_gpio_pincfg_default
        0x0001e92c:    00000003    ....    DCD    3
    am_hal_gpio_pincfg_input
        0x0001e930:    00000093    ....    DCD    147
    am_hal_gpio_pincfg_output
        0x0001e934:    00000183    ....    DCD    387
    am_hal_pwrctrl_peripheral_control
        0x0001e938:    40021004    ...@    DCD    1073876996
        0x0001e93c:    00000001    ....    DCD    1
        0x0001e940:    40021008    ...@    DCD    1073877000
        0x0001e944:    00000001    ....    DCD    1
        0x0001e948:    40021004    ...@    DCD    1073876996
        0x0001e94c:    00000002    ....    DCD    2
        0x0001e950:    40021008    ...@    DCD    1073877000
        0x0001e954:    0000001e    ....    DCD    30
        0x0001e958:    40021004    ...@    DCD    1073876996
        0x0001e95c:    00000004    ....    DCD    4
        0x0001e960:    40021008    ...@    DCD    1073877000
        0x0001e964:    0000001e    ....    DCD    30
        0x0001e968:    40021004    ...@    DCD    1073876996
        0x0001e96c:    00000008    ....    DCD    8
        0x0001e970:    40021008    ...@    DCD    1073877000
        0x0001e974:    0000001e    ....    DCD    30
        0x0001e978:    40021004    ...@    DCD    1073876996
        0x0001e97c:    00000010    ....    DCD    16
        0x0001e980:    40021008    ...@    DCD    1073877000
        0x0001e984:    0000001e    ....    DCD    30
        0x0001e988:    40021004    ...@    DCD    1073876996
        0x0001e98c:    00000020     ...    DCD    32
        0x0001e990:    40021008    ...@    DCD    1073877000
        0x0001e994:    000001e0    ....    DCD    480
        0x0001e998:    40021004    ...@    DCD    1073876996
        0x0001e99c:    00000040    @...    DCD    64
        0x0001e9a0:    40021008    ...@    DCD    1073877000
        0x0001e9a4:    000001e0    ....    DCD    480
        0x0001e9a8:    40021004    ...@    DCD    1073876996
        0x0001e9ac:    00000080    ....    DCD    128
        0x0001e9b0:    40021008    ...@    DCD    1073877000
        0x0001e9b4:    000001e0    ....    DCD    480
        0x0001e9b8:    40021004    ...@    DCD    1073876996
        0x0001e9bc:    00000100    ....    DCD    256
        0x0001e9c0:    40021008    ...@    DCD    1073877000
        0x0001e9c4:    000001e0    ....    DCD    480
        0x0001e9c8:    40021004    ...@    DCD    1073876996
        0x0001e9cc:    00000200    ....    DCD    512
        0x0001e9d0:    40021008    ...@    DCD    1073877000
        0x0001e9d4:    00001e00    ....    DCD    7680
        0x0001e9d8:    40021004    ...@    DCD    1073876996
        0x0001e9dc:    00000400    ....    DCD    1024
        0x0001e9e0:    40021008    ...@    DCD    1073877000
        0x0001e9e4:    00001e00    ....    DCD    7680
        0x0001e9e8:    40021004    ...@    DCD    1073876996
        0x0001e9ec:    00000800    ....    DCD    2048
        0x0001e9f0:    40021008    ...@    DCD    1073877000
        0x0001e9f4:    00001e00    ....    DCD    7680
        0x0001e9f8:    40021004    ...@    DCD    1073876996
        0x0001e9fc:    00001000    ....    DCD    4096
        0x0001ea00:    40021008    ...@    DCD    1073877000
        0x0001ea04:    00001e00    ....    DCD    7680
        0x0001ea08:    40021004    ...@    DCD    1073876996
        0x0001ea0c:    00002000    . ..    DCD    8192
        0x0001ea10:    40021008    ...@    DCD    1073877000
        0x0001ea14:    00002000    . ..    DCD    8192
        0x0001ea18:    40021004    ...@    DCD    1073876996
        0x0001ea1c:    00004000    .@..    DCD    16384
        0x0001ea20:    40021008    ...@    DCD    1073877000
        0x0001ea24:    0001c000    ....    DCD    114688
        0x0001ea28:    40021004    ...@    DCD    1073876996
        0x0001ea2c:    00008000    ....    DCD    32768
        0x0001ea30:    40021008    ...@    DCD    1073877000
        0x0001ea34:    0001c000    ....    DCD    114688
        0x0001ea38:    40021004    ...@    DCD    1073876996
        0x0001ea3c:    00010000    ....    DCD    65536
        0x0001ea40:    40021008    ...@    DCD    1073877000
        0x0001ea44:    0001c000    ....    DCD    114688
        0x0001ea48:    40021004    ...@    DCD    1073876996
        0x0001ea4c:    00020000    ....    DCD    131072
        0x0001ea50:    40021008    ...@    DCD    1073877000
        0x0001ea54:    00020000    ....    DCD    131072
        0x0001ea58:    40021004    ...@    DCD    1073876996
        0x0001ea5c:    00040000    ....    DCD    262144
        0x0001ea60:    40021008    ...@    DCD    1073877000
        0x0001ea64:    00040000    ....    DCD    262144
        0x0001ea68:    40021004    ...@    DCD    1073876996
        0x0001ea6c:    00080000    ....    DCD    524288
        0x0001ea70:    40021008    ...@    DCD    1073877000
        0x0001ea74:    00080000    ....    DCD    524288
        0x0001ea78:    40021004    ...@    DCD    1073876996
        0x0001ea7c:    00100000    ....    DCD    1048576
        0x0001ea80:    40021008    ...@    DCD    1073877000
        0x0001ea84:    00100000    ....    DCD    1048576
        0x0001ea88:    40021004    ...@    DCD    1073876996
        0x0001ea8c:    00200000    .. .    DCD    2097152
        0x0001ea90:    40021008    ...@    DCD    1073877000
        0x0001ea94:    00200000    .. .    DCD    2097152
        0x0001ea98:    40021004    ...@    DCD    1073876996
        0x0001ea9c:    00400000    ..@.    DCD    4194304
        0x0001eaa0:    40021008    ...@    DCD    1073877000
        0x0001eaa4:    00400000    ..@.    DCD    4194304
        0x0001eaa8:    40021004    ...@    DCD    1073876996
        0x0001eaac:    00800000    ....    DCD    8388608
        0x0001eab0:    40021008    ...@    DCD    1073877000
        0x0001eab4:    00800000    ....    DCD    8388608
        0x0001eab8:    40021004    ...@    DCD    1073876996
        0x0001eabc:    01000000    ....    DCD    16777216
        0x0001eac0:    40021008    ...@    DCD    1073877000
        0x0001eac4:    01000000    ....    DCD    16777216
        0x0001eac8:    4002100c    ...@    DCD    1073877004
        0x0001eacc:    00000001    ....    DCD    1
        0x0001ead0:    40021010    ...@    DCD    1073877008
        0x0001ead4:    000000ff    ....    DCD    255
        0x0001ead8:    4002100c    ...@    DCD    1073877004
        0x0001eadc:    00000002    ....    DCD    2
        0x0001eae0:    40021010    ...@    DCD    1073877008
        0x0001eae4:    000000ff    ....    DCD    255
        0x0001eae8:    4002100c    ...@    DCD    1073877004
        0x0001eaec:    00000004    ....    DCD    4
        0x0001eaf0:    40021010    ...@    DCD    1073877008
        0x0001eaf4:    000000ff    ....    DCD    255
        0x0001eaf8:    4002100c    ...@    DCD    1073877004
        0x0001eafc:    00000008    ....    DCD    8
        0x0001eb00:    40021010    ...@    DCD    1073877008
        0x0001eb04:    000000ff    ....    DCD    255
        0x0001eb08:    4002100c    ...@    DCD    1073877004
        0x0001eb0c:    00000010    ....    DCD    16
        0x0001eb10:    40021010    ...@    DCD    1073877008
        0x0001eb14:    000000ff    ....    DCD    255
        0x0001eb18:    4002100c    ...@    DCD    1073877004
        0x0001eb1c:    00000020     ...    DCD    32
        0x0001eb20:    40021010    ...@    DCD    1073877008
        0x0001eb24:    000000ff    ....    DCD    255
        0x0001eb28:    4002100c    ...@    DCD    1073877004
        0x0001eb2c:    00000040    @...    DCD    64
        0x0001eb30:    40021010    ...@    DCD    1073877008
        0x0001eb34:    000000ff    ....    DCD    255
        0x0001eb38:    4002100c    ...@    DCD    1073877004
        0x0001eb3c:    00000080    ....    DCD    128
        0x0001eb40:    40021010    ...@    DCD    1073877008
        0x0001eb44:    000000ff    ....    DCD    255
        0x0001eb48:    4002100c    ...@    DCD    1073877004
        0x0001eb4c:    00000400    ....    DCD    1024
        0x0001eb50:    40021010    ...@    DCD    1073877008
        0x0001eb54:    00000400    ....    DCD    1024
    g_DefaultMcuMemCfg
        0x0001eb58:    07070102    ....    DCD    117899522
        0x0001eb5c:    0001        ..      DCW    1
    g_DefaultSRAMCfg
        0x0001eb5e:    0003        ..      DCW    3
        0x0001eb60:    03000000    ....    DCD    50331648
    g_am_hal_bootrom_helper
        0x0001eb64:    0800004d    M...    DCD    134217805
        0x0001eb68:    08000051    Q...    DCD    134217809
        0x0001eb6c:    08000055    U...    DCD    134217813
        0x0001eb70:    08000059    Y...    DCD    134217817
        0x0001eb74:    0800006d    m...    DCD    134217837
        0x0001eb78:    08000075    u...    DCD    134217845
        0x0001eb7c:    08000079    y...    DCD    134217849
        0x0001eb80:    08000081    ....    DCD    134217857
        0x0001eb84:    08000099    ....    DCD    134217881
        0x0001eb88:    0800009d    ....    DCD    134217885
    __tagsym$$used.7
    sGlobalAccess
        0x0001eb8c:    0001f164    d...    DCD    127332
        0x0001eb90:    0001f150    P...    DCD    127312
        0x0001eb94:    0001f128    (...    DCD    127272
        0x0001eb98:    0001f13c    <...    DCD    127292
        0x0001eb9c:    10060004    ....    DCD    268828676
        0x0001eba0:    10060018    ....    DCD    268828696
        0x0001eba4:    1006002c    ,...    DCD    268828716
    .L.str.22
        0x0001eba8:    3d3d3d3d    ====    DCD    1027423549
        0x0001ebac:    3d3d3d3d    ====    DCD    1027423549
        0x0001ebb0:    3d3d3d3d    ====    DCD    1027423549
        0x0001ebb4:    3d3d3d3d    ====    DCD    1027423549
        0x0001ebb8:    3d3d3d3d    ====    DCD    1027423549
        0x0001ebbc:    3d3d3d3d    ====    DCD    1027423549
        0x0001ebc0:    3d3d3d3d    ====    DCD    1027423549
        0x0001ebc4:    3d3d3d3d    ====    DCD    1027423549
        0x0001ebc8:    3d3d3d3d    ====    DCD    1027423549
        0x0001ebcc:    3d3d3d3d    ====    DCD    1027423549
        0x0001ebd0:    3d3d3d3d    ====    DCD    1027423549
        0x0001ebd4:    3d3d3d3d    ====    DCD    1027423549
        0x0001ebd8:    3d3d3d3d    ====    DCD    1027423549
        0x0001ebdc:    3d3d3d3d    ====    DCD    1027423549
        0x0001ebe0:    3d3d3d3d    ====    DCD    1027423549
        0x0001ebe4:    0a0a        ..      DCW    2570
        0x0001ebe6:    00          .       DCB    0
    .L.str.37
        0x0001ebe7:    44          D       DCB    68
        0x0001ebe8:    63657465    etec    DCD    1667593317
        0x0001ebec:    676e6974    ting    DCD    1735289204
        0x0001ebf0:    20445320     SD     DCD    541348640
        0x0001ebf4:    64726143    Card    DCD    1685217603
        0x0001ebf8:    0a20         .      DCW    2592
        0x0001ebfa:    00          .       DCB    0
    .L.str.27
        0x0001ebfb:    0a          .       DCB    10
        0x0001ebfc:    3d3d3d3d    ====    DCD    1027423549
        0x0001ec00:    3d3d3d3d    ====    DCD    1027423549
        0x0001ec04:    73655420     Tes    DCD    1936020512
        0x0001ec08:    756d2074    t mu    DCD    1970086004
        0x0001ec0c:    7069746c    ltip    DCD    1885959276
        0x0001ec10:    6220656c    le b    DCD    1646290284
        0x0001ec14:    6b636f6c    lock    DCD    1801678700
        0x0001ec18:    2c64253a    :%d,    DCD    744760634
        0x0001ec1c:    20746120     at     DCD    544497952
        0x0001ec20:    73206425    %d s    DCD    1931502629
        0x0001ec24:    20636e79    ync     DCD    543387257
        0x0001ec28:    74697277    writ    DCD    1953067639
        0x0001ec2c:    6e612065    e an    DCD    1851859045
        0x0001ec30:    65722064    d re    DCD    1701978212
        0x0001ec34:    69206461    ad i    DCD    1763730529
        0x0001ec38:    5353206e    n SS    DCD    1397956718
        0x0001ec3c:    204d4152    RAM     DCD    541933906
        0x0001ec40:    3d3d3d3d    ====    DCD    1027423549
        0x0001ec44:    3d3d3d3d    ====    DCD    1027423549
        0x0001ec48:    000a        ..      DCW    10
    .L.str.23
        0x0001ec4a:    3d0a        .=      DCW    15626
        0x0001ec4c:    3d3d3d3d    ====    DCD    1027423549
        0x0001ec50:    203d3d3d    ===     DCD    540884285
        0x0001ec54:    74736554    Test    DCD    1953719636
        0x0001ec58:    6e697320     sin    DCD    1852404512
        0x0001ec5c:    20656c67    gle     DCD    543517799
        0x0001ec60:    636f6c62    bloc    DCD    1668246626
        0x0001ec64:    7973206b    k sy    DCD    2037588075
        0x0001ec68:    7720636e    nc w    DCD    1998611310
        0x0001ec6c:    65746972    rite    DCD    1702127986
        0x0001ec70:    646e6120     and    DCD    1684955424
        0x0001ec74:    61657220     rea    DCD    1634038304
        0x0001ec78:    6e692064    d in    DCD    1852383332
        0x0001ec7c:    52535320     SSR    DCD    1381192480
        0x0001ec80:    3d204d41    AM =    DCD    1025527105
        0x0001ec84:    3d3d3d3d    ====    DCD    1027423549
        0x0001ec88:    0a3d3d3d    ===.    DCD    171785533
        0x0001ec8c:    00          .       DCB    0
    .L.str.28
        0x0001ec8d:    0a3d3d      .==     DCB    10,61,61
        0x0001ec90:    3d3d3d3d    ====    DCD    1027423549
        0x0001ec94:    54203d3d    == T    DCD    1411398973
        0x0001ec98:    20747365    est     DCD    544502629
        0x0001ec9c:    746c756d    mult    DCD    1953265005
        0x0001eca0:    656c7069    iple    DCD    1701605481
        0x0001eca4:    6f6c6220     blo    DCD    1869373984
        0x0001eca8:    253a6b63    ck:%    DCD    624585571
        0x0001ecac:    61202c64    d, a    DCD    1629498468
        0x0001ecb0:    64252074    t %d    DCD    1680154740
        0x0001ecb4:    6e797320     syn    DCD    1853453088
        0x0001ecb8:    72772063    c wr    DCD    1920409699
        0x0001ecbc:    20657469    ite     DCD    543519849
        0x0001ecc0:    20646e61    and     DCD    543452769
        0x0001ecc4:    64616572    read    DCD    1684104562
        0x0001ecc8:    206e6920     in     DCD    544106784
        0x0001eccc:    204d4354    TCM     DCD    541934420
        0x0001ecd0:    3d3d3d3d    ====    DCD    1027423549
        0x0001ecd4:    3d3d3d3d    ====    DCD    1027423549
        0x0001ecd8:    000a        ..      DCW    10
    .L.str.34
        0x0001ecda:    3d0a        .=      DCW    15626
        0x0001ecdc:    3d3d3d3d    ====    DCD    1027423549
        0x0001ece0:    203d3d3d    ===     DCD    540884285
        0x0001ece4:    74736554    Test    DCD    1953719636
        0x0001ece8:    6f6c6220     blo    DCD    1869373984
        0x0001ecec:    65206b63    ck e    DCD    1696623459
        0x0001ecf0:    65736172    rase    DCD    1702060402
        0x0001ecf4:    61747320     sta    DCD    1635021600
        0x0001ecf8:    61207472    rt a    DCD    1629516914
        0x0001ecfc:    64252074    t %d    DCD    1680154740
        0x0001ed00:    6e65202c    , en    DCD    1852121132
        0x0001ed04:    74612064    d at    DCD    1952522340
        0x0001ed08:    20642520     %d     DCD    543434016
        0x0001ed0c:    3d3d3d3d    ====    DCD    1027423549
        0x0001ed10:    3d3d3d3d    ====    DCD    1027423549
        0x0001ed14:    000a        ..      DCW    10
    .L.str.29
        0x0001ed16:    3d0a        .=      DCW    15626
        0x0001ed18:    3d3d3d3d    ====    DCD    1027423549
        0x0001ed1c:    203d3d3d    ===     DCD    540884285
        0x0001ed20:    746c756d    mult    DCD    1953265005
        0x0001ed24:    656c7069    iple    DCD    1701605481
        0x0001ed28:    6f6c6220     blo    DCD    1869373984
        0x0001ed2c:    61206b63    ck a    DCD    1629514595
        0x0001ed30:    636e7973    sync    DCD    1668184435
        0x0001ed34:    69727720     wri    DCD    1769109280
        0x0001ed38:    61206574    te a    DCD    1629513076
        0x0001ed3c:    7220646e    nd r    DCD    1914725486
        0x0001ed40:    20646165    ead     DCD    543449445
        0x0001ed44:    3d3d3d3d    ====    DCD    1027423549
        0x0001ed48:    3d3d3d3d    ====    DCD    1027423549
        0x0001ed4c:    000a        ..      DCW    10
    .L.str.26
        0x0001ed4e:    3d0a        .=      DCW    15626
        0x0001ed50:    3d3d3d3d    ====    DCD    1027423549
        0x0001ed54:    203d3d3d    ===     DCD    540884285
        0x0001ed58:    676e6953    Sing    DCD    1735289171
        0x0001ed5c:    6220656c    le b    DCD    1646290284
        0x0001ed60:    6b636f6c    lock    DCD    1801678700
        0x0001ed64:    6e797320     syn    DCD    1853453088
        0x0001ed68:    72772063    c wr    DCD    1920409699
        0x0001ed6c:    20657469    ite     DCD    543519849
        0x0001ed70:    20646e61    and     DCD    543452769
        0x0001ed74:    64616572    read    DCD    1684104562
        0x0001ed78:    206e6920     in     DCD    544106784
        0x0001ed7c:    41525353    SSRA    DCD    1095914323
        0x0001ed80:    6f44204d    M Do    DCD    1866735693
        0x0001ed84:    3d20656e    ne =    DCD    1025533294
        0x0001ed88:    3d3d3d3d    ====    DCD    1027423549
        0x0001ed8c:    0a3d3d3d    ===.    DCD    171785533
        0x0001ed90:    00          .       DCB    0
    .L.str.17
        0x0001ed91:    0a3d3d      .==     DCB    10,61,61
        0x0001ed94:    3d3d3d3d    ====    DCD    1027423549
        0x0001ed98:    47203d3d    == G    DCD    1193295165
        0x0001ed9c:    53207465    et S    DCD    1394635877
        0x0001eda0:    61432044    D Ca    DCD    1631789124
        0x0001eda4:    43206472    rd C    DCD    1126196338
        0x0001eda8:    69204453    SD i    DCD    1763722323
        0x0001edac:    726f666e    nfor    DCD    1919903342
        0x0001edb0:    6974616d    mati    DCD    1769234797
        0x0001edb4:    3d206e6f    on =    DCD    1025535599
        0x0001edb8:    3d3d3d3d    ====    DCD    1027423549
        0x0001edbc:    0a3d3d3d    ===.    DCD    171785533
        0x0001edc0:    00          .       DCB    0
    .L.str.35
        0x0001edc1:    636172      car     DCB    99,97,114
        0x0001edc4:    72652064    d er    DCD    1919230052
        0x0001edc8:    20657361    ase     DCD    543519585
        0x0001edcc:    6c696166    fail    DCD    1818845542
        0x0001edd0:    70206465    ed p    DCD    1881171045
        0x0001edd4:    52386975    ui8R    DCD    1379428725
        0x0001edd8:    66754264    dBuf    DCD    1718960740
        0x0001eddc:    5d64255b    [%d]    DCD    1566844251
        0x0001ede0:    25203d20     = %    DCD    622869792
        0x0001ede4:    0a64        d.      DCW    2660
        0x0001ede6:    00          .       DCB    0
    .L.str.7
        0x0001ede7:    70          p       DCB    112
        0x0001ede8:    52386975    ui8R    DCD    1379428725
        0x0001edec:    66754264    dBuf    DCD    1718960740
        0x0001edf0:    5d64255b    [%d]    DCD    1566844251
        0x0001edf4:    25203d20     = %    DCD    622869792
        0x0001edf8:    6e612064    d an    DCD    1851859044
        0x0001edfc:    75702064    d pu    DCD    1970282596
        0x0001ee00:    72573869    i8Wr    DCD    1918318697
        0x0001ee04:    5b667542    Buf[    DCD    1533441346
        0x0001ee08:    205d6425    %d]     DCD    542991397
        0x0001ee0c:    6425203d    = %d    DCD    1680154685
        0x0001ee10:    000a        ..      DCW    10
    .L.str.4
        0x0001ee12:    6144        Da      DCW    24900
        0x0001ee14:    65206174    ta e    DCD    1696620916
        0x0001ee18:    726f7272    rror    DCD    1919906418
        0x0001ee1c:    70797420     typ    DCD    1887007776
        0x0001ee20:    64252065    e %d    DCD    1680154725
        0x0001ee24:    000a        ..      DCW    10
    .L.str.2
        0x0001ee26:    4453        SD      DCW    17491
        0x0001ee28:    5220414d    MA R    DCD    1377845581
        0x0001ee2c:    20646165    ead     DCD    543449445
        0x0001ee30:    72656658    Xfer    DCD    1919247960
        0x0001ee34:    62206465    ed b    DCD    1646290021
        0x0001ee38:    6b636f6c    lock    DCD    1801678700
        0x0001ee3c:    0a642520     %d.    DCD    174335264
        0x0001ee40:    00          .       DCB    0
    .L.str
        0x0001ee41:    4c6173      Las     DCB    76,97,115
        0x0001ee44:    65522074    t Re    DCD    1699881076
        0x0001ee48:    58206461    ad X    DCD    1478517857
        0x0001ee4c:    65726566    fere    DCD    1701995878
        0x0001ee50:    6c622064    d bl    DCD    1818370148
        0x0001ee54:    206b636f    ock     DCD    543908719
        0x0001ee58:    000a6425    %d..    DCD    680997
    .L.str.3
        0x0001ee5c:    414d4453    SDMA    DCD    1095582803
        0x0001ee60:    69725720     Wri    DCD    1769101088
        0x0001ee64:    58206574    te X    DCD    1478518132
        0x0001ee68:    65726566    fere    DCD    1701995878
        0x0001ee6c:    6c622064    d bl    DCD    1818370148
        0x0001ee70:    206b636f    ock     DCD    543908719
        0x0001ee74:    000a6425    %d..    DCD    680997
    .L.str.1
        0x0001ee78:    7473614c    Last    DCD    1953718604
        0x0001ee7c:    69725720     Wri    DCD    1769101088
        0x0001ee80:    58206574    te X    DCD    1478518132
        0x0001ee84:    65726566    fere    DCD    1701995878
        0x0001ee88:    6c622064    d bl    DCD    1818370148
        0x0001ee8c:    206b636f    ock     DCD    543908719
        0x0001ee90:    000a6425    %d..    DCD    680997
    .L.str.20
        0x0001ee94:    646f7250    Prod    DCD    1685025360
        0x0001ee98:    20746375    uct     DCD    544498549
        0x0001ee9c:    636f6c42    Bloc    DCD    1668246594
        0x0001eea0:    6953206b    k Si    DCD    1767055467
        0x0001eea4:    3a20657a    ze :    DCD    975201658
        0x0001eea8:    000a6425    %d..    DCD    680997
    .L.str.8
        0x0001eeac:    61746164    data    DCD    1635017060
        0x0001eeb0:    74616d20     mat    DCD    1952541984
        0x0001eeb4:    64656863    ched    DCD    1684367459
        0x0001eeb8:    000a        ..      DCW    10
    .L.str.13
        0x0001eeba:    6163        ca      DCW    24931
        0x0001eebc:    64206472    rd d    DCD    1679844466
        0x0001eec0:    63657465    etec    DCD    1667593317
        0x0001eec4:    6e6f6974    tion    DCD    1852795252
        0x0001eec8:    616e6520     ena    DCD    1634624800
        0x0001eecc:    20656c62    ble     DCD    543517794
        0x0001eed0:    6c696166    fail    DCD    1818845542
        0x0001eed4:    000a6465    ed..    DCD    681061
    .L.str.16
        0x0001eed8:    74746573    sett    DCD    1953785203
        0x0001eedc:    20676e69    ing     DCD    543649385
        0x0001eee0:    20737562    bus     DCD    544437602
        0x0001eee4:    69622034    4 bi    DCD    1768038452
        0x0001eee8:    61662074    t fa    DCD    1634082932
        0x0001eeec:    64656c69    iled    DCD    1684368489
        0x0001eef0:    000a        ..      DCW    10
    .L.str.5
        0x0001eef2:    4453        SD      DCW    17491
        0x0001eef4:    72616320     car    DCD    1918984992
        0x0001eef8:    73692064    d is    DCD    1936269412
        0x0001eefc:    736e6920     ins    DCD    1936615712
        0x0001ef00:    65747265    erte    DCD    1702130277
        0x0001ef04:    0a64        d.      DCW    2660
        0x0001ef06:    00          .       DCB    0
    .L.str.10
        0x0001ef07:    63          c       DCB    99
        0x0001ef08:    20647261    ard     DCD    543453793
        0x0001ef0c:    74736f68    host    DCD    1953722216
        0x0001ef10:    20736920     is     DCD    544434464
        0x0001ef14:    6e756f66    foun    DCD    1853189990
        0x0001ef18:    0a64        d.      DCW    2660
        0x0001ef1a:    00          .       DCB    0
    .L.str.36
        0x0001ef1b:    44          D       DCB    68
        0x0001ef1c:    63657465    etec    DCD    1667593317
        0x0001ef20:    20646574    ted     DCD    543450484
        0x0001ef24:    43204453    SD C    DCD    1126188115
        0x0001ef28:    20647261    ard     DCD    543453793
        0x0001ef2c:    6c6c7570    pull    DCD    1819047280
        0x0001ef30:    6f206465    ed o    DCD    1864393829
        0x0001ef34:    2c207475    ut ,    DCD    740324469
        0x0001ef38:    69656420     dei    DCD    1768252448
        0x0001ef3c:    2074696e    nit     DCD    544500078
        0x0001ef40:    63206473    sd c    DCD    1663067251
        0x0001ef44:    0a647261    ard.    DCD    174355041
        0x0001ef48:    00          .       DCB    0
    .L.str.33
        0x0001ef49:    617379      asy     DCB    97,115,121
        0x0001ef4c:    7268636e    nchr    DCD    1919443822
        0x0001ef50:    756f6e6f    onou    DCD    1970237039
        0x0001ef54:    6c622073    s bl    DCD    1818370163
        0x0001ef58:    206b636f    ock     DCD    543908719
        0x0001ef5c:    64616572    read    DCD    1684104562
        0x0001ef60:    20736920     is     DCD    544434464
        0x0001ef64:    656e6f64    done    DCD    1701736292
        0x0001ef68:    000a        ..      DCW    10
    .L.str.31
        0x0001ef6a:    7361        as      DCW    29537
        0x0001ef6c:    68636e79    ynch    DCD    1751346809
        0x0001ef70:    6f6e6f72    rono    DCD    1869508466
        0x0001ef74:    62207375    us b    DCD    1646293877
        0x0001ef78:    6b636f6c    lock    DCD    1801678700
        0x0001ef7c:    69727720     wri    DCD    1769109280
        0x0001ef80:    69206574    te i    DCD    1763730804
        0x0001ef84:    6f642073    s do    DCD    1868832883
        0x0001ef88:    000a656e    ne..    DCD    681326
    .L.str.38
        0x0001ef8c:    43204453    SD C    DCD    1126188115
        0x0001ef90:    20647261    ard     DCD    543453793
        0x0001ef94:    20776172    raw     DCD    544694642
        0x0001ef98:    636f6c62    bloc    DCD    1668246626
        0x0001ef9c:    6572206b    k re    DCD    1701978219
        0x0001efa0:    61206461    ad a    DCD    1629512801
        0x0001efa4:    7720646e    nd w    DCD    1998611566
        0x0001efa8:    65746972    rite    DCD    1702127986
        0x0001efac:    73657420     tes    DCD    1936028704
        0x0001efb0:    6f642074    t do    DCD    1868832884
        0x0001efb4:    000a656e    ne..    DCD    681326
    .L.str.6
        0x0001efb8:    43204453    SD C    DCD    1126188115
        0x0001efbc:    20647261    ard     DCD    543453793
        0x0001efc0:    6f6d6572    remo    DCD    1869440370
        0x0001efc4:    0a6c6176    val.    DCD    174874998
        0x0001efc8:    00          .       DCB    0
    .L.str.12
        0x0001efc9:    436865      Che     DCB    67,104,101
        0x0001efcc:    6e696b63    ckin    DCD    1852402531
        0x0001efd0:    66692067    g if    DCD    1718165607
        0x0001efd4:    72616320     car    DCD    1918984992
        0x0001efd8:    73692064    d is    DCD    1936269412
        0x0001efdc:    61766120     ava    DCD    1635148064
        0x0001efe0:    62616c69    ilab    DCD    1650551913
        0x0001efe4:    6120656c    le a    DCD    1629513068
        0x0001efe8:    6e696167    gain    DCD    1852399975
        0x0001efec:    000a        ..      DCW    10
    .L.str.15
        0x0001efee:    6163        ca      DCW    24931
        0x0001eff0:    69206472    rd i    DCD    1763730546
        0x0001eff4:    2074696e    nit     DCD    544500078
        0x0001eff8:    6c696166    fail    DCD    1818845542
        0x0001effc:    202c6465    ed,     DCD    539780197
        0x0001f000:    20797274    try     DCD    544830068
        0x0001f004:    69616761    agai    DCD    1767991137
        0x0001f008:    0a6e        n.      DCW    2670
        0x0001f00a:    00          .       DCB    0
    .L.str.9
        0x0001f00b:    4e          N       DCB    78
        0x0001f00c:    7573206f    o su    DCD    1970479215
        0x0001f010:    63206863    ch c    DCD    1663068259
        0x0001f014:    20647261    ard     DCD    543453793
        0x0001f018:    74736f68    host    DCD    1953722216
        0x0001f01c:    646e6120     and    DCD    1684955424
        0x0001f020:    6f747320     sto    DCD    1869902624
        0x0001f024:    0a70        p.      DCW    2672
        0x0001f026:    00          .       DCB    0
    .L.str.14
        0x0001f027:    4e          N       DCB    78
        0x0001f028:    6163206f    o ca    DCD    1633886319
        0x0001f02c:    63206472    rd c    DCD    1663067250
        0x0001f030:    656e6e6f    onne    DCD    1701736047
        0x0001f034:    64657463    cted    DCD    1684370531
        0x0001f038:    656e202c    , ne    DCD    1701716012
        0x0001f03c:    63206465    ed c    DCD    1663067237
        0x0001f040:    20647261    ard     DCD    543453793
        0x0001f044:    65736e69    inse    DCD    1702063721
        0x0001f048:    000a7472    rt..    DCD    685170
    .L.str.11
        0x0001f04c:    63206f4e    No c    DCD    1663070030
        0x0001f050:    20647261    ard     DCD    543453793
        0x0001f054:    70207369    is p    DCD    1881174889
        0x0001f058:    65736572    rese    DCD    1702061426
        0x0001f05c:    6e20746e    nt n    DCD    1847620718
        0x0001f060:    000a776f    ow..    DCD    685935
    .L.str.25
        0x0001f064:    64726163    card    DCD    1685217635
        0x0001f068:    6f6c6220     blo    DCD    1869373984
        0x0001f06c:    72206b63    ck r    DCD    1914727267
        0x0001f070:    20646165    ead     DCD    543449445
        0x0001f074:    6f727265    erro    DCD    1869771365
        0x0001f078:    78253a72    r:%x    DCD    2015705714
        0x0001f07c:    000a        ..      DCW    10
    .L.str.24
        0x0001f07e:    6163        ca      DCW    24931
        0x0001f080:    62206472    rd b    DCD    1646290034
        0x0001f084:    6b636f6c    lock    DCD    1801678700
        0x0001f088:    69727720     wri    DCD    1769109280
        0x0001f08c:    65206574    te e    DCD    1696621940
        0x0001f090:    726f7272    rror    DCD    1919906418
        0x0001f094:    0a78253a    :%x.    DCD    175646010
        0x0001f098:    00          .       DCB    0
    .L.str.18
        0x0001f099:    50726f      Pro     DCB    80,114,111
        0x0001f09c:    74637564    duct    DCD    1952675172
        0x0001f0a0:    44534320     CSD    DCD    1146307360
        0x0001f0a4:    72655620     Ver    DCD    1919243808
        0x0001f0a8:    6e6f6973    sion    DCD    1852795251
        0x0001f0ac:    30203a20     : 0    DCD    807418400
        0x0001f0b0:    0a782578    x%x.    DCD    175646072
        0x0001f0b4:    00          .       DCB    0
    .L.str.21
        0x0001f0b5:    50726f      Pro     DCB    80,114,111
        0x0001f0b8:    74637564    duct    DCD    1952675172
        0x0001f0bc:    78614d20     Max    DCD    2019642656
        0x0001f0c0:    6f6c4220     Blo    DCD    1869365792
        0x0001f0c4:    43206b63    ck C    DCD    1126198115
        0x0001f0c8:    746e756f    ount    DCD    1953396079
        0x0001f0cc:    30203a20     : 0    DCD    807418400
        0x0001f0d0:    0a782578    x%x.    DCD    175646072
        0x0001f0d4:    00          .       DCB    0
    .L.str.19
        0x0001f0d5:    50726f      Pro     DCB    80,114,111
        0x0001f0d8:    74637564    duct    DCD    1952675172
        0x0001f0dc:    44534320     CSD    DCD    1146307360
        0x0001f0e0:    535f4320     C_S    DCD    1398752032
        0x0001f0e4:    20657a69    ize     DCD    543521385
        0x0001f0e8:    2578303a    :0x%    DCD    628633658
        0x0001f0ec:    0a78        x.      DCW    2680
        0x0001f0ee:    00          .       DCB    0
    .L.str.32
        0x0001f0ef:    41          A       DCB    65
        0x0001f0f0:    636e7973    sync    DCD    1668184435
        0x0001f0f4:    61655220     Rea    DCD    1634030112
        0x0001f0f8:    69542064    d Ti    DCD    1767120996
        0x0001f0fc:    756f656d    meou    DCD    1970234733
        0x0001f100:    0074        t.      DCW    116
    .L.str.30
        0x0001f102:    7341        As      DCW    29505
        0x0001f104:    20636e79    ync     DCD    543387257
        0x0001f108:    74697257    Writ    DCD    1953067607
        0x0001f10c:    69542065    e Ti    DCD    1767120997
        0x0001f110:    756f656d    meou    DCD    1970234733
        0x0001f114:    00000074    t...    DCD    116
    g_ui32DSpintbl
        0x0001f118:    8fc007e0    ....    DCD    2411726816
        0x0001f11c:    e3fbffff    ....    DCD    3824943103
        0x0001f120:    01ffffff    ....    DCD    33554431
        0x0001f124:    00000000    ....    DCD    0
    __tagsym$$used.1
    ui32DSP0Allowed
        0x0001f128:    00000000    ....    DCD    0
        0x0001f12c:    00000000    ....    DCD    0
        0x0001f130:    00000000    ....    DCD    0
        0x0001f134:    00000000    ....    DCD    0
        0x0001f138:    00000000    ....    DCD    0
    __tagsym$$used.2
    ui32DSP1Allowed
        0x0001f13c:    00000000    ....    DCD    0
        0x0001f140:    00000000    ....    DCD    0
        0x0001f144:    00000000    ....    DCD    0
        0x0001f148:    00000000    ....    DCD    0
        0x0001f14c:    00000000    ....    DCD    0
    __tagsym$$used.0
    ui32MCUAllowed
        0x0001f150:    00000000    ....    DCD    0
        0x0001f154:    00000000    ....    DCD    0
        0x0001f158:    00000000    ....    DCD    0
        0x0001f15c:    00000000    ....    DCD    0
        0x0001f160:    00000000    ....    DCD    0
    __tagsym$$used.3
    ui32SharedAccess
        0x0001f164:    00000000    ....    DCD    0
        0x0001f168:    00000000    ....    DCD    0
        0x0001f16c:    00000000    ....    DCD    0
        0x0001f170:    00000000    ....    DCD    0
        0x0001f174:    00000000    ....    DCD    0
    Region$$Table$$Base
        0x0001f178:    0001f1b0    ....    DCD    127408
        0x0001f17c:    10000000    ....    DCD    268435456
        0x0001f180:    00000100    ....    DCD    256
        0x0001f184:    000182ac    ....    DCD    98988
        0x0001f188:    0001f2b0    ....    DCD    127664
        0x0001f18c:    10060000    ....    DCD    268828672
        0x0001f190:    00002840    @(..    DCD    10304
        0x0001f194:    00018270    p...    DCD    98928
        0x0001f198:    0001f2b0    ....    DCD    127664
        0x0001f19c:    10000100    ....    DCD    268435712
        0x0001f1a0:    00005a90    .Z..    DCD    23184
        0x0001f1a4:    000182c8    ....    DCD    99016
    Region$$Table$$Limit

** Section #2 'MCU_TCM' (SHT_PROGBITS) [SHF_ALLOC + SHF_WRITE]
    Size   : 256 bytes (alignment 16)
    Address: 0x10000000

    0x10000000:   08 1e 0c 40 18 1e 0c 40 6d db 02 40 d1 02 00 00    ...@...@m..@....
    0x10000010:   92 24 01 80 20 01 00 00 ff ff ff ff ff ff ff ff    .$.. ...........
    0x10000020:   00 01 02 0f 01 00 00 00 02 8c 00 00 02 8c 00 00    ................
    0x10000030:   02 8c 00 00 02 8c 00 00 02 8c 00 00 02 8c 00 00    ................
    0x10000040:   02 0c 00 00 02 0c 00 00 02 0c 00 00 02 0c 00 00    ................
    0x10000050:   00 00 00 00 00 00 00 00 00 00 00 00 00 00 00 00    ................
    0x10000060:   00 00 00 00 00 00 00 00 00 00 00 00 00 00 00 00    ................
    0x10000070:   00 00 00 00 00 00 00 00 00 00 00 00 00 00 00 00    ................
    0x10000080:   00 00 00 00 00 00 00 00 00 00 00 00 00 00 00 00    ................
    0x10000090:   00 00 00 00 00 00 00 00 00 00 00 00 00 00 00 00    ................
    0x100000a0:   00 00 00 00 00 00 00 00 00 00 00 00 00 00 00 00    ................
    0x100000b0:   00 00 00 00 00 00 00 00 c0 00 00 10 00 00 00 00    ................
    0x100000c0:   e1 b9 01 00 75 b9 01 00 79 8a 01 00 ad b9 01 00    ....u...y.......
    0x100000d0:   e5 bf 01 00 39 c0 01 00 f9 be 01 00 f1 c0 01 00    ....9...........
    0x100000e0:   a1 c0 01 00 e1 b8 01 00 4d b9 01 00 25 b2 01 00    ........M...%...
    0x100000f0:   ff 00 00 00 00 00 00 00 00 00 00 00 00 00 00 00    ................


** Section #3 'MCU_TCM' (SHT_NOBITS) [SHF_ALLOC + SHF_WRITE]
    Size   : 23184 bytes (alignment 16)
    Address: 0x10000100


** Section #4 'SHARED_SRAM' (SHT_PROGBITS) [SHF_ALLOC + SHF_WRITE]
    Size   : 88 bytes (alignment 16)
    Address: 0x10060000

    Data section was compressed (Original size: 10304 bytes)

    0x10060000:   8c eb 01 00 00 00 00 00 00 00 00 00 00 00 00 00    ................
    0x10060010:   00 00 00 00 00 00 00 00 00 00 00 00 00 00 00 00    ................
    0x10060020:   00 00 00 00 00 00 00 00 00 00 00 00 00 00 00 00    ................
    0x10060030:   00 00 00 00 00 00 00 00 00 00 00 00 00 00 00 00    ................
    0x10060040:   00 00 00 00 00 00 00 00 00 00 00 00 00 00 00 00    ................
    0x10060050:   00 00 00 00 00 00 00 00 00 00 00 00 00 00 00 00    ................
    0x10060060:   00 00 00 00 00 00 00 00 00 00 00 00 00 00 00 00    ................
    0x10060070:   00 00 00 00 00 00 00 00 00 00 00 00 00 00 00 00    ................
    0x10060080:   00 00 00 00 00 00 00 00 00 00 00 00 00 00 00 00    ................
    0x10060090:   00 00 00 00 00 00 00 00 00 00 00 00 00 00 00 00    ................
    0x100600a0:   00 00 00 00 00 00 00 00 00 00 00 00 00 00 00 00    ................
    0x100600b0:   00 00 00 00 00 00 00 00 00 00 00 00 00 00 00 00    ................
    0x100600c0:   00 00 00 00 00 00 00 00 00 00 00 00 00 00 00 00    ................
    0x100600d0:   00 00 00 00 00 00 00 00 00 00 00 00 00 00 00 00    ................
    0x100600e0:   00 00 00 00 00 00 00 00 00 00 00 00 00 00 00 00    ................
    0x100600f0:   00 00 00 00 00 00 00 00 00 00 00 00 00 00 00 00    ................
    0x10060100:   00 00 00 00 00 00 00 00 00 00 00 00 00 00 00 00    ................
    0x10060110:   00 00 00 00 00 00 00 00 00 00 00 00 00 00 00 00    ................
    0x10060120:   00 00 00 00 00 00 00 00 00 00 00 00 00 00 00 00    ................
    0x10060130:   00 00 00 00 00 00 00 00 00 00 00 00 00 00 00 00    ................
    0x10060140:   00 00 00 00 00 00 00 00 00 00 00 00 00 00 00 00    ................
    0x10060150:   00 00 00 00 00 00 00 00 00 00 00 00 00 00 00 00    ................
    0x10060160:   00 00 00 00 00 00 00 00 00 00 00 00 00 00 00 00    ................
    0x10060170:   00 00 00 00 00 00 00 00 00 00 00 00 00 00 00 00    ................
    0x10060180:   00 00 00 00 00 00 00 00 00 00 00 00 00 00 00 00    ................
    0x10060190:   00 00 00 00 00 00 00 00 00 00 00 00 00 00 00 00    ................
    0x100601a0:   00 00 00 00 00 00 00 00 00 00 00 00 00 00 00 00    ................
    0x100601b0:   00 00 00 00 00 00 00 00 00 00 00 00 00 00 00 00    ................
    0x100601c0:   00 00 00 00 00 00 00 00 00 00 00 00 00 00 00 00    ................
    0x100601d0:   00 00 00 00 00 00 00 00 00 00 00 00 00 00 00 00    ................
    0x100601e0:   00 00 00 00 00 00 00 00 00 00 00 00 00 00 00 00    ................
    0x100601f0:   00 00 00 00 00 00 00 00 00 00 00 00 00 00 00 00    ................
    0x10060200:   00 00 00 00 00 00 00 00 00 00 00 00 00 00 00 00    ................
    0x10060210:   00 00 00 00 00 00 00 00 00 00 00 00 00 00 00 00    ................
    0x10060220:   00 00 00 00 00 00 00 00 00 00 00 00 00 00 00 00    ................
    0x10060230:   00 00 00 00 00 00 00 00 00 00 00 00 00 00 00 00    ................
    0x10060240:   00 00 00 00 00 00 00 00 00 00 00 00 00 00 00 00    ................
    0x10060250:   00 00 00 00 00 00 00 00 00 00 00 00 00 00 00 00    ................
    0x10060260:   00 00 00 00 00 00 00 00 00 00 00 00 00 00 00 00    ................
    0x10060270:   00 00 00 00 00 00 00 00 00 00 00 00 00 00 00 00    ................
    0x10060280:   00 00 00 00 00 00 00 00 00 00 00 00 00 00 00 00    ................
    0x10060290:   00 00 00 00 00 00 00 00 00 00 00 00 00 00 00 00    ................
    0x100602a0:   00 00 00 00 00 00 00 00 00 00 00 00 00 00 00 00    ................
    0x100602b0:   00 00 00 00 00 00 00 00 00 00 00 00 00 00 00 00    ................
    0x100602c0:   00 00 00 00 00 00 00 00 00 00 00 00 00 00 00 00    ................
    0x100602d0:   00 00 00 00 00 00 00 00 00 00 00 00 00 00 00 00    ................
    0x100602e0:   00 00 00 00 00 00 00 00 00 00 00 00 00 00 00 00    ................
    0x100602f0:   00 00 00 00 00 00 00 00 00 00 00 00 00 00 00 00    ................
    0x10060300:   00 00 00 00 00 00 00 00 00 00 00 00 00 00 00 00    ................
    0x10060310:   00 00 00 00 00 00 00 00 00 00 00 00 00 00 00 00    ................
    0x10060320:   00 00 00 00 00 00 00 00 00 00 00 00 00 00 00 00    ................
    0x10060330:   00 00 00 00 00 00 00 00 00 00 00 00 00 00 00 00    ................
    0x10060340:   00 00 00 00 00 00 00 00 00 00 00 00 00 00 00 00    ................
    0x10060350:   00 00 00 00 00 00 00 00 00 00 00 00 00 00 00 00    ................
    0x10060360:   00 00 00 00 00 00 00 00 00 00 00 00 00 00 00 00    ................
    0x10060370:   00 00 00 00 00 00 00 00 00 00 00 00 00 00 00 00    ................
    0x10060380:   00 00 00 00 00 00 00 00 00 00 00 00 00 00 00 00    ................
    0x10060390:   00 00 00 00 00 00 00 00 00 00 00 00 00 00 00 00    ................
    0x100603a0:   00 00 00 00 00 00 00 00 00 00 00 00 00 00 00 00    ................
    0x100603b0:   00 00 00 00 00 00 00 00 00 00 00 00 00 00 00 00    ................
    0x100603c0:   00 00 00 00 00 00 00 00 00 00 00 00 00 00 00 00    ................
    0x100603d0:   00 00 00 00 00 00 00 00 00 00 00 00 00 00 00 00    ................
    0x100603e0:   00 00 00 00 00 00 00 00 00 00 00 00 00 00 00 00    ................
    0x100603f0:   00 00 00 00 00 00 00 00 00 00 00 00 00 00 00 00    ................
    0x10060400:   00 00 00 00 00 00 00 00 00 00 00 00 00 00 00 00    ................
    0x10060410:   00 00 00 00 00 00 00 00 00 00 00 00 00 00 00 00    ................
    0x10060420:   00 00 00 00 00 00 00 00 00 00 00 00 00 00 00 00    ................
    0x10060430:   00 00 00 00 00 00 00 00 00 00 00 00 00 00 00 00    ................
    0x10060440:   00 00 00 00 00 00 00 00 00 00 00 00 00 00 00 00    ................
    0x10060450:   00 00 00 00 00 00 00 00 00 00 00 00 00 00 00 00    ................
    0x10060460:   00 00 00 00 00 00 00 00 00 00 00 00 00 00 00 00    ................
    0x10060470:   00 00 00 00 00 00 00 00 00 00 00 00 00 00 00 00    ................
    0x10060480:   00 00 00 00 00 00 00 00 00 00 00 00 00 00 00 00    ................
    0x10060490:   00 00 00 00 00 00 00 00 00 00 00 00 00 00 00 00    ................
    0x100604a0:   00 00 00 00 00 00 00 00 00 00 00 00 00 00 00 00    ................
    0x100604b0:   00 00 00 00 00 00 00 00 00 00 00 00 00 00 00 00    ................
    0x100604c0:   00 00 00 00 00 00 00 00 00 00 00 00 00 00 00 00    ................
    0x100604d0:   00 00 00 00 00 00 00 00 00 00 00 00 00 00 00 00    ................
    0x100604e0:   00 00 00 00 00 00 00 00 00 00 00 00 00 00 00 00    ................
    0x100604f0:   00 00 00 00 00 00 00 00 00 00 00 00 00 00 00 00    ................
    0x10060500:   00 00 00 00 00 00 00 00 00 00 00 00 00 00 00 00    ................
    0x10060510:   00 00 00 00 00 00 00 00 00 00 00 00 00 00 00 00    ................
    0x10060520:   00 00 00 00 00 00 00 00 00 00 00 00 00 00 00 00    ................
    0x10060530:   00 00 00 00 00 00 00 00 00 00 00 00 00 00 00 00    ................
    0x10060540:   00 00 00 00 00 00 00 00 00 00 00 00 00 00 00 00    ................
    0x10060550:   00 00 00 00 00 00 00 00 00 00 00 00 00 00 00 00    ................
    0x10060560:   00 00 00 00 00 00 00 00 00 00 00 00 00 00 00 00    ................
    0x10060570:   00 00 00 00 00 00 00 00 00 00 00 00 00 00 00 00    ................
    0x10060580:   00 00 00 00 00 00 00 00 00 00 00 00 00 00 00 00    ................
    0x10060590:   00 00 00 00 00 00 00 00 00 00 00 00 00 00 00 00    ................
    0x100605a0:   00 00 00 00 00 00 00 00 00 00 00 00 00 00 00 00    ................
    0x100605b0:   00 00 00 00 00 00 00 00 00 00 00 00 00 00 00 00    ................
    0x100605c0:   00 00 00 00 00 00 00 00 00 00 00 00 00 00 00 00    ................
    0x100605d0:   00 00 00 00 00 00 00 00 00 00 00 00 00 00 00 00    ................
    0x100605e0:   00 00 00 00 00 00 00 00 00 00 00 00 00 00 00 00    ................
    0x100605f0:   00 00 00 00 00 00 00 00 00 00 00 00 00 00 00 00    ................
    0x10060600:   00 00 00 00 00 00 00 00 00 00 00 00 00 00 00 00    ................
    0x10060610:   00 00 00 00 00 00 00 00 00 00 00 00 00 00 00 00    ................
    0x10060620:   00 00 00 00 00 00 00 00 00 00 00 00 00 00 00 00    ................
    0x10060630:   00 00 00 00 00 00 00 00 00 00 00 00 00 00 00 00    ................
    0x10060640:   00 00 00 00 00 00 00 00 00 00 00 00 00 00 00 00    ................
    0x10060650:   00 00 00 00 00 00 00 00 00 00 00 00 00 00 00 00    ................
    0x10060660:   00 00 00 00 00 00 00 00 00 00 00 00 00 00 00 00    ................
    0x10060670:   00 00 00 00 00 00 00 00 00 00 00 00 00 00 00 00    ................
    0x10060680:   00 00 00 00 00 00 00 00 00 00 00 00 00 00 00 00    ................
    0x10060690:   00 00 00 00 00 00 00 00 00 00 00 00 00 00 00 00    ................
    0x100606a0:   00 00 00 00 00 00 00 00 00 00 00 00 00 00 00 00    ................
    0x100606b0:   00 00 00 00 00 00 00 00 00 00 00 00 00 00 00 00    ................
    0x100606c0:   00 00 00 00 00 00 00 00 00 00 00 00 00 00 00 00    ................
    0x100606d0:   00 00 00 00 00 00 00 00 00 00 00 00 00 00 00 00    ................
    0x100606e0:   00 00 00 00 00 00 00 00 00 00 00 00 00 00 00 00    ................
    0x100606f0:   00 00 00 00 00 00 00 00 00 00 00 00 00 00 00 00    ................
    0x10060700:   00 00 00 00 00 00 00 00 00 00 00 00 00 00 00 00    ................
    0x10060710:   00 00 00 00 00 00 00 00 00 00 00 00 00 00 00 00    ................
    0x10060720:   00 00 00 00 00 00 00 00 00 00 00 00 00 00 00 00    ................
    0x10060730:   00 00 00 00 00 00 00 00 00 00 00 00 00 00 00 00    ................
    0x10060740:   00 00 00 00 00 00 00 00 00 00 00 00 00 00 00 00    ................
    0x10060750:   00 00 00 00 00 00 00 00 00 00 00 00 00 00 00 00    ................
    0x10060760:   00 00 00 00 00 00 00 00 00 00 00 00 00 00 00 00    ................
    0x10060770:   00 00 00 00 00 00 00 00 00 00 00 00 00 00 00 00    ................
    0x10060780:   00 00 00 00 00 00 00 00 00 00 00 00 00 00 00 00    ................
    0x10060790:   00 00 00 00 00 00 00 00 00 00 00 00 00 00 00 00    ................
    0x100607a0:   00 00 00 00 00 00 00 00 00 00 00 00 00 00 00 00    ................
    0x100607b0:   00 00 00 00 00 00 00 00 00 00 00 00 00 00 00 00    ................
    0x100607c0:   00 00 00 00 00 00 00 00 00 00 00 00 00 00 00 00    ................
    0x100607d0:   00 00 00 00 00 00 00 00 00 00 00 00 00 00 00 00    ................
    0x100607e0:   00 00 00 00 00 00 00 00 00 00 00 00 00 00 00 00    ................
    0x100607f0:   00 00 00 00 00 00 00 00 00 00 00 00 00 00 00 00    ................
    0x10060800:   00 00 00 00 00 00 00 00 00 00 00 00 00 00 00 00    ................
    0x10060810:   00 00 00 00 00 00 00 00 00 00 00 00 00 00 00 00    ................
    0x10060820:   00 00 00 00 00 00 00 00 00 00 00 00 00 00 00 00    ................
    0x10060830:   00 00 00 00 00 00 00 00 00 00 00 00 00 00 00 00    ................
    0x10060840:   00 00 00 00 00 00 00 00 00 00 00 00 00 00 00 00    ................
    0x10060850:   00 00 00 00 00 00 00 00 00 00 00 00 00 00 00 00    ................
    0x10060860:   00 00 00 00 00 00 00 00 00 00 00 00 00 00 00 00    ................
    0x10060870:   00 00 00 00 00 00 00 00 00 00 00 00 00 00 00 00    ................
    0x10060880:   00 00 00 00 00 00 00 00 00 00 00 00 00 00 00 00    ................
    0x10060890:   00 00 00 00 00 00 00 00 00 00 00 00 00 00 00 00    ................
    0x100608a0:   00 00 00 00 00 00 00 00 00 00 00 00 00 00 00 00    ................
    0x100608b0:   00 00 00 00 00 00 00 00 00 00 00 00 00 00 00 00    ................
    0x100608c0:   00 00 00 00 00 00 00 00 00 00 00 00 00 00 00 00    ................
    0x100608d0:   00 00 00 00 00 00 00 00 00 00 00 00 00 00 00 00    ................
    0x100608e0:   00 00 00 00 00 00 00 00 00 00 00 00 00 00 00 00    ................
    0x100608f0:   00 00 00 00 00 00 00 00 00 00 00 00 00 00 00 00    ................
    0x10060900:   00 00 00 00 00 00 00 00 00 00 00 00 00 00 00 00    ................
    0x10060910:   00 00 00 00 00 00 00 00 00 00 00 00 00 00 00 00    ................
    0x10060920:   00 00 00 00 00 00 00 00 00 00 00 00 00 00 00 00    ................
    0x10060930:   00 00 00 00 00 00 00 00 00 00 00 00 00 00 00 00    ................
    0x10060940:   00 00 00 00 00 00 00 00 00 00 00 00 00 00 00 00    ................
    0x10060950:   00 00 00 00 00 00 00 00 00 00 00 00 00 00 00 00    ................
    0x10060960:   00 00 00 00 00 00 00 00 00 00 00 00 00 00 00 00    ................
    0x10060970:   00 00 00 00 00 00 00 00 00 00 00 00 00 00 00 00    ................
    0x10060980:   00 00 00 00 00 00 00 00 00 00 00 00 00 00 00 00    ................
    0x10060990:   00 00 00 00 00 00 00 00 00 00 00 00 00 00 00 00    ................
    0x100609a0:   00 00 00 00 00 00 00 00 00 00 00 00 00 00 00 00    ................
    0x100609b0:   00 00 00 00 00 00 00 00 00 00 00 00 00 00 00 00    ................
    0x100609c0:   00 00 00 00 00 00 00 00 00 00 00 00 00 00 00 00    ................
    0x100609d0:   00 00 00 00 00 00 00 00 00 00 00 00 00 00 00 00    ................
    0x100609e0:   00 00 00 00 00 00 00 00 00 00 00 00 00 00 00 00    ................
    0x100609f0:   00 00 00 00 00 00 00 00 00 00 00 00 00 00 00 00    ................
    0x10060a00:   00 00 00 00 00 00 00 00 00 00 00 00 00 00 00 00    ................
    0x10060a10:   00 00 00 00 00 00 00 00 00 00 00 00 00 00 00 00    ................
    0x10060a20:   00 00 00 00 00 00 00 00 00 00 00 00 00 00 00 00    ................
    0x10060a30:   00 00 00 00 00 00 00 00 00 00 00 00 00 00 00 00    ................
    0x10060a40:   00 00 00 00 00 00 00 00 00 00 00 00 00 00 00 00    ................
    0x10060a50:   00 00 00 00 00 00 00 00 00 00 00 00 00 00 00 00    ................
    0x10060a60:   00 00 00 00 00 00 00 00 00 00 00 00 00 00 00 00    ................
    0x10060a70:   00 00 00 00 00 00 00 00 00 00 00 00 00 00 00 00    ................
    0x10060a80:   00 00 00 00 00 00 00 00 00 00 00 00 00 00 00 00    ................
    0x10060a90:   00 00 00 00 00 00 00 00 00 00 00 00 00 00 00 00    ................
    0x10060aa0:   00 00 00 00 00 00 00 00 00 00 00 00 00 00 00 00    ................
    0x10060ab0:   00 00 00 00 00 00 00 00 00 00 00 00 00 00 00 00    ................
    0x10060ac0:   00 00 00 00 00 00 00 00 00 00 00 00 00 00 00 00    ................
    0x10060ad0:   00 00 00 00 00 00 00 00 00 00 00 00 00 00 00 00    ................
    0x10060ae0:   00 00 00 00 00 00 00 00 00 00 00 00 00 00 00 00    ................
    0x10060af0:   00 00 00 00 00 00 00 00 00 00 00 00 00 00 00 00    ................
    0x10060b00:   00 00 00 00 00 00 00 00 00 00 00 00 00 00 00 00    ................
    0x10060b10:   00 00 00 00 00 00 00 00 00 00 00 00 00 00 00 00    ................
    0x10060b20:   00 00 00 00 00 00 00 00 00 00 00 00 00 00 00 00    ................
    0x10060b30:   00 00 00 00 00 00 00 00 00 00 00 00 00 00 00 00    ................
    0x10060b40:   00 00 00 00 00 00 00 00 00 00 00 00 00 00 00 00    ................
    0x10060b50:   00 00 00 00 00 00 00 00 00 00 00 00 00 00 00 00    ................
    0x10060b60:   00 00 00 00 00 00 00 00 00 00 00 00 00 00 00 00    ................
    0x10060b70:   00 00 00 00 00 00 00 00 00 00 00 00 00 00 00 00    ................
    0x10060b80:   00 00 00 00 00 00 00 00 00 00 00 00 00 00 00 00    ................
    0x10060b90:   00 00 00 00 00 00 00 00 00 00 00 00 00 00 00 00    ................
    0x10060ba0:   00 00 00 00 00 00 00 00 00 00 00 00 00 00 00 00    ................
    0x10060bb0:   00 00 00 00 00 00 00 00 00 00 00 00 00 00 00 00    ................
    0x10060bc0:   00 00 00 00 00 00 00 00 00 00 00 00 00 00 00 00    ................
    0x10060bd0:   00 00 00 00 00 00 00 00 00 00 00 00 00 00 00 00    ................
    0x10060be0:   00 00 00 00 00 00 00 00 00 00 00 00 00 00 00 00    ................
    0x10060bf0:   00 00 00 00 00 00 00 00 00 00 00 00 00 00 00 00    ................
    0x10060c00:   00 00 00 00 00 00 00 00 00 00 00 00 00 00 00 00    ................
    0x10060c10:   00 00 00 00 00 00 00 00 00 00 00 00 00 00 00 00    ................
    0x10060c20:   00 00 00 00 00 00 00 00 00 00 00 00 00 00 00 00    ................
    0x10060c30:   00 00 00 00 00 00 00 00 00 00 00 00 00 00 00 00    ................
    0x10060c40:   00 00 00 00 00 00 00 00 00 00 00 00 00 00 00 00    ................
    0x10060c50:   00 00 00 00 00 00 00 00 00 00 00 00 00 00 00 00    ................
    0x10060c60:   00 00 00 00 00 00 00 00 00 00 00 00 00 00 00 00    ................
    0x10060c70:   00 00 00 00 00 00 00 00 00 00 00 00 00 00 00 00    ................
    0x10060c80:   00 00 00 00 00 00 00 00 00 00 00 00 00 00 00 00    ................
    0x10060c90:   00 00 00 00 00 00 00 00 00 00 00 00 00 00 00 00    ................
    0x10060ca0:   00 00 00 00 00 00 00 00 00 00 00 00 00 00 00 00    ................
    0x10060cb0:   00 00 00 00 00 00 00 00 00 00 00 00 00 00 00 00    ................
    0x10060cc0:   00 00 00 00 00 00 00 00 00 00 00 00 00 00 00 00    ................
    0x10060cd0:   00 00 00 00 00 00 00 00 00 00 00 00 00 00 00 00    ................
    0x10060ce0:   00 00 00 00 00 00 00 00 00 00 00 00 00 00 00 00    ................
    0x10060cf0:   00 00 00 00 00 00 00 00 00 00 00 00 00 00 00 00    ................
    0x10060d00:   00 00 00 00 00 00 00 00 00 00 00 00 00 00 00 00    ................
    0x10060d10:   00 00 00 00 00 00 00 00 00 00 00 00 00 00 00 00    ................
    0x10060d20:   00 00 00 00 00 00 00 00 00 00 00 00 00 00 00 00    ................
    0x10060d30:   00 00 00 00 00 00 00 00 00 00 00 00 00 00 00 00    ................
    0x10060d40:   00 00 00 00 00 00 00 00 00 00 00 00 00 00 00 00    ................
    0x10060d50:   00 00 00 00 00 00 00 00 00 00 00 00 00 00 00 00    ................
    0x10060d60:   00 00 00 00 00 00 00 00 00 00 00 00 00 00 00 00    ................
    0x10060d70:   00 00 00 00 00 00 00 00 00 00 00 00 00 00 00 00    ................
    0x10060d80:   00 00 00 00 00 00 00 00 00 00 00 00 00 00 00 00    ................
    0x10060d90:   00 00 00 00 00 00 00 00 00 00 00 00 00 00 00 00    ................
    0x10060da0:   00 00 00 00 00 00 00 00 00 00 00 00 00 00 00 00    ................
    0x10060db0:   00 00 00 00 00 00 00 00 00 00 00 00 00 00 00 00    ................
    0x10060dc0:   00 00 00 00 00 00 00 00 00 00 00 00 00 00 00 00    ................
    0x10060dd0:   00 00 00 00 00 00 00 00 00 00 00 00 00 00 00 00    ................
    0x10060de0:   00 00 00 00 00 00 00 00 00 00 00 00 00 00 00 00    ................
    0x10060df0:   00 00 00 00 00 00 00 00 00 00 00 00 00 00 00 00    ................
    0x10060e00:   00 00 00 00 00 00 00 00 00 00 00 00 00 00 00 00    ................
    0x10060e10:   00 00 00 00 00 00 00 00 00 00 00 00 00 00 00 00    ................
    0x10060e20:   00 00 00 00 00 00 00 00 00 00 00 00 00 00 00 00    ................
    0x10060e30:   00 00 00 00 00 00 00 00 00 00 00 00 00 00 00 00    ................
    0x10060e40:   00 00 00 00 00 00 00 00 00 00 00 00 00 00 00 00    ................
    0x10060e50:   00 00 00 00 00 00 00 00 00 00 00 00 00 00 00 00    ................
    0x10060e60:   00 00 00 00 00 00 00 00 00 00 00 00 00 00 00 00    ................
    0x10060e70:   00 00 00 00 00 00 00 00 00 00 00 00 00 00 00 00    ................
    0x10060e80:   00 00 00 00 00 00 00 00 00 00 00 00 00 00 00 00    ................
    0x10060e90:   00 00 00 00 00 00 00 00 00 00 00 00 00 00 00 00    ................
    0x10060ea0:   00 00 00 00 00 00 00 00 00 00 00 00 00 00 00 00    ................
    0x10060eb0:   00 00 00 00 00 00 00 00 00 00 00 00 00 00 00 00    ................
    0x10060ec0:   00 00 00 00 00 00 00 00 00 00 00 00 00 00 00 00    ................
    0x10060ed0:   00 00 00 00 00 00 00 00 00 00 00 00 00 00 00 00    ................
    0x10060ee0:   00 00 00 00 00 00 00 00 00 00 00 00 00 00 00 00    ................
    0x10060ef0:   00 00 00 00 00 00 00 00 00 00 00 00 00 00 00 00    ................
    0x10060f00:   00 00 00 00 00 00 00 00 00 00 00 00 00 00 00 00    ................
    0x10060f10:   00 00 00 00 00 00 00 00 00 00 00 00 00 00 00 00    ................
    0x10060f20:   00 00 00 00 00 00 00 00 00 00 00 00 00 00 00 00    ................
    0x10060f30:   00 00 00 00 00 00 00 00 00 00 00 00 00 00 00 00    ................
    0x10060f40:   00 00 00 00 00 00 00 00 00 00 00 00 00 00 00 00    ................
    0x10060f50:   00 00 00 00 00 00 00 00 00 00 00 00 00 00 00 00    ................
    0x10060f60:   00 00 00 00 00 00 00 00 00 00 00 00 00 00 00 00    ................
    0x10060f70:   00 00 00 00 00 00 00 00 00 00 00 00 00 00 00 00    ................
    0x10060f80:   00 00 00 00 00 00 00 00 00 00 00 00 00 00 00 00    ................
    0x10060f90:   00 00 00 00 00 00 00 00 00 00 00 00 00 00 00 00    ................
    0x10060fa0:   00 00 00 00 00 00 00 00 00 00 00 00 00 00 00 00    ................
    0x10060fb0:   00 00 00 00 00 00 00 00 00 00 00 00 00 00 00 00    ................
    0x10060fc0:   00 00 00 00 00 00 00 00 00 00 00 00 00 00 00 00    ................
    0x10060fd0:   00 00 00 00 00 00 00 00 00 00 00 00 00 00 00 00    ................
    0x10060fe0:   00 00 00 00 00 00 00 00 00 00 00 00 00 00 00 00    ................
    0x10060ff0:   00 00 00 00 00 00 00 00 00 00 00 00 00 00 00 00    ................
    0x10061000:   00 00 00 00 00 00 00 00 00 00 00 00 00 00 00 00    ................
    0x10061010:   00 00 00 00 00 00 00 00 00 00 00 00 00 00 00 00    ................
    0x10061020:   00 00 00 00 00 00 00 00 00 00 00 00 00 00 00 00    ................
    0x10061030:   00 00 00 00 00 00 00 00 00 00 00 00 00 00 00 00    ................
    0x10061040:   00 00 00 00 00 00 00 00 00 00 00 00 00 00 00 00    ................
    0x10061050:   00 00 00 00 00 00 00 00 00 00 00 00 00 00 00 00    ................
    0x10061060:   00 00 00 00 00 00 00 00 00 00 00 00 00 00 00 00    ................
    0x10061070:   00 00 00 00 00 00 00 00 00 00 00 00 00 00 00 00    ................
    0x10061080:   00 00 00 00 00 00 00 00 00 00 00 00 00 00 00 00    ................
    0x10061090:   00 00 00 00 00 00 00 00 00 00 00 00 00 00 00 00    ................
    0x100610a0:   00 00 00 00 00 00 00 00 00 00 00 00 00 00 00 00    ................
    0x100610b0:   00 00 00 00 00 00 00 00 00 00 00 00 00 00 00 00    ................
    0x100610c0:   00 00 00 00 00 00 00 00 00 00 00 00 00 00 00 00    ................
    0x100610d0:   00 00 00 00 00 00 00 00 00 00 00 00 00 00 00 00    ................
    0x100610e0:   00 00 00 00 00 00 00 00 00 00 00 00 00 00 00 00    ................
    0x100610f0:   00 00 00 00 00 00 00 00 00 00 00 00 00 00 00 00    ................
    0x10061100:   00 00 00 00 00 00 00 00 00 00 00 00 00 00 00 00    ................
    0x10061110:   00 00 00 00 00 00 00 00 00 00 00 00 00 00 00 00    ................
    0x10061120:   00 00 00 00 00 00 00 00 00 00 00 00 00 00 00 00    ................
    0x10061130:   00 00 00 00 00 00 00 00 00 00 00 00 00 00 00 00    ................
    0x10061140:   00 00 00 00 00 00 00 00 00 00 00 00 00 00 00 00    ................
    0x10061150:   00 00 00 00 00 00 00 00 00 00 00 00 00 00 00 00    ................
    0x10061160:   00 00 00 00 00 00 00 00 00 00 00 00 00 00 00 00    ................
    0x10061170:   00 00 00 00 00 00 00 00 00 00 00 00 00 00 00 00    ................
    0x10061180:   00 00 00 00 00 00 00 00 00 00 00 00 00 00 00 00    ................
    0x10061190:   00 00 00 00 00 00 00 00 00 00 00 00 00 00 00 00    ................
    0x100611a0:   00 00 00 00 00 00 00 00 00 00 00 00 00 00 00 00    ................
    0x100611b0:   00 00 00 00 00 00 00 00 00 00 00 00 00 00 00 00    ................
    0x100611c0:   00 00 00 00 00 00 00 00 00 00 00 00 00 00 00 00    ................
    0x100611d0:   00 00 00 00 00 00 00 00 00 00 00 00 00 00 00 00    ................
    0x100611e0:   00 00 00 00 00 00 00 00 00 00 00 00 00 00 00 00    ................
    0x100611f0:   00 00 00 00 00 00 00 00 00 00 00 00 00 00 00 00    ................
    0x10061200:   00 00 00 00 00 00 00 00 00 00 00 00 00 00 00 00    ................
    0x10061210:   00 00 00 00 00 00 00 00 00 00 00 00 00 00 00 00    ................
    0x10061220:   00 00 00 00 00 00 00 00 00 00 00 00 00 00 00 00    ................
    0x10061230:   00 00 00 00 00 00 00 00 00 00 00 00 00 00 00 00    ................
    0x10061240:   00 00 00 00 00 00 00 00 00 00 00 00 00 00 00 00    ................
    0x10061250:   00 00 00 00 00 00 00 00 00 00 00 00 00 00 00 00    ................
    0x10061260:   00 00 00 00 00 00 00 00 00 00 00 00 00 00 00 00    ................
    0x10061270:   00 00 00 00 00 00 00 00 00 00 00 00 00 00 00 00    ................
    0x10061280:   00 00 00 00 00 00 00 00 00 00 00 00 00 00 00 00    ................
    0x10061290:   00 00 00 00 00 00 00 00 00 00 00 00 00 00 00 00    ................
    0x100612a0:   00 00 00 00 00 00 00 00 00 00 00 00 00 00 00 00    ................
    0x100612b0:   00 00 00 00 00 00 00 00 00 00 00 00 00 00 00 00    ................
    0x100612c0:   00 00 00 00 00 00 00 00 00 00 00 00 00 00 00 00    ................
    0x100612d0:   00 00 00 00 00 00 00 00 00 00 00 00 00 00 00 00    ................
    0x100612e0:   00 00 00 00 00 00 00 00 00 00 00 00 00 00 00 00    ................
    0x100612f0:   00 00 00 00 00 00 00 00 00 00 00 00 00 00 00 00    ................
    0x10061300:   00 00 00 00 00 00 00 00 00 00 00 00 00 00 00 00    ................
    0x10061310:   00 00 00 00 00 00 00 00 00 00 00 00 00 00 00 00    ................
    0x10061320:   00 00 00 00 00 00 00 00 00 00 00 00 00 00 00 00    ................
    0x10061330:   00 00 00 00 00 00 00 00 00 00 00 00 00 00 00 00    ................
    0x10061340:   00 00 00 00 00 00 00 00 00 00 00 00 00 00 00 00    ................
    0x10061350:   00 00 00 00 00 00 00 00 00 00 00 00 00 00 00 00    ................
    0x10061360:   00 00 00 00 00 00 00 00 00 00 00 00 00 00 00 00    ................
    0x10061370:   00 00 00 00 00 00 00 00 00 00 00 00 00 00 00 00    ................
    0x10061380:   00 00 00 00 00 00 00 00 00 00 00 00 00 00 00 00    ................
    0x10061390:   00 00 00 00 00 00 00 00 00 00 00 00 00 00 00 00    ................
    0x100613a0:   00 00 00 00 00 00 00 00 00 00 00 00 00 00 00 00    ................
    0x100613b0:   00 00 00 00 00 00 00 00 00 00 00 00 00 00 00 00    ................
    0x100613c0:   00 00 00 00 00 00 00 00 00 00 00 00 00 00 00 00    ................
    0x100613d0:   00 00 00 00 00 00 00 00 00 00 00 00 00 00 00 00    ................
    0x100613e0:   00 00 00 00 00 00 00 00 00 00 00 00 00 00 00 00    ................
    0x100613f0:   00 00 00 00 00 00 00 00 00 00 00 00 00 00 00 00    ................
    0x10061400:   00 00 00 00 00 00 00 00 00 00 00 00 00 00 00 00    ................
    0x10061410:   00 00 00 00 00 00 00 00 00 00 00 00 00 00 00 00    ................
    0x10061420:   00 00 00 00 00 00 00 00 00 00 00 00 00 00 00 00    ................
    0x10061430:   00 00 00 00 00 00 00 00 00 00 00 00 00 00 00 00    ................
    0x10061440:   00 00 00 00 00 00 00 00 00 00 00 00 00 00 00 00    ................
    0x10061450:   00 00 00 00 00 00 00 00 00 00 00 00 00 00 00 00    ................
    0x10061460:   00 00 00 00 00 00 00 00 00 00 00 00 00 00 00 00    ................
    0x10061470:   00 00 00 00 00 00 00 00 00 00 00 00 00 00 00 00    ................
    0x10061480:   00 00 00 00 00 00 00 00 00 00 00 00 00 00 00 00    ................
    0x10061490:   00 00 00 00 00 00 00 00 00 00 00 00 00 00 00 00    ................
    0x100614a0:   00 00 00 00 00 00 00 00 00 00 00 00 00 00 00 00    ................
    0x100614b0:   00 00 00 00 00 00 00 00 00 00 00 00 00 00 00 00    ................
    0x100614c0:   00 00 00 00 00 00 00 00 00 00 00 00 00 00 00 00    ................
    0x100614d0:   00 00 00 00 00 00 00 00 00 00 00 00 00 00 00 00    ................
    0x100614e0:   00 00 00 00 00 00 00 00 00 00 00 00 00 00 00 00    ................
    0x100614f0:   00 00 00 00 00 00 00 00 00 00 00 00 00 00 00 00    ................
    0x10061500:   00 00 00 00 00 00 00 00 00 00 00 00 00 00 00 00    ................
    0x10061510:   00 00 00 00 00 00 00 00 00 00 00 00 00 00 00 00    ................
    0x10061520:   00 00 00 00 00 00 00 00 00 00 00 00 00 00 00 00    ................
    0x10061530:   00 00 00 00 00 00 00 00 00 00 00 00 00 00 00 00    ................
    0x10061540:   00 00 00 00 00 00 00 00 00 00 00 00 00 00 00 00    ................
    0x10061550:   00 00 00 00 00 00 00 00 00 00 00 00 00 00 00 00    ................
    0x10061560:   00 00 00 00 00 00 00 00 00 00 00 00 00 00 00 00    ................
    0x10061570:   00 00 00 00 00 00 00 00 00 00 00 00 00 00 00 00    ................
    0x10061580:   00 00 00 00 00 00 00 00 00 00 00 00 00 00 00 00    ................
    0x10061590:   00 00 00 00 00 00 00 00 00 00 00 00 00 00 00 00    ................
    0x100615a0:   00 00 00 00 00 00 00 00 00 00 00 00 00 00 00 00    ................
    0x100615b0:   00 00 00 00 00 00 00 00 00 00 00 00 00 00 00 00    ................
    0x100615c0:   00 00 00 00 00 00 00 00 00 00 00 00 00 00 00 00    ................
    0x100615d0:   00 00 00 00 00 00 00 00 00 00 00 00 00 00 00 00    ................
    0x100615e0:   00 00 00 00 00 00 00 00 00 00 00 00 00 00 00 00    ................
    0x100615f0:   00 00 00 00 00 00 00 00 00 00 00 00 00 00 00 00    ................
    0x10061600:   00 00 00 00 00 00 00 00 00 00 00 00 00 00 00 00    ................
    0x10061610:   00 00 00 00 00 00 00 00 00 00 00 00 00 00 00 00    ................
    0x10061620:   00 00 00 00 00 00 00 00 00 00 00 00 00 00 00 00    ................
    0x10061630:   00 00 00 00 00 00 00 00 00 00 00 00 00 00 00 00    ................
    0x10061640:   00 00 00 00 00 00 00 00 00 00 00 00 00 00 00 00    ................
    0x10061650:   00 00 00 00 00 00 00 00 00 00 00 00 00 00 00 00    ................
    0x10061660:   00 00 00 00 00 00 00 00 00 00 00 00 00 00 00 00    ................
    0x10061670:   00 00 00 00 00 00 00 00 00 00 00 00 00 00 00 00    ................
    0x10061680:   00 00 00 00 00 00 00 00 00 00 00 00 00 00 00 00    ................
    0x10061690:   00 00 00 00 00 00 00 00 00 00 00 00 00 00 00 00    ................
    0x100616a0:   00 00 00 00 00 00 00 00 00 00 00 00 00 00 00 00    ................
    0x100616b0:   00 00 00 00 00 00 00 00 00 00 00 00 00 00 00 00    ................
    0x100616c0:   00 00 00 00 00 00 00 00 00 00 00 00 00 00 00 00    ................
    0x100616d0:   00 00 00 00 00 00 00 00 00 00 00 00 00 00 00 00    ................
    0x100616e0:   00 00 00 00 00 00 00 00 00 00 00 00 00 00 00 00    ................
    0x100616f0:   00 00 00 00 00 00 00 00 00 00 00 00 00 00 00 00    ................
    0x10061700:   00 00 00 00 00 00 00 00 00 00 00 00 00 00 00 00    ................
    0x10061710:   00 00 00 00 00 00 00 00 00 00 00 00 00 00 00 00    ................
    0x10061720:   00 00 00 00 00 00 00 00 00 00 00 00 00 00 00 00    ................
    0x10061730:   00 00 00 00 00 00 00 00 00 00 00 00 00 00 00 00    ................
    0x10061740:   00 00 00 00 00 00 00 00 00 00 00 00 00 00 00 00    ................
    0x10061750:   00 00 00 00 00 00 00 00 00 00 00 00 00 00 00 00    ................
    0x10061760:   00 00 00 00 00 00 00 00 00 00 00 00 00 00 00 00    ................
    0x10061770:   00 00 00 00 00 00 00 00 00 00 00 00 00 00 00 00    ................
    0x10061780:   00 00 00 00 00 00 00 00 00 00 00 00 00 00 00 00    ................
    0x10061790:   00 00 00 00 00 00 00 00 00 00 00 00 00 00 00 00    ................
    0x100617a0:   00 00 00 00 00 00 00 00 00 00 00 00 00 00 00 00    ................
    0x100617b0:   00 00 00 00 00 00 00 00 00 00 00 00 00 00 00 00    ................
    0x100617c0:   00 00 00 00 00 00 00 00 00 00 00 00 00 00 00 00    ................
    0x100617d0:   00 00 00 00 00 00 00 00 00 00 00 00 00 00 00 00    ................
    0x100617e0:   00 00 00 00 00 00 00 00 00 00 00 00 00 00 00 00    ................
    0x100617f0:   00 00 00 00 00 00 00 00 00 00 00 00 00 00 00 00    ................
    0x10061800:   00 00 00 00 00 00 00 00 00 00 00 00 00 00 00 00    ................
    0x10061810:   00 00 00 00 00 00 00 00 00 00 00 00 00 00 00 00    ................
    0x10061820:   00 00 00 00 00 00 00 00 00 00 00 00 00 00 00 00    ................
    0x10061830:   00 00 00 00 00 00 00 00 00 00 00 00 00 00 00 00    ................
    0x10061840:   00 00 00 00 00 00 00 00 00 00 00 00 00 00 00 00    ................
    0x10061850:   00 00 00 00 00 00 00 00 00 00 00 00 00 00 00 00    ................
    0x10061860:   00 00 00 00 00 00 00 00 00 00 00 00 00 00 00 00    ................
    0x10061870:   00 00 00 00 00 00 00 00 00 00 00 00 00 00 00 00    ................
    0x10061880:   00 00 00 00 00 00 00 00 00 00 00 00 00 00 00 00    ................
    0x10061890:   00 00 00 00 00 00 00 00 00 00 00 00 00 00 00 00    ................
    0x100618a0:   00 00 00 00 00 00 00 00 00 00 00 00 00 00 00 00    ................
    0x100618b0:   00 00 00 00 00 00 00 00 00 00 00 00 00 00 00 00    ................
    0x100618c0:   00 00 00 00 00 00 00 00 00 00 00 00 00 00 00 00    ................
    0x100618d0:   00 00 00 00 00 00 00 00 00 00 00 00 00 00 00 00    ................
    0x100618e0:   00 00 00 00 00 00 00 00 00 00 00 00 00 00 00 00    ................
    0x100618f0:   00 00 00 00 00 00 00 00 00 00 00 00 00 00 00 00    ................
    0x10061900:   00 00 00 00 00 00 00 00 00 00 00 00 00 00 00 00    ................
    0x10061910:   00 00 00 00 00 00 00 00 00 00 00 00 00 00 00 00    ................
    0x10061920:   00 00 00 00 00 00 00 00 00 00 00 00 00 00 00 00    ................
    0x10061930:   00 00 00 00 00 00 00 00 00 00 00 00 00 00 00 00    ................
    0x10061940:   00 00 00 00 00 00 00 00 00 00 00 00 00 00 00 00    ................
    0x10061950:   00 00 00 00 00 00 00 00 00 00 00 00 00 00 00 00    ................
    0x10061960:   00 00 00 00 00 00 00 00 00 00 00 00 00 00 00 00    ................
    0x10061970:   00 00 00 00 00 00 00 00 00 00 00 00 00 00 00 00    ................
    0x10061980:   00 00 00 00 00 00 00 00 00 00 00 00 00 00 00 00    ................
    0x10061990:   00 00 00 00 00 00 00 00 00 00 00 00 00 00 00 00    ................
    0x100619a0:   00 00 00 00 00 00 00 00 00 00 00 00 00 00 00 00    ................
    0x100619b0:   00 00 00 00 00 00 00 00 00 00 00 00 00 00 00 00    ................
    0x100619c0:   00 00 00 00 00 00 00 00 00 00 00 00 00 00 00 00    ................
    0x100619d0:   00 00 00 00 00 00 00 00 00 00 00 00 00 00 00 00    ................
    0x100619e0:   00 00 00 00 00 00 00 00 00 00 00 00 00 00 00 00    ................
    0x100619f0:   00 00 00 00 00 00 00 00 00 00 00 00 00 00 00 00    ................
    0x10061a00:   00 00 00 00 00 00 00 00 00 00 00 00 00 00 00 00    ................
    0x10061a10:   00 00 00 00 00 00 00 00 00 00 00 00 00 00 00 00    ................
    0x10061a20:   00 00 00 00 00 00 00 00 00 00 00 00 00 00 00 00    ................
    0x10061a30:   00 00 00 00 00 00 00 00 00 00 00 00 00 00 00 00    ................
    0x10061a40:   00 00 00 00 00 00 00 00 00 00 00 00 00 00 00 00    ................
    0x10061a50:   00 00 00 00 00 00 00 00 00 00 00 00 00 00 00 00    ................
    0x10061a60:   00 00 00 00 00 00 00 00 00 00 00 00 00 00 00 00    ................
    0x10061a70:   00 00 00 00 00 00 00 00 00 00 00 00 00 00 00 00    ................
    0x10061a80:   00 00 00 00 00 00 00 00 00 00 00 00 00 00 00 00    ................
    0x10061a90:   00 00 00 00 00 00 00 00 00 00 00 00 00 00 00 00    ................
    0x10061aa0:   00 00 00 00 00 00 00 00 00 00 00 00 00 00 00 00    ................
    0x10061ab0:   00 00 00 00 00 00 00 00 00 00 00 00 00 00 00 00    ................
    0x10061ac0:   00 00 00 00 00 00 00 00 00 00 00 00 00 00 00 00    ................
    0x10061ad0:   00 00 00 00 00 00 00 00 00 00 00 00 00 00 00 00    ................
    0x10061ae0:   00 00 00 00 00 00 00 00 00 00 00 00 00 00 00 00    ................
    0x10061af0:   00 00 00 00 00 00 00 00 00 00 00 00 00 00 00 00    ................
    0x10061b00:   00 00 00 00 00 00 00 00 00 00 00 00 00 00 00 00    ................
    0x10061b10:   00 00 00 00 00 00 00 00 00 00 00 00 00 00 00 00    ................
    0x10061b20:   00 00 00 00 00 00 00 00 00 00 00 00 00 00 00 00    ................
    0x10061b30:   00 00 00 00 00 00 00 00 00 00 00 00 00 00 00 00    ................
    0x10061b40:   00 00 00 00 00 00 00 00 00 00 00 00 00 00 00 00    ................
    0x10061b50:   00 00 00 00 00 00 00 00 00 00 00 00 00 00 00 00    ................
    0x10061b60:   00 00 00 00 00 00 00 00 00 00 00 00 00 00 00 00    ................
    0x10061b70:   00 00 00 00 00 00 00 00 00 00 00 00 00 00 00 00    ................
    0x10061b80:   00 00 00 00 00 00 00 00 00 00 00 00 00 00 00 00    ................
    0x10061b90:   00 00 00 00 00 00 00 00 00 00 00 00 00 00 00 00    ................
    0x10061ba0:   00 00 00 00 00 00 00 00 00 00 00 00 00 00 00 00    ................
    0x10061bb0:   00 00 00 00 00 00 00 00 00 00 00 00 00 00 00 00    ................
    0x10061bc0:   00 00 00 00 00 00 00 00 00 00 00 00 00 00 00 00    ................
    0x10061bd0:   00 00 00 00 00 00 00 00 00 00 00 00 00 00 00 00    ................
    0x10061be0:   00 00 00 00 00 00 00 00 00 00 00 00 00 00 00 00    ................
    0x10061bf0:   00 00 00 00 00 00 00 00 00 00 00 00 00 00 00 00    ................
    0x10061c00:   00 00 00 00 00 00 00 00 00 00 00 00 00 00 00 00    ................
    0x10061c10:   00 00 00 00 00 00 00 00 00 00 00 00 00 00 00 00    ................
    0x10061c20:   00 00 00 00 00 00 00 00 00 00 00 00 00 00 00 00    ................
    0x10061c30:   00 00 00 00 00 00 00 00 00 00 00 00 00 00 00 00    ................
    0x10061c40:   00 00 00 00 00 00 00 00 00 00 00 00 00 00 00 00    ................
    0x10061c50:   00 00 00 00 00 00 00 00 00 00 00 00 00 00 00 00    ................
    0x10061c60:   00 00 00 00 00 00 00 00 00 00 00 00 00 00 00 00    ................
    0x10061c70:   00 00 00 00 00 00 00 00 00 00 00 00 00 00 00 00    ................
    0x10061c80:   00 00 00 00 00 00 00 00 00 00 00 00 00 00 00 00    ................
    0x10061c90:   00 00 00 00 00 00 00 00 00 00 00 00 00 00 00 00    ................
    0x10061ca0:   00 00 00 00 00 00 00 00 00 00 00 00 00 00 00 00    ................
    0x10061cb0:   00 00 00 00 00 00 00 00 00 00 00 00 00 00 00 00    ................
    0x10061cc0:   00 00 00 00 00 00 00 00 00 00 00 00 00 00 00 00    ................
    0x10061cd0:   00 00 00 00 00 00 00 00 00 00 00 00 00 00 00 00    ................
    0x10061ce0:   00 00 00 00 00 00 00 00 00 00 00 00 00 00 00 00    ................
    0x10061cf0:   00 00 00 00 00 00 00 00 00 00 00 00 00 00 00 00    ................
    0x10061d00:   00 00 00 00 00 00 00 00 00 00 00 00 00 00 00 00    ................
    0x10061d10:   00 00 00 00 00 00 00 00 00 00 00 00 00 00 00 00    ................
    0x10061d20:   00 00 00 00 00 00 00 00 00 00 00 00 00 00 00 00    ................
    0x10061d30:   00 00 00 00 00 00 00 00 00 00 00 00 00 00 00 00    ................
    0x10061d40:   00 00 00 00 00 00 00 00 00 00 00 00 00 00 00 00    ................
    0x10061d50:   00 00 00 00 00 00 00 00 00 00 00 00 00 00 00 00    ................
    0x10061d60:   00 00 00 00 00 00 00 00 00 00 00 00 00 00 00 00    ................
    0x10061d70:   00 00 00 00 00 00 00 00 00 00 00 00 00 00 00 00    ................
    0x10061d80:   00 00 00 00 00 00 00 00 00 00 00 00 00 00 00 00    ................
    0x10061d90:   00 00 00 00 00 00 00 00 00 00 00 00 00 00 00 00    ................
    0x10061da0:   00 00 00 00 00 00 00 00 00 00 00 00 00 00 00 00    ................
    0x10061db0:   00 00 00 00 00 00 00 00 00 00 00 00 00 00 00 00    ................
    0x10061dc0:   00 00 00 00 00 00 00 00 00 00 00 00 00 00 00 00    ................
    0x10061dd0:   00 00 00 00 00 00 00 00 00 00 00 00 00 00 00 00    ................
    0x10061de0:   00 00 00 00 00 00 00 00 00 00 00 00 00 00 00 00    ................
    0x10061df0:   00 00 00 00 00 00 00 00 00 00 00 00 00 00 00 00    ................
    0x10061e00:   00 00 00 00 00 00 00 00 00 00 00 00 00 00 00 00    ................
    0x10061e10:   00 00 00 00 00 00 00 00 00 00 00 00 00 00 00 00    ................
    0x10061e20:   00 00 00 00 00 00 00 00 00 00 00 00 00 00 00 00    ................
    0x10061e30:   00 00 00 00 00 00 00 00 00 00 00 00 00 00 00 00    ................
    0x10061e40:   00 00 00 00 00 00 00 00 00 00 00 00 00 00 00 00    ................
    0x10061e50:   00 00 00 00 00 00 00 00 00 00 00 00 00 00 00 00    ................
    0x10061e60:   00 00 00 00 00 00 00 00 00 00 00 00 00 00 00 00    ................
    0x10061e70:   00 00 00 00 00 00 00 00 00 00 00 00 00 00 00 00    ................
    0x10061e80:   00 00 00 00 00 00 00 00 00 00 00 00 00 00 00 00    ................
    0x10061e90:   00 00 00 00 00 00 00 00 00 00 00 00 00 00 00 00    ................
    0x10061ea0:   00 00 00 00 00 00 00 00 00 00 00 00 00 00 00 00    ................
    0x10061eb0:   00 00 00 00 00 00 00 00 00 00 00 00 00 00 00 00    ................
    0x10061ec0:   00 00 00 00 00 00 00 00 00 00 00 00 00 00 00 00    ................
    0x10061ed0:   00 00 00 00 00 00 00 00 00 00 00 00 00 00 00 00    ................
    0x10061ee0:   00 00 00 00 00 00 00 00 00 00 00 00 00 00 00 00    ................
    0x10061ef0:   00 00 00 00 00 00 00 00 00 00 00 00 00 00 00 00    ................
    0x10061f00:   00 00 00 00 00 00 00 00 00 00 00 00 00 00 00 00    ................
    0x10061f10:   00 00 00 00 00 00 00 00 00 00 00 00 00 00 00 00    ................
    0x10061f20:   00 00 00 00 00 00 00 00 00 00 00 00 00 00 00 00    ................
    0x10061f30:   00 00 00 00 00 00 00 00 00 00 00 00 00 00 00 00    ................
    0x10061f40:   00 00 00 00 00 00 00 00 00 00 00 00 00 00 00 00    ................
    0x10061f50:   00 00 00 00 00 00 00 00 00 00 00 00 00 00 00 00    ................
    0x10061f60:   00 00 00 00 00 00 00 00 00 00 00 00 00 00 00 00    ................
    0x10061f70:   00 00 00 00 00 00 00 00 00 00 00 00 00 00 00 00    ................
    0x10061f80:   00 00 00 00 00 00 00 00 00 00 00 00 00 00 00 00    ................
    0x10061f90:   00 00 00 00 00 00 00 00 00 00 00 00 00 00 00 00    ................
    0x10061fa0:   00 00 00 00 00 00 00 00 00 00 00 00 00 00 00 00    ................
    0x10061fb0:   00 00 00 00 00 00 00 00 00 00 00 00 00 00 00 00    ................
    0x10061fc0:   00 00 00 00 00 00 00 00 00 00 00 00 00 00 00 00    ................
    0x10061fd0:   00 00 00 00 00 00 00 00 00 00 00 00 00 00 00 00    ................
    0x10061fe0:   00 00 00 00 00 00 00 00 00 00 00 00 00 00 00 00    ................
    0x10061ff0:   00 00 00 00 00 00 00 00 00 00 00 00 00 00 00 00    ................
    0x10062000:   00 00 00 00 00 00 00 00 00 00 00 00 00 00 00 00    ................
    0x10062010:   00 00 00 00 00 00 00 00 00 00 00 00 00 00 00 00    ................
    0x10062020:   00 00 00 00 00 00 00 00 00 00 00 00 00 00 00 00    ................
    0x10062030:   00 00 00 00 00 00 00 00 00 00 00 00 00 00 00 00    ................
    0x10062040:   00 00 00 00 00 00 00 00 00 00 00 00 00 00 00 00    ................
    0x10062050:   00 00 00 00 00 00 00 00 00 00 00 00 00 00 00 00    ................
    0x10062060:   00 00 00 00 00 00 00 00 00 00 00 00 00 00 00 00    ................
    0x10062070:   00 00 00 00 00 00 00 00 00 00 00 00 00 00 00 00    ................
    0x10062080:   00 00 00 00 00 00 00 00 00 00 00 00 00 00 00 00    ................
    0x10062090:   00 00 00 00 00 00 00 00 00 00 00 00 00 00 00 00    ................
    0x100620a0:   00 00 00 00 00 00 00 00 00 00 00 00 00 00 00 00    ................
    0x100620b0:   00 00 00 00 00 00 00 00 00 00 00 00 00 00 00 00    ................
    0x100620c0:   00 00 00 00 00 00 00 00 00 00 00 00 00 00 00 00    ................
    0x100620d0:   00 00 00 00 00 00 00 00 00 00 00 00 00 00 00 00    ................
    0x100620e0:   00 00 00 00 00 00 00 00 00 00 00 00 00 00 00 00    ................
    0x100620f0:   00 00 00 00 00 00 00 00 00 00 00 00 00 00 00 00    ................
    0x10062100:   00 00 00 00 00 00 00 00 00 00 00 00 00 00 00 00    ................
    0x10062110:   00 00 00 00 00 00 00 00 00 00 00 00 00 00 00 00    ................
    0x10062120:   00 00 00 00 00 00 00 00 00 00 00 00 00 00 00 00    ................
    0x10062130:   00 00 00 00 00 00 00 00 00 00 00 00 00 00 00 00    ................
    0x10062140:   00 00 00 00 00 00 00 00 00 00 00 00 00 00 00 00    ................
    0x10062150:   00 00 00 00 00 00 00 00 00 00 00 00 00 00 00 00    ................
    0x10062160:   00 00 00 00 00 00 00 00 00 00 00 00 00 00 00 00    ................
    0x10062170:   00 00 00 00 00 00 00 00 00 00 00 00 00 00 00 00    ................
    0x10062180:   00 00 00 00 00 00 00 00 00 00 00 00 00 00 00 00    ................
    0x10062190:   00 00 00 00 00 00 00 00 00 00 00 00 00 00 00 00    ................
    0x100621a0:   00 00 00 00 00 00 00 00 00 00 00 00 00 00 00 00    ................
    0x100621b0:   00 00 00 00 00 00 00 00 00 00 00 00 00 00 00 00    ................
    0x100621c0:   00 00 00 00 00 00 00 00 00 00 00 00 00 00 00 00    ................
    0x100621d0:   00 00 00 00 00 00 00 00 00 00 00 00 00 00 00 00    ................
    0x100621e0:   00 00 00 00 00 00 00 00 00 00 00 00 00 00 00 00    ................
    0x100621f0:   00 00 00 00 00 00 00 00 00 00 00 00 00 00 00 00    ................
    0x10062200:   00 00 00 00 00 00 00 00 00 00 00 00 00 00 00 00    ................
    0x10062210:   00 00 00 00 00 00 00 00 00 00 00 00 00 00 00 00    ................
    0x10062220:   00 00 00 00 00 00 00 00 00 00 00 00 00 00 00 00    ................
    0x10062230:   00 00 00 00 00 00 00 00 00 00 00 00 00 00 00 00    ................
    0x10062240:   00 00 00 00 00 00 00 00 00 00 00 00 00 00 00 00    ................
    0x10062250:   00 00 00 00 00 00 00 00 00 00 00 00 00 00 00 00    ................
    0x10062260:   00 00 00 00 00 00 00 00 00 00 00 00 00 00 00 00    ................
    0x10062270:   00 00 00 00 00 00 00 00 00 00 00 00 00 00 00 00    ................
    0x10062280:   00 00 00 00 00 00 00 00 00 00 00 00 00 00 00 00    ................
    0x10062290:   00 00 00 00 00 00 00 00 00 00 00 00 00 00 00 00    ................
    0x100622a0:   00 00 00 00 00 00 00 00 00 00 00 00 00 00 00 00    ................
    0x100622b0:   00 00 00 00 00 00 00 00 00 00 00 00 00 00 00 00    ................
    0x100622c0:   00 00 00 00 00 00 00 00 00 00 00 00 00 00 00 00    ................
    0x100622d0:   00 00 00 00 00 00 00 00 00 00 00 00 00 00 00 00    ................
    0x100622e0:   00 00 00 00 00 00 00 00 00 00 00 00 00 00 00 00    ................
    0x100622f0:   00 00 00 00 00 00 00 00 00 00 00 00 00 00 00 00    ................
    0x10062300:   00 00 00 00 00 00 00 00 00 00 00 00 00 00 00 00    ................
    0x10062310:   00 00 00 00 00 00 00 00 00 00 00 00 00 00 00 00    ................
    0x10062320:   00 00 00 00 00 00 00 00 00 00 00 00 00 00 00 00    ................
    0x10062330:   00 00 00 00 00 00 00 00 00 00 00 00 00 00 00 00    ................
    0x10062340:   00 00 00 00 00 00 00 00 00 00 00 00 00 00 00 00    ................
    0x10062350:   00 00 00 00 00 00 00 00 00 00 00 00 00 00 00 00    ................
    0x10062360:   00 00 00 00 00 00 00 00 00 00 00 00 00 00 00 00    ................
    0x10062370:   00 00 00 00 00 00 00 00 00 00 00 00 00 00 00 00    ................
    0x10062380:   00 00 00 00 00 00 00 00 00 00 00 00 00 00 00 00    ................
    0x10062390:   00 00 00 00 00 00 00 00 00 00 00 00 00 00 00 00    ................
    0x100623a0:   00 00 00 00 00 00 00 00 00 00 00 00 00 00 00 00    ................
    0x100623b0:   00 00 00 00 00 00 00 00 00 00 00 00 00 00 00 00    ................
    0x100623c0:   00 00 00 00 00 00 00 00 00 00 00 00 00 00 00 00    ................
    0x100623d0:   00 00 00 00 00 00 00 00 00 00 00 00 00 00 00 00    ................
    0x100623e0:   00 00 00 00 00 00 00 00 00 00 00 00 00 00 00 00    ................
    0x100623f0:   00 00 00 00 00 00 00 00 00 00 00 00 00 00 00 00    ................
    0x10062400:   00 00 00 00 00 00 00 00 00 00 00 00 00 00 00 00    ................
    0x10062410:   00 00 00 00 00 00 00 00 00 00 00 00 00 00 00 00    ................
    0x10062420:   00 00 00 00 00 00 00 00 00 00 00 00 00 00 00 00    ................
    0x10062430:   00 00 00 00 00 00 00 00 00 00 00 00 00 00 00 00    ................
    0x10062440:   00 00 00 00 00 00 00 00 00 00 00 00 00 00 00 00    ................
    0x10062450:   00 00 00 00 00 00 00 00 00 00 00 00 00 00 00 00    ................
    0x10062460:   00 00 00 00 00 00 00 00 00 00 00 00 00 00 00 00    ................
    0x10062470:   00 00 00 00 00 00 00 00 00 00 00 00 00 00 00 00    ................
    0x10062480:   00 00 00 00 00 00 00 00 00 00 00 00 00 00 00 00    ................
    0x10062490:   00 00 00 00 00 00 00 00 00 00 00 00 00 00 00 00    ................
    0x100624a0:   00 00 00 00 00 00 00 00 00 00 00 00 00 00 00 00    ................
    0x100624b0:   00 00 00 00 00 00 00 00 00 00 00 00 00 00 00 00    ................
    0x100624c0:   00 00 00 00 00 00 00 00 00 00 00 00 00 00 00 00    ................
    0x100624d0:   00 00 00 00 00 00 00 00 00 00 00 00 00 00 00 00    ................
    0x100624e0:   00 00 00 00 00 00 00 00 00 00 00 00 00 00 00 00    ................
    0x100624f0:   00 00 00 00 00 00 00 00 00 00 00 00 00 00 00 00    ................
    0x10062500:   00 00 00 00 00 00 00 00 00 00 00 00 00 00 00 00    ................
    0x10062510:   00 00 00 00 00 00 00 00 00 00 00 00 00 00 00 00    ................
    0x10062520:   00 00 00 00 00 00 00 00 00 00 00 00 00 00 00 00    ................
    0x10062530:   00 00 00 00 00 00 00 00 00 00 00 00 00 00 00 00    ................
    0x10062540:   00 00 00 00 00 00 00 00 00 00 00 00 00 00 00 00    ................
    0x10062550:   00 00 00 00 00 00 00 00 00 00 00 00 00 00 00 00    ................
    0x10062560:   00 00 00 00 00 00 00 00 00 00 00 00 00 00 00 00    ................
    0x10062570:   00 00 00 00 00 00 00 00 00 00 00 00 00 00 00 00    ................
    0x10062580:   00 00 00 00 00 00 00 00 00 00 00 00 00 00 00 00    ................
    0x10062590:   00 00 00 00 00 00 00 00 00 00 00 00 00 00 00 00    ................
    0x100625a0:   00 00 00 00 00 00 00 00 00 00 00 00 00 00 00 00    ................
    0x100625b0:   00 00 00 00 00 00 00 00 00 00 00 00 00 00 00 00    ................
    0x100625c0:   00 00 00 00 00 00 00 00 00 00 00 00 00 00 00 00    ................
    0x100625d0:   00 00 00 00 00 00 00 00 00 00 00 00 00 00 00 00    ................
    0x100625e0:   00 00 00 00 00 00 00 00 00 00 00 00 00 00 00 00    ................
    0x100625f0:   00 00 00 00 00 00 00 00 00 00 00 00 00 00 00 00    ................
    0x10062600:   00 00 00 00 00 00 00 00 00 00 00 00 00 00 00 00    ................
    0x10062610:   00 00 00 00 00 00 00 00 00 00 00 00 00 00 00 00    ................
    0x10062620:   00 00 00 00 00 00 00 00 00 00 00 00 00 00 00 00    ................
    0x10062630:   00 00 00 00 00 00 00 00 00 00 00 00 00 00 00 00    ................
    0x10062640:   00 00 00 00 00 00 00 00 00 00 00 00 00 00 00 00    ................
    0x10062650:   00 00 00 00 00 00 00 00 00 00 00 00 00 00 00 00    ................
    0x10062660:   00 00 00 00 00 00 00 00 00 00 00 00 00 00 00 00    ................
    0x10062670:   00 00 00 00 00 00 00 00 00 00 00 00 00 00 00 00    ................
    0x10062680:   00 00 00 00 00 00 00 00 00 00 00 00 00 00 00 00    ................
    0x10062690:   00 00 00 00 00 00 00 00 00 00 00 00 00 00 00 00    ................
    0x100626a0:   00 00 00 00 00 00 00 00 00 00 00 00 00 00 00 00    ................
    0x100626b0:   00 00 00 00 00 00 00 00 00 00 00 00 00 00 00 00    ................
    0x100626c0:   00 00 00 00 00 00 00 00 00 00 00 00 00 00 00 00    ................
    0x100626d0:   00 00 00 00 00 00 00 00 00 00 00 00 00 00 00 00    ................
    0x100626e0:   00 00 00 00 00 00 00 00 00 00 00 00 00 00 00 00    ................
    0x100626f0:   00 00 00 00 00 00 00 00 00 00 00 00 00 00 00 00    ................
    0x10062700:   00 00 00 00 00 00 00 00 00 00 00 00 00 00 00 00    ................
    0x10062710:   00 00 00 00 00 00 00 00 00 00 00 00 00 00 00 00    ................
    0x10062720:   00 00 00 00 00 00 00 00 00 00 00 00 00 00 00 00    ................
    0x10062730:   00 00 00 00 00 00 00 00 00 00 00 00 00 00 00 00    ................
    0x10062740:   00 00 00 00 00 00 00 00 00 00 00 00 00 00 00 00    ................
    0x10062750:   00 00 00 00 00 00 00 00 00 00 00 00 00 00 00 00    ................
    0x10062760:   00 00 00 00 00 00 00 00 00 00 00 00 00 00 00 00    ................
    0x10062770:   00 00 00 00 00 00 00 00 00 00 00 00 00 00 00 00    ................
    0x10062780:   00 00 00 00 00 00 00 00 00 00 00 00 00 00 00 00    ................
    0x10062790:   00 00 00 00 00 00 00 00 00 00 00 00 00 00 00 00    ................
    0x100627a0:   00 00 00 00 00 00 00 00 00 00 00 00 00 00 00 00    ................
    0x100627b0:   00 00 00 00 00 00 00 00 00 00 00 00 00 00 00 00    ................
    0x100627c0:   00 00 00 00 00 00 00 00 00 00 00 00 00 00 00 00    ................
    0x100627d0:   00 00 00 00 00 00 00 00 00 00 00 00 00 00 00 00    ................
    0x100627e0:   00 00 00 00 00 00 00 00 00 00 00 00 00 00 00 00    ................
    0x100627f0:   00 00 00 00 00 00 00 00 00 00 00 00 00 00 00 00    ................
    0x10062800:   00 00 00 00 00 00 00 00 00 00 00 00 00 00 00 00    ................
    0x10062810:   00 00 00 00 00 00 00 00 00 00 00 00 00 00 00 00    ................
    0x10062820:   00 00 00 00 00 00 00 00 00 00 00 00 00 00 00 00    ................
    0x10062830:   00 00 00 00 00 00 00 00 00 00 00 00 00 00 00 00    ................


** Section #5 '.debug_abbrev' (SHT_PROGBITS)
    Size   : 1380 bytes


** Section #6 '.debug_frame' (SHT_PROGBITS)
    Size   : 7844 bytes


** Section #7 '.debug_info' (SHT_PROGBITS)
    Size   : 93707 bytes


** Section #8 '.debug_line' (SHT_PROGBITS)
    Size   : 6834 bytes


** Section #9 '.debug_ranges' (SHT_PROGBITS)
    Size   : 288 bytes


** Section #10 '.debug_str' (SHT_PROGBITS)
    Size   : 34791 bytes


** Section #11 '.symtab' (SHT_SYMTAB)
    Size   : 9680 bytes (alignment 4)
    String table #12 '.strtab'
    Last local symbol no. 313

    Symbol table .symtab (604 symbols, 313 local)

      #  Symbol Name                Value      Bind  Sec  Type  Vis  Size
    ========================================================================

      1  $d                         0x00018000   Lc    1   --   De 
      2  $t                         0x00018200   Lc    1   --   De 
      3  $d                         0x00018230   Lc    1   --   De 
      4  $t                         0x00018234   Lc    1   --   De 
      5  $d                         0x00018268   Lc    1   --   De 
      6  $t                         0x00018270   Lc    1   --   De 
      7  $d                         0x0001831a   Lc    1   --   De 
      8  $t                         0x00018328   Lc    1   --   De 
      9  $d                         0x00018420   Lc    1   --   De 
     10  $t                         0x00018424   Lc    1   --   De 
     11  $d                         0x0001842c   Lc    1   --   De 
     12  $t                         0x00018430   Lc    1   --   De 
     13  $t.0                       0x00018434   Lc    1   --   De 
     14  $d.4                       0x00018454   Lc    1   --   De 
     15  $t.7                       0x00018458   Lc    1   --   De 
     16  $d.15                      0x00018ad6   Lc    1   --   De 
     17  $t.16                      0x00018ae4   Lc    1   --   De 
     18  $d.9                       0x00019990   Lc    1   --   De 
     19  $t.10                      0x00019994   Lc    1   --   De 
     20  $d.5                       0x00019d86   Lc    1   --   De 
     21  $t.6                       0x00019d8c   Lc    1   --   De 
     22  $d.22                      0x0001a0e6   Lc    1   --   De 
     23  $t.23                      0x0001a0ec   Lc    1   --   De 
     24  $d.3                       0x0001a530   Lc    1   --   De 
     25  $t.4                       0x0001a538   Lc    1   --   De 
     26  $d.7                       0x0001a8d6   Lc    1   --   De 
     27  $t.8                       0x0001a8dc   Lc    1   --   De 
     28  $d.4                       0x0001cd42   Lc    1   --   De 
     29  $t.5                       0x0001cda8   Lc    1   --   De 
     30  $t                         0x0001e804   Lc    1   --   De 
     31  $d                         0x0001e854   Lc    1   --   De 
     32  $t                         0x0001e858   Lc    1   --   De 
     33  $d                         0x0001e8d6   Lc    1   --   De 
     34  $t                         0x0001e8da   Lc    1   --   De 
     35  $d.realdata                0x0001e926   Lc    1   --   De 
     36  $d.realdata                0x10000000   Lc    2   --   De 
     37  $d.realdata                0x10060000   Lc    4   --   De 
     38  am_resources.c             0x00000000   Lc  Abs  File  De 
     39  __tagsym$$used.0           0x0001f150   Lc    1   --   De 
     40  __tagsym$$used.1           0x0001f128   Lc    1   --   De 
     41  __tagsym$$used.2           0x0001f13c   Lc    1   --   De 
     42  __tagsym$$used.3           0x0001f164   Lc    1   --   De 
     43  __tagsym$$used.4           0x10060004   Lc    4   --   De 
     44  __tagsym$$used.5           0x10060018   Lc    4   --   De 
     45  __tagsym$$used.6           0x1006002c   Lc    4   --   De 
     46  __tagsym$$used.7           0x0001eb8c   Lc    1   --   De 
     47  __tagsym$$used.8           0x10060000   Lc    4   --   De 
     48  sd_card_raw_block_read_write.c
                                    0x00000000   Lc  Abs  File  De 
     49  .L.str.22                  0x0001eba8   Lc    1  Data  De   0x3f
     50  .L.str.37                  0x0001ebe7   Lc    1  Data  De   0x14
     51  .L.str.27                  0x0001ebfb   Lc    1  Data  De   0x4f
     52  .L.str.23                  0x0001ec4a   Lc    1  Data  De   0x43
     53  .L.str.28                  0x0001ec8d   Lc    1  Data  De   0x4d
     54  .L.str.34                  0x0001ecda   Lc    1  Data  De   0x3c
     55  .L.str.29                  0x0001ed16   Lc    1  Data  De   0x38
     56  .L.str.26                  0x0001ed4e   Lc    1  Data  De   0x43
     57  .L.str.17                  0x0001ed91   Lc    1  Data  De   0x30
     58  .L.str.35                  0x0001edc1   Lc    1  Data  De   0x26
     59  .L.str.7                   0x0001ede7   Lc    1  Data  De   0x2b
     60  .L.str.4                   0x0001ee12   Lc    1  Data  De   0x14
     61  .L.str.2                   0x0001ee26   Lc    1  Data  De   0x1b
     62  .L.str                     0x0001ee41   Lc    1  Data  De   0x1b
     63  .L.str.3                   0x0001ee5c   Lc    1  Data  De   0x1c
     64  .L.str.1                   0x0001ee78   Lc    1  Data  De   0x1c
     65  .L.str.20                  0x0001ee94   Lc    1  Data  De   0x18
     66  .L.str.8                   0x0001eeac   Lc    1  Data  De   0xe
     67  .L.str.13                  0x0001eeba   Lc    1  Data  De   0x1e
     68  .L.str.16                  0x0001eed8   Lc    1  Data  De   0x1a
     69  .L.str.5                   0x0001eef2   Lc    1  Data  De   0x15
     70  .L.str.10                  0x0001ef07   Lc    1  Data  De   0x14
     71  .L.str.36                  0x0001ef1b   Lc    1  Data  De   0x2e
     72  .L.str.33                  0x0001ef49   Lc    1  Data  De   0x21
     73  .L.str.31                  0x0001ef6a   Lc    1  Data  De   0x22
     74  .L.str.38                  0x0001ef8c   Lc    1  Data  De   0x2c
     75  .L.str.6                   0x0001efb8   Lc    1  Data  De   0x11
     76  .L.str.12                  0x0001efc9   Lc    1  Data  De   0x25
     77  .L.str.15                  0x0001efee   Lc    1  Data  De   0x1d
     78  .L.str.9                   0x0001f00b   Lc    1  Data  De   0x1c
     79  .L.str.14                  0x0001f027   Lc    1  Data  De   0x25
     80  .L.str.11                  0x0001f04c   Lc    1  Data  De   0x18
     81  .L.str.25                  0x0001f064   Lc    1  Data  De   0x1a
     82  .L.str.24                  0x0001f07e   Lc    1  Data  De   0x1b
     83  .L.str.18                  0x0001f099   Lc    1  Data  De   0x1c
     84  .L.str.21                  0x0001f0b5   Lc    1  Data  De   0x20
     85  .L.str.19                  0x0001f0d5   Lc    1  Data  De   0x1a
     86  .L.str.32                  0x0001f0ef   Lc    1  Data  De   0x13
     87  .L.str.30                  0x0001f102   Lc    1  Data  De   0x14
     88  __tagsym$$used.0           0x10060040   Lc    4   --   De 
     89  __tagsym$$used.1           0x10061440   Lc    4   --   De 
     90  am_util_debug.c            0x00000000   Lc  Abs  File  De 
     91  am_util_delay.c            0x00000000   Lc  Abs  File  De 
     92  am_util_faultisr.c         0x00000000   Lc  Abs  File  De 
     93  am_util_id.c               0x00000000   Lc  Abs  File  De 
     94  am_util_stdio.c            0x00000000   Lc  Abs  File  De 
     95  decstr_to_int              0x0001d3cd   Lc    1  Code  De   0xa6
     96  simple_strlen              0x0001e685   Lc    1  Code  De   0x36
     97  padbuffer                  0x0001e585   Lc    1  Code  De   0x50
     98  ndigits_in_hex             0x0001e4d9   Lc    1  Code  De   0x3e
     99  uint64_to_hexstr           0x0001e6bd   Lc    1  Code  De   0xc0
    100  ndigits_in_u64             0x0001e549   Lc    1  Code  De   0x3c
    101  uint64_to_str              0x0001e77d   Lc    1  Code  De   0x88
    102  ndigits_in_i64             0x0001e519   Lc    1  Code  De   0x30
    103  ftoa                       0x0001d58d   Lc    1  Code  De   0x230
    104  divu64_10                  0x0001d475   Lc    1  Code  De   0x118
    105  g_bTxtXlate                0x1000047c   Lc    3  Data  De   0x1
    106  g_prfbuf                   0x10000484   Lc    3  Data  De   0x400
    107  ../keil6/startup_keil6.s   0x00000000   Lc  Abs  File  De 
    108  STACK                      0x10003090   Lc    3  Sect  De   0x2b00
    109  StackMem                   0x10003090   Lc    3  Data  De 
    110  HEAP                       0x10003090   Lc    3  Sect  De 
    111  HeapMem                    0x10003090   Lc    3  Data  De 
    112  RESET                      0x00018000   Lc    1  Sect  De   0x234
    113  $v0                        0x00018200   Lc    1   --   De 
    114  am_cryptosec_isr           0x0001822f   Lc    1  Code  De 
    115  am_default_isr             0x0001822f   Lc    1  Code  De   0x2
    116  .text                      0x00018310   Lc    1  Sect  De   0x18
    117  $v0                        0x00018310   Lc    1   --   De 
    118  am_bsp.c                   0x00000000   Lc  Abs  File  De 
    119  .L_MergedGlobals           0x10000160   Lc    3  Data  De   0x8
    120  g_ePrintInterface          0x10000160   Lc    3  Data  De   0x1
    121  g_sCOMUART                 0x10000164   Lc    3  Data  De   0x4
    122  am_hal_gpio.c              0x00000000   Lc  Abs  File  De 
    123  g_ui32DSpintbl             0x0001f118   Lc    1  Data  De   0x10
    124  am_hal_card.c              0x00000000   Lc  Abs  File  De 
    125  am_hal_card_pwr_notification
                                    0x00019685   Lc    1  Code  De   0x60
    126  am_hal_sdmmc_cmd7_card_select
                                    0x0001c8e1   Lc    1  Code  De   0x50
    127  am_hal_card_set_bus_width  0x000196e5   Lc    1  Code  De   0x86
    128  am_hal_card_set_speed      0x0001976d   Lc    1  Code  De   0xfc
    129  am_hal_card_set_uhs_mode   0x00019869   Lc    1  Code  De   0x6e
    130  am_hal_sdio_card_set_speed 0x0001c6c1   Lc    1  Code  De   0x17e
    131  am_hal_sdio_card_set_bus_width
                                    0x0001c631   Lc    1  Code  De   0x90
    132  am_hal_sd_card_set_voltage 0x0001b025   Lc    1  Code  De   0x200
    133  am_hal_sd_card_set_speed   0x0001ae35   Lc    1  Code  De   0x1ee
    134  am_hal_sd_card_set_bus_width
                                    0x0001ada9   Lc    1  Code  De   0x8a
    135  am_hal_sdmmc_cmd8_send_ext_csd
                                    0x0001c931   Lc    1  Code  De   0x68
    136  am_hal_sdmmc_cmd2_send_cid 0x0001c841   Lc    1  Code  De   0x4e
    137  am_hal_sdmmc_cmd3_set_rca  0x0001c891   Lc    1  Code  De   0x50
    138  am_hal_sdmmc_cmd9_send_csd 0x0001c999   Lc    1  Code  De   0x56
    139  am_hal_sdio_card_read_cis  0x0001c2f5   Lc    1  Code  De   0x33a
    140  am_hal_card_host.c         0x00000000   Lc  Abs  File  De 
    141  am_hal_sdhc_host_init      0x0001b9e1   Lc    1  Code  De   0x4c
    142  am_hal_sdhc_host_deinit    0x0001b975   Lc    1  Code  De   0x36
    143  am_hal_card_host_power_control
                                    0x00018a79   Lc    1  Code  De   0xa
    144  am_hal_sdhc_host_execute_cmd
                                    0x0001b9ad   Lc    1  Code  De   0x32
    145  g_sdhc_card_host           0x10000050   Lc    2  Data  De   0x70
    146  g_sdhc_host_ops            0x100000c0   Lc    2  Data  De   0x30
    147  am_hal_fault.c             0x00000000   Lc  Abs  File  De 
    148  am_hal_interrupt.c         0x00000000   Lc  Abs  File  De 
    149  am_hal_mcuctrl.c           0x00000000   Lc  Abs  File  De 
    150  am_hal_sdhc.c              0x00000000   Lc  Abs  File  De 
    151  am_hal_sdhc_get_cmd_response
                                    0x0001b909   Lc    1  Code  De   0x44
    152  am_hal_sdhc_xfer_data      0x0001c1c5   Lc    1  Code  De   0x130
    153  am_hal_sdhc_pio_xfer_data  0x0001bc81   Lc    1  Code  De   0x19e
    154  g_SDHCState                0x10000428   Lc    3  Data  De   0x54
    155  adma_desc_table            0x10000198   Lc    3  Data  De   0x80
    156  am_hal_utils.c             0x00000000   Lc  Abs  File  De 
    157  am_bsp_pins.c              0x00000000   Lc  Abs  File  De 
    158  am_hal_dcu.c               0x00000000   Lc  Abs  File  De 
    159  get_ui32_dcu_mask          0x0001dbe1   Lc    1  Code  De   0x124
    160  get_raw_dcu_mask           0x0001d7bd   Lc    1  Code  De   0x424
    161  .L_MergedGlobals           0x10000000   Lc    2  Data  De   0x18
    162  am_hal_pin.c               0x00000000   Lc  Abs  File  De 
    163  am_hal_pwrctrl.c           0x00000000   Lc  Abs  File  De 
    164  .L_MergedGlobals           0x10000018   Lc    2  Data  De   0x8
    165  .L_MergedGlobals.1         0x10000168   Lc    3  Data  De   0x30
    166  g_bBoostForCryptoApplied   0x10000168   Lc    3  Data  De   0x1
    167  g_bOrigTrimsStored         0x10000169   Lc    3  Data  De   0x1
    168  g_bTempcoValid             0x1000016a   Lc    3  Data  De   0x1
    169  g_i32LatestVddfActTrim     0x1000016c   Lc    3  Data  De   0x4
    170  g_i32LatestLDOActTrim      0x10000170   Lc    3  Data  De   0x4
    171  g_ui32VDDFAdjustCodes      0x10000174   Lc    3  Data  De   0x4
    172  g_orig_ACTTRIMVDDF         0x10000178   Lc    3  Data  De   0x4
    173  g_orig_MEMLDOACTIVETRIM    0x1000017c   Lc    3  Data  De   0x4
    174  g_orig_LPTRIMVDDF          0x10000180   Lc    3  Data  De   0x4
    175  g_orig_MEMLPLDOTRIM        0x10000184   Lc    3  Data  De   0x4
    176  g_orig_TVRGVREFTRIM        0x10000188   Lc    3  Data  De   0x4
    177  g_orig_CORELDOACTIVETRIM   0x1000018c   Lc    3  Data  De   0x4
    178  g_pfTempMeasured           0x10000190   Lc    3  Data  De   0x4
    179  g_TempcoADCHandle          0x10000194   Lc    3  Data  De   0x4
    180  am_hal_bootrom_helper.c    0x00000000   Lc  Abs  File  De 
    181  am_hal_cachectrl.c         0x00000000   Lc  Abs  File  De 
    182  am_hal_itm.c               0x00000000   Lc  Abs  File  De 
    183  am_hal_rtc.c               0x00000000   Lc  Abs  File  De 
    184  am_hal_tpiu.c              0x00000000   Lc  Abs  File  De 
    185  am_hal_uart.c              0x00000000   Lc  Abs  File  De 
    186  am_hal_adc.c               0x00000000   Lc  Abs  File  De 
    187  am_hal_queue.c             0x00000000   Lc  Abs  File  De 
    188  am_hal_mram.c              0x00000000   Lc  Abs  File  De 
    189  dc.s                       0x00000000   Lc  Abs  File  De 
    190  ../clib/memcpset.s         0x00000000   Lc  Abs  File  De 
    191  .text                      0x00018328   Lc    1  Sect  De   0x44
    192  ../clib/memcpset.s         0x00000000   Lc  Abs  File  De 
    193  .text                      0x0001836c   Lc    1  Sect  De   0x4e
    194  ../clib/heapaux.c          0x00000000   Lc  Abs  File  De 
    195  .text                      0x000183ba   Lc    1  Sect  De 
    196  ../clib/angel/startup.s    0x00000000   Lc  Abs  File  De 
    197  !!!main                    0x00018234   Lc    1  Sect  De   0x8
    198  ../clib/angel/handlers.s   0x00000000   Lc  Abs  File  De 
    199  !!handler_copy             0x000182ac   Lc    1  Sect  De   0x1a
    200  ../fplib/d2f.s             0x00000000   Lc  Abs  File  De 
    201  x$fpl$d2f                  0x0001e804   Lc    1  Sect  De   0x62
    202  $v0                        0x0001e804   Lc    1   --   De 
    203  ../clib/angel/kernel.s     0x00000000   Lc  Abs  File  De 
    204  .ARM.Collect$$rtentry$$00000000
                                    0x000182f0   Lc    1  Sect  De 
    205  ../fplib/dnaninf.s         0x00000000   Lc  Abs  File  De 
    206  x$fpl$dnaninf              0x0001e866   Lc    1  Sect  De   0x9c
    207  $v0                        0x0001e866   Lc    1   --   De 
    208  ../fplib/fretinf.s         0x00000000   Lc  Abs  File  De 
    209  x$fpl$fretinf              0x0001e91c   Lc    1  Sect  De   0xa
    210  $v0                        0x0001e91c   Lc    1   --   De 
    211  ../fplib/usenofp.s         0x00000000   Lc  Abs  File  De 
    212  x$fpl$usenofp              0x0001e926   Lc    1  Sect  De 
    213  ../clib/angel/kernel.s     0x00000000   Lc  Abs  File  De 
    214  .ARM.Collect$$rtentry$$00000002
                                    0x000182f0   Lc    1  Sect  De 
    215  .ARM.Collect$$rtentry$$00000009
                                    0x000182f6   Lc    1  Sect  De 
    216  .ARM.Collect$$rtentry$$0000000A
                                    0x000182f6   Lc    1  Sect  De   0x4
    217  .ARM.Collect$$rtentry$$0000000C
                                    0x000182fa   Lc    1  Sect  De 
    218  .ARM.Collect$$rtentry$$0000000D
                                    0x000182fa   Lc    1  Sect  De   0x8
    219  ../clib/angel/kernel.s     0x00000000   Lc  Abs  File  De 
    220  .ARM.Collect$$rtentry$$00000004
                                    0x000182f0   Lc    1  Sect  De   0x6
    221  ../clib/angel/sys.s        0x00000000   Lc  Abs  File  De 
    222  .text                      0x000183c0   Lc    1  Sect  De   0x4a
    223  ../clib/stdlib.c           0x00000000   Lc  Abs  File  De 
    224  .text                      0x0001840a   Lc    1  Sect  De 
    225  ../clib/angel/boardlib.s   0x00000000   Lc  Abs  File  De 
    226  ../clib/angel/boardlib.s   0x00000000   Lc  Abs  File  De 
    227  ../clib/angel/boardlib.s   0x00000000   Lc  Abs  File  De 
    228  ../clib/libinit.s          0x00000000   Lc  Abs  File  De 
    229  .ARM.Collect$$libinit$$00000000
                                    0x000182e4   Lc    1  Sect  De   0x2
    230  ../clib/angel/sys.s        0x00000000   Lc  Abs  File  De 
    231  .text                      0x0001841c   Lc    1  Sect  De   0x8
    232  .bss                       0x10000100   Lc    3  Sect  De   0x60
    233  ../clib/angel/kernel.s     0x00000000   Lc  Abs  File  De 
    234  .ARM.Collect$$rtexit$$00000000
                                    0x00018302   Lc    1  Sect  De   0x2
    235  ../clib/libinit.s          0x00000000   Lc  Abs  File  De 
    236  .ARM.Collect$$libinit$$00000001
                                    0x000182e6   Lc    1  Sect  De   0x4
    237  .ARM.Collect$$libinit$$00000004
                                    0x000182ea   Lc    1  Sect  De 
    238  .ARM.Collect$$libinit$$00000006
                                    0x000182ea   Lc    1  Sect  De 
    239  .ARM.Collect$$libinit$$0000000C
                                    0x000182ea   Lc    1  Sect  De 
    240  .ARM.Collect$$libinit$$0000000E
                                    0x000182ea   Lc    1  Sect  De 
    241  .ARM.Collect$$libinit$$00000010
                                    0x000182ea   Lc    1  Sect  De 
    242  .ARM.Collect$$libinit$$00000013
                                    0x000182ea   Lc    1  Sect  De 
    243  .ARM.Collect$$libinit$$00000015
                                    0x000182ea   Lc    1  Sect  De 
    244  .ARM.Collect$$libinit$$00000017
                                    0x000182ea   Lc    1  Sect  De 
    245  .ARM.Collect$$libinit$$00000019
                                    0x000182ea   Lc    1  Sect  De 
    246  .ARM.Collect$$libinit$$0000001B
                                    0x000182ea   Lc    1  Sect  De 
    247  .ARM.Collect$$libinit$$0000001D
                                    0x000182ea   Lc    1  Sect  De 
    248  .ARM.Collect$$libinit$$0000001F
                                    0x000182ea   Lc    1  Sect  De 
    249  .ARM.Collect$$libinit$$00000021
                                    0x000182ea   Lc    1  Sect  De 
    250  .ARM.Collect$$libinit$$00000023
                                    0x000182ea   Lc    1  Sect  De 
    251  .ARM.Collect$$libinit$$00000025
                                    0x000182ea   Lc    1  Sect  De 
    252  .ARM.Collect$$libinit$$00000027
                                    0x000182ea   Lc    1  Sect  De 
    253  .ARM.Collect$$libinit$$0000002E
                                    0x000182ea   Lc    1  Sect  De 
    254  .ARM.Collect$$libinit$$00000030
                                    0x000182ea   Lc    1  Sect  De 
    255  .ARM.Collect$$libinit$$00000032
                                    0x000182ea   Lc    1  Sect  De 
    256  .ARM.Collect$$libinit$$00000034
                                    0x000182ea   Lc    1  Sect  De 
    257  .ARM.Collect$$libinit$$00000035
                                    0x000182ea   Lc    1  Sect  De   0x2
    258  ../clib/angel/kernel.s     0x00000000   Lc  Abs  File  De 
    259  .ARM.Collect$$rtexit$$00000002
                                    0x00018304   Lc    1  Sect  De 
    260  .ARM.Collect$$rtexit$$00000003
                                    0x00018304   Lc    1  Sect  De   0x4
    261  .ARM.Collect$$rtexit$$00000004
                                    0x00018308   Lc    1  Sect  De   0x6
    262  ../clib/armsys.c           0x00000000   Lc  Abs  File  De 
    263  ../clib/armsys.c           0x00000000   Lc  Abs  File  De 
    264  ../fplib/fpinit.s          0x00000000   Lc  Abs  File  De 
    265  x$fpl$fpinit               0x0001e902   Lc    1  Sect  De   0x1a
    266  $v0                        0x0001e902   Lc    1   --   De 
    267  ../clib/angel/sysapp.c     0x00000000   Lc  Abs  File  De 
    268  .text                      0x00018424   Lc    1  Sect  De 
    269  ../clib/angel/sysapp.c     0x00000000   Lc  Abs  File  De 
    270  ../clib/angel/boardlib.s   0x00000000   Lc  Abs  File  De 
    271  ../clib/armsys.c           0x00000000   Lc  Abs  File  De 
    272  ../clib/armsys.c           0x00000000   Lc  Abs  File  De 
    273  ../clib/libinit.s          0x00000000   Lc  Abs  File  De 
    274  .ARM.Collect$$libshutdown$$00000000
                                    0x000182ec   Lc    1  Sect  De   0x2
    275  ../clib/angel/sysapp.c     0x00000000   Lc  Abs  File  De 
    276  ../clib/angel/sysapp.c     0x00000000   Lc  Abs  File  De 
    277  ../clib/angel/sys.s        0x00000000   Lc  Abs  File  De 
    278  .text                      0x00018430   Lc    1  Sect  De   0x2
    279  ../clib/angel/sys.s        0x00000000   Lc  Abs  File  De 
    280  .text                      0x00018432   Lc    1  Sect  De 
    281  ../clib/heapalloc.c        0x00000000   Lc  Abs  File  De 
    282  ../clib/signal.c           0x00000000   Lc  Abs  File  De 
    283  ../clib/signal.c           0x00000000   Lc  Abs  File  De 
    284  ../clib/libinit.s          0x00000000   Lc  Abs  File  De 
    285  .ARM.Collect$$libshutdown$$00000002
                                    0x000182ee   Lc    1  Sect  De 
    286  .ARM.Collect$$libshutdown$$00000004
                                    0x000182ee   Lc    1  Sect  De 
    287  .ARM.Collect$$libshutdown$$00000007
                                    0x000182ee   Lc    1  Sect  De 
    288  .ARM.Collect$$libshutdown$$0000000A
                                    0x000182ee   Lc    1  Sect  De 
    289  .ARM.Collect$$libshutdown$$0000000C
                                    0x000182ee   Lc    1  Sect  De 
    290  .ARM.Collect$$libshutdown$$0000000F
                                    0x000182ee   Lc    1  Sect  De 
    291  .ARM.Collect$$libshutdown$$00000010
                                    0x000182ee   Lc    1  Sect  De   0x2
    292  ../clib/angel/rt.s         0x00000000   Lc  Abs  File  De 
    293  ../clib/signal.c           0x00000000   Lc  Abs  File  De 
    294  ../clib/signal.c           0x00000000   Lc  Abs  File  De 
    295  ../clib/signal.c           0x00000000   Lc  Abs  File  De 
    296  ../clib/signal.c           0x00000000   Lc  Abs  File  De 
    297  ../clib/angel/sysapp.c     0x00000000   Lc  Abs  File  De 
    298  ../clib/angel/sysapp.c     0x00000000   Lc  Abs  File  De 
    299  ../clib/signal.s           0x00000000   Lc  Abs  File  De 
    300  ../clib/signal.c           0x00000000   Lc  Abs  File  De 
    301  ../clib/signal.c           0x00000000   Lc  Abs  File  De 
    302  ../clib/signal.c           0x00000000   Lc  Abs  File  De 
    303  ../clib/signal.c           0x00000000   Lc  Abs  File  De 
    304  ../clib/signal.c           0x00000000   Lc  Abs  File  De 
    305  ../clib/signal.c           0x00000000   Lc  Abs  File  De 
    306  ../clib/signal.c           0x00000000   Lc  Abs  File  De 
    307  ../clib/signal.c           0x00000000   Lc  Abs  File  De 
    308  ../clib/angel/dczerorl.s   0x00000000   Lc  Abs  File  De 
    309  !!dczerorl                 0x00018270   Lc    1  Sect  De   0x3a
    310  ../clib/angel/scatter.s    0x00000000   Lc  Abs  File  De 
    311  !!!scatter                 0x0001823c   Lc    1  Sect  De   0x34
    312  ../clib/angel/handlers.s   0x00000000   Lc  Abs  File  De 
    313  !!handler_zi               0x000182c8   Lc    1  Sect  De   0x1c
    314  BuildAttributes$$THM_ISAv4$E$P$D$K$B$S$7EM$VFPi3$EXTD16$VFPS$VFMA$PE$A:L22UL41UL21$X:L11$S22US41US21$IEEE1$IW$~IW$USESV6$~STKCKD$USESV7$~SHL$OTIME$ROPI$EBA8$UX$STANDARDLIB$REQ8$PRES8$EABIv2
                                    0x00000000   Gb  Abs   --   Hi 
    315  __Vectors                  0x00018000   Gb    1  Data  Hi 
    316  __Patchable                0x00018190   Gb    1  Data  Hi 
    317  Reset_Handler              0x00018201   Wk    1  Code  Hi   0x1c
    318  NMI_Handler                0x0001821f   Wk    1  Code  Hi   0x2
    319  MemManage_Handler          0x00018221   Wk    1  Code  Hi   0x2
    320  BusFault_Handler           0x00018223   Wk    1  Code  Hi   0x2
    321  UsageFault_Handler         0x00018225   Wk    1  Code  Hi   0x2
    322  SVC_Handler                0x00018227   Wk    1  Code  Hi   0x2
    323  DebugMon_Handler           0x00018229   Wk    1  Code  Hi   0x2
    324  PendSV_Handler             0x0001822b   Wk    1  Code  Hi   0x2
    325  SysTick_Handler            0x0001822d   Wk    1  Code  Hi   0x2
    326  am_adc_isr                 0x0001822f   Wk    1  Code  Hi 
    327  am_audadc0_isr             0x0001822f   Wk    1  Code  Hi 
    328  am_brownout_isr            0x0001822f   Wk    1  Code  Hi 
    329  am_cachecpu_isr            0x0001822f   Wk    1  Code  Hi 
    330  am_clkgen_isr              0x0001822f   Wk    1  Code  Hi 
    331  am_ctimer_isr              0x0001822f   Wk    1  Code  Hi 
    332  am_disp_isr                0x0001822f   Wk    1  Code  Hi 
    333  am_dsi_isr                 0x0001822f   Wk    1  Code  Hi 
    334  am_dspi2s0_isr             0x0001822f   Wk    1  Code  Hi 
    335  am_dspi2s1_isr             0x0001822f   Wk    1  Code  Hi 
    336  am_dspi2s2_isr             0x0001822f   Wk    1  Code  Hi 
    337  am_dspi2s3_isr             0x0001822f   Wk    1  Code  Hi 
    338  am_gpio0_001f_isr          0x0001822f   Wk    1  Code  Hi 
    339  am_gpio0_203f_isr          0x0001822f   Wk    1  Code  Hi 
    340  am_gpio0_405f_isr          0x0001822f   Wk    1  Code  Hi 
    341  am_gpio0_607f_isr          0x0001822f   Wk    1  Code  Hi 
    342  am_gpio1_001f_isr          0x0001822f   Wk    1  Code  Hi 
    343  am_gpio1_203f_isr          0x0001822f   Wk    1  Code  Hi 
    344  am_gpio1_405f_isr          0x0001822f   Wk    1  Code  Hi 
    345  am_gpio1_607f_isr          0x0001822f   Wk    1  Code  Hi 
    346  am_gpu_isr                 0x0001822f   Wk    1  Code  Hi 
    347  am_iomaster0_isr           0x0001822f   Wk    1  Code  Hi 
    348  am_iomaster1_isr           0x0001822f   Wk    1  Code  Hi 
    349  am_iomaster2_isr           0x0001822f   Wk    1  Code  Hi 
    350  am_iomaster3_isr           0x0001822f   Wk    1  Code  Hi 
    351  am_iomaster4_isr           0x0001822f   Wk    1  Code  Hi 
    352  am_iomaster5_isr           0x0001822f   Wk    1  Code  Hi 
    353  am_iomaster6_isr           0x0001822f   Wk    1  Code  Hi 
    354  am_iomaster7_isr           0x0001822f   Wk    1  Code  Hi 
    355  am_ioslave_acc_isr         0x0001822f   Wk    1  Code  Hi 
    356  am_ioslave_ios_isr         0x0001822f   Wk    1  Code  Hi 
    357  am_mspi0_isr               0x0001822f   Wk    1  Code  Hi 
    358  am_mspi1_isr               0x0001822f   Wk    1  Code  Hi 
    359  am_mspi2_isr               0x0001822f   Wk    1  Code  Hi 
    360  am_pdm0_isr                0x0001822f   Wk    1  Code  Hi 
    361  am_pdm1_isr                0x0001822f   Wk    1  Code  Hi 
    362  am_pdm2_isr                0x0001822f   Wk    1  Code  Hi 
    363  am_pdm3_isr                0x0001822f   Wk    1  Code  Hi 
    364  am_rtc_isr                 0x0001822f   Wk    1  Code  Hi 
    365  am_stimer_cmpr0_isr        0x0001822f   Wk    1  Code  Hi 
    366  am_stimer_cmpr1_isr        0x0001822f   Wk    1  Code  Hi 
    367  am_stimer_cmpr2_isr        0x0001822f   Wk    1  Code  Hi 
    368  am_stimer_cmpr3_isr        0x0001822f   Wk    1  Code  Hi 
    369  am_stimer_cmpr4_isr        0x0001822f   Wk    1  Code  Hi 
    370  am_stimer_cmpr5_isr        0x0001822f   Wk    1  Code  Hi 
    371  am_stimer_cmpr6_isr        0x0001822f   Wk    1  Code  Hi 
    372  am_stimer_cmpr7_isr        0x0001822f   Wk    1  Code  Hi 
    373  am_stimerof_isr            0x0001822f   Wk    1  Code  Hi 
    374  am_timer00_isr             0x0001822f   Wk    1  Code  Hi 
    375  am_timer01_isr             0x0001822f   Wk    1  Code  Hi 
    376  am_timer02_isr             0x0001822f   Wk    1  Code  Hi 
    377  am_timer03_isr             0x0001822f   Wk    1  Code  Hi 
    378  am_timer04_isr             0x0001822f   Wk    1  Code  Hi 
    379  am_timer05_isr             0x0001822f   Wk    1  Code  Hi 
    380  am_timer06_isr             0x0001822f   Wk    1  Code  Hi 
    381  am_timer07_isr             0x0001822f   Wk    1  Code  Hi 
    382  am_timer08_isr             0x0001822f   Wk    1  Code  Hi 
    383  am_timer09_isr             0x0001822f   Wk    1  Code  Hi 
    384  am_timer10_isr             0x0001822f   Wk    1  Code  Hi 
    385  am_timer11_isr             0x0001822f   Wk    1  Code  Hi 
    386  am_timer12_isr             0x0001822f   Wk    1  Code  Hi 
    387  am_timer13_isr             0x0001822f   Wk    1  Code  Hi 
    388  am_timer14_isr             0x0001822f   Wk    1  Code  Hi 
    389  am_timer15_isr             0x0001822f   Wk    1  Code  Hi 
    390  am_uart1_isr               0x0001822f   Wk    1  Code  Hi 
    391  am_uart2_isr               0x0001822f   Wk    1  Code  Hi 
    392  am_uart3_isr               0x0001822f   Wk    1  Code  Hi 
    393  am_uart_isr                0x0001822f   Wk    1  Code  Hi 
    394  am_usb_isr                 0x0001822f   Wk    1  Code  Hi 
    395  am_vcomp_isr               0x0001822f   Wk    1  Code  Hi 
    396  am_watchdog_isr            0x0001822f   Wk    1  Code  Hi 
    397  __main                     0x00018235   Gb    1  Code  Hi   0x8
    398  __scatterload              0x0001823d   Gb    1  Code  Hi 
    399  __scatterload_rt2          0x0001823d   Gb    1  Code  Hi   0x2c
    400  __scatterload_rt2_thumb_only
                                    0x0001823d   Gb    1  Code  Hi 
    401  __scatterload_null         0x0001824b   Gb    1  Code  Hi 
    402  __decompress               0x00018271   Gb    1  Code  Hi   0x3a
    403  __decompress0              0x00018271   Gb    1  Code  Hi 
    404  __scatterload_copy         0x000182ad   Gb    1  Code  Hi   0x1a
    405  __scatterload_zeroinit     0x000182c9   Gb    1  Code  Hi   0x1c
    406  __rt_lib_init              0x000182e5   Gb    1  Code  De 
    407  __rt_lib_init_fp_1         0x000182e7   Gb    1  Code  Hi 
    408  __rt_lib_init_alloca_1     0x000182eb   Gb    1  Code  Hi 
    409  __rt_lib_init_argv_1       0x000182eb   Gb    1  Code  Hi 
    410  __rt_lib_init_atexit_1     0x000182eb   Gb    1  Code  Hi 
    411  __rt_lib_init_clock_1      0x000182eb   Gb    1  Code  Hi 
    412  __rt_lib_init_cpp_1        0x000182eb   Gb    1  Code  Hi 
    413  __rt_lib_init_exceptions_1 0x000182eb   Gb    1  Code  Hi 
    414  __rt_lib_init_fp_trap_1    0x000182eb   Gb    1  Code  Hi 
    415  __rt_lib_init_getenv_1     0x000182eb   Gb    1  Code  Hi 
    416  __rt_lib_init_heap_1       0x000182eb   Gb    1  Code  Hi 
    417  __rt_lib_init_lc_collate_1 0x000182eb   Gb    1  Code  Hi 
    418  __rt_lib_init_lc_ctype_1   0x000182eb   Gb    1  Code  Hi 
    419  __rt_lib_init_lc_monetary_1
                                    0x000182eb   Gb    1  Code  Hi 
    420  __rt_lib_init_lc_numeric_1 0x000182eb   Gb    1  Code  Hi 
    421  __rt_lib_init_lc_time_1    0x000182eb   Gb    1  Code  Hi 
    422  __rt_lib_init_preinit_1    0x000182eb   Gb    1  Code  Hi 
    423  __rt_lib_init_rand_1       0x000182eb   Gb    1  Code  Hi 
    424  __rt_lib_init_relocate_pie_1
                                    0x000182eb   Gb    1  Code  Hi 
    425  __rt_lib_init_return       0x000182eb   Gb    1  Code  Hi 
    426  __rt_lib_init_signal_1     0x000182eb   Gb    1  Code  Hi 
    427  __rt_lib_init_stdio_1      0x000182eb   Gb    1  Code  Hi 
    428  __rt_lib_init_user_alloc_1 0x000182eb   Gb    1  Code  Hi 
    429  __rt_lib_shutdown          0x000182ed   Gb    1  Code  De 
    430  __rt_lib_shutdown_cpp_1    0x000182ef   Gb    1  Code  Hi 
    431  __rt_lib_shutdown_fp_trap_1
                                    0x000182ef   Gb    1  Code  Hi 
    432  __rt_lib_shutdown_heap_1   0x000182ef   Gb    1  Code  Hi 
    433  __rt_lib_shutdown_return   0x000182ef   Gb    1  Code  Hi 
    434  __rt_lib_shutdown_signal_1 0x000182ef   Gb    1  Code  Hi 
    435  __rt_lib_shutdown_stdio_1  0x000182ef   Gb    1  Code  Hi 
    436  __rt_lib_shutdown_user_alloc_1
                                    0x000182ef   Gb    1  Code  Hi 
    437  __rt_entry                 0x000182f1   Gb    1  Code  Hi 
    438  __rt_entry_presh_1         0x000182f1   Gb    1  Code  Hi 
    439  __rt_entry_sh              0x000182f1   Gb    1  Code  Hi 
    440  __rt_entry_li              0x000182f7   Gb    1  Code  Hi 
    441  __rt_entry_postsh_1        0x000182f7   Gb    1  Code  Hi 
    442  __rt_entry_main            0x000182fb   Gb    1  Code  Hi 
    443  __rt_entry_postli_1        0x000182fb   Gb    1  Code  Hi 
    444  __rt_exit                  0x00018303   Gb    1  Code  De 
    445  __rt_exit_ls               0x00018305   Gb    1  Code  Hi 
    446  __rt_exit_prels_1          0x00018305   Gb    1  Code  Hi 
    447  __rt_exit_exit             0x00018309   Gb    1  Code  Hi 
    448  __user_initial_stackheap   0x00018311   Gb    1  Code  Hi   0xa
    449  __aeabi_memclr             0x00018329   Gb    1  Code  De 
    450  __rt_memclr                0x00018329   Gb    1  Code  De 
    451  _memset                    0x0001832d   Gb    1  Code  De   0x40
    452  __aeabi_memclr4            0x0001836d   Gb    1  Code  De 
    453  __aeabi_memclr8            0x0001836d   Gb    1  Code  De 
    454  __rt_memclr_w              0x0001836d   Gb    1  Code  De 
    455  _memset_w                  0x00018371   Gb    1  Code  De   0x4a
    456  __use_two_region_memory    0x000183bb   Gb    1  Code  Hi   0x2
    457  __rt_heap_escrow$2region   0x000183bd   Gb    1  Code  De   0x2
    458  __rt_heap_expand$2region   0x000183bf   Gb    1  Code  De   0x2
    459  __user_setup_stackheap     0x000183c1   Gb    1  Code  De   0x4a
    460  exit                       0x0001840b   Gb    1  Code  De   0x12
    461  __user_libspace            0x0001841d   Wk    1  Code  De   0x8
    462  __user_perproc_libspace    0x0001841d   Wk    1  Code  De 
    463  __user_perthread_libspace  0x0001841d   Wk    1  Code  De 
    464  _sys_exit                  0x00018425   Gb    1  Code  De   0x8
    465  __I$use$semihosting        0x00018431   Gb    1  Code  Hi 
    466  __use_no_semihosting_swi   0x00018431   Gb    1  Code  Hi   0x2
    467  __semihosting_library_function
                                    0x00018433   Gb    1  Code  Hi 
    468  HardFault_Handler          0x00018435   Gb    1  Code  Hi   0x1e
    469  am_bsp_itm_printf_enable   0x00018459   Gb    1  Code  Hi   0x7e
    470  am_bsp_low_power_init      0x000184d9   Gb    1  Code  Hi   0x16
    471  am_bsp_sd_cd_pin_enable    0x000184f1   Gb    1  Code  Hi   0x3c
    472  am_bsp_sdio_pins_enable    0x0001852d   Gb    1  Code  Hi   0xbe
    473  am_getStackedReg           0x000185ed   Gb    1  Code  Hi   0x12
    474  am_hal_card_cfg_set        0x00018601   Gb    1  Code  Hi   0x14e
    475  am_hal_card_deinit         0x00018751   Gb    1  Code  Hi   0x28
    476  am_hal_card_event_test_cb  0x00018779   Gb    1  Code  Hi   0x136
    477  am_hal_card_get_csd_field  0x000188b1   Gb    1  Code  Hi   0x50
    478  am_hal_card_get_ext_csd_field
                                    0x00018901   Gb    1  Code  Hi   0x130
    479  am_hal_card_host_find_card 0x00018a31   Gb    1  Code  Hi   0x48
    480  am_hal_card_host_set_xfer_mode
                                    0x00018a85   Gb    1  Code  Hi   0x4
    481  am_hal_card_init           0x00018a89   Gb    1  Code  Hi   0xb02
    482  am_hal_card_mode_switch    0x0001958d   Gb    1  Code  Hi   0xf8
    483  am_hal_daxi_config         0x000198d9   Gb    1  Code  Hi   0xac
    484  am_hal_daxi_control        0x00019985   Gb    1  Code  Hi   0x116
    485  am_hal_dcu_get             0x00019a9d   Gb    1  Code  Hi   0x3e
    486  am_hal_dcu_update          0x00019add   Gb    1  Code  Hi   0xa2
    487  am_hal_delay_us            0x00019b81   Gb    1  Code  Hi   0x36
    488  am_hal_delay_us_status_change
                                    0x00019bb9   Gb    1  Code  Hi   0x58
    489  am_hal_delay_us_status_check
                                    0x00019c11   Gb    1  Code  Hi   0x98
    490  am_hal_fault_status_get    0x00019ca9   Gb    1  Code  Hi   0x3a
    491  am_hal_get_card_host       0x00019ce5   Gb    1  Code  Hi   0x3a
    492  am_hal_gpio_pinconfig      0x00019d21   Gb    1  Code  Hi   0x56
    493  am_hal_gpio_state_write    0x00019d79   Gb    1  Code  Hi   0x10a
    494  am_hal_interrupt_master_disable
                                    0x00019e85   Gb    1  Code  Hi   0x8
    495  am_hal_interrupt_master_enable
                                    0x00019e8d   Gb    1  Code  Hi   0x8
    496  am_hal_interrupt_master_set
                                    0x00019e95   Gb    1  Code  Hi   0x6
    497  am_hal_itm_enable          0x00019e9d   Gb    1  Code  Hi   0x56
    498  am_hal_itm_print           0x00019ef5   Gb    1  Code  Hi   0x136
    499  am_hal_mram_info_read      0x0001a02d   Gb    1  Code  Hi   0xb0
    500  am_hal_pwrctrl_control     0x0001a0dd   Gb    1  Code  Hi   0x21c
    501  am_hal_pwrctrl_low_power_init
                                    0x0001a2f9   Gb    1  Code  Hi   0x16a
    502  am_hal_pwrctrl_mcu_memory_config
                                    0x0001a465   Gb    1  Code  Hi   0x10e
    503  am_hal_pwrctrl_periph_disable
                                    0x0001a575   Gb    1  Code  Hi   0x130
    504  am_hal_pwrctrl_periph_enable
                                    0x0001a6a5   Gb    1  Code  Hi   0x1a8
    505  am_hal_pwrctrl_sram_config 0x0001a84d   Gb    1  Code  Hi   0xc6
    506  am_hal_rtc_osc_disable     0x0001a915   Gb    1  Code  Hi   0x14
    507  am_hal_sd_card_block_erase 0x0001a929   Gb    1  Code  Hi   0xda
    508  am_hal_sd_card_block_read_async
                                    0x0001aa05   Gb    1  Code  Hi   0xf0
    509  am_hal_sd_card_block_read_sync
                                    0x0001aaf5   Gb    1  Code  Hi   0xbc
    510  am_hal_sd_card_block_write_async
                                    0x0001abb1   Gb    1  Code  Hi   0xf8
    511  am_hal_sd_card_block_write_sync
                                    0x0001aca9   Gb    1  Code  Hi   0xd0
    512  am_hal_sd_card_enable_card_detect
                                    0x0001ad79   Gb    1  Code  Hi   0x30
    513  am_hal_sdhc_card_busy      0x0001b225   Gb    1  Code  Hi   0x62
    514  am_hal_sdhc_deinitialize   0x0001b289   Gb    1  Code  Hi   0x28
    515  am_hal_sdhc_disable        0x0001b2b1   Gb    1  Code  Hi   0x74
    516  am_hal_sdhc_enable         0x0001b325   Gb    1  Code  Hi   0xb6
    517  am_hal_sdhc_execute_cmd    0x0001b3dd   Gb    1  Code  Hi   0x502
    518  am_hal_sdhc_get_cd         0x0001b8e1   Gb    1  Code  Hi   0x28
    519  am_hal_sdhc_get_wr_protect 0x0001b94d   Gb    1  Code  Hi   0x28
    520  am_hal_sdhc_initialize     0x0001ba2d   Gb    1  Code  Hi   0x38
    521  am_hal_sdhc_interrupt_service
                                    0x0001ba65   Gb    1  Code  Hi   0x144
    522  am_hal_sdhc_intr_signal_enable
                                    0x0001bba9   Gb    1  Code  Hi   0x34
    523  am_hal_sdhc_intr_status_clear
                                    0x0001bbdd   Gb    1  Code  Hi   0x30
    524  am_hal_sdhc_intr_status_enable
                                    0x0001bc0d   Gb    1  Code  Hi   0x34
    525  am_hal_sdhc_intr_status_get
                                    0x0001bc41   Gb    1  Code  Hi   0x40
    526  am_hal_sdhc_power_control  0x0001be21   Gb    1  Code  Hi   0xd8
    527  am_hal_sdhc_set_bus_clock  0x0001bef9   Gb    1  Code  Hi   0xea
    528  am_hal_sdhc_set_bus_voltage
                                    0x0001bfe5   Gb    1  Code  Hi   0x54
    529  am_hal_sdhc_set_bus_width  0x0001c039   Gb    1  Code  Hi   0x68
    530  am_hal_sdhc_set_txrx_delay 0x0001c0a1   Gb    1  Code  Hi   0x4e
    531  am_hal_sdhc_set_uhs_mode   0x0001c0f1   Gb    1  Code  Hi   0x54
    532  am_hal_sdhc_setup_host     0x0001c145   Gb    1  Code  Hi   0x80
    533  am_hal_tpiu_enable         0x0001c9f1   Gb    1  Code  Hi   0x6e
    534  am_sdio_isr                0x0001ca61   Gb    1  Code  Hi   0x36
    535  am_util_delay_ms           0x0001ca99   Gb    1  Code  Hi   0x16
    536  am_util_delay_us           0x0001cab1   Gb    1  Code  Hi   0x10
    537  am_util_faultisr_collect_data
                                    0x0001cac1   Gb    1  Code  Hi   0xd6
    538  am_util_stdio_printf       0x0001cb99   Gb    1  Code  Hi   0x5c
    539  am_util_stdio_printf_init  0x0001cbf5   Gb    1  Code  Hi   0x14
    540  am_util_stdio_vsprintf     0x0001cc09   Gb    1  Code  Hi   0x654
    541  am_valid_sp                0x0001d25d   Gb    1  Code  Hi   0x36
    542  check_if_data_match        0x0001d295   Gb    1  Code  Hi   0x6e
    543  crypto_boost_trims         0x0001d305   Gb    1  Code  Hi   0xc8
    544  main                       0x0001dd05   Gb    1  Code  Hi   0x7d2
    545  sd_card_power_config       0x0001e5d5   Gb    1  Code  Hi   0xae
    546  __aeabi_d2f                0x0001e805   Gb    1  Code  De 
    547  _d2f                       0x0001e805   Gb    1  Code  De   0x62
    548  __fpl_dnaninf              0x0001e867   Gb    1  Code  De   0x9c
    549  _fp_init                   0x0001e903   Gb    1  Code  De   0x1a
    550  __fplib_config_fpu_vfp     0x0001e91b   Gb    1  Code  De 
    551  __fplib_config_pureend_doubles
                                    0x0001e91b   Gb    1  Code  De 
    552  __fpl_fretinf              0x0001e91d   Gb    1  Code  De   0xa
    553  __I$use$fp                 0x0001e926   Gb    1   --   De 
    554  am_hal_daxi_defaults       0x0001e926   Gb    1  Data  Hi   0x5
    555  am_hal_gpio_pincfg_default 0x0001e92c   Gb    1  Data  Hi   0x4
    556  am_hal_gpio_pincfg_input   0x0001e930   Gb    1  Data  Hi   0x4
    557  am_hal_gpio_pincfg_output  0x0001e934   Gb    1  Data  Hi   0x4
    558  am_hal_pwrctrl_peripheral_control
                                    0x0001e938   Gb    1  Data  Hi   0x220
    559  g_DefaultMcuMemCfg         0x0001eb58   Gb    1  Data  Hi   0x6
    560  g_DefaultSRAMCfg           0x0001eb5e   Gb    1  Data  Hi   0x6
    561  g_am_hal_bootrom_helper    0x0001eb64   Gb    1  Data  Hi   0x28
    562  sGlobalAccess              0x0001eb8c   Gb    1  Data  Hi   0x1c
    563  ui32DSP0Allowed            0x0001f128   Gb    1  Data  Hi   0x14
    564  ui32DSP1Allowed            0x0001f13c   Gb    1  Data  Hi   0x14
    565  ui32MCUAllowed             0x0001f150   Gb    1  Data  Hi   0x14
    566  ui32SharedAccess           0x0001f164   Gb    1  Data  Hi   0x14
    567  Region$$Table$$Base        0x0001f178   Gb    1   --   Hi 
    568  Region$$Table$$Limit       0x0001f1a8   Gb    1   --   Hi 
    569  gpDcuEnable                0x10000000   Gb    2  Data  Hi   0x4
    570  gpDcuLock                  0x10000004   Gb    2  Data  Hi   0x4
    571  gDcuEnable                 0x10000008   Gb    2  Data  Hi   0x8
    572  gDcuDisable                0x10000010   Gb    2  Data  Hi   0x8
    573  g_ui32TrimVer              0x10000018   Gb    2  Data  Hi   0x4
    574  g_ui32origSimobuckVDDStrim 0x1000001c   Gb    2  Data  Hi   0x4
    575  gDaxiConfig                0x10000020   Gb    2  Data  Hi   0x5
    576  g_AM_BSP_GPIO_SDIO_CLK     0x10000028   Gb    2  Data  Hi   0x4
    577  g_AM_BSP_GPIO_SDIO_CMD     0x1000002c   Gb    2  Data  Hi   0x4
    578  g_AM_BSP_GPIO_SDIO_DAT0    0x10000030   Gb    2  Data  Hi   0x4
    579  g_AM_BSP_GPIO_SDIO_DAT1    0x10000034   Gb    2  Data  Hi   0x4
    580  g_AM_BSP_GPIO_SDIO_DAT2    0x10000038   Gb    2  Data  Hi   0x4
    581  g_AM_BSP_GPIO_SDIO_DAT3    0x1000003c   Gb    2  Data  Hi   0x4
    582  g_AM_BSP_GPIO_SDIO_DAT4    0x10000040   Gb    2  Data  Hi   0x4
    583  g_AM_BSP_GPIO_SDIO_DAT5    0x10000044   Gb    2  Data  Hi   0x4
    584  g_AM_BSP_GPIO_SDIO_DAT6    0x10000048   Gb    2  Data  Hi   0x4
    585  g_AM_BSP_GPIO_SDIO_DAT7    0x1000004c   Gb    2  Data  Hi   0x4
    586  g_ui32CardIsertFlag        0x100000f0   Gb    2  Data  Hi   0x4
    587  __libspace_start           0x10000100   Gb    3  Data  De   0x60
    588  __temporary_stack_top$libspace
                                    0x10000160   Gb    3  Data  De 
    589  bAsyncReadIsDone           0x10000218   Gb    3  Data  Hi   0x1
    590  bAsyncWriteIsDone          0x10000219   Gb    3  Data  Hi   0x1
    591  gFaultStack                0x10000220   Gb    3  Data  Hi   0x200
    592  gStartOff                  0x10000420   Gb    3  Data  Hi   0x4
    593  g_AM_BSP_GPIO_ITM_SWO      0x10000424   Gb    3  Data  Hi   0x4
    594  g_pfnCharPrint             0x10000480   Gb    3  Data  Hi   0x4
    595  g_ui32CardIntCnt           0x10000884   Gb    3  Data  Hi   0x4
    596  pSdhcCardHost              0x10000888   Gb    3  Data  Hi   0x4
    597  ui8RdBuf                   0x10000890   Gb    3  Data  Hi   0x1400
    598  ui8WrBuf                   0x10001c90   Gb    3  Data  Hi   0x1400
    599  psGlobalAccessPtr          0x10060000   Gb    4  Data  Hi   0x4
    600  ui32MCUClaimed             0x10060004   Gb    4  Data  Hi   0x14
    601  ui32DSP0Claimed            0x10060018   Gb    4  Data  Hi   0x14
    602  ui32DSP1Claimed            0x1006002c   Gb    4  Data  Hi   0x14
    603  pui8WrBufSSRAM             0x10060040   Gb    4  Data  Hi   0x1400
    604  pui8RdBufSSRAM             0x10061440   Gb    4  Data  Hi   0x1400


** Section #12 '.strtab' (SHT_STRTAB)
    Size   : 10180 bytes

            #  Offset String
        ====================================

            1      1: $d
            2      4: $t
            3      7: $t.0
            4     12: $d.4
            5     17: $t.7
            6     22: $d.15
            7     28: $t.16
            8     34: $d.9
            9     39: $t.10
           10     45: $d.5
           11     50: $t.6
           12     55: $d.22
           13     61: $t.23
           14     67: $d.3
           15     72: $t.4
           16     77: $d.7
           17     82: $t.8
           18     87: $t.5
           19     92: $d.realdata
           20    104: am_resources.c
           21    119: __tagsym$$used.0
           22    136: __tagsym$$used.1
           23    153: __tagsym$$used.2
           24    170: __tagsym$$used.3
           25    187: __tagsym$$used.4
           26    204: __tagsym$$used.5
           27    221: __tagsym$$used.6
           28    238: __tagsym$$used.7
           29    255: __tagsym$$used.8
           30    272: sd_card_raw_block_read_write.c
           31    303: .L.str.22
           32    313: .L.str.37
           33    323: .L.str.27
           34    333: .L.str.23
           35    343: .L.str.28
           36    353: .L.str.34
           37    363: .L.str.29
           38    373: .L.str.26
           39    383: .L.str.17
           40    393: .L.str.35
           41    403: .L.str.7
           42    412: .L.str.4
           43    421: .L.str.2
           44    430: .L.str
           45    437: .L.str.3
           46    446: .L.str.1
           47    455: .L.str.20
           48    465: .L.str.8
           49    474: .L.str.13
           50    484: .L.str.16
           51    494: .L.str.5
           52    503: .L.str.10
           53    513: .L.str.36
           54    523: .L.str.33
           55    533: .L.str.31
           56    543: .L.str.38
           57    553: .L.str.6
           58    562: .L.str.12
           59    572: .L.str.15
           60    582: .L.str.9
           61    591: .L.str.14
           62    601: .L.str.11
           63    611: .L.str.25
           64    621: .L.str.24
           65    631: .L.str.18
           66    641: .L.str.21
           67    651: .L.str.19
           68    661: .L.str.32
           69    671: .L.str.30
           70    681: am_util_debug.c
           71    697: am_util_delay.c
           72    713: am_util_faultisr.c
           73    732: am_util_id.c
           74    745: am_util_stdio.c
           75    761: decstr_to_int
           76    775: simple_strlen
           77    789: padbuffer
           78    799: ndigits_in_hex
           79    814: uint64_to_hexstr
           80    831: ndigits_in_u64
           81    846: uint64_to_str
           82    860: ndigits_in_i64
           83    875: ftoa
           84    880: divu64_10
           85    890: g_bTxtXlate
           86    902: g_prfbuf
           87    911: ../keil6/startup_keil6.s
           88    936: STACK
           89    942: StackMem
           90    951: HEAP
           91    956: HeapMem
           92    964: RESET
           93    970: $v0
           94    974: am_cryptosec_isr
           95    991: am_default_isr
           96   1006: .text
           97   1012: am_bsp.c
           98   1021: .L_MergedGlobals
           99   1038: g_ePrintInterface
          100   1056: g_sCOMUART
          101   1067: am_hal_gpio.c
          102   1081: g_ui32DSpintbl
          103   1096: am_hal_card.c
          104   1110: am_hal_card_pwr_notification
          105   1139: am_hal_sdmmc_cmd7_card_select
          106   1169: am_hal_card_set_bus_width
          107   1195: am_hal_card_set_speed
          108   1217: am_hal_card_set_uhs_mode
          109   1242: am_hal_sdio_card_set_speed
          110   1269: am_hal_sdio_card_set_bus_width
          111   1300: am_hal_sd_card_set_voltage
          112   1327: am_hal_sd_card_set_speed
          113   1352: am_hal_sd_card_set_bus_width
          114   1381: am_hal_sdmmc_cmd8_send_ext_csd
          115   1412: am_hal_sdmmc_cmd2_send_cid
          116   1439: am_hal_sdmmc_cmd3_set_rca
          117   1465: am_hal_sdmmc_cmd9_send_csd
          118   1492: am_hal_sdio_card_read_cis
          119   1518: am_hal_card_host.c
          120   1537: am_hal_sdhc_host_init
          121   1559: am_hal_sdhc_host_deinit
          122   1583: am_hal_card_host_power_control
          123   1614: am_hal_sdhc_host_execute_cmd
          124   1643: g_sdhc_card_host
          125   1660: g_sdhc_host_ops
          126   1676: am_hal_fault.c
          127   1691: am_hal_interrupt.c
          128   1710: am_hal_mcuctrl.c
          129   1727: am_hal_sdhc.c
          130   1741: am_hal_sdhc_get_cmd_response
          131   1770: am_hal_sdhc_xfer_data
          132   1792: am_hal_sdhc_pio_xfer_data
          133   1818: g_SDHCState
          134   1830: adma_desc_table
          135   1846: am_hal_utils.c
          136   1861: am_bsp_pins.c
          137   1875: am_hal_dcu.c
          138   1888: get_ui32_dcu_mask
          139   1906: get_raw_dcu_mask
          140   1923: am_hal_pin.c
          141   1936: am_hal_pwrctrl.c
          142   1953: .L_MergedGlobals.1
          143   1972: g_bBoostForCryptoApplied
          144   1997: g_bOrigTrimsStored
          145   2016: g_bTempcoValid
          146   2031: g_i32LatestVddfActTrim
          147   2054: g_i32LatestLDOActTrim
          148   2076: g_ui32VDDFAdjustCodes
          149   2098: g_orig_ACTTRIMVDDF
          150   2117: g_orig_MEMLDOACTIVETRIM
          151   2141: g_orig_LPTRIMVDDF
          152   2159: g_orig_MEMLPLDOTRIM
          153   2179: g_orig_TVRGVREFTRIM
          154   2199: g_orig_CORELDOACTIVETRIM
          155   2224: g_pfTempMeasured
          156   2241: g_TempcoADCHandle
          157   2259: am_hal_bootrom_helper.c
          158   2283: am_hal_cachectrl.c
          159   2302: am_hal_itm.c
          160   2315: am_hal_rtc.c
          161   2328: am_hal_tpiu.c
          162   2342: am_hal_uart.c
          163   2356: am_hal_adc.c
          164   2369: am_hal_queue.c
          165   2384: am_hal_mram.c
          166   2398: dc.s
          167   2403: ../clib/memcpset.s
          168   2422: ../clib/heapaux.c
          169   2440: ../clib/angel/startup.s
          170   2464: !!!main
          171   2472: ../clib/angel/handlers.s
          172   2497: !!handler_copy
          173   2512: ../fplib/d2f.s
          174   2527: x$fpl$d2f
          175   2537: ../clib/angel/kernel.s
          176   2560: .ARM.Collect$$rtentry$$00000000
          177   2592: ../fplib/dnaninf.s
          178   2611: x$fpl$dnaninf
          179   2625: ../fplib/fretinf.s
          180   2644: x$fpl$fretinf
          181   2658: ../fplib/usenofp.s
          182   2677: x$fpl$usenofp
          183   2691: .ARM.Collect$$rtentry$$00000002
          184   2723: .ARM.Collect$$rtentry$$00000009
          185   2755: .ARM.Collect$$rtentry$$0000000A
          186   2787: .ARM.Collect$$rtentry$$0000000C
          187   2819: .ARM.Collect$$rtentry$$0000000D
          188   2851: .ARM.Collect$$rtentry$$00000004
          189   2883: ../clib/angel/sys.s
          190   2903: ../clib/stdlib.c
          191   2920: ../clib/angel/boardlib.s
          192   2945: ../clib/libinit.s
          193   2963: .ARM.Collect$$libinit$$00000000
          194   2995: .bss
          195   3000: .ARM.Collect$$rtexit$$00000000
          196   3031: .ARM.Collect$$libinit$$00000001
          197   3063: .ARM.Collect$$libinit$$00000004
          198   3095: .ARM.Collect$$libinit$$00000006
          199   3127: .ARM.Collect$$libinit$$0000000C
          200   3159: .ARM.Collect$$libinit$$0000000E
          201   3191: .ARM.Collect$$libinit$$00000010
          202   3223: .ARM.Collect$$libinit$$00000013
          203   3255: .ARM.Collect$$libinit$$00000015
          204   3287: .ARM.Collect$$libinit$$00000017
          205   3319: .ARM.Collect$$libinit$$00000019
          206   3351: .ARM.Collect$$libinit$$0000001B
          207   3383: .ARM.Collect$$libinit$$0000001D
          208   3415: .ARM.Collect$$libinit$$0000001F
          209   3447: .ARM.Collect$$libinit$$00000021
          210   3479: .ARM.Collect$$libinit$$00000023
          211   3511: .ARM.Collect$$libinit$$00000025
          212   3543: .ARM.Collect$$libinit$$00000027
          213   3575: .ARM.Collect$$libinit$$0000002E
          214   3607: .ARM.Collect$$libinit$$00000030
          215   3639: .ARM.Collect$$libinit$$00000032
          216   3671: .ARM.Collect$$libinit$$00000034
          217   3703: .ARM.Collect$$libinit$$00000035
          218   3735: .ARM.Collect$$rtexit$$00000002
          219   3766: .ARM.Collect$$rtexit$$00000003
          220   3797: .ARM.Collect$$rtexit$$00000004
          221   3828: ../clib/armsys.c
          222   3845: ../fplib/fpinit.s
          223   3863: x$fpl$fpinit
          224   3876: ../clib/angel/sysapp.c
          225   3899: .ARM.Collect$$libshutdown$$00000000
          226   3935: ../clib/heapalloc.c
          227   3955: ../clib/signal.c
          228   3972: .ARM.Collect$$libshutdown$$00000002
          229   4008: .ARM.Collect$$libshutdown$$00000004
          230   4044: .ARM.Collect$$libshutdown$$00000007
          231   4080: .ARM.Collect$$libshutdown$$0000000A
          232   4116: .ARM.Collect$$libshutdown$$0000000C
          233   4152: .ARM.Collect$$libshutdown$$0000000F
          234   4188: .ARM.Collect$$libshutdown$$00000010
          235   4224: ../clib/angel/rt.s
          236   4243: ../clib/signal.s
          237   4260: ../clib/angel/dczerorl.s
          238   4285: !!dczerorl
          239   4296: ../clib/angel/scatter.s
          240   4320: !!!scatter
          241   4331: !!handler_zi
          242   4344: BuildAttributes$$THM_ISAv4$E$P$D$K$B$S$7EM$VFPi3$EXTD16$VFPS$VFMA$PE$A:L22UL41UL21$X:L11$S22US41US21$IEEE1$IW$~IW$USESV6$~STKCKD$USESV7$~SHL$OTIME$ROPI$EBA8$UX$STANDARDLIB$REQ8$PRES8$EABIv2
          243   4534: __Vectors
          244   4544: __Patchable
          245   4556: Reset_Handler
          246   4570: NMI_Handler
          247   4582: MemManage_Handler
          248   4600: BusFault_Handler
          249   4617: UsageFault_Handler
          250   4636: SVC_Handler
          251   4648: DebugMon_Handler
          252   4665: PendSV_Handler
          253   4680: SysTick_Handler
          254   4696: am_adc_isr
          255   4707: am_audadc0_isr
          256   4722: am_brownout_isr
          257   4738: am_cachecpu_isr
          258   4754: am_clkgen_isr
          259   4768: am_ctimer_isr
          260   4782: am_disp_isr
          261   4794: am_dsi_isr
          262   4805: am_dspi2s0_isr
          263   4820: am_dspi2s1_isr
          264   4835: am_dspi2s2_isr
          265   4850: am_dspi2s3_isr
          266   4865: am_gpio0_001f_isr
          267   4883: am_gpio0_203f_isr
          268   4901: am_gpio0_405f_isr
          269   4919: am_gpio0_607f_isr
          270   4937: am_gpio1_001f_isr
          271   4955: am_gpio1_203f_isr
          272   4973: am_gpio1_405f_isr
          273   4991: am_gpio1_607f_isr
          274   5009: am_gpu_isr
          275   5020: am_iomaster0_isr
          276   5037: am_iomaster1_isr
          277   5054: am_iomaster2_isr
          278   5071: am_iomaster3_isr
          279   5088: am_iomaster4_isr
          280   5105: am_iomaster5_isr
          281   5122: am_iomaster6_isr
          282   5139: am_iomaster7_isr
          283   5156: am_ioslave_acc_isr
          284   5175: am_ioslave_ios_isr
          285   5194: am_mspi0_isr
          286   5207: am_mspi1_isr
          287   5220: am_mspi2_isr
          288   5233: am_pdm0_isr
          289   5245: am_pdm1_isr
          290   5257: am_pdm2_isr
          291   5269: am_pdm3_isr
          292   5281: am_rtc_isr
          293   5292: am_stimer_cmpr0_isr
          294   5312: am_stimer_cmpr1_isr
          295   5332: am_stimer_cmpr2_isr
          296   5352: am_stimer_cmpr3_isr
          297   5372: am_stimer_cmpr4_isr
          298   5392: am_stimer_cmpr5_isr
          299   5412: am_stimer_cmpr6_isr
          300   5432: am_stimer_cmpr7_isr
          301   5452: am_stimerof_isr
          302   5468: am_timer00_isr
          303   5483: am_timer01_isr
          304   5498: am_timer02_isr
          305   5513: am_timer03_isr
          306   5528: am_timer04_isr
          307   5543: am_timer05_isr
          308   5558: am_timer06_isr
          309   5573: am_timer07_isr
          310   5588: am_timer08_isr
          311   5603: am_timer09_isr
          312   5618: am_timer10_isr
          313   5633: am_timer11_isr
          314   5648: am_timer12_isr
          315   5663: am_timer13_isr
          316   5678: am_timer14_isr
          317   5693: am_timer15_isr
          318   5708: am_uart1_isr
          319   5721: am_uart2_isr
          320   5734: am_uart3_isr
          321   5747: am_uart_isr
          322   5759: am_usb_isr
          323   5770: am_vcomp_isr
          324   5783: am_watchdog_isr
          325   5799: __main
          326   5806: __scatterload
          327   5820: __scatterload_rt2
          328   5838: __scatterload_rt2_thumb_only
          329   5867: __scatterload_null
          330   5886: __decompress
          331   5899: __decompress0
          332   5913: __scatterload_copy
          333   5932: __scatterload_zeroinit
          334   5955: __rt_lib_init
          335   5969: __rt_lib_init_fp_1
          336   5988: __rt_lib_init_alloca_1
          337   6011: __rt_lib_init_argv_1
          338   6032: __rt_lib_init_atexit_1
          339   6055: __rt_lib_init_clock_1
          340   6077: __rt_lib_init_cpp_1
          341   6097: __rt_lib_init_exceptions_1
          342   6124: __rt_lib_init_fp_trap_1
          343   6148: __rt_lib_init_getenv_1
          344   6171: __rt_lib_init_heap_1
          345   6192: __rt_lib_init_lc_collate_1
          346   6219: __rt_lib_init_lc_ctype_1
          347   6244: __rt_lib_init_lc_monetary_1
          348   6272: __rt_lib_init_lc_numeric_1
          349   6299: __rt_lib_init_lc_time_1
          350   6323: __rt_lib_init_preinit_1
          351   6347: __rt_lib_init_rand_1
          352   6368: __rt_lib_init_relocate_pie_1
          353   6397: __rt_lib_init_return
          354   6418: __rt_lib_init_signal_1
          355   6441: __rt_lib_init_stdio_1
          356   6463: __rt_lib_init_user_alloc_1
          357   6490: __rt_lib_shutdown
          358   6508: __rt_lib_shutdown_cpp_1
          359   6532: __rt_lib_shutdown_fp_trap_1
          360   6560: __rt_lib_shutdown_heap_1
          361   6585: __rt_lib_shutdown_return
          362   6610: __rt_lib_shutdown_signal_1
          363   6637: __rt_lib_shutdown_stdio_1
          364   6663: __rt_lib_shutdown_user_alloc_1
          365   6694: __rt_entry
          366   6705: __rt_entry_presh_1
          367   6724: __rt_entry_sh
          368   6738: __rt_entry_li
          369   6752: __rt_entry_postsh_1
          370   6772: __rt_entry_main
          371   6788: __rt_entry_postli_1
          372   6808: __rt_exit
          373   6818: __rt_exit_ls
          374   6831: __rt_exit_prels_1
          375   6849: __rt_exit_exit
          376   6864: __user_initial_stackheap
          377   6889: __aeabi_memclr
          378   6904: __rt_memclr
          379   6916: _memset
          380   6924: __aeabi_memclr4
          381   6940: __aeabi_memclr8
          382   6956: __rt_memclr_w
          383   6970: _memset_w
          384   6980: __use_two_region_memory
          385   7004: __rt_heap_escrow$2region
          386   7029: __rt_heap_expand$2region
          387   7054: __user_setup_stackheap
          388   7077: exit
          389   7082: __user_libspace
          390   7098: __user_perproc_libspace
          391   7122: __user_perthread_libspace
          392   7148: _sys_exit
          393   7158: __I$use$semihosting
          394   7178: __use_no_semihosting_swi
          395   7203: __semihosting_library_function
          396   7234: HardFault_Handler
          397   7252: am_bsp_itm_printf_enable
          398   7277: am_bsp_low_power_init
          399   7299: am_bsp_sd_cd_pin_enable
          400   7323: am_bsp_sdio_pins_enable
          401   7347: am_getStackedReg
          402   7364: am_hal_card_cfg_set
          403   7384: am_hal_card_deinit
          404   7403: am_hal_card_event_test_cb
          405   7429: am_hal_card_get_csd_field
          406   7455: am_hal_card_get_ext_csd_field
          407   7485: am_hal_card_host_find_card
          408   7512: am_hal_card_host_set_xfer_mode
          409   7543: am_hal_card_init
          410   7560: am_hal_card_mode_switch
          411   7584: am_hal_daxi_config
          412   7603: am_hal_daxi_control
          413   7623: am_hal_dcu_get
          414   7638: am_hal_dcu_update
          415   7656: am_hal_delay_us
          416   7672: am_hal_delay_us_status_change
          417   7702: am_hal_delay_us_status_check
          418   7731: am_hal_fault_status_get
          419   7755: am_hal_get_card_host
          420   7776: am_hal_gpio_pinconfig
          421   7798: am_hal_gpio_state_write
          422   7822: am_hal_interrupt_master_disable
          423   7854: am_hal_interrupt_master_enable
          424   7885: am_hal_interrupt_master_set
          425   7913: am_hal_itm_enable
          426   7931: am_hal_itm_print
          427   7948: am_hal_mram_info_read
          428   7970: am_hal_pwrctrl_control
          429   7993: am_hal_pwrctrl_low_power_init
          430   8023: am_hal_pwrctrl_mcu_memory_config
          431   8056: am_hal_pwrctrl_periph_disable
          432   8086: am_hal_pwrctrl_periph_enable
          433   8115: am_hal_pwrctrl_sram_config
          434   8142: am_hal_rtc_osc_disable
          435   8165: am_hal_sd_card_block_erase
          436   8192: am_hal_sd_card_block_read_async
          437   8224: am_hal_sd_card_block_read_sync
          438   8255: am_hal_sd_card_block_write_async
          439   8288: am_hal_sd_card_block_write_sync
          440   8320: am_hal_sd_card_enable_card_detect
          441   8354: am_hal_sdhc_card_busy
          442   8376: am_hal_sdhc_deinitialize
          443   8401: am_hal_sdhc_disable
          444   8421: am_hal_sdhc_enable
          445   8440: am_hal_sdhc_execute_cmd
          446   8464: am_hal_sdhc_get_cd
          447   8483: am_hal_sdhc_get_wr_protect
          448   8510: am_hal_sdhc_initialize
          449   8533: am_hal_sdhc_interrupt_service
          450   8563: am_hal_sdhc_intr_signal_enable
          451   8594: am_hal_sdhc_intr_status_clear
          452   8624: am_hal_sdhc_intr_status_enable
          453   8655: am_hal_sdhc_intr_status_get
          454   8683: am_hal_sdhc_power_control
          455   8709: am_hal_sdhc_set_bus_clock
          456   8735: am_hal_sdhc_set_bus_voltage
          457   8763: am_hal_sdhc_set_bus_width
          458   8789: am_hal_sdhc_set_txrx_delay
          459   8816: am_hal_sdhc_set_uhs_mode
          460   8841: am_hal_sdhc_setup_host
          461   8864: am_hal_tpiu_enable
          462   8883: am_sdio_isr
          463   8895: am_util_delay_ms
          464   8912: am_util_delay_us
          465   8929: am_util_faultisr_collect_data
          466   8959: am_util_stdio_printf
          467   8980: am_util_stdio_printf_init
          468   9006: am_util_stdio_vsprintf
          469   9029: am_valid_sp
          470   9041: check_if_data_match
          471   9061: crypto_boost_trims
          472   9080: main
          473   9085: sd_card_power_config
          474   9106: __aeabi_d2f
          475   9118: _d2f
          476   9123: __fpl_dnaninf
          477   9137: _fp_init
          478   9146: __fplib_config_fpu_vfp
          479   9169: __fplib_config_pureend_doubles
          480   9200: __fpl_fretinf
          481   9214: __I$use$fp
          482   9225: am_hal_daxi_defaults
          483   9246: am_hal_gpio_pincfg_default
          484   9273: am_hal_gpio_pincfg_input
          485   9298: am_hal_gpio_pincfg_output
          486   9324: am_hal_pwrctrl_peripheral_control
          487   9358: g_DefaultMcuMemCfg
          488   9377: g_DefaultSRAMCfg
          489   9394: g_am_hal_bootrom_helper
          490   9418: sGlobalAccess
          491   9432: ui32DSP0Allowed
          492   9448: ui32DSP1Allowed
          493   9464: ui32MCUAllowed
          494   9479: ui32SharedAccess
          495   9496: Region$$Table$$Base
          496   9516: Region$$Table$$Limit
          497   9537: gpDcuEnable
          498   9549: gpDcuLock
          499   9559: gDcuEnable
          500   9570: gDcuDisable
          501   9582: g_ui32TrimVer
          502   9596: g_ui32origSimobuckVDDStrim
          503   9623: gDaxiConfig
          504   9635: g_AM_BSP_GPIO_SDIO_CLK
          505   9658: g_AM_BSP_GPIO_SDIO_CMD
          506   9681: g_AM_BSP_GPIO_SDIO_DAT0
          507   9705: g_AM_BSP_GPIO_SDIO_DAT1
          508   9729: g_AM_BSP_GPIO_SDIO_DAT2
          509   9753: g_AM_BSP_GPIO_SDIO_DAT3
          510   9777: g_AM_BSP_GPIO_SDIO_DAT4
          511   9801: g_AM_BSP_GPIO_SDIO_DAT5
          512   9825: g_AM_BSP_GPIO_SDIO_DAT6
          513   9849: g_AM_BSP_GPIO_SDIO_DAT7
          514   9873: g_ui32CardIsertFlag
          515   9893: __libspace_start
          516   9910: __temporary_stack_top$libspace
          517   9941: bAsyncReadIsDone
          518   9958: bAsyncWriteIsDone
          519   9976: gFaultStack
          520   9988: gStartOff
          521   9998: g_AM_BSP_GPIO_ITM_SWO
          522  10020: g_pfnCharPrint
          523  10035: g_ui32CardIntCnt
          524  10052: pSdhcCardHost
          525  10066: ui8RdBuf
          526  10075: ui8WrBuf
          527  10084: psGlobalAccessPtr
          528  10102: ui32MCUClaimed
          529  10117: ui32DSP0Claimed
          530  10133: ui32DSP1Claimed
          531  10149: pui8WrBufSSRAM
          532  10164: pui8RdBufSSRAM
          533  10179: 


** Section #13 '.note' (SHT_NOTE)
    Size   : 32 bytes (alignment 4)


** Section #14 '.comment' (SHT_PROGBITS)
    Size   : 1688 bytes


** Section #15 '.shstrtab' (SHT_STRTAB)
    Size   : 148 bytes

            #  Offset String
        ====================================

            1      1: MCU_MRAM
            2     10: MCU_TCM
            3     18: SHARED_SRAM
            4     30: .debug_abbrev
            5     44: .debug_frame
            6     57: .debug_info
            7     69: .debug_line
            8     81: .debug_ranges
            9     95: .debug_str
           10    106: .symtab
           11    114: .strtab
           12    122: .note
           13    128: .comment
           14    137: .shstrtab
           15    147: 


